

Microchip MPLAB XC8 Assembler V2.35 build 20211206165544 
                                                                                               Tue Feb 08 16:41:43 2022

Microchip MPLAB XC8 C Compiler v2.35 (Free license) build 20211206165544 Og1 
     1                           	processor	16F18855
     2                           	pagewidth 120
     3                           	opt	flic
     4                           	psect	nvCOMMON,global,class=COMMON,space=1,delta=1,noexec
     5                           	psect	cinit,global,class=CODE,merge=1,delta=2
     6                           	psect	cstackCOMMON,global,class=COMMON,space=1,delta=1,noexec
     7                           	psect	maintext,global,class=CODE,merge=1,split=1,delta=2
     8                           	psect	text1,local,class=CODE,merge=1,delta=2
     9                           	psect	text2,local,class=CODE,merge=1,delta=2
    10                           	psect	text3,local,class=CODE,merge=1,delta=2
    11                           	psect	text4,local,class=CODE,merge=1,delta=2
    12                           	psect	text5,local,class=CODE,merge=1,delta=2
    13                           	psect	text6,local,class=CODE,merge=1,delta=2
    14                           	psect	text7,local,class=CODE,merge=1,delta=2
    15                           	psect	idloc,global,abs,ovrld,class=IDLOC,space=5,delta=2,noexec
    16                           	psect	config,global,abs,ovrld,class=CONFIG,space=4,delta=2,noexec
    17                           	dabs	1,0x7E,2
    18  0000                     
    19                           ; Version 2.40
    20                           ; Generated 02/12/2021 GMT
    21                           ; 
    22                           ; Copyright © 2021, Microchip Technology Inc. and its subsidiaries ("Microchip")
    23                           ; All rights reserved.
    24                           ; 
    25                           ; This software is developed by Microchip Technology Inc. and its subsidiaries ("Microch
      +                          ip").
    26                           ; 
    27                           ; Redistribution and use in source and binary forms, with or without modification, are
    28                           ; permitted provided that the following conditions are met:
    29                           ; 
    30                           ;     1. Redistributions of source code must retain the above copyright notice, this lis
      +                          t of
    31                           ;        conditions and the following disclaimer.
    32                           ; 
    33                           ;     2. Redistributions in binary form must reproduce the above copyright notice, this 
      +                          list
    34                           ;        of conditions and the following disclaimer in the documentation and/or other
    35                           ;        materials provided with the distribution. Publication is not required when
    36                           ;        this file is used in an embedded application.
    37                           ; 
    38                           ;     3. Microchip's name may not be used to endorse or promote products derived from th
      +                          is
    39                           ;        software without specific prior written permission.
    40                           ; 
    41                           ; THIS SOFTWARE IS PROVIDED BY MICROCHIP "AS IS" AND ANY EXPRESS OR IMPLIED WARRANTIES,
    42                           ; INCLUDING, BUT NOT LIMITED TO, THE IMPLIED WARRANTIES OF MERCHANTABILITY AND FITNESS F
      +                          OR
    43                           ; PURPOSE ARE DISCLAIMED.  IN NO EVENT SHALL MICROCHIP BE LIABLE FOR ANY DIRECT, INDIREC
      +                          T,
    44                           ; INCIDENTAL, SPECIAL, EXEMPLARY, OR CONSEQUENTIAL DAMAGES (INCLUDING BUT NOT LIMITED TO
    45                           ; PROCUREMENT OF SUBSTITUTE GOODS OR SERVICES; LOSS OF USE, DATA OR PROFITS; OR BUSINESS
    46                           ; INTERRUPTION) HOWSOEVER CAUSED AND ON ANY THEORY OF LIABILITY, WHETHER IN CONTRACT, ST
      +                          RICT
    47                           ; LIABILITY, OR TORT (INCLUDING NEGLIGENCE OR OTHERWISE) ARISING IN ANY WAY OUT OF THE U
      +                          SE OF
    48                           ; THIS SOFTWARE, EVEN IF ADVISED OF THE POSSIBILITY OF SUCH DAMAGE.
    49                           ; 
    50                           ; 
    51                           ; Code-generator required, PIC16F18855 Definitions
    52                           ; 
    53                           ; SFR Addresses
    54  0000                     	;# 
    55  0001                     	;# 
    56  0002                     	;# 
    57  0003                     	;# 
    58  0004                     	;# 
    59  0005                     	;# 
    60  0006                     	;# 
    61  0007                     	;# 
    62  0008                     	;# 
    63  0009                     	;# 
    64  000A                     	;# 
    65  000B                     	;# 
    66  000C                     	;# 
    67  000D                     	;# 
    68  000E                     	;# 
    69  0010                     	;# 
    70  0011                     	;# 
    71  0012                     	;# 
    72  0013                     	;# 
    73  0016                     	;# 
    74  0017                     	;# 
    75  0018                     	;# 
    76  001C                     	;# 
    77  001C                     	;# 
    78  001D                     	;# 
    79  001D                     	;# 
    80  001E                     	;# 
    81  001F                     	;# 
    82  008C                     	;# 
    83  008C                     	;# 
    84  008D                     	;# 
    85  008E                     	;# 
    86  008E                     	;# 
    87  008F                     	;# 
    88  0090                     	;# 
    89  0090                     	;# 
    90  0091                     	;# 
    91  0093                     	;# 
    92  0094                     	;# 
    93  0095                     	;# 
    94  0096                     	;# 
    95  0097                     	;# 
    96  0098                     	;# 
    97  0099                     	;# 
    98  009A                     	;# 
    99  009B                     	;# 
   100  009C                     	;# 
   101  009D                     	;# 
   102  009E                     	;# 
   103  010C                     	;# 
   104  010D                     	;# 
   105  010E                     	;# 
   106  010E                     	;# 
   107  010F                     	;# 
   108  0110                     	;# 
   109  0110                     	;# 
   110  0111                     	;# 
   111  0112                     	;# 
   112  0112                     	;# 
   113  0113                     	;# 
   114  0114                     	;# 
   115  0114                     	;# 
   116  0115                     	;# 
   117  0116                     	;# 
   118  0116                     	;# 
   119  0117                     	;# 
   120  0119                     	;# 
   121  0119                     	;# 
   122  0119                     	;# 
   123  011A                     	;# 
   124  011A                     	;# 
   125  011A                     	;# 
   126  011B                     	;# 
   127  011B                     	;# 
   128  011B                     	;# 
   129  011B                     	;# 
   130  011B                     	;# 
   131  011C                     	;# 
   132  011C                     	;# 
   133  011C                     	;# 
   134  011D                     	;# 
   135  011D                     	;# 
   136  011D                     	;# 
   137  011E                     	;# 
   138  011E                     	;# 
   139  011E                     	;# 
   140  011F                     	;# 
   141  011F                     	;# 
   142  011F                     	;# 
   143  011F                     	;# 
   144  011F                     	;# 
   145  018C                     	;# 
   146  018D                     	;# 
   147  018E                     	;# 
   148  018F                     	;# 
   149  0190                     	;# 
   150  0191                     	;# 
   151  0192                     	;# 
   152  0196                     	;# 
   153  0197                     	;# 
   154  0198                     	;# 
   155  0199                     	;# 
   156  019A                     	;# 
   157  019B                     	;# 
   158  019C                     	;# 
   159  020C                     	;# 
   160  020C                     	;# 
   161  020D                     	;# 
   162  020E                     	;# 
   163  020F                     	;# 
   164  020F                     	;# 
   165  0210                     	;# 
   166  0210                     	;# 
   167  0211                     	;# 
   168  0211                     	;# 
   169  0212                     	;# 
   170  0212                     	;# 
   171  0213                     	;# 
   172  0214                     	;# 
   173  0215                     	;# 
   174  0215                     	;# 
   175  0216                     	;# 
   176  0216                     	;# 
   177  0217                     	;# 
   178  0217                     	;# 
   179  0218                     	;# 
   180  0218                     	;# 
   181  0219                     	;# 
   182  021A                     	;# 
   183  021B                     	;# 
   184  021B                     	;# 
   185  021C                     	;# 
   186  021C                     	;# 
   187  021D                     	;# 
   188  021D                     	;# 
   189  021E                     	;# 
   190  021F                     	;# 
   191  028C                     	;# 
   192  028C                     	;# 
   193  028D                     	;# 
   194  028D                     	;# 
   195  028E                     	;# 
   196  028F                     	;# 
   197  0290                     	;# 
   198  0290                     	;# 
   199  0291                     	;# 
   200  0292                     	;# 
   201  0292                     	;# 
   202  0293                     	;# 
   203  0293                     	;# 
   204  0294                     	;# 
   205  0295                     	;# 
   206  0296                     	;# 
   207  0296                     	;# 
   208  0297                     	;# 
   209  0298                     	;# 
   210  0298                     	;# 
   211  0299                     	;# 
   212  0299                     	;# 
   213  029A                     	;# 
   214  029B                     	;# 
   215  029C                     	;# 
   216  029C                     	;# 
   217  029D                     	;# 
   218  030C                     	;# 
   219  030C                     	;# 
   220  030D                     	;# 
   221  030E                     	;# 
   222  030F                     	;# 
   223  0310                     	;# 
   224  0310                     	;# 
   225  0311                     	;# 
   226  0312                     	;# 
   227  0313                     	;# 
   228  0314                     	;# 
   229  0314                     	;# 
   230  0315                     	;# 
   231  0316                     	;# 
   232  0317                     	;# 
   233  0318                     	;# 
   234  0318                     	;# 
   235  0319                     	;# 
   236  031A                     	;# 
   237  031B                     	;# 
   238  031C                     	;# 
   239  031C                     	;# 
   240  031D                     	;# 
   241  031E                     	;# 
   242  031F                     	;# 
   243  038C                     	;# 
   244  038C                     	;# 
   245  038D                     	;# 
   246  038E                     	;# 
   247  0390                     	;# 
   248  0390                     	;# 
   249  0391                     	;# 
   250  0392                     	;# 
   251  040C                     	;# 
   252  040D                     	;# 
   253  040E                     	;# 
   254  040F                     	;# 
   255  0410                     	;# 
   256  0411                     	;# 
   257  0416                     	;# 
   258  0416                     	;# 
   259  0417                     	;# 
   260  0418                     	;# 
   261  0418                     	;# 
   262  0419                     	;# 
   263  041A                     	;# 
   264  041A                     	;# 
   265  041B                     	;# 
   266  041C                     	;# 
   267  041C                     	;# 
   268  041D                     	;# 
   269  041E                     	;# 
   270  041F                     	;# 
   271  048C                     	;# 
   272  048C                     	;# 
   273  048D                     	;# 
   274  048E                     	;# 
   275  048F                     	;# 
   276  048F                     	;# 
   277  0490                     	;# 
   278  0491                     	;# 
   279  0492                     	;# 
   280  0492                     	;# 
   281  0493                     	;# 
   282  0494                     	;# 
   283  0495                     	;# 
   284  0495                     	;# 
   285  0496                     	;# 
   286  0497                     	;# 
   287  0498                     	;# 
   288  0499                     	;# 
   289  049A                     	;# 
   290  049B                     	;# 
   291  049C                     	;# 
   292  049D                     	;# 
   293  050C                     	;# 
   294  050C                     	;# 
   295  050D                     	;# 
   296  050E                     	;# 
   297  050F                     	;# 
   298  050F                     	;# 
   299  0510                     	;# 
   300  0511                     	;# 
   301  0512                     	;# 
   302  0512                     	;# 
   303  0513                     	;# 
   304  0514                     	;# 
   305  0515                     	;# 
   306  0515                     	;# 
   307  0516                     	;# 
   308  0517                     	;# 
   309  0518                     	;# 
   310  0519                     	;# 
   311  051A                     	;# 
   312  051B                     	;# 
   313  051C                     	;# 
   314  051D                     	;# 
   315  058C                     	;# 
   316  058C                     	;# 
   317  058D                     	;# 
   318  058E                     	;# 
   319  058F                     	;# 
   320  058F                     	;# 
   321  0590                     	;# 
   322  0591                     	;# 
   323  0592                     	;# 
   324  0593                     	;# 
   325  060C                     	;# 
   326  060D                     	;# 
   327  060E                     	;# 
   328  060F                     	;# 
   329  0610                     	;# 
   330  0611                     	;# 
   331  0612                     	;# 
   332  0613                     	;# 
   333  0614                     	;# 
   334  0616                     	;# 
   335  0617                     	;# 
   336  0618                     	;# 
   337  0619                     	;# 
   338  061A                     	;# 
   339  061B                     	;# 
   340  061C                     	;# 
   341  061D                     	;# 
   342  061E                     	;# 
   343  068C                     	;# 
   344  068D                     	;# 
   345  068E                     	;# 
   346  068F                     	;# 
   347  0690                     	;# 
   348  0691                     	;# 
   349  0692                     	;# 
   350  0693                     	;# 
   351  0694                     	;# 
   352  070C                     	;# 
   353  070D                     	;# 
   354  070E                     	;# 
   355  070F                     	;# 
   356  0710                     	;# 
   357  0711                     	;# 
   358  0712                     	;# 
   359  0713                     	;# 
   360  0714                     	;# 
   361  0716                     	;# 
   362  0717                     	;# 
   363  0718                     	;# 
   364  0719                     	;# 
   365  071A                     	;# 
   366  071B                     	;# 
   367  071C                     	;# 
   368  071D                     	;# 
   369  071E                     	;# 
   370  0796                     	;# 
   371  0797                     	;# 
   372  0798                     	;# 
   373  0799                     	;# 
   374  079A                     	;# 
   375  079B                     	;# 
   376  080C                     	;# 
   377  080D                     	;# 
   378  080E                     	;# 
   379  080F                     	;# 
   380  0810                     	;# 
   381  0811                     	;# 
   382  0812                     	;# 
   383  0813                     	;# 
   384  0814                     	;# 
   385  081A                     	;# 
   386  081B                     	;# 
   387  081C                     	;# 
   388  081D                     	;# 
   389  081E                     	;# 
   390  081F                     	;# 
   391  088C                     	;# 
   392  088D                     	;# 
   393  088E                     	;# 
   394  088F                     	;# 
   395  0890                     	;# 
   396  0891                     	;# 
   397  0892                     	;# 
   398  0893                     	;# 
   399  0895                     	;# 
   400  0896                     	;# 
   401  0897                     	;# 
   402  0898                     	;# 
   403  0899                     	;# 
   404  089A                     	;# 
   405  089B                     	;# 
   406  090C                     	;# 
   407  090E                     	;# 
   408  090F                     	;# 
   409  091F                     	;# 
   410  091F                     	;# 
   411  098F                     	;# 
   412  098F                     	;# 
   413  0990                     	;# 
   414  0991                     	;# 
   415  0992                     	;# 
   416  0993                     	;# 
   417  0994                     	;# 
   418  0995                     	;# 
   419  0996                     	;# 
   420  0997                     	;# 
   421  0E0F                     	;# 
   422  0E10                     	;# 
   423  0E11                     	;# 
   424  0E12                     	;# 
   425  0E13                     	;# 
   426  0E14                     	;# 
   427  0E15                     	;# 
   428  0E16                     	;# 
   429  0E17                     	;# 
   430  0E18                     	;# 
   431  0E19                     	;# 
   432  0E1A                     	;# 
   433  0E1B                     	;# 
   434  0E1C                     	;# 
   435  0E1D                     	;# 
   436  0E1E                     	;# 
   437  0E1F                     	;# 
   438  0E20                     	;# 
   439  0E21                     	;# 
   440  0E22                     	;# 
   441  0E23                     	;# 
   442  0E24                     	;# 
   443  0E25                     	;# 
   444  0E26                     	;# 
   445  0E27                     	;# 
   446  0E28                     	;# 
   447  0E29                     	;# 
   448  0E2A                     	;# 
   449  0E2B                     	;# 
   450  0E2C                     	;# 
   451  0E2D                     	;# 
   452  0E2E                     	;# 
   453  0E2F                     	;# 
   454  0E30                     	;# 
   455  0E31                     	;# 
   456  0E32                     	;# 
   457  0E33                     	;# 
   458  0E34                     	;# 
   459  0E35                     	;# 
   460  0E36                     	;# 
   461  0E37                     	;# 
   462  0E8F                     	;# 
   463  0E90                     	;# 
   464  0E91                     	;# 
   465  0E92                     	;# 
   466  0E93                     	;# 
   467  0E94                     	;# 
   468  0E95                     	;# 
   469  0E96                     	;# 
   470  0E97                     	;# 
   471  0E9C                     	;# 
   472  0E9D                     	;# 
   473  0E9E                     	;# 
   474  0EA1                     	;# 
   475  0EA2                     	;# 
   476  0EA3                     	;# 
   477  0EA4                     	;# 
   478  0EA5                     	;# 
   479  0EA9                     	;# 
   480  0EAA                     	;# 
   481  0EAB                     	;# 
   482  0EAC                     	;# 
   483  0EB1                     	;# 
   484  0EB2                     	;# 
   485  0EB3                     	;# 
   486  0EB8                     	;# 
   487  0EB9                     	;# 
   488  0EBA                     	;# 
   489  0EBB                     	;# 
   490  0EBC                     	;# 
   491  0EBD                     	;# 
   492  0EBE                     	;# 
   493  0EC3                     	;# 
   494  0EC5                     	;# 
   495  0EC6                     	;# 
   496  0EC7                     	;# 
   497  0EC8                     	;# 
   498  0EC9                     	;# 
   499  0ECA                     	;# 
   500  0ECB                     	;# 
   501  0ECC                     	;# 
   502  0F10                     	;# 
   503  0F11                     	;# 
   504  0F12                     	;# 
   505  0F13                     	;# 
   506  0F14                     	;# 
   507  0F15                     	;# 
   508  0F16                     	;# 
   509  0F17                     	;# 
   510  0F18                     	;# 
   511  0F19                     	;# 
   512  0F1A                     	;# 
   513  0F1B                     	;# 
   514  0F1C                     	;# 
   515  0F1D                     	;# 
   516  0F1E                     	;# 
   517  0F1F                     	;# 
   518  0F20                     	;# 
   519  0F21                     	;# 
   520  0F22                     	;# 
   521  0F23                     	;# 
   522  0F24                     	;# 
   523  0F25                     	;# 
   524  0F26                     	;# 
   525  0F27                     	;# 
   526  0F38                     	;# 
   527  0F39                     	;# 
   528  0F3A                     	;# 
   529  0F3B                     	;# 
   530  0F3C                     	;# 
   531  0F3D                     	;# 
   532  0F3E                     	;# 
   533  0F3F                     	;# 
   534  0F40                     	;# 
   535  0F41                     	;# 
   536  0F43                     	;# 
   537  0F44                     	;# 
   538  0F45                     	;# 
   539  0F46                     	;# 
   540  0F47                     	;# 
   541  0F48                     	;# 
   542  0F49                     	;# 
   543  0F4A                     	;# 
   544  0F4B                     	;# 
   545  0F4C                     	;# 
   546  0F4E                     	;# 
   547  0F4F                     	;# 
   548  0F50                     	;# 
   549  0F51                     	;# 
   550  0F52                     	;# 
   551  0F53                     	;# 
   552  0F54                     	;# 
   553  0F55                     	;# 
   554  0F56                     	;# 
   555  0F57                     	;# 
   556  0F65                     	;# 
   557  0F68                     	;# 
   558  0F69                     	;# 
   559  0F6A                     	;# 
   560  0F6B                     	;# 
   561  0FE4                     	;# 
   562  0FE5                     	;# 
   563  0FE6                     	;# 
   564  0FE7                     	;# 
   565  0FE8                     	;# 
   566  0FE9                     	;# 
   567  0FEA                     	;# 
   568  0FEB                     	;# 
   569  0FED                     	;# 
   570  0FEE                     	;# 
   571  0FEF                     	;# 
   572  0000                     	;# 
   573  0001                     	;# 
   574  0002                     	;# 
   575  0003                     	;# 
   576  0004                     	;# 
   577  0005                     	;# 
   578  0006                     	;# 
   579  0007                     	;# 
   580  0008                     	;# 
   581  0009                     	;# 
   582  000A                     	;# 
   583  000B                     	;# 
   584  000C                     	;# 
   585  000D                     	;# 
   586  000E                     	;# 
   587  0010                     	;# 
   588  0011                     	;# 
   589  0012                     	;# 
   590  0013                     	;# 
   591  0016                     	;# 
   592  0017                     	;# 
   593  0018                     	;# 
   594  001C                     	;# 
   595  001C                     	;# 
   596  001D                     	;# 
   597  001D                     	;# 
   598  001E                     	;# 
   599  001F                     	;# 
   600  008C                     	;# 
   601  008C                     	;# 
   602  008D                     	;# 
   603  008E                     	;# 
   604  008E                     	;# 
   605  008F                     	;# 
   606  0090                     	;# 
   607  0090                     	;# 
   608  0091                     	;# 
   609  0093                     	;# 
   610  0094                     	;# 
   611  0095                     	;# 
   612  0096                     	;# 
   613  0097                     	;# 
   614  0098                     	;# 
   615  0099                     	;# 
   616  009A                     	;# 
   617  009B                     	;# 
   618  009C                     	;# 
   619  009D                     	;# 
   620  009E                     	;# 
   621  010C                     	;# 
   622  010D                     	;# 
   623  010E                     	;# 
   624  010E                     	;# 
   625  010F                     	;# 
   626  0110                     	;# 
   627  0110                     	;# 
   628  0111                     	;# 
   629  0112                     	;# 
   630  0112                     	;# 
   631  0113                     	;# 
   632  0114                     	;# 
   633  0114                     	;# 
   634  0115                     	;# 
   635  0116                     	;# 
   636  0116                     	;# 
   637  0117                     	;# 
   638  0119                     	;# 
   639  0119                     	;# 
   640  0119                     	;# 
   641  011A                     	;# 
   642  011A                     	;# 
   643  011A                     	;# 
   644  011B                     	;# 
   645  011B                     	;# 
   646  011B                     	;# 
   647  011B                     	;# 
   648  011B                     	;# 
   649  011C                     	;# 
   650  011C                     	;# 
   651  011C                     	;# 
   652  011D                     	;# 
   653  011D                     	;# 
   654  011D                     	;# 
   655  011E                     	;# 
   656  011E                     	;# 
   657  011E                     	;# 
   658  011F                     	;# 
   659  011F                     	;# 
   660  011F                     	;# 
   661  011F                     	;# 
   662  011F                     	;# 
   663  018C                     	;# 
   664  018D                     	;# 
   665  018E                     	;# 
   666  018F                     	;# 
   667  0190                     	;# 
   668  0191                     	;# 
   669  0192                     	;# 
   670  0196                     	;# 
   671  0197                     	;# 
   672  0198                     	;# 
   673  0199                     	;# 
   674  019A                     	;# 
   675  019B                     	;# 
   676  019C                     	;# 
   677  020C                     	;# 
   678  020C                     	;# 
   679  020D                     	;# 
   680  020E                     	;# 
   681  020F                     	;# 
   682  020F                     	;# 
   683  0210                     	;# 
   684  0210                     	;# 
   685  0211                     	;# 
   686  0211                     	;# 
   687  0212                     	;# 
   688  0212                     	;# 
   689  0213                     	;# 
   690  0214                     	;# 
   691  0215                     	;# 
   692  0215                     	;# 
   693  0216                     	;# 
   694  0216                     	;# 
   695  0217                     	;# 
   696  0217                     	;# 
   697  0218                     	;# 
   698  0218                     	;# 
   699  0219                     	;# 
   700  021A                     	;# 
   701  021B                     	;# 
   702  021B                     	;# 
   703  021C                     	;# 
   704  021C                     	;# 
   705  021D                     	;# 
   706  021D                     	;# 
   707  021E                     	;# 
   708  021F                     	;# 
   709  028C                     	;# 
   710  028C                     	;# 
   711  028D                     	;# 
   712  028D                     	;# 
   713  028E                     	;# 
   714  028F                     	;# 
   715  0290                     	;# 
   716  0290                     	;# 
   717  0291                     	;# 
   718  0292                     	;# 
   719  0292                     	;# 
   720  0293                     	;# 
   721  0293                     	;# 
   722  0294                     	;# 
   723  0295                     	;# 
   724  0296                     	;# 
   725  0296                     	;# 
   726  0297                     	;# 
   727  0298                     	;# 
   728  0298                     	;# 
   729  0299                     	;# 
   730  0299                     	;# 
   731  029A                     	;# 
   732  029B                     	;# 
   733  029C                     	;# 
   734  029C                     	;# 
   735  029D                     	;# 
   736  030C                     	;# 
   737  030C                     	;# 
   738  030D                     	;# 
   739  030E                     	;# 
   740  030F                     	;# 
   741  0310                     	;# 
   742  0310                     	;# 
   743  0311                     	;# 
   744  0312                     	;# 
   745  0313                     	;# 
   746  0314                     	;# 
   747  0314                     	;# 
   748  0315                     	;# 
   749  0316                     	;# 
   750  0317                     	;# 
   751  0318                     	;# 
   752  0318                     	;# 
   753  0319                     	;# 
   754  031A                     	;# 
   755  031B                     	;# 
   756  031C                     	;# 
   757  031C                     	;# 
   758  031D                     	;# 
   759  031E                     	;# 
   760  031F                     	;# 
   761  038C                     	;# 
   762  038C                     	;# 
   763  038D                     	;# 
   764  038E                     	;# 
   765  0390                     	;# 
   766  0390                     	;# 
   767  0391                     	;# 
   768  0392                     	;# 
   769  040C                     	;# 
   770  040D                     	;# 
   771  040E                     	;# 
   772  040F                     	;# 
   773  0410                     	;# 
   774  0411                     	;# 
   775  0416                     	;# 
   776  0416                     	;# 
   777  0417                     	;# 
   778  0418                     	;# 
   779  0418                     	;# 
   780  0419                     	;# 
   781  041A                     	;# 
   782  041A                     	;# 
   783  041B                     	;# 
   784  041C                     	;# 
   785  041C                     	;# 
   786  041D                     	;# 
   787  041E                     	;# 
   788  041F                     	;# 
   789  048C                     	;# 
   790  048C                     	;# 
   791  048D                     	;# 
   792  048E                     	;# 
   793  048F                     	;# 
   794  048F                     	;# 
   795  0490                     	;# 
   796  0491                     	;# 
   797  0492                     	;# 
   798  0492                     	;# 
   799  0493                     	;# 
   800  0494                     	;# 
   801  0495                     	;# 
   802  0495                     	;# 
   803  0496                     	;# 
   804  0497                     	;# 
   805  0498                     	;# 
   806  0499                     	;# 
   807  049A                     	;# 
   808  049B                     	;# 
   809  049C                     	;# 
   810  049D                     	;# 
   811  050C                     	;# 
   812  050C                     	;# 
   813  050D                     	;# 
   814  050E                     	;# 
   815  050F                     	;# 
   816  050F                     	;# 
   817  0510                     	;# 
   818  0511                     	;# 
   819  0512                     	;# 
   820  0512                     	;# 
   821  0513                     	;# 
   822  0514                     	;# 
   823  0515                     	;# 
   824  0515                     	;# 
   825  0516                     	;# 
   826  0517                     	;# 
   827  0518                     	;# 
   828  0519                     	;# 
   829  051A                     	;# 
   830  051B                     	;# 
   831  051C                     	;# 
   832  051D                     	;# 
   833  058C                     	;# 
   834  058C                     	;# 
   835  058D                     	;# 
   836  058E                     	;# 
   837  058F                     	;# 
   838  058F                     	;# 
   839  0590                     	;# 
   840  0591                     	;# 
   841  0592                     	;# 
   842  0593                     	;# 
   843  060C                     	;# 
   844  060D                     	;# 
   845  060E                     	;# 
   846  060F                     	;# 
   847  0610                     	;# 
   848  0611                     	;# 
   849  0612                     	;# 
   850  0613                     	;# 
   851  0614                     	;# 
   852  0616                     	;# 
   853  0617                     	;# 
   854  0618                     	;# 
   855  0619                     	;# 
   856  061A                     	;# 
   857  061B                     	;# 
   858  061C                     	;# 
   859  061D                     	;# 
   860  061E                     	;# 
   861  068C                     	;# 
   862  068D                     	;# 
   863  068E                     	;# 
   864  068F                     	;# 
   865  0690                     	;# 
   866  0691                     	;# 
   867  0692                     	;# 
   868  0693                     	;# 
   869  0694                     	;# 
   870  070C                     	;# 
   871  070D                     	;# 
   872  070E                     	;# 
   873  070F                     	;# 
   874  0710                     	;# 
   875  0711                     	;# 
   876  0712                     	;# 
   877  0713                     	;# 
   878  0714                     	;# 
   879  0716                     	;# 
   880  0717                     	;# 
   881  0718                     	;# 
   882  0719                     	;# 
   883  071A                     	;# 
   884  071B                     	;# 
   885  071C                     	;# 
   886  071D                     	;# 
   887  071E                     	;# 
   888  0796                     	;# 
   889  0797                     	;# 
   890  0798                     	;# 
   891  0799                     	;# 
   892  079A                     	;# 
   893  079B                     	;# 
   894  080C                     	;# 
   895  080D                     	;# 
   896  080E                     	;# 
   897  080F                     	;# 
   898  0810                     	;# 
   899  0811                     	;# 
   900  0812                     	;# 
   901  0813                     	;# 
   902  0814                     	;# 
   903  081A                     	;# 
   904  081B                     	;# 
   905  081C                     	;# 
   906  081D                     	;# 
   907  081E                     	;# 
   908  081F                     	;# 
   909  088C                     	;# 
   910  088D                     	;# 
   911  088E                     	;# 
   912  088F                     	;# 
   913  0890                     	;# 
   914  0891                     	;# 
   915  0892                     	;# 
   916  0893                     	;# 
   917  0895                     	;# 
   918  0896                     	;# 
   919  0897                     	;# 
   920  0898                     	;# 
   921  0899                     	;# 
   922  089A                     	;# 
   923  089B                     	;# 
   924  090C                     	;# 
   925  090E                     	;# 
   926  090F                     	;# 
   927  091F                     	;# 
   928  091F                     	;# 
   929  098F                     	;# 
   930  098F                     	;# 
   931  0990                     	;# 
   932  0991                     	;# 
   933  0992                     	;# 
   934  0993                     	;# 
   935  0994                     	;# 
   936  0995                     	;# 
   937  0996                     	;# 
   938  0997                     	;# 
   939  0E0F                     	;# 
   940  0E10                     	;# 
   941  0E11                     	;# 
   942  0E12                     	;# 
   943  0E13                     	;# 
   944  0E14                     	;# 
   945  0E15                     	;# 
   946  0E16                     	;# 
   947  0E17                     	;# 
   948  0E18                     	;# 
   949  0E19                     	;# 
   950  0E1A                     	;# 
   951  0E1B                     	;# 
   952  0E1C                     	;# 
   953  0E1D                     	;# 
   954  0E1E                     	;# 
   955  0E1F                     	;# 
   956  0E20                     	;# 
   957  0E21                     	;# 
   958  0E22                     	;# 
   959  0E23                     	;# 
   960  0E24                     	;# 
   961  0E25                     	;# 
   962  0E26                     	;# 
   963  0E27                     	;# 
   964  0E28                     	;# 
   965  0E29                     	;# 
   966  0E2A                     	;# 
   967  0E2B                     	;# 
   968  0E2C                     	;# 
   969  0E2D                     	;# 
   970  0E2E                     	;# 
   971  0E2F                     	;# 
   972  0E30                     	;# 
   973  0E31                     	;# 
   974  0E32                     	;# 
   975  0E33                     	;# 
   976  0E34                     	;# 
   977  0E35                     	;# 
   978  0E36                     	;# 
   979  0E37                     	;# 
   980  0E8F                     	;# 
   981  0E90                     	;# 
   982  0E91                     	;# 
   983  0E92                     	;# 
   984  0E93                     	;# 
   985  0E94                     	;# 
   986  0E95                     	;# 
   987  0E96                     	;# 
   988  0E97                     	;# 
   989  0E9C                     	;# 
   990  0E9D                     	;# 
   991  0E9E                     	;# 
   992  0EA1                     	;# 
   993  0EA2                     	;# 
   994  0EA3                     	;# 
   995  0EA4                     	;# 
   996  0EA5                     	;# 
   997  0EA9                     	;# 
   998  0EAA                     	;# 
   999  0EAB                     	;# 
  1000  0EAC                     	;# 
  1001  0EB1                     	;# 
  1002  0EB2                     	;# 
  1003  0EB3                     	;# 
  1004  0EB8                     	;# 
  1005  0EB9                     	;# 
  1006  0EBA                     	;# 
  1007  0EBB                     	;# 
  1008  0EBC                     	;# 
  1009  0EBD                     	;# 
  1010  0EBE                     	;# 
  1011  0EC3                     	;# 
  1012  0EC5                     	;# 
  1013  0EC6                     	;# 
  1014  0EC7                     	;# 
  1015  0EC8                     	;# 
  1016  0EC9                     	;# 
  1017  0ECA                     	;# 
  1018  0ECB                     	;# 
  1019  0ECC                     	;# 
  1020  0F10                     	;# 
  1021  0F11                     	;# 
  1022  0F12                     	;# 
  1023  0F13                     	;# 
  1024  0F14                     	;# 
  1025  0F15                     	;# 
  1026  0F16                     	;# 
  1027  0F17                     	;# 
  1028  0F18                     	;# 
  1029  0F19                     	;# 
  1030  0F1A                     	;# 
  1031  0F1B                     	;# 
  1032  0F1C                     	;# 
  1033  0F1D                     	;# 
  1034  0F1E                     	;# 
  1035  0F1F                     	;# 
  1036  0F20                     	;# 
  1037  0F21                     	;# 
  1038  0F22                     	;# 
  1039  0F23                     	;# 
  1040  0F24                     	;# 
  1041  0F25                     	;# 
  1042  0F26                     	;# 
  1043  0F27                     	;# 
  1044  0F38                     	;# 
  1045  0F39                     	;# 
  1046  0F3A                     	;# 
  1047  0F3B                     	;# 
  1048  0F3C                     	;# 
  1049  0F3D                     	;# 
  1050  0F3E                     	;# 
  1051  0F3F                     	;# 
  1052  0F40                     	;# 
  1053  0F41                     	;# 
  1054  0F43                     	;# 
  1055  0F44                     	;# 
  1056  0F45                     	;# 
  1057  0F46                     	;# 
  1058  0F47                     	;# 
  1059  0F48                     	;# 
  1060  0F49                     	;# 
  1061  0F4A                     	;# 
  1062  0F4B                     	;# 
  1063  0F4C                     	;# 
  1064  0F4E                     	;# 
  1065  0F4F                     	;# 
  1066  0F50                     	;# 
  1067  0F51                     	;# 
  1068  0F52                     	;# 
  1069  0F53                     	;# 
  1070  0F54                     	;# 
  1071  0F55                     	;# 
  1072  0F56                     	;# 
  1073  0F57                     	;# 
  1074  0F65                     	;# 
  1075  0F68                     	;# 
  1076  0F69                     	;# 
  1077  0F6A                     	;# 
  1078  0F6B                     	;# 
  1079  0FE4                     	;# 
  1080  0FE5                     	;# 
  1081  0FE6                     	;# 
  1082  0FE7                     	;# 
  1083  0FE8                     	;# 
  1084  0FE9                     	;# 
  1085  0FEA                     	;# 
  1086  0FEB                     	;# 
  1087  0FED                     	;# 
  1088  0FEE                     	;# 
  1089  0FEF                     	;# 
  1090  0000                     	;# 
  1091  0001                     	;# 
  1092  0002                     	;# 
  1093  0003                     	;# 
  1094  0004                     	;# 
  1095  0005                     	;# 
  1096  0006                     	;# 
  1097  0007                     	;# 
  1098  0008                     	;# 
  1099  0009                     	;# 
  1100  000A                     	;# 
  1101  000B                     	;# 
  1102  000C                     	;# 
  1103  000D                     	;# 
  1104  000E                     	;# 
  1105  0010                     	;# 
  1106  0011                     	;# 
  1107  0012                     	;# 
  1108  0013                     	;# 
  1109  0016                     	;# 
  1110  0017                     	;# 
  1111  0018                     	;# 
  1112  001C                     	;# 
  1113  001C                     	;# 
  1114  001D                     	;# 
  1115  001D                     	;# 
  1116  001E                     	;# 
  1117  001F                     	;# 
  1118  008C                     	;# 
  1119  008C                     	;# 
  1120  008D                     	;# 
  1121  008E                     	;# 
  1122  008E                     	;# 
  1123  008F                     	;# 
  1124  0090                     	;# 
  1125  0090                     	;# 
  1126  0091                     	;# 
  1127  0093                     	;# 
  1128  0094                     	;# 
  1129  0095                     	;# 
  1130  0096                     	;# 
  1131  0097                     	;# 
  1132  0098                     	;# 
  1133  0099                     	;# 
  1134  009A                     	;# 
  1135  009B                     	;# 
  1136  009C                     	;# 
  1137  009D                     	;# 
  1138  009E                     	;# 
  1139  010C                     	;# 
  1140  010D                     	;# 
  1141  010E                     	;# 
  1142  010E                     	;# 
  1143  010F                     	;# 
  1144  0110                     	;# 
  1145  0110                     	;# 
  1146  0111                     	;# 
  1147  0112                     	;# 
  1148  0112                     	;# 
  1149  0113                     	;# 
  1150  0114                     	;# 
  1151  0114                     	;# 
  1152  0115                     	;# 
  1153  0116                     	;# 
  1154  0116                     	;# 
  1155  0117                     	;# 
  1156  0119                     	;# 
  1157  0119                     	;# 
  1158  0119                     	;# 
  1159  011A                     	;# 
  1160  011A                     	;# 
  1161  011A                     	;# 
  1162  011B                     	;# 
  1163  011B                     	;# 
  1164  011B                     	;# 
  1165  011B                     	;# 
  1166  011B                     	;# 
  1167  011C                     	;# 
  1168  011C                     	;# 
  1169  011C                     	;# 
  1170  011D                     	;# 
  1171  011D                     	;# 
  1172  011D                     	;# 
  1173  011E                     	;# 
  1174  011E                     	;# 
  1175  011E                     	;# 
  1176  011F                     	;# 
  1177  011F                     	;# 
  1178  011F                     	;# 
  1179  011F                     	;# 
  1180  011F                     	;# 
  1181  018C                     	;# 
  1182  018D                     	;# 
  1183  018E                     	;# 
  1184  018F                     	;# 
  1185  0190                     	;# 
  1186  0191                     	;# 
  1187  0192                     	;# 
  1188  0196                     	;# 
  1189  0197                     	;# 
  1190  0198                     	;# 
  1191  0199                     	;# 
  1192  019A                     	;# 
  1193  019B                     	;# 
  1194  019C                     	;# 
  1195  020C                     	;# 
  1196  020C                     	;# 
  1197  020D                     	;# 
  1198  020E                     	;# 
  1199  020F                     	;# 
  1200  020F                     	;# 
  1201  0210                     	;# 
  1202  0210                     	;# 
  1203  0211                     	;# 
  1204  0211                     	;# 
  1205  0212                     	;# 
  1206  0212                     	;# 
  1207  0213                     	;# 
  1208  0214                     	;# 
  1209  0215                     	;# 
  1210  0215                     	;# 
  1211  0216                     	;# 
  1212  0216                     	;# 
  1213  0217                     	;# 
  1214  0217                     	;# 
  1215  0218                     	;# 
  1216  0218                     	;# 
  1217  0219                     	;# 
  1218  021A                     	;# 
  1219  021B                     	;# 
  1220  021B                     	;# 
  1221  021C                     	;# 
  1222  021C                     	;# 
  1223  021D                     	;# 
  1224  021D                     	;# 
  1225  021E                     	;# 
  1226  021F                     	;# 
  1227  028C                     	;# 
  1228  028C                     	;# 
  1229  028D                     	;# 
  1230  028D                     	;# 
  1231  028E                     	;# 
  1232  028F                     	;# 
  1233  0290                     	;# 
  1234  0290                     	;# 
  1235  0291                     	;# 
  1236  0292                     	;# 
  1237  0292                     	;# 
  1238  0293                     	;# 
  1239  0293                     	;# 
  1240  0294                     	;# 
  1241  0295                     	;# 
  1242  0296                     	;# 
  1243  0296                     	;# 
  1244  0297                     	;# 
  1245  0298                     	;# 
  1246  0298                     	;# 
  1247  0299                     	;# 
  1248  0299                     	;# 
  1249  029A                     	;# 
  1250  029B                     	;# 
  1251  029C                     	;# 
  1252  029C                     	;# 
  1253  029D                     	;# 
  1254  030C                     	;# 
  1255  030C                     	;# 
  1256  030D                     	;# 
  1257  030E                     	;# 
  1258  030F                     	;# 
  1259  0310                     	;# 
  1260  0310                     	;# 
  1261  0311                     	;# 
  1262  0312                     	;# 
  1263  0313                     	;# 
  1264  0314                     	;# 
  1265  0314                     	;# 
  1266  0315                     	;# 
  1267  0316                     	;# 
  1268  0317                     	;# 
  1269  0318                     	;# 
  1270  0318                     	;# 
  1271  0319                     	;# 
  1272  031A                     	;# 
  1273  031B                     	;# 
  1274  031C                     	;# 
  1275  031C                     	;# 
  1276  031D                     	;# 
  1277  031E                     	;# 
  1278  031F                     	;# 
  1279  038C                     	;# 
  1280  038C                     	;# 
  1281  038D                     	;# 
  1282  038E                     	;# 
  1283  0390                     	;# 
  1284  0390                     	;# 
  1285  0391                     	;# 
  1286  0392                     	;# 
  1287  040C                     	;# 
  1288  040D                     	;# 
  1289  040E                     	;# 
  1290  040F                     	;# 
  1291  0410                     	;# 
  1292  0411                     	;# 
  1293  0416                     	;# 
  1294  0416                     	;# 
  1295  0417                     	;# 
  1296  0418                     	;# 
  1297  0418                     	;# 
  1298  0419                     	;# 
  1299  041A                     	;# 
  1300  041A                     	;# 
  1301  041B                     	;# 
  1302  041C                     	;# 
  1303  041C                     	;# 
  1304  041D                     	;# 
  1305  041E                     	;# 
  1306  041F                     	;# 
  1307  048C                     	;# 
  1308  048C                     	;# 
  1309  048D                     	;# 
  1310  048E                     	;# 
  1311  048F                     	;# 
  1312  048F                     	;# 
  1313  0490                     	;# 
  1314  0491                     	;# 
  1315  0492                     	;# 
  1316  0492                     	;# 
  1317  0493                     	;# 
  1318  0494                     	;# 
  1319  0495                     	;# 
  1320  0495                     	;# 
  1321  0496                     	;# 
  1322  0497                     	;# 
  1323  0498                     	;# 
  1324  0499                     	;# 
  1325  049A                     	;# 
  1326  049B                     	;# 
  1327  049C                     	;# 
  1328  049D                     	;# 
  1329  050C                     	;# 
  1330  050C                     	;# 
  1331  050D                     	;# 
  1332  050E                     	;# 
  1333  050F                     	;# 
  1334  050F                     	;# 
  1335  0510                     	;# 
  1336  0511                     	;# 
  1337  0512                     	;# 
  1338  0512                     	;# 
  1339  0513                     	;# 
  1340  0514                     	;# 
  1341  0515                     	;# 
  1342  0515                     	;# 
  1343  0516                     	;# 
  1344  0517                     	;# 
  1345  0518                     	;# 
  1346  0519                     	;# 
  1347  051A                     	;# 
  1348  051B                     	;# 
  1349  051C                     	;# 
  1350  051D                     	;# 
  1351  058C                     	;# 
  1352  058C                     	;# 
  1353  058D                     	;# 
  1354  058E                     	;# 
  1355  058F                     	;# 
  1356  058F                     	;# 
  1357  0590                     	;# 
  1358  0591                     	;# 
  1359  0592                     	;# 
  1360  0593                     	;# 
  1361  060C                     	;# 
  1362  060D                     	;# 
  1363  060E                     	;# 
  1364  060F                     	;# 
  1365  0610                     	;# 
  1366  0611                     	;# 
  1367  0612                     	;# 
  1368  0613                     	;# 
  1369  0614                     	;# 
  1370  0616                     	;# 
  1371  0617                     	;# 
  1372  0618                     	;# 
  1373  0619                     	;# 
  1374  061A                     	;# 
  1375  061B                     	;# 
  1376  061C                     	;# 
  1377  061D                     	;# 
  1378  061E                     	;# 
  1379  068C                     	;# 
  1380  068D                     	;# 
  1381  068E                     	;# 
  1382  068F                     	;# 
  1383  0690                     	;# 
  1384  0691                     	;# 
  1385  0692                     	;# 
  1386  0693                     	;# 
  1387  0694                     	;# 
  1388  070C                     	;# 
  1389  070D                     	;# 
  1390  070E                     	;# 
  1391  070F                     	;# 
  1392  0710                     	;# 
  1393  0711                     	;# 
  1394  0712                     	;# 
  1395  0713                     	;# 
  1396  0714                     	;# 
  1397  0716                     	;# 
  1398  0717                     	;# 
  1399  0718                     	;# 
  1400  0719                     	;# 
  1401  071A                     	;# 
  1402  071B                     	;# 
  1403  071C                     	;# 
  1404  071D                     	;# 
  1405  071E                     	;# 
  1406  0796                     	;# 
  1407  0797                     	;# 
  1408  0798                     	;# 
  1409  0799                     	;# 
  1410  079A                     	;# 
  1411  079B                     	;# 
  1412  080C                     	;# 
  1413  080D                     	;# 
  1414  080E                     	;# 
  1415  080F                     	;# 
  1416  0810                     	;# 
  1417  0811                     	;# 
  1418  0812                     	;# 
  1419  0813                     	;# 
  1420  0814                     	;# 
  1421  081A                     	;# 
  1422  081B                     	;# 
  1423  081C                     	;# 
  1424  081D                     	;# 
  1425  081E                     	;# 
  1426  081F                     	;# 
  1427  088C                     	;# 
  1428  088D                     	;# 
  1429  088E                     	;# 
  1430  088F                     	;# 
  1431  0890                     	;# 
  1432  0891                     	;# 
  1433  0892                     	;# 
  1434  0893                     	;# 
  1435  0895                     	;# 
  1436  0896                     	;# 
  1437  0897                     	;# 
  1438  0898                     	;# 
  1439  0899                     	;# 
  1440  089A                     	;# 
  1441  089B                     	;# 
  1442  090C                     	;# 
  1443  090E                     	;# 
  1444  090F                     	;# 
  1445  091F                     	;# 
  1446  091F                     	;# 
  1447  098F                     	;# 
  1448  098F                     	;# 
  1449  0990                     	;# 
  1450  0991                     	;# 
  1451  0992                     	;# 
  1452  0993                     	;# 
  1453  0994                     	;# 
  1454  0995                     	;# 
  1455  0996                     	;# 
  1456  0997                     	;# 
  1457  0E0F                     	;# 
  1458  0E10                     	;# 
  1459  0E11                     	;# 
  1460  0E12                     	;# 
  1461  0E13                     	;# 
  1462  0E14                     	;# 
  1463  0E15                     	;# 
  1464  0E16                     	;# 
  1465  0E17                     	;# 
  1466  0E18                     	;# 
  1467  0E19                     	;# 
  1468  0E1A                     	;# 
  1469  0E1B                     	;# 
  1470  0E1C                     	;# 
  1471  0E1D                     	;# 
  1472  0E1E                     	;# 
  1473  0E1F                     	;# 
  1474  0E20                     	;# 
  1475  0E21                     	;# 
  1476  0E22                     	;# 
  1477  0E23                     	;# 
  1478  0E24                     	;# 
  1479  0E25                     	;# 
  1480  0E26                     	;# 
  1481  0E27                     	;# 
  1482  0E28                     	;# 
  1483  0E29                     	;# 
  1484  0E2A                     	;# 
  1485  0E2B                     	;# 
  1486  0E2C                     	;# 
  1487  0E2D                     	;# 
  1488  0E2E                     	;# 
  1489  0E2F                     	;# 
  1490  0E30                     	;# 
  1491  0E31                     	;# 
  1492  0E32                     	;# 
  1493  0E33                     	;# 
  1494  0E34                     	;# 
  1495  0E35                     	;# 
  1496  0E36                     	;# 
  1497  0E37                     	;# 
  1498  0E8F                     	;# 
  1499  0E90                     	;# 
  1500  0E91                     	;# 
  1501  0E92                     	;# 
  1502  0E93                     	;# 
  1503  0E94                     	;# 
  1504  0E95                     	;# 
  1505  0E96                     	;# 
  1506  0E97                     	;# 
  1507  0E9C                     	;# 
  1508  0E9D                     	;# 
  1509  0E9E                     	;# 
  1510  0EA1                     	;# 
  1511  0EA2                     	;# 
  1512  0EA3                     	;# 
  1513  0EA4                     	;# 
  1514  0EA5                     	;# 
  1515  0EA9                     	;# 
  1516  0EAA                     	;# 
  1517  0EAB                     	;# 
  1518  0EAC                     	;# 
  1519  0EB1                     	;# 
  1520  0EB2                     	;# 
  1521  0EB3                     	;# 
  1522  0EB8                     	;# 
  1523  0EB9                     	;# 
  1524  0EBA                     	;# 
  1525  0EBB                     	;# 
  1526  0EBC                     	;# 
  1527  0EBD                     	;# 
  1528  0EBE                     	;# 
  1529  0EC3                     	;# 
  1530  0EC5                     	;# 
  1531  0EC6                     	;# 
  1532  0EC7                     	;# 
  1533  0EC8                     	;# 
  1534  0EC9                     	;# 
  1535  0ECA                     	;# 
  1536  0ECB                     	;# 
  1537  0ECC                     	;# 
  1538  0F10                     	;# 
  1539  0F11                     	;# 
  1540  0F12                     	;# 
  1541  0F13                     	;# 
  1542  0F14                     	;# 
  1543  0F15                     	;# 
  1544  0F16                     	;# 
  1545  0F17                     	;# 
  1546  0F18                     	;# 
  1547  0F19                     	;# 
  1548  0F1A                     	;# 
  1549  0F1B                     	;# 
  1550  0F1C                     	;# 
  1551  0F1D                     	;# 
  1552  0F1E                     	;# 
  1553  0F1F                     	;# 
  1554  0F20                     	;# 
  1555  0F21                     	;# 
  1556  0F22                     	;# 
  1557  0F23                     	;# 
  1558  0F24                     	;# 
  1559  0F25                     	;# 
  1560  0F26                     	;# 
  1561  0F27                     	;# 
  1562  0F38                     	;# 
  1563  0F39                     	;# 
  1564  0F3A                     	;# 
  1565  0F3B                     	;# 
  1566  0F3C                     	;# 
  1567  0F3D                     	;# 
  1568  0F3E                     	;# 
  1569  0F3F                     	;# 
  1570  0F40                     	;# 
  1571  0F41                     	;# 
  1572  0F43                     	;# 
  1573  0F44                     	;# 
  1574  0F45                     	;# 
  1575  0F46                     	;# 
  1576  0F47                     	;# 
  1577  0F48                     	;# 
  1578  0F49                     	;# 
  1579  0F4A                     	;# 
  1580  0F4B                     	;# 
  1581  0F4C                     	;# 
  1582  0F4E                     	;# 
  1583  0F4F                     	;# 
  1584  0F50                     	;# 
  1585  0F51                     	;# 
  1586  0F52                     	;# 
  1587  0F53                     	;# 
  1588  0F54                     	;# 
  1589  0F55                     	;# 
  1590  0F56                     	;# 
  1591  0F57                     	;# 
  1592  0F65                     	;# 
  1593  0F68                     	;# 
  1594  0F69                     	;# 
  1595  0F6A                     	;# 
  1596  0F6B                     	;# 
  1597  0FE4                     	;# 
  1598  0FE5                     	;# 
  1599  0FE6                     	;# 
  1600  0FE7                     	;# 
  1601  0FE8                     	;# 
  1602  0FE9                     	;# 
  1603  0FEA                     	;# 
  1604  0FEB                     	;# 
  1605  0FED                     	;# 
  1606  0FEE                     	;# 
  1607  0FEF                     	;# 
  1608  0000                     	;# 
  1609  0001                     	;# 
  1610  0002                     	;# 
  1611  0003                     	;# 
  1612  0004                     	;# 
  1613  0005                     	;# 
  1614  0006                     	;# 
  1615  0007                     	;# 
  1616  0008                     	;# 
  1617  0009                     	;# 
  1618  000A                     	;# 
  1619  000B                     	;# 
  1620  000C                     	;# 
  1621  000D                     	;# 
  1622  000E                     	;# 
  1623  0010                     	;# 
  1624  0011                     	;# 
  1625  0012                     	;# 
  1626  0013                     	;# 
  1627  0016                     	;# 
  1628  0017                     	;# 
  1629  0018                     	;# 
  1630  001C                     	;# 
  1631  001C                     	;# 
  1632  001D                     	;# 
  1633  001D                     	;# 
  1634  001E                     	;# 
  1635  001F                     	;# 
  1636  008C                     	;# 
  1637  008C                     	;# 
  1638  008D                     	;# 
  1639  008E                     	;# 
  1640  008E                     	;# 
  1641  008F                     	;# 
  1642  0090                     	;# 
  1643  0090                     	;# 
  1644  0091                     	;# 
  1645  0093                     	;# 
  1646  0094                     	;# 
  1647  0095                     	;# 
  1648  0096                     	;# 
  1649  0097                     	;# 
  1650  0098                     	;# 
  1651  0099                     	;# 
  1652  009A                     	;# 
  1653  009B                     	;# 
  1654  009C                     	;# 
  1655  009D                     	;# 
  1656  009E                     	;# 
  1657  010C                     	;# 
  1658  010D                     	;# 
  1659  010E                     	;# 
  1660  010E                     	;# 
  1661  010F                     	;# 
  1662  0110                     	;# 
  1663  0110                     	;# 
  1664  0111                     	;# 
  1665  0112                     	;# 
  1666  0112                     	;# 
  1667  0113                     	;# 
  1668  0114                     	;# 
  1669  0114                     	;# 
  1670  0115                     	;# 
  1671  0116                     	;# 
  1672  0116                     	;# 
  1673  0117                     	;# 
  1674  0119                     	;# 
  1675  0119                     	;# 
  1676  0119                     	;# 
  1677  011A                     	;# 
  1678  011A                     	;# 
  1679  011A                     	;# 
  1680  011B                     	;# 
  1681  011B                     	;# 
  1682  011B                     	;# 
  1683  011B                     	;# 
  1684  011B                     	;# 
  1685  011C                     	;# 
  1686  011C                     	;# 
  1687  011C                     	;# 
  1688  011D                     	;# 
  1689  011D                     	;# 
  1690  011D                     	;# 
  1691  011E                     	;# 
  1692  011E                     	;# 
  1693  011E                     	;# 
  1694  011F                     	;# 
  1695  011F                     	;# 
  1696  011F                     	;# 
  1697  011F                     	;# 
  1698  011F                     	;# 
  1699  018C                     	;# 
  1700  018D                     	;# 
  1701  018E                     	;# 
  1702  018F                     	;# 
  1703  0190                     	;# 
  1704  0191                     	;# 
  1705  0192                     	;# 
  1706  0196                     	;# 
  1707  0197                     	;# 
  1708  0198                     	;# 
  1709  0199                     	;# 
  1710  019A                     	;# 
  1711  019B                     	;# 
  1712  019C                     	;# 
  1713  020C                     	;# 
  1714  020C                     	;# 
  1715  020D                     	;# 
  1716  020E                     	;# 
  1717  020F                     	;# 
  1718  020F                     	;# 
  1719  0210                     	;# 
  1720  0210                     	;# 
  1721  0211                     	;# 
  1722  0211                     	;# 
  1723  0212                     	;# 
  1724  0212                     	;# 
  1725  0213                     	;# 
  1726  0214                     	;# 
  1727  0215                     	;# 
  1728  0215                     	;# 
  1729  0216                     	;# 
  1730  0216                     	;# 
  1731  0217                     	;# 
  1732  0217                     	;# 
  1733  0218                     	;# 
  1734  0218                     	;# 
  1735  0219                     	;# 
  1736  021A                     	;# 
  1737  021B                     	;# 
  1738  021B                     	;# 
  1739  021C                     	;# 
  1740  021C                     	;# 
  1741  021D                     	;# 
  1742  021D                     	;# 
  1743  021E                     	;# 
  1744  021F                     	;# 
  1745  028C                     	;# 
  1746  028C                     	;# 
  1747  028D                     	;# 
  1748  028D                     	;# 
  1749  028E                     	;# 
  1750  028F                     	;# 
  1751  0290                     	;# 
  1752  0290                     	;# 
  1753  0291                     	;# 
  1754  0292                     	;# 
  1755  0292                     	;# 
  1756  0293                     	;# 
  1757  0293                     	;# 
  1758  0294                     	;# 
  1759  0295                     	;# 
  1760  0296                     	;# 
  1761  0296                     	;# 
  1762  0297                     	;# 
  1763  0298                     	;# 
  1764  0298                     	;# 
  1765  0299                     	;# 
  1766  0299                     	;# 
  1767  029A                     	;# 
  1768  029B                     	;# 
  1769  029C                     	;# 
  1770  029C                     	;# 
  1771  029D                     	;# 
  1772  030C                     	;# 
  1773  030C                     	;# 
  1774  030D                     	;# 
  1775  030E                     	;# 
  1776  030F                     	;# 
  1777  0310                     	;# 
  1778  0310                     	;# 
  1779  0311                     	;# 
  1780  0312                     	;# 
  1781  0313                     	;# 
  1782  0314                     	;# 
  1783  0314                     	;# 
  1784  0315                     	;# 
  1785  0316                     	;# 
  1786  0317                     	;# 
  1787  0318                     	;# 
  1788  0318                     	;# 
  1789  0319                     	;# 
  1790  031A                     	;# 
  1791  031B                     	;# 
  1792  031C                     	;# 
  1793  031C                     	;# 
  1794  031D                     	;# 
  1795  031E                     	;# 
  1796  031F                     	;# 
  1797  038C                     	;# 
  1798  038C                     	;# 
  1799  038D                     	;# 
  1800  038E                     	;# 
  1801  0390                     	;# 
  1802  0390                     	;# 
  1803  0391                     	;# 
  1804  0392                     	;# 
  1805  040C                     	;# 
  1806  040D                     	;# 
  1807  040E                     	;# 
  1808  040F                     	;# 
  1809  0410                     	;# 
  1810  0411                     	;# 
  1811  0416                     	;# 
  1812  0416                     	;# 
  1813  0417                     	;# 
  1814  0418                     	;# 
  1815  0418                     	;# 
  1816  0419                     	;# 
  1817  041A                     	;# 
  1818  041A                     	;# 
  1819  041B                     	;# 
  1820  041C                     	;# 
  1821  041C                     	;# 
  1822  041D                     	;# 
  1823  041E                     	;# 
  1824  041F                     	;# 
  1825  048C                     	;# 
  1826  048C                     	;# 
  1827  048D                     	;# 
  1828  048E                     	;# 
  1829  048F                     	;# 
  1830  048F                     	;# 
  1831  0490                     	;# 
  1832  0491                     	;# 
  1833  0492                     	;# 
  1834  0492                     	;# 
  1835  0493                     	;# 
  1836  0494                     	;# 
  1837  0495                     	;# 
  1838  0495                     	;# 
  1839  0496                     	;# 
  1840  0497                     	;# 
  1841  0498                     	;# 
  1842  0499                     	;# 
  1843  049A                     	;# 
  1844  049B                     	;# 
  1845  049C                     	;# 
  1846  049D                     	;# 
  1847  050C                     	;# 
  1848  050C                     	;# 
  1849  050D                     	;# 
  1850  050E                     	;# 
  1851  050F                     	;# 
  1852  050F                     	;# 
  1853  0510                     	;# 
  1854  0511                     	;# 
  1855  0512                     	;# 
  1856  0512                     	;# 
  1857  0513                     	;# 
  1858  0514                     	;# 
  1859  0515                     	;# 
  1860  0515                     	;# 
  1861  0516                     	;# 
  1862  0517                     	;# 
  1863  0518                     	;# 
  1864  0519                     	;# 
  1865  051A                     	;# 
  1866  051B                     	;# 
  1867  051C                     	;# 
  1868  051D                     	;# 
  1869  058C                     	;# 
  1870  058C                     	;# 
  1871  058D                     	;# 
  1872  058E                     	;# 
  1873  058F                     	;# 
  1874  058F                     	;# 
  1875  0590                     	;# 
  1876  0591                     	;# 
  1877  0592                     	;# 
  1878  0593                     	;# 
  1879  060C                     	;# 
  1880  060D                     	;# 
  1881  060E                     	;# 
  1882  060F                     	;# 
  1883  0610                     	;# 
  1884  0611                     	;# 
  1885  0612                     	;# 
  1886  0613                     	;# 
  1887  0614                     	;# 
  1888  0616                     	;# 
  1889  0617                     	;# 
  1890  0618                     	;# 
  1891  0619                     	;# 
  1892  061A                     	;# 
  1893  061B                     	;# 
  1894  061C                     	;# 
  1895  061D                     	;# 
  1896  061E                     	;# 
  1897  068C                     	;# 
  1898  068D                     	;# 
  1899  068E                     	;# 
  1900  068F                     	;# 
  1901  0690                     	;# 
  1902  0691                     	;# 
  1903  0692                     	;# 
  1904  0693                     	;# 
  1905  0694                     	;# 
  1906  070C                     	;# 
  1907  070D                     	;# 
  1908  070E                     	;# 
  1909  070F                     	;# 
  1910  0710                     	;# 
  1911  0711                     	;# 
  1912  0712                     	;# 
  1913  0713                     	;# 
  1914  0714                     	;# 
  1915  0716                     	;# 
  1916  0717                     	;# 
  1917  0718                     	;# 
  1918  0719                     	;# 
  1919  071A                     	;# 
  1920  071B                     	;# 
  1921  071C                     	;# 
  1922  071D                     	;# 
  1923  071E                     	;# 
  1924  0796                     	;# 
  1925  0797                     	;# 
  1926  0798                     	;# 
  1927  0799                     	;# 
  1928  079A                     	;# 
  1929  079B                     	;# 
  1930  080C                     	;# 
  1931  080D                     	;# 
  1932  080E                     	;# 
  1933  080F                     	;# 
  1934  0810                     	;# 
  1935  0811                     	;# 
  1936  0812                     	;# 
  1937  0813                     	;# 
  1938  0814                     	;# 
  1939  081A                     	;# 
  1940  081B                     	;# 
  1941  081C                     	;# 
  1942  081D                     	;# 
  1943  081E                     	;# 
  1944  081F                     	;# 
  1945  088C                     	;# 
  1946  088D                     	;# 
  1947  088E                     	;# 
  1948  088F                     	;# 
  1949  0890                     	;# 
  1950  0891                     	;# 
  1951  0892                     	;# 
  1952  0893                     	;# 
  1953  0895                     	;# 
  1954  0896                     	;# 
  1955  0897                     	;# 
  1956  0898                     	;# 
  1957  0899                     	;# 
  1958  089A                     	;# 
  1959  089B                     	;# 
  1960  090C                     	;# 
  1961  090E                     	;# 
  1962  090F                     	;# 
  1963  091F                     	;# 
  1964  091F                     	;# 
  1965  098F                     	;# 
  1966  098F                     	;# 
  1967  0990                     	;# 
  1968  0991                     	;# 
  1969  0992                     	;# 
  1970  0993                     	;# 
  1971  0994                     	;# 
  1972  0995                     	;# 
  1973  0996                     	;# 
  1974  0997                     	;# 
  1975  0E0F                     	;# 
  1976  0E10                     	;# 
  1977  0E11                     	;# 
  1978  0E12                     	;# 
  1979  0E13                     	;# 
  1980  0E14                     	;# 
  1981  0E15                     	;# 
  1982  0E16                     	;# 
  1983  0E17                     	;# 
  1984  0E18                     	;# 
  1985  0E19                     	;# 
  1986  0E1A                     	;# 
  1987  0E1B                     	;# 
  1988  0E1C                     	;# 
  1989  0E1D                     	;# 
  1990  0E1E                     	;# 
  1991  0E1F                     	;# 
  1992  0E20                     	;# 
  1993  0E21                     	;# 
  1994  0E22                     	;# 
  1995  0E23                     	;# 
  1996  0E24                     	;# 
  1997  0E25                     	;# 
  1998  0E26                     	;# 
  1999  0E27                     	;# 
  2000  0E28                     	;# 
  2001  0E29                     	;# 
  2002  0E2A                     	;# 
  2003  0E2B                     	;# 
  2004  0E2C                     	;# 
  2005  0E2D                     	;# 
  2006  0E2E                     	;# 
  2007  0E2F                     	;# 
  2008  0E30                     	;# 
  2009  0E31                     	;# 
  2010  0E32                     	;# 
  2011  0E33                     	;# 
  2012  0E34                     	;# 
  2013  0E35                     	;# 
  2014  0E36                     	;# 
  2015  0E37                     	;# 
  2016  0E8F                     	;# 
  2017  0E90                     	;# 
  2018  0E91                     	;# 
  2019  0E92                     	;# 
  2020  0E93                     	;# 
  2021  0E94                     	;# 
  2022  0E95                     	;# 
  2023  0E96                     	;# 
  2024  0E97                     	;# 
  2025  0E9C                     	;# 
  2026  0E9D                     	;# 
  2027  0E9E                     	;# 
  2028  0EA1                     	;# 
  2029  0EA2                     	;# 
  2030  0EA3                     	;# 
  2031  0EA4                     	;# 
  2032  0EA5                     	;# 
  2033  0EA9                     	;# 
  2034  0EAA                     	;# 
  2035  0EAB                     	;# 
  2036  0EAC                     	;# 
  2037  0EB1                     	;# 
  2038  0EB2                     	;# 
  2039  0EB3                     	;# 
  2040  0EB8                     	;# 
  2041  0EB9                     	;# 
  2042  0EBA                     	;# 
  2043  0EBB                     	;# 
  2044  0EBC                     	;# 
  2045  0EBD                     	;# 
  2046  0EBE                     	;# 
  2047  0EC3                     	;# 
  2048  0EC5                     	;# 
  2049  0EC6                     	;# 
  2050  0EC7                     	;# 
  2051  0EC8                     	;# 
  2052  0EC9                     	;# 
  2053  0ECA                     	;# 
  2054  0ECB                     	;# 
  2055  0ECC                     	;# 
  2056  0F10                     	;# 
  2057  0F11                     	;# 
  2058  0F12                     	;# 
  2059  0F13                     	;# 
  2060  0F14                     	;# 
  2061  0F15                     	;# 
  2062  0F16                     	;# 
  2063  0F17                     	;# 
  2064  0F18                     	;# 
  2065  0F19                     	;# 
  2066  0F1A                     	;# 
  2067  0F1B                     	;# 
  2068  0F1C                     	;# 
  2069  0F1D                     	;# 
  2070  0F1E                     	;# 
  2071  0F1F                     	;# 
  2072  0F20                     	;# 
  2073  0F21                     	;# 
  2074  0F22                     	;# 
  2075  0F23                     	;# 
  2076  0F24                     	;# 
  2077  0F25                     	;# 
  2078  0F26                     	;# 
  2079  0F27                     	;# 
  2080  0F38                     	;# 
  2081  0F39                     	;# 
  2082  0F3A                     	;# 
  2083  0F3B                     	;# 
  2084  0F3C                     	;# 
  2085  0F3D                     	;# 
  2086  0F3E                     	;# 
  2087  0F3F                     	;# 
  2088  0F40                     	;# 
  2089  0F41                     	;# 
  2090  0F43                     	;# 
  2091  0F44                     	;# 
  2092  0F45                     	;# 
  2093  0F46                     	;# 
  2094  0F47                     	;# 
  2095  0F48                     	;# 
  2096  0F49                     	;# 
  2097  0F4A                     	;# 
  2098  0F4B                     	;# 
  2099  0F4C                     	;# 
  2100  0F4E                     	;# 
  2101  0F4F                     	;# 
  2102  0F50                     	;# 
  2103  0F51                     	;# 
  2104  0F52                     	;# 
  2105  0F53                     	;# 
  2106  0F54                     	;# 
  2107  0F55                     	;# 
  2108  0F56                     	;# 
  2109  0F57                     	;# 
  2110  0F65                     	;# 
  2111  0F68                     	;# 
  2112  0F69                     	;# 
  2113  0F6A                     	;# 
  2114  0F6B                     	;# 
  2115  0FE4                     	;# 
  2116  0FE5                     	;# 
  2117  0FE6                     	;# 
  2118  0FE7                     	;# 
  2119  0FE8                     	;# 
  2120  0FE9                     	;# 
  2121  0FEA                     	;# 
  2122  0FEB                     	;# 
  2123  0FED                     	;# 
  2124  0FEE                     	;# 
  2125  0FEF                     	;# 
  2126  0000                     	;# 
  2127  0001                     	;# 
  2128  0002                     	;# 
  2129  0003                     	;# 
  2130  0004                     	;# 
  2131  0005                     	;# 
  2132  0006                     	;# 
  2133  0007                     	;# 
  2134  0008                     	;# 
  2135  0009                     	;# 
  2136  000A                     	;# 
  2137  000B                     	;# 
  2138  000C                     	;# 
  2139  000D                     	;# 
  2140  000E                     	;# 
  2141  0010                     	;# 
  2142  0011                     	;# 
  2143  0012                     	;# 
  2144  0013                     	;# 
  2145  0016                     	;# 
  2146  0017                     	;# 
  2147  0018                     	;# 
  2148  001C                     	;# 
  2149  001C                     	;# 
  2150  001D                     	;# 
  2151  001D                     	;# 
  2152  001E                     	;# 
  2153  001F                     	;# 
  2154  008C                     	;# 
  2155  008C                     	;# 
  2156  008D                     	;# 
  2157  008E                     	;# 
  2158  008E                     	;# 
  2159  008F                     	;# 
  2160  0090                     	;# 
  2161  0090                     	;# 
  2162  0091                     	;# 
  2163  0093                     	;# 
  2164  0094                     	;# 
  2165  0095                     	;# 
  2166  0096                     	;# 
  2167  0097                     	;# 
  2168  0098                     	;# 
  2169  0099                     	;# 
  2170  009A                     	;# 
  2171  009B                     	;# 
  2172  009C                     	;# 
  2173  009D                     	;# 
  2174  009E                     	;# 
  2175  010C                     	;# 
  2176  010D                     	;# 
  2177  010E                     	;# 
  2178  010E                     	;# 
  2179  010F                     	;# 
  2180  0110                     	;# 
  2181  0110                     	;# 
  2182  0111                     	;# 
  2183  0112                     	;# 
  2184  0112                     	;# 
  2185  0113                     	;# 
  2186  0114                     	;# 
  2187  0114                     	;# 
  2188  0115                     	;# 
  2189  0116                     	;# 
  2190  0116                     	;# 
  2191  0117                     	;# 
  2192  0119                     	;# 
  2193  0119                     	;# 
  2194  0119                     	;# 
  2195  011A                     	;# 
  2196  011A                     	;# 
  2197  011A                     	;# 
  2198  011B                     	;# 
  2199  011B                     	;# 
  2200  011B                     	;# 
  2201  011B                     	;# 
  2202  011B                     	;# 
  2203  011C                     	;# 
  2204  011C                     	;# 
  2205  011C                     	;# 
  2206  011D                     	;# 
  2207  011D                     	;# 
  2208  011D                     	;# 
  2209  011E                     	;# 
  2210  011E                     	;# 
  2211  011E                     	;# 
  2212  011F                     	;# 
  2213  011F                     	;# 
  2214  011F                     	;# 
  2215  011F                     	;# 
  2216  011F                     	;# 
  2217  018C                     	;# 
  2218  018D                     	;# 
  2219  018E                     	;# 
  2220  018F                     	;# 
  2221  0190                     	;# 
  2222  0191                     	;# 
  2223  0192                     	;# 
  2224  0196                     	;# 
  2225  0197                     	;# 
  2226  0198                     	;# 
  2227  0199                     	;# 
  2228  019A                     	;# 
  2229  019B                     	;# 
  2230  019C                     	;# 
  2231  020C                     	;# 
  2232  020C                     	;# 
  2233  020D                     	;# 
  2234  020E                     	;# 
  2235  020F                     	;# 
  2236  020F                     	;# 
  2237  0210                     	;# 
  2238  0210                     	;# 
  2239  0211                     	;# 
  2240  0211                     	;# 
  2241  0212                     	;# 
  2242  0212                     	;# 
  2243  0213                     	;# 
  2244  0214                     	;# 
  2245  0215                     	;# 
  2246  0215                     	;# 
  2247  0216                     	;# 
  2248  0216                     	;# 
  2249  0217                     	;# 
  2250  0217                     	;# 
  2251  0218                     	;# 
  2252  0218                     	;# 
  2253  0219                     	;# 
  2254  021A                     	;# 
  2255  021B                     	;# 
  2256  021B                     	;# 
  2257  021C                     	;# 
  2258  021C                     	;# 
  2259  021D                     	;# 
  2260  021D                     	;# 
  2261  021E                     	;# 
  2262  021F                     	;# 
  2263  028C                     	;# 
  2264  028C                     	;# 
  2265  028D                     	;# 
  2266  028D                     	;# 
  2267  028E                     	;# 
  2268  028F                     	;# 
  2269  0290                     	;# 
  2270  0290                     	;# 
  2271  0291                     	;# 
  2272  0292                     	;# 
  2273  0292                     	;# 
  2274  0293                     	;# 
  2275  0293                     	;# 
  2276  0294                     	;# 
  2277  0295                     	;# 
  2278  0296                     	;# 
  2279  0296                     	;# 
  2280  0297                     	;# 
  2281  0298                     	;# 
  2282  0298                     	;# 
  2283  0299                     	;# 
  2284  0299                     	;# 
  2285  029A                     	;# 
  2286  029B                     	;# 
  2287  029C                     	;# 
  2288  029C                     	;# 
  2289  029D                     	;# 
  2290  030C                     	;# 
  2291  030C                     	;# 
  2292  030D                     	;# 
  2293  030E                     	;# 
  2294  030F                     	;# 
  2295  0310                     	;# 
  2296  0310                     	;# 
  2297  0311                     	;# 
  2298  0312                     	;# 
  2299  0313                     	;# 
  2300  0314                     	;# 
  2301  0314                     	;# 
  2302  0315                     	;# 
  2303  0316                     	;# 
  2304  0317                     	;# 
  2305  0318                     	;# 
  2306  0318                     	;# 
  2307  0319                     	;# 
  2308  031A                     	;# 
  2309  031B                     	;# 
  2310  031C                     	;# 
  2311  031C                     	;# 
  2312  031D                     	;# 
  2313  031E                     	;# 
  2314  031F                     	;# 
  2315  038C                     	;# 
  2316  038C                     	;# 
  2317  038D                     	;# 
  2318  038E                     	;# 
  2319  0390                     	;# 
  2320  0390                     	;# 
  2321  0391                     	;# 
  2322  0392                     	;# 
  2323  040C                     	;# 
  2324  040D                     	;# 
  2325  040E                     	;# 
  2326  040F                     	;# 
  2327  0410                     	;# 
  2328  0411                     	;# 
  2329  0416                     	;# 
  2330  0416                     	;# 
  2331  0417                     	;# 
  2332  0418                     	;# 
  2333  0418                     	;# 
  2334  0419                     	;# 
  2335  041A                     	;# 
  2336  041A                     	;# 
  2337  041B                     	;# 
  2338  041C                     	;# 
  2339  041C                     	;# 
  2340  041D                     	;# 
  2341  041E                     	;# 
  2342  041F                     	;# 
  2343  048C                     	;# 
  2344  048C                     	;# 
  2345  048D                     	;# 
  2346  048E                     	;# 
  2347  048F                     	;# 
  2348  048F                     	;# 
  2349  0490                     	;# 
  2350  0491                     	;# 
  2351  0492                     	;# 
  2352  0492                     	;# 
  2353  0493                     	;# 
  2354  0494                     	;# 
  2355  0495                     	;# 
  2356  0495                     	;# 
  2357  0496                     	;# 
  2358  0497                     	;# 
  2359  0498                     	;# 
  2360  0499                     	;# 
  2361  049A                     	;# 
  2362  049B                     	;# 
  2363  049C                     	;# 
  2364  049D                     	;# 
  2365  050C                     	;# 
  2366  050C                     	;# 
  2367  050D                     	;# 
  2368  050E                     	;# 
  2369  050F                     	;# 
  2370  050F                     	;# 
  2371  0510                     	;# 
  2372  0511                     	;# 
  2373  0512                     	;# 
  2374  0512                     	;# 
  2375  0513                     	;# 
  2376  0514                     	;# 
  2377  0515                     	;# 
  2378  0515                     	;# 
  2379  0516                     	;# 
  2380  0517                     	;# 
  2381  0518                     	;# 
  2382  0519                     	;# 
  2383  051A                     	;# 
  2384  051B                     	;# 
  2385  051C                     	;# 
  2386  051D                     	;# 
  2387  058C                     	;# 
  2388  058C                     	;# 
  2389  058D                     	;# 
  2390  058E                     	;# 
  2391  058F                     	;# 
  2392  058F                     	;# 
  2393  0590                     	;# 
  2394  0591                     	;# 
  2395  0592                     	;# 
  2396  0593                     	;# 
  2397  060C                     	;# 
  2398  060D                     	;# 
  2399  060E                     	;# 
  2400  060F                     	;# 
  2401  0610                     	;# 
  2402  0611                     	;# 
  2403  0612                     	;# 
  2404  0613                     	;# 
  2405  0614                     	;# 
  2406  0616                     	;# 
  2407  0617                     	;# 
  2408  0618                     	;# 
  2409  0619                     	;# 
  2410  061A                     	;# 
  2411  061B                     	;# 
  2412  061C                     	;# 
  2413  061D                     	;# 
  2414  061E                     	;# 
  2415  068C                     	;# 
  2416  068D                     	;# 
  2417  068E                     	;# 
  2418  068F                     	;# 
  2419  0690                     	;# 
  2420  0691                     	;# 
  2421  0692                     	;# 
  2422  0693                     	;# 
  2423  0694                     	;# 
  2424  070C                     	;# 
  2425  070D                     	;# 
  2426  070E                     	;# 
  2427  070F                     	;# 
  2428  0710                     	;# 
  2429  0711                     	;# 
  2430  0712                     	;# 
  2431  0713                     	;# 
  2432  0714                     	;# 
  2433  0716                     	;# 
  2434  0717                     	;# 
  2435  0718                     	;# 
  2436  0719                     	;# 
  2437  071A                     	;# 
  2438  071B                     	;# 
  2439  071C                     	;# 
  2440  071D                     	;# 
  2441  071E                     	;# 
  2442  0796                     	;# 
  2443  0797                     	;# 
  2444  0798                     	;# 
  2445  0799                     	;# 
  2446  079A                     	;# 
  2447  079B                     	;# 
  2448  080C                     	;# 
  2449  080D                     	;# 
  2450  080E                     	;# 
  2451  080F                     	;# 
  2452  0810                     	;# 
  2453  0811                     	;# 
  2454  0812                     	;# 
  2455  0813                     	;# 
  2456  0814                     	;# 
  2457  081A                     	;# 
  2458  081B                     	;# 
  2459  081C                     	;# 
  2460  081D                     	;# 
  2461  081E                     	;# 
  2462  081F                     	;# 
  2463  088C                     	;# 
  2464  088D                     	;# 
  2465  088E                     	;# 
  2466  088F                     	;# 
  2467  0890                     	;# 
  2468  0891                     	;# 
  2469  0892                     	;# 
  2470  0893                     	;# 
  2471  0895                     	;# 
  2472  0896                     	;# 
  2473  0897                     	;# 
  2474  0898                     	;# 
  2475  0899                     	;# 
  2476  089A                     	;# 
  2477  089B                     	;# 
  2478  090C                     	;# 
  2479  090E                     	;# 
  2480  090F                     	;# 
  2481  091F                     	;# 
  2482  091F                     	;# 
  2483  098F                     	;# 
  2484  098F                     	;# 
  2485  0990                     	;# 
  2486  0991                     	;# 
  2487  0992                     	;# 
  2488  0993                     	;# 
  2489  0994                     	;# 
  2490  0995                     	;# 
  2491  0996                     	;# 
  2492  0997                     	;# 
  2493  0E0F                     	;# 
  2494  0E10                     	;# 
  2495  0E11                     	;# 
  2496  0E12                     	;# 
  2497  0E13                     	;# 
  2498  0E14                     	;# 
  2499  0E15                     	;# 
  2500  0E16                     	;# 
  2501  0E17                     	;# 
  2502  0E18                     	;# 
  2503  0E19                     	;# 
  2504  0E1A                     	;# 
  2505  0E1B                     	;# 
  2506  0E1C                     	;# 
  2507  0E1D                     	;# 
  2508  0E1E                     	;# 
  2509  0E1F                     	;# 
  2510  0E20                     	;# 
  2511  0E21                     	;# 
  2512  0E22                     	;# 
  2513  0E23                     	;# 
  2514  0E24                     	;# 
  2515  0E25                     	;# 
  2516  0E26                     	;# 
  2517  0E27                     	;# 
  2518  0E28                     	;# 
  2519  0E29                     	;# 
  2520  0E2A                     	;# 
  2521  0E2B                     	;# 
  2522  0E2C                     	;# 
  2523  0E2D                     	;# 
  2524  0E2E                     	;# 
  2525  0E2F                     	;# 
  2526  0E30                     	;# 
  2527  0E31                     	;# 
  2528  0E32                     	;# 
  2529  0E33                     	;# 
  2530  0E34                     	;# 
  2531  0E35                     	;# 
  2532  0E36                     	;# 
  2533  0E37                     	;# 
  2534  0E8F                     	;# 
  2535  0E90                     	;# 
  2536  0E91                     	;# 
  2537  0E92                     	;# 
  2538  0E93                     	;# 
  2539  0E94                     	;# 
  2540  0E95                     	;# 
  2541  0E96                     	;# 
  2542  0E97                     	;# 
  2543  0E9C                     	;# 
  2544  0E9D                     	;# 
  2545  0E9E                     	;# 
  2546  0EA1                     	;# 
  2547  0EA2                     	;# 
  2548  0EA3                     	;# 
  2549  0EA4                     	;# 
  2550  0EA5                     	;# 
  2551  0EA9                     	;# 
  2552  0EAA                     	;# 
  2553  0EAB                     	;# 
  2554  0EAC                     	;# 
  2555  0EB1                     	;# 
  2556  0EB2                     	;# 
  2557  0EB3                     	;# 
  2558  0EB8                     	;# 
  2559  0EB9                     	;# 
  2560  0EBA                     	;# 
  2561  0EBB                     	;# 
  2562  0EBC                     	;# 
  2563  0EBD                     	;# 
  2564  0EBE                     	;# 
  2565  0EC3                     	;# 
  2566  0EC5                     	;# 
  2567  0EC6                     	;# 
  2568  0EC7                     	;# 
  2569  0EC8                     	;# 
  2570  0EC9                     	;# 
  2571  0ECA                     	;# 
  2572  0ECB                     	;# 
  2573  0ECC                     	;# 
  2574  0F10                     	;# 
  2575  0F11                     	;# 
  2576  0F12                     	;# 
  2577  0F13                     	;# 
  2578  0F14                     	;# 
  2579  0F15                     	;# 
  2580  0F16                     	;# 
  2581  0F17                     	;# 
  2582  0F18                     	;# 
  2583  0F19                     	;# 
  2584  0F1A                     	;# 
  2585  0F1B                     	;# 
  2586  0F1C                     	;# 
  2587  0F1D                     	;# 
  2588  0F1E                     	;# 
  2589  0F1F                     	;# 
  2590  0F20                     	;# 
  2591  0F21                     	;# 
  2592  0F22                     	;# 
  2593  0F23                     	;# 
  2594  0F24                     	;# 
  2595  0F25                     	;# 
  2596  0F26                     	;# 
  2597  0F27                     	;# 
  2598  0F38                     	;# 
  2599  0F39                     	;# 
  2600  0F3A                     	;# 
  2601  0F3B                     	;# 
  2602  0F3C                     	;# 
  2603  0F3D                     	;# 
  2604  0F3E                     	;# 
  2605  0F3F                     	;# 
  2606  0F40                     	;# 
  2607  0F41                     	;# 
  2608  0F43                     	;# 
  2609  0F44                     	;# 
  2610  0F45                     	;# 
  2611  0F46                     	;# 
  2612  0F47                     	;# 
  2613  0F48                     	;# 
  2614  0F49                     	;# 
  2615  0F4A                     	;# 
  2616  0F4B                     	;# 
  2617  0F4C                     	;# 
  2618  0F4E                     	;# 
  2619  0F4F                     	;# 
  2620  0F50                     	;# 
  2621  0F51                     	;# 
  2622  0F52                     	;# 
  2623  0F53                     	;# 
  2624  0F54                     	;# 
  2625  0F55                     	;# 
  2626  0F56                     	;# 
  2627  0F57                     	;# 
  2628  0F65                     	;# 
  2629  0F68                     	;# 
  2630  0F69                     	;# 
  2631  0F6A                     	;# 
  2632  0F6B                     	;# 
  2633  0FE4                     	;# 
  2634  0FE5                     	;# 
  2635  0FE6                     	;# 
  2636  0FE7                     	;# 
  2637  0FE8                     	;# 
  2638  0FE9                     	;# 
  2639  0FEA                     	;# 
  2640  0FEB                     	;# 
  2641  0FED                     	;# 
  2642  0FEE                     	;# 
  2643  0FEF                     	;# 
  2644  0000                     	;# 
  2645  0001                     	;# 
  2646  0002                     	;# 
  2647  0003                     	;# 
  2648  0004                     	;# 
  2649  0005                     	;# 
  2650  0006                     	;# 
  2651  0007                     	;# 
  2652  0008                     	;# 
  2653  0009                     	;# 
  2654  000A                     	;# 
  2655  000B                     	;# 
  2656  000C                     	;# 
  2657  000D                     	;# 
  2658  000E                     	;# 
  2659  0010                     	;# 
  2660  0011                     	;# 
  2661  0012                     	;# 
  2662  0013                     	;# 
  2663  0016                     	;# 
  2664  0017                     	;# 
  2665  0018                     	;# 
  2666  001C                     	;# 
  2667  001C                     	;# 
  2668  001D                     	;# 
  2669  001D                     	;# 
  2670  001E                     	;# 
  2671  001F                     	;# 
  2672  008C                     	;# 
  2673  008C                     	;# 
  2674  008D                     	;# 
  2675  008E                     	;# 
  2676  008E                     	;# 
  2677  008F                     	;# 
  2678  0090                     	;# 
  2679  0090                     	;# 
  2680  0091                     	;# 
  2681  0093                     	;# 
  2682  0094                     	;# 
  2683  0095                     	;# 
  2684  0096                     	;# 
  2685  0097                     	;# 
  2686  0098                     	;# 
  2687  0099                     	;# 
  2688  009A                     	;# 
  2689  009B                     	;# 
  2690  009C                     	;# 
  2691  009D                     	;# 
  2692  009E                     	;# 
  2693  010C                     	;# 
  2694  010D                     	;# 
  2695  010E                     	;# 
  2696  010E                     	;# 
  2697  010F                     	;# 
  2698  0110                     	;# 
  2699  0110                     	;# 
  2700  0111                     	;# 
  2701  0112                     	;# 
  2702  0112                     	;# 
  2703  0113                     	;# 
  2704  0114                     	;# 
  2705  0114                     	;# 
  2706  0115                     	;# 
  2707  0116                     	;# 
  2708  0116                     	;# 
  2709  0117                     	;# 
  2710  0119                     	;# 
  2711  0119                     	;# 
  2712  0119                     	;# 
  2713  011A                     	;# 
  2714  011A                     	;# 
  2715  011A                     	;# 
  2716  011B                     	;# 
  2717  011B                     	;# 
  2718  011B                     	;# 
  2719  011B                     	;# 
  2720  011B                     	;# 
  2721  011C                     	;# 
  2722  011C                     	;# 
  2723  011C                     	;# 
  2724  011D                     	;# 
  2725  011D                     	;# 
  2726  011D                     	;# 
  2727  011E                     	;# 
  2728  011E                     	;# 
  2729  011E                     	;# 
  2730  011F                     	;# 
  2731  011F                     	;# 
  2732  011F                     	;# 
  2733  011F                     	;# 
  2734  011F                     	;# 
  2735  018C                     	;# 
  2736  018D                     	;# 
  2737  018E                     	;# 
  2738  018F                     	;# 
  2739  0190                     	;# 
  2740  0191                     	;# 
  2741  0192                     	;# 
  2742  0196                     	;# 
  2743  0197                     	;# 
  2744  0198                     	;# 
  2745  0199                     	;# 
  2746  019A                     	;# 
  2747  019B                     	;# 
  2748  019C                     	;# 
  2749  020C                     	;# 
  2750  020C                     	;# 
  2751  020D                     	;# 
  2752  020E                     	;# 
  2753  020F                     	;# 
  2754  020F                     	;# 
  2755  0210                     	;# 
  2756  0210                     	;# 
  2757  0211                     	;# 
  2758  0211                     	;# 
  2759  0212                     	;# 
  2760  0212                     	;# 
  2761  0213                     	;# 
  2762  0214                     	;# 
  2763  0215                     	;# 
  2764  0215                     	;# 
  2765  0216                     	;# 
  2766  0216                     	;# 
  2767  0217                     	;# 
  2768  0217                     	;# 
  2769  0218                     	;# 
  2770  0218                     	;# 
  2771  0219                     	;# 
  2772  021A                     	;# 
  2773  021B                     	;# 
  2774  021B                     	;# 
  2775  021C                     	;# 
  2776  021C                     	;# 
  2777  021D                     	;# 
  2778  021D                     	;# 
  2779  021E                     	;# 
  2780  021F                     	;# 
  2781  028C                     	;# 
  2782  028C                     	;# 
  2783  028D                     	;# 
  2784  028D                     	;# 
  2785  028E                     	;# 
  2786  028F                     	;# 
  2787  0290                     	;# 
  2788  0290                     	;# 
  2789  0291                     	;# 
  2790  0292                     	;# 
  2791  0292                     	;# 
  2792  0293                     	;# 
  2793  0293                     	;# 
  2794  0294                     	;# 
  2795  0295                     	;# 
  2796  0296                     	;# 
  2797  0296                     	;# 
  2798  0297                     	;# 
  2799  0298                     	;# 
  2800  0298                     	;# 
  2801  0299                     	;# 
  2802  0299                     	;# 
  2803  029A                     	;# 
  2804  029B                     	;# 
  2805  029C                     	;# 
  2806  029C                     	;# 
  2807  029D                     	;# 
  2808  030C                     	;# 
  2809  030C                     	;# 
  2810  030D                     	;# 
  2811  030E                     	;# 
  2812  030F                     	;# 
  2813  0310                     	;# 
  2814  0310                     	;# 
  2815  0311                     	;# 
  2816  0312                     	;# 
  2817  0313                     	;# 
  2818  0314                     	;# 
  2819  0314                     	;# 
  2820  0315                     	;# 
  2821  0316                     	;# 
  2822  0317                     	;# 
  2823  0318                     	;# 
  2824  0318                     	;# 
  2825  0319                     	;# 
  2826  031A                     	;# 
  2827  031B                     	;# 
  2828  031C                     	;# 
  2829  031C                     	;# 
  2830  031D                     	;# 
  2831  031E                     	;# 
  2832  031F                     	;# 
  2833  038C                     	;# 
  2834  038C                     	;# 
  2835  038D                     	;# 
  2836  038E                     	;# 
  2837  0390                     	;# 
  2838  0390                     	;# 
  2839  0391                     	;# 
  2840  0392                     	;# 
  2841  040C                     	;# 
  2842  040D                     	;# 
  2843  040E                     	;# 
  2844  040F                     	;# 
  2845  0410                     	;# 
  2846  0411                     	;# 
  2847  0416                     	;# 
  2848  0416                     	;# 
  2849  0417                     	;# 
  2850  0418                     	;# 
  2851  0418                     	;# 
  2852  0419                     	;# 
  2853  041A                     	;# 
  2854  041A                     	;# 
  2855  041B                     	;# 
  2856  041C                     	;# 
  2857  041C                     	;# 
  2858  041D                     	;# 
  2859  041E                     	;# 
  2860  041F                     	;# 
  2861  048C                     	;# 
  2862  048C                     	;# 
  2863  048D                     	;# 
  2864  048E                     	;# 
  2865  048F                     	;# 
  2866  048F                     	;# 
  2867  0490                     	;# 
  2868  0491                     	;# 
  2869  0492                     	;# 
  2870  0492                     	;# 
  2871  0493                     	;# 
  2872  0494                     	;# 
  2873  0495                     	;# 
  2874  0495                     	;# 
  2875  0496                     	;# 
  2876  0497                     	;# 
  2877  0498                     	;# 
  2878  0499                     	;# 
  2879  049A                     	;# 
  2880  049B                     	;# 
  2881  049C                     	;# 
  2882  049D                     	;# 
  2883  050C                     	;# 
  2884  050C                     	;# 
  2885  050D                     	;# 
  2886  050E                     	;# 
  2887  050F                     	;# 
  2888  050F                     	;# 
  2889  0510                     	;# 
  2890  0511                     	;# 
  2891  0512                     	;# 
  2892  0512                     	;# 
  2893  0513                     	;# 
  2894  0514                     	;# 
  2895  0515                     	;# 
  2896  0515                     	;# 
  2897  0516                     	;# 
  2898  0517                     	;# 
  2899  0518                     	;# 
  2900  0519                     	;# 
  2901  051A                     	;# 
  2902  051B                     	;# 
  2903  051C                     	;# 
  2904  051D                     	;# 
  2905  058C                     	;# 
  2906  058C                     	;# 
  2907  058D                     	;# 
  2908  058E                     	;# 
  2909  058F                     	;# 
  2910  058F                     	;# 
  2911  0590                     	;# 
  2912  0591                     	;# 
  2913  0592                     	;# 
  2914  0593                     	;# 
  2915  060C                     	;# 
  2916  060D                     	;# 
  2917  060E                     	;# 
  2918  060F                     	;# 
  2919  0610                     	;# 
  2920  0611                     	;# 
  2921  0612                     	;# 
  2922  0613                     	;# 
  2923  0614                     	;# 
  2924  0616                     	;# 
  2925  0617                     	;# 
  2926  0618                     	;# 
  2927  0619                     	;# 
  2928  061A                     	;# 
  2929  061B                     	;# 
  2930  061C                     	;# 
  2931  061D                     	;# 
  2932  061E                     	;# 
  2933  068C                     	;# 
  2934  068D                     	;# 
  2935  068E                     	;# 
  2936  068F                     	;# 
  2937  0690                     	;# 
  2938  0691                     	;# 
  2939  0692                     	;# 
  2940  0693                     	;# 
  2941  0694                     	;# 
  2942  070C                     	;# 
  2943  070D                     	;# 
  2944  070E                     	;# 
  2945  070F                     	;# 
  2946  0710                     	;# 
  2947  0711                     	;# 
  2948  0712                     	;# 
  2949  0713                     	;# 
  2950  0714                     	;# 
  2951  0716                     	;# 
  2952  0717                     	;# 
  2953  0718                     	;# 
  2954  0719                     	;# 
  2955  071A                     	;# 
  2956  071B                     	;# 
  2957  071C                     	;# 
  2958  071D                     	;# 
  2959  071E                     	;# 
  2960  0796                     	;# 
  2961  0797                     	;# 
  2962  0798                     	;# 
  2963  0799                     	;# 
  2964  079A                     	;# 
  2965  079B                     	;# 
  2966  080C                     	;# 
  2967  080D                     	;# 
  2968  080E                     	;# 
  2969  080F                     	;# 
  2970  0810                     	;# 
  2971  0811                     	;# 
  2972  0812                     	;# 
  2973  0813                     	;# 
  2974  0814                     	;# 
  2975  081A                     	;# 
  2976  081B                     	;# 
  2977  081C                     	;# 
  2978  081D                     	;# 
  2979  081E                     	;# 
  2980  081F                     	;# 
  2981  088C                     	;# 
  2982  088D                     	;# 
  2983  088E                     	;# 
  2984  088F                     	;# 
  2985  0890                     	;# 
  2986  0891                     	;# 
  2987  0892                     	;# 
  2988  0893                     	;# 
  2989  0895                     	;# 
  2990  0896                     	;# 
  2991  0897                     	;# 
  2992  0898                     	;# 
  2993  0899                     	;# 
  2994  089A                     	;# 
  2995  089B                     	;# 
  2996  090C                     	;# 
  2997  090E                     	;# 
  2998  090F                     	;# 
  2999  091F                     	;# 
  3000  091F                     	;# 
  3001  098F                     	;# 
  3002  098F                     	;# 
  3003  0990                     	;# 
  3004  0991                     	;# 
  3005  0992                     	;# 
  3006  0993                     	;# 
  3007  0994                     	;# 
  3008  0995                     	;# 
  3009  0996                     	;# 
  3010  0997                     	;# 
  3011  0E0F                     	;# 
  3012  0E10                     	;# 
  3013  0E11                     	;# 
  3014  0E12                     	;# 
  3015  0E13                     	;# 
  3016  0E14                     	;# 
  3017  0E15                     	;# 
  3018  0E16                     	;# 
  3019  0E17                     	;# 
  3020  0E18                     	;# 
  3021  0E19                     	;# 
  3022  0E1A                     	;# 
  3023  0E1B                     	;# 
  3024  0E1C                     	;# 
  3025  0E1D                     	;# 
  3026  0E1E                     	;# 
  3027  0E1F                     	;# 
  3028  0E20                     	;# 
  3029  0E21                     	;# 
  3030  0E22                     	;# 
  3031  0E23                     	;# 
  3032  0E24                     	;# 
  3033  0E25                     	;# 
  3034  0E26                     	;# 
  3035  0E27                     	;# 
  3036  0E28                     	;# 
  3037  0E29                     	;# 
  3038  0E2A                     	;# 
  3039  0E2B                     	;# 
  3040  0E2C                     	;# 
  3041  0E2D                     	;# 
  3042  0E2E                     	;# 
  3043  0E2F                     	;# 
  3044  0E30                     	;# 
  3045  0E31                     	;# 
  3046  0E32                     	;# 
  3047  0E33                     	;# 
  3048  0E34                     	;# 
  3049  0E35                     	;# 
  3050  0E36                     	;# 
  3051  0E37                     	;# 
  3052  0E8F                     	;# 
  3053  0E90                     	;# 
  3054  0E91                     	;# 
  3055  0E92                     	;# 
  3056  0E93                     	;# 
  3057  0E94                     	;# 
  3058  0E95                     	;# 
  3059  0E96                     	;# 
  3060  0E97                     	;# 
  3061  0E9C                     	;# 
  3062  0E9D                     	;# 
  3063  0E9E                     	;# 
  3064  0EA1                     	;# 
  3065  0EA2                     	;# 
  3066  0EA3                     	;# 
  3067  0EA4                     	;# 
  3068  0EA5                     	;# 
  3069  0EA9                     	;# 
  3070  0EAA                     	;# 
  3071  0EAB                     	;# 
  3072  0EAC                     	;# 
  3073  0EB1                     	;# 
  3074  0EB2                     	;# 
  3075  0EB3                     	;# 
  3076  0EB8                     	;# 
  3077  0EB9                     	;# 
  3078  0EBA                     	;# 
  3079  0EBB                     	;# 
  3080  0EBC                     	;# 
  3081  0EBD                     	;# 
  3082  0EBE                     	;# 
  3083  0EC3                     	;# 
  3084  0EC5                     	;# 
  3085  0EC6                     	;# 
  3086  0EC7                     	;# 
  3087  0EC8                     	;# 
  3088  0EC9                     	;# 
  3089  0ECA                     	;# 
  3090  0ECB                     	;# 
  3091  0ECC                     	;# 
  3092  0F10                     	;# 
  3093  0F11                     	;# 
  3094  0F12                     	;# 
  3095  0F13                     	;# 
  3096  0F14                     	;# 
  3097  0F15                     	;# 
  3098  0F16                     	;# 
  3099  0F17                     	;# 
  3100  0F18                     	;# 
  3101  0F19                     	;# 
  3102  0F1A                     	;# 
  3103  0F1B                     	;# 
  3104  0F1C                     	;# 
  3105  0F1D                     	;# 
  3106  0F1E                     	;# 
  3107  0F1F                     	;# 
  3108  0F20                     	;# 
  3109  0F21                     	;# 
  3110  0F22                     	;# 
  3111  0F23                     	;# 
  3112  0F24                     	;# 
  3113  0F25                     	;# 
  3114  0F26                     	;# 
  3115  0F27                     	;# 
  3116  0F38                     	;# 
  3117  0F39                     	;# 
  3118  0F3A                     	;# 
  3119  0F3B                     	;# 
  3120  0F3C                     	;# 
  3121  0F3D                     	;# 
  3122  0F3E                     	;# 
  3123  0F3F                     	;# 
  3124  0F40                     	;# 
  3125  0F41                     	;# 
  3126  0F43                     	;# 
  3127  0F44                     	;# 
  3128  0F45                     	;# 
  3129  0F46                     	;# 
  3130  0F47                     	;# 
  3131  0F48                     	;# 
  3132  0F49                     	;# 
  3133  0F4A                     	;# 
  3134  0F4B                     	;# 
  3135  0F4C                     	;# 
  3136  0F4E                     	;# 
  3137  0F4F                     	;# 
  3138  0F50                     	;# 
  3139  0F51                     	;# 
  3140  0F52                     	;# 
  3141  0F53                     	;# 
  3142  0F54                     	;# 
  3143  0F55                     	;# 
  3144  0F56                     	;# 
  3145  0F57                     	;# 
  3146  0F65                     	;# 
  3147  0F68                     	;# 
  3148  0F69                     	;# 
  3149  0F6A                     	;# 
  3150  0F6B                     	;# 
  3151  0FE4                     	;# 
  3152  0FE5                     	;# 
  3153  0FE6                     	;# 
  3154  0FE7                     	;# 
  3155  0FE8                     	;# 
  3156  0FE9                     	;# 
  3157  0FEA                     	;# 
  3158  0FEB                     	;# 
  3159  0FED                     	;# 
  3160  0FEE                     	;# 
  3161  0FEF                     	;# 
  3162  0000                     	;# 
  3163  0001                     	;# 
  3164  0002                     	;# 
  3165  0003                     	;# 
  3166  0004                     	;# 
  3167  0005                     	;# 
  3168  0006                     	;# 
  3169  0007                     	;# 
  3170  0008                     	;# 
  3171  0009                     	;# 
  3172  000A                     	;# 
  3173  000B                     	;# 
  3174  000C                     	;# 
  3175  000D                     	;# 
  3176  000E                     	;# 
  3177  0010                     	;# 
  3178  0011                     	;# 
  3179  0012                     	;# 
  3180  0013                     	;# 
  3181  0016                     	;# 
  3182  0017                     	;# 
  3183  0018                     	;# 
  3184  001C                     	;# 
  3185  001C                     	;# 
  3186  001D                     	;# 
  3187  001D                     	;# 
  3188  001E                     	;# 
  3189  001F                     	;# 
  3190  008C                     	;# 
  3191  008C                     	;# 
  3192  008D                     	;# 
  3193  008E                     	;# 
  3194  008E                     	;# 
  3195  008F                     	;# 
  3196  0090                     	;# 
  3197  0090                     	;# 
  3198  0091                     	;# 
  3199  0093                     	;# 
  3200  0094                     	;# 
  3201  0095                     	;# 
  3202  0096                     	;# 
  3203  0097                     	;# 
  3204  0098                     	;# 
  3205  0099                     	;# 
  3206  009A                     	;# 
  3207  009B                     	;# 
  3208  009C                     	;# 
  3209  009D                     	;# 
  3210  009E                     	;# 
  3211  010C                     	;# 
  3212  010D                     	;# 
  3213  010E                     	;# 
  3214  010E                     	;# 
  3215  010F                     	;# 
  3216  0110                     	;# 
  3217  0110                     	;# 
  3218  0111                     	;# 
  3219  0112                     	;# 
  3220  0112                     	;# 
  3221  0113                     	;# 
  3222  0114                     	;# 
  3223  0114                     	;# 
  3224  0115                     	;# 
  3225  0116                     	;# 
  3226  0116                     	;# 
  3227  0117                     	;# 
  3228  0119                     	;# 
  3229  0119                     	;# 
  3230  0119                     	;# 
  3231  011A                     	;# 
  3232  011A                     	;# 
  3233  011A                     	;# 
  3234  011B                     	;# 
  3235  011B                     	;# 
  3236  011B                     	;# 
  3237  011B                     	;# 
  3238  011B                     	;# 
  3239  011C                     	;# 
  3240  011C                     	;# 
  3241  011C                     	;# 
  3242  011D                     	;# 
  3243  011D                     	;# 
  3244  011D                     	;# 
  3245  011E                     	;# 
  3246  011E                     	;# 
  3247  011E                     	;# 
  3248  011F                     	;# 
  3249  011F                     	;# 
  3250  011F                     	;# 
  3251  011F                     	;# 
  3252  011F                     	;# 
  3253  018C                     	;# 
  3254  018D                     	;# 
  3255  018E                     	;# 
  3256  018F                     	;# 
  3257  0190                     	;# 
  3258  0191                     	;# 
  3259  0192                     	;# 
  3260  0196                     	;# 
  3261  0197                     	;# 
  3262  0198                     	;# 
  3263  0199                     	;# 
  3264  019A                     	;# 
  3265  019B                     	;# 
  3266  019C                     	;# 
  3267  020C                     	;# 
  3268  020C                     	;# 
  3269  020D                     	;# 
  3270  020E                     	;# 
  3271  020F                     	;# 
  3272  020F                     	;# 
  3273  0210                     	;# 
  3274  0210                     	;# 
  3275  0211                     	;# 
  3276  0211                     	;# 
  3277  0212                     	;# 
  3278  0212                     	;# 
  3279  0213                     	;# 
  3280  0214                     	;# 
  3281  0215                     	;# 
  3282  0215                     	;# 
  3283  0216                     	;# 
  3284  0216                     	;# 
  3285  0217                     	;# 
  3286  0217                     	;# 
  3287  0218                     	;# 
  3288  0218                     	;# 
  3289  0219                     	;# 
  3290  021A                     	;# 
  3291  021B                     	;# 
  3292  021B                     	;# 
  3293  021C                     	;# 
  3294  021C                     	;# 
  3295  021D                     	;# 
  3296  021D                     	;# 
  3297  021E                     	;# 
  3298  021F                     	;# 
  3299  028C                     	;# 
  3300  028C                     	;# 
  3301  028D                     	;# 
  3302  028D                     	;# 
  3303  028E                     	;# 
  3304  028F                     	;# 
  3305  0290                     	;# 
  3306  0290                     	;# 
  3307  0291                     	;# 
  3308  0292                     	;# 
  3309  0292                     	;# 
  3310  0293                     	;# 
  3311  0293                     	;# 
  3312  0294                     	;# 
  3313  0295                     	;# 
  3314  0296                     	;# 
  3315  0296                     	;# 
  3316  0297                     	;# 
  3317  0298                     	;# 
  3318  0298                     	;# 
  3319  0299                     	;# 
  3320  0299                     	;# 
  3321  029A                     	;# 
  3322  029B                     	;# 
  3323  029C                     	;# 
  3324  029C                     	;# 
  3325  029D                     	;# 
  3326  030C                     	;# 
  3327  030C                     	;# 
  3328  030D                     	;# 
  3329  030E                     	;# 
  3330  030F                     	;# 
  3331  0310                     	;# 
  3332  0310                     	;# 
  3333  0311                     	;# 
  3334  0312                     	;# 
  3335  0313                     	;# 
  3336  0314                     	;# 
  3337  0314                     	;# 
  3338  0315                     	;# 
  3339  0316                     	;# 
  3340  0317                     	;# 
  3341  0318                     	;# 
  3342  0318                     	;# 
  3343  0319                     	;# 
  3344  031A                     	;# 
  3345  031B                     	;# 
  3346  031C                     	;# 
  3347  031C                     	;# 
  3348  031D                     	;# 
  3349  031E                     	;# 
  3350  031F                     	;# 
  3351  038C                     	;# 
  3352  038C                     	;# 
  3353  038D                     	;# 
  3354  038E                     	;# 
  3355  0390                     	;# 
  3356  0390                     	;# 
  3357  0391                     	;# 
  3358  0392                     	;# 
  3359  040C                     	;# 
  3360  040D                     	;# 
  3361  040E                     	;# 
  3362  040F                     	;# 
  3363  0410                     	;# 
  3364  0411                     	;# 
  3365  0416                     	;# 
  3366  0416                     	;# 
  3367  0417                     	;# 
  3368  0418                     	;# 
  3369  0418                     	;# 
  3370  0419                     	;# 
  3371  041A                     	;# 
  3372  041A                     	;# 
  3373  041B                     	;# 
  3374  041C                     	;# 
  3375  041C                     	;# 
  3376  041D                     	;# 
  3377  041E                     	;# 
  3378  041F                     	;# 
  3379  048C                     	;# 
  3380  048C                     	;# 
  3381  048D                     	;# 
  3382  048E                     	;# 
  3383  048F                     	;# 
  3384  048F                     	;# 
  3385  0490                     	;# 
  3386  0491                     	;# 
  3387  0492                     	;# 
  3388  0492                     	;# 
  3389  0493                     	;# 
  3390  0494                     	;# 
  3391  0495                     	;# 
  3392  0495                     	;# 
  3393  0496                     	;# 
  3394  0497                     	;# 
  3395  0498                     	;# 
  3396  0499                     	;# 
  3397  049A                     	;# 
  3398  049B                     	;# 
  3399  049C                     	;# 
  3400  049D                     	;# 
  3401  050C                     	;# 
  3402  050C                     	;# 
  3403  050D                     	;# 
  3404  050E                     	;# 
  3405  050F                     	;# 
  3406  050F                     	;# 
  3407  0510                     	;# 
  3408  0511                     	;# 
  3409  0512                     	;# 
  3410  0512                     	;# 
  3411  0513                     	;# 
  3412  0514                     	;# 
  3413  0515                     	;# 
  3414  0515                     	;# 
  3415  0516                     	;# 
  3416  0517                     	;# 
  3417  0518                     	;# 
  3418  0519                     	;# 
  3419  051A                     	;# 
  3420  051B                     	;# 
  3421  051C                     	;# 
  3422  051D                     	;# 
  3423  058C                     	;# 
  3424  058C                     	;# 
  3425  058D                     	;# 
  3426  058E                     	;# 
  3427  058F                     	;# 
  3428  058F                     	;# 
  3429  0590                     	;# 
  3430  0591                     	;# 
  3431  0592                     	;# 
  3432  0593                     	;# 
  3433  060C                     	;# 
  3434  060D                     	;# 
  3435  060E                     	;# 
  3436  060F                     	;# 
  3437  0610                     	;# 
  3438  0611                     	;# 
  3439  0612                     	;# 
  3440  0613                     	;# 
  3441  0614                     	;# 
  3442  0616                     	;# 
  3443  0617                     	;# 
  3444  0618                     	;# 
  3445  0619                     	;# 
  3446  061A                     	;# 
  3447  061B                     	;# 
  3448  061C                     	;# 
  3449  061D                     	;# 
  3450  061E                     	;# 
  3451  068C                     	;# 
  3452  068D                     	;# 
  3453  068E                     	;# 
  3454  068F                     	;# 
  3455  0690                     	;# 
  3456  0691                     	;# 
  3457  0692                     	;# 
  3458  0693                     	;# 
  3459  0694                     	;# 
  3460  070C                     	;# 
  3461  070D                     	;# 
  3462  070E                     	;# 
  3463  070F                     	;# 
  3464  0710                     	;# 
  3465  0711                     	;# 
  3466  0712                     	;# 
  3467  0713                     	;# 
  3468  0714                     	;# 
  3469  0716                     	;# 
  3470  0717                     	;# 
  3471  0718                     	;# 
  3472  0719                     	;# 
  3473  071A                     	;# 
  3474  071B                     	;# 
  3475  071C                     	;# 
  3476  071D                     	;# 
  3477  071E                     	;# 
  3478  0796                     	;# 
  3479  0797                     	;# 
  3480  0798                     	;# 
  3481  0799                     	;# 
  3482  079A                     	;# 
  3483  079B                     	;# 
  3484  080C                     	;# 
  3485  080D                     	;# 
  3486  080E                     	;# 
  3487  080F                     	;# 
  3488  0810                     	;# 
  3489  0811                     	;# 
  3490  0812                     	;# 
  3491  0813                     	;# 
  3492  0814                     	;# 
  3493  081A                     	;# 
  3494  081B                     	;# 
  3495  081C                     	;# 
  3496  081D                     	;# 
  3497  081E                     	;# 
  3498  081F                     	;# 
  3499  088C                     	;# 
  3500  088D                     	;# 
  3501  088E                     	;# 
  3502  088F                     	;# 
  3503  0890                     	;# 
  3504  0891                     	;# 
  3505  0892                     	;# 
  3506  0893                     	;# 
  3507  0895                     	;# 
  3508  0896                     	;# 
  3509  0897                     	;# 
  3510  0898                     	;# 
  3511  0899                     	;# 
  3512  089A                     	;# 
  3513  089B                     	;# 
  3514  090C                     	;# 
  3515  090E                     	;# 
  3516  090F                     	;# 
  3517  091F                     	;# 
  3518  091F                     	;# 
  3519  098F                     	;# 
  3520  098F                     	;# 
  3521  0990                     	;# 
  3522  0991                     	;# 
  3523  0992                     	;# 
  3524  0993                     	;# 
  3525  0994                     	;# 
  3526  0995                     	;# 
  3527  0996                     	;# 
  3528  0997                     	;# 
  3529  0E0F                     	;# 
  3530  0E10                     	;# 
  3531  0E11                     	;# 
  3532  0E12                     	;# 
  3533  0E13                     	;# 
  3534  0E14                     	;# 
  3535  0E15                     	;# 
  3536  0E16                     	;# 
  3537  0E17                     	;# 
  3538  0E18                     	;# 
  3539  0E19                     	;# 
  3540  0E1A                     	;# 
  3541  0E1B                     	;# 
  3542  0E1C                     	;# 
  3543  0E1D                     	;# 
  3544  0E1E                     	;# 
  3545  0E1F                     	;# 
  3546  0E20                     	;# 
  3547  0E21                     	;# 
  3548  0E22                     	;# 
  3549  0E23                     	;# 
  3550  0E24                     	;# 
  3551  0E25                     	;# 
  3552  0E26                     	;# 
  3553  0E27                     	;# 
  3554  0E28                     	;# 
  3555  0E29                     	;# 
  3556  0E2A                     	;# 
  3557  0E2B                     	;# 
  3558  0E2C                     	;# 
  3559  0E2D                     	;# 
  3560  0E2E                     	;# 
  3561  0E2F                     	;# 
  3562  0E30                     	;# 
  3563  0E31                     	;# 
  3564  0E32                     	;# 
  3565  0E33                     	;# 
  3566  0E34                     	;# 
  3567  0E35                     	;# 
  3568  0E36                     	;# 
  3569  0E37                     	;# 
  3570  0E8F                     	;# 
  3571  0E90                     	;# 
  3572  0E91                     	;# 
  3573  0E92                     	;# 
  3574  0E93                     	;# 
  3575  0E94                     	;# 
  3576  0E95                     	;# 
  3577  0E96                     	;# 
  3578  0E97                     	;# 
  3579  0E9C                     	;# 
  3580  0E9D                     	;# 
  3581  0E9E                     	;# 
  3582  0EA1                     	;# 
  3583  0EA2                     	;# 
  3584  0EA3                     	;# 
  3585  0EA4                     	;# 
  3586  0EA5                     	;# 
  3587  0EA9                     	;# 
  3588  0EAA                     	;# 
  3589  0EAB                     	;# 
  3590  0EAC                     	;# 
  3591  0EB1                     	;# 
  3592  0EB2                     	;# 
  3593  0EB3                     	;# 
  3594  0EB8                     	;# 
  3595  0EB9                     	;# 
  3596  0EBA                     	;# 
  3597  0EBB                     	;# 
  3598  0EBC                     	;# 
  3599  0EBD                     	;# 
  3600  0EBE                     	;# 
  3601  0EC3                     	;# 
  3602  0EC5                     	;# 
  3603  0EC6                     	;# 
  3604  0EC7                     	;# 
  3605  0EC8                     	;# 
  3606  0EC9                     	;# 
  3607  0ECA                     	;# 
  3608  0ECB                     	;# 
  3609  0ECC                     	;# 
  3610  0F10                     	;# 
  3611  0F11                     	;# 
  3612  0F12                     	;# 
  3613  0F13                     	;# 
  3614  0F14                     	;# 
  3615  0F15                     	;# 
  3616  0F16                     	;# 
  3617  0F17                     	;# 
  3618  0F18                     	;# 
  3619  0F19                     	;# 
  3620  0F1A                     	;# 
  3621  0F1B                     	;# 
  3622  0F1C                     	;# 
  3623  0F1D                     	;# 
  3624  0F1E                     	;# 
  3625  0F1F                     	;# 
  3626  0F20                     	;# 
  3627  0F21                     	;# 
  3628  0F22                     	;# 
  3629  0F23                     	;# 
  3630  0F24                     	;# 
  3631  0F25                     	;# 
  3632  0F26                     	;# 
  3633  0F27                     	;# 
  3634  0F38                     	;# 
  3635  0F39                     	;# 
  3636  0F3A                     	;# 
  3637  0F3B                     	;# 
  3638  0F3C                     	;# 
  3639  0F3D                     	;# 
  3640  0F3E                     	;# 
  3641  0F3F                     	;# 
  3642  0F40                     	;# 
  3643  0F41                     	;# 
  3644  0F43                     	;# 
  3645  0F44                     	;# 
  3646  0F45                     	;# 
  3647  0F46                     	;# 
  3648  0F47                     	;# 
  3649  0F48                     	;# 
  3650  0F49                     	;# 
  3651  0F4A                     	;# 
  3652  0F4B                     	;# 
  3653  0F4C                     	;# 
  3654  0F4E                     	;# 
  3655  0F4F                     	;# 
  3656  0F50                     	;# 
  3657  0F51                     	;# 
  3658  0F52                     	;# 
  3659  0F53                     	;# 
  3660  0F54                     	;# 
  3661  0F55                     	;# 
  3662  0F56                     	;# 
  3663  0F57                     	;# 
  3664  0F65                     	;# 
  3665  0F68                     	;# 
  3666  0F69                     	;# 
  3667  0F6A                     	;# 
  3668  0F6B                     	;# 
  3669  0FE4                     	;# 
  3670  0FE5                     	;# 
  3671  0FE6                     	;# 
  3672  0FE7                     	;# 
  3673  0FE8                     	;# 
  3674  0FE9                     	;# 
  3675  0FEA                     	;# 
  3676  0FEB                     	;# 
  3677  0FED                     	;# 
  3678  0FEE                     	;# 
  3679  0FEF                     	;# 
  3680                           
  3681                           	psect	nvCOMMON
  3682  0070                     __pnvCOMMON:
  3683  0070                     _timer5ReloadVal:
  3684  0070                     	ds	2
  3685  0013                     _TRISC	set	19
  3686  0012                     _TRISB	set	18
  3687  0011                     _TRISA	set	17
  3688  0018                     _LATC	set	24
  3689  0017                     _LATB	set	23
  3690  0016                     _LATA	set	22
  3691  021B                     _T5GCONbits	set	539
  3692  021A                     _T5CONbits	set	538
  3693  021A                     _T5CON	set	538
  3694  0218                     _TMR5L	set	536
  3695  0219                     _TMR5H	set	537
  3696  021D                     _T5CLK	set	541
  3697  021C                     _T5GATE	set	540
  3698  021B                     _T5GCON	set	539
  3699  0299                     _PR6	set	665
  3700  0298                     _TMR6	set	664
  3701  029A                     _T6CONbits	set	666
  3702  029D                     _T6RSTbits	set	669
  3703  029B                     _T6HLTbits	set	667
  3704  029A                     _T6CON	set	666
  3705  0298                     _T6TMR	set	664
  3706  0299                     _T6PR	set	665
  3707  029D                     _T6RST	set	669
  3708  029B                     _T6HLT	set	667
  3709  029C                     _T6CLKCON	set	668
  3710  0710                     _PIR4bits	set	1808
  3711  079B                     _PMD5	set	1947
  3712  079A                     _PMD4	set	1946
  3713  0799                     _PMD3	set	1945
  3714  0798                     _PMD2	set	1944
  3715  0797                     _PMD1	set	1943
  3716  0796                     _PMD0	set	1942
  3717  0892                     _OSCTUNE	set	2194
  3718  0893                     _OSCFRQ	set	2195
  3719  0891                     _OSCEN	set	2193
  3720  088F                     _OSCCON3	set	2191
  3721  088D                     _OSCCON1	set	2189
  3722  0E10                     _CLC1CONbits	set	3600
  3723  0E10                     _CLC1CON	set	3600
  3724  0E19                     _CLC1GLS3	set	3609
  3725  0E18                     _CLC1GLS2	set	3608
  3726  0E17                     _CLC1GLS1	set	3607
  3727  0E16                     _CLC1GLS0	set	3606
  3728  0E15                     _CLC1SEL3	set	3605
  3729  0E14                     _CLC1SEL2	set	3604
  3730  0E13                     _CLC1SEL1	set	3603
  3731  0E12                     _CLC1SEL0	set	3602
  3732  0E11                     _CLC1POL	set	3601
  3733  0EBB                     _CLCIN0PPS	set	3771
  3734  0F10                     _RA0PPS	set	3856
  3735  0F68                     _INLVLE	set	3944
  3736  0F52                     _INLVLC	set	3922
  3737  0F47                     _INLVLB	set	3911
  3738  0F3C                     _INLVLA	set	3900
  3739  0F51                     _SLRCONC	set	3921
  3740  0F46                     _SLRCONB	set	3910
  3741  0F3B                     _SLRCONA	set	3899
  3742  0F50                     _ODCONC	set	3920
  3743  0F45                     _ODCONB	set	3909
  3744  0F3A                     _ODCONA	set	3898
  3745  0F4F                     _WPUC	set	3919
  3746  0F39                     _WPUA	set	3897
  3747  0F44                     _WPUB	set	3908
  3748  0F65                     _WPUE	set	3941
  3749  0F38                     _ANSELA	set	3896
  3750  0F43                     _ANSELB	set	3907
  3751  0F4E                     _ANSELC	set	3918
  3752                           
  3753                           	psect	cinit
  3754  07FD                     start_initialization:	
  3755                           ; #config settings
  3756                           
  3757  07FD                     __initialization:
  3758  07FD                     end_of_initialization:	
  3759                           ;End of C runtime variable initialization code
  3760                           
  3761  07FD                     __end_of__initialization:
  3762  07FD  0020               	movlb	0
  3763  07FE  3187  2F72         	ljmp	_main	;jump to C main() function
  3764                           
  3765                           	psect	cstackCOMMON
  3766  0000                     __pcstackCOMMON:
  3767  0000                     ?_PMD_Initialize:
  3768  0000                     ??_PMD_Initialize:	
  3769                           ; 1 bytes @ 0x0
  3770                           
  3771  0000                     ?_PIN_MANAGER_Initialize:	
  3772                           ; 1 bytes @ 0x0
  3773                           
  3774  0000                     ??_PIN_MANAGER_Initialize:	
  3775                           ; 1 bytes @ 0x0
  3776                           
  3777  0000                     ?_OSCILLATOR_Initialize:	
  3778                           ; 1 bytes @ 0x0
  3779                           
  3780  0000                     ??_OSCILLATOR_Initialize:	
  3781                           ; 1 bytes @ 0x0
  3782                           
  3783  0000                     ?_TMR6_Initialize:	
  3784                           ; 1 bytes @ 0x0
  3785                           
  3786  0000                     ??_TMR6_Initialize:	
  3787                           ; 1 bytes @ 0x0
  3788                           
  3789  0000                     ?_CLC1_Initialize:	
  3790                           ; 1 bytes @ 0x0
  3791                           
  3792  0000                     ??_CLC1_Initialize:	
  3793                           ; 1 bytes @ 0x0
  3794                           
  3795  0000                     ?_TMR5_Initialize:	
  3796                           ; 1 bytes @ 0x0
  3797                           
  3798  0000                     ??_TMR5_Initialize:	
  3799                           ; 1 bytes @ 0x0
  3800                           
  3801  0000                     ?_SYSTEM_Initialize:	
  3802                           ; 1 bytes @ 0x0
  3803                           
  3804  0000                     ??_SYSTEM_Initialize:	
  3805                           ; 1 bytes @ 0x0
  3806                           
  3807  0000                     ?_main:	
  3808                           ; 1 bytes @ 0x0
  3809                           
  3810  0000                     ??_main:	
  3811                           ; 1 bytes @ 0x0
  3812                           
  3813                           
  3814                           	psect	maintext
  3815  0772                     __pmaintext:	
  3816                           ; 1 bytes @ 0x0
  3817 ;;
  3818 ;;Main: autosize = 0, tempsize = 0, incstack = 0, save=0
  3819 ;;
  3820 ;; *************** function _main *****************
  3821 ;; Defined at:
  3822 ;;		line 49 in file "main.c"
  3823 ;; Parameters:    Size  Location     Type
  3824 ;;		None
  3825 ;; Auto vars:     Size  Location     Type
  3826 ;;		None
  3827 ;; Return value:  Size  Location     Type
  3828 ;;                  1    wreg      void 
  3829 ;; Registers used:
  3830 ;;		wreg, status,2, status,0, pclath, cstack
  3831 ;; Tracked objects:
  3832 ;;		On entry : B1F/0
  3833 ;;		On exit  : 0/0
  3834 ;;		Unchanged: 0/0
  3835 ;; Data sizes:     COMMON   BANK0   BANK1   BANK2   BANK3   BANK4   BANK5   BANK6   BANK7   BANK8   BANK9  BANK10  BANK1
      +1  BANK12
  3836 ;;      Params:         0       0       0       0       0       0       0       0       0       0       0       0       
      +0       0
  3837 ;;      Locals:         0       0       0       0       0       0       0       0       0       0       0       0       
      +0       0
  3838 ;;      Temps:          0       0       0       0       0       0       0       0       0       0       0       0       
      +0       0
  3839 ;;      Totals:         0       0       0       0       0       0       0       0       0       0       0       0       
      +0       0
  3840 ;;Total ram usage:        0 bytes
  3841 ;; Hardware stack levels required when called: 2
  3842 ;; This function calls:
  3843 ;;		_SYSTEM_Initialize
  3844 ;; This function is called by:
  3845 ;;		Startup code after reset
  3846 ;; This function uses a non-reentrant model
  3847 ;;
  3848                           
  3849  0772                     _main:	
  3850                           ;psect for function _main
  3851                           
  3852  0772                     l983:	
  3853                           ;incstack = 0
  3854                           ; Regs used in _main: [wreg+status,2+status,0+pclath+cstack]
  3855                           
  3856                           
  3857                           ;main.c: 52:     SYSTEM_Initialize();
  3858  0772  3187  27BD  3187   	fcall	_SYSTEM_Initialize
  3859  0775                     l50:	
  3860                           ;main.c: 69:     while (1)
  3861                           
  3862  0775                     l51:	
  3863                           ;main.c: 70:     {;main.c: 72:     }
  3864                           
  3865  0775  2F75               	goto	l50
  3866  0776  3180  2802         	ljmp	start
  3867  0778                     __end_of_main:
  3868                           
  3869                           	psect	text1
  3870  07BD                     __ptext1:	
  3871 ;; *************** function _SYSTEM_Initialize *****************
  3872 ;; Defined at:
  3873 ;;		line 50 in file "mcc_generated_files/mcc.c"
  3874 ;; Parameters:    Size  Location     Type
  3875 ;;		None
  3876 ;; Auto vars:     Size  Location     Type
  3877 ;;		None
  3878 ;; Return value:  Size  Location     Type
  3879 ;;                  1    wreg      void 
  3880 ;; Registers used:
  3881 ;;		wreg, status,2, status,0, pclath, cstack
  3882 ;; Tracked objects:
  3883 ;;		On entry : 0/0
  3884 ;;		On exit  : 0/0
  3885 ;;		Unchanged: 0/0
  3886 ;; Data sizes:     COMMON   BANK0   BANK1   BANK2   BANK3   BANK4   BANK5   BANK6   BANK7   BANK8   BANK9  BANK10  BANK1
      +1  BANK12
  3887 ;;      Params:         0       0       0       0       0       0       0       0       0       0       0       0       
      +0       0
  3888 ;;      Locals:         0       0       0       0       0       0       0       0       0       0       0       0       
      +0       0
  3889 ;;      Temps:          0       0       0       0       0       0       0       0       0       0       0       0       
      +0       0
  3890 ;;      Totals:         0       0       0       0       0       0       0       0       0       0       0       0       
      +0       0
  3891 ;;Total ram usage:        0 bytes
  3892 ;; Hardware stack levels used: 1
  3893 ;; Hardware stack levels required when called: 1
  3894 ;; This function calls:
  3895 ;;		_CLC1_Initialize
  3896 ;;		_OSCILLATOR_Initialize
  3897 ;;		_PIN_MANAGER_Initialize
  3898 ;;		_PMD_Initialize
  3899 ;;		_TMR5_Initialize
  3900 ;;		_TMR6_Initialize
  3901 ;; This function is called by:
  3902 ;;		_main
  3903 ;; This function uses a non-reentrant model
  3904 ;;
  3905                           
  3906  07BD                     _SYSTEM_Initialize:	
  3907                           ;psect for function _SYSTEM_Initialize
  3908                           
  3909  07BD                     l945:	
  3910                           ;incstack = 0
  3911                           ; Regs used in _SYSTEM_Initialize: [wreg+status,2+status,0+pclath+cstack]
  3912                           
  3913                           
  3914                           ;mcc_generated_files/mcc.c: 52:     PMD_Initialize();
  3915  07BD  3187  2778  3187   	fcall	_PMD_Initialize
  3916  07C0                     l947:
  3917                           
  3918                           ;mcc_generated_files/mcc.c: 53:     PIN_MANAGER_Initialize();
  3919  07C0  3187  27D0  3187   	fcall	_PIN_MANAGER_Initialize
  3920  07C3                     l949:
  3921                           
  3922                           ;mcc_generated_files/mcc.c: 54:     OSCILLATOR_Initialize();
  3923  07C3  3187  2780  3187   	fcall	_OSCILLATOR_Initialize
  3924  07C6                     l951:
  3925                           
  3926                           ;mcc_generated_files/mcc.c: 55:     TMR6_Initialize();
  3927  07C6  3187  2789  3187   	fcall	_TMR6_Initialize
  3928  07C9                     l953:
  3929                           
  3930                           ;mcc_generated_files/mcc.c: 56:     CLC1_Initialize();
  3931  07C9  3187  2798  3187   	fcall	_CLC1_Initialize
  3932  07CC                     l955:
  3933                           
  3934                           ;mcc_generated_files/mcc.c: 57:     TMR5_Initialize();
  3935  07CC  3187  27AA  3187   	fcall	_TMR5_Initialize
  3936  07CF                     l37:
  3937  07CF  0008               	return
  3938  07D0                     __end_of_SYSTEM_Initialize:
  3939                           
  3940                           	psect	text2
  3941  0789                     __ptext2:	
  3942 ;; *************** function _TMR6_Initialize *****************
  3943 ;; Defined at:
  3944 ;;		line 62 in file "mcc_generated_files/tmr6.c"
  3945 ;; Parameters:    Size  Location     Type
  3946 ;;		None
  3947 ;; Auto vars:     Size  Location     Type
  3948 ;;		None
  3949 ;; Return value:  Size  Location     Type
  3950 ;;                  1    wreg      void 
  3951 ;; Registers used:
  3952 ;;		wreg, status,2
  3953 ;; Tracked objects:
  3954 ;;		On entry : 0/0
  3955 ;;		On exit  : 0/0
  3956 ;;		Unchanged: 0/0
  3957 ;; Data sizes:     COMMON   BANK0   BANK1   BANK2   BANK3   BANK4   BANK5   BANK6   BANK7   BANK8   BANK9  BANK10  BANK1
      +1  BANK12
  3958 ;;      Params:         0       0       0       0       0       0       0       0       0       0       0       0       
      +0       0
  3959 ;;      Locals:         0       0       0       0       0       0       0       0       0       0       0       0       
      +0       0
  3960 ;;      Temps:          0       0       0       0       0       0       0       0       0       0       0       0       
      +0       0
  3961 ;;      Totals:         0       0       0       0       0       0       0       0       0       0       0       0       
      +0       0
  3962 ;;Total ram usage:        0 bytes
  3963 ;; Hardware stack levels used: 1
  3964 ;; This function calls:
  3965 ;;		Nothing
  3966 ;; This function is called by:
  3967 ;;		_SYSTEM_Initialize
  3968 ;; This function uses a non-reentrant model
  3969 ;;
  3970                           
  3971  0789                     _TMR6_Initialize:	
  3972                           ;psect for function _TMR6_Initialize
  3973                           
  3974  0789                     l905:	
  3975                           ;incstack = 0
  3976                           ; Regs used in _TMR6_Initialize: [wreg+status,2]
  3977                           
  3978                           
  3979                           ;mcc_generated_files/tmr6.c: 67:     T6CLKCON = 0x05;
  3980  0789  3005               	movlw	5
  3981  078A  0025               	movlb	5	; select bank5
  3982  078B  009C               	movwf	28	;volatile
  3983                           
  3984                           ;mcc_generated_files/tmr6.c: 70:     T6HLT = 0x60;
  3985  078C  3060               	movlw	96
  3986  078D  009B               	movwf	27	;volatile
  3987  078E                     l907:
  3988                           
  3989                           ;mcc_generated_files/tmr6.c: 73:     T6RST = 0x00;
  3990  078E  019D               	clrf	29	;volatile
  3991  078F                     l909:
  3992                           
  3993                           ;mcc_generated_files/tmr6.c: 76:     T6PR = 0xF3;
  3994  078F  30F3               	movlw	243
  3995  0790  0099               	movwf	25	;volatile
  3996                           
  3997                           ;mcc_generated_files/tmr6.c: 79:     T6TMR = 0x00;
  3998  0791  0198               	clrf	24	;volatile
  3999  0792                     l911:
  4000                           
  4001                           ;mcc_generated_files/tmr6.c: 82:     PIR4bits.TMR6IF = 0;
  4002  0792  002E               	movlb	14	; select bank14
  4003  0793  1290               	bcf	16,5	;volatile
  4004  0794                     l913:
  4005                           
  4006                           ;mcc_generated_files/tmr6.c: 85:     T6CON = 0xF0;
  4007  0794  30F0               	movlw	240
  4008  0795  0025               	movlb	5	; select bank5
  4009  0796  009A               	movwf	26	;volatile
  4010  0797                     l213:
  4011  0797  0008               	return
  4012  0798                     __end_of_TMR6_Initialize:
  4013                           
  4014                           	psect	text3
  4015  07AA                     __ptext3:	
  4016 ;; *************** function _TMR5_Initialize *****************
  4017 ;; Defined at:
  4018 ;;		line 63 in file "mcc_generated_files/tmr5.c"
  4019 ;; Parameters:    Size  Location     Type
  4020 ;;		None
  4021 ;; Auto vars:     Size  Location     Type
  4022 ;;		None
  4023 ;; Return value:  Size  Location     Type
  4024 ;;                  1    wreg      void 
  4025 ;; Registers used:
  4026 ;;		wreg, status,2
  4027 ;; Tracked objects:
  4028 ;;		On entry : 0/0
  4029 ;;		On exit  : 0/0
  4030 ;;		Unchanged: 0/0
  4031 ;; Data sizes:     COMMON   BANK0   BANK1   BANK2   BANK3   BANK4   BANK5   BANK6   BANK7   BANK8   BANK9  BANK10  BANK1
      +1  BANK12
  4032 ;;      Params:         0       0       0       0       0       0       0       0       0       0       0       0       
      +0       0
  4033 ;;      Locals:         0       0       0       0       0       0       0       0       0       0       0       0       
      +0       0
  4034 ;;      Temps:          0       0       0       0       0       0       0       0       0       0       0       0       
      +0       0
  4035 ;;      Totals:         0       0       0       0       0       0       0       0       0       0       0       0       
      +0       0
  4036 ;;Total ram usage:        0 bytes
  4037 ;; Hardware stack levels used: 1
  4038 ;; This function calls:
  4039 ;;		Nothing
  4040 ;; This function is called by:
  4041 ;;		_SYSTEM_Initialize
  4042 ;; This function uses a non-reentrant model
  4043 ;;
  4044                           
  4045  07AA                     _TMR5_Initialize:	
  4046                           ;psect for function _TMR5_Initialize
  4047                           
  4048  07AA                     l931:	
  4049                           ;incstack = 0
  4050                           ; Regs used in _TMR5_Initialize: [wreg+status,2]
  4051                           
  4052                           
  4053                           ;mcc_generated_files/tmr5.c: 68:     T5GCON = 0x00;
  4054  07AA  0024               	movlb	4	; select bank4
  4055  07AB  019B               	clrf	27	;volatile
  4056                           
  4057                           ;mcc_generated_files/tmr5.c: 71:     T5GATE = 0x00;
  4058  07AC  019C               	clrf	28	;volatile
  4059  07AD                     l933:
  4060                           
  4061                           ;mcc_generated_files/tmr5.c: 74:     T5CLK = 0x05;
  4062  07AD  3005               	movlw	5
  4063  07AE  009D               	movwf	29	;volatile
  4064  07AF                     l935:
  4065                           
  4066                           ;mcc_generated_files/tmr5.c: 77:     TMR5H = 0x0B;
  4067  07AF  300B               	movlw	11
  4068  07B0  0099               	movwf	25	;volatile
  4069  07B1                     l937:
  4070                           
  4071                           ;mcc_generated_files/tmr5.c: 80:     TMR5L = 0xDC;
  4072  07B1  30DC               	movlw	220
  4073  07B2  0098               	movwf	24	;volatile
  4074  07B3                     l939:
  4075                           
  4076                           ;mcc_generated_files/tmr5.c: 83:     PIR4bits.TMR5IF = 0;
  4077  07B3  002E               	movlb	14	; select bank14
  4078  07B4  1210               	bcf	16,4	;volatile
  4079  07B5                     l941:
  4080                           
  4081                           ;mcc_generated_files/tmr5.c: 86:     timer5ReloadVal=(uint16_t)((TMR5H << 8) | TMR5L);
  4082  07B5  0024               	movlb	4	; select bank4
  4083  07B6  0819               	movf	25,w	;volatile
  4084  07B7  00F1               	movwf	_timer5ReloadVal+1	;volatile
  4085  07B8  0818               	movf	24,w	;volatile
  4086  07B9  00F0               	movwf	_timer5ReloadVal	;volatile
  4087  07BA                     l943:
  4088                           
  4089                           ;mcc_generated_files/tmr5.c: 89:     T5CON = 0x31;
  4090  07BA  3031               	movlw	49
  4091  07BB  009A               	movwf	26	;volatile
  4092  07BC                     l104:
  4093  07BC  0008               	return
  4094  07BD                     __end_of_TMR5_Initialize:
  4095                           
  4096                           	psect	text4
  4097  0778                     __ptext4:	
  4098 ;; *************** function _PMD_Initialize *****************
  4099 ;; Defined at:
  4100 ;;		line 74 in file "mcc_generated_files/mcc.c"
  4101 ;; Parameters:    Size  Location     Type
  4102 ;;		None
  4103 ;; Auto vars:     Size  Location     Type
  4104 ;;		None
  4105 ;; Return value:  Size  Location     Type
  4106 ;;                  1    wreg      void 
  4107 ;; Registers used:
  4108 ;;		status,2
  4109 ;; Tracked objects:
  4110 ;;		On entry : 0/0
  4111 ;;		On exit  : 0/0
  4112 ;;		Unchanged: 0/0
  4113 ;; Data sizes:     COMMON   BANK0   BANK1   BANK2   BANK3   BANK4   BANK5   BANK6   BANK7   BANK8   BANK9  BANK10  BANK1
      +1  BANK12
  4114 ;;      Params:         0       0       0       0       0       0       0       0       0       0       0       0       
      +0       0
  4115 ;;      Locals:         0       0       0       0       0       0       0       0       0       0       0       0       
      +0       0
  4116 ;;      Temps:          0       0       0       0       0       0       0       0       0       0       0       0       
      +0       0
  4117 ;;      Totals:         0       0       0       0       0       0       0       0       0       0       0       0       
      +0       0
  4118 ;;Total ram usage:        0 bytes
  4119 ;; Hardware stack levels used: 1
  4120 ;; This function calls:
  4121 ;;		Nothing
  4122 ;; This function is called by:
  4123 ;;		_SYSTEM_Initialize
  4124 ;; This function uses a non-reentrant model
  4125 ;;
  4126                           
  4127  0778                     _PMD_Initialize:	
  4128                           ;psect for function _PMD_Initialize
  4129                           
  4130  0778                     l863:	
  4131                           ;incstack = 0
  4132                           ; Regs used in _PMD_Initialize: [status,2]
  4133                           
  4134                           
  4135                           ;mcc_generated_files/mcc.c: 77:     PMD0 = 0x00;
  4136  0778  002F               	movlb	15	; select bank15
  4137  0779  0196               	clrf	22	;volatile
  4138                           
  4139                           ;mcc_generated_files/mcc.c: 79:     PMD1 = 0x00;
  4140  077A  0197               	clrf	23	;volatile
  4141                           
  4142                           ;mcc_generated_files/mcc.c: 81:     PMD2 = 0x00;
  4143  077B  0198               	clrf	24	;volatile
  4144                           
  4145                           ;mcc_generated_files/mcc.c: 83:     PMD3 = 0x00;
  4146  077C  0199               	clrf	25	;volatile
  4147                           
  4148                           ;mcc_generated_files/mcc.c: 85:     PMD4 = 0x00;
  4149  077D  019A               	clrf	26	;volatile
  4150                           
  4151                           ;mcc_generated_files/mcc.c: 87:     PMD5 = 0x00;
  4152  077E  019B               	clrf	27	;volatile
  4153  077F                     l43:
  4154  077F  0008               	return
  4155  0780                     __end_of_PMD_Initialize:
  4156                           
  4157                           	psect	text5
  4158  07D0                     __ptext5:	
  4159 ;; *************** function _PIN_MANAGER_Initialize *****************
  4160 ;; Defined at:
  4161 ;;		line 55 in file "mcc_generated_files/pin_manager.c"
  4162 ;; Parameters:    Size  Location     Type
  4163 ;;		None
  4164 ;; Auto vars:     Size  Location     Type
  4165 ;;		None
  4166 ;; Return value:  Size  Location     Type
  4167 ;;                  1    wreg      void 
  4168 ;; Registers used:
  4169 ;;		wreg, status,2
  4170 ;; Tracked objects:
  4171 ;;		On entry : 0/0
  4172 ;;		On exit  : 0/0
  4173 ;;		Unchanged: 0/0
  4174 ;; Data sizes:     COMMON   BANK0   BANK1   BANK2   BANK3   BANK4   BANK5   BANK6   BANK7   BANK8   BANK9  BANK10  BANK1
      +1  BANK12
  4175 ;;      Params:         0       0       0       0       0       0       0       0       0       0       0       0       
      +0       0
  4176 ;;      Locals:         0       0       0       0       0       0       0       0       0       0       0       0       
      +0       0
  4177 ;;      Temps:          0       0       0       0       0       0       0       0       0       0       0       0       
      +0       0
  4178 ;;      Totals:         0       0       0       0       0       0       0       0       0       0       0       0       
      +0       0
  4179 ;;Total ram usage:        0 bytes
  4180 ;; Hardware stack levels used: 1
  4181 ;; This function calls:
  4182 ;;		Nothing
  4183 ;; This function is called by:
  4184 ;;		_SYSTEM_Initialize
  4185 ;; This function uses a non-reentrant model
  4186 ;;
  4187                           
  4188  07D0                     _PIN_MANAGER_Initialize:	
  4189                           ;psect for function _PIN_MANAGER_Initialize
  4190                           
  4191  07D0                     l865:	
  4192                           ;incstack = 0
  4193                           ; Regs used in _PIN_MANAGER_Initialize: [wreg+status,2]
  4194                           
  4195                           
  4196                           ;mcc_generated_files/pin_manager.c: 60:     LATA = 0x00;
  4197  07D0  0020               	movlb	0	; select bank0
  4198  07D1  0196               	clrf	22	;volatile
  4199                           
  4200                           ;mcc_generated_files/pin_manager.c: 61:     LATB = 0x00;
  4201  07D2  0197               	clrf	23	;volatile
  4202                           
  4203                           ;mcc_generated_files/pin_manager.c: 62:     LATC = 0x00;
  4204  07D3  0198               	clrf	24	;volatile
  4205  07D4                     l867:
  4206                           
  4207                           ;mcc_generated_files/pin_manager.c: 67:     TRISA = 0xF0;
  4208  07D4  30F0               	movlw	240
  4209  07D5  0091               	movwf	17	;volatile
  4210  07D6                     l869:
  4211                           
  4212                           ;mcc_generated_files/pin_manager.c: 68:     TRISB = 0xFF;
  4213  07D6  30FF               	movlw	255
  4214  07D7  0092               	movwf	18	;volatile
  4215  07D8                     l871:
  4216                           
  4217                           ;mcc_generated_files/pin_manager.c: 69:     TRISC = 0xFF;
  4218  07D8  30FF               	movlw	255
  4219  07D9  0093               	movwf	19	;volatile
  4220  07DA                     l873:
  4221                           
  4222                           ;mcc_generated_files/pin_manager.c: 74:     ANSELC = 0x7F;
  4223  07DA  307F               	movlw	127
  4224  07DB  003E               	movlb	30	; select bank30
  4225  07DC  00CE               	movwf	78	;volatile
  4226  07DD                     l875:
  4227                           
  4228                           ;mcc_generated_files/pin_manager.c: 75:     ANSELB = 0xFF;
  4229  07DD  30FF               	movlw	255
  4230  07DE  00C3               	movwf	67	;volatile
  4231  07DF                     l877:
  4232                           
  4233                           ;mcc_generated_files/pin_manager.c: 76:     ANSELA = 0xFF;
  4234  07DF  30FF               	movlw	255
  4235  07E0  00B8               	movwf	56	;volatile
  4236                           
  4237                           ;mcc_generated_files/pin_manager.c: 81:     WPUE = 0x00;
  4238  07E1  01E5               	clrf	101	;volatile
  4239                           
  4240                           ;mcc_generated_files/pin_manager.c: 82:     WPUB = 0x00;
  4241  07E2  01C4               	clrf	68	;volatile
  4242                           
  4243                           ;mcc_generated_files/pin_manager.c: 83:     WPUA = 0x00;
  4244  07E3  01B9               	clrf	57	;volatile
  4245                           
  4246                           ;mcc_generated_files/pin_manager.c: 84:     WPUC = 0x00;
  4247  07E4  01CF               	clrf	79	;volatile
  4248                           
  4249                           ;mcc_generated_files/pin_manager.c: 89:     ODCONA = 0x00;
  4250  07E5  01BA               	clrf	58	;volatile
  4251                           
  4252                           ;mcc_generated_files/pin_manager.c: 90:     ODCONB = 0x00;
  4253  07E6  01C5               	clrf	69	;volatile
  4254                           
  4255                           ;mcc_generated_files/pin_manager.c: 91:     ODCONC = 0x00;
  4256  07E7  01D0               	clrf	80	;volatile
  4257  07E8                     l879:
  4258                           
  4259                           ;mcc_generated_files/pin_manager.c: 96:     SLRCONA = 0xFF;
  4260  07E8  30FF               	movlw	255
  4261  07E9  00BB               	movwf	59	;volatile
  4262  07EA                     l881:
  4263                           
  4264                           ;mcc_generated_files/pin_manager.c: 97:     SLRCONB = 0xFF;
  4265  07EA  30FF               	movlw	255
  4266  07EB  00C6               	movwf	70	;volatile
  4267  07EC                     l883:
  4268                           
  4269                           ;mcc_generated_files/pin_manager.c: 98:     SLRCONC = 0xFF;
  4270  07EC  30FF               	movlw	255
  4271  07ED  00D1               	movwf	81	;volatile
  4272  07EE                     l885:
  4273                           
  4274                           ;mcc_generated_files/pin_manager.c: 103:     INLVLA = 0xFF;
  4275  07EE  30FF               	movlw	255
  4276  07EF  00BC               	movwf	60	;volatile
  4277  07F0                     l887:
  4278                           
  4279                           ;mcc_generated_files/pin_manager.c: 104:     INLVLB = 0xFF;
  4280  07F0  30FF               	movlw	255
  4281  07F1  00C7               	movwf	71	;volatile
  4282  07F2                     l889:
  4283                           
  4284                           ;mcc_generated_files/pin_manager.c: 105:     INLVLC = 0xFF;
  4285  07F2  30FF               	movlw	255
  4286  07F3  00D2               	movwf	82	;volatile
  4287  07F4                     l891:
  4288                           
  4289                           ;mcc_generated_files/pin_manager.c: 106:     INLVLE = 0x08;
  4290  07F4  3008               	movlw	8
  4291  07F5  00E8               	movwf	104	;volatile
  4292  07F6                     l893:
  4293                           
  4294                           ;mcc_generated_files/pin_manager.c: 115:     CLCIN0PPS = 0x17;
  4295  07F6  3017               	movlw	23
  4296  07F7  003D               	movlb	29	; select bank29
  4297  07F8  00BB               	movwf	59	;volatile
  4298  07F9                     l895:
  4299                           
  4300                           ;mcc_generated_files/pin_manager.c: 116:     RA0PPS = 0x01;
  4301  07F9  3001               	movlw	1
  4302  07FA  003E               	movlb	30	; select bank30
  4303  07FB  0090               	movwf	16	;volatile
  4304  07FC                     l183:
  4305  07FC  0008               	return
  4306  07FD                     __end_of_PIN_MANAGER_Initialize:
  4307                           
  4308                           	psect	text6
  4309  0780                     __ptext6:	
  4310 ;; *************** function _OSCILLATOR_Initialize *****************
  4311 ;; Defined at:
  4312 ;;		line 60 in file "mcc_generated_files/mcc.c"
  4313 ;; Parameters:    Size  Location     Type
  4314 ;;		None
  4315 ;; Auto vars:     Size  Location     Type
  4316 ;;		None
  4317 ;; Return value:  Size  Location     Type
  4318 ;;                  1    wreg      void 
  4319 ;; Registers used:
  4320 ;;		wreg, status,2
  4321 ;; Tracked objects:
  4322 ;;		On entry : 0/0
  4323 ;;		On exit  : 0/0
  4324 ;;		Unchanged: 0/0
  4325 ;; Data sizes:     COMMON   BANK0   BANK1   BANK2   BANK3   BANK4   BANK5   BANK6   BANK7   BANK8   BANK9  BANK10  BANK1
      +1  BANK12
  4326 ;;      Params:         0       0       0       0       0       0       0       0       0       0       0       0       
      +0       0
  4327 ;;      Locals:         0       0       0       0       0       0       0       0       0       0       0       0       
      +0       0
  4328 ;;      Temps:          0       0       0       0       0       0       0       0       0       0       0       0       
      +0       0
  4329 ;;      Totals:         0       0       0       0       0       0       0       0       0       0       0       0       
      +0       0
  4330 ;;Total ram usage:        0 bytes
  4331 ;; Hardware stack levels used: 1
  4332 ;; This function calls:
  4333 ;;		Nothing
  4334 ;; This function is called by:
  4335 ;;		_SYSTEM_Initialize
  4336 ;; This function uses a non-reentrant model
  4337 ;;
  4338                           
  4339  0780                     _OSCILLATOR_Initialize:	
  4340                           ;psect for function _OSCILLATOR_Initialize
  4341                           
  4342  0780                     l897:	
  4343                           ;incstack = 0
  4344                           ; Regs used in _OSCILLATOR_Initialize: [wreg+status,2]
  4345                           
  4346                           
  4347                           ;mcc_generated_files/mcc.c: 63:     OSCCON1 = 0x60;
  4348  0780  3060               	movlw	96
  4349  0781  0031               	movlb	17	; select bank17
  4350  0782  008D               	movwf	13	;volatile
  4351  0783                     l899:
  4352                           
  4353                           ;mcc_generated_files/mcc.c: 65:     OSCCON3 = 0x00;
  4354  0783  018F               	clrf	15	;volatile
  4355  0784                     l901:
  4356                           
  4357                           ;mcc_generated_files/mcc.c: 67:     OSCEN = 0x00;
  4358  0784  0191               	clrf	17	;volatile
  4359                           
  4360                           ;mcc_generated_files/mcc.c: 69:     OSCFRQ = 0x06;
  4361  0785  3006               	movlw	6
  4362  0786  0093               	movwf	19	;volatile
  4363  0787                     l903:
  4364                           
  4365                           ;mcc_generated_files/mcc.c: 71:     OSCTUNE = 0x00;
  4366  0787  0192               	clrf	18	;volatile
  4367  0788                     l40:
  4368  0788  0008               	return
  4369  0789                     __end_of_OSCILLATOR_Initialize:
  4370                           
  4371                           	psect	text7
  4372  0798                     __ptext7:	
  4373 ;; *************** function _CLC1_Initialize *****************
  4374 ;; Defined at:
  4375 ;;		line 58 in file "mcc_generated_files/clc1.c"
  4376 ;; Parameters:    Size  Location     Type
  4377 ;;		None
  4378 ;; Auto vars:     Size  Location     Type
  4379 ;;		None
  4380 ;; Return value:  Size  Location     Type
  4381 ;;                  1    wreg      void 
  4382 ;; Registers used:
  4383 ;;		wreg, status,2
  4384 ;; Tracked objects:
  4385 ;;		On entry : 0/0
  4386 ;;		On exit  : 0/0
  4387 ;;		Unchanged: 0/0
  4388 ;; Data sizes:     COMMON   BANK0   BANK1   BANK2   BANK3   BANK4   BANK5   BANK6   BANK7   BANK8   BANK9  BANK10  BANK1
      +1  BANK12
  4389 ;;      Params:         0       0       0       0       0       0       0       0       0       0       0       0       
      +0       0
  4390 ;;      Locals:         0       0       0       0       0       0       0       0       0       0       0       0       
      +0       0
  4391 ;;      Temps:          0       0       0       0       0       0       0       0       0       0       0       0       
      +0       0
  4392 ;;      Totals:         0       0       0       0       0       0       0       0       0       0       0       0       
      +0       0
  4393 ;;Total ram usage:        0 bytes
  4394 ;; Hardware stack levels used: 1
  4395 ;; This function calls:
  4396 ;;		Nothing
  4397 ;; This function is called by:
  4398 ;;		_SYSTEM_Initialize
  4399 ;; This function uses a non-reentrant model
  4400 ;;
  4401                           
  4402  0798                     _CLC1_Initialize:	
  4403                           ;psect for function _CLC1_Initialize
  4404                           
  4405  0798                     l915:	
  4406                           ;incstack = 0
  4407                           ; Regs used in _CLC1_Initialize: [wreg+status,2]
  4408                           
  4409                           
  4410                           ;mcc_generated_files/clc1.c: 63:     CLC1POL = 0x00;
  4411  0798  003C               	movlb	28	; select bank28
  4412  0799  0191               	clrf	17	;volatile
  4413  079A                     l917:
  4414                           
  4415                           ;mcc_generated_files/clc1.c: 65:     CLC1SEL0 = 0x0F;
  4416  079A  300F               	movlw	15
  4417  079B  0092               	movwf	18	;volatile
  4418  079C                     l919:
  4419                           
  4420                           ;mcc_generated_files/clc1.c: 67:     CLC1SEL1 = 0x00;
  4421  079C  0193               	clrf	19	;volatile
  4422                           
  4423                           ;mcc_generated_files/clc1.c: 69:     CLC1SEL2 = 0x10;
  4424  079D  3010               	movlw	16
  4425  079E  0094               	movwf	20	;volatile
  4426  079F                     l921:
  4427                           
  4428                           ;mcc_generated_files/clc1.c: 71:     CLC1SEL3 = 0x00;
  4429  079F  0195               	clrf	21	;volatile
  4430  07A0                     l923:
  4431                           
  4432                           ;mcc_generated_files/clc1.c: 73:     CLC1GLS0 = 0x02;
  4433  07A0  3002               	movlw	2
  4434  07A1  0096               	movwf	22	;volatile
  4435  07A2                     l925:
  4436                           
  4437                           ;mcc_generated_files/clc1.c: 75:     CLC1GLS1 = 0x08;
  4438  07A2  3008               	movlw	8
  4439  07A3  0097               	movwf	23	;volatile
  4440  07A4                     l927:
  4441                           
  4442                           ;mcc_generated_files/clc1.c: 77:     CLC1GLS2 = 0x20;
  4443  07A4  3020               	movlw	32
  4444  07A5  0098               	movwf	24	;volatile
  4445                           
  4446                           ;mcc_generated_files/clc1.c: 79:     CLC1GLS3 = 0x00;
  4447  07A6  0199               	clrf	25	;volatile
  4448  07A7                     l929:
  4449                           
  4450                           ;mcc_generated_files/clc1.c: 81:     CLC1CON = 0x83;
  4451  07A7  3083               	movlw	131
  4452  07A8  0090               	movwf	16	;volatile
  4453  07A9                     l78:
  4454  07A9  0008               	return
  4455  07AA                     __end_of_CLC1_Initialize:
  4456  007E                     btemp	set	126	;btemp
  4457  007E                     wtemp0	set	126
  4458                           
  4459                           	psect	idloc
  4460                           
  4461                           ;Config register IDLOC0 @ 0x8000
  4462                           ;	unspecified, using default values
  4463  8000                     	org	32768
  4464  8000  3FFF               	dw	16383
  4465                           
  4466                           ;Config register IDLOC1 @ 0x8001
  4467                           ;	unspecified, using default values
  4468  8001                     	org	32769
  4469  8001  3FFF               	dw	16383
  4470                           
  4471                           ;Config register IDLOC2 @ 0x8002
  4472                           ;	unspecified, using default values
  4473  8002                     	org	32770
  4474  8002  3FFF               	dw	16383
  4475                           
  4476                           ;Config register IDLOC3 @ 0x8003
  4477                           ;	unspecified, using default values
  4478  8003                     	org	32771
  4479  8003  3FFF               	dw	16383
  4480                           
  4481                           	psect	config
  4482                           
  4483                           ;Config register CONFIG1 @ 0x8007
  4484                           ;	External Oscillator mode selection bits
  4485                           ;	FEXTOSC = OFF, Oscillator not enabled
  4486                           ;	Power-up default value for COSC bits
  4487                           ;	RSTOSC = HFINT1, HFINTOSC (1MHz)
  4488                           ;	Clock Out Enable bit
  4489                           ;	CLKOUTEN = OFF, CLKOUT function is disabled; i/o or oscillator function on OSC2
  4490                           ;	Clock Switch Enable bit
  4491                           ;	CSWEN = ON, Writing to NOSC and NDIV is allowed
  4492                           ;	Fail-Safe Clock Monitor Enable bit
  4493                           ;	FCMEN = ON, FSCM timer enabled
  4494  8007                     	org	32775
  4495  8007  3FEC               	dw	16364
  4496                           
  4497                           ;Config register CONFIG2 @ 0x8008
  4498                           ;	Master Clear Enable bit
  4499                           ;	MCLRE = ON, MCLR pin is Master Clear function
  4500                           ;	Power-up Timer Enable bit
  4501                           ;	PWRTE = OFF, PWRT disabled
  4502                           ;	Low-Power BOR enable bit
  4503                           ;	LPBOREN = OFF, ULPBOR disabled
  4504                           ;	Brown-out reset enable bits
  4505                           ;	BOREN = ON, Brown-out Reset Enabled, SBOREN bit is ignored
  4506                           ;	Brown-out Reset Voltage Selection
  4507                           ;	BORV = LO, Brown-out Reset Voltage (VBOR) set to 1.9V on LF, and 2.45V on F Devices
  4508                           ;	Zero-cross detect disable
  4509                           ;	ZCD = OFF, Zero-cross detect circuit is disabled at POR.
  4510                           ;	Peripheral Pin Select one-way control
  4511                           ;	PPS1WAY = ON, The PPSLOCK bit can be cleared and set only once in software
  4512                           ;	Stack Overflow/Underflow Reset Enable bit
  4513                           ;	STVREN = ON, Stack Overflow or Underflow will cause a reset
  4514                           ;	Background Debugger
  4515                           ;	DEBUG = OFF, Background Debugger disabled
  4516  8008                     	org	32776
  4517  8008  3FFF               	dw	16383
  4518                           
  4519                           ;Config register CONFIG3 @ 0x8009
  4520                           ;	WDT Period Select bits
  4521                           ;	WDTCPS = WDTCPS_31, Divider ratio 1:65536; software control of WDTPS
  4522                           ;	WDT operating mode
  4523                           ;	WDTE = OFF, WDT Disabled, SWDTEN is ignored
  4524                           ;	WDT Window Select bits
  4525                           ;	WDTCWS = WDTCWS_7, window always open (100%); software control; keyed access not requi
      +                          red
  4526                           ;	WDT input clock selector
  4527                           ;	WDTCCS = SC, Software Control
  4528  8009                     	org	32777
  4529  8009  3F9F               	dw	16287
  4530                           
  4531                           ;Config register CONFIG4 @ 0x800A
  4532                           ;	UserNVM self-write protection bits
  4533                           ;	WRT = OFF, Write protection off
  4534                           ;	Scanner Enable bit
  4535                           ;	SCANE = available, Scanner module is available for use
  4536                           ;	Low Voltage Programming Enable bit
  4537                           ;	LVP = ON, Low Voltage programming enabled. MCLR/Vpp pin function is MCLR.
  4538  800A                     	org	32778
  4539  800A  3FFF               	dw	16383
  4540                           
  4541                           ;Config register CONFIG5 @ 0x800B
  4542                           ;	UserNVM Program memory code protection bit
  4543                           ;	CP = OFF, Program Memory code protection disabled
  4544                           ;	DataNVM code protection bit
  4545                           ;	CPD = OFF, Data EEPROM code protection disabled
  4546  800B                     	org	32779
  4547  800B  3FFF               	dw	16383

Data Sizes:
    Strings     0
    Constant    0
    Data        0
    BSS         0
    Persistent  34
    Stack       0

Auto Spaces:
    Space          Size  Autos    Used
    COMMON           14      0       2
    BANK0            80      0       0
    BANK1            80      0       0
    BANK2            80      0       0
    BANK3            80      0       0
    BANK4            80      0       0
    BANK5            80      0       0
    BANK6            80      0       0
    BANK7            80      0       0
    BANK8            80      0       0
    BANK9            80      0       0
    BANK10           80      0       0
    BANK11           80      0       0
    BANK12           48      0       0

Pointer List with Targets:

    None.

Critical Paths under _main in COMMON

    None.

Critical Paths under _main in BANK0

    None.

Critical Paths under _main in BANK1

    None.

Critical Paths under _main in BANK2

    None.

Critical Paths under _main in BANK3

    None.

Critical Paths under _main in BANK4

    None.

Critical Paths under _main in BANK5

    None.

Critical Paths under _main in BANK6

    None.

Critical Paths under _main in BANK7

    None.

Critical Paths under _main in BANK8

    None.

Critical Paths under _main in BANK9

    None.

Critical Paths under _main in BANK10

    None.

Critical Paths under _main in BANK11

    None.

Critical Paths under _main in BANK12

    None.

Call Graph Tables:

 ---------------------------------------------------------------------------------
 (Depth) Function   	        Calls       Base Space   Used Autos Params    Refs
 ---------------------------------------------------------------------------------
 (0) _main                                                 0     0      0       0
                  _SYSTEM_Initialize
 ---------------------------------------------------------------------------------
 (1) _SYSTEM_Initialize                                    0     0      0       0
                    _CLC1_Initialize
              _OSCILLATOR_Initialize
             _PIN_MANAGER_Initialize
                     _PMD_Initialize
                    _TMR5_Initialize
                    _TMR6_Initialize
 ---------------------------------------------------------------------------------
 (2) _TMR6_Initialize                                      0     0      0       0
 ---------------------------------------------------------------------------------
 (2) _TMR5_Initialize                                      0     0      0       0
 ---------------------------------------------------------------------------------
 (2) _PMD_Initialize                                       0     0      0       0
 ---------------------------------------------------------------------------------
 (2) _PIN_MANAGER_Initialize                               0     0      0       0
 ---------------------------------------------------------------------------------
 (2) _OSCILLATOR_Initialize                                0     0      0       0
 ---------------------------------------------------------------------------------
 (2) _CLC1_Initialize                                      0     0      0       0
 ---------------------------------------------------------------------------------
 Estimated maximum stack depth 2
 ---------------------------------------------------------------------------------

 Call Graph Graphs:

 _main (ROOT)
   _SYSTEM_Initialize
     _CLC1_Initialize
     _OSCILLATOR_Initialize
     _PIN_MANAGER_Initialize
     _PMD_Initialize
     _TMR5_Initialize
     _TMR6_Initialize

 Address spaces:
Name               Size   Autos  Total    Cost      Usage
BIGRAM             3F0      0       0       0        0.0%
EEDATA             100      0       0       0        0.0%
NULL                 0      0       0       0        0.0%
CODE                 0      0       0       0        0.0%
BITCOMMON            E      0       0       1        0.0%
BITSFR0              0      0       0       1        0.0%
SFR0                 0      0       0       1        0.0%
COMMON               E      0       2       2       14.3%
BITSFR1              0      0       0       2        0.0%
SFR1                 0      0       0       2        0.0%
BITSFR2              0      0       0       3        0.0%
SFR2                 0      0       0       3        0.0%
STACK                0      0       0       3        0.0%
BITBANK0            50      0       0       4        0.0%
BITSFR3              0      0       0       4        0.0%
SFR3                 0      0       0       4        0.0%
BANK0               50      0       0       5        0.0%
BITSFR4              0      0       0       5        0.0%
SFR4                 0      0       0       5        0.0%
BITBANK1            50      0       0       6        0.0%
BITSFR5              0      0       0       6        0.0%
SFR5                 0      0       0       6        0.0%
BANK1               50      0       0       7        0.0%
BITSFR6              0      0       0       7        0.0%
SFR6                 0      0       0       7        0.0%
BITBANK2            50      0       0       8        0.0%
BITSFR7              0      0       0       8        0.0%
SFR7                 0      0       0       8        0.0%
BANK2               50      0       0       9        0.0%
BITSFR8              0      0       0       9        0.0%
SFR8                 0      0       0       9        0.0%
BITBANK3            50      0       0      10        0.0%
BITSFR9              0      0       0      10        0.0%
SFR9                 0      0       0      10        0.0%
BANK3               50      0       0      11        0.0%
BITSFR10             0      0       0      11        0.0%
SFR10                0      0       0      11        0.0%
BITBANK4            50      0       0      12        0.0%
BITSFR11             0      0       0      12        0.0%
SFR11                0      0       0      12        0.0%
BANK4               50      0       0      13        0.0%
BITSFR12             0      0       0      13        0.0%
SFR12                0      0       0      13        0.0%
BITBANK5            50      0       0      14        0.0%
BITSFR13             0      0       0      14        0.0%
SFR13                0      0       0      14        0.0%
BANK5               50      0       0      15        0.0%
BITSFR14             0      0       0      15        0.0%
SFR14                0      0       0      15        0.0%
BITBANK6            50      0       0      16        0.0%
BITSFR15             0      0       0      16        0.0%
SFR15                0      0       0      16        0.0%
BANK6               50      0       0      17        0.0%
BITSFR16             0      0       0      17        0.0%
SFR16                0      0       0      17        0.0%
BITBANK7            50      0       0      18        0.0%
BITSFR17             0      0       0      18        0.0%
SFR17                0      0       0      18        0.0%
BANK7               50      0       0      19        0.0%
BITSFR18             0      0       0      19        0.0%
SFR18                0      0       0      19        0.0%
BITSFR19             0      0       0      20        0.0%
SFR19                0      0       0      20        0.0%
ABS                  0      0       2      20        0.0%
BITBANK8            50      0       0      21        0.0%
BITSFR20             0      0       0      21        0.0%
SFR20                0      0       0      21        0.0%
BANK8               50      0       0      22        0.0%
BITSFR21             0      0       0      22        0.0%
SFR21                0      0       0      22        0.0%
BITBANK9            50      0       0      23        0.0%
BITSFR22             0      0       0      23        0.0%
SFR22                0      0       0      23        0.0%
BANK9               50      0       0      24        0.0%
BITSFR23             0      0       0      24        0.0%
SFR23                0      0       0      24        0.0%
BITBANK10           50      0       0      25        0.0%
BITSFR24             0      0       0      25        0.0%
SFR24                0      0       0      25        0.0%
BANK10              50      0       0      26        0.0%
BITSFR25             0      0       0      26        0.0%
SFR25                0      0       0      26        0.0%
BITBANK11           50      0       0      27        0.0%
BITSFR26             0      0       0      27        0.0%
SFR26                0      0       0      27        0.0%
BANK11              50      0       0      28        0.0%
BITSFR27             0      0       0      28        0.0%
SFR27                0      0       0      28        0.0%
BITBANK12           30      0       0      29        0.0%
BITSFR28             0      0       0      29        0.0%
SFR28                0      0       0      29        0.0%
BANK12              30      0       0      30        0.0%
BITSFR29             0      0       0      30        0.0%
SFR29                0      0       0      30        0.0%
BITSFR30             0      0       0      31        0.0%
SFR30                0      0       0      31        0.0%
DATA                 0      0       2      31        0.0%
BITSFR31             0      0       0      32        0.0%
SFR31                0      0       0      32        0.0%


Microchip Technology PIC Macro Assembler V2.35 build 20211206165544 
Symbol Table                                                                                   Tue Feb 08 16:41:43 2022

                            l40 0788                              l50 0775                              l43 077F  
                            l51 0775                              l37 07CF                              l78 07A9  
                           l104 07BC                             l213 0797                             l183 07FC  
                           l901 0784                             l903 0787                             l911 0792  
                           l921 079F                             l913 0794                             l905 0789  
                           l923 07A0                             l915 0798                             l931 07AA  
                           l907 078E                             l925 07A2                             l917 079A  
                           l941 07B5                             l933 07AD                             l909 078F  
                           l927 07A4                             l919 079C                             l871 07D8  
                           l863 0778                             l943 07BA                             l935 07AF  
                           l951 07C6                             l929 07A7                             l881 07EA  
                           l873 07DA                             l865 07D0                             l937 07B1  
                           l953 07C9                             l945 07BD                             l891 07F4  
                           l883 07EC                             l875 07DD                             l867 07D4  
                           l939 07B3                             l955 07CC                             l947 07C0  
                           l893 07F6                             l885 07EE                             l877 07DF  
                           l869 07D6                             l949 07C3                             l895 07F9  
                           l887 07F0                             l879 07E8                             l983 0772  
                           l897 0780                             l889 07F2                             l899 0783  
                           _PR6 0299                            _LATA 0016                            _LATB 0017  
                          _LATC 0018                            _T6PR 0299                            _PMD0 0796  
                          _PMD1 0797                            _PMD2 0798                            _PMD3 0799  
                          _PMD4 079A                            _PMD5 079B                            _TMR6 0298  
                          _WPUA 0F39                            _WPUB 0F44                            _WPUC 0F4F  
                          _WPUE 0F65                            _main 0772                            btemp 007E  
                          start 0002                 _timer5ReloadVal 0070   __end_of_OSCILLATOR_Initialize 0789  
                         ?_main 0000                           _T5CLK 021D                           _T5CON 021A  
                         _T6CON 029A                           _T6HLT 029B                           _T6TMR 0298  
                         _T6RST 029D                           _OSCEN 0891                           _TMR5H 0219  
                         _TMR5L 0218                           _TRISA 0011                           _TRISB 0012  
                         _TRISC 0013                           wtemp0 007E                 _TMR5_Initialize 07AA  
               __initialization 07FD                    __end_of_main 0778                          ??_main 0000  
               _TMR6_Initialize 0789                          _ANSELA 0F38                          _ANSELB 0F43  
                        _ANSELC 0F4E                          _T5GATE 021C                          _T5GCON 021B  
                        _RA0PPS 0F10                          _ODCONA 0F3A                          _ODCONB 0F45  
                        _ODCONC 0F50                          _INLVLA 0F3C                          _INLVLB 0F47  
                        _INLVLC 0F52                          _INLVLE 0F68                          _OSCFRQ 0893  
                _PMD_Initialize 0778                 _CLC1_Initialize 0798         __end_of_TMR5_Initialize 07BD  
             _SYSTEM_Initialize 07BD         __end_of__initialization 07FD              ?_SYSTEM_Initialize 0000  
                __pcstackCOMMON 0000             ??_SYSTEM_Initialize 0000         __end_of_TMR6_Initialize 0798  
        __end_of_PMD_Initialize 0780       __end_of_SYSTEM_Initialize 07D0                      __pnvCOMMON 0070  
                    __pmaintext 0772                         _CLC1CON 0E10                         _CLC1POL 0E11  
               ?_PMD_Initialize 0000         __end_of_CLC1_Initialize 07AA                         _OSCCON1 088D  
                       _OSCCON3 088F                         _OSCTUNE 0892                         _SLRCONA 0F3B  
                       _SLRCONB 0F46                         _SLRCONC 0F51                ?_TMR5_Initialize 0000  
                     _CLCIN0PPS 0EBB                ?_TMR6_Initialize 0000                         __ptext1 07BD  
                       __ptext2 0789                         __ptext3 07AA                         __ptext4 0778  
                       __ptext5 07D0                         __ptext6 0780                         __ptext7 0798  
         _OSCILLATOR_Initialize 0780        ??_PIN_MANAGER_Initialize 0000                       _T5CONbits 021A  
                     _T6CONbits 029A                       _T6HLTbits 029B            end_of_initialization 07FD  
                     _T6RSTbits 029D                ?_CLC1_Initialize 0000                     _CLC1CONbits 0E10  
        ?_OSCILLATOR_Initialize 0000             start_initialization 07FD                ??_PMD_Initialize 0000  
                     ___latbits 0002          _PIN_MANAGER_Initialize 07D0                        _CLC1GLS0 0E16  
                      _CLC1GLS1 0E17                        _CLC1GLS2 0E18                        _CLC1GLS3 0E19  
                      _CLC1SEL0 0E12                        _CLC1SEL1 0E13                        _CLC1SEL2 0E14  
                      _CLC1SEL3 0E15                        _T6CLKCON 029C                        _PIR4bits 0710  
       ??_OSCILLATOR_Initialize 0000                      _T5GCONbits 021B               ??_TMR5_Initialize 0000  
       ?_PIN_MANAGER_Initialize 0000               ??_TMR6_Initialize 0000  __end_of_PIN_MANAGER_Initialize 07FD  
             ??_CLC1_Initialize 0000  
