

Microchip MPLAB XC8 Assembler V2.32 build 20210201212658 
                                                                                               Tue Mar 16 17:02:33 2021

Microchip MPLAB XC8 C Compiler v2.32 (Free license) build 20210201212658 Og1 
     1                           	processor	16LF18855
     2                           	pagewidth 120
     3                           	opt	flic
     4                           	psect	stringtext1,global,class=STRCODE,delta=2,noexec
     5                           	psect	nvBANK1,global,class=BANK1,space=1,delta=1,noexec
     6                           	psect	stringtext2,global,class=STRCODE,delta=2,noexec
     7                           	psect	stringtext3,global,class=STRCODE,delta=2,noexec
     8                           	psect	stringtext4,global,class=STRCODE,delta=2,noexec
     9                           	psect	cinit,global,class=CODE,merge=1,delta=2
    10                           	psect	bssBANK1,global,class=BANK1,space=1,delta=1,noexec
    11                           	psect	clrtext,global,class=CODE,delta=2
    12                           	psect	cstackBANK1,global,class=BANK1,space=1,delta=1,noexec
    13                           	psect	cstackCOMMON,global,class=COMMON,space=1,delta=1,noexec
    14                           	psect	cstackBANK0,global,class=BANK0,space=1,delta=1,noexec
    15                           	psect	maintext,global,class=CODE,merge=1,split=1,delta=2
    16                           	psect	text1,local,class=CODE,merge=1,delta=2,group=3
    17                           	psect	text2,local,class=CODE,merge=1,delta=2,group=1
    18                           	psect	text3,local,class=CODE,merge=1,delta=2,group=1
    19                           	psect	text4,local,class=CODE,merge=1,delta=2,group=1
    20                           	psect	text5,local,class=CODE,merge=1,delta=2,group=1
    21                           	psect	text6,local,class=CODE,merge=1,delta=2,group=3
    22                           	psect	text7,local,class=CODE,merge=1,delta=2,group=3
    23                           	psect	text8,local,class=CODE,merge=1,delta=2,group=3
    24                           	psect	text9,local,class=CODE,merge=1,delta=2
    25                           	psect	text10,local,class=CODE,merge=1,delta=2
    26                           	psect	text11,local,class=CODE,merge=1,delta=2,group=3
    27                           	psect	text12,local,class=CODE,merge=1,delta=2,group=2
    28                           	psect	text13,local,class=CODE,merge=1,delta=2,group=2
    29                           	psect	text14,local,class=CODE,merge=1,delta=2,group=2
    30                           	psect	text15,local,class=CODE,merge=1,delta=2
    31                           	psect	text16,local,class=CODE,merge=1,delta=2
    32                           	psect	text17,local,class=CODE,merge=1,delta=2
    33                           	psect	text18,local,class=CODE,merge=1,delta=2
    34                           	psect	text19,local,class=CODE,merge=1,delta=2
    35                           	psect	text20,local,class=CODE,merge=1,delta=2
    36                           	psect	text21,local,class=CODE,merge=1,delta=2
    37                           	psect	text22,local,class=CODE,merge=1,delta=2
    38                           	psect	text23,local,class=CODE,merge=1,delta=2
    39                           	psect	text24,local,class=CODE,merge=1,delta=2
    40                           	psect	text25,local,class=CODE,merge=1,delta=2
    41                           	psect	text26,local,class=CODE,merge=1,delta=2
    42                           	psect	text27,local,class=CODE,merge=1,inline,delta=2
    43                           	psect	text28,local,class=CODE,merge=1,delta=2
    44                           	psect	text29,local,class=CODE,merge=1,delta=2
    45                           	psect	text30,local,class=CODE,merge=1,delta=2
    46                           	psect	text31,local,class=CODE,merge=1,inline,delta=2
    47                           	psect	text32,local,class=CODE,merge=1,inline,delta=2
    48                           	psect	text33,local,class=CODE,merge=1,delta=2
    49                           	psect	text34,local,class=CODE,merge=1,delta=2
    50                           	psect	text35,local,class=CODE,merge=1,delta=2
    51                           	psect	text36,local,class=CODE,merge=1,delta=2
    52                           	psect	text37,local,class=CODE,merge=1,delta=2
    53                           	psect	text38,local,class=CODE,merge=1,delta=2
    54                           	psect	text39,local,class=CODE,merge=1,delta=2
    55                           	psect	text40,local,class=CODE,merge=1,delta=2
    56                           	psect	text41,local,class=CODE,merge=1,delta=2
    57                           	psect	text42,local,class=CODE,merge=1,delta=2
    58                           	psect	text43,local,class=CODE,merge=1,delta=2
    59                           	psect	text44,local,class=CODE,merge=1,delta=2
    60                           	psect	text45,local,class=CODE,merge=1,delta=2
    61                           	psect	text46,local,class=CODE,merge=1,delta=2
    62                           	psect	text47,local,class=CODE,merge=1,delta=2
    63                           	psect	text48,local,class=CODE,merge=1,delta=2
    64                           	psect	text49,local,class=CODE,merge=1,inline,delta=2
    65                           	psect	text50,local,class=CODE,merge=1,inline,delta=2
    66                           	psect	text51,local,class=CODE,merge=1,inline,delta=2
    67                           	psect	text52,local,class=CODE,merge=1,inline,delta=2
    68                           	psect	text53,local,class=CODE,merge=1,inline,delta=2
    69                           	psect	text54,local,class=CODE,merge=1,inline,delta=2
    70                           	psect	text55,local,class=CODE,merge=1,inline,delta=2
    71                           	psect	text56,local,class=CODE,merge=1,delta=2
    72                           	psect	text57,local,class=CODE,merge=1,delta=2
    73                           	psect	text58,local,class=CODE,merge=1,delta=2
    74                           	psect	text59,local,class=CODE,merge=1,delta=2
    75                           	psect	text60,local,class=CODE,merge=1,delta=2
    76                           	psect	text61,local,class=CODE,merge=1,delta=2
    77                           	psect	text62,local,class=CODE,merge=1,delta=2
    78                           	psect	text63,local,class=CODE,merge=1,delta=2
    79                           	psect	text64,local,class=CODE,merge=1,delta=2
    80                           	psect	text65,local,class=CODE,merge=1,delta=2
    81                           	psect	text66,local,class=CODE,merge=1,inline,delta=2
    82                           	psect	text67,local,class=CODE,merge=1,inline,delta=2
    83                           	psect	text68,local,class=CODE,merge=1,inline,delta=2
    84                           	psect	text69,local,class=CODE,merge=1,delta=2
    85                           	psect	text70,local,class=CODE,merge=1,inline,delta=2
    86                           	psect	text71,local,class=CODE,merge=1,inline,delta=2
    87                           	psect	text72,local,class=CODE,merge=1,inline,delta=2
    88                           	psect	config,global,abs,ovrld,class=CONFIG,space=4,delta=2,noexec
    89                           	dabs	1,0x7E,2
    90  0000                     
    91                           ; Version 2.30
    92                           ; Generated 15/09/2020 GMT
    93                           ; 
    94                           ; Copyright © 2020, Microchip Technology Inc. and its subsidiaries ("Microchip")
    95                           ; All rights reserved.
    96                           ; 
    97                           ; This software is developed by Microchip Technology Inc. and its subsidiaries ("Microch
      +                          ip").
    98                           ; 
    99                           ; Redistribution and use in source and binary forms, with or without modification, are
   100                           ; permitted provided that the following conditions are met:
   101                           ; 
   102                           ;     1. Redistributions of source code must retain the above copyright notice, this lis
      +                          t of
   103                           ;        conditions and the following disclaimer.
   104                           ; 
   105                           ;     2. Redistributions in binary form must reproduce the above copyright notice, this 
      +                          list
   106                           ;        of conditions and the following disclaimer in the documentation and/or other
   107                           ;        materials provided with the distribution. Publication is not required when
   108                           ;        this file is used in an embedded application.
   109                           ; 
   110                           ;     3. Microchip's name may not be used to endorse or promote products derived from th
      +                          is
   111                           ;        software without specific prior written permission.
   112                           ; 
   113                           ; THIS SOFTWARE IS PROVIDED BY MICROCHIP "AS IS" AND ANY EXPRESS OR IMPLIED WARRANTIES,
   114                           ; INCLUDING, BUT NOT LIMITED TO, THE IMPLIED WARRANTIES OF MERCHANTABILITY AND FITNESS F
      +                          OR
   115                           ; PURPOSE ARE DISCLAIMED.  IN NO EVENT SHALL MICROCHIP BE LIABLE FOR ANY DIRECT, INDIREC
      +                          T,
   116                           ; INCIDENTAL, SPECIAL, EXEMPLARY, OR CONSEQUENTIAL DAMAGES (INCLUDING BUT NOT LIMITED TO
   117                           ; PROCUREMENT OF SUBSTITUTE GOODS OR SERVICES; LOSS OF USE, DATA OR PROFITS; OR BUSINESS
   118                           ; INTERRUPTION) HOWSOEVER CAUSED AND ON ANY THEORY OF LIABILITY, WHETHER IN CONTRACT, ST
      +                          RICT
   119                           ; LIABILITY, OR TORT (INCLUDING NEGLIGENCE OR OTHERWISE) ARISING IN ANY WAY OUT OF THE U
      +                          SE OF
   120                           ; THIS SOFTWARE, EVEN IF ADVISED OF THE POSSIBILITY OF SUCH DAMAGE.
   121                           ; 
   122                           ; 
   123                           ; Code-generator required, PIC16LF18855 Definitions
   124                           ; 
   125                           ; SFR Addresses
   126  0000                     	;# 
   127  0001                     	;# 
   128  0002                     	;# 
   129  0003                     	;# 
   130  0004                     	;# 
   131  0005                     	;# 
   132  0006                     	;# 
   133  0007                     	;# 
   134  0008                     	;# 
   135  0009                     	;# 
   136  000A                     	;# 
   137  000B                     	;# 
   138  000C                     	;# 
   139  000D                     	;# 
   140  000E                     	;# 
   141  0010                     	;# 
   142  0011                     	;# 
   143  0012                     	;# 
   144  0013                     	;# 
   145  0016                     	;# 
   146  0017                     	;# 
   147  0018                     	;# 
   148  001C                     	;# 
   149  001C                     	;# 
   150  001D                     	;# 
   151  001D                     	;# 
   152  001E                     	;# 
   153  001F                     	;# 
   154  008C                     	;# 
   155  008C                     	;# 
   156  008D                     	;# 
   157  008E                     	;# 
   158  008E                     	;# 
   159  008F                     	;# 
   160  0090                     	;# 
   161  0090                     	;# 
   162  0091                     	;# 
   163  0093                     	;# 
   164  0094                     	;# 
   165  0095                     	;# 
   166  0096                     	;# 
   167  0097                     	;# 
   168  0098                     	;# 
   169  0099                     	;# 
   170  009A                     	;# 
   171  009B                     	;# 
   172  009C                     	;# 
   173  009D                     	;# 
   174  009E                     	;# 
   175  010C                     	;# 
   176  010D                     	;# 
   177  010E                     	;# 
   178  010E                     	;# 
   179  010F                     	;# 
   180  0110                     	;# 
   181  0110                     	;# 
   182  0111                     	;# 
   183  0112                     	;# 
   184  0112                     	;# 
   185  0113                     	;# 
   186  0114                     	;# 
   187  0114                     	;# 
   188  0115                     	;# 
   189  0116                     	;# 
   190  0116                     	;# 
   191  0117                     	;# 
   192  0119                     	;# 
   193  0119                     	;# 
   194  0119                     	;# 
   195  011A                     	;# 
   196  011A                     	;# 
   197  011A                     	;# 
   198  011B                     	;# 
   199  011B                     	;# 
   200  011B                     	;# 
   201  011B                     	;# 
   202  011B                     	;# 
   203  011C                     	;# 
   204  011C                     	;# 
   205  011C                     	;# 
   206  011D                     	;# 
   207  011D                     	;# 
   208  011D                     	;# 
   209  011E                     	;# 
   210  011E                     	;# 
   211  011E                     	;# 
   212  011F                     	;# 
   213  011F                     	;# 
   214  011F                     	;# 
   215  011F                     	;# 
   216  011F                     	;# 
   217  018C                     	;# 
   218  018D                     	;# 
   219  018E                     	;# 
   220  018F                     	;# 
   221  0190                     	;# 
   222  0191                     	;# 
   223  0192                     	;# 
   224  0196                     	;# 
   225  0197                     	;# 
   226  0198                     	;# 
   227  0199                     	;# 
   228  019A                     	;# 
   229  019B                     	;# 
   230  019C                     	;# 
   231  020C                     	;# 
   232  020C                     	;# 
   233  020D                     	;# 
   234  020E                     	;# 
   235  020F                     	;# 
   236  020F                     	;# 
   237  0210                     	;# 
   238  0210                     	;# 
   239  0211                     	;# 
   240  0211                     	;# 
   241  0212                     	;# 
   242  0212                     	;# 
   243  0213                     	;# 
   244  0214                     	;# 
   245  0215                     	;# 
   246  0215                     	;# 
   247  0216                     	;# 
   248  0216                     	;# 
   249  0217                     	;# 
   250  0217                     	;# 
   251  0218                     	;# 
   252  0218                     	;# 
   253  0219                     	;# 
   254  021A                     	;# 
   255  021B                     	;# 
   256  021B                     	;# 
   257  021C                     	;# 
   258  021C                     	;# 
   259  021D                     	;# 
   260  021D                     	;# 
   261  021E                     	;# 
   262  021F                     	;# 
   263  028C                     	;# 
   264  028C                     	;# 
   265  028D                     	;# 
   266  028D                     	;# 
   267  028E                     	;# 
   268  028F                     	;# 
   269  0290                     	;# 
   270  0290                     	;# 
   271  0291                     	;# 
   272  0292                     	;# 
   273  0292                     	;# 
   274  0293                     	;# 
   275  0293                     	;# 
   276  0294                     	;# 
   277  0295                     	;# 
   278  0296                     	;# 
   279  0296                     	;# 
   280  0297                     	;# 
   281  0298                     	;# 
   282  0298                     	;# 
   283  0299                     	;# 
   284  0299                     	;# 
   285  029A                     	;# 
   286  029B                     	;# 
   287  029C                     	;# 
   288  029C                     	;# 
   289  029D                     	;# 
   290  030C                     	;# 
   291  030C                     	;# 
   292  030D                     	;# 
   293  030E                     	;# 
   294  030F                     	;# 
   295  0310                     	;# 
   296  0310                     	;# 
   297  0311                     	;# 
   298  0312                     	;# 
   299  0313                     	;# 
   300  0314                     	;# 
   301  0314                     	;# 
   302  0315                     	;# 
   303  0316                     	;# 
   304  0317                     	;# 
   305  0318                     	;# 
   306  0318                     	;# 
   307  0319                     	;# 
   308  031A                     	;# 
   309  031B                     	;# 
   310  031C                     	;# 
   311  031C                     	;# 
   312  031D                     	;# 
   313  031E                     	;# 
   314  031F                     	;# 
   315  038C                     	;# 
   316  038C                     	;# 
   317  038D                     	;# 
   318  038E                     	;# 
   319  0390                     	;# 
   320  0390                     	;# 
   321  0391                     	;# 
   322  0392                     	;# 
   323  040C                     	;# 
   324  040D                     	;# 
   325  040E                     	;# 
   326  040F                     	;# 
   327  0410                     	;# 
   328  0411                     	;# 
   329  0416                     	;# 
   330  0416                     	;# 
   331  0417                     	;# 
   332  0418                     	;# 
   333  0418                     	;# 
   334  0419                     	;# 
   335  041A                     	;# 
   336  041A                     	;# 
   337  041B                     	;# 
   338  041C                     	;# 
   339  041C                     	;# 
   340  041D                     	;# 
   341  041E                     	;# 
   342  041F                     	;# 
   343  048C                     	;# 
   344  048C                     	;# 
   345  048D                     	;# 
   346  048E                     	;# 
   347  048F                     	;# 
   348  048F                     	;# 
   349  0490                     	;# 
   350  0491                     	;# 
   351  0492                     	;# 
   352  0492                     	;# 
   353  0493                     	;# 
   354  0494                     	;# 
   355  0495                     	;# 
   356  0495                     	;# 
   357  0496                     	;# 
   358  0497                     	;# 
   359  0498                     	;# 
   360  0499                     	;# 
   361  049A                     	;# 
   362  049B                     	;# 
   363  049C                     	;# 
   364  049D                     	;# 
   365  050C                     	;# 
   366  050C                     	;# 
   367  050D                     	;# 
   368  050E                     	;# 
   369  050F                     	;# 
   370  050F                     	;# 
   371  0510                     	;# 
   372  0511                     	;# 
   373  0512                     	;# 
   374  0512                     	;# 
   375  0513                     	;# 
   376  0514                     	;# 
   377  0515                     	;# 
   378  0515                     	;# 
   379  0516                     	;# 
   380  0517                     	;# 
   381  0518                     	;# 
   382  0519                     	;# 
   383  051A                     	;# 
   384  051B                     	;# 
   385  051C                     	;# 
   386  051D                     	;# 
   387  058C                     	;# 
   388  058C                     	;# 
   389  058D                     	;# 
   390  058E                     	;# 
   391  058F                     	;# 
   392  058F                     	;# 
   393  0590                     	;# 
   394  0591                     	;# 
   395  0592                     	;# 
   396  0593                     	;# 
   397  060C                     	;# 
   398  060D                     	;# 
   399  060E                     	;# 
   400  060F                     	;# 
   401  0610                     	;# 
   402  0611                     	;# 
   403  0612                     	;# 
   404  0613                     	;# 
   405  0614                     	;# 
   406  0616                     	;# 
   407  0617                     	;# 
   408  0618                     	;# 
   409  0619                     	;# 
   410  061A                     	;# 
   411  061B                     	;# 
   412  061C                     	;# 
   413  061D                     	;# 
   414  061E                     	;# 
   415  068C                     	;# 
   416  068D                     	;# 
   417  068E                     	;# 
   418  068F                     	;# 
   419  0690                     	;# 
   420  0691                     	;# 
   421  0692                     	;# 
   422  0693                     	;# 
   423  0694                     	;# 
   424  070C                     	;# 
   425  070D                     	;# 
   426  070E                     	;# 
   427  070F                     	;# 
   428  0710                     	;# 
   429  0711                     	;# 
   430  0712                     	;# 
   431  0713                     	;# 
   432  0714                     	;# 
   433  0716                     	;# 
   434  0717                     	;# 
   435  0718                     	;# 
   436  0719                     	;# 
   437  071A                     	;# 
   438  071B                     	;# 
   439  071C                     	;# 
   440  071D                     	;# 
   441  071E                     	;# 
   442  0796                     	;# 
   443  0797                     	;# 
   444  0798                     	;# 
   445  0799                     	;# 
   446  079A                     	;# 
   447  079B                     	;# 
   448  080C                     	;# 
   449  080D                     	;# 
   450  080E                     	;# 
   451  080F                     	;# 
   452  0810                     	;# 
   453  0811                     	;# 
   454  0813                     	;# 
   455  0814                     	;# 
   456  081A                     	;# 
   457  081B                     	;# 
   458  081C                     	;# 
   459  081D                     	;# 
   460  081E                     	;# 
   461  081F                     	;# 
   462  088C                     	;# 
   463  088D                     	;# 
   464  088E                     	;# 
   465  088F                     	;# 
   466  0890                     	;# 
   467  0891                     	;# 
   468  0892                     	;# 
   469  0893                     	;# 
   470  0895                     	;# 
   471  0896                     	;# 
   472  0897                     	;# 
   473  0898                     	;# 
   474  0899                     	;# 
   475  089A                     	;# 
   476  089B                     	;# 
   477  090C                     	;# 
   478  090E                     	;# 
   479  090F                     	;# 
   480  091F                     	;# 
   481  091F                     	;# 
   482  098F                     	;# 
   483  098F                     	;# 
   484  0990                     	;# 
   485  0991                     	;# 
   486  0992                     	;# 
   487  0993                     	;# 
   488  0994                     	;# 
   489  0995                     	;# 
   490  0996                     	;# 
   491  0997                     	;# 
   492  0E0F                     	;# 
   493  0E10                     	;# 
   494  0E11                     	;# 
   495  0E12                     	;# 
   496  0E13                     	;# 
   497  0E14                     	;# 
   498  0E15                     	;# 
   499  0E16                     	;# 
   500  0E17                     	;# 
   501  0E18                     	;# 
   502  0E19                     	;# 
   503  0E1A                     	;# 
   504  0E1B                     	;# 
   505  0E1C                     	;# 
   506  0E1D                     	;# 
   507  0E1E                     	;# 
   508  0E1F                     	;# 
   509  0E20                     	;# 
   510  0E21                     	;# 
   511  0E22                     	;# 
   512  0E23                     	;# 
   513  0E24                     	;# 
   514  0E25                     	;# 
   515  0E26                     	;# 
   516  0E27                     	;# 
   517  0E28                     	;# 
   518  0E29                     	;# 
   519  0E2A                     	;# 
   520  0E2B                     	;# 
   521  0E2C                     	;# 
   522  0E2D                     	;# 
   523  0E2E                     	;# 
   524  0E2F                     	;# 
   525  0E30                     	;# 
   526  0E31                     	;# 
   527  0E32                     	;# 
   528  0E33                     	;# 
   529  0E34                     	;# 
   530  0E35                     	;# 
   531  0E36                     	;# 
   532  0E37                     	;# 
   533  0E8F                     	;# 
   534  0E90                     	;# 
   535  0E91                     	;# 
   536  0E92                     	;# 
   537  0E93                     	;# 
   538  0E94                     	;# 
   539  0E95                     	;# 
   540  0E96                     	;# 
   541  0E97                     	;# 
   542  0E9C                     	;# 
   543  0E9D                     	;# 
   544  0E9E                     	;# 
   545  0EA1                     	;# 
   546  0EA2                     	;# 
   547  0EA3                     	;# 
   548  0EA4                     	;# 
   549  0EA5                     	;# 
   550  0EA9                     	;# 
   551  0EAA                     	;# 
   552  0EAB                     	;# 
   553  0EAC                     	;# 
   554  0EB1                     	;# 
   555  0EB2                     	;# 
   556  0EB3                     	;# 
   557  0EB8                     	;# 
   558  0EB9                     	;# 
   559  0EBA                     	;# 
   560  0EBB                     	;# 
   561  0EBC                     	;# 
   562  0EBD                     	;# 
   563  0EBE                     	;# 
   564  0EC3                     	;# 
   565  0EC5                     	;# 
   566  0EC6                     	;# 
   567  0EC7                     	;# 
   568  0EC8                     	;# 
   569  0EC9                     	;# 
   570  0ECA                     	;# 
   571  0ECB                     	;# 
   572  0ECC                     	;# 
   573  0F10                     	;# 
   574  0F11                     	;# 
   575  0F12                     	;# 
   576  0F13                     	;# 
   577  0F14                     	;# 
   578  0F15                     	;# 
   579  0F16                     	;# 
   580  0F17                     	;# 
   581  0F18                     	;# 
   582  0F19                     	;# 
   583  0F1A                     	;# 
   584  0F1B                     	;# 
   585  0F1C                     	;# 
   586  0F1D                     	;# 
   587  0F1E                     	;# 
   588  0F1F                     	;# 
   589  0F20                     	;# 
   590  0F21                     	;# 
   591  0F22                     	;# 
   592  0F23                     	;# 
   593  0F24                     	;# 
   594  0F25                     	;# 
   595  0F26                     	;# 
   596  0F27                     	;# 
   597  0F38                     	;# 
   598  0F39                     	;# 
   599  0F3A                     	;# 
   600  0F3B                     	;# 
   601  0F3C                     	;# 
   602  0F3D                     	;# 
   603  0F3E                     	;# 
   604  0F3F                     	;# 
   605  0F40                     	;# 
   606  0F41                     	;# 
   607  0F43                     	;# 
   608  0F44                     	;# 
   609  0F45                     	;# 
   610  0F46                     	;# 
   611  0F47                     	;# 
   612  0F48                     	;# 
   613  0F49                     	;# 
   614  0F4A                     	;# 
   615  0F4B                     	;# 
   616  0F4C                     	;# 
   617  0F4E                     	;# 
   618  0F4F                     	;# 
   619  0F50                     	;# 
   620  0F51                     	;# 
   621  0F52                     	;# 
   622  0F53                     	;# 
   623  0F54                     	;# 
   624  0F55                     	;# 
   625  0F56                     	;# 
   626  0F57                     	;# 
   627  0F65                     	;# 
   628  0F68                     	;# 
   629  0F69                     	;# 
   630  0F6A                     	;# 
   631  0F6B                     	;# 
   632  0FE4                     	;# 
   633  0FE5                     	;# 
   634  0FE6                     	;# 
   635  0FE7                     	;# 
   636  0FE8                     	;# 
   637  0FE9                     	;# 
   638  0FEA                     	;# 
   639  0FEB                     	;# 
   640  0FED                     	;# 
   641  0FEE                     	;# 
   642  0FEF                     	;# 
   643  0000                     	;# 
   644  0001                     	;# 
   645  0002                     	;# 
   646  0003                     	;# 
   647  0004                     	;# 
   648  0005                     	;# 
   649  0006                     	;# 
   650  0007                     	;# 
   651  0008                     	;# 
   652  0009                     	;# 
   653  000A                     	;# 
   654  000B                     	;# 
   655  000C                     	;# 
   656  000D                     	;# 
   657  000E                     	;# 
   658  0010                     	;# 
   659  0011                     	;# 
   660  0012                     	;# 
   661  0013                     	;# 
   662  0016                     	;# 
   663  0017                     	;# 
   664  0018                     	;# 
   665  001C                     	;# 
   666  001C                     	;# 
   667  001D                     	;# 
   668  001D                     	;# 
   669  001E                     	;# 
   670  001F                     	;# 
   671  008C                     	;# 
   672  008C                     	;# 
   673  008D                     	;# 
   674  008E                     	;# 
   675  008E                     	;# 
   676  008F                     	;# 
   677  0090                     	;# 
   678  0090                     	;# 
   679  0091                     	;# 
   680  0093                     	;# 
   681  0094                     	;# 
   682  0095                     	;# 
   683  0096                     	;# 
   684  0097                     	;# 
   685  0098                     	;# 
   686  0099                     	;# 
   687  009A                     	;# 
   688  009B                     	;# 
   689  009C                     	;# 
   690  009D                     	;# 
   691  009E                     	;# 
   692  010C                     	;# 
   693  010D                     	;# 
   694  010E                     	;# 
   695  010E                     	;# 
   696  010F                     	;# 
   697  0110                     	;# 
   698  0110                     	;# 
   699  0111                     	;# 
   700  0112                     	;# 
   701  0112                     	;# 
   702  0113                     	;# 
   703  0114                     	;# 
   704  0114                     	;# 
   705  0115                     	;# 
   706  0116                     	;# 
   707  0116                     	;# 
   708  0117                     	;# 
   709  0119                     	;# 
   710  0119                     	;# 
   711  0119                     	;# 
   712  011A                     	;# 
   713  011A                     	;# 
   714  011A                     	;# 
   715  011B                     	;# 
   716  011B                     	;# 
   717  011B                     	;# 
   718  011B                     	;# 
   719  011B                     	;# 
   720  011C                     	;# 
   721  011C                     	;# 
   722  011C                     	;# 
   723  011D                     	;# 
   724  011D                     	;# 
   725  011D                     	;# 
   726  011E                     	;# 
   727  011E                     	;# 
   728  011E                     	;# 
   729  011F                     	;# 
   730  011F                     	;# 
   731  011F                     	;# 
   732  011F                     	;# 
   733  011F                     	;# 
   734  018C                     	;# 
   735  018D                     	;# 
   736  018E                     	;# 
   737  018F                     	;# 
   738  0190                     	;# 
   739  0191                     	;# 
   740  0192                     	;# 
   741  0196                     	;# 
   742  0197                     	;# 
   743  0198                     	;# 
   744  0199                     	;# 
   745  019A                     	;# 
   746  019B                     	;# 
   747  019C                     	;# 
   748  020C                     	;# 
   749  020C                     	;# 
   750  020D                     	;# 
   751  020E                     	;# 
   752  020F                     	;# 
   753  020F                     	;# 
   754  0210                     	;# 
   755  0210                     	;# 
   756  0211                     	;# 
   757  0211                     	;# 
   758  0212                     	;# 
   759  0212                     	;# 
   760  0213                     	;# 
   761  0214                     	;# 
   762  0215                     	;# 
   763  0215                     	;# 
   764  0216                     	;# 
   765  0216                     	;# 
   766  0217                     	;# 
   767  0217                     	;# 
   768  0218                     	;# 
   769  0218                     	;# 
   770  0219                     	;# 
   771  021A                     	;# 
   772  021B                     	;# 
   773  021B                     	;# 
   774  021C                     	;# 
   775  021C                     	;# 
   776  021D                     	;# 
   777  021D                     	;# 
   778  021E                     	;# 
   779  021F                     	;# 
   780  028C                     	;# 
   781  028C                     	;# 
   782  028D                     	;# 
   783  028D                     	;# 
   784  028E                     	;# 
   785  028F                     	;# 
   786  0290                     	;# 
   787  0290                     	;# 
   788  0291                     	;# 
   789  0292                     	;# 
   790  0292                     	;# 
   791  0293                     	;# 
   792  0293                     	;# 
   793  0294                     	;# 
   794  0295                     	;# 
   795  0296                     	;# 
   796  0296                     	;# 
   797  0297                     	;# 
   798  0298                     	;# 
   799  0298                     	;# 
   800  0299                     	;# 
   801  0299                     	;# 
   802  029A                     	;# 
   803  029B                     	;# 
   804  029C                     	;# 
   805  029C                     	;# 
   806  029D                     	;# 
   807  030C                     	;# 
   808  030C                     	;# 
   809  030D                     	;# 
   810  030E                     	;# 
   811  030F                     	;# 
   812  0310                     	;# 
   813  0310                     	;# 
   814  0311                     	;# 
   815  0312                     	;# 
   816  0313                     	;# 
   817  0314                     	;# 
   818  0314                     	;# 
   819  0315                     	;# 
   820  0316                     	;# 
   821  0317                     	;# 
   822  0318                     	;# 
   823  0318                     	;# 
   824  0319                     	;# 
   825  031A                     	;# 
   826  031B                     	;# 
   827  031C                     	;# 
   828  031C                     	;# 
   829  031D                     	;# 
   830  031E                     	;# 
   831  031F                     	;# 
   832  038C                     	;# 
   833  038C                     	;# 
   834  038D                     	;# 
   835  038E                     	;# 
   836  0390                     	;# 
   837  0390                     	;# 
   838  0391                     	;# 
   839  0392                     	;# 
   840  040C                     	;# 
   841  040D                     	;# 
   842  040E                     	;# 
   843  040F                     	;# 
   844  0410                     	;# 
   845  0411                     	;# 
   846  0416                     	;# 
   847  0416                     	;# 
   848  0417                     	;# 
   849  0418                     	;# 
   850  0418                     	;# 
   851  0419                     	;# 
   852  041A                     	;# 
   853  041A                     	;# 
   854  041B                     	;# 
   855  041C                     	;# 
   856  041C                     	;# 
   857  041D                     	;# 
   858  041E                     	;# 
   859  041F                     	;# 
   860  048C                     	;# 
   861  048C                     	;# 
   862  048D                     	;# 
   863  048E                     	;# 
   864  048F                     	;# 
   865  048F                     	;# 
   866  0490                     	;# 
   867  0491                     	;# 
   868  0492                     	;# 
   869  0492                     	;# 
   870  0493                     	;# 
   871  0494                     	;# 
   872  0495                     	;# 
   873  0495                     	;# 
   874  0496                     	;# 
   875  0497                     	;# 
   876  0498                     	;# 
   877  0499                     	;# 
   878  049A                     	;# 
   879  049B                     	;# 
   880  049C                     	;# 
   881  049D                     	;# 
   882  050C                     	;# 
   883  050C                     	;# 
   884  050D                     	;# 
   885  050E                     	;# 
   886  050F                     	;# 
   887  050F                     	;# 
   888  0510                     	;# 
   889  0511                     	;# 
   890  0512                     	;# 
   891  0512                     	;# 
   892  0513                     	;# 
   893  0514                     	;# 
   894  0515                     	;# 
   895  0515                     	;# 
   896  0516                     	;# 
   897  0517                     	;# 
   898  0518                     	;# 
   899  0519                     	;# 
   900  051A                     	;# 
   901  051B                     	;# 
   902  051C                     	;# 
   903  051D                     	;# 
   904  058C                     	;# 
   905  058C                     	;# 
   906  058D                     	;# 
   907  058E                     	;# 
   908  058F                     	;# 
   909  058F                     	;# 
   910  0590                     	;# 
   911  0591                     	;# 
   912  0592                     	;# 
   913  0593                     	;# 
   914  060C                     	;# 
   915  060D                     	;# 
   916  060E                     	;# 
   917  060F                     	;# 
   918  0610                     	;# 
   919  0611                     	;# 
   920  0612                     	;# 
   921  0613                     	;# 
   922  0614                     	;# 
   923  0616                     	;# 
   924  0617                     	;# 
   925  0618                     	;# 
   926  0619                     	;# 
   927  061A                     	;# 
   928  061B                     	;# 
   929  061C                     	;# 
   930  061D                     	;# 
   931  061E                     	;# 
   932  068C                     	;# 
   933  068D                     	;# 
   934  068E                     	;# 
   935  068F                     	;# 
   936  0690                     	;# 
   937  0691                     	;# 
   938  0692                     	;# 
   939  0693                     	;# 
   940  0694                     	;# 
   941  070C                     	;# 
   942  070D                     	;# 
   943  070E                     	;# 
   944  070F                     	;# 
   945  0710                     	;# 
   946  0711                     	;# 
   947  0712                     	;# 
   948  0713                     	;# 
   949  0714                     	;# 
   950  0716                     	;# 
   951  0717                     	;# 
   952  0718                     	;# 
   953  0719                     	;# 
   954  071A                     	;# 
   955  071B                     	;# 
   956  071C                     	;# 
   957  071D                     	;# 
   958  071E                     	;# 
   959  0796                     	;# 
   960  0797                     	;# 
   961  0798                     	;# 
   962  0799                     	;# 
   963  079A                     	;# 
   964  079B                     	;# 
   965  080C                     	;# 
   966  080D                     	;# 
   967  080E                     	;# 
   968  080F                     	;# 
   969  0810                     	;# 
   970  0811                     	;# 
   971  0813                     	;# 
   972  0814                     	;# 
   973  081A                     	;# 
   974  081B                     	;# 
   975  081C                     	;# 
   976  081D                     	;# 
   977  081E                     	;# 
   978  081F                     	;# 
   979  088C                     	;# 
   980  088D                     	;# 
   981  088E                     	;# 
   982  088F                     	;# 
   983  0890                     	;# 
   984  0891                     	;# 
   985  0892                     	;# 
   986  0893                     	;# 
   987  0895                     	;# 
   988  0896                     	;# 
   989  0897                     	;# 
   990  0898                     	;# 
   991  0899                     	;# 
   992  089A                     	;# 
   993  089B                     	;# 
   994  090C                     	;# 
   995  090E                     	;# 
   996  090F                     	;# 
   997  091F                     	;# 
   998  091F                     	;# 
   999  098F                     	;# 
  1000  098F                     	;# 
  1001  0990                     	;# 
  1002  0991                     	;# 
  1003  0992                     	;# 
  1004  0993                     	;# 
  1005  0994                     	;# 
  1006  0995                     	;# 
  1007  0996                     	;# 
  1008  0997                     	;# 
  1009  0E0F                     	;# 
  1010  0E10                     	;# 
  1011  0E11                     	;# 
  1012  0E12                     	;# 
  1013  0E13                     	;# 
  1014  0E14                     	;# 
  1015  0E15                     	;# 
  1016  0E16                     	;# 
  1017  0E17                     	;# 
  1018  0E18                     	;# 
  1019  0E19                     	;# 
  1020  0E1A                     	;# 
  1021  0E1B                     	;# 
  1022  0E1C                     	;# 
  1023  0E1D                     	;# 
  1024  0E1E                     	;# 
  1025  0E1F                     	;# 
  1026  0E20                     	;# 
  1027  0E21                     	;# 
  1028  0E22                     	;# 
  1029  0E23                     	;# 
  1030  0E24                     	;# 
  1031  0E25                     	;# 
  1032  0E26                     	;# 
  1033  0E27                     	;# 
  1034  0E28                     	;# 
  1035  0E29                     	;# 
  1036  0E2A                     	;# 
  1037  0E2B                     	;# 
  1038  0E2C                     	;# 
  1039  0E2D                     	;# 
  1040  0E2E                     	;# 
  1041  0E2F                     	;# 
  1042  0E30                     	;# 
  1043  0E31                     	;# 
  1044  0E32                     	;# 
  1045  0E33                     	;# 
  1046  0E34                     	;# 
  1047  0E35                     	;# 
  1048  0E36                     	;# 
  1049  0E37                     	;# 
  1050  0E8F                     	;# 
  1051  0E90                     	;# 
  1052  0E91                     	;# 
  1053  0E92                     	;# 
  1054  0E93                     	;# 
  1055  0E94                     	;# 
  1056  0E95                     	;# 
  1057  0E96                     	;# 
  1058  0E97                     	;# 
  1059  0E9C                     	;# 
  1060  0E9D                     	;# 
  1061  0E9E                     	;# 
  1062  0EA1                     	;# 
  1063  0EA2                     	;# 
  1064  0EA3                     	;# 
  1065  0EA4                     	;# 
  1066  0EA5                     	;# 
  1067  0EA9                     	;# 
  1068  0EAA                     	;# 
  1069  0EAB                     	;# 
  1070  0EAC                     	;# 
  1071  0EB1                     	;# 
  1072  0EB2                     	;# 
  1073  0EB3                     	;# 
  1074  0EB8                     	;# 
  1075  0EB9                     	;# 
  1076  0EBA                     	;# 
  1077  0EBB                     	;# 
  1078  0EBC                     	;# 
  1079  0EBD                     	;# 
  1080  0EBE                     	;# 
  1081  0EC3                     	;# 
  1082  0EC5                     	;# 
  1083  0EC6                     	;# 
  1084  0EC7                     	;# 
  1085  0EC8                     	;# 
  1086  0EC9                     	;# 
  1087  0ECA                     	;# 
  1088  0ECB                     	;# 
  1089  0ECC                     	;# 
  1090  0F10                     	;# 
  1091  0F11                     	;# 
  1092  0F12                     	;# 
  1093  0F13                     	;# 
  1094  0F14                     	;# 
  1095  0F15                     	;# 
  1096  0F16                     	;# 
  1097  0F17                     	;# 
  1098  0F18                     	;# 
  1099  0F19                     	;# 
  1100  0F1A                     	;# 
  1101  0F1B                     	;# 
  1102  0F1C                     	;# 
  1103  0F1D                     	;# 
  1104  0F1E                     	;# 
  1105  0F1F                     	;# 
  1106  0F20                     	;# 
  1107  0F21                     	;# 
  1108  0F22                     	;# 
  1109  0F23                     	;# 
  1110  0F24                     	;# 
  1111  0F25                     	;# 
  1112  0F26                     	;# 
  1113  0F27                     	;# 
  1114  0F38                     	;# 
  1115  0F39                     	;# 
  1116  0F3A                     	;# 
  1117  0F3B                     	;# 
  1118  0F3C                     	;# 
  1119  0F3D                     	;# 
  1120  0F3E                     	;# 
  1121  0F3F                     	;# 
  1122  0F40                     	;# 
  1123  0F41                     	;# 
  1124  0F43                     	;# 
  1125  0F44                     	;# 
  1126  0F45                     	;# 
  1127  0F46                     	;# 
  1128  0F47                     	;# 
  1129  0F48                     	;# 
  1130  0F49                     	;# 
  1131  0F4A                     	;# 
  1132  0F4B                     	;# 
  1133  0F4C                     	;# 
  1134  0F4E                     	;# 
  1135  0F4F                     	;# 
  1136  0F50                     	;# 
  1137  0F51                     	;# 
  1138  0F52                     	;# 
  1139  0F53                     	;# 
  1140  0F54                     	;# 
  1141  0F55                     	;# 
  1142  0F56                     	;# 
  1143  0F57                     	;# 
  1144  0F65                     	;# 
  1145  0F68                     	;# 
  1146  0F69                     	;# 
  1147  0F6A                     	;# 
  1148  0F6B                     	;# 
  1149  0FE4                     	;# 
  1150  0FE5                     	;# 
  1151  0FE6                     	;# 
  1152  0FE7                     	;# 
  1153  0FE8                     	;# 
  1154  0FE9                     	;# 
  1155  0FEA                     	;# 
  1156  0FEB                     	;# 
  1157  0FED                     	;# 
  1158  0FEE                     	;# 
  1159  0FEF                     	;# 
  1160  0000                     	;# 
  1161  0001                     	;# 
  1162  0002                     	;# 
  1163  0003                     	;# 
  1164  0004                     	;# 
  1165  0005                     	;# 
  1166  0006                     	;# 
  1167  0007                     	;# 
  1168  0008                     	;# 
  1169  0009                     	;# 
  1170  000A                     	;# 
  1171  000B                     	;# 
  1172  000C                     	;# 
  1173  000D                     	;# 
  1174  000E                     	;# 
  1175  0010                     	;# 
  1176  0011                     	;# 
  1177  0012                     	;# 
  1178  0013                     	;# 
  1179  0016                     	;# 
  1180  0017                     	;# 
  1181  0018                     	;# 
  1182  001C                     	;# 
  1183  001C                     	;# 
  1184  001D                     	;# 
  1185  001D                     	;# 
  1186  001E                     	;# 
  1187  001F                     	;# 
  1188  008C                     	;# 
  1189  008C                     	;# 
  1190  008D                     	;# 
  1191  008E                     	;# 
  1192  008E                     	;# 
  1193  008F                     	;# 
  1194  0090                     	;# 
  1195  0090                     	;# 
  1196  0091                     	;# 
  1197  0093                     	;# 
  1198  0094                     	;# 
  1199  0095                     	;# 
  1200  0096                     	;# 
  1201  0097                     	;# 
  1202  0098                     	;# 
  1203  0099                     	;# 
  1204  009A                     	;# 
  1205  009B                     	;# 
  1206  009C                     	;# 
  1207  009D                     	;# 
  1208  009E                     	;# 
  1209  010C                     	;# 
  1210  010D                     	;# 
  1211  010E                     	;# 
  1212  010E                     	;# 
  1213  010F                     	;# 
  1214  0110                     	;# 
  1215  0110                     	;# 
  1216  0111                     	;# 
  1217  0112                     	;# 
  1218  0112                     	;# 
  1219  0113                     	;# 
  1220  0114                     	;# 
  1221  0114                     	;# 
  1222  0115                     	;# 
  1223  0116                     	;# 
  1224  0116                     	;# 
  1225  0117                     	;# 
  1226  0119                     	;# 
  1227  0119                     	;# 
  1228  0119                     	;# 
  1229  011A                     	;# 
  1230  011A                     	;# 
  1231  011A                     	;# 
  1232  011B                     	;# 
  1233  011B                     	;# 
  1234  011B                     	;# 
  1235  011B                     	;# 
  1236  011B                     	;# 
  1237  011C                     	;# 
  1238  011C                     	;# 
  1239  011C                     	;# 
  1240  011D                     	;# 
  1241  011D                     	;# 
  1242  011D                     	;# 
  1243  011E                     	;# 
  1244  011E                     	;# 
  1245  011E                     	;# 
  1246  011F                     	;# 
  1247  011F                     	;# 
  1248  011F                     	;# 
  1249  011F                     	;# 
  1250  011F                     	;# 
  1251  018C                     	;# 
  1252  018D                     	;# 
  1253  018E                     	;# 
  1254  018F                     	;# 
  1255  0190                     	;# 
  1256  0191                     	;# 
  1257  0192                     	;# 
  1258  0196                     	;# 
  1259  0197                     	;# 
  1260  0198                     	;# 
  1261  0199                     	;# 
  1262  019A                     	;# 
  1263  019B                     	;# 
  1264  019C                     	;# 
  1265  020C                     	;# 
  1266  020C                     	;# 
  1267  020D                     	;# 
  1268  020E                     	;# 
  1269  020F                     	;# 
  1270  020F                     	;# 
  1271  0210                     	;# 
  1272  0210                     	;# 
  1273  0211                     	;# 
  1274  0211                     	;# 
  1275  0212                     	;# 
  1276  0212                     	;# 
  1277  0213                     	;# 
  1278  0214                     	;# 
  1279  0215                     	;# 
  1280  0215                     	;# 
  1281  0216                     	;# 
  1282  0216                     	;# 
  1283  0217                     	;# 
  1284  0217                     	;# 
  1285  0218                     	;# 
  1286  0218                     	;# 
  1287  0219                     	;# 
  1288  021A                     	;# 
  1289  021B                     	;# 
  1290  021B                     	;# 
  1291  021C                     	;# 
  1292  021C                     	;# 
  1293  021D                     	;# 
  1294  021D                     	;# 
  1295  021E                     	;# 
  1296  021F                     	;# 
  1297  028C                     	;# 
  1298  028C                     	;# 
  1299  028D                     	;# 
  1300  028D                     	;# 
  1301  028E                     	;# 
  1302  028F                     	;# 
  1303  0290                     	;# 
  1304  0290                     	;# 
  1305  0291                     	;# 
  1306  0292                     	;# 
  1307  0292                     	;# 
  1308  0293                     	;# 
  1309  0293                     	;# 
  1310  0294                     	;# 
  1311  0295                     	;# 
  1312  0296                     	;# 
  1313  0296                     	;# 
  1314  0297                     	;# 
  1315  0298                     	;# 
  1316  0298                     	;# 
  1317  0299                     	;# 
  1318  0299                     	;# 
  1319  029A                     	;# 
  1320  029B                     	;# 
  1321  029C                     	;# 
  1322  029C                     	;# 
  1323  029D                     	;# 
  1324  030C                     	;# 
  1325  030C                     	;# 
  1326  030D                     	;# 
  1327  030E                     	;# 
  1328  030F                     	;# 
  1329  0310                     	;# 
  1330  0310                     	;# 
  1331  0311                     	;# 
  1332  0312                     	;# 
  1333  0313                     	;# 
  1334  0314                     	;# 
  1335  0314                     	;# 
  1336  0315                     	;# 
  1337  0316                     	;# 
  1338  0317                     	;# 
  1339  0318                     	;# 
  1340  0318                     	;# 
  1341  0319                     	;# 
  1342  031A                     	;# 
  1343  031B                     	;# 
  1344  031C                     	;# 
  1345  031C                     	;# 
  1346  031D                     	;# 
  1347  031E                     	;# 
  1348  031F                     	;# 
  1349  038C                     	;# 
  1350  038C                     	;# 
  1351  038D                     	;# 
  1352  038E                     	;# 
  1353  0390                     	;# 
  1354  0390                     	;# 
  1355  0391                     	;# 
  1356  0392                     	;# 
  1357  040C                     	;# 
  1358  040D                     	;# 
  1359  040E                     	;# 
  1360  040F                     	;# 
  1361  0410                     	;# 
  1362  0411                     	;# 
  1363  0416                     	;# 
  1364  0416                     	;# 
  1365  0417                     	;# 
  1366  0418                     	;# 
  1367  0418                     	;# 
  1368  0419                     	;# 
  1369  041A                     	;# 
  1370  041A                     	;# 
  1371  041B                     	;# 
  1372  041C                     	;# 
  1373  041C                     	;# 
  1374  041D                     	;# 
  1375  041E                     	;# 
  1376  041F                     	;# 
  1377  048C                     	;# 
  1378  048C                     	;# 
  1379  048D                     	;# 
  1380  048E                     	;# 
  1381  048F                     	;# 
  1382  048F                     	;# 
  1383  0490                     	;# 
  1384  0491                     	;# 
  1385  0492                     	;# 
  1386  0492                     	;# 
  1387  0493                     	;# 
  1388  0494                     	;# 
  1389  0495                     	;# 
  1390  0495                     	;# 
  1391  0496                     	;# 
  1392  0497                     	;# 
  1393  0498                     	;# 
  1394  0499                     	;# 
  1395  049A                     	;# 
  1396  049B                     	;# 
  1397  049C                     	;# 
  1398  049D                     	;# 
  1399  050C                     	;# 
  1400  050C                     	;# 
  1401  050D                     	;# 
  1402  050E                     	;# 
  1403  050F                     	;# 
  1404  050F                     	;# 
  1405  0510                     	;# 
  1406  0511                     	;# 
  1407  0512                     	;# 
  1408  0512                     	;# 
  1409  0513                     	;# 
  1410  0514                     	;# 
  1411  0515                     	;# 
  1412  0515                     	;# 
  1413  0516                     	;# 
  1414  0517                     	;# 
  1415  0518                     	;# 
  1416  0519                     	;# 
  1417  051A                     	;# 
  1418  051B                     	;# 
  1419  051C                     	;# 
  1420  051D                     	;# 
  1421  058C                     	;# 
  1422  058C                     	;# 
  1423  058D                     	;# 
  1424  058E                     	;# 
  1425  058F                     	;# 
  1426  058F                     	;# 
  1427  0590                     	;# 
  1428  0591                     	;# 
  1429  0592                     	;# 
  1430  0593                     	;# 
  1431  060C                     	;# 
  1432  060D                     	;# 
  1433  060E                     	;# 
  1434  060F                     	;# 
  1435  0610                     	;# 
  1436  0611                     	;# 
  1437  0612                     	;# 
  1438  0613                     	;# 
  1439  0614                     	;# 
  1440  0616                     	;# 
  1441  0617                     	;# 
  1442  0618                     	;# 
  1443  0619                     	;# 
  1444  061A                     	;# 
  1445  061B                     	;# 
  1446  061C                     	;# 
  1447  061D                     	;# 
  1448  061E                     	;# 
  1449  068C                     	;# 
  1450  068D                     	;# 
  1451  068E                     	;# 
  1452  068F                     	;# 
  1453  0690                     	;# 
  1454  0691                     	;# 
  1455  0692                     	;# 
  1456  0693                     	;# 
  1457  0694                     	;# 
  1458  070C                     	;# 
  1459  070D                     	;# 
  1460  070E                     	;# 
  1461  070F                     	;# 
  1462  0710                     	;# 
  1463  0711                     	;# 
  1464  0712                     	;# 
  1465  0713                     	;# 
  1466  0714                     	;# 
  1467  0716                     	;# 
  1468  0717                     	;# 
  1469  0718                     	;# 
  1470  0719                     	;# 
  1471  071A                     	;# 
  1472  071B                     	;# 
  1473  071C                     	;# 
  1474  071D                     	;# 
  1475  071E                     	;# 
  1476  0796                     	;# 
  1477  0797                     	;# 
  1478  0798                     	;# 
  1479  0799                     	;# 
  1480  079A                     	;# 
  1481  079B                     	;# 
  1482  080C                     	;# 
  1483  080D                     	;# 
  1484  080E                     	;# 
  1485  080F                     	;# 
  1486  0810                     	;# 
  1487  0811                     	;# 
  1488  0813                     	;# 
  1489  0814                     	;# 
  1490  081A                     	;# 
  1491  081B                     	;# 
  1492  081C                     	;# 
  1493  081D                     	;# 
  1494  081E                     	;# 
  1495  081F                     	;# 
  1496  088C                     	;# 
  1497  088D                     	;# 
  1498  088E                     	;# 
  1499  088F                     	;# 
  1500  0890                     	;# 
  1501  0891                     	;# 
  1502  0892                     	;# 
  1503  0893                     	;# 
  1504  0895                     	;# 
  1505  0896                     	;# 
  1506  0897                     	;# 
  1507  0898                     	;# 
  1508  0899                     	;# 
  1509  089A                     	;# 
  1510  089B                     	;# 
  1511  090C                     	;# 
  1512  090E                     	;# 
  1513  090F                     	;# 
  1514  091F                     	;# 
  1515  091F                     	;# 
  1516  098F                     	;# 
  1517  098F                     	;# 
  1518  0990                     	;# 
  1519  0991                     	;# 
  1520  0992                     	;# 
  1521  0993                     	;# 
  1522  0994                     	;# 
  1523  0995                     	;# 
  1524  0996                     	;# 
  1525  0997                     	;# 
  1526  0E0F                     	;# 
  1527  0E10                     	;# 
  1528  0E11                     	;# 
  1529  0E12                     	;# 
  1530  0E13                     	;# 
  1531  0E14                     	;# 
  1532  0E15                     	;# 
  1533  0E16                     	;# 
  1534  0E17                     	;# 
  1535  0E18                     	;# 
  1536  0E19                     	;# 
  1537  0E1A                     	;# 
  1538  0E1B                     	;# 
  1539  0E1C                     	;# 
  1540  0E1D                     	;# 
  1541  0E1E                     	;# 
  1542  0E1F                     	;# 
  1543  0E20                     	;# 
  1544  0E21                     	;# 
  1545  0E22                     	;# 
  1546  0E23                     	;# 
  1547  0E24                     	;# 
  1548  0E25                     	;# 
  1549  0E26                     	;# 
  1550  0E27                     	;# 
  1551  0E28                     	;# 
  1552  0E29                     	;# 
  1553  0E2A                     	;# 
  1554  0E2B                     	;# 
  1555  0E2C                     	;# 
  1556  0E2D                     	;# 
  1557  0E2E                     	;# 
  1558  0E2F                     	;# 
  1559  0E30                     	;# 
  1560  0E31                     	;# 
  1561  0E32                     	;# 
  1562  0E33                     	;# 
  1563  0E34                     	;# 
  1564  0E35                     	;# 
  1565  0E36                     	;# 
  1566  0E37                     	;# 
  1567  0E8F                     	;# 
  1568  0E90                     	;# 
  1569  0E91                     	;# 
  1570  0E92                     	;# 
  1571  0E93                     	;# 
  1572  0E94                     	;# 
  1573  0E95                     	;# 
  1574  0E96                     	;# 
  1575  0E97                     	;# 
  1576  0E9C                     	;# 
  1577  0E9D                     	;# 
  1578  0E9E                     	;# 
  1579  0EA1                     	;# 
  1580  0EA2                     	;# 
  1581  0EA3                     	;# 
  1582  0EA4                     	;# 
  1583  0EA5                     	;# 
  1584  0EA9                     	;# 
  1585  0EAA                     	;# 
  1586  0EAB                     	;# 
  1587  0EAC                     	;# 
  1588  0EB1                     	;# 
  1589  0EB2                     	;# 
  1590  0EB3                     	;# 
  1591  0EB8                     	;# 
  1592  0EB9                     	;# 
  1593  0EBA                     	;# 
  1594  0EBB                     	;# 
  1595  0EBC                     	;# 
  1596  0EBD                     	;# 
  1597  0EBE                     	;# 
  1598  0EC3                     	;# 
  1599  0EC5                     	;# 
  1600  0EC6                     	;# 
  1601  0EC7                     	;# 
  1602  0EC8                     	;# 
  1603  0EC9                     	;# 
  1604  0ECA                     	;# 
  1605  0ECB                     	;# 
  1606  0ECC                     	;# 
  1607  0F10                     	;# 
  1608  0F11                     	;# 
  1609  0F12                     	;# 
  1610  0F13                     	;# 
  1611  0F14                     	;# 
  1612  0F15                     	;# 
  1613  0F16                     	;# 
  1614  0F17                     	;# 
  1615  0F18                     	;# 
  1616  0F19                     	;# 
  1617  0F1A                     	;# 
  1618  0F1B                     	;# 
  1619  0F1C                     	;# 
  1620  0F1D                     	;# 
  1621  0F1E                     	;# 
  1622  0F1F                     	;# 
  1623  0F20                     	;# 
  1624  0F21                     	;# 
  1625  0F22                     	;# 
  1626  0F23                     	;# 
  1627  0F24                     	;# 
  1628  0F25                     	;# 
  1629  0F26                     	;# 
  1630  0F27                     	;# 
  1631  0F38                     	;# 
  1632  0F39                     	;# 
  1633  0F3A                     	;# 
  1634  0F3B                     	;# 
  1635  0F3C                     	;# 
  1636  0F3D                     	;# 
  1637  0F3E                     	;# 
  1638  0F3F                     	;# 
  1639  0F40                     	;# 
  1640  0F41                     	;# 
  1641  0F43                     	;# 
  1642  0F44                     	;# 
  1643  0F45                     	;# 
  1644  0F46                     	;# 
  1645  0F47                     	;# 
  1646  0F48                     	;# 
  1647  0F49                     	;# 
  1648  0F4A                     	;# 
  1649  0F4B                     	;# 
  1650  0F4C                     	;# 
  1651  0F4E                     	;# 
  1652  0F4F                     	;# 
  1653  0F50                     	;# 
  1654  0F51                     	;# 
  1655  0F52                     	;# 
  1656  0F53                     	;# 
  1657  0F54                     	;# 
  1658  0F55                     	;# 
  1659  0F56                     	;# 
  1660  0F57                     	;# 
  1661  0F65                     	;# 
  1662  0F68                     	;# 
  1663  0F69                     	;# 
  1664  0F6A                     	;# 
  1665  0F6B                     	;# 
  1666  0FE4                     	;# 
  1667  0FE5                     	;# 
  1668  0FE6                     	;# 
  1669  0FE7                     	;# 
  1670  0FE8                     	;# 
  1671  0FE9                     	;# 
  1672  0FEA                     	;# 
  1673  0FEB                     	;# 
  1674  0FED                     	;# 
  1675  0FEE                     	;# 
  1676  0FEF                     	;# 
  1677  0000                     	;# 
  1678  0001                     	;# 
  1679  0002                     	;# 
  1680  0003                     	;# 
  1681  0004                     	;# 
  1682  0005                     	;# 
  1683  0006                     	;# 
  1684  0007                     	;# 
  1685  0008                     	;# 
  1686  0009                     	;# 
  1687  000A                     	;# 
  1688  000B                     	;# 
  1689  000C                     	;# 
  1690  000D                     	;# 
  1691  000E                     	;# 
  1692  0010                     	;# 
  1693  0011                     	;# 
  1694  0012                     	;# 
  1695  0013                     	;# 
  1696  0016                     	;# 
  1697  0017                     	;# 
  1698  0018                     	;# 
  1699  001C                     	;# 
  1700  001C                     	;# 
  1701  001D                     	;# 
  1702  001D                     	;# 
  1703  001E                     	;# 
  1704  001F                     	;# 
  1705  008C                     	;# 
  1706  008C                     	;# 
  1707  008D                     	;# 
  1708  008E                     	;# 
  1709  008E                     	;# 
  1710  008F                     	;# 
  1711  0090                     	;# 
  1712  0090                     	;# 
  1713  0091                     	;# 
  1714  0093                     	;# 
  1715  0094                     	;# 
  1716  0095                     	;# 
  1717  0096                     	;# 
  1718  0097                     	;# 
  1719  0098                     	;# 
  1720  0099                     	;# 
  1721  009A                     	;# 
  1722  009B                     	;# 
  1723  009C                     	;# 
  1724  009D                     	;# 
  1725  009E                     	;# 
  1726  010C                     	;# 
  1727  010D                     	;# 
  1728  010E                     	;# 
  1729  010E                     	;# 
  1730  010F                     	;# 
  1731  0110                     	;# 
  1732  0110                     	;# 
  1733  0111                     	;# 
  1734  0112                     	;# 
  1735  0112                     	;# 
  1736  0113                     	;# 
  1737  0114                     	;# 
  1738  0114                     	;# 
  1739  0115                     	;# 
  1740  0116                     	;# 
  1741  0116                     	;# 
  1742  0117                     	;# 
  1743  0119                     	;# 
  1744  0119                     	;# 
  1745  0119                     	;# 
  1746  011A                     	;# 
  1747  011A                     	;# 
  1748  011A                     	;# 
  1749  011B                     	;# 
  1750  011B                     	;# 
  1751  011B                     	;# 
  1752  011B                     	;# 
  1753  011B                     	;# 
  1754  011C                     	;# 
  1755  011C                     	;# 
  1756  011C                     	;# 
  1757  011D                     	;# 
  1758  011D                     	;# 
  1759  011D                     	;# 
  1760  011E                     	;# 
  1761  011E                     	;# 
  1762  011E                     	;# 
  1763  011F                     	;# 
  1764  011F                     	;# 
  1765  011F                     	;# 
  1766  011F                     	;# 
  1767  011F                     	;# 
  1768  018C                     	;# 
  1769  018D                     	;# 
  1770  018E                     	;# 
  1771  018F                     	;# 
  1772  0190                     	;# 
  1773  0191                     	;# 
  1774  0192                     	;# 
  1775  0196                     	;# 
  1776  0197                     	;# 
  1777  0198                     	;# 
  1778  0199                     	;# 
  1779  019A                     	;# 
  1780  019B                     	;# 
  1781  019C                     	;# 
  1782  020C                     	;# 
  1783  020C                     	;# 
  1784  020D                     	;# 
  1785  020E                     	;# 
  1786  020F                     	;# 
  1787  020F                     	;# 
  1788  0210                     	;# 
  1789  0210                     	;# 
  1790  0211                     	;# 
  1791  0211                     	;# 
  1792  0212                     	;# 
  1793  0212                     	;# 
  1794  0213                     	;# 
  1795  0214                     	;# 
  1796  0215                     	;# 
  1797  0215                     	;# 
  1798  0216                     	;# 
  1799  0216                     	;# 
  1800  0217                     	;# 
  1801  0217                     	;# 
  1802  0218                     	;# 
  1803  0218                     	;# 
  1804  0219                     	;# 
  1805  021A                     	;# 
  1806  021B                     	;# 
  1807  021B                     	;# 
  1808  021C                     	;# 
  1809  021C                     	;# 
  1810  021D                     	;# 
  1811  021D                     	;# 
  1812  021E                     	;# 
  1813  021F                     	;# 
  1814  028C                     	;# 
  1815  028C                     	;# 
  1816  028D                     	;# 
  1817  028D                     	;# 
  1818  028E                     	;# 
  1819  028F                     	;# 
  1820  0290                     	;# 
  1821  0290                     	;# 
  1822  0291                     	;# 
  1823  0292                     	;# 
  1824  0292                     	;# 
  1825  0293                     	;# 
  1826  0293                     	;# 
  1827  0294                     	;# 
  1828  0295                     	;# 
  1829  0296                     	;# 
  1830  0296                     	;# 
  1831  0297                     	;# 
  1832  0298                     	;# 
  1833  0298                     	;# 
  1834  0299                     	;# 
  1835  0299                     	;# 
  1836  029A                     	;# 
  1837  029B                     	;# 
  1838  029C                     	;# 
  1839  029C                     	;# 
  1840  029D                     	;# 
  1841  030C                     	;# 
  1842  030C                     	;# 
  1843  030D                     	;# 
  1844  030E                     	;# 
  1845  030F                     	;# 
  1846  0310                     	;# 
  1847  0310                     	;# 
  1848  0311                     	;# 
  1849  0312                     	;# 
  1850  0313                     	;# 
  1851  0314                     	;# 
  1852  0314                     	;# 
  1853  0315                     	;# 
  1854  0316                     	;# 
  1855  0317                     	;# 
  1856  0318                     	;# 
  1857  0318                     	;# 
  1858  0319                     	;# 
  1859  031A                     	;# 
  1860  031B                     	;# 
  1861  031C                     	;# 
  1862  031C                     	;# 
  1863  031D                     	;# 
  1864  031E                     	;# 
  1865  031F                     	;# 
  1866  038C                     	;# 
  1867  038C                     	;# 
  1868  038D                     	;# 
  1869  038E                     	;# 
  1870  0390                     	;# 
  1871  0390                     	;# 
  1872  0391                     	;# 
  1873  0392                     	;# 
  1874  040C                     	;# 
  1875  040D                     	;# 
  1876  040E                     	;# 
  1877  040F                     	;# 
  1878  0410                     	;# 
  1879  0411                     	;# 
  1880  0416                     	;# 
  1881  0416                     	;# 
  1882  0417                     	;# 
  1883  0418                     	;# 
  1884  0418                     	;# 
  1885  0419                     	;# 
  1886  041A                     	;# 
  1887  041A                     	;# 
  1888  041B                     	;# 
  1889  041C                     	;# 
  1890  041C                     	;# 
  1891  041D                     	;# 
  1892  041E                     	;# 
  1893  041F                     	;# 
  1894  048C                     	;# 
  1895  048C                     	;# 
  1896  048D                     	;# 
  1897  048E                     	;# 
  1898  048F                     	;# 
  1899  048F                     	;# 
  1900  0490                     	;# 
  1901  0491                     	;# 
  1902  0492                     	;# 
  1903  0492                     	;# 
  1904  0493                     	;# 
  1905  0494                     	;# 
  1906  0495                     	;# 
  1907  0495                     	;# 
  1908  0496                     	;# 
  1909  0497                     	;# 
  1910  0498                     	;# 
  1911  0499                     	;# 
  1912  049A                     	;# 
  1913  049B                     	;# 
  1914  049C                     	;# 
  1915  049D                     	;# 
  1916  050C                     	;# 
  1917  050C                     	;# 
  1918  050D                     	;# 
  1919  050E                     	;# 
  1920  050F                     	;# 
  1921  050F                     	;# 
  1922  0510                     	;# 
  1923  0511                     	;# 
  1924  0512                     	;# 
  1925  0512                     	;# 
  1926  0513                     	;# 
  1927  0514                     	;# 
  1928  0515                     	;# 
  1929  0515                     	;# 
  1930  0516                     	;# 
  1931  0517                     	;# 
  1932  0518                     	;# 
  1933  0519                     	;# 
  1934  051A                     	;# 
  1935  051B                     	;# 
  1936  051C                     	;# 
  1937  051D                     	;# 
  1938  058C                     	;# 
  1939  058C                     	;# 
  1940  058D                     	;# 
  1941  058E                     	;# 
  1942  058F                     	;# 
  1943  058F                     	;# 
  1944  0590                     	;# 
  1945  0591                     	;# 
  1946  0592                     	;# 
  1947  0593                     	;# 
  1948  060C                     	;# 
  1949  060D                     	;# 
  1950  060E                     	;# 
  1951  060F                     	;# 
  1952  0610                     	;# 
  1953  0611                     	;# 
  1954  0612                     	;# 
  1955  0613                     	;# 
  1956  0614                     	;# 
  1957  0616                     	;# 
  1958  0617                     	;# 
  1959  0618                     	;# 
  1960  0619                     	;# 
  1961  061A                     	;# 
  1962  061B                     	;# 
  1963  061C                     	;# 
  1964  061D                     	;# 
  1965  061E                     	;# 
  1966  068C                     	;# 
  1967  068D                     	;# 
  1968  068E                     	;# 
  1969  068F                     	;# 
  1970  0690                     	;# 
  1971  0691                     	;# 
  1972  0692                     	;# 
  1973  0693                     	;# 
  1974  0694                     	;# 
  1975  070C                     	;# 
  1976  070D                     	;# 
  1977  070E                     	;# 
  1978  070F                     	;# 
  1979  0710                     	;# 
  1980  0711                     	;# 
  1981  0712                     	;# 
  1982  0713                     	;# 
  1983  0714                     	;# 
  1984  0716                     	;# 
  1985  0717                     	;# 
  1986  0718                     	;# 
  1987  0719                     	;# 
  1988  071A                     	;# 
  1989  071B                     	;# 
  1990  071C                     	;# 
  1991  071D                     	;# 
  1992  071E                     	;# 
  1993  0796                     	;# 
  1994  0797                     	;# 
  1995  0798                     	;# 
  1996  0799                     	;# 
  1997  079A                     	;# 
  1998  079B                     	;# 
  1999  080C                     	;# 
  2000  080D                     	;# 
  2001  080E                     	;# 
  2002  080F                     	;# 
  2003  0810                     	;# 
  2004  0811                     	;# 
  2005  0813                     	;# 
  2006  0814                     	;# 
  2007  081A                     	;# 
  2008  081B                     	;# 
  2009  081C                     	;# 
  2010  081D                     	;# 
  2011  081E                     	;# 
  2012  081F                     	;# 
  2013  088C                     	;# 
  2014  088D                     	;# 
  2015  088E                     	;# 
  2016  088F                     	;# 
  2017  0890                     	;# 
  2018  0891                     	;# 
  2019  0892                     	;# 
  2020  0893                     	;# 
  2021  0895                     	;# 
  2022  0896                     	;# 
  2023  0897                     	;# 
  2024  0898                     	;# 
  2025  0899                     	;# 
  2026  089A                     	;# 
  2027  089B                     	;# 
  2028  090C                     	;# 
  2029  090E                     	;# 
  2030  090F                     	;# 
  2031  091F                     	;# 
  2032  091F                     	;# 
  2033  098F                     	;# 
  2034  098F                     	;# 
  2035  0990                     	;# 
  2036  0991                     	;# 
  2037  0992                     	;# 
  2038  0993                     	;# 
  2039  0994                     	;# 
  2040  0995                     	;# 
  2041  0996                     	;# 
  2042  0997                     	;# 
  2043  0E0F                     	;# 
  2044  0E10                     	;# 
  2045  0E11                     	;# 
  2046  0E12                     	;# 
  2047  0E13                     	;# 
  2048  0E14                     	;# 
  2049  0E15                     	;# 
  2050  0E16                     	;# 
  2051  0E17                     	;# 
  2052  0E18                     	;# 
  2053  0E19                     	;# 
  2054  0E1A                     	;# 
  2055  0E1B                     	;# 
  2056  0E1C                     	;# 
  2057  0E1D                     	;# 
  2058  0E1E                     	;# 
  2059  0E1F                     	;# 
  2060  0E20                     	;# 
  2061  0E21                     	;# 
  2062  0E22                     	;# 
  2063  0E23                     	;# 
  2064  0E24                     	;# 
  2065  0E25                     	;# 
  2066  0E26                     	;# 
  2067  0E27                     	;# 
  2068  0E28                     	;# 
  2069  0E29                     	;# 
  2070  0E2A                     	;# 
  2071  0E2B                     	;# 
  2072  0E2C                     	;# 
  2073  0E2D                     	;# 
  2074  0E2E                     	;# 
  2075  0E2F                     	;# 
  2076  0E30                     	;# 
  2077  0E31                     	;# 
  2078  0E32                     	;# 
  2079  0E33                     	;# 
  2080  0E34                     	;# 
  2081  0E35                     	;# 
  2082  0E36                     	;# 
  2083  0E37                     	;# 
  2084  0E8F                     	;# 
  2085  0E90                     	;# 
  2086  0E91                     	;# 
  2087  0E92                     	;# 
  2088  0E93                     	;# 
  2089  0E94                     	;# 
  2090  0E95                     	;# 
  2091  0E96                     	;# 
  2092  0E97                     	;# 
  2093  0E9C                     	;# 
  2094  0E9D                     	;# 
  2095  0E9E                     	;# 
  2096  0EA1                     	;# 
  2097  0EA2                     	;# 
  2098  0EA3                     	;# 
  2099  0EA4                     	;# 
  2100  0EA5                     	;# 
  2101  0EA9                     	;# 
  2102  0EAA                     	;# 
  2103  0EAB                     	;# 
  2104  0EAC                     	;# 
  2105  0EB1                     	;# 
  2106  0EB2                     	;# 
  2107  0EB3                     	;# 
  2108  0EB8                     	;# 
  2109  0EB9                     	;# 
  2110  0EBA                     	;# 
  2111  0EBB                     	;# 
  2112  0EBC                     	;# 
  2113  0EBD                     	;# 
  2114  0EBE                     	;# 
  2115  0EC3                     	;# 
  2116  0EC5                     	;# 
  2117  0EC6                     	;# 
  2118  0EC7                     	;# 
  2119  0EC8                     	;# 
  2120  0EC9                     	;# 
  2121  0ECA                     	;# 
  2122  0ECB                     	;# 
  2123  0ECC                     	;# 
  2124  0F10                     	;# 
  2125  0F11                     	;# 
  2126  0F12                     	;# 
  2127  0F13                     	;# 
  2128  0F14                     	;# 
  2129  0F15                     	;# 
  2130  0F16                     	;# 
  2131  0F17                     	;# 
  2132  0F18                     	;# 
  2133  0F19                     	;# 
  2134  0F1A                     	;# 
  2135  0F1B                     	;# 
  2136  0F1C                     	;# 
  2137  0F1D                     	;# 
  2138  0F1E                     	;# 
  2139  0F1F                     	;# 
  2140  0F20                     	;# 
  2141  0F21                     	;# 
  2142  0F22                     	;# 
  2143  0F23                     	;# 
  2144  0F24                     	;# 
  2145  0F25                     	;# 
  2146  0F26                     	;# 
  2147  0F27                     	;# 
  2148  0F38                     	;# 
  2149  0F39                     	;# 
  2150  0F3A                     	;# 
  2151  0F3B                     	;# 
  2152  0F3C                     	;# 
  2153  0F3D                     	;# 
  2154  0F3E                     	;# 
  2155  0F3F                     	;# 
  2156  0F40                     	;# 
  2157  0F41                     	;# 
  2158  0F43                     	;# 
  2159  0F44                     	;# 
  2160  0F45                     	;# 
  2161  0F46                     	;# 
  2162  0F47                     	;# 
  2163  0F48                     	;# 
  2164  0F49                     	;# 
  2165  0F4A                     	;# 
  2166  0F4B                     	;# 
  2167  0F4C                     	;# 
  2168  0F4E                     	;# 
  2169  0F4F                     	;# 
  2170  0F50                     	;# 
  2171  0F51                     	;# 
  2172  0F52                     	;# 
  2173  0F53                     	;# 
  2174  0F54                     	;# 
  2175  0F55                     	;# 
  2176  0F56                     	;# 
  2177  0F57                     	;# 
  2178  0F65                     	;# 
  2179  0F68                     	;# 
  2180  0F69                     	;# 
  2181  0F6A                     	;# 
  2182  0F6B                     	;# 
  2183  0FE4                     	;# 
  2184  0FE5                     	;# 
  2185  0FE6                     	;# 
  2186  0FE7                     	;# 
  2187  0FE8                     	;# 
  2188  0FE9                     	;# 
  2189  0FEA                     	;# 
  2190  0FEB                     	;# 
  2191  0FED                     	;# 
  2192  0FEE                     	;# 
  2193  0FEF                     	;# 
  2194  0000                     	;# 
  2195  0001                     	;# 
  2196  0002                     	;# 
  2197  0003                     	;# 
  2198  0004                     	;# 
  2199  0005                     	;# 
  2200  0006                     	;# 
  2201  0007                     	;# 
  2202  0008                     	;# 
  2203  0009                     	;# 
  2204  000A                     	;# 
  2205  000B                     	;# 
  2206  000C                     	;# 
  2207  000D                     	;# 
  2208  000E                     	;# 
  2209  0010                     	;# 
  2210  0011                     	;# 
  2211  0012                     	;# 
  2212  0013                     	;# 
  2213  0016                     	;# 
  2214  0017                     	;# 
  2215  0018                     	;# 
  2216  001C                     	;# 
  2217  001C                     	;# 
  2218  001D                     	;# 
  2219  001D                     	;# 
  2220  001E                     	;# 
  2221  001F                     	;# 
  2222  008C                     	;# 
  2223  008C                     	;# 
  2224  008D                     	;# 
  2225  008E                     	;# 
  2226  008E                     	;# 
  2227  008F                     	;# 
  2228  0090                     	;# 
  2229  0090                     	;# 
  2230  0091                     	;# 
  2231  0093                     	;# 
  2232  0094                     	;# 
  2233  0095                     	;# 
  2234  0096                     	;# 
  2235  0097                     	;# 
  2236  0098                     	;# 
  2237  0099                     	;# 
  2238  009A                     	;# 
  2239  009B                     	;# 
  2240  009C                     	;# 
  2241  009D                     	;# 
  2242  009E                     	;# 
  2243  010C                     	;# 
  2244  010D                     	;# 
  2245  010E                     	;# 
  2246  010E                     	;# 
  2247  010F                     	;# 
  2248  0110                     	;# 
  2249  0110                     	;# 
  2250  0111                     	;# 
  2251  0112                     	;# 
  2252  0112                     	;# 
  2253  0113                     	;# 
  2254  0114                     	;# 
  2255  0114                     	;# 
  2256  0115                     	;# 
  2257  0116                     	;# 
  2258  0116                     	;# 
  2259  0117                     	;# 
  2260  0119                     	;# 
  2261  0119                     	;# 
  2262  0119                     	;# 
  2263  011A                     	;# 
  2264  011A                     	;# 
  2265  011A                     	;# 
  2266  011B                     	;# 
  2267  011B                     	;# 
  2268  011B                     	;# 
  2269  011B                     	;# 
  2270  011B                     	;# 
  2271  011C                     	;# 
  2272  011C                     	;# 
  2273  011C                     	;# 
  2274  011D                     	;# 
  2275  011D                     	;# 
  2276  011D                     	;# 
  2277  011E                     	;# 
  2278  011E                     	;# 
  2279  011E                     	;# 
  2280  011F                     	;# 
  2281  011F                     	;# 
  2282  011F                     	;# 
  2283  011F                     	;# 
  2284  011F                     	;# 
  2285  018C                     	;# 
  2286  018D                     	;# 
  2287  018E                     	;# 
  2288  018F                     	;# 
  2289  0190                     	;# 
  2290  0191                     	;# 
  2291  0192                     	;# 
  2292  0196                     	;# 
  2293  0197                     	;# 
  2294  0198                     	;# 
  2295  0199                     	;# 
  2296  019A                     	;# 
  2297  019B                     	;# 
  2298  019C                     	;# 
  2299  020C                     	;# 
  2300  020C                     	;# 
  2301  020D                     	;# 
  2302  020E                     	;# 
  2303  020F                     	;# 
  2304  020F                     	;# 
  2305  0210                     	;# 
  2306  0210                     	;# 
  2307  0211                     	;# 
  2308  0211                     	;# 
  2309  0212                     	;# 
  2310  0212                     	;# 
  2311  0213                     	;# 
  2312  0214                     	;# 
  2313  0215                     	;# 
  2314  0215                     	;# 
  2315  0216                     	;# 
  2316  0216                     	;# 
  2317  0217                     	;# 
  2318  0217                     	;# 
  2319  0218                     	;# 
  2320  0218                     	;# 
  2321  0219                     	;# 
  2322  021A                     	;# 
  2323  021B                     	;# 
  2324  021B                     	;# 
  2325  021C                     	;# 
  2326  021C                     	;# 
  2327  021D                     	;# 
  2328  021D                     	;# 
  2329  021E                     	;# 
  2330  021F                     	;# 
  2331  028C                     	;# 
  2332  028C                     	;# 
  2333  028D                     	;# 
  2334  028D                     	;# 
  2335  028E                     	;# 
  2336  028F                     	;# 
  2337  0290                     	;# 
  2338  0290                     	;# 
  2339  0291                     	;# 
  2340  0292                     	;# 
  2341  0292                     	;# 
  2342  0293                     	;# 
  2343  0293                     	;# 
  2344  0294                     	;# 
  2345  0295                     	;# 
  2346  0296                     	;# 
  2347  0296                     	;# 
  2348  0297                     	;# 
  2349  0298                     	;# 
  2350  0298                     	;# 
  2351  0299                     	;# 
  2352  0299                     	;# 
  2353  029A                     	;# 
  2354  029B                     	;# 
  2355  029C                     	;# 
  2356  029C                     	;# 
  2357  029D                     	;# 
  2358  030C                     	;# 
  2359  030C                     	;# 
  2360  030D                     	;# 
  2361  030E                     	;# 
  2362  030F                     	;# 
  2363  0310                     	;# 
  2364  0310                     	;# 
  2365  0311                     	;# 
  2366  0312                     	;# 
  2367  0313                     	;# 
  2368  0314                     	;# 
  2369  0314                     	;# 
  2370  0315                     	;# 
  2371  0316                     	;# 
  2372  0317                     	;# 
  2373  0318                     	;# 
  2374  0318                     	;# 
  2375  0319                     	;# 
  2376  031A                     	;# 
  2377  031B                     	;# 
  2378  031C                     	;# 
  2379  031C                     	;# 
  2380  031D                     	;# 
  2381  031E                     	;# 
  2382  031F                     	;# 
  2383  038C                     	;# 
  2384  038C                     	;# 
  2385  038D                     	;# 
  2386  038E                     	;# 
  2387  0390                     	;# 
  2388  0390                     	;# 
  2389  0391                     	;# 
  2390  0392                     	;# 
  2391  040C                     	;# 
  2392  040D                     	;# 
  2393  040E                     	;# 
  2394  040F                     	;# 
  2395  0410                     	;# 
  2396  0411                     	;# 
  2397  0416                     	;# 
  2398  0416                     	;# 
  2399  0417                     	;# 
  2400  0418                     	;# 
  2401  0418                     	;# 
  2402  0419                     	;# 
  2403  041A                     	;# 
  2404  041A                     	;# 
  2405  041B                     	;# 
  2406  041C                     	;# 
  2407  041C                     	;# 
  2408  041D                     	;# 
  2409  041E                     	;# 
  2410  041F                     	;# 
  2411  048C                     	;# 
  2412  048C                     	;# 
  2413  048D                     	;# 
  2414  048E                     	;# 
  2415  048F                     	;# 
  2416  048F                     	;# 
  2417  0490                     	;# 
  2418  0491                     	;# 
  2419  0492                     	;# 
  2420  0492                     	;# 
  2421  0493                     	;# 
  2422  0494                     	;# 
  2423  0495                     	;# 
  2424  0495                     	;# 
  2425  0496                     	;# 
  2426  0497                     	;# 
  2427  0498                     	;# 
  2428  0499                     	;# 
  2429  049A                     	;# 
  2430  049B                     	;# 
  2431  049C                     	;# 
  2432  049D                     	;# 
  2433  050C                     	;# 
  2434  050C                     	;# 
  2435  050D                     	;# 
  2436  050E                     	;# 
  2437  050F                     	;# 
  2438  050F                     	;# 
  2439  0510                     	;# 
  2440  0511                     	;# 
  2441  0512                     	;# 
  2442  0512                     	;# 
  2443  0513                     	;# 
  2444  0514                     	;# 
  2445  0515                     	;# 
  2446  0515                     	;# 
  2447  0516                     	;# 
  2448  0517                     	;# 
  2449  0518                     	;# 
  2450  0519                     	;# 
  2451  051A                     	;# 
  2452  051B                     	;# 
  2453  051C                     	;# 
  2454  051D                     	;# 
  2455  058C                     	;# 
  2456  058C                     	;# 
  2457  058D                     	;# 
  2458  058E                     	;# 
  2459  058F                     	;# 
  2460  058F                     	;# 
  2461  0590                     	;# 
  2462  0591                     	;# 
  2463  0592                     	;# 
  2464  0593                     	;# 
  2465  060C                     	;# 
  2466  060D                     	;# 
  2467  060E                     	;# 
  2468  060F                     	;# 
  2469  0610                     	;# 
  2470  0611                     	;# 
  2471  0612                     	;# 
  2472  0613                     	;# 
  2473  0614                     	;# 
  2474  0616                     	;# 
  2475  0617                     	;# 
  2476  0618                     	;# 
  2477  0619                     	;# 
  2478  061A                     	;# 
  2479  061B                     	;# 
  2480  061C                     	;# 
  2481  061D                     	;# 
  2482  061E                     	;# 
  2483  068C                     	;# 
  2484  068D                     	;# 
  2485  068E                     	;# 
  2486  068F                     	;# 
  2487  0690                     	;# 
  2488  0691                     	;# 
  2489  0692                     	;# 
  2490  0693                     	;# 
  2491  0694                     	;# 
  2492  070C                     	;# 
  2493  070D                     	;# 
  2494  070E                     	;# 
  2495  070F                     	;# 
  2496  0710                     	;# 
  2497  0711                     	;# 
  2498  0712                     	;# 
  2499  0713                     	;# 
  2500  0714                     	;# 
  2501  0716                     	;# 
  2502  0717                     	;# 
  2503  0718                     	;# 
  2504  0719                     	;# 
  2505  071A                     	;# 
  2506  071B                     	;# 
  2507  071C                     	;# 
  2508  071D                     	;# 
  2509  071E                     	;# 
  2510  0796                     	;# 
  2511  0797                     	;# 
  2512  0798                     	;# 
  2513  0799                     	;# 
  2514  079A                     	;# 
  2515  079B                     	;# 
  2516  080C                     	;# 
  2517  080D                     	;# 
  2518  080E                     	;# 
  2519  080F                     	;# 
  2520  0810                     	;# 
  2521  0811                     	;# 
  2522  0813                     	;# 
  2523  0814                     	;# 
  2524  081A                     	;# 
  2525  081B                     	;# 
  2526  081C                     	;# 
  2527  081D                     	;# 
  2528  081E                     	;# 
  2529  081F                     	;# 
  2530  088C                     	;# 
  2531  088D                     	;# 
  2532  088E                     	;# 
  2533  088F                     	;# 
  2534  0890                     	;# 
  2535  0891                     	;# 
  2536  0892                     	;# 
  2537  0893                     	;# 
  2538  0895                     	;# 
  2539  0896                     	;# 
  2540  0897                     	;# 
  2541  0898                     	;# 
  2542  0899                     	;# 
  2543  089A                     	;# 
  2544  089B                     	;# 
  2545  090C                     	;# 
  2546  090E                     	;# 
  2547  090F                     	;# 
  2548  091F                     	;# 
  2549  091F                     	;# 
  2550  098F                     	;# 
  2551  098F                     	;# 
  2552  0990                     	;# 
  2553  0991                     	;# 
  2554  0992                     	;# 
  2555  0993                     	;# 
  2556  0994                     	;# 
  2557  0995                     	;# 
  2558  0996                     	;# 
  2559  0997                     	;# 
  2560  0E0F                     	;# 
  2561  0E10                     	;# 
  2562  0E11                     	;# 
  2563  0E12                     	;# 
  2564  0E13                     	;# 
  2565  0E14                     	;# 
  2566  0E15                     	;# 
  2567  0E16                     	;# 
  2568  0E17                     	;# 
  2569  0E18                     	;# 
  2570  0E19                     	;# 
  2571  0E1A                     	;# 
  2572  0E1B                     	;# 
  2573  0E1C                     	;# 
  2574  0E1D                     	;# 
  2575  0E1E                     	;# 
  2576  0E1F                     	;# 
  2577  0E20                     	;# 
  2578  0E21                     	;# 
  2579  0E22                     	;# 
  2580  0E23                     	;# 
  2581  0E24                     	;# 
  2582  0E25                     	;# 
  2583  0E26                     	;# 
  2584  0E27                     	;# 
  2585  0E28                     	;# 
  2586  0E29                     	;# 
  2587  0E2A                     	;# 
  2588  0E2B                     	;# 
  2589  0E2C                     	;# 
  2590  0E2D                     	;# 
  2591  0E2E                     	;# 
  2592  0E2F                     	;# 
  2593  0E30                     	;# 
  2594  0E31                     	;# 
  2595  0E32                     	;# 
  2596  0E33                     	;# 
  2597  0E34                     	;# 
  2598  0E35                     	;# 
  2599  0E36                     	;# 
  2600  0E37                     	;# 
  2601  0E8F                     	;# 
  2602  0E90                     	;# 
  2603  0E91                     	;# 
  2604  0E92                     	;# 
  2605  0E93                     	;# 
  2606  0E94                     	;# 
  2607  0E95                     	;# 
  2608  0E96                     	;# 
  2609  0E97                     	;# 
  2610  0E9C                     	;# 
  2611  0E9D                     	;# 
  2612  0E9E                     	;# 
  2613  0EA1                     	;# 
  2614  0EA2                     	;# 
  2615  0EA3                     	;# 
  2616  0EA4                     	;# 
  2617  0EA5                     	;# 
  2618  0EA9                     	;# 
  2619  0EAA                     	;# 
  2620  0EAB                     	;# 
  2621  0EAC                     	;# 
  2622  0EB1                     	;# 
  2623  0EB2                     	;# 
  2624  0EB3                     	;# 
  2625  0EB8                     	;# 
  2626  0EB9                     	;# 
  2627  0EBA                     	;# 
  2628  0EBB                     	;# 
  2629  0EBC                     	;# 
  2630  0EBD                     	;# 
  2631  0EBE                     	;# 
  2632  0EC3                     	;# 
  2633  0EC5                     	;# 
  2634  0EC6                     	;# 
  2635  0EC7                     	;# 
  2636  0EC8                     	;# 
  2637  0EC9                     	;# 
  2638  0ECA                     	;# 
  2639  0ECB                     	;# 
  2640  0ECC                     	;# 
  2641  0F10                     	;# 
  2642  0F11                     	;# 
  2643  0F12                     	;# 
  2644  0F13                     	;# 
  2645  0F14                     	;# 
  2646  0F15                     	;# 
  2647  0F16                     	;# 
  2648  0F17                     	;# 
  2649  0F18                     	;# 
  2650  0F19                     	;# 
  2651  0F1A                     	;# 
  2652  0F1B                     	;# 
  2653  0F1C                     	;# 
  2654  0F1D                     	;# 
  2655  0F1E                     	;# 
  2656  0F1F                     	;# 
  2657  0F20                     	;# 
  2658  0F21                     	;# 
  2659  0F22                     	;# 
  2660  0F23                     	;# 
  2661  0F24                     	;# 
  2662  0F25                     	;# 
  2663  0F26                     	;# 
  2664  0F27                     	;# 
  2665  0F38                     	;# 
  2666  0F39                     	;# 
  2667  0F3A                     	;# 
  2668  0F3B                     	;# 
  2669  0F3C                     	;# 
  2670  0F3D                     	;# 
  2671  0F3E                     	;# 
  2672  0F3F                     	;# 
  2673  0F40                     	;# 
  2674  0F41                     	;# 
  2675  0F43                     	;# 
  2676  0F44                     	;# 
  2677  0F45                     	;# 
  2678  0F46                     	;# 
  2679  0F47                     	;# 
  2680  0F48                     	;# 
  2681  0F49                     	;# 
  2682  0F4A                     	;# 
  2683  0F4B                     	;# 
  2684  0F4C                     	;# 
  2685  0F4E                     	;# 
  2686  0F4F                     	;# 
  2687  0F50                     	;# 
  2688  0F51                     	;# 
  2689  0F52                     	;# 
  2690  0F53                     	;# 
  2691  0F54                     	;# 
  2692  0F55                     	;# 
  2693  0F56                     	;# 
  2694  0F57                     	;# 
  2695  0F65                     	;# 
  2696  0F68                     	;# 
  2697  0F69                     	;# 
  2698  0F6A                     	;# 
  2699  0F6B                     	;# 
  2700  0FE4                     	;# 
  2701  0FE5                     	;# 
  2702  0FE6                     	;# 
  2703  0FE7                     	;# 
  2704  0FE8                     	;# 
  2705  0FE9                     	;# 
  2706  0FEA                     	;# 
  2707  0FEB                     	;# 
  2708  0FED                     	;# 
  2709  0FEE                     	;# 
  2710  0FEF                     	;# 
  2711  0000                     	;# 
  2712  0001                     	;# 
  2713  0002                     	;# 
  2714  0003                     	;# 
  2715  0004                     	;# 
  2716  0005                     	;# 
  2717  0006                     	;# 
  2718  0007                     	;# 
  2719  0008                     	;# 
  2720  0009                     	;# 
  2721  000A                     	;# 
  2722  000B                     	;# 
  2723  000C                     	;# 
  2724  000D                     	;# 
  2725  000E                     	;# 
  2726  0010                     	;# 
  2727  0011                     	;# 
  2728  0012                     	;# 
  2729  0013                     	;# 
  2730  0016                     	;# 
  2731  0017                     	;# 
  2732  0018                     	;# 
  2733  001C                     	;# 
  2734  001C                     	;# 
  2735  001D                     	;# 
  2736  001D                     	;# 
  2737  001E                     	;# 
  2738  001F                     	;# 
  2739  008C                     	;# 
  2740  008C                     	;# 
  2741  008D                     	;# 
  2742  008E                     	;# 
  2743  008E                     	;# 
  2744  008F                     	;# 
  2745  0090                     	;# 
  2746  0090                     	;# 
  2747  0091                     	;# 
  2748  0093                     	;# 
  2749  0094                     	;# 
  2750  0095                     	;# 
  2751  0096                     	;# 
  2752  0097                     	;# 
  2753  0098                     	;# 
  2754  0099                     	;# 
  2755  009A                     	;# 
  2756  009B                     	;# 
  2757  009C                     	;# 
  2758  009D                     	;# 
  2759  009E                     	;# 
  2760  010C                     	;# 
  2761  010D                     	;# 
  2762  010E                     	;# 
  2763  010E                     	;# 
  2764  010F                     	;# 
  2765  0110                     	;# 
  2766  0110                     	;# 
  2767  0111                     	;# 
  2768  0112                     	;# 
  2769  0112                     	;# 
  2770  0113                     	;# 
  2771  0114                     	;# 
  2772  0114                     	;# 
  2773  0115                     	;# 
  2774  0116                     	;# 
  2775  0116                     	;# 
  2776  0117                     	;# 
  2777  0119                     	;# 
  2778  0119                     	;# 
  2779  0119                     	;# 
  2780  011A                     	;# 
  2781  011A                     	;# 
  2782  011A                     	;# 
  2783  011B                     	;# 
  2784  011B                     	;# 
  2785  011B                     	;# 
  2786  011B                     	;# 
  2787  011B                     	;# 
  2788  011C                     	;# 
  2789  011C                     	;# 
  2790  011C                     	;# 
  2791  011D                     	;# 
  2792  011D                     	;# 
  2793  011D                     	;# 
  2794  011E                     	;# 
  2795  011E                     	;# 
  2796  011E                     	;# 
  2797  011F                     	;# 
  2798  011F                     	;# 
  2799  011F                     	;# 
  2800  011F                     	;# 
  2801  011F                     	;# 
  2802  018C                     	;# 
  2803  018D                     	;# 
  2804  018E                     	;# 
  2805  018F                     	;# 
  2806  0190                     	;# 
  2807  0191                     	;# 
  2808  0192                     	;# 
  2809  0196                     	;# 
  2810  0197                     	;# 
  2811  0198                     	;# 
  2812  0199                     	;# 
  2813  019A                     	;# 
  2814  019B                     	;# 
  2815  019C                     	;# 
  2816  020C                     	;# 
  2817  020C                     	;# 
  2818  020D                     	;# 
  2819  020E                     	;# 
  2820  020F                     	;# 
  2821  020F                     	;# 
  2822  0210                     	;# 
  2823  0210                     	;# 
  2824  0211                     	;# 
  2825  0211                     	;# 
  2826  0212                     	;# 
  2827  0212                     	;# 
  2828  0213                     	;# 
  2829  0214                     	;# 
  2830  0215                     	;# 
  2831  0215                     	;# 
  2832  0216                     	;# 
  2833  0216                     	;# 
  2834  0217                     	;# 
  2835  0217                     	;# 
  2836  0218                     	;# 
  2837  0218                     	;# 
  2838  0219                     	;# 
  2839  021A                     	;# 
  2840  021B                     	;# 
  2841  021B                     	;# 
  2842  021C                     	;# 
  2843  021C                     	;# 
  2844  021D                     	;# 
  2845  021D                     	;# 
  2846  021E                     	;# 
  2847  021F                     	;# 
  2848  028C                     	;# 
  2849  028C                     	;# 
  2850  028D                     	;# 
  2851  028D                     	;# 
  2852  028E                     	;# 
  2853  028F                     	;# 
  2854  0290                     	;# 
  2855  0290                     	;# 
  2856  0291                     	;# 
  2857  0292                     	;# 
  2858  0292                     	;# 
  2859  0293                     	;# 
  2860  0293                     	;# 
  2861  0294                     	;# 
  2862  0295                     	;# 
  2863  0296                     	;# 
  2864  0296                     	;# 
  2865  0297                     	;# 
  2866  0298                     	;# 
  2867  0298                     	;# 
  2868  0299                     	;# 
  2869  0299                     	;# 
  2870  029A                     	;# 
  2871  029B                     	;# 
  2872  029C                     	;# 
  2873  029C                     	;# 
  2874  029D                     	;# 
  2875  030C                     	;# 
  2876  030C                     	;# 
  2877  030D                     	;# 
  2878  030E                     	;# 
  2879  030F                     	;# 
  2880  0310                     	;# 
  2881  0310                     	;# 
  2882  0311                     	;# 
  2883  0312                     	;# 
  2884  0313                     	;# 
  2885  0314                     	;# 
  2886  0314                     	;# 
  2887  0315                     	;# 
  2888  0316                     	;# 
  2889  0317                     	;# 
  2890  0318                     	;# 
  2891  0318                     	;# 
  2892  0319                     	;# 
  2893  031A                     	;# 
  2894  031B                     	;# 
  2895  031C                     	;# 
  2896  031C                     	;# 
  2897  031D                     	;# 
  2898  031E                     	;# 
  2899  031F                     	;# 
  2900  038C                     	;# 
  2901  038C                     	;# 
  2902  038D                     	;# 
  2903  038E                     	;# 
  2904  0390                     	;# 
  2905  0390                     	;# 
  2906  0391                     	;# 
  2907  0392                     	;# 
  2908  040C                     	;# 
  2909  040D                     	;# 
  2910  040E                     	;# 
  2911  040F                     	;# 
  2912  0410                     	;# 
  2913  0411                     	;# 
  2914  0416                     	;# 
  2915  0416                     	;# 
  2916  0417                     	;# 
  2917  0418                     	;# 
  2918  0418                     	;# 
  2919  0419                     	;# 
  2920  041A                     	;# 
  2921  041A                     	;# 
  2922  041B                     	;# 
  2923  041C                     	;# 
  2924  041C                     	;# 
  2925  041D                     	;# 
  2926  041E                     	;# 
  2927  041F                     	;# 
  2928  048C                     	;# 
  2929  048C                     	;# 
  2930  048D                     	;# 
  2931  048E                     	;# 
  2932  048F                     	;# 
  2933  048F                     	;# 
  2934  0490                     	;# 
  2935  0491                     	;# 
  2936  0492                     	;# 
  2937  0492                     	;# 
  2938  0493                     	;# 
  2939  0494                     	;# 
  2940  0495                     	;# 
  2941  0495                     	;# 
  2942  0496                     	;# 
  2943  0497                     	;# 
  2944  0498                     	;# 
  2945  0499                     	;# 
  2946  049A                     	;# 
  2947  049B                     	;# 
  2948  049C                     	;# 
  2949  049D                     	;# 
  2950  050C                     	;# 
  2951  050C                     	;# 
  2952  050D                     	;# 
  2953  050E                     	;# 
  2954  050F                     	;# 
  2955  050F                     	;# 
  2956  0510                     	;# 
  2957  0511                     	;# 
  2958  0512                     	;# 
  2959  0512                     	;# 
  2960  0513                     	;# 
  2961  0514                     	;# 
  2962  0515                     	;# 
  2963  0515                     	;# 
  2964  0516                     	;# 
  2965  0517                     	;# 
  2966  0518                     	;# 
  2967  0519                     	;# 
  2968  051A                     	;# 
  2969  051B                     	;# 
  2970  051C                     	;# 
  2971  051D                     	;# 
  2972  058C                     	;# 
  2973  058C                     	;# 
  2974  058D                     	;# 
  2975  058E                     	;# 
  2976  058F                     	;# 
  2977  058F                     	;# 
  2978  0590                     	;# 
  2979  0591                     	;# 
  2980  0592                     	;# 
  2981  0593                     	;# 
  2982  060C                     	;# 
  2983  060D                     	;# 
  2984  060E                     	;# 
  2985  060F                     	;# 
  2986  0610                     	;# 
  2987  0611                     	;# 
  2988  0612                     	;# 
  2989  0613                     	;# 
  2990  0614                     	;# 
  2991  0616                     	;# 
  2992  0617                     	;# 
  2993  0618                     	;# 
  2994  0619                     	;# 
  2995  061A                     	;# 
  2996  061B                     	;# 
  2997  061C                     	;# 
  2998  061D                     	;# 
  2999  061E                     	;# 
  3000  068C                     	;# 
  3001  068D                     	;# 
  3002  068E                     	;# 
  3003  068F                     	;# 
  3004  0690                     	;# 
  3005  0691                     	;# 
  3006  0692                     	;# 
  3007  0693                     	;# 
  3008  0694                     	;# 
  3009  070C                     	;# 
  3010  070D                     	;# 
  3011  070E                     	;# 
  3012  070F                     	;# 
  3013  0710                     	;# 
  3014  0711                     	;# 
  3015  0712                     	;# 
  3016  0713                     	;# 
  3017  0714                     	;# 
  3018  0716                     	;# 
  3019  0717                     	;# 
  3020  0718                     	;# 
  3021  0719                     	;# 
  3022  071A                     	;# 
  3023  071B                     	;# 
  3024  071C                     	;# 
  3025  071D                     	;# 
  3026  071E                     	;# 
  3027  0796                     	;# 
  3028  0797                     	;# 
  3029  0798                     	;# 
  3030  0799                     	;# 
  3031  079A                     	;# 
  3032  079B                     	;# 
  3033  080C                     	;# 
  3034  080D                     	;# 
  3035  080E                     	;# 
  3036  080F                     	;# 
  3037  0810                     	;# 
  3038  0811                     	;# 
  3039  0813                     	;# 
  3040  0814                     	;# 
  3041  081A                     	;# 
  3042  081B                     	;# 
  3043  081C                     	;# 
  3044  081D                     	;# 
  3045  081E                     	;# 
  3046  081F                     	;# 
  3047  088C                     	;# 
  3048  088D                     	;# 
  3049  088E                     	;# 
  3050  088F                     	;# 
  3051  0890                     	;# 
  3052  0891                     	;# 
  3053  0892                     	;# 
  3054  0893                     	;# 
  3055  0895                     	;# 
  3056  0896                     	;# 
  3057  0897                     	;# 
  3058  0898                     	;# 
  3059  0899                     	;# 
  3060  089A                     	;# 
  3061  089B                     	;# 
  3062  090C                     	;# 
  3063  090E                     	;# 
  3064  090F                     	;# 
  3065  091F                     	;# 
  3066  091F                     	;# 
  3067  098F                     	;# 
  3068  098F                     	;# 
  3069  0990                     	;# 
  3070  0991                     	;# 
  3071  0992                     	;# 
  3072  0993                     	;# 
  3073  0994                     	;# 
  3074  0995                     	;# 
  3075  0996                     	;# 
  3076  0997                     	;# 
  3077  0E0F                     	;# 
  3078  0E10                     	;# 
  3079  0E11                     	;# 
  3080  0E12                     	;# 
  3081  0E13                     	;# 
  3082  0E14                     	;# 
  3083  0E15                     	;# 
  3084  0E16                     	;# 
  3085  0E17                     	;# 
  3086  0E18                     	;# 
  3087  0E19                     	;# 
  3088  0E1A                     	;# 
  3089  0E1B                     	;# 
  3090  0E1C                     	;# 
  3091  0E1D                     	;# 
  3092  0E1E                     	;# 
  3093  0E1F                     	;# 
  3094  0E20                     	;# 
  3095  0E21                     	;# 
  3096  0E22                     	;# 
  3097  0E23                     	;# 
  3098  0E24                     	;# 
  3099  0E25                     	;# 
  3100  0E26                     	;# 
  3101  0E27                     	;# 
  3102  0E28                     	;# 
  3103  0E29                     	;# 
  3104  0E2A                     	;# 
  3105  0E2B                     	;# 
  3106  0E2C                     	;# 
  3107  0E2D                     	;# 
  3108  0E2E                     	;# 
  3109  0E2F                     	;# 
  3110  0E30                     	;# 
  3111  0E31                     	;# 
  3112  0E32                     	;# 
  3113  0E33                     	;# 
  3114  0E34                     	;# 
  3115  0E35                     	;# 
  3116  0E36                     	;# 
  3117  0E37                     	;# 
  3118  0E8F                     	;# 
  3119  0E90                     	;# 
  3120  0E91                     	;# 
  3121  0E92                     	;# 
  3122  0E93                     	;# 
  3123  0E94                     	;# 
  3124  0E95                     	;# 
  3125  0E96                     	;# 
  3126  0E97                     	;# 
  3127  0E9C                     	;# 
  3128  0E9D                     	;# 
  3129  0E9E                     	;# 
  3130  0EA1                     	;# 
  3131  0EA2                     	;# 
  3132  0EA3                     	;# 
  3133  0EA4                     	;# 
  3134  0EA5                     	;# 
  3135  0EA9                     	;# 
  3136  0EAA                     	;# 
  3137  0EAB                     	;# 
  3138  0EAC                     	;# 
  3139  0EB1                     	;# 
  3140  0EB2                     	;# 
  3141  0EB3                     	;# 
  3142  0EB8                     	;# 
  3143  0EB9                     	;# 
  3144  0EBA                     	;# 
  3145  0EBB                     	;# 
  3146  0EBC                     	;# 
  3147  0EBD                     	;# 
  3148  0EBE                     	;# 
  3149  0EC3                     	;# 
  3150  0EC5                     	;# 
  3151  0EC6                     	;# 
  3152  0EC7                     	;# 
  3153  0EC8                     	;# 
  3154  0EC9                     	;# 
  3155  0ECA                     	;# 
  3156  0ECB                     	;# 
  3157  0ECC                     	;# 
  3158  0F10                     	;# 
  3159  0F11                     	;# 
  3160  0F12                     	;# 
  3161  0F13                     	;# 
  3162  0F14                     	;# 
  3163  0F15                     	;# 
  3164  0F16                     	;# 
  3165  0F17                     	;# 
  3166  0F18                     	;# 
  3167  0F19                     	;# 
  3168  0F1A                     	;# 
  3169  0F1B                     	;# 
  3170  0F1C                     	;# 
  3171  0F1D                     	;# 
  3172  0F1E                     	;# 
  3173  0F1F                     	;# 
  3174  0F20                     	;# 
  3175  0F21                     	;# 
  3176  0F22                     	;# 
  3177  0F23                     	;# 
  3178  0F24                     	;# 
  3179  0F25                     	;# 
  3180  0F26                     	;# 
  3181  0F27                     	;# 
  3182  0F38                     	;# 
  3183  0F39                     	;# 
  3184  0F3A                     	;# 
  3185  0F3B                     	;# 
  3186  0F3C                     	;# 
  3187  0F3D                     	;# 
  3188  0F3E                     	;# 
  3189  0F3F                     	;# 
  3190  0F40                     	;# 
  3191  0F41                     	;# 
  3192  0F43                     	;# 
  3193  0F44                     	;# 
  3194  0F45                     	;# 
  3195  0F46                     	;# 
  3196  0F47                     	;# 
  3197  0F48                     	;# 
  3198  0F49                     	;# 
  3199  0F4A                     	;# 
  3200  0F4B                     	;# 
  3201  0F4C                     	;# 
  3202  0F4E                     	;# 
  3203  0F4F                     	;# 
  3204  0F50                     	;# 
  3205  0F51                     	;# 
  3206  0F52                     	;# 
  3207  0F53                     	;# 
  3208  0F54                     	;# 
  3209  0F55                     	;# 
  3210  0F56                     	;# 
  3211  0F57                     	;# 
  3212  0F65                     	;# 
  3213  0F68                     	;# 
  3214  0F69                     	;# 
  3215  0F6A                     	;# 
  3216  0F6B                     	;# 
  3217  0FE4                     	;# 
  3218  0FE5                     	;# 
  3219  0FE6                     	;# 
  3220  0FE7                     	;# 
  3221  0FE8                     	;# 
  3222  0FE9                     	;# 
  3223  0FEA                     	;# 
  3224  0FEB                     	;# 
  3225  0FED                     	;# 
  3226  0FEE                     	;# 
  3227  0FEF                     	;# 
  3228                           
  3229 ;; Function _EUSART_DefaultFramingErrorHandler is unused but had its address taken
  3230  0000                     
  3231 ;; Function _EUSART_DefaultOverrunErrorHandler is unused but had its address taken
  3232  0000                     
  3233 ;; Function _EUSART_DefaultErrorHandler is unused but had its address taken
  3234  0000                     
  3235                           	psect	stringtext1
  3236  0830                     __pstringtext1:
  3237  0830                     _i2c2_fsmStateTable:
  3238  0830  3461               	retlw	low _I2C2_DO_IDLE
  3239  0831  340E               	retlw	high _I2C2_DO_IDLE
  3240  0832  34D4               	retlw	low _I2C2_DO_SEND_ADR_READ
  3241  0833  340E               	retlw	high _I2C2_DO_SEND_ADR_READ
  3242  0834  34C4               	retlw	low _I2C2_DO_SEND_ADR_WRITE
  3243  0835  340E               	retlw	high _I2C2_DO_SEND_ADR_WRITE
  3244  0836  34A5               	retlw	low _I2C2_DO_TX
  3245  0837  3402               	retlw	high _I2C2_DO_TX
  3246  0838  345F               	retlw	low _I2C2_DO_RX
  3247  0839  3402               	retlw	high _I2C2_DO_RX
  3248  083A  34BD               	retlw	low _I2C2_DO_RCEN
  3249  083B  340E               	retlw	high _I2C2_DO_RCEN
  3250  083C  341B               	retlw	low _I2C2_DO_TX_EMPTY
  3251  083D  3401               	retlw	high _I2C2_DO_TX_EMPTY
  3252  083E  3466               	retlw	low _I2C2_DO_SEND_RESTART_READ
  3253  083F  340E               	retlw	high _I2C2_DO_SEND_RESTART_READ
  3254  0840  346B               	retlw	low _I2C2_DO_SEND_RESTART_WRITE
  3255  0841  340E               	retlw	high _I2C2_DO_SEND_RESTART_WRITE
  3256  0842  3470               	retlw	low _I2C2_DO_SEND_RESTART
  3257  0843  340E               	retlw	high _I2C2_DO_SEND_RESTART
  3258  0844  3475               	retlw	low _I2C2_DO_SEND_STOP
  3259  0845  340E               	retlw	high _I2C2_DO_SEND_STOP
  3260  0846  347A               	retlw	low _I2C2_DO_RX_ACK
  3261  0847  340E               	retlw	high _I2C2_DO_RX_ACK
  3262  0848  347F               	retlw	low _I2C2_DO_RX_NACK_STOP
  3263  0849  340E               	retlw	high _I2C2_DO_RX_NACK_STOP
  3264  084A  3484               	retlw	low _I2C2_DO_RX_NACK_RESTART
  3265  084B  340E               	retlw	high _I2C2_DO_RX_NACK_RESTART
  3266  084C  3489               	retlw	low _I2C2_DO_RESET
  3267  084D  340E               	retlw	high _I2C2_DO_RESET
  3268  084E  34C1               	retlw	low _I2C2_DO_ADDRESS_NACK
  3269  084F  3400               	retlw	high _I2C2_DO_ADDRESS_NACK
  3270  0850                     __end_of_i2c2_fsmStateTable:
  3271                           
  3272                           	psect	nvBANK1
  3273  00E6                     __pnvBANK1:
  3274  00E6                     _EUSART_ErrorHandler:
  3275  00E6                     	ds	2
  3276  00E8                     _EUSART_OverrunErrorHandler:
  3277  00E8                     	ds	2
  3278  00EA                     _EUSART_FramingErrorHandler:
  3279  00EA                     	ds	2
  3280  0016                     _LATAbits	set	22
  3281  0013                     _TRISC	set	19
  3282  0012                     _TRISB	set	18
  3283  0011                     _TRISA	set	17
  3284  0018                     _LATC	set	24
  3285  0017                     _LATB	set	23
  3286  0016                     _LATA	set	22
  3287  011A                     _TX1REG	set	282
  3288  0119                     _RC1REG	set	281
  3289  011D                     _RC1STAbits	set	285
  3290  011E                     _TX1STAbits	set	286
  3291  011C                     _SP1BRGH	set	284
  3292  011B                     _SP1BRGL	set	283
  3293  011E                     _TX1STA	set	286
  3294  011D                     _RC1STA	set	285
  3295  011F                     _BAUD1CON	set	287
  3296  0199                     _SSP2STATbits	set	409
  3297  019B                     _SSP2CON2bits	set	411
  3298  0196                     _SSP2BUF	set	406
  3299  019A                     _SSP2CON1bits	set	410
  3300  0197                     _SSP2ADD	set	407
  3301  019B                     _SSP2CON2	set	411
  3302  019A                     _SSP2CON1	set	410
  3303  0199                     _SSP2STAT	set	409
  3304  0719                     _PIE3bits	set	1817
  3305  070F                     _PIR3bits	set	1807
  3306  079B                     _PMD5	set	1947
  3307  079A                     _PMD4	set	1946
  3308  0799                     _PMD3	set	1945
  3309  0798                     _PMD2	set	1944
  3310  0797                     _PMD1	set	1943
  3311  0796                     _PMD0	set	1942
  3312  0892                     _OSCTUNE	set	2194
  3313  0893                     _OSCFRQ	set	2195
  3314  0891                     _OSCEN	set	2193
  3315  088F                     _OSCCON3	set	2191
  3316  088D                     _OSCCON1	set	2189
  3317  0EC8                     _SSP2CLKPPS	set	3784
  3318  0EC9                     _SSP2DATPPS	set	3785
  3319  0ECB                     _RXPPS	set	3787
  3320  0F24                     _RC4PPS	set	3876
  3321  0F23                     _RC3PPS	set	3875
  3322  0F20                     _RC0PPS	set	3872
  3323  0F68                     _INLVLE	set	3944
  3324  0F52                     _INLVLC	set	3922
  3325  0F47                     _INLVLB	set	3911
  3326  0F3C                     _INLVLA	set	3900
  3327  0F51                     _SLRCONC	set	3921
  3328  0F46                     _SLRCONB	set	3910
  3329  0F3B                     _SLRCONA	set	3899
  3330  0F50                     _ODCONC	set	3920
  3331  0F45                     _ODCONB	set	3909
  3332  0F3A                     _ODCONA	set	3898
  3333  0F4F                     _WPUC	set	3919
  3334  0F39                     _WPUA	set	3897
  3335  0F44                     _WPUB	set	3908
  3336  0F65                     _WPUE	set	3941
  3337  0F38                     _ANSELA	set	3896
  3338  0F43                     _ANSELB	set	3907
  3339  0F4E                     _ANSELC	set	3918
  3340                           
  3341                           	psect	stringtext2
  3342  0800                     __pstringtext2:
  3343  0800                     STR_2:
  3344  0800  3453               	retlw	83	;'S'
  3345  0801  3465               	retlw	101	;'e'
  3346  0802  346E               	retlw	110	;'n'
  3347  0803  3473               	retlw	115	;'s'
  3348  0804  346F               	retlw	111	;'o'
  3349  0805  3472               	retlw	114	;'r'
  3350  0806  3420               	retlw	32	;' '
  3351  0807  3464               	retlw	100	;'d'
  3352  0808  3465               	retlw	101	;'e'
  3353  0809  3420               	retlw	32	;' '
  3354  080A  3474               	retlw	116	;'t'
  3355  080B  3465               	retlw	101	;'e'
  3356  080C  346D               	retlw	109	;'m'
  3357  080D  3470               	retlw	112	;'p'
  3358  080E  3465               	retlw	101	;'e'
  3359  080F  3472               	retlw	114	;'r'
  3360  0810  3461               	retlw	97	;'a'
  3361  0811  3474               	retlw	116	;'t'
  3362  0812  3475               	retlw	117	;'u'
  3363  0813  3472               	retlw	114	;'r'
  3364  0814  3461               	retlw	97	;'a'
  3365  0815  3420               	retlw	32	;' '
  3366  0816  344D               	retlw	77	;'M'
  3367  0817  3443               	retlw	67	;'C'
  3368  0818  3443               	retlw	67	;'C'
  3369  0819  3420               	retlw	32	;' '
  3370  081A  3476               	retlw	118	;'v'
  3371  081B  3432               	retlw	50	;'2'
  3372  081C  340A               	retlw	10
  3373  081D  3420               	retlw	32	;' '
  3374  081E  3425               	retlw	37	;'%'
  3375  081F  3464               	retlw	100	;'d'
  3376  0820  342E               	retlw	46	;'.'
  3377  0821  3425               	retlw	37	;'%'
  3378  0822  3464               	retlw	100	;'d'
  3379  0823  3420               	retlw	32	;' '
  3380  0824  3445               	retlw	69	;'E'
  3381  0825  3478               	retlw	120	;'x'
  3382  0826  3463               	retlw	99	;'c'
  3383  0827  3465               	retlw	101	;'e'
  3384  0828  346C               	retlw	108	;'l'
  3385  0829  3465               	retlw	101	;'e'
  3386  082A  346E               	retlw	110	;'n'
  3387  082B  3474               	retlw	116	;'t'
  3388  082C  3465               	retlw	101	;'e'
  3389  082D  340A               	retlw	10
  3390  082E  340A               	retlw	10
  3391  082F  3400               	retlw	0
  3392                           
  3393                           	psect	stringtext3
  3394  0850                     __pstringtext3:
  3395  0850                     STR_1:
  3396  0850  340D               	retlw	13
  3397  0851  340A               	retlw	10
  3398  0852  344D               	retlw	77	;'M'
  3399  0853  346F               	retlw	111	;'o'
  3400  0854  3464               	retlw	100	;'d'
  3401  0855  3475               	retlw	117	;'u'
  3402  0856  346C               	retlw	108	;'l'
  3403  0857  346F               	retlw	111	;'o'
  3404  0858  3420               	retlw	32	;' '
  3405  0859  3469               	retlw	105	;'i'
  3406  085A  3432               	retlw	50	;'2'
  3407  085B  3463               	retlw	99	;'c'
  3408  085C  3420               	retlw	32	;' '
  3409  085D  3475               	retlw	117	;'u'
  3410  085E  3473               	retlw	115	;'s'
  3411  085F  3461               	retlw	97	;'a'
  3412  0860  346E               	retlw	110	;'n'
  3413  0861  3464               	retlw	100	;'d'
  3414  0862  346F               	retlw	111	;'o'
  3415  0863  3420               	retlw	32	;' '
  3416  0864  344D               	retlw	77	;'M'
  3417  0865  3443               	retlw	67	;'C'
  3418  0866  3443               	retlw	67	;'C'
  3419  0867  3420               	retlw	32	;' '
  3420  0868  3456               	retlw	86	;'V'
  3421  0869  3432               	retlw	50	;'2'
  3422  086A  3420               	retlw	32	;' '
  3423  086B  3458               	retlw	88	;'X'
  3424  086C  3444               	retlw	68	;'D'
  3425  086D  340A               	retlw	10
  3426  086E  340A               	retlw	10
  3427  086F  3400               	retlw	0
  3428                           
  3429                           	psect	stringtext4
  3430  0000                     __pstringtext4:
  3431                           
  3432                           	psect	cinit
  3433  07F5                     start_initialization:	
  3434                           ; #config settings
  3435                           
  3436  07F5                     __initialization:
  3437                           
  3438                           ; Clear objects allocated to BANK1
  3439  07F5  30A0               	movlw	low __pbssBANK1
  3440  07F6  0084               	movwf	4
  3441  07F7  3000               	movlw	high __pbssBANK1
  3442  07F8  0085               	movwf	5
  3443  07F9  3046               	movlw	70
  3444  07FA  318E  26B7  3187   	fcall	clear_ram0
  3445  07FD                     end_of_initialization:	
  3446                           ;End of C runtime variable initialization code
  3447                           
  3448  07FD                     __end_of__initialization:
  3449  07FD  0020               	movlb	0
  3450  07FE  3183  2B53         	ljmp	_main	;jump to C main() function
  3451                           
  3452                           	psect	bssBANK1
  3453  00A0                     __pbssBANK1:
  3454  00A0                     _I2C2_Status:
  3455  00A0                     	ds	29
  3456  00BD                     _nout:
  3457  00BD                     	ds	2
  3458  00BF                     _width:
  3459  00BF                     	ds	2
  3460  00C1                     _prec:
  3461  00C1                     	ds	2
  3462  00C3                     _flags:
  3463  00C3                     	ds	2
  3464  00C5                     _eusartRxLastError:
  3465  00C5                     	ds	1
  3466  00C6                     _dbuf:
  3467  00C6                     	ds	32
  3468                           
  3469                           	psect	clrtext
  3470  0EB7                     clear_ram0:	
  3471                           ;	Called with FSR0 containing the base address, and
  3472                           ;	WREG with the size to clear
  3473                           
  3474  0EB7  0064               	clrwdt	;clear the watchdog before getting into this loop
  3475  0EB8                     clrloop0:
  3476  0EB8  0180               	clrf	0	;clear RAM location pointed to by FSR
  3477  0EB9  3101               	addfsr 0,1
  3478  0EBA  0B89               	decfsz	9,f	;Have we reached the end of clearing yet?
  3479  0EBB  2EB8               	goto	clrloop0	;have we reached the end yet?
  3480  0EBC  3400               	retlw	0	;all done for this memory range, return
  3481                           
  3482                           	psect	cstackBANK1
  3483  00EC                     __pcstackBANK1:
  3484  00EC                     ??_main:
  3485                           
  3486                           ; 1 bytes @ 0x0
  3487  00EC                     	ds	4
  3488                           
  3489                           	psect	cstackCOMMON
  3490  0070                     __pcstackCOMMON:
  3491  0070                     ?_EUSART_SetFramingErrorHandler:
  3492  0070                     ?_EUSART_SetOverrunErrorHandler:	
  3493                           ; 1 bytes @ 0x0
  3494                           
  3495  0070                     ?_EUSART_SetErrorHandler:	
  3496                           ; 1 bytes @ 0x0
  3497                           
  3498  0070                     ?_PMD_Initialize:	
  3499                           ; 1 bytes @ 0x0
  3500                           
  3501  0070                     ??_PMD_Initialize:	
  3502                           ; 1 bytes @ 0x0
  3503                           
  3504  0070                     ?_I2C2_Initialize:	
  3505                           ; 1 bytes @ 0x0
  3506                           
  3507  0070                     ??_I2C2_Initialize:	
  3508                           ; 1 bytes @ 0x0
  3509                           
  3510  0070                     ?_OSCILLATOR_Initialize:	
  3511                           ; 1 bytes @ 0x0
  3512                           
  3513  0070                     ??_OSCILLATOR_Initialize:	
  3514                           ; 1 bytes @ 0x0
  3515                           
  3516  0070                     ?_I2C2_Open:	
  3517                           ; 1 bytes @ 0x0
  3518                           
  3519  0070                     ??_I2C2_Open:	
  3520                           ; 1 bytes @ 0x0
  3521                           
  3522  0070                     ?_I2C2_SetBuffer:	
  3523                           ; 1 bytes @ 0x0
  3524                           
  3525  0070                     ?_I2C2_MasterWrite:	
  3526                           ; 1 bytes @ 0x0
  3527                           
  3528  0070                     ?_I2C2_Close:	
  3529                           ; 1 bytes @ 0x0
  3530                           
  3531  0070                     ??_I2C2_Close:	
  3532                           ; 1 bytes @ 0x0
  3533                           
  3534  0070                     ?_I2C2_DO_IDLE:	
  3535                           ; 1 bytes @ 0x0
  3536                           
  3537  0070                     ??_I2C2_DO_IDLE:	
  3538                           ; 1 bytes @ 0x0
  3539                           
  3540  0070                     ?_I2C2_DO_SEND_ADR_READ:	
  3541                           ; 1 bytes @ 0x0
  3542                           
  3543  0070                     ??_I2C2_DO_SEND_ADR_READ:	
  3544                           ; 1 bytes @ 0x0
  3545                           
  3546  0070                     ?_I2C2_DO_SEND_ADR_WRITE:	
  3547                           ; 1 bytes @ 0x0
  3548                           
  3549  0070                     ?_I2C2_DO_TX:	
  3550                           ; 1 bytes @ 0x0
  3551                           
  3552  0070                     ?_I2C2_DO_RX:	
  3553                           ; 1 bytes @ 0x0
  3554                           
  3555  0070                     ?_I2C2_DO_RCEN:	
  3556                           ; 1 bytes @ 0x0
  3557                           
  3558  0070                     ??_I2C2_DO_RCEN:	
  3559                           ; 1 bytes @ 0x0
  3560                           
  3561  0070                     ?_I2C2_DO_TX_EMPTY:	
  3562                           ; 1 bytes @ 0x0
  3563                           
  3564  0070                     ?_I2C2_DO_SEND_RESTART_READ:	
  3565                           ; 1 bytes @ 0x0
  3566                           
  3567  0070                     ??_I2C2_DO_SEND_RESTART_READ:	
  3568                           ; 1 bytes @ 0x0
  3569                           
  3570  0070                     ?_I2C2_DO_SEND_RESTART_WRITE:	
  3571                           ; 1 bytes @ 0x0
  3572                           
  3573  0070                     ??_I2C2_DO_SEND_RESTART_WRITE:	
  3574                           ; 1 bytes @ 0x0
  3575                           
  3576  0070                     ?_I2C2_DO_SEND_RESTART:	
  3577                           ; 1 bytes @ 0x0
  3578                           
  3579  0070                     ??_I2C2_DO_SEND_RESTART:	
  3580                           ; 1 bytes @ 0x0
  3581                           
  3582  0070                     ?_I2C2_DO_SEND_STOP:	
  3583                           ; 1 bytes @ 0x0
  3584                           
  3585  0070                     ??_I2C2_DO_SEND_STOP:	
  3586                           ; 1 bytes @ 0x0
  3587                           
  3588  0070                     ?_I2C2_DO_RX_ACK:	
  3589                           ; 1 bytes @ 0x0
  3590                           
  3591  0070                     ??_I2C2_DO_RX_ACK:	
  3592                           ; 1 bytes @ 0x0
  3593                           
  3594  0070                     ?_I2C2_DO_RX_NACK_STOP:	
  3595                           ; 1 bytes @ 0x0
  3596                           
  3597  0070                     ??_I2C2_DO_RX_NACK_STOP:	
  3598                           ; 1 bytes @ 0x0
  3599                           
  3600  0070                     ?_I2C2_DO_RX_NACK_RESTART:	
  3601                           ; 1 bytes @ 0x0
  3602                           
  3603  0070                     ??_I2C2_DO_RX_NACK_RESTART:	
  3604                           ; 1 bytes @ 0x0
  3605                           
  3606  0070                     ?_I2C2_DO_RESET:	
  3607                           ; 1 bytes @ 0x0
  3608                           
  3609  0070                     ??_I2C2_DO_RESET:	
  3610                           ; 1 bytes @ 0x0
  3611                           
  3612  0070                     ?_I2C2_DO_ADDRESS_NACK:	
  3613                           ; 1 bytes @ 0x0
  3614                           
  3615  0070                     ?_I2C2_MasterClearIrq:	
  3616                           ; 1 bytes @ 0x0
  3617                           
  3618  0070                     ??_I2C2_MasterClearIrq:	
  3619                           ; 1 bytes @ 0x0
  3620                           
  3621  0070                     ?_I2C2_MasterOpen:	
  3622                           ; 1 bytes @ 0x0
  3623                           
  3624  0070                     ??_I2C2_MasterOpen:	
  3625                           ; 1 bytes @ 0x0
  3626                           
  3627  0070                     ?_I2C2_MasterDisableIrq:	
  3628                           ; 1 bytes @ 0x0
  3629                           
  3630  0070                     ??_I2C2_MasterDisableIrq:	
  3631                           ; 1 bytes @ 0x0
  3632                           
  3633  0070                     ?_I2C2_MasterClose:	
  3634                           ; 1 bytes @ 0x0
  3635                           
  3636  0070                     ??_I2C2_MasterClose:	
  3637                           ; 1 bytes @ 0x0
  3638                           
  3639  0070                     ?_I2C2_MasterStart:	
  3640                           ; 1 bytes @ 0x0
  3641                           
  3642  0070                     ??_I2C2_MasterStart:	
  3643                           ; 1 bytes @ 0x0
  3644                           
  3645  0070                     ?_I2C2_Poller:	
  3646                           ; 1 bytes @ 0x0
  3647                           
  3648  0070                     ?_I2C2_SetCallback:	
  3649                           ; 1 bytes @ 0x0
  3650                           
  3651  0070                     ?_I2C2_MasterWaitForEvent:	
  3652                           ; 1 bytes @ 0x0
  3653                           
  3654  0070                     ??_I2C2_MasterWaitForEvent:	
  3655                           ; 1 bytes @ 0x0
  3656                           
  3657  0070                     ?_I2C2_MasterFsm:	
  3658                           ; 1 bytes @ 0x0
  3659                           
  3660  0070                     ?_I2C2_MasterIsNack:	
  3661                           ; 1 bytes @ 0x0
  3662                           
  3663  0070                     ??_I2C2_MasterIsNack:	
  3664                           ; 1 bytes @ 0x0
  3665                           
  3666  0070                     ?_I2C2_MasterSendTxData:	
  3667                           ; 1 bytes @ 0x0
  3668                           
  3669  0070                     ??_I2C2_MasterSendTxData:	
  3670                           ; 1 bytes @ 0x0
  3671                           
  3672  0070                     ?_I2C2_MasterGetRxData:	
  3673                           ; 1 bytes @ 0x0
  3674                           
  3675  0070                     ??_I2C2_MasterGetRxData:	
  3676                           ; 1 bytes @ 0x0
  3677                           
  3678  0070                     ?_I2C2_MasterSendAck:	
  3679                           ; 1 bytes @ 0x0
  3680                           
  3681  0070                     ??_I2C2_MasterSendAck:	
  3682                           ; 1 bytes @ 0x0
  3683                           
  3684  0070                     ?_I2C2_MasterStartRx:	
  3685                           ; 1 bytes @ 0x0
  3686                           
  3687  0070                     ??_I2C2_MasterStartRx:	
  3688                           ; 1 bytes @ 0x0
  3689                           
  3690  0070                     ?_I2C2_MasterSetIrq:	
  3691                           ; 1 bytes @ 0x0
  3692                           
  3693  0070                     ??_I2C2_MasterSetIrq:	
  3694                           ; 1 bytes @ 0x0
  3695                           
  3696  0070                     ?_I2C2_MasterEnableRestart:	
  3697                           ; 1 bytes @ 0x0
  3698                           
  3699  0070                     ??_I2C2_MasterEnableRestart:	
  3700                           ; 1 bytes @ 0x0
  3701                           
  3702  0070                     ?_I2C2_MasterStop:	
  3703                           ; 1 bytes @ 0x0
  3704                           
  3705  0070                     ??_I2C2_MasterStop:	
  3706                           ; 1 bytes @ 0x0
  3707                           
  3708  0070                     ?_I2C2_MasterSendNack:	
  3709                           ; 1 bytes @ 0x0
  3710                           
  3711  0070                     ??_I2C2_MasterSendNack:	
  3712                           ; 1 bytes @ 0x0
  3713                           
  3714  0070                     ?_EUSART_Initialize:	
  3715                           ; 1 bytes @ 0x0
  3716                           
  3717  0070                     ?_EUSART_Write:	
  3718                           ; 1 bytes @ 0x0
  3719                           
  3720  0070                     ??_EUSART_Write:	
  3721                           ; 1 bytes @ 0x0
  3722                           
  3723  0070                     ?_putch:	
  3724                           ; 1 bytes @ 0x0
  3725                           
  3726  0070                     ?_PIN_MANAGER_Initialize:	
  3727                           ; 1 bytes @ 0x0
  3728                           
  3729  0070                     ??_PIN_MANAGER_Initialize:	
  3730                           ; 1 bytes @ 0x0
  3731                           
  3732  0070                     ?_SYSTEM_Initialize:	
  3733                           ; 1 bytes @ 0x0
  3734                           
  3735  0070                     ?_main:	
  3736                           ; 1 bytes @ 0x0
  3737                           
  3738  0070                     ?_I2C2_MasterOperation:	
  3739                           ; 1 bytes @ 0x0
  3740                           
  3741  0070                     ??___aodiv:	
  3742                           ; 1 bytes @ 0x0
  3743                           
  3744  0070                     ??___aomod:	
  3745                           ; 1 bytes @ 0x0
  3746                           
  3747  0070                     ?_strlen:	
  3748                           ; 1 bytes @ 0x0
  3749                           
  3750  0070                     ?___wmul:	
  3751                           ; 2 bytes @ 0x0
  3752                           
  3753  0070                     EUSART_Write@txData:	
  3754                           ; 2 bytes @ 0x0
  3755                           
  3756  0070                     I2C2_MasterSendTxData@data:	
  3757                           ; 1 bytes @ 0x0
  3758                           
  3759  0070                     EUSART_SetFramingErrorHandler@interruptHandler:	
  3760                           ; 1 bytes @ 0x0
  3761                           
  3762  0070                     EUSART_SetOverrunErrorHandler@interruptHandler:	
  3763                           ; 2 bytes @ 0x0
  3764                           
  3765  0070                     EUSART_SetErrorHandler@interruptHandler:	
  3766                           ; 2 bytes @ 0x0
  3767                           
  3768  0070                     I2C2_SetBuffer@bufferSize:	
  3769                           ; 2 bytes @ 0x0
  3770                           
  3771  0070                     I2C2_SetCallback@cb:	
  3772                           ; 2 bytes @ 0x0
  3773                           
  3774  0070                     ___wmul@multiplier:	
  3775                           ; 2 bytes @ 0x0
  3776                           
  3777                           
  3778                           ; 2 bytes @ 0x0
  3779  0070                     	ds	1
  3780  0071                     ??_I2C2_DO_SEND_ADR_WRITE:
  3781  0071                     ??_putch:	
  3782                           ; 1 bytes @ 0x1
  3783                           
  3784  0071                     putch@txData:	
  3785                           ; 1 bytes @ 0x1
  3786                           
  3787  0071                     I2C2_Open@address:	
  3788                           ; 1 bytes @ 0x1
  3789                           
  3790  0071                     I2C2_Close@returnValue:	
  3791                           ; 1 bytes @ 0x1
  3792                           
  3793  0071                     ___aodiv@counter:	
  3794                           ; 1 bytes @ 0x1
  3795                           
  3796  0071                     ___aomod@counter:	
  3797                           ; 1 bytes @ 0x1
  3798                           
  3799                           
  3800                           ; 1 bytes @ 0x1
  3801  0071                     	ds	1
  3802  0072                     ??_EUSART_SetFramingErrorHandler:
  3803  0072                     ??_EUSART_SetOverrunErrorHandler:	
  3804                           ; 1 bytes @ 0x2
  3805                           
  3806  0072                     ??_EUSART_SetErrorHandler:	
  3807                           ; 1 bytes @ 0x2
  3808                           
  3809  0072                     ??_I2C2_SetBuffer:	
  3810                           ; 1 bytes @ 0x2
  3811                           
  3812  0072                     ??_strlen:	
  3813                           ; 1 bytes @ 0x2
  3814                           
  3815  0072                     ??_EUSART_Initialize:	
  3816                           ; 1 bytes @ 0x2
  3817                           
  3818  0072                     ??_SYSTEM_Initialize:	
  3819                           ; 1 bytes @ 0x2
  3820                           
  3821  0072                     ?_fputc:	
  3822                           ; 1 bytes @ 0x2
  3823                           
  3824  0072                     I2C2_Open@returnValue:	
  3825                           ; 2 bytes @ 0x2
  3826                           
  3827  0072                     I2C2_SetCallback@ptr:	
  3828                           ; 1 bytes @ 0x2
  3829                           
  3830  0072                     ___aodiv@sign:	
  3831                           ; 1 bytes @ 0x2
  3832                           
  3833  0072                     ___aomod@sign:	
  3834                           ; 1 bytes @ 0x2
  3835                           
  3836  0072                     ___wmul@multiplicand:	
  3837                           ; 1 bytes @ 0x2
  3838                           
  3839  0072                     fputc@c:	
  3840                           ; 2 bytes @ 0x2
  3841                           
  3842                           
  3843                           ; 2 bytes @ 0x2
  3844  0072                     	ds	1
  3845  0073                     ??_I2C2_SetCallback:
  3846  0073                     ?_abs:	
  3847                           ; 1 bytes @ 0x3
  3848                           
  3849  0073                     I2C2_SetBuffer@buffer:	
  3850                           ; 2 bytes @ 0x3
  3851                           
  3852  0073                     strlen@a:	
  3853                           ; 1 bytes @ 0x3
  3854                           
  3855  0073                     abs@a:	
  3856                           ; 1 bytes @ 0x3
  3857                           
  3858  0073                     ___aodiv@quotient:	
  3859                           ; 2 bytes @ 0x3
  3860                           
  3861                           
  3862                           ; 8 bytes @ 0x3
  3863  0073                     	ds	1
  3864  0074                     ??___wmul:
  3865  0074                     I2C2_SetCallback@idx:	
  3866                           ; 1 bytes @ 0x4
  3867                           
  3868  0074                     fputc@fp:	
  3869                           ; 1 bytes @ 0x4
  3870                           
  3871  0074                     strlen@s:	
  3872                           ; 1 bytes @ 0x4
  3873                           
  3874  0074                     ___wmul@product:	
  3875                           ; 1 bytes @ 0x4
  3876                           
  3877                           
  3878                           ; 2 bytes @ 0x4
  3879  0074                     	ds	1
  3880  0075                     ?_I2C2_SetDataCompleteCallback:
  3881  0075                     ?_I2C2_SetAddressNackCallback:	
  3882                           ; 1 bytes @ 0x5
  3883                           
  3884  0075                     ??_fputc:	
  3885                           ; 1 bytes @ 0x5
  3886                           
  3887  0075                     ??_abs:	
  3888                           ; 1 bytes @ 0x5
  3889                           
  3890  0075                     I2C2_SetDataCompleteCallback@cb:	
  3891                           ; 1 bytes @ 0x5
  3892                           
  3893  0075                     I2C2_SetAddressNackCallback@cb:	
  3894                           ; 2 bytes @ 0x5
  3895                           
  3896                           
  3897                           ; 2 bytes @ 0x5
  3898  0075                     	ds	2
  3899  0077                     I2C2_SetDataCompleteCallback@ptr:
  3900  0077                     I2C2_SetAddressNackCallback@ptr:	
  3901                           ; 1 bytes @ 0x7
  3902                           
  3903                           
  3904                           ; 1 bytes @ 0x7
  3905  0077                     	ds	1
  3906  0078                     ??_I2C2_SetDataCompleteCallback:
  3907  0078                     ??_I2C2_SetAddressNackCallback:	
  3908                           ; 1 bytes @ 0x8
  3909                           
  3910                           
  3911                           ; 1 bytes @ 0x8
  3912  0078                     	ds	1
  3913  0079                     ?_rd1RegCompleteHandler:
  3914  0079                     ?_rd2RegCompleteHandler:	
  3915                           ; 1 bytes @ 0x9
  3916                           
  3917  0079                     ?_wr1RegCompleteHandler:	
  3918                           ; 1 bytes @ 0x9
  3919                           
  3920  0079                     ?_wr2RegCompleteHandler:	
  3921                           ; 1 bytes @ 0x9
  3922                           
  3923  0079                     ?_rdBlkRegCompleteHandler:	
  3924                           ; 1 bytes @ 0x9
  3925                           
  3926  0079                     ?_I2C2_CallbackReturnStop:	
  3927                           ; 1 bytes @ 0x9
  3928                           
  3929  0079                     ?_I2C2_CallbackReturnReset:	
  3930                           ; 1 bytes @ 0x9
  3931                           
  3932  0079                     rd1RegCompleteHandler@ptr:	
  3933                           ; 1 bytes @ 0x9
  3934                           
  3935  0079                     rd2RegCompleteHandler@ptr:	
  3936                           ; 1 bytes @ 0x9
  3937                           
  3938  0079                     wr1RegCompleteHandler@ptr:	
  3939                           ; 1 bytes @ 0x9
  3940                           
  3941  0079                     wr2RegCompleteHandler@ptr:	
  3942                           ; 1 bytes @ 0x9
  3943                           
  3944  0079                     rdBlkRegCompleteHandler@ptr:	
  3945                           ; 1 bytes @ 0x9
  3946                           
  3947  0079                     I2C2_CallbackReturnStop@funPtr:	
  3948                           ; 1 bytes @ 0x9
  3949                           
  3950  0079                     I2C2_CallbackReturnReset@funPtr:	
  3951                           ; 1 bytes @ 0x9
  3952                           
  3953                           
  3954                           ; 1 bytes @ 0x9
  3955  0079                     	ds	1
  3956  007A                     ??_rd1RegCompleteHandler:
  3957  007A                     ??_rd2RegCompleteHandler:	
  3958                           ; 1 bytes @ 0xA
  3959                           
  3960  007A                     ??_wr1RegCompleteHandler:	
  3961                           ; 1 bytes @ 0xA
  3962                           
  3963  007A                     ??_wr2RegCompleteHandler:	
  3964                           ; 1 bytes @ 0xA
  3965                           
  3966  007A                     ??_rdBlkRegCompleteHandler:	
  3967                           ; 1 bytes @ 0xA
  3968                           
  3969  007A                     ??_I2C2_DO_TX:	
  3970                           ; 1 bytes @ 0xA
  3971                           
  3972  007A                     ??_I2C2_DO_RX:	
  3973                           ; 1 bytes @ 0xA
  3974                           
  3975  007A                     ??_I2C2_DO_TX_EMPTY:	
  3976                           ; 1 bytes @ 0xA
  3977                           
  3978  007A                     ??_I2C2_DO_ADDRESS_NACK:	
  3979                           ; 1 bytes @ 0xA
  3980                           
  3981  007A                     ??_I2C2_CallbackReturnStop:	
  3982                           ; 1 bytes @ 0xA
  3983                           
  3984  007A                     ??_I2C2_CallbackReturnReset:	
  3985                           ; 1 bytes @ 0xA
  3986                           
  3987  007A                     ?_fputs:	
  3988                           ; 1 bytes @ 0xA
  3989                           
  3990  007A                     fputs@fp:	
  3991                           ; 2 bytes @ 0xA
  3992                           
  3993                           
  3994                           ; 1 bytes @ 0xA
  3995  007A                     	ds	1
  3996  007B                     ??_fputs:
  3997                           
  3998                           ; 1 bytes @ 0xB
  3999  007B                     	ds	2
  4000  007D                     ??_I2C2_Poller:
  4001  007D                     ??_I2C2_MasterOperation:	
  4002                           ; 1 bytes @ 0xD
  4003                           
  4004                           
  4005                           ; 1 bytes @ 0xD
  4006  007D                     	ds	1
  4007  007E                     ??_I2C2_MasterWrite:
  4008                           
  4009                           	psect	cstackBANK0
  4010  0020                     __pcstackBANK0:	
  4011                           ; 1 bytes @ 0xE
  4012                           
  4013  0020                     ??_I2C2_MasterFsm:
  4014  0020                     ?___aodiv:	
  4015                           ; 1 bytes @ 0x0
  4016                           
  4017  0020                     ?___aomod:	
  4018                           ; 8 bytes @ 0x0
  4019                           
  4020  0020                     fputs@c:	
  4021                           ; 8 bytes @ 0x0
  4022                           
  4023  0020                     ___aodiv@divisor:	
  4024                           ; 1 bytes @ 0x0
  4025                           
  4026  0020                     ___aomod@divisor:	
  4027                           ; 8 bytes @ 0x0
  4028                           
  4029                           
  4030                           ; 8 bytes @ 0x0
  4031  0020                     	ds	1
  4032  0021                     fputs@i:
  4033                           
  4034                           ; 2 bytes @ 0x1
  4035  0021                     	ds	2
  4036  0023                     I2C2_MasterOperation@read:
  4037  0023                     fputs@s:	
  4038                           ; 1 bytes @ 0x3
  4039                           
  4040                           
  4041                           ; 1 bytes @ 0x3
  4042  0023                     	ds	1
  4043  0024                     ?_pad:
  4044  0024                     I2C2_MasterOperation@returnValue:	
  4045                           ; 2 bytes @ 0x4
  4046                           
  4047  0024                     pad@buf:	
  4048                           ; 1 bytes @ 0x4
  4049                           
  4050                           
  4051                           ; 1 bytes @ 0x4
  4052  0024                     	ds	1
  4053  0025                     ?_I2C2_Read1ByteRegister:
  4054  0025                     I2C2_Read1ByteRegister@reg:	
  4055                           ; 1 bytes @ 0x5
  4056                           
  4057  0025                     pad@p:	
  4058                           ; 1 bytes @ 0x5
  4059                           
  4060                           
  4061                           ; 2 bytes @ 0x5
  4062  0025                     	ds	1
  4063  0026                     ??_I2C2_Read1ByteRegister:
  4064                           
  4065                           ; 1 bytes @ 0x6
  4066  0026                     	ds	1
  4067  0027                     ??_pad:
  4068  0027                     I2C2_Read1ByteRegister@address:	
  4069                           ; 1 bytes @ 0x7
  4070                           
  4071                           
  4072                           ; 1 bytes @ 0x7
  4073  0027                     	ds	1
  4074  0028                     I2C2_Read1ByteRegister@returnValue:
  4075  0028                     pad@i:	
  4076                           ; 1 bytes @ 0x8
  4077                           
  4078  0028                     ___aodiv@dividend:	
  4079                           ; 2 bytes @ 0x8
  4080                           
  4081  0028                     ___aomod@dividend:	
  4082                           ; 8 bytes @ 0x8
  4083                           
  4084                           
  4085                           ; 8 bytes @ 0x8
  4086  0028                     	ds	2
  4087  002A                     pad@w:
  4088                           
  4089                           ; 2 bytes @ 0xA
  4090  002A                     	ds	2
  4091  002C                     pad@fp:
  4092                           
  4093                           ; 1 bytes @ 0xC
  4094  002C                     	ds	4
  4095  0030                     ?_dtoa:
  4096  0030                     dtoa@d:	
  4097                           ; 2 bytes @ 0x10
  4098                           
  4099                           
  4100                           ; 8 bytes @ 0x10
  4101  0030                     	ds	8
  4102  0038                     ??_dtoa:
  4103                           
  4104                           ; 1 bytes @ 0x18
  4105  0038                     	ds	3
  4106  003B                     _dtoa$1724:
  4107                           
  4108                           ; 2 bytes @ 0x1B
  4109  003B                     	ds	2
  4110  003D                     dtoa@p:
  4111                           
  4112                           ; 2 bytes @ 0x1D
  4113  003D                     	ds	2
  4114  003F                     dtoa@fp:
  4115                           
  4116                           ; 1 bytes @ 0x1F
  4117  003F                     	ds	1
  4118  0040                     dtoa@w:
  4119                           
  4120                           ; 2 bytes @ 0x20
  4121  0040                     	ds	2
  4122  0042                     dtoa@s:
  4123                           
  4124                           ; 2 bytes @ 0x22
  4125  0042                     	ds	2
  4126  0044                     dtoa@n:
  4127                           
  4128                           ; 8 bytes @ 0x24
  4129  0044                     	ds	8
  4130  004C                     dtoa@i:
  4131                           
  4132                           ; 2 bytes @ 0x2C
  4133  004C                     	ds	2
  4134  004E                     ?_vfpfcnvrt:
  4135  004E                     vfpfcnvrt@fmt:	
  4136                           ; 2 bytes @ 0x2E
  4137                           
  4138                           
  4139                           ; 1 bytes @ 0x2E
  4140  004E                     	ds	1
  4141  004F                     vfpfcnvrt@ap:
  4142                           
  4143                           ; 1 bytes @ 0x2F
  4144  004F                     	ds	1
  4145  0050                     ??_vfpfcnvrt:
  4146                           
  4147                           ; 1 bytes @ 0x30
  4148  0050                     	ds	5
  4149  0055                     vfpfcnvrt@ll:
  4150                           
  4151                           ; 8 bytes @ 0x35
  4152  0055                     	ds	8
  4153  005D                     vfpfcnvrt@fp:
  4154                           
  4155                           ; 1 bytes @ 0x3D
  4156  005D                     	ds	1
  4157  005E                     ?_vfprintf:
  4158  005E                     vfprintf@fmt:	
  4159                           ; 2 bytes @ 0x3E
  4160                           
  4161                           
  4162                           ; 2 bytes @ 0x3E
  4163  005E                     	ds	2
  4164  0060                     vfprintf@ap:
  4165                           
  4166                           ; 1 bytes @ 0x40
  4167  0060                     	ds	1
  4168  0061                     ??_vfprintf:
  4169                           
  4170                           ; 1 bytes @ 0x41
  4171  0061                     	ds	2
  4172  0063                     vfprintf@fp:
  4173                           
  4174                           ; 1 bytes @ 0x43
  4175  0063                     	ds	1
  4176  0064                     vfprintf@cfmt:
  4177                           
  4178                           ; 2 bytes @ 0x44
  4179  0064                     	ds	2
  4180  0066                     ?_printf:
  4181  0066                     printf@fmt:	
  4182                           ; 2 bytes @ 0x46
  4183                           
  4184                           
  4185                           ; 2 bytes @ 0x46
  4186  0066                     	ds	6
  4187  006C                     ??_printf:
  4188                           
  4189                           ; 1 bytes @ 0x4C
  4190  006C                     	ds	1
  4191  006D                     printf@ap:
  4192                           
  4193                           ; 1 bytes @ 0x4D
  4194  006D                     	ds	1
  4195  006E                     main@r1:
  4196                           
  4197                           ; 1 bytes @ 0x4E
  4198  006E                     	ds	1
  4199  006F                     main@r2:
  4200                           
  4201                           ; 1 bytes @ 0x4F
  4202  006F                     	ds	1
  4203                           
  4204                           	psect	maintext
  4205  0353                     __pmaintext:	
  4206 ;;
  4207 ;;Main: autosize = 0, tempsize = 4, incstack = 0, save=0
  4208 ;;
  4209 ;; *************** function _main *****************
  4210 ;; Defined at:
  4211 ;;		line 12 in file "main.c"
  4212 ;; Parameters:    Size  Location     Type
  4213 ;;		None
  4214 ;; Auto vars:     Size  Location     Type
  4215 ;;  r2              1   79[BANK0 ] unsigned char 
  4216 ;;  r1              1   78[BANK0 ] unsigned char 
  4217 ;; Return value:  Size  Location     Type
  4218 ;;                  1    wreg      void 
  4219 ;; Registers used:
  4220 ;;		wreg, fsr0l, fsr0h, fsr1l, fsr1h, status,2, status,0, pclath, cstack
  4221 ;; Tracked objects:
  4222 ;;		On entry : B1F/0
  4223 ;;		On exit  : 0/0
  4224 ;;		Unchanged: 0/0
  4225 ;; Data sizes:     COMMON   BANK0   BANK1   BANK2   BANK3   BANK4   BANK5   BANK6   BANK7   BANK8   BANK9  BANK10  BANK1
      +1  BANK12
  4226 ;;      Params:         0       0       0       0       0       0       0       0       0       0       0       0       
      +0       0
  4227 ;;      Locals:         0       2       0       0       0       0       0       0       0       0       0       0       
      +0       0
  4228 ;;      Temps:          0       0       4       0       0       0       0       0       0       0       0       0       
      +0       0
  4229 ;;      Totals:         0       2       4       0       0       0       0       0       0       0       0       0       
      +0       0
  4230 ;;Total ram usage:        6 bytes
  4231 ;; Hardware stack levels required when called: 9
  4232 ;; This function calls:
  4233 ;;		_I2C2_Read1ByteRegister
  4234 ;;		_SYSTEM_Initialize
  4235 ;;		___wmul
  4236 ;;		_printf
  4237 ;; This function is called by:
  4238 ;;		Startup code after reset
  4239 ;; This function uses a non-reentrant model
  4240 ;;
  4241                           
  4242                           
  4243                           ;psect for function _main
  4244  0353                     _main:
  4245  0353                     l3182:	
  4246                           ;incstack = 0
  4247                           ; Regs used in _main: [wreg-fsr1h+status,2+status,0+pclath+cstack]
  4248                           
  4249  0353  0020               	movlb	0	; select bank0
  4250  0354  01EF               	clrf	main@r2
  4251  0355                     l3184:
  4252                           
  4253                           ;main.c: 17:     SYSTEM_Initialize();
  4254  0355  318F  2733  3183   	fcall	_SYSTEM_Initialize
  4255  0358                     l3186:
  4256                           
  4257                           ;main.c: 34:     printf("\r\nModulo i2c usando MCC V2 XD\n\n");
  4258  0358  3050               	movlw	low (STR_1| (0+32768))
  4259  0359  0020               	movlb	0	; select bank0
  4260  035A  00E6               	movwf	printf@fmt
  4261  035B  3088               	movlw	high (STR_1| (0+32768))
  4262  035C  00E7               	movwf	printf@fmt+1
  4263  035D  318F  2787  3183   	fcall	_printf
  4264  0360                     l3188:
  4265                           
  4266                           ;main.c: 36:     {;main.c: 38:         r1 = I2C2_Read1ByteRegister(0b00111000,0);
  4267  0360  0020               	movlb	0	; select bank0
  4268  0361  01A5               	clrf	I2C2_Read1ByteRegister@reg
  4269  0362  3038               	movlw	56
  4270  0363  3181  21B0  3183   	fcall	_I2C2_Read1ByteRegister
  4271  0366  0021               	movlb	1	; select bank1
  4272  0367  00EC               	movwf	??_main^(0+128)
  4273  0368  086C               	movf	??_main^(0+128),w
  4274  0369  0020               	movlb	0	; select bank0
  4275  036A  00EE               	movwf	main@r1
  4276  036B                     l3190:
  4277                           
  4278                           ;main.c: 39:         r2 = I2C2_Read1ByteRegister(0b00111000,2);
  4279  036B  3002               	movlw	2
  4280  036C  0021               	movlb	1	; select bank1
  4281  036D  00EC               	movwf	??_main^(0+128)
  4282  036E  086C               	movf	??_main^(0+128),w
  4283  036F  0020               	movlb	0	; select bank0
  4284  0370  00A5               	movwf	I2C2_Read1ByteRegister@reg
  4285  0371  3038               	movlw	56
  4286  0372  3181  21B0  3183   	fcall	_I2C2_Read1ByteRegister
  4287  0375  0021               	movlb	1	; select bank1
  4288  0376  00ED               	movwf	(??_main+1)^(0+128)
  4289  0377  086D               	movf	(??_main+1)^(0+128),w
  4290  0378  0020               	movlb	0	; select bank0
  4291  0379  00EF               	movwf	main@r2
  4292  037A                     l3192:
  4293                           
  4294                           ;main.c: 40:         r2 >>= 6;
  4295  037A  0EEF               	swapf	main@r2,f
  4296  037B  0CEF               	rrf	main@r2,f
  4297  037C  0CEF               	rrf	main@r2,f
  4298  037D  3003               	movlw	3
  4299  037E  05EF               	andwf	main@r2,f
  4300  037F                     l3194:
  4301                           
  4302                           ;main.c: 41:         printf("Sensor de temperatura MCC v2\n %d.%d Excelente\n\n",r1,r2*2
      +                          5);
  4303  037F  3000               	movlw	low (STR_2| (0+32768))
  4304  0380  00E6               	movwf	printf@fmt
  4305  0381  3088               	movlw	high (STR_2| (0+32768))
  4306  0382  00E7               	movwf	printf@fmt+1
  4307  0383  086E               	movf	main@r1,w
  4308  0384  0021               	movlb	1	; select bank1
  4309  0385  00EC               	movwf	??_main^(0+128)
  4310  0386  01ED               	clrf	(??_main^(0+128)+1)
  4311  0387  086C               	movf	??_main^(0+128),w
  4312  0388  0020               	movlb	0	; select bank0
  4313  0389  00E8               	movwf	?_printf+2
  4314  038A  0021               	movlb	1	; select bank1
  4315  038B  086D               	movf	(??_main+1)^(0+128),w
  4316  038C  0020               	movlb	0	; select bank0
  4317  038D  00E9               	movwf	?_printf+3
  4318  038E  086F               	movf	main@r2,w
  4319  038F  0021               	movlb	1	; select bank1
  4320  0390  00EE               	movwf	(??_main+2)^(0+128)
  4321  0391  01EF               	clrf	((??_main+2)^(0+128)+1)
  4322  0392  086E               	movf	(??_main+2)^(0+128),w
  4323  0393  00F0               	movwf	___wmul@multiplier
  4324  0394  086F               	movf	(??_main+3)^(0+128),w
  4325  0395  00F1               	movwf	___wmul@multiplier+1
  4326  0396  3019               	movlw	25
  4327  0397  00F2               	movwf	___wmul@multiplicand
  4328  0398  3000               	movlw	0
  4329  0399  00F3               	movwf	___wmul@multiplicand+1
  4330  039A  3180  200F  3183   	fcall	___wmul
  4331  039D  0871               	movf	?___wmul+1,w
  4332  039E  0020               	movlb	0	; select bank0
  4333  039F  00EB               	movwf	?_printf+5
  4334  03A0  0870               	movf	?___wmul,w
  4335  03A1  00EA               	movwf	?_printf+4
  4336  03A2  318F  2787  3183   	fcall	_printf
  4337  03A5                     l3196:
  4338  03A5  1003               	clrc
  4339  03A6  0020               	movlb	0	; select bank0
  4340  03A7  1C16               	btfss	22,0	;volatile
  4341  03A8  1403               	setc
  4342  03A9  1803               	btfsc	3,0
  4343  03AA  2BAC               	goto	u1701
  4344  03AB  2BAF               	goto	u1700
  4345  03AC                     u1701:
  4346  03AC  0020               	movlb	0	; select bank0
  4347  03AD  1416               	bsf	22,0	;volatile
  4348  03AE  2BB1               	goto	u1714
  4349  03AF                     u1700:
  4350  03AF  0020               	movlb	0	; select bank0
  4351  03B0  1016               	bcf	22,0	;volatile
  4352  03B1                     u1714:
  4353  03B1                     l3198:
  4354                           
  4355                           ;main.c: 43:         _delay((unsigned long)((500)*(8000000/4000.0)));
  4356  03B1  3006               	movlw	6
  4357  03B2  0021               	movlb	1	; select bank1
  4358  03B3  00ED               	movwf	(??_main^(0+128)+1)
  4359  03B4  3013               	movlw	19
  4360  03B5  00EC               	movwf	??_main^(0+128)
  4361  03B6  30AD               	movlw	173
  4362  03B7                     u1857:
  4363  03B7  0B89               	decfsz	9,f
  4364  03B8  2BB7               	goto	u1857
  4365  03B9  0BEC               	decfsz	??_main^(0+128),f
  4366  03BA  2BB7               	goto	u1857
  4367  03BB  0BED               	decfsz	(??_main^(0+128)+1),f
  4368  03BC  2BB7               	goto	u1857
  4369  03BD  3200               	nop2
  4370  03BE  2B60               	goto	l3188
  4371  03BF  3180  2802         	ljmp	start
  4372  03C1                     __end_of_main:
  4373                           
  4374                           	psect	text1
  4375  0F87                     __ptext1:	
  4376 ;; *************** function _printf *****************
  4377 ;; Defined at:
  4378 ;;		line 5 in file "C:\Program Files\Microchip\xc8\v2.32\pic\sources\c99\common\printf.c"
  4379 ;; Parameters:    Size  Location     Type
  4380 ;;  fmt             2   70[BANK0 ] PTR const unsigned char 
  4381 ;;		 -> STR_2(48), STR_1(32), 
  4382 ;; Auto vars:     Size  Location     Type
  4383 ;;  ret             2    0        int 
  4384 ;;  ap              1   77[BANK0 ] PTR void [1]
  4385 ;;		 -> ?_printf(2), 
  4386 ;; Return value:  Size  Location     Type
  4387 ;;                  2   70[BANK0 ] int 
  4388 ;; Registers used:
  4389 ;;		wreg, fsr0l, fsr0h, fsr1l, fsr1h, status,2, status,0, pclath, cstack
  4390 ;; Tracked objects:
  4391 ;;		On entry : 0/0
  4392 ;;		On exit  : 0/0
  4393 ;;		Unchanged: 0/0
  4394 ;; Data sizes:     COMMON   BANK0   BANK1   BANK2   BANK3   BANK4   BANK5   BANK6   BANK7   BANK8   BANK9  BANK10  BANK1
      +1  BANK12
  4395 ;;      Params:         0       6       0       0       0       0       0       0       0       0       0       0       
      +0       0
  4396 ;;      Locals:         0       1       0       0       0       0       0       0       0       0       0       0       
      +0       0
  4397 ;;      Temps:          0       1       0       0       0       0       0       0       0       0       0       0       
      +0       0
  4398 ;;      Totals:         0       8       0       0       0       0       0       0       0       0       0       0       
      +0       0
  4399 ;;Total ram usage:        8 bytes
  4400 ;; Hardware stack levels used: 1
  4401 ;; Hardware stack levels required when called: 8
  4402 ;; This function calls:
  4403 ;;		_vfprintf
  4404 ;; This function is called by:
  4405 ;;		_main
  4406 ;; This function uses a non-reentrant model
  4407 ;;
  4408                           
  4409                           
  4410                           ;psect for function _printf
  4411  0F87                     _printf:
  4412  0F87                     l3140:	
  4413                           ;incstack = 0
  4414                           ; Regs used in _printf: [wreg-fsr1h+status,2+status,0+pclath+cstack]
  4415                           
  4416  0F87  3068               	movlw	(low ((?_printf| 0+2)))& (0+255)
  4417  0F88  0020               	movlb	0	; select bank0
  4418  0F89  00EC               	movwf	??_printf
  4419  0F8A  086C               	movf	??_printf,w
  4420  0F8B  00ED               	movwf	printf@ap
  4421  0F8C                     l3142:
  4422  0F8C  0867               	movf	printf@fmt+1,w
  4423  0F8D  00DF               	movwf	vfprintf@fmt+1
  4424  0F8E  0866               	movf	printf@fmt,w
  4425  0F8F  00DE               	movwf	vfprintf@fmt
  4426  0F90  306D               	movlw	(low (printf@ap| 0))& (0+255)
  4427  0F91  00EC               	movwf	??_printf
  4428  0F92  086C               	movf	??_printf,w
  4429  0F93  00E0               	movwf	vfprintf@ap
  4430  0F94  3000               	movlw	0
  4431  0F95  3181  214A  318F   	fcall	_vfprintf
  4432  0F98                     l1271:
  4433  0F98  0008               	return
  4434  0F99                     __end_of_printf:
  4435                           
  4436                           	psect	text2
  4437  014A                     __ptext2:	
  4438 ;; *************** function _vfprintf *****************
  4439 ;; Defined at:
  4440 ;;		line 1390 in file "C:\Program Files\Microchip\xc8\v2.32\pic\sources\c99\common\doprnt.c"
  4441 ;; Parameters:    Size  Location     Type
  4442 ;;  fp              1    wreg     PTR struct _IO_FILE
  4443 ;;		 -> NULL(0), 
  4444 ;;  fmt             2   62[BANK0 ] PTR const unsigned char 
  4445 ;;		 -> STR_2(48), STR_1(32), 
  4446 ;;  ap              1   64[BANK0 ] PTR PTR void 
  4447 ;;		 -> printf@ap(1), 
  4448 ;; Auto vars:     Size  Location     Type
  4449 ;;  fp              1   67[BANK0 ] PTR struct _IO_FILE
  4450 ;;		 -> NULL(0), 
  4451 ;;  cfmt            2   68[BANK0 ] PTR unsigned char 
  4452 ;;		 -> STR_2(48), STR_1(32), 
  4453 ;; Return value:  Size  Location     Type
  4454 ;;                  2   62[BANK0 ] int 
  4455 ;; Registers used:
  4456 ;;		wreg, fsr0l, fsr0h, fsr1l, fsr1h, status,2, status,0, pclath, cstack
  4457 ;; Tracked objects:
  4458 ;;		On entry : 0/0
  4459 ;;		On exit  : 0/0
  4460 ;;		Unchanged: 0/0
  4461 ;; Data sizes:     COMMON   BANK0   BANK1   BANK2   BANK3   BANK4   BANK5   BANK6   BANK7   BANK8   BANK9  BANK10  BANK1
      +1  BANK12
  4462 ;;      Params:         0       3       0       0       0       0       0       0       0       0       0       0       
      +0       0
  4463 ;;      Locals:         0       3       0       0       0       0       0       0       0       0       0       0       
      +0       0
  4464 ;;      Temps:          0       2       0       0       0       0       0       0       0       0       0       0       
      +0       0
  4465 ;;      Totals:         0       8       0       0       0       0       0       0       0       0       0       0       
      +0       0
  4466 ;;Total ram usage:        8 bytes
  4467 ;; Hardware stack levels used: 1
  4468 ;; Hardware stack levels required when called: 7
  4469 ;; This function calls:
  4470 ;;		_vfpfcnvrt
  4471 ;; This function is called by:
  4472 ;;		_printf
  4473 ;; This function uses a non-reentrant model
  4474 ;;
  4475                           
  4476                           
  4477                           ;psect for function _vfprintf
  4478  014A                     _vfprintf:
  4479                           
  4480                           ;incstack = 0
  4481                           ; Regs used in _vfprintf: [wreg-fsr1h+status,2+status,0+pclath+cstack]
  4482                           ;vfprintf@fp stored from wreg
  4483  014A  0020               	movlb	0	; select bank0
  4484  014B  00E3               	movwf	vfprintf@fp
  4485  014C                     l3106:
  4486                           
  4487                           ;C:\Program Files\Microchip\xc8\v2.32\pic\sources\c99\common\doprnt.c: 1390: int vfprint
      +                          f(FILE *fp, const char *fmt, va_list ap);C:\Program Files\Microchip\xc8\v2.32\pic\source
      +                          s\c99\common\doprnt.c: 1391: {;C:\Program Files\Microchip\xc8\v2.32\pic\sources\c99\comm
      +                          on\doprnt.c: 1393:     char *cfmt;;C:\Program Files\Microchip\xc8\v2.32\pic\sources\c99\
      +                          common\doprnt.c: 1395:     cfmt = (char *)fmt;
  4488  014C  085F               	movf	vfprintf@fmt+1,w
  4489  014D  00E5               	movwf	vfprintf@cfmt+1
  4490  014E  085E               	movf	vfprintf@fmt,w
  4491  014F  00E4               	movwf	vfprintf@cfmt
  4492  0150                     l3108:
  4493                           
  4494                           ;C:\Program Files\Microchip\xc8\v2.32\pic\sources\c99\common\doprnt.c: 1396:     nout = 
      +                          0;
  4495  0150  0021               	movlb	1	; select bank1
  4496  0151  01BD               	clrf	_nout^(0+128)
  4497  0152  01BE               	clrf	(_nout+1)^(0+128)
  4498                           
  4499                           ;C:\Program Files\Microchip\xc8\v2.32\pic\sources\c99\common\doprnt.c: 1397:     while (
      +                          *cfmt) {
  4500  0153  2968               	goto	l3112
  4501  0154                     l3110:
  4502                           
  4503                           ;C:\Program Files\Microchip\xc8\v2.32\pic\sources\c99\common\doprnt.c: 1398:         nou
      +                          t += vfpfcnvrt(fp, &cfmt, ap);
  4504  0154  3064               	movlw	(low (vfprintf@cfmt| 0))& (0+255)
  4505  0155  00E1               	movwf	??_vfprintf
  4506  0156  0861               	movf	??_vfprintf,w
  4507  0157  00CE               	movwf	vfpfcnvrt@fmt
  4508  0158  0860               	movf	vfprintf@ap,w
  4509  0159  00E2               	movwf	??_vfprintf+1
  4510  015A  0862               	movf	??_vfprintf+1,w
  4511  015B  00CF               	movwf	vfpfcnvrt@ap
  4512  015C  0863               	movf	vfprintf@fp,w
  4513  015D  3183  23C1  3181   	fcall	_vfpfcnvrt
  4514  0160  0020               	movlb	0	; select bank0
  4515  0161  084E               	movf	?_vfpfcnvrt,w
  4516  0162  0021               	movlb	1	; select bank1
  4517  0163  07BD               	addwf	_nout^(0+128),f
  4518  0164  0020               	movlb	0	; select bank0
  4519  0165  084F               	movf	?_vfpfcnvrt+1,w
  4520  0166  0021               	movlb	1	; select bank1
  4521  0167  3DBE               	addwfc	(_nout+1)^(0+128),f
  4522  0168                     l3112:
  4523                           
  4524                           ;C:\Program Files\Microchip\xc8\v2.32\pic\sources\c99\common\doprnt.c: 1397:     while (
      +                          *cfmt) {
  4525  0168  0020               	movlb	0	; select bank0
  4526  0169  0864               	movf	vfprintf@cfmt,w
  4527  016A  0084               	movwf	4
  4528  016B  0865               	movf	vfprintf@cfmt+1,w
  4529  016C  0085               	movwf	5
  4530  016D  0012               	moviw fsr0++
  4531  016E  1D03               	btfss	3,2
  4532  016F  2971               	goto	u1611
  4533  0170  2972               	goto	u1610
  4534  0171                     u1611:
  4535  0171  2954               	goto	l3110
  4536  0172                     u1610:
  4537  0172                     l3114:
  4538                           
  4539                           ;C:\Program Files\Microchip\xc8\v2.32\pic\sources\c99\common\doprnt.c: 1400:     return 
      +                          nout;
  4540  0172  0021               	movlb	1	; select bank1
  4541  0173  083E               	movf	(_nout+1)^(0+128),w
  4542  0174  0020               	movlb	0	; select bank0
  4543  0175  00DF               	movwf	?_vfprintf+1
  4544  0176  0021               	movlb	1	; select bank1
  4545  0177  083D               	movf	_nout^(0+128),w
  4546  0178  0020               	movlb	0	; select bank0
  4547  0179  00DE               	movwf	?_vfprintf
  4548  017A                     l1343:
  4549  017A  0008               	return
  4550  017B                     __end_of_vfprintf:
  4551                           
  4552                           	psect	text3
  4553  03C1                     __ptext3:	
  4554 ;; *************** function _vfpfcnvrt *****************
  4555 ;; Defined at:
  4556 ;;		line 692 in file "C:\Program Files\Microchip\xc8\v2.32\pic\sources\c99\common\doprnt.c"
  4557 ;; Parameters:    Size  Location     Type
  4558 ;;  fp              1    wreg     PTR struct _IO_FILE
  4559 ;;		 -> NULL(0), 
  4560 ;;  fmt             1   46[BANK0 ] PTR PTR unsigned char 
  4561 ;;		 -> vfprintf@cfmt(2), 
  4562 ;;  ap              1   47[BANK0 ] PTR PTR void 
  4563 ;;		 -> printf@ap(1), 
  4564 ;; Auto vars:     Size  Location     Type
  4565 ;;  fp              1   61[BANK0 ] PTR struct _IO_FILE
  4566 ;;		 -> NULL(0), 
  4567 ;;  ll              8   53[BANK0 ] long long 
  4568 ;;  llu             8    0        unsigned long long 
  4569 ;;  f               4    0        unsigned long long 
  4570 ;;  ct              3    0        unsigned char [3]
  4571 ;;  vp              2    0        PTR void 
  4572 ;;  i               2    0        int 
  4573 ;;  done            2    0        int 
  4574 ;;  cp              2    0        PTR unsigned char 
  4575 ;;  c               1    0        unsigned char 
  4576 ;; Return value:  Size  Location     Type
  4577 ;;                  2   46[BANK0 ] int 
  4578 ;; Registers used:
  4579 ;;		wreg, fsr0l, fsr0h, fsr1l, fsr1h, status,2, status,0, pclath, cstack
  4580 ;; Tracked objects:
  4581 ;;		On entry : 0/0
  4582 ;;		On exit  : 0/0
  4583 ;;		Unchanged: 0/0
  4584 ;; Data sizes:     COMMON   BANK0   BANK1   BANK2   BANK3   BANK4   BANK5   BANK6   BANK7   BANK8   BANK9  BANK10  BANK1
      +1  BANK12
  4585 ;;      Params:         0       2       0       0       0       0       0       0       0       0       0       0       
      +0       0
  4586 ;;      Locals:         0       9       0       0       0       0       0       0       0       0       0       0       
      +0       0
  4587 ;;      Temps:          0       5       0       0       0       0       0       0       0       0       0       0       
      +0       0
  4588 ;;      Totals:         0      16       0       0       0       0       0       0       0       0       0       0       
      +0       0
  4589 ;;Total ram usage:       16 bytes
  4590 ;; Hardware stack levels used: 1
  4591 ;; Hardware stack levels required when called: 6
  4592 ;; This function calls:
  4593 ;;		_dtoa
  4594 ;;		_fputc
  4595 ;; This function is called by:
  4596 ;;		_vfprintf
  4597 ;; This function uses a non-reentrant model
  4598 ;;
  4599                           
  4600                           
  4601                           ;psect for function _vfpfcnvrt
  4602  03C1                     _vfpfcnvrt:
  4603                           
  4604                           ;incstack = 0
  4605                           ; Regs used in _vfpfcnvrt: [wreg-fsr1h+status,2+status,0+pclath+cstack]
  4606                           ;vfpfcnvrt@fp stored from wreg
  4607  03C1  0020               	movlb	0	; select bank0
  4608  03C2  00DD               	movwf	vfpfcnvrt@fp
  4609  03C3                     l2938:
  4610                           
  4611                           ;C:\Program Files\Microchip\xc8\v2.32\pic\sources\c99\common\doprnt.c: 692: static int v
      +                          fpfcnvrt(FILE *fp, char *fmt[], va_list ap);C:\Program Files\Microchip\xc8\v2.32\pic\sou
      +                          rces\c99\common\doprnt.c: 693: {;C:\Program Files\Microchip\xc8\v2.32\pic\sources\c99\co
      +                          mmon\doprnt.c: 694:     char c, *cp, ct[3];;C:\Program Files\Microchip\xc8\v2.32\pic\sou
      +                          rces\c99\common\doprnt.c: 695:     int done, i;;C:\Program Files\Microchip\xc8\v2.32\pic
      +                          \sources\c99\common\doprnt.c: 696:     long long ll;;C:\Program Files\Microchip\xc8\v2.3
      +                          2\pic\sources\c99\common\doprnt.c: 697:     unsigned long long llu;
  4612  03C3  084E               	movf	vfpfcnvrt@fmt,w
  4613  03C4  0086               	movwf	6
  4614  03C5  0187               	clrf	7
  4615  03C6  3F40               	moviw [0]fsr1
  4616  03C7  00D0               	movwf	??_vfpfcnvrt
  4617  03C8  3F41               	moviw [1]fsr1
  4618  03C9  00D1               	movwf	??_vfpfcnvrt+1
  4619  03CA  0850               	movf	??_vfpfcnvrt,w
  4620  03CB  0084               	movwf	4
  4621  03CC  0851               	movf	??_vfpfcnvrt+1,w
  4622  03CD  0085               	movwf	5
  4623  03CE  0012               	moviw fsr0++
  4624  03CF  3A25               	xorlw	37
  4625  03D0  1D03               	btfss	3,2
  4626  03D1  2BD3               	goto	u1551
  4627  03D2  2BD4               	goto	u1550
  4628  03D3                     u1551:
  4629  03D3  2C78               	goto	l2974
  4630  03D4                     u1550:
  4631  03D4                     l2940:
  4632                           
  4633                           ;C:\Program Files\Microchip\xc8\v2.32\pic\sources\c99\common\doprnt.c: 703:         ++*f
      +                          mt;
  4634  03D4  084E               	movf	vfpfcnvrt@fmt,w
  4635  03D5  0086               	movwf	6
  4636  03D6  0187               	clrf	7
  4637  03D7  3001               	movlw	1
  4638  03D8  0781               	addwf	1,f
  4639  03D9  3141               	addfsr 1,1
  4640  03DA  1803               	skipnc
  4641  03DB  0A81               	incf	1,f
  4642  03DC                     l2942:
  4643                           
  4644                           ;C:\Program Files\Microchip\xc8\v2.32\pic\sources\c99\common\doprnt.c: 705:         flag
      +                          s = width = 0;
  4645  03DC  0021               	movlb	1	; select bank1
  4646  03DD  01BF               	clrf	_width^(0+128)
  4647  03DE  01C0               	clrf	(_width+1)^(0+128)
  4648  03DF  01C3               	clrf	_flags^(0+128)
  4649  03E0  01C4               	clrf	(_flags+1)^(0+128)
  4650  03E1                     l2944:
  4651                           
  4652                           ;C:\Program Files\Microchip\xc8\v2.32\pic\sources\c99\common\doprnt.c: 706:         prec
      +                           = -1;
  4653  03E1  30FF               	movlw	255
  4654  03E2  00C1               	movwf	_prec^(0+128)
  4655  03E3  30FF               	movlw	255
  4656  03E4  00C2               	movwf	(_prec^(0+128)+1)
  4657  03E5                     l2946:
  4658                           
  4659                           ;C:\Program Files\Microchip\xc8\v2.32\pic\sources\c99\common\doprnt.c: 847:         if (
      +                          (*fmt[0] == 'd') || (*fmt[0] == 'i')) {
  4660  03E5  0020               	movlb	0	; select bank0
  4661  03E6  084E               	movf	vfpfcnvrt@fmt,w
  4662  03E7  0086               	movwf	6
  4663  03E8  0187               	clrf	7
  4664  03E9  3F40               	moviw [0]fsr1
  4665  03EA  00D0               	movwf	??_vfpfcnvrt
  4666  03EB  3F41               	moviw [1]fsr1
  4667  03EC  00D1               	movwf	??_vfpfcnvrt+1
  4668  03ED  0850               	movf	??_vfpfcnvrt,w
  4669  03EE  0084               	movwf	4
  4670  03EF  0851               	movf	??_vfpfcnvrt+1,w
  4671  03F0  0085               	movwf	5
  4672  03F1  0012               	moviw fsr0++
  4673  03F2  3A64               	xorlw	100
  4674  03F3  1903               	btfsc	3,2
  4675  03F4  2BF6               	goto	u1561
  4676  03F5  2BF7               	goto	u1560
  4677  03F6                     u1561:
  4678  03F6  2C08               	goto	l2950
  4679  03F7                     u1560:
  4680  03F7                     l2948:
  4681  03F7  084E               	movf	vfpfcnvrt@fmt,w
  4682  03F8  0086               	movwf	6
  4683  03F9  0187               	clrf	7
  4684  03FA  3F40               	moviw [0]fsr1
  4685  03FB  00D0               	movwf	??_vfpfcnvrt
  4686  03FC  3F41               	moviw [1]fsr1
  4687  03FD  00D1               	movwf	??_vfpfcnvrt+1
  4688  03FE  0850               	movf	??_vfpfcnvrt,w
  4689  03FF  0084               	movwf	4
  4690  0400  0851               	movf	??_vfpfcnvrt+1,w
  4691  0401  0085               	movwf	5
  4692  0402  0012               	moviw fsr0++
  4693  0403  3A69               	xorlw	105
  4694  0404  1D03               	btfss	3,2
  4695  0405  2C07               	goto	u1571
  4696  0406  2C08               	goto	u1570
  4697  0407                     u1571:
  4698  0407  2C43               	goto	l2958
  4699  0408                     u1570:
  4700  0408                     l2950:
  4701                           
  4702                           ;C:\Program Files\Microchip\xc8\v2.32\pic\sources\c99\common\doprnt.c: 849:             
      +                          ++*fmt;
  4703  0408  084E               	movf	vfpfcnvrt@fmt,w
  4704  0409  0086               	movwf	6
  4705  040A  0187               	clrf	7
  4706  040B  3001               	movlw	1
  4707  040C  0781               	addwf	1,f
  4708  040D  3141               	addfsr 1,1
  4709  040E  1803               	skipnc
  4710  040F  0A81               	incf	1,f
  4711  0410                     l2952:
  4712                           
  4713                           ;C:\Program Files\Microchip\xc8\v2.32\pic\sources\c99\common\doprnt.c: 850:             
      +                          ll = (long long)(*(int *)__va_arg(*(int **)ap, (int)0));
  4714  0410  084F               	movf	vfpfcnvrt@ap,w
  4715  0411  0086               	movwf	6
  4716  0412  0187               	clrf	7
  4717  0413  0801               	movf	1,w
  4718  0414  0084               	movwf	4
  4719  0415  0185               	clrf	5
  4720  0416  3002               	movlw	2
  4721  0417  0781               	addwf	1,f
  4722  0418  3F00               	moviw [0]fsr0
  4723  0419  00D0               	movwf	??_vfpfcnvrt
  4724  041A  3F01               	moviw [1]fsr0
  4725  041B  00D1               	movwf	??_vfpfcnvrt+1
  4726  041C  0850               	movf	??_vfpfcnvrt,w
  4727  041D  00D5               	movwf	vfpfcnvrt@ll
  4728  041E  0851               	movf	??_vfpfcnvrt+1,w
  4729  041F  00D6               	movwf	vfpfcnvrt@ll+1
  4730  0420  0D89               	rlf	9,f
  4731  0421  3B89               	subwfb	9,f
  4732  0422  0989               	comf	9,f
  4733  0423  00D7               	movwf	vfpfcnvrt@ll+2
  4734  0424  00D8               	movwf	vfpfcnvrt@ll+3
  4735  0425  00D9               	movwf	vfpfcnvrt@ll+4
  4736  0426  00DA               	movwf	vfpfcnvrt@ll+5
  4737  0427  00DB               	movwf	vfpfcnvrt@ll+6
  4738  0428  00DC               	movwf	vfpfcnvrt@ll+7
  4739  0429                     l2954:
  4740                           
  4741                           ;C:\Program Files\Microchip\xc8\v2.32\pic\sources\c99\common\doprnt.c: 852:             
      +                          return dtoa(fp, ll);
  4742  0429  0855               	movf	vfpfcnvrt@ll,w
  4743  042A  00B0               	movwf	dtoa@d
  4744  042B  0856               	movf	vfpfcnvrt@ll+1,w
  4745  042C  00B1               	movwf	dtoa@d+1
  4746  042D  0857               	movf	vfpfcnvrt@ll+2,w
  4747  042E  00B2               	movwf	dtoa@d+2
  4748  042F  0858               	movf	vfpfcnvrt@ll+3,w
  4749  0430  00B3               	movwf	dtoa@d+3
  4750  0431  0859               	movf	vfpfcnvrt@ll+4,w
  4751  0432  00B4               	movwf	dtoa@d+4
  4752  0433  085A               	movf	vfpfcnvrt@ll+5,w
  4753  0434  00B5               	movwf	dtoa@d+5
  4754  0435  085B               	movf	vfpfcnvrt@ll+6,w
  4755  0436  00B6               	movwf	dtoa@d+6
  4756  0437  085C               	movf	vfpfcnvrt@ll+7,w
  4757  0438  00B7               	movwf	dtoa@d+7
  4758  0439  085D               	movf	vfpfcnvrt@fp,w
  4759  043A  3186  2687  3183   	fcall	_dtoa
  4760  043D  0020               	movlb	0	; select bank0
  4761  043E  0831               	movf	?_dtoa+1,w
  4762  043F  00CF               	movwf	?_vfpfcnvrt+1
  4763  0440  0830               	movf	?_dtoa,w
  4764  0441  00CE               	movwf	?_vfpfcnvrt
  4765  0442  2C9B               	goto	l1336
  4766  0443                     l2958:
  4767                           
  4768                           ;C:\Program Files\Microchip\xc8\v2.32\pic\sources\c99\common\doprnt.c: 1372:         if 
      +                          ((*fmt)[0] == '%') {
  4769  0443  084E               	movf	vfpfcnvrt@fmt,w
  4770  0444  0086               	movwf	6
  4771  0445  0187               	clrf	7
  4772  0446  3F40               	moviw [0]fsr1
  4773  0447  00D0               	movwf	??_vfpfcnvrt
  4774  0448  3F41               	moviw [1]fsr1
  4775  0449  00D1               	movwf	??_vfpfcnvrt+1
  4776  044A  0850               	movf	??_vfpfcnvrt,w
  4777  044B  0084               	movwf	4
  4778  044C  0851               	movf	??_vfpfcnvrt+1,w
  4779  044D  0085               	movwf	5
  4780  044E  0012               	moviw fsr0++
  4781  044F  3A25               	xorlw	37
  4782  0450  1D03               	btfss	3,2
  4783  0451  2C53               	goto	u1581
  4784  0452  2C54               	goto	u1580
  4785  0453                     u1581:
  4786  0453  2C6D               	goto	l2968
  4787  0454                     u1580:
  4788  0454                     l2960:
  4789                           
  4790                           ;C:\Program Files\Microchip\xc8\v2.32\pic\sources\c99\common\doprnt.c: 1373:            
      +                           ++*fmt;
  4791  0454  084E               	movf	vfpfcnvrt@fmt,w
  4792  0455  0086               	movwf	6
  4793  0456  0187               	clrf	7
  4794  0457  3001               	movlw	1
  4795  0458  0781               	addwf	1,f
  4796  0459  3141               	addfsr 1,1
  4797  045A  1803               	skipnc
  4798  045B  0A81               	incf	1,f
  4799  045C                     l2962:
  4800                           
  4801                           ;C:\Program Files\Microchip\xc8\v2.32\pic\sources\c99\common\doprnt.c: 1374:            
      +                           fputc((int)'%', fp);
  4802  045C  3025               	movlw	37
  4803  045D  00F2               	movwf	fputc@c
  4804  045E  3000               	movlw	0
  4805  045F  00F3               	movwf	fputc@c+1
  4806  0460  085D               	movf	vfpfcnvrt@fp,w
  4807  0461  00D0               	movwf	??_vfpfcnvrt
  4808  0462  0850               	movf	??_vfpfcnvrt,w
  4809  0463  00F4               	movwf	fputc@fp
  4810  0464  3182  2220  3183   	fcall	_fputc
  4811  0467                     l2964:
  4812                           
  4813                           ;C:\Program Files\Microchip\xc8\v2.32\pic\sources\c99\common\doprnt.c: 1375:            
      +                           return 1;
  4814  0467  3001               	movlw	1
  4815  0468  0020               	movlb	0	; select bank0
  4816  0469  00CE               	movwf	?_vfpfcnvrt
  4817  046A  3000               	movlw	0
  4818  046B  00CF               	movwf	?_vfpfcnvrt+1
  4819  046C  2C9B               	goto	l1336
  4820  046D                     l2968:
  4821                           
  4822                           ;C:\Program Files\Microchip\xc8\v2.32\pic\sources\c99\common\doprnt.c: 1379:         ++*
      +                          fmt;
  4823  046D  084E               	movf	vfpfcnvrt@fmt,w
  4824  046E  0086               	movwf	6
  4825  046F  0187               	clrf	7
  4826  0470  3001               	movlw	1
  4827  0471  0781               	addwf	1,f
  4828  0472  3141               	addfsr 1,1
  4829  0473  1803               	skipnc
  4830  0474  0A81               	incf	1,f
  4831  0475                     l2970:
  4832                           
  4833                           ;C:\Program Files\Microchip\xc8\v2.32\pic\sources\c99\common\doprnt.c: 1380:         ret
      +                          urn 0;
  4834  0475  01CE               	clrf	?_vfpfcnvrt
  4835  0476  01CF               	clrf	?_vfpfcnvrt+1
  4836  0477  2C9B               	goto	l1336
  4837  0478                     l2974:
  4838                           
  4839                           ;C:\Program Files\Microchip\xc8\v2.32\pic\sources\c99\common\doprnt.c: 1384:     fputc((
      +                          int)(*fmt)[0], fp);
  4840  0478  084E               	movf	vfpfcnvrt@fmt,w
  4841  0479  0086               	movwf	6
  4842  047A  0187               	clrf	7
  4843  047B  3F40               	moviw [0]fsr1
  4844  047C  00D0               	movwf	??_vfpfcnvrt
  4845  047D  3F41               	moviw [1]fsr1
  4846  047E  00D1               	movwf	??_vfpfcnvrt+1
  4847  047F  0850               	movf	??_vfpfcnvrt,w
  4848  0480  0084               	movwf	4
  4849  0481  0851               	movf	??_vfpfcnvrt+1,w
  4850  0482  0085               	movwf	5
  4851  0483  0800               	movf	0,w	;code access
  4852  0484  00D2               	movwf	??_vfpfcnvrt+2
  4853  0485  01D3               	clrf	??_vfpfcnvrt+3
  4854  0486  0852               	movf	??_vfpfcnvrt+2,w
  4855  0487  00F2               	movwf	fputc@c
  4856  0488  0853               	movf	??_vfpfcnvrt+3,w
  4857  0489  00F3               	movwf	fputc@c+1
  4858  048A  085D               	movf	vfpfcnvrt@fp,w
  4859  048B  00D4               	movwf	??_vfpfcnvrt+4
  4860  048C  0854               	movf	??_vfpfcnvrt+4,w
  4861  048D  00F4               	movwf	fputc@fp
  4862  048E  3182  2220  3183   	fcall	_fputc
  4863  0491                     l2976:
  4864                           
  4865                           ;C:\Program Files\Microchip\xc8\v2.32\pic\sources\c99\common\doprnt.c: 1385:     ++*fmt;
  4866  0491  0020               	movlb	0	; select bank0
  4867  0492  084E               	movf	vfpfcnvrt@fmt,w
  4868  0493  0086               	movwf	6
  4869  0494  0187               	clrf	7
  4870  0495  3001               	movlw	1
  4871  0496  0781               	addwf	1,f
  4872  0497  3141               	addfsr 1,1
  4873  0498  1803               	skipnc
  4874  0499  0A81               	incf	1,f
  4875  049A  2C67               	goto	l2964
  4876  049B                     l1336:
  4877  049B  0008               	return
  4878  049C                     __end_of_vfpfcnvrt:
  4879                           
  4880                           	psect	text4
  4881  0687                     __ptext4:	
  4882 ;; *************** function _dtoa *****************
  4883 ;; Defined at:
  4884 ;;		line 287 in file "C:\Program Files\Microchip\xc8\v2.32\pic\sources\c99\common\doprnt.c"
  4885 ;; Parameters:    Size  Location     Type
  4886 ;;  fp              1    wreg     PTR struct _IO_FILE
  4887 ;;		 -> NULL(0), 
  4888 ;;  d               8   16[BANK0 ] long long 
  4889 ;; Auto vars:     Size  Location     Type
  4890 ;;  fp              1   31[BANK0 ] PTR struct _IO_FILE
  4891 ;;		 -> NULL(0), 
  4892 ;;  n               8   36[BANK0 ] long long 
  4893 ;;  i               2   44[BANK0 ] int 
  4894 ;;  s               2   34[BANK0 ] int 
  4895 ;;  w               2   32[BANK0 ] int 
  4896 ;;  p               2   29[BANK0 ] int 
  4897 ;; Return value:  Size  Location     Type
  4898 ;;                  2   16[BANK0 ] int 
  4899 ;; Registers used:
  4900 ;;		wreg, fsr1l, fsr1h, status,2, status,0, pclath, cstack
  4901 ;; Tracked objects:
  4902 ;;		On entry : 0/0
  4903 ;;		On exit  : 0/0
  4904 ;;		Unchanged: 0/0
  4905 ;; Data sizes:     COMMON   BANK0   BANK1   BANK2   BANK3   BANK4   BANK5   BANK6   BANK7   BANK8   BANK9  BANK10  BANK1
      +1  BANK12
  4906 ;;      Params:         0       8       0       0       0       0       0       0       0       0       0       0       
      +0       0
  4907 ;;      Locals:         0      19       0       0       0       0       0       0       0       0       0       0       
      +0       0
  4908 ;;      Temps:          0       3       0       0       0       0       0       0       0       0       0       0       
      +0       0
  4909 ;;      Totals:         0      30       0       0       0       0       0       0       0       0       0       0       
      +0       0
  4910 ;;Total ram usage:       30 bytes
  4911 ;; Hardware stack levels used: 1
  4912 ;; Hardware stack levels required when called: 5
  4913 ;; This function calls:
  4914 ;;		___aodiv
  4915 ;;		___aomod
  4916 ;;		_abs
  4917 ;;		_pad
  4918 ;; This function is called by:
  4919 ;;		_vfpfcnvrt
  4920 ;; This function uses a non-reentrant model
  4921 ;;
  4922                           
  4923                           
  4924                           ;psect for function _dtoa
  4925  0687                     _dtoa:
  4926                           
  4927                           ;incstack = 0
  4928                           ; Regs used in _dtoa: [wreg+fsr1l+fsr1h+status,2+status,0+pclath+cstack]
  4929                           ;dtoa@fp stored from wreg
  4930  0687  0020               	movlb	0	; select bank0
  4931  0688  00BF               	movwf	dtoa@fp
  4932  0689                     l2838:
  4933                           
  4934                           ;C:\Program Files\Microchip\xc8\v2.32\pic\sources\c99\common\doprnt.c: 287: static int d
      +                          toa(FILE *fp, long long d);C:\Program Files\Microchip\xc8\v2.32\pic\sources\c99\common\d
      +                          oprnt.c: 288: {;C:\Program Files\Microchip\xc8\v2.32\pic\sources\c99\common\doprnt.c: 28
      +                          9:     int i, p, s, w;;C:\Program Files\Microchip\xc8\v2.32\pic\sources\c99\common\doprn
      +                          t.c: 290:     long long n;;C:\Program Files\Microchip\xc8\v2.32\pic\sources\c99\common\d
      +                          oprnt.c: 293:     n = d;
  4935  0689  0830               	movf	dtoa@d,w
  4936  068A  00C4               	movwf	dtoa@n
  4937  068B  0831               	movf	dtoa@d+1,w
  4938  068C  00C5               	movwf	dtoa@n+1
  4939  068D  0832               	movf	dtoa@d+2,w
  4940  068E  00C6               	movwf	dtoa@n+2
  4941  068F  0833               	movf	dtoa@d+3,w
  4942  0690  00C7               	movwf	dtoa@n+3
  4943  0691  0834               	movf	dtoa@d+4,w
  4944  0692  00C8               	movwf	dtoa@n+4
  4945  0693  0835               	movf	dtoa@d+5,w
  4946  0694  00C9               	movwf	dtoa@n+5
  4947  0695  0836               	movf	dtoa@d+6,w
  4948  0696  00CA               	movwf	dtoa@n+6
  4949  0697  0837               	movf	dtoa@d+7,w
  4950  0698  00CB               	movwf	dtoa@n+7
  4951  0699                     l2840:
  4952                           
  4953                           ;C:\Program Files\Microchip\xc8\v2.32\pic\sources\c99\common\doprnt.c: 294:     s = n < 
      +                          0 ? 1 : 0;
  4954  0699  3044               	movlw	low dtoa@n
  4955  069A  0086               	movwf	6
  4956  069B  3000               	movlw	high dtoa@n
  4957  069C  0087               	movwf	7
  4958  069D  3F47               	moviw [7]fsr1
  4959  069E  00B8               	movwf	??_dtoa
  4960  069F  1BB8               	btfsc	??_dtoa,7
  4961  06A0  2EA2               	goto	u1361
  4962  06A1  2EA4               	goto	u1360
  4963  06A2                     u1361:
  4964  06A2  3001               	movlw	1
  4965  06A3  2EA5               	goto	u1370
  4966  06A4                     u1360:
  4967  06A4  3000               	movlw	0
  4968  06A5                     u1370:
  4969  06A5  0020               	movlb	0	; select bank0
  4970  06A6  00B9               	movwf	??_dtoa+1
  4971  06A7  01BA               	clrf	??_dtoa+2
  4972  06A8  0839               	movf	??_dtoa+1,w
  4973  06A9  00C2               	movwf	dtoa@s
  4974  06AA  083A               	movf	??_dtoa+2,w
  4975  06AB  00C3               	movwf	dtoa@s+1
  4976  06AC                     l2842:
  4977                           
  4978                           ;C:\Program Files\Microchip\xc8\v2.32\pic\sources\c99\common\doprnt.c: 295:     if (s) {
  4979  06AC  0842               	movf	dtoa@s,w
  4980  06AD  0443               	iorwf	dtoa@s+1,w
  4981  06AE  1903               	btfsc	3,2
  4982  06AF  2EB1               	goto	u1381
  4983  06B0  2EB2               	goto	u1380
  4984  06B1                     u1381:
  4985  06B1  2ED0               	goto	l1306
  4986  06B2                     u1380:
  4987  06B2                     l2844:
  4988                           
  4989                           ;C:\Program Files\Microchip\xc8\v2.32\pic\sources\c99\common\doprnt.c: 296:         n = 
      +                          -n;
  4990  06B2  09C4               	comf	dtoa@n,f
  4991  06B3  09C5               	comf	dtoa@n+1,f
  4992  06B4  09C6               	comf	dtoa@n+2,f
  4993  06B5  09C7               	comf	dtoa@n+3,f
  4994  06B6  09C8               	comf	dtoa@n+4,f
  4995  06B7  09C9               	comf	dtoa@n+5,f
  4996  06B8  09CA               	comf	dtoa@n+6,f
  4997  06B9  09CB               	comf	dtoa@n+7,f
  4998  06BA  0AC4               	incf	dtoa@n,f
  4999  06BB  1D03               	skipz
  5000  06BC  2ED0               	goto	u139lld
  5001  06BD  0AC5               	incf	dtoa@n+1,f
  5002  06BE  1D03               	skipz
  5003  06BF  2ED0               	goto	u139lld
  5004  06C0  0AC6               	incf	dtoa@n+2,f
  5005  06C1  1D03               	skipz
  5006  06C2  2ED0               	goto	u139lld
  5007  06C3  0AC7               	incf	dtoa@n+3,f
  5008  06C4  1D03               	skipz
  5009  06C5  2ED0               	goto	u139lld
  5010  06C6  0AC8               	incf	dtoa@n+4,f
  5011  06C7  1D03               	skipz
  5012  06C8  2ED0               	goto	u139lld
  5013  06C9  0AC9               	incf	dtoa@n+5,f
  5014  06CA  1D03               	skipz
  5015  06CB  2ED0               	goto	u139lld
  5016  06CC  0ACA               	incf	dtoa@n+6,f
  5017  06CD  1D03               	skipz
  5018  06CE  2ED0               	goto	u139lld
  5019  06CF  0ACB               	incf	dtoa@n+7,f
  5020  06D0                     u139lld:
  5021  06D0                     l1306:	
  5022                           ;C:\Program Files\Microchip\xc8\v2.32\pic\sources\c99\common\doprnt.c: 297:     }
  5023                           
  5024                           
  5025                           ;C:\Program Files\Microchip\xc8\v2.32\pic\sources\c99\common\doprnt.c: 300:     if (!(pr
      +                          ec < 0)) {
  5026  06D0  0021               	movlb	1	; select bank1
  5027  06D1  1BC2               	btfsc	(_prec+1)^(0+128),7
  5028  06D2  2ED4               	goto	u1401
  5029  06D3  2ED5               	goto	u1400
  5030  06D4                     u1401:
  5031  06D4  2ED9               	goto	l1307
  5032  06D5                     u1400:
  5033  06D5                     l2846:
  5034                           
  5035                           ;C:\Program Files\Microchip\xc8\v2.32\pic\sources\c99\common\doprnt.c: 301:         flag
      +                          s &= ~(1 << 1);
  5036  06D5  30FD               	movlw	253
  5037  06D6  05C3               	andwf	_flags^(0+128),f
  5038  06D7  30FF               	movlw	255
  5039  06D8  05C4               	andwf	(_flags+1)^(0+128),f
  5040  06D9                     l1307:	
  5041                           ;C:\Program Files\Microchip\xc8\v2.32\pic\sources\c99\common\doprnt.c: 302:     }
  5042                           
  5043                           
  5044                           ;C:\Program Files\Microchip\xc8\v2.32\pic\sources\c99\common\doprnt.c: 303:     p = (0 <
      +                           prec) ? prec : 1;
  5045  06D9  0842               	movf	(_prec+1)^(0+128),w
  5046  06DA  3A80               	xorlw	128
  5047  06DB  0020               	movlb	0	; select bank0
  5048  06DC  00B8               	movwf	??_dtoa
  5049  06DD  3080               	movlw	128
  5050  06DE  0238               	subwf	??_dtoa,w
  5051  06DF  1D03               	skipz
  5052  06E0  2EE4               	goto	u1415
  5053  06E1  3001               	movlw	1
  5054  06E2  0021               	movlb	1	; select bank1
  5055  06E3  0241               	subwf	_prec^(0+128),w
  5056  06E4                     u1415:
  5057  06E4  1803               	skipnc
  5058  06E5  2EE7               	goto	u1411
  5059  06E6  2EE8               	goto	u1410
  5060  06E7                     u1411:
  5061  06E7  2EEE               	goto	l2850
  5062  06E8                     u1410:
  5063  06E8                     l2848:
  5064  06E8  3001               	movlw	1
  5065  06E9  0020               	movlb	0	; select bank0
  5066  06EA  00BD               	movwf	dtoa@p
  5067  06EB  3000               	movlw	0
  5068  06EC  00BE               	movwf	dtoa@p+1
  5069  06ED  2EF6               	goto	l1311
  5070  06EE                     l2850:
  5071  06EE  0021               	movlb	1	; select bank1
  5072  06EF  0842               	movf	(_prec+1)^(0+128),w
  5073  06F0  0020               	movlb	0	; select bank0
  5074  06F1  00BE               	movwf	dtoa@p+1
  5075  06F2  0021               	movlb	1	; select bank1
  5076  06F3  0841               	movf	_prec^(0+128),w
  5077  06F4  0020               	movlb	0	; select bank0
  5078  06F5  00BD               	movwf	dtoa@p
  5079  06F6                     l1311:
  5080                           
  5081                           ;C:\Program Files\Microchip\xc8\v2.32\pic\sources\c99\common\doprnt.c: 304:     w = widt
      +                          h;
  5082  06F6  0021               	movlb	1	; select bank1
  5083  06F7  0840               	movf	(_width+1)^(0+128),w
  5084  06F8  0020               	movlb	0	; select bank0
  5085  06F9  00C1               	movwf	dtoa@w+1
  5086  06FA  0021               	movlb	1	; select bank1
  5087  06FB  083F               	movf	_width^(0+128),w
  5088  06FC  0020               	movlb	0	; select bank0
  5089  06FD  00C0               	movwf	dtoa@w
  5090  06FE                     l2852:
  5091                           
  5092                           ;C:\Program Files\Microchip\xc8\v2.32\pic\sources\c99\common\doprnt.c: 305:     if (s ||
      +                           (flags & (1 << 2))) {
  5093  06FE  0842               	movf	dtoa@s,w
  5094  06FF  0443               	iorwf	dtoa@s+1,w
  5095  0700  1D03               	btfss	3,2
  5096  0701  2F03               	goto	u1421
  5097  0702  2F04               	goto	u1420
  5098  0703                     u1421:
  5099  0703  2F09               	goto	l2856
  5100  0704                     u1420:
  5101  0704                     l2854:
  5102  0704  0021               	movlb	1	; select bank1
  5103  0705  1D43               	btfss	_flags^(0+128),2
  5104  0706  2F08               	goto	u1431
  5105  0707  2F09               	goto	u1430
  5106  0708                     u1431:
  5107  0708  2F0E               	goto	l1312
  5108  0709                     u1430:
  5109  0709                     l2856:
  5110                           
  5111                           ;C:\Program Files\Microchip\xc8\v2.32\pic\sources\c99\common\doprnt.c: 306:         --w;
  5112  0709  30FF               	movlw	255
  5113  070A  0020               	movlb	0	; select bank0
  5114  070B  07C0               	addwf	dtoa@w,f
  5115  070C  30FF               	movlw	255
  5116  070D  3DC1               	addwfc	dtoa@w+1,f
  5117  070E                     l1312:	
  5118                           ;C:\Program Files\Microchip\xc8\v2.32\pic\sources\c99\common\doprnt.c: 307:     }
  5119                           
  5120                           
  5121                           ;C:\Program Files\Microchip\xc8\v2.32\pic\sources\c99\common\doprnt.c: 310:     i = size
      +                          of(dbuf) - 1;
  5122  070E  301F               	movlw	31
  5123  070F  0020               	movlb	0	; select bank0
  5124  0710  00CC               	movwf	dtoa@i
  5125  0711  3000               	movlw	0
  5126  0712  00CD               	movwf	dtoa@i+1
  5127  0713                     l2858:
  5128                           
  5129                           ;C:\Program Files\Microchip\xc8\v2.32\pic\sources\c99\common\doprnt.c: 311:     dbuf[i] 
      +                          = '\0';
  5130  0713  0021               	movlb	1	; select bank1
  5131  0714  01E5               	clrf	(_dbuf^(0+128)+31)
  5132                           
  5133                           ;C:\Program Files\Microchip\xc8\v2.32\pic\sources\c99\common\doprnt.c: 312:     while (!
      +                          (i < 1) && (n || (0 < p) || ((0 < w) && (flags & (1 << 1))))) {
  5134  0715  2F7E               	goto	l1315
  5135  0716                     l2860:
  5136                           
  5137                           ;C:\Program Files\Microchip\xc8\v2.32\pic\sources\c99\common\doprnt.c: 313:         --i;
  5138  0716  30FF               	movlw	255
  5139  0717  0020               	movlb	0	; select bank0
  5140  0718  07CC               	addwf	dtoa@i,f
  5141  0719  30FF               	movlw	255
  5142  071A  3DCD               	addwfc	dtoa@i+1,f
  5143  071B                     l2862:
  5144                           
  5145                           ;C:\Program Files\Microchip\xc8\v2.32\pic\sources\c99\common\doprnt.c: 314:         dbuf
      +                          [i] = (char)((int)'0' + abs(n % 10));
  5146  071B  300A               	movlw	10
  5147  071C  00A0               	movwf	___aomod@divisor
  5148  071D  01A1               	clrf	___aomod@divisor+1
  5149  071E  01A2               	clrf	___aomod@divisor+2
  5150  071F  01A3               	clrf	___aomod@divisor+3
  5151  0720  01A4               	clrf	___aomod@divisor+4
  5152  0721  01A5               	clrf	___aomod@divisor+5
  5153  0722  01A6               	clrf	___aomod@divisor+6
  5154  0723  01A7               	clrf	___aomod@divisor+7
  5155  0724  0844               	movf	dtoa@n,w
  5156  0725  00A8               	movwf	___aomod@dividend
  5157  0726  0845               	movf	dtoa@n+1,w
  5158  0727  00A9               	movwf	___aomod@dividend+1
  5159  0728  0846               	movf	dtoa@n+2,w
  5160  0729  00AA               	movwf	___aomod@dividend+2
  5161  072A  0847               	movf	dtoa@n+3,w
  5162  072B  00AB               	movwf	___aomod@dividend+3
  5163  072C  0848               	movf	dtoa@n+4,w
  5164  072D  00AC               	movwf	___aomod@dividend+4
  5165  072E  0849               	movf	dtoa@n+5,w
  5166  072F  00AD               	movwf	___aomod@dividend+5
  5167  0730  084A               	movf	dtoa@n+6,w
  5168  0731  00AE               	movwf	___aomod@dividend+6
  5169  0732  084B               	movf	dtoa@n+7,w
  5170  0733  00AF               	movwf	___aomod@dividend+7
  5171  0734  3184  249C  3186   	fcall	___aomod
  5172  0737  0020               	movlb	0	; select bank0
  5173  0738  0821               	movf	?___aomod+1,w
  5174  0739  00F4               	movwf	abs@a+1
  5175  073A  0820               	movf	?___aomod,w
  5176  073B  00F3               	movwf	abs@a
  5177  073C  318F  27CA  3186   	fcall	_abs
  5178  073F  0873               	movf	?_abs,w
  5179  0740  3E30               	addlw	48
  5180  0741  0020               	movlb	0	; select bank0
  5181  0742  00B8               	movwf	??_dtoa
  5182  0743  084C               	movf	dtoa@i,w
  5183  0744  3EC6               	addlw	(low (_dbuf| 0))& (0+255)
  5184  0745  0086               	movwf	6
  5185  0746  0187               	clrf	7
  5186  0747  0838               	movf	??_dtoa,w
  5187  0748  0081               	movwf	1
  5188  0749                     l2864:
  5189                           
  5190                           ;C:\Program Files\Microchip\xc8\v2.32\pic\sources\c99\common\doprnt.c: 315:         --p;
  5191  0749  30FF               	movlw	255
  5192  074A  07BD               	addwf	dtoa@p,f
  5193  074B  30FF               	movlw	255
  5194  074C  3DBE               	addwfc	dtoa@p+1,f
  5195  074D                     l2866:
  5196                           
  5197                           ;C:\Program Files\Microchip\xc8\v2.32\pic\sources\c99\common\doprnt.c: 316:         --w;
  5198  074D  30FF               	movlw	255
  5199  074E  07C0               	addwf	dtoa@w,f
  5200  074F  30FF               	movlw	255
  5201  0750  3DC1               	addwfc	dtoa@w+1,f
  5202  0751                     l2868:
  5203                           
  5204                           ;C:\Program Files\Microchip\xc8\v2.32\pic\sources\c99\common\doprnt.c: 317:         n = 
      +                          n / 10;
  5205  0751  300A               	movlw	10
  5206  0752  00A0               	movwf	___aodiv@divisor
  5207  0753  01A1               	clrf	___aodiv@divisor+1
  5208  0754  01A2               	clrf	___aodiv@divisor+2
  5209  0755  01A3               	clrf	___aodiv@divisor+3
  5210  0756  01A4               	clrf	___aodiv@divisor+4
  5211  0757  01A5               	clrf	___aodiv@divisor+5
  5212  0758  01A6               	clrf	___aodiv@divisor+6
  5213  0759  01A7               	clrf	___aodiv@divisor+7
  5214  075A  0844               	movf	dtoa@n,w
  5215  075B  00A8               	movwf	___aodiv@dividend
  5216  075C  0845               	movf	dtoa@n+1,w
  5217  075D  00A9               	movwf	___aodiv@dividend+1
  5218  075E  0846               	movf	dtoa@n+2,w
  5219  075F  00AA               	movwf	___aodiv@dividend+2
  5220  0760  0847               	movf	dtoa@n+3,w
  5221  0761  00AB               	movwf	___aodiv@dividend+3
  5222  0762  0848               	movf	dtoa@n+4,w
  5223  0763  00AC               	movwf	___aodiv@dividend+4
  5224  0764  0849               	movf	dtoa@n+5,w
  5225  0765  00AD               	movwf	___aodiv@dividend+5
  5226  0766  084A               	movf	dtoa@n+6,w
  5227  0767  00AE               	movwf	___aodiv@dividend+6
  5228  0768  084B               	movf	dtoa@n+7,w
  5229  0769  00AF               	movwf	___aodiv@dividend+7
  5230  076A  3185  2586  3186   	fcall	___aodiv
  5231  076D  0020               	movlb	0	; select bank0
  5232  076E  0820               	movf	?___aodiv,w
  5233  076F  00C4               	movwf	dtoa@n
  5234  0770  0821               	movf	?___aodiv+1,w
  5235  0771  00C5               	movwf	dtoa@n+1
  5236  0772  0822               	movf	?___aodiv+2,w
  5237  0773  00C6               	movwf	dtoa@n+2
  5238  0774  0823               	movf	?___aodiv+3,w
  5239  0775  00C7               	movwf	dtoa@n+3
  5240  0776  0824               	movf	?___aodiv+4,w
  5241  0777  00C8               	movwf	dtoa@n+4
  5242  0778  0825               	movf	?___aodiv+5,w
  5243  0779  00C9               	movwf	dtoa@n+5
  5244  077A  0826               	movf	?___aodiv+6,w
  5245  077B  00CA               	movwf	dtoa@n+6
  5246  077C  0827               	movf	?___aodiv+7,w
  5247  077D  00CB               	movwf	dtoa@n+7
  5248  077E                     l1315:	
  5249                           ;C:\Program Files\Microchip\xc8\v2.32\pic\sources\c99\common\doprnt.c: 318:     }
  5250                           
  5251                           
  5252                           ;C:\Program Files\Microchip\xc8\v2.32\pic\sources\c99\common\doprnt.c: 312:     while (!
      +                          (i < 1) && (n || (0 < p) || ((0 < w) && (flags & (1 << 1))))) {
  5253  077E  0020               	movlb	0	; select bank0
  5254  077F  084D               	movf	dtoa@i+1,w
  5255  0780  3A80               	xorlw	128
  5256  0781  00B8               	movwf	??_dtoa
  5257  0782  3080               	movlw	128
  5258  0783  0238               	subwf	??_dtoa,w
  5259  0784  1D03               	skipz
  5260  0785  2F88               	goto	u1445
  5261  0786  3001               	movlw	1
  5262  0787  024C               	subwf	dtoa@i,w
  5263  0788                     u1445:
  5264  0788  1C03               	skipc
  5265  0789  2F8B               	goto	u1441
  5266  078A  2F8C               	goto	u1440
  5267  078B                     u1441:
  5268  078B  2FB9               	goto	l2878
  5269  078C                     u1440:
  5270  078C                     l2870:
  5271  078C  0020               	movlb	0	; select bank0
  5272  078D  0844               	movf	dtoa@n,w
  5273  078E  0445               	iorwf	dtoa@n+1,w
  5274  078F  0446               	iorwf	dtoa@n+2,w
  5275  0790  0447               	iorwf	dtoa@n+3,w
  5276  0791  0448               	iorwf	dtoa@n+4,w
  5277  0792  0449               	iorwf	dtoa@n+5,w
  5278  0793  044A               	iorwf	dtoa@n+6,w
  5279  0794  044B               	iorwf	dtoa@n+7,w
  5280  0795  1D03               	skipz
  5281  0796  2F98               	goto	u1451
  5282  0797  2F99               	goto	u1450
  5283  0798                     u1451:
  5284  0798  2F16               	goto	l2860
  5285  0799                     u1450:
  5286  0799                     l2872:
  5287  0799  083E               	movf	dtoa@p+1,w
  5288  079A  3A80               	xorlw	128
  5289  079B  00B8               	movwf	??_dtoa
  5290  079C  3080               	movlw	128
  5291  079D  0238               	subwf	??_dtoa,w
  5292  079E  1D03               	skipz
  5293  079F  2FA2               	goto	u1465
  5294  07A0  3001               	movlw	1
  5295  07A1  023D               	subwf	dtoa@p,w
  5296  07A2                     u1465:
  5297  07A2  1803               	skipnc
  5298  07A3  2FA5               	goto	u1461
  5299  07A4  2FA6               	goto	u1460
  5300  07A5                     u1461:
  5301  07A5  2F16               	goto	l2860
  5302  07A6                     u1460:
  5303  07A6                     l2874:
  5304  07A6  0020               	movlb	0	; select bank0
  5305  07A7  0841               	movf	dtoa@w+1,w
  5306  07A8  3A80               	xorlw	128
  5307  07A9  00B8               	movwf	??_dtoa
  5308  07AA  3080               	movlw	128
  5309  07AB  0238               	subwf	??_dtoa,w
  5310  07AC  1D03               	skipz
  5311  07AD  2FB0               	goto	u1475
  5312  07AE  3001               	movlw	1
  5313  07AF  0240               	subwf	dtoa@w,w
  5314  07B0                     u1475:
  5315  07B0  1C03               	skipc
  5316  07B1  2FB3               	goto	u1471
  5317  07B2  2FB4               	goto	u1470
  5318  07B3                     u1471:
  5319  07B3  2FB9               	goto	l2878
  5320  07B4                     u1470:
  5321  07B4                     l2876:
  5322  07B4  0021               	movlb	1	; select bank1
  5323  07B5  18C3               	btfsc	_flags^(0+128),1
  5324  07B6  2FB8               	goto	u1481
  5325  07B7  2FB9               	goto	u1480
  5326  07B8                     u1481:
  5327  07B8  2F16               	goto	l2860
  5328  07B9                     u1480:
  5329  07B9                     l2878:
  5330                           
  5331                           ;C:\Program Files\Microchip\xc8\v2.32\pic\sources\c99\common\doprnt.c: 321:     if (s ||
      +                           (flags & (1 << 2))) {
  5332  07B9  0020               	movlb	0	; select bank0
  5333  07BA  0842               	movf	dtoa@s,w
  5334  07BB  0443               	iorwf	dtoa@s+1,w
  5335  07BC  1D03               	btfss	3,2
  5336  07BD  2FBF               	goto	u1491
  5337  07BE  2FC0               	goto	u1490
  5338  07BF                     u1491:
  5339  07BF  2FC5               	goto	l2882
  5340  07C0                     u1490:
  5341  07C0                     l2880:
  5342  07C0  0021               	movlb	1	; select bank1
  5343  07C1  1D43               	btfss	_flags^(0+128),2
  5344  07C2  2FC4               	goto	u1501
  5345  07C3  2FC5               	goto	u1500
  5346  07C4                     u1501:
  5347  07C4  2FE1               	goto	l2892
  5348  07C5                     u1500:
  5349  07C5                     l2882:
  5350                           
  5351                           ;C:\Program Files\Microchip\xc8\v2.32\pic\sources\c99\common\doprnt.c: 322:         --i;
  5352  07C5  30FF               	movlw	255
  5353  07C6  0020               	movlb	0	; select bank0
  5354  07C7  07CC               	addwf	dtoa@i,f
  5355  07C8  30FF               	movlw	255
  5356  07C9  3DCD               	addwfc	dtoa@i+1,f
  5357  07CA                     l2884:
  5358                           
  5359                           ;C:\Program Files\Microchip\xc8\v2.32\pic\sources\c99\common\doprnt.c: 323:         dbuf
      +                          [i] = s ? '-' : '+';
  5360  07CA  0842               	movf	dtoa@s,w
  5361  07CB  0443               	iorwf	dtoa@s+1,w
  5362  07CC  1D03               	btfss	3,2
  5363  07CD  2FCF               	goto	u1511
  5364  07CE  2FD0               	goto	u1510
  5365  07CF                     u1511:
  5366  07CF  2FD5               	goto	l2888
  5367  07D0                     u1510:
  5368  07D0                     l2886:
  5369  07D0  302B               	movlw	43
  5370  07D1  00BB               	movwf	_dtoa$1724
  5371  07D2  3000               	movlw	0
  5372  07D3  00BC               	movwf	_dtoa$1724+1
  5373  07D4  2FD9               	goto	l2890
  5374  07D5                     l2888:
  5375  07D5  302D               	movlw	45
  5376  07D6  00BB               	movwf	_dtoa$1724
  5377  07D7  3000               	movlw	0
  5378  07D8  00BC               	movwf	_dtoa$1724+1
  5379  07D9                     l2890:
  5380  07D9  083B               	movf	_dtoa$1724,w
  5381  07DA  00B8               	movwf	??_dtoa
  5382  07DB  084C               	movf	dtoa@i,w
  5383  07DC  3EC6               	addlw	(low (_dbuf| 0))& (0+255)
  5384  07DD  0086               	movwf	6
  5385  07DE  0187               	clrf	7
  5386  07DF  0838               	movf	??_dtoa,w
  5387  07E0  0081               	movwf	1
  5388  07E1                     l2892:
  5389                           
  5390                           ;C:\Program Files\Microchip\xc8\v2.32\pic\sources\c99\common\doprnt.c: 327:     return p
      +                          ad(fp, &dbuf[i], w);
  5391  07E1  0020               	movlb	0	; select bank0
  5392  07E2  084C               	movf	dtoa@i,w
  5393  07E3  3EC6               	addlw	(low (_dbuf| 0))& (0+255)
  5394  07E4  00B8               	movwf	??_dtoa
  5395  07E5  0838               	movf	??_dtoa,w
  5396  07E6  00A4               	movwf	pad@buf
  5397  07E7  0841               	movf	dtoa@w+1,w
  5398  07E8  00A6               	movwf	pad@p+1
  5399  07E9  0840               	movf	dtoa@w,w
  5400  07EA  00A5               	movwf	pad@p
  5401  07EB  083F               	movf	dtoa@fp,w
  5402  07EC  3182  22FA  3186   	fcall	_pad
  5403  07EF  0020               	movlb	0	; select bank0
  5404  07F0  0825               	movf	?_pad+1,w
  5405  07F1  00B1               	movwf	?_dtoa+1
  5406  07F2  0824               	movf	?_pad,w
  5407  07F3  00B0               	movwf	?_dtoa
  5408  07F4                     l1329:
  5409  07F4  0008               	return
  5410  07F5                     __end_of_dtoa:
  5411                           
  5412                           	psect	text5
  5413  02FA                     __ptext5:	
  5414 ;; *************** function _pad *****************
  5415 ;; Defined at:
  5416 ;;		line 72 in file "C:\Program Files\Microchip\xc8\v2.32\pic\sources\c99\common\doprnt.c"
  5417 ;; Parameters:    Size  Location     Type
  5418 ;;  fp              1    wreg     PTR struct _IO_FILE
  5419 ;;		 -> NULL(0), 
  5420 ;;  buf             1    4[BANK0 ] PTR unsigned char 
  5421 ;;		 -> dbuf(32), 
  5422 ;;  p               2    5[BANK0 ] int 
  5423 ;; Auto vars:     Size  Location     Type
  5424 ;;  fp              1   12[BANK0 ] PTR struct _IO_FILE
  5425 ;;		 -> NULL(0), 
  5426 ;;  w               2   10[BANK0 ] int 
  5427 ;;  i               2    8[BANK0 ] int 
  5428 ;; Return value:  Size  Location     Type
  5429 ;;                  2    4[BANK0 ] int 
  5430 ;; Registers used:
  5431 ;;		wreg, fsr1l, fsr1h, status,2, status,0, pclath, cstack
  5432 ;; Tracked objects:
  5433 ;;		On entry : 0/0
  5434 ;;		On exit  : 0/0
  5435 ;;		Unchanged: 0/0
  5436 ;; Data sizes:     COMMON   BANK0   BANK1   BANK2   BANK3   BANK4   BANK5   BANK6   BANK7   BANK8   BANK9  BANK10  BANK1
      +1  BANK12
  5437 ;;      Params:         0       3       0       0       0       0       0       0       0       0       0       0       
      +0       0
  5438 ;;      Locals:         0       5       0       0       0       0       0       0       0       0       0       0       
      +0       0
  5439 ;;      Temps:          0       1       0       0       0       0       0       0       0       0       0       0       
      +0       0
  5440 ;;      Totals:         0       9       0       0       0       0       0       0       0       0       0       0       
      +0       0
  5441 ;;Total ram usage:        9 bytes
  5442 ;; Hardware stack levels used: 1
  5443 ;; Hardware stack levels required when called: 4
  5444 ;; This function calls:
  5445 ;;		_fputc
  5446 ;;		_fputs
  5447 ;;		_strlen
  5448 ;; This function is called by:
  5449 ;;		_dtoa
  5450 ;; This function uses a non-reentrant model
  5451 ;;
  5452                           
  5453                           
  5454                           ;psect for function _pad
  5455  02FA                     _pad:
  5456                           
  5457                           ;incstack = 0
  5458                           ; Regs used in _pad: [wreg+fsr1l+fsr1h+status,2+status,0+pclath+cstack]
  5459                           ;pad@fp stored from wreg
  5460  02FA  0020               	movlb	0	; select bank0
  5461  02FB  00AC               	movwf	pad@fp
  5462  02FC                     l2804:
  5463                           
  5464                           ;C:\Program Files\Microchip\xc8\v2.32\pic\sources\c99\common\doprnt.c: 72: static int pa
      +                          d(FILE *fp, char *buf, int p);C:\Program Files\Microchip\xc8\v2.32\pic\sources\c99\commo
      +                          n\doprnt.c: 73: {;C:\Program Files\Microchip\xc8\v2.32\pic\sources\c99\common\doprnt.c: 
      +                          74:     int i, w;;C:\Program Files\Microchip\xc8\v2.32\pic\sources\c99\common\doprnt.c: 
      +                          77:     if (flags & (1 << 0)) {
  5465  02FC  0021               	movlb	1	; select bank1
  5466  02FD  1C43               	btfss	_flags^(0+128),0
  5467  02FE  2B00               	goto	u1301
  5468  02FF  2B01               	goto	u1300
  5469  0300                     u1301:
  5470  0300  2B0A               	goto	l2808
  5471  0301                     u1300:
  5472  0301                     l2806:
  5473                           
  5474                           ;C:\Program Files\Microchip\xc8\v2.32\pic\sources\c99\common\doprnt.c: 78:         fputs
      +                          ((const char *)buf, fp);
  5475  0301  0020               	movlb	0	; select bank0
  5476  0302  082C               	movf	pad@fp,w
  5477  0303  00A7               	movwf	??_pad
  5478  0304  0827               	movf	??_pad,w
  5479  0305  00FA               	movwf	fputs@fp
  5480  0306  0824               	movf	pad@buf,w
  5481  0307  3180  2099  3182   	fcall	_fputs
  5482  030A                     l2808:
  5483                           
  5484                           ;C:\Program Files\Microchip\xc8\v2.32\pic\sources\c99\common\doprnt.c: 82:     w = (p < 
      +                          0) ? 0 : p;
  5485  030A  0020               	movlb	0	; select bank0
  5486  030B  1BA6               	btfsc	pad@p+1,7
  5487  030C  2B0E               	goto	u1311
  5488  030D  2B0F               	goto	u1310
  5489  030E                     u1311:
  5490  030E  2B14               	goto	l2812
  5491  030F                     u1310:
  5492  030F                     l2810:
  5493  030F  0826               	movf	pad@p+1,w
  5494  0310  00AB               	movwf	pad@w+1
  5495  0311  0825               	movf	pad@p,w
  5496  0312  00AA               	movwf	pad@w
  5497  0313  2B16               	goto	l1298
  5498  0314                     l2812:
  5499  0314  01AA               	clrf	pad@w
  5500  0315  01AB               	clrf	pad@w+1
  5501  0316                     l1298:
  5502                           
  5503                           ;C:\Program Files\Microchip\xc8\v2.32\pic\sources\c99\common\doprnt.c: 83:     i = 0;
  5504  0316  01A8               	clrf	pad@i
  5505  0317  01A9               	clrf	pad@i+1
  5506                           
  5507                           ;C:\Program Files\Microchip\xc8\v2.32\pic\sources\c99\common\doprnt.c: 84:     while (i 
      +                          < w) {
  5508  0318  2B2A               	goto	l2818
  5509  0319                     l2814:
  5510                           
  5511                           ;C:\Program Files\Microchip\xc8\v2.32\pic\sources\c99\common\doprnt.c: 85:         fputc
      +                          (' ', fp);
  5512  0319  3020               	movlw	32
  5513  031A  00F2               	movwf	fputc@c
  5514  031B  3000               	movlw	0
  5515  031C  00F3               	movwf	fputc@c+1
  5516  031D  0020               	movlb	0	; select bank0
  5517  031E  082C               	movf	pad@fp,w
  5518  031F  00A7               	movwf	??_pad
  5519  0320  0827               	movf	??_pad,w
  5520  0321  00F4               	movwf	fputc@fp
  5521  0322  3182  2220  3182   	fcall	_fputc
  5522  0325                     l2816:
  5523                           
  5524                           ;C:\Program Files\Microchip\xc8\v2.32\pic\sources\c99\common\doprnt.c: 86:         ++i;
  5525  0325  3001               	movlw	1
  5526  0326  0020               	movlb	0	; select bank0
  5527  0327  07A8               	addwf	pad@i,f
  5528  0328  3000               	movlw	0
  5529  0329  3DA9               	addwfc	pad@i+1,f
  5530  032A                     l2818:
  5531                           
  5532                           ;C:\Program Files\Microchip\xc8\v2.32\pic\sources\c99\common\doprnt.c: 84:     while (i 
      +                          < w) {
  5533  032A  0829               	movf	pad@i+1,w
  5534  032B  3A80               	xorlw	128
  5535  032C  00A7               	movwf	??_pad
  5536  032D  082B               	movf	pad@w+1,w
  5537  032E  3A80               	xorlw	128
  5538  032F  0227               	subwf	??_pad,w
  5539  0330  1D03               	skipz
  5540  0331  2B34               	goto	u1325
  5541  0332  082A               	movf	pad@w,w
  5542  0333  0228               	subwf	pad@i,w
  5543  0334                     u1325:
  5544  0334  1C03               	skipc
  5545  0335  2B37               	goto	u1321
  5546  0336  2B38               	goto	u1320
  5547  0337                     u1321:
  5548  0337  2B19               	goto	l2814
  5549  0338                     u1320:
  5550  0338                     l1301:
  5551                           
  5552                           ;C:\Program Files\Microchip\xc8\v2.32\pic\sources\c99\common\doprnt.c: 90:     if (!(fla
      +                          gs & (1 << 0))) {
  5553  0338  0021               	movlb	1	; select bank1
  5554  0339  1843               	btfsc	_flags^(0+128),0
  5555  033A  2B3C               	goto	u1331
  5556  033B  2B3D               	goto	u1330
  5557  033C                     u1331:
  5558  033C  2B46               	goto	l1302
  5559  033D                     u1330:
  5560  033D                     l2820:
  5561                           
  5562                           ;C:\Program Files\Microchip\xc8\v2.32\pic\sources\c99\common\doprnt.c: 91:         fputs
      +                          ((const char *)buf, fp);
  5563  033D  0020               	movlb	0	; select bank0
  5564  033E  082C               	movf	pad@fp,w
  5565  033F  00A7               	movwf	??_pad
  5566  0340  0827               	movf	??_pad,w
  5567  0341  00FA               	movwf	fputs@fp
  5568  0342  0824               	movf	pad@buf,w
  5569  0343  3180  2099  3182   	fcall	_fputs
  5570  0346                     l1302:	
  5571                           ;C:\Program Files\Microchip\xc8\v2.32\pic\sources\c99\common\doprnt.c: 92:     }
  5572                           
  5573                           
  5574                           ;C:\Program Files\Microchip\xc8\v2.32\pic\sources\c99\common\doprnt.c: 94:     return (i
      +                          nt)(strlen(buf) + (size_t)w);
  5575  0346  0020               	movlb	0	; select bank0
  5576  0347  0824               	movf	pad@buf,w
  5577  0348  318F  27B1  3182   	fcall	_strlen
  5578  034B  0020               	movlb	0	; select bank0
  5579  034C  082A               	movf	pad@w,w
  5580  034D  0770               	addwf	?_strlen,w
  5581  034E  00A4               	movwf	?_pad
  5582  034F  082B               	movf	pad@w+1,w
  5583  0350  3D71               	addwfc	?_strlen+1,w
  5584  0351  00A5               	movwf	?_pad+1
  5585  0352                     l1303:
  5586  0352  0008               	return
  5587  0353                     __end_of_pad:
  5588                           
  5589                           	psect	text6
  5590  0FB1                     __ptext6:	
  5591 ;; *************** function _strlen *****************
  5592 ;; Defined at:
  5593 ;;		line 5 in file "C:\Program Files\Microchip\xc8\v2.32\pic\sources\c99\common\strlen.c"
  5594 ;; Parameters:    Size  Location     Type
  5595 ;;  s               1    wreg     PTR const unsigned char 
  5596 ;;		 -> dbuf(32), 
  5597 ;; Auto vars:     Size  Location     Type
  5598 ;;  s               1    4[COMMON] PTR const unsigned char 
  5599 ;;		 -> dbuf(32), 
  5600 ;;  a               1    3[COMMON] PTR const unsigned char 
  5601 ;;		 -> dbuf(32), 
  5602 ;; Return value:  Size  Location     Type
  5603 ;;                  2    0[COMMON] unsigned int 
  5604 ;; Registers used:
  5605 ;;		wreg, fsr1l, fsr1h, status,2, status,0
  5606 ;; Tracked objects:
  5607 ;;		On entry : 0/0
  5608 ;;		On exit  : 0/0
  5609 ;;		Unchanged: 0/0
  5610 ;; Data sizes:     COMMON   BANK0   BANK1   BANK2   BANK3   BANK4   BANK5   BANK6   BANK7   BANK8   BANK9  BANK10  BANK1
      +1  BANK12
  5611 ;;      Params:         2       0       0       0       0       0       0       0       0       0       0       0       
      +0       0
  5612 ;;      Locals:         2       0       0       0       0       0       0       0       0       0       0       0       
      +0       0
  5613 ;;      Temps:          1       0       0       0       0       0       0       0       0       0       0       0       
      +0       0
  5614 ;;      Totals:         5       0       0       0       0       0       0       0       0       0       0       0       
      +0       0
  5615 ;;Total ram usage:        5 bytes
  5616 ;; Hardware stack levels used: 1
  5617 ;; This function calls:
  5618 ;;		Nothing
  5619 ;; This function is called by:
  5620 ;;		_pad
  5621 ;; This function uses a non-reentrant model
  5622 ;;
  5623                           
  5624                           
  5625                           ;psect for function _strlen
  5626  0FB1                     _strlen:
  5627                           
  5628                           ;incstack = 0
  5629                           ; Regs used in _strlen: [wreg+fsr1l+fsr1h+status,2+status,0]
  5630                           ;strlen@s stored from wreg
  5631  0FB1  00F4               	movwf	strlen@s
  5632  0FB2                     l2714:
  5633  0FB2  0874               	movf	strlen@s,w
  5634  0FB3  00F2               	movwf	??_strlen
  5635  0FB4  0872               	movf	??_strlen,w
  5636  0FB5  00F3               	movwf	strlen@a
  5637  0FB6  2FBB               	goto	l2718
  5638  0FB7                     l2716:
  5639  0FB7  3001               	movlw	1
  5640  0FB8  00F2               	movwf	??_strlen
  5641  0FB9  0872               	movf	??_strlen,w
  5642  0FBA  07F4               	addwf	strlen@s,f
  5643  0FBB                     l2718:
  5644  0FBB  0874               	movf	strlen@s,w
  5645  0FBC  0086               	movwf	6
  5646  0FBD  0187               	clrf	7
  5647  0FBE  0801               	movf	1,w
  5648  0FBF  1D03               	btfss	3,2
  5649  0FC0  2FC2               	goto	u1051
  5650  0FC1  2FC3               	goto	u1050
  5651  0FC2                     u1051:
  5652  0FC2  2FB7               	goto	l2716
  5653  0FC3                     u1050:
  5654  0FC3                     l2720:
  5655  0FC3  0873               	movf	strlen@a,w
  5656  0FC4  0274               	subwf	strlen@s,w
  5657  0FC5  00F0               	movwf	?_strlen
  5658  0FC6  01F1               	clrf	?_strlen+1
  5659  0FC7  1BF0               	btfsc	?_strlen,7
  5660  0FC8  03F1               	decf	?_strlen+1,f
  5661  0FC9                     l1376:
  5662  0FC9  0008               	return
  5663  0FCA                     __end_of_strlen:
  5664                           
  5665                           	psect	text7
  5666  0099                     __ptext7:	
  5667 ;; *************** function _fputs *****************
  5668 ;; Defined at:
  5669 ;;		line 8 in file "C:\Program Files\Microchip\xc8\v2.32\pic\sources\c99\common\nf_fputs.c"
  5670 ;; Parameters:    Size  Location     Type
  5671 ;;  s               1    wreg     PTR const unsigned char 
  5672 ;;		 -> dbuf(32), 
  5673 ;;  fp              1   10[COMMON] PTR struct _IO_FILE
  5674 ;;		 -> NULL(0), 
  5675 ;; Auto vars:     Size  Location     Type
  5676 ;;  s               1    3[BANK0 ] PTR const unsigned char 
  5677 ;;		 -> dbuf(32), 
  5678 ;;  i               2    1[BANK0 ] int 
  5679 ;;  c               1    0[BANK0 ] unsigned char 
  5680 ;; Return value:  Size  Location     Type
  5681 ;;                  2   10[COMMON] int 
  5682 ;; Registers used:
  5683 ;;		wreg, fsr1l, fsr1h, status,2, status,0, pclath, cstack
  5684 ;; Tracked objects:
  5685 ;;		On entry : 0/0
  5686 ;;		On exit  : 0/0
  5687 ;;		Unchanged: 0/0
  5688 ;; Data sizes:     COMMON   BANK0   BANK1   BANK2   BANK3   BANK4   BANK5   BANK6   BANK7   BANK8   BANK9  BANK10  BANK1
      +1  BANK12
  5689 ;;      Params:         1       0       0       0       0       0       0       0       0       0       0       0       
      +0       0
  5690 ;;      Locals:         0       4       0       0       0       0       0       0       0       0       0       0       
      +0       0
  5691 ;;      Temps:          3       0       0       0       0       0       0       0       0       0       0       0       
      +0       0
  5692 ;;      Totals:         4       4       0       0       0       0       0       0       0       0       0       0       
      +0       0
  5693 ;;Total ram usage:        8 bytes
  5694 ;; Hardware stack levels used: 1
  5695 ;; Hardware stack levels required when called: 3
  5696 ;; This function calls:
  5697 ;;		_fputc
  5698 ;; This function is called by:
  5699 ;;		_pad
  5700 ;; This function uses a non-reentrant model
  5701 ;;
  5702                           
  5703                           
  5704                           ;psect for function _fputs
  5705  0099                     _fputs:
  5706                           
  5707                           ;incstack = 0
  5708                           ; Regs used in _fputs: [wreg+fsr1l+fsr1h+status,2+status,0+pclath+cstack]
  5709                           ;fputs@s stored from wreg
  5710  0099  0020               	movlb	0	; select bank0
  5711  009A  00A3               	movwf	fputs@s
  5712  009B                     l2706:
  5713  009B  01A1               	clrf	fputs@i
  5714  009C  01A2               	clrf	fputs@i+1
  5715  009D  28B1               	goto	l2712
  5716  009E                     l2708:
  5717  009E  0820               	movf	fputs@c,w
  5718  009F  00FB               	movwf	??_fputs
  5719  00A0  01FC               	clrf	??_fputs+1
  5720  00A1  087B               	movf	??_fputs,w
  5721  00A2  00F2               	movwf	fputc@c
  5722  00A3  087C               	movf	??_fputs+1,w
  5723  00A4  00F3               	movwf	fputc@c+1
  5724  00A5  087A               	movf	fputs@fp,w
  5725  00A6  00FD               	movwf	??_fputs+2
  5726  00A7  087D               	movf	??_fputs+2,w
  5727  00A8  00F4               	movwf	fputc@fp
  5728  00A9  3182  2220  3180   	fcall	_fputc
  5729  00AC                     l2710:
  5730  00AC  3001               	movlw	1
  5731  00AD  0020               	movlb	0	; select bank0
  5732  00AE  07A1               	addwf	fputs@i,f
  5733  00AF  3000               	movlw	0
  5734  00B0  3DA2               	addwfc	fputs@i+1,f
  5735  00B1                     l2712:
  5736  00B1  0821               	movf	fputs@i,w
  5737  00B2  0723               	addwf	fputs@s,w
  5738  00B3  00FB               	movwf	??_fputs
  5739  00B4  087B               	movf	??_fputs,w
  5740  00B5  0086               	movwf	6
  5741  00B6  0187               	clrf	7
  5742  00B7  0801               	movf	1,w
  5743  00B8  00FC               	movwf	??_fputs+1
  5744  00B9  087C               	movf	??_fputs+1,w
  5745  00BA  00A0               	movwf	fputs@c
  5746  00BB  0820               	movf	fputs@c,w
  5747  00BC  1D03               	btfss	3,2
  5748  00BD  28BF               	goto	u1041
  5749  00BE  28C0               	goto	u1040
  5750  00BF                     u1041:
  5751  00BF  289E               	goto	l2708
  5752  00C0                     u1040:
  5753  00C0                     l1370:
  5754  00C0  0008               	return
  5755  00C1                     __end_of_fputs:
  5756                           
  5757                           	psect	text8
  5758  0220                     __ptext8:	
  5759 ;; *************** function _fputc *****************
  5760 ;; Defined at:
  5761 ;;		line 8 in file "C:\Program Files\Microchip\xc8\v2.32\pic\sources\c99\common\nf_fputc.c"
  5762 ;; Parameters:    Size  Location     Type
  5763 ;;  c               2    2[COMMON] int 
  5764 ;;  fp              1    4[COMMON] PTR struct _IO_FILE
  5765 ;;		 -> NULL(0), 
  5766 ;; Auto vars:     Size  Location     Type
  5767 ;;		None
  5768 ;; Return value:  Size  Location     Type
  5769 ;;                  2    2[COMMON] int 
  5770 ;; Registers used:
  5771 ;;		wreg, fsr1l, fsr1h, status,2, status,0, pclath, cstack
  5772 ;; Tracked objects:
  5773 ;;		On entry : 0/0
  5774 ;;		On exit  : 0/0
  5775 ;;		Unchanged: 0/0
  5776 ;; Data sizes:     COMMON   BANK0   BANK1   BANK2   BANK3   BANK4   BANK5   BANK6   BANK7   BANK8   BANK9  BANK10  BANK1
      +1  BANK12
  5777 ;;      Params:         3       0       0       0       0       0       0       0       0       0       0       0       
      +0       0
  5778 ;;      Locals:         0       0       0       0       0       0       0       0       0       0       0       0       
      +0       0
  5779 ;;      Temps:          5       0       0       0       0       0       0       0       0       0       0       0       
      +0       0
  5780 ;;      Totals:         8       0       0       0       0       0       0       0       0       0       0       0       
      +0       0
  5781 ;;Total ram usage:        8 bytes
  5782 ;; Hardware stack levels used: 1
  5783 ;; Hardware stack levels required when called: 2
  5784 ;; This function calls:
  5785 ;;		_putch
  5786 ;; This function is called by:
  5787 ;;		_pad
  5788 ;;		_vfpfcnvrt
  5789 ;;		_fputs
  5790 ;; This function uses a non-reentrant model
  5791 ;;
  5792                           
  5793                           
  5794                           ;psect for function _fputc
  5795  0220                     _fputc:
  5796  0220                     l2530:	
  5797                           ;incstack = 0
  5798                           ; Regs used in _fputc: [wreg+fsr1l+fsr1h+status,2+status,0+pclath+cstack]
  5799                           
  5800  0220  0874               	movf	fputc@fp,w
  5801  0221  1903               	btfsc	3,2
  5802  0222  2A24               	goto	u971
  5803  0223  2A25               	goto	u970
  5804  0224                     u971:
  5805  0224  2A2A               	goto	l2534
  5806  0225                     u970:
  5807  0225                     l2532:
  5808  0225  0874               	movf	fputc@fp,w
  5809  0226  1D03               	btfss	3,2
  5810  0227  2A29               	goto	u981
  5811  0228  2A2A               	goto	u980
  5812  0229                     u981:
  5813  0229  2A2F               	goto	l2536
  5814  022A                     u980:
  5815  022A                     l2534:
  5816  022A  0872               	movf	fputc@c,w
  5817  022B  318E  26B1  3182   	fcall	_putch
  5818  022E  2A5E               	goto	l1362
  5819  022F                     l2536:
  5820  022F  0874               	movf	fputc@fp,w
  5821  0230  3E03               	addlw	3
  5822  0231  0086               	movwf	6
  5823  0232  0187               	clrf	7
  5824  0233  0016               	moviw fsr1++
  5825  0234  0401               	iorwf	1,w
  5826  0235  1903               	btfsc	3,2
  5827  0236  2A38               	goto	u991
  5828  0237  2A39               	goto	u990
  5829  0238                     u991:
  5830  0238  2A56               	goto	l2540
  5831  0239                     u990:
  5832  0239                     l2538:
  5833  0239  0874               	movf	fputc@fp,w
  5834  023A  3E03               	addlw	3
  5835  023B  0086               	movwf	6
  5836  023C  0187               	clrf	7
  5837  023D  3F40               	moviw [0]fsr1
  5838  023E  00F5               	movwf	??_fputc
  5839  023F  3F41               	moviw [1]fsr1
  5840  0240  00F6               	movwf	??_fputc+1
  5841  0241  0A74               	incf	fputc@fp,w
  5842  0242  0086               	movwf	6
  5843  0243  0187               	clrf	7
  5844  0244  3F40               	moviw [0]fsr1
  5845  0245  00F7               	movwf	??_fputc+2
  5846  0246  3F41               	moviw [1]fsr1
  5847  0247  00F8               	movwf	??_fputc+3
  5848  0248  0878               	movf	??_fputc+3,w
  5849  0249  3A80               	xorlw	128
  5850  024A  00F9               	movwf	??_fputc+4
  5851  024B  0876               	movf	??_fputc+1,w
  5852  024C  3A80               	xorlw	128
  5853  024D  0279               	subwf	??_fputc+4,w
  5854  024E  1D03               	skipz
  5855  024F  2A52               	goto	u1005
  5856  0250  0875               	movf	??_fputc,w
  5857  0251  0277               	subwf	??_fputc+2,w
  5858  0252                     u1005:
  5859  0252  1803               	skipnc
  5860  0253  2A55               	goto	u1001
  5861  0254  2A56               	goto	u1000
  5862  0255                     u1001:
  5863  0255  2A5E               	goto	l1362
  5864  0256                     u1000:
  5865  0256                     l2540:
  5866  0256  0A74               	incf	fputc@fp,w
  5867  0257  0086               	movwf	6
  5868  0258  0187               	clrf	7
  5869  0259  3001               	movlw	1
  5870  025A  0781               	addwf	1,f
  5871  025B  3141               	addfsr 1,1
  5872  025C  1803               	skipnc
  5873  025D  0A81               	incf	1,f
  5874  025E                     l1362:
  5875  025E  0008               	return
  5876  025F                     __end_of_fputc:
  5877                           
  5878                           	psect	text9
  5879  0EB1                     __ptext9:	
  5880 ;; *************** function _putch *****************
  5881 ;; Defined at:
  5882 ;;		line 146 in file "mcc_generated_files/eusart.c"
  5883 ;; Parameters:    Size  Location     Type
  5884 ;;  txData          1    wreg     unsigned char 
  5885 ;; Auto vars:     Size  Location     Type
  5886 ;;  txData          1    1[COMMON] unsigned char 
  5887 ;; Return value:  Size  Location     Type
  5888 ;;                  1    wreg      void 
  5889 ;; Registers used:
  5890 ;;		wreg, status,2, status,0, pclath, cstack
  5891 ;; Tracked objects:
  5892 ;;		On entry : 0/0
  5893 ;;		On exit  : 0/0
  5894 ;;		Unchanged: 0/0
  5895 ;; Data sizes:     COMMON   BANK0   BANK1   BANK2   BANK3   BANK4   BANK5   BANK6   BANK7   BANK8   BANK9  BANK10  BANK1
      +1  BANK12
  5896 ;;      Params:         0       0       0       0       0       0       0       0       0       0       0       0       
      +0       0
  5897 ;;      Locals:         1       0       0       0       0       0       0       0       0       0       0       0       
      +0       0
  5898 ;;      Temps:          0       0       0       0       0       0       0       0       0       0       0       0       
      +0       0
  5899 ;;      Totals:         1       0       0       0       0       0       0       0       0       0       0       0       
      +0       0
  5900 ;;Total ram usage:        1 bytes
  5901 ;; Hardware stack levels used: 1
  5902 ;; Hardware stack levels required when called: 1
  5903 ;; This function calls:
  5904 ;;		_EUSART_Write
  5905 ;; This function is called by:
  5906 ;;		_fputc
  5907 ;; This function uses a non-reentrant model
  5908 ;;
  5909                           
  5910                           
  5911                           ;psect for function _putch
  5912  0EB1                     _putch:
  5913                           
  5914                           ;incstack = 0
  5915                           ; Regs used in _putch: [wreg+status,2+status,0+pclath+cstack]
  5916                           ;putch@txData stored from wreg
  5917  0EB1  00F1               	movwf	putch@txData
  5918  0EB2                     l2416:
  5919                           
  5920                           ;mcc_generated_files/eusart.c: 146: void putch(char txData);mcc_generated_files/eusart.c
      +                          : 147: {;mcc_generated_files/eusart.c: 148:     EUSART_Write(txData);
  5921  0EB2  0871               	movf	putch@txData,w
  5922  0EB3  3180  2005  318E   	fcall	_EUSART_Write
  5923  0EB6                     l76:
  5924  0EB6  0008               	return
  5925  0EB7                     __end_of_putch:
  5926                           
  5927                           	psect	text10
  5928  0005                     __ptext10:	
  5929 ;; *************** function _EUSART_Write *****************
  5930 ;; Defined at:
  5931 ;;		line 132 in file "mcc_generated_files/eusart.c"
  5932 ;; Parameters:    Size  Location     Type
  5933 ;;  txData          1    wreg     unsigned char 
  5934 ;; Auto vars:     Size  Location     Type
  5935 ;;  txData          1    0[COMMON] unsigned char 
  5936 ;; Return value:  Size  Location     Type
  5937 ;;                  1    wreg      void 
  5938 ;; Registers used:
  5939 ;;		wreg
  5940 ;; Tracked objects:
  5941 ;;		On entry : 0/0
  5942 ;;		On exit  : 0/0
  5943 ;;		Unchanged: 0/0
  5944 ;; Data sizes:     COMMON   BANK0   BANK1   BANK2   BANK3   BANK4   BANK5   BANK6   BANK7   BANK8   BANK9  BANK10  BANK1
      +1  BANK12
  5945 ;;      Params:         0       0       0       0       0       0       0       0       0       0       0       0       
      +0       0
  5946 ;;      Locals:         1       0       0       0       0       0       0       0       0       0       0       0       
      +0       0
  5947 ;;      Temps:          0       0       0       0       0       0       0       0       0       0       0       0       
      +0       0
  5948 ;;      Totals:         1       0       0       0       0       0       0       0       0       0       0       0       
      +0       0
  5949 ;;Total ram usage:        1 bytes
  5950 ;; Hardware stack levels used: 1
  5951 ;; This function calls:
  5952 ;;		Nothing
  5953 ;; This function is called by:
  5954 ;;		_putch
  5955 ;; This function uses a non-reentrant model
  5956 ;;
  5957                           
  5958                           
  5959                           ;psect for function _EUSART_Write
  5960  0005                     _EUSART_Write:
  5961                           
  5962                           ;incstack = 0
  5963                           ; Regs used in _EUSART_Write: [wreg]
  5964                           ;EUSART_Write@txData stored from wreg
  5965  0005  00F0               	movwf	EUSART_Write@txData
  5966  0006                     l2406:
  5967  0006                     l67:	
  5968                           ;mcc_generated_files/eusart.c: 135:     {;mcc_generated_files/eusart.c: 136:     }
  5969                           
  5970                           
  5971                           ;mcc_generated_files/eusart.c: 134:     while(0 == PIR3bits.TXIF)
  5972  0006  002E               	movlb	14	; select bank14
  5973  0007  1E0F               	btfss	15,4	;volatile
  5974  0008  280A               	goto	u941
  5975  0009  280B               	goto	u940
  5976  000A                     u941:
  5977  000A  2806               	goto	l67
  5978  000B                     u940:
  5979  000B                     l2408:
  5980                           
  5981                           ;mcc_generated_files/eusart.c: 138:     TX1REG = txData;
  5982  000B  0870               	movf	EUSART_Write@txData,w
  5983  000C  0022               	movlb	2	; select bank2
  5984  000D  009A               	movwf	26	;volatile
  5985  000E                     l70:
  5986  000E  0008               	return
  5987  000F                     __end_of_EUSART_Write:
  5988                           
  5989                           	psect	text11
  5990  0FCA                     __ptext11:	
  5991 ;; *************** function _abs *****************
  5992 ;; Defined at:
  5993 ;;		line 1 in file "C:\Program Files\Microchip\xc8\v2.32\pic\sources\c99\common\abs.c"
  5994 ;; Parameters:    Size  Location     Type
  5995 ;;  a               2    3[COMMON] int 
  5996 ;; Auto vars:     Size  Location     Type
  5997 ;;		None
  5998 ;; Return value:  Size  Location     Type
  5999 ;;                  2    3[COMMON] int 
  6000 ;; Registers used:
  6001 ;;		wreg, status,2, status,0
  6002 ;; Tracked objects:
  6003 ;;		On entry : 0/0
  6004 ;;		On exit  : 0/0
  6005 ;;		Unchanged: 0/0
  6006 ;; Data sizes:     COMMON   BANK0   BANK1   BANK2   BANK3   BANK4   BANK5   BANK6   BANK7   BANK8   BANK9  BANK10  BANK1
      +1  BANK12
  6007 ;;      Params:         2       0       0       0       0       0       0       0       0       0       0       0       
      +0       0
  6008 ;;      Locals:         0       0       0       0       0       0       0       0       0       0       0       0       
      +0       0
  6009 ;;      Temps:          2       0       0       0       0       0       0       0       0       0       0       0       
      +0       0
  6010 ;;      Totals:         4       0       0       0       0       0       0       0       0       0       0       0       
      +0       0
  6011 ;;Total ram usage:        4 bytes
  6012 ;; Hardware stack levels used: 1
  6013 ;; This function calls:
  6014 ;;		Nothing
  6015 ;; This function is called by:
  6016 ;;		_dtoa
  6017 ;; This function uses a non-reentrant model
  6018 ;;
  6019                           
  6020                           
  6021                           ;psect for function _abs
  6022  0FCA                     _abs:
  6023  0FCA                     l2824:	
  6024                           ;incstack = 0
  6025                           ; Regs used in _abs: [wreg+status,2+status,0]
  6026                           
  6027  0FCA  0874               	movf	abs@a+1,w
  6028  0FCB  3A80               	xorlw	128
  6029  0FCC  00F5               	movwf	??_abs
  6030  0FCD  3080               	movlw	128
  6031  0FCE  0275               	subwf	??_abs,w
  6032  0FCF  1D03               	skipz
  6033  0FD0  2FD3               	goto	u1345
  6034  0FD1  3001               	movlw	1
  6035  0FD2  0273               	subwf	abs@a,w
  6036  0FD3                     u1345:
  6037  0FD3  1803               	skipnc
  6038  0FD4  2FD6               	goto	u1341
  6039  0FD5  2FD7               	goto	u1340
  6040  0FD6                     u1341:
  6041  0FD6  2FE3               	goto	l1347
  6042  0FD7                     u1340:
  6043  0FD7                     l2826:
  6044  0FD7  0973               	comf	abs@a,w
  6045  0FD8  00F5               	movwf	??_abs
  6046  0FD9  0974               	comf	abs@a+1,w
  6047  0FDA  00F6               	movwf	??_abs+1
  6048  0FDB  0AF5               	incf	??_abs,f
  6049  0FDC  1903               	skipnz
  6050  0FDD  0AF6               	incf	??_abs+1,f
  6051  0FDE  0875               	movf	??_abs,w
  6052  0FDF  00F3               	movwf	?_abs
  6053  0FE0  0876               	movf	??_abs+1,w
  6054  0FE1  00F4               	movwf	?_abs+1
  6055  0FE2  2FE3               	goto	l1350
  6056  0FE3                     l1347:
  6057  0FE3                     l1350:
  6058  0FE3  0008               	return
  6059  0FE4                     __end_of_abs:
  6060                           
  6061                           	psect	text12
  6062  049C                     __ptext12:	
  6063 ;; *************** function ___aomod *****************
  6064 ;; Defined at:
  6065 ;;		line 7 in file "C:\Program Files\Microchip\xc8\v2.32\pic\sources\c99\common\aomod.c"
  6066 ;; Parameters:    Size  Location     Type
  6067 ;;  divisor         8    0[BANK0 ] long long 
  6068 ;;  dividend        8    8[BANK0 ] long long 
  6069 ;; Auto vars:     Size  Location     Type
  6070 ;;  sign            1    2[COMMON] unsigned char 
  6071 ;;  counter         1    1[COMMON] unsigned char 
  6072 ;; Return value:  Size  Location     Type
  6073 ;;                  8    0[BANK0 ] long long 
  6074 ;; Registers used:
  6075 ;;		wreg, fsr1l, fsr1h, status,2, status,0
  6076 ;; Tracked objects:
  6077 ;;		On entry : 0/0
  6078 ;;		On exit  : 0/0
  6079 ;;		Unchanged: 0/0
  6080 ;; Data sizes:     COMMON   BANK0   BANK1   BANK2   BANK3   BANK4   BANK5   BANK6   BANK7   BANK8   BANK9  BANK10  BANK1
      +1  BANK12
  6081 ;;      Params:         0      16       0       0       0       0       0       0       0       0       0       0       
      +0       0
  6082 ;;      Locals:         2       0       0       0       0       0       0       0       0       0       0       0       
      +0       0
  6083 ;;      Temps:          1       0       0       0       0       0       0       0       0       0       0       0       
      +0       0
  6084 ;;      Totals:         3      16       0       0       0       0       0       0       0       0       0       0       
      +0       0
  6085 ;;Total ram usage:       19 bytes
  6086 ;; Hardware stack levels used: 1
  6087 ;; This function calls:
  6088 ;;		Nothing
  6089 ;; This function is called by:
  6090 ;;		_dtoa
  6091 ;; This function uses a non-reentrant model
  6092 ;;
  6093                           
  6094                           
  6095                           ;psect for function ___aomod
  6096  049C                     ___aomod:
  6097  049C                     l2774:	
  6098                           ;incstack = 0
  6099                           ; Regs used in ___aomod: [wreg+fsr1l+fsr1h+status,2+status,0]
  6100                           
  6101  049C  01F2               	clrf	___aomod@sign
  6102  049D                     l2776:
  6103  049D  3028               	movlw	low ___aomod@dividend
  6104  049E  0086               	movwf	6
  6105  049F  3000               	movlw	high ___aomod@dividend
  6106  04A0  0087               	movwf	7
  6107  04A1  3F47               	moviw [7]fsr1
  6108  04A2  00F0               	movwf	??___aomod
  6109  04A3  1FF0               	btfss	??___aomod,7
  6110  04A4  2CA6               	goto	u1201
  6111  04A5  2CA7               	goto	u1200
  6112  04A6                     u1201:
  6113  04A6  2CC8               	goto	l2780
  6114  04A7                     u1200:
  6115  04A7                     l2778:
  6116  04A7  0020               	movlb	0	; select bank0
  6117  04A8  09A8               	comf	___aomod@dividend,f
  6118  04A9  09A9               	comf	___aomod@dividend+1,f
  6119  04AA  09AA               	comf	___aomod@dividend+2,f
  6120  04AB  09AB               	comf	___aomod@dividend+3,f
  6121  04AC  09AC               	comf	___aomod@dividend+4,f
  6122  04AD  09AD               	comf	___aomod@dividend+5,f
  6123  04AE  09AE               	comf	___aomod@dividend+6,f
  6124  04AF  09AF               	comf	___aomod@dividend+7,f
  6125  04B0  0AA8               	incf	___aomod@dividend,f
  6126  04B1  1D03               	skipz
  6127  04B2  2CC6               	goto	u121lld
  6128  04B3  0AA9               	incf	___aomod@dividend+1,f
  6129  04B4  1D03               	skipz
  6130  04B5  2CC6               	goto	u121lld
  6131  04B6  0AAA               	incf	___aomod@dividend+2,f
  6132  04B7  1D03               	skipz
  6133  04B8  2CC6               	goto	u121lld
  6134  04B9  0AAB               	incf	___aomod@dividend+3,f
  6135  04BA  1D03               	skipz
  6136  04BB  2CC6               	goto	u121lld
  6137  04BC  0AAC               	incf	___aomod@dividend+4,f
  6138  04BD  1D03               	skipz
  6139  04BE  2CC6               	goto	u121lld
  6140  04BF  0AAD               	incf	___aomod@dividend+5,f
  6141  04C0  1D03               	skipz
  6142  04C1  2CC6               	goto	u121lld
  6143  04C2  0AAE               	incf	___aomod@dividend+6,f
  6144  04C3  1D03               	skipz
  6145  04C4  2CC6               	goto	u121lld
  6146  04C5  0AAF               	incf	___aomod@dividend+7,f
  6147  04C6                     u121lld:
  6148  04C6  01F2               	clrf	___aomod@sign
  6149  04C7  0AF2               	incf	___aomod@sign,f
  6150  04C8                     l2780:
  6151  04C8  3020               	movlw	low ___aomod@divisor
  6152  04C9  0086               	movwf	6
  6153  04CA  3000               	movlw	high ___aomod@divisor
  6154  04CB  0087               	movwf	7
  6155  04CC  3F47               	moviw [7]fsr1
  6156  04CD  00F0               	movwf	??___aomod
  6157  04CE  1FF0               	btfss	??___aomod,7
  6158  04CF  2CD1               	goto	u1221
  6159  04D0  2CD2               	goto	u1220
  6160  04D1                     u1221:
  6161  04D1  2CF1               	goto	l2784
  6162  04D2                     u1220:
  6163  04D2                     l2782:
  6164  04D2  0020               	movlb	0	; select bank0
  6165  04D3  09A0               	comf	___aomod@divisor,f
  6166  04D4  09A1               	comf	___aomod@divisor+1,f
  6167  04D5  09A2               	comf	___aomod@divisor+2,f
  6168  04D6  09A3               	comf	___aomod@divisor+3,f
  6169  04D7  09A4               	comf	___aomod@divisor+4,f
  6170  04D8  09A5               	comf	___aomod@divisor+5,f
  6171  04D9  09A6               	comf	___aomod@divisor+6,f
  6172  04DA  09A7               	comf	___aomod@divisor+7,f
  6173  04DB  0AA0               	incf	___aomod@divisor,f
  6174  04DC  1D03               	skipz
  6175  04DD  2CF1               	goto	u123lld
  6176  04DE  0AA1               	incf	___aomod@divisor+1,f
  6177  04DF  1D03               	skipz
  6178  04E0  2CF1               	goto	u123lld
  6179  04E1  0AA2               	incf	___aomod@divisor+2,f
  6180  04E2  1D03               	skipz
  6181  04E3  2CF1               	goto	u123lld
  6182  04E4  0AA3               	incf	___aomod@divisor+3,f
  6183  04E5  1D03               	skipz
  6184  04E6  2CF1               	goto	u123lld
  6185  04E7  0AA4               	incf	___aomod@divisor+4,f
  6186  04E8  1D03               	skipz
  6187  04E9  2CF1               	goto	u123lld
  6188  04EA  0AA5               	incf	___aomod@divisor+5,f
  6189  04EB  1D03               	skipz
  6190  04EC  2CF1               	goto	u123lld
  6191  04ED  0AA6               	incf	___aomod@divisor+6,f
  6192  04EE  1D03               	skipz
  6193  04EF  2CF1               	goto	u123lld
  6194  04F0  0AA7               	incf	___aomod@divisor+7,f
  6195  04F1                     u123lld:
  6196  04F1                     l2784:
  6197  04F1  0020               	movlb	0	; select bank0
  6198  04F2  0820               	movf	___aomod@divisor,w
  6199  04F3  0421               	iorwf	___aomod@divisor+1,w
  6200  04F4  0422               	iorwf	___aomod@divisor+2,w
  6201  04F5  0423               	iorwf	___aomod@divisor+3,w
  6202  04F6  0424               	iorwf	___aomod@divisor+4,w
  6203  04F7  0425               	iorwf	___aomod@divisor+5,w
  6204  04F8  0426               	iorwf	___aomod@divisor+6,w
  6205  04F9  0427               	iorwf	___aomod@divisor+7,w
  6206  04FA  1903               	skipnz
  6207  04FB  2CFD               	goto	u1241
  6208  04FC  2CFE               	goto	u1240
  6209  04FD                     u1241:
  6210  04FD  2D51               	goto	l2800
  6211  04FE                     u1240:
  6212  04FE                     l2786:
  6213  04FE  01F1               	clrf	___aomod@counter
  6214  04FF  0AF1               	incf	___aomod@counter,f
  6215  0500  2D0D               	goto	l2792
  6216  0501                     l2788:
  6217  0501  35A0               	lslf	___aomod@divisor,f
  6218  0502  0DA1               	rlf	___aomod@divisor+1,f
  6219  0503  0DA2               	rlf	___aomod@divisor+2,f
  6220  0504  0DA3               	rlf	___aomod@divisor+3,f
  6221  0505  0DA4               	rlf	___aomod@divisor+4,f
  6222  0506  0DA5               	rlf	___aomod@divisor+5,f
  6223  0507  0DA6               	rlf	___aomod@divisor+6,f
  6224  0508  0DA7               	rlf	___aomod@divisor+7,f
  6225  0509                     l2790:
  6226  0509  3001               	movlw	1
  6227  050A  00F0               	movwf	??___aomod
  6228  050B  0870               	movf	??___aomod,w
  6229  050C  07F1               	addwf	___aomod@counter,f
  6230  050D                     l2792:
  6231  050D  1FA7               	btfss	___aomod@divisor+7,7
  6232  050E  2D10               	goto	u1251
  6233  050F  2D11               	goto	u1250
  6234  0510                     u1251:
  6235  0510  2D01               	goto	l2788
  6236  0511                     u1250:
  6237  0511                     l2794:
  6238  0511  0827               	movf	___aomod@divisor+7,w
  6239  0512  022F               	subwf	___aomod@dividend+7,w
  6240  0513  1D03               	skipz
  6241  0514  2D2F               	goto	u1265
  6242  0515  0826               	movf	___aomod@divisor+6,w
  6243  0516  022E               	subwf	___aomod@dividend+6,w
  6244  0517  1D03               	skipz
  6245  0518  2D2F               	goto	u1265
  6246  0519  0825               	movf	___aomod@divisor+5,w
  6247  051A  022D               	subwf	___aomod@dividend+5,w
  6248  051B  1D03               	skipz
  6249  051C  2D2F               	goto	u1265
  6250  051D  0824               	movf	___aomod@divisor+4,w
  6251  051E  022C               	subwf	___aomod@dividend+4,w
  6252  051F  1D03               	skipz
  6253  0520  2D2F               	goto	u1265
  6254  0521  0823               	movf	___aomod@divisor+3,w
  6255  0522  022B               	subwf	___aomod@dividend+3,w
  6256  0523  1D03               	skipz
  6257  0524  2D2F               	goto	u1265
  6258  0525  0822               	movf	___aomod@divisor+2,w
  6259  0526  022A               	subwf	___aomod@dividend+2,w
  6260  0527  1D03               	skipz
  6261  0528  2D2F               	goto	u1265
  6262  0529  0821               	movf	___aomod@divisor+1,w
  6263  052A  0229               	subwf	___aomod@dividend+1,w
  6264  052B  1D03               	skipz
  6265  052C  2D2F               	goto	u1265
  6266  052D  0820               	movf	___aomod@divisor,w
  6267  052E  0228               	subwf	___aomod@dividend,w
  6268  052F                     u1265:
  6269  052F  1C03               	skipc
  6270  0530  2D32               	goto	u1261
  6271  0531  2D33               	goto	u1260
  6272  0532                     u1261:
  6273  0532  2D43               	goto	l2798
  6274  0533                     u1260:
  6275  0533                     l2796:
  6276  0533  0820               	movf	___aomod@divisor,w
  6277  0534  02A8               	subwf	___aomod@dividend,f
  6278  0535  0821               	movf	___aomod@divisor+1,w
  6279  0536  3BA9               	subwfb	___aomod@dividend+1,f
  6280  0537  0822               	movf	___aomod@divisor+2,w
  6281  0538  3BAA               	subwfb	___aomod@dividend+2,f
  6282  0539  0823               	movf	___aomod@divisor+3,w
  6283  053A  3BAB               	subwfb	___aomod@dividend+3,f
  6284  053B  0824               	movf	___aomod@divisor+4,w
  6285  053C  3BAC               	subwfb	___aomod@dividend+4,f
  6286  053D  0825               	movf	___aomod@divisor+5,w
  6287  053E  3BAD               	subwfb	___aomod@dividend+5,f
  6288  053F  0826               	movf	___aomod@divisor+6,w
  6289  0540  3BAE               	subwfb	___aomod@dividend+6,f
  6290  0541  0827               	movf	___aomod@divisor+7,w
  6291  0542  3BAF               	subwfb	___aomod@dividend+7,f
  6292  0543                     l2798:
  6293  0543  36A7               	lsrf	___aomod@divisor+7,f
  6294  0544  0CA6               	rrf	___aomod@divisor+6,f
  6295  0545  0CA5               	rrf	___aomod@divisor+5,f
  6296  0546  0CA4               	rrf	___aomod@divisor+4,f
  6297  0547  0CA3               	rrf	___aomod@divisor+3,f
  6298  0548  0CA2               	rrf	___aomod@divisor+2,f
  6299  0549  0CA1               	rrf	___aomod@divisor+1,f
  6300  054A  0CA0               	rrf	___aomod@divisor,f
  6301  054B  3001               	movlw	1
  6302  054C  02F1               	subwf	___aomod@counter,f
  6303  054D  1D03               	btfss	3,2
  6304  054E  2D50               	goto	u1271
  6305  054F  2D51               	goto	u1270
  6306  0550                     u1271:
  6307  0550  2D11               	goto	l2794
  6308  0551                     u1270:
  6309  0551                     l2800:
  6310  0551  0872               	movf	___aomod@sign,w
  6311  0552  1903               	btfsc	3,2
  6312  0553  2D55               	goto	u1281
  6313  0554  2D56               	goto	u1280
  6314  0555                     u1281:
  6315  0555  2D74               	goto	l921
  6316  0556                     u1280:
  6317  0556                     l2802:
  6318  0556  09A8               	comf	___aomod@dividend,f
  6319  0557  09A9               	comf	___aomod@dividend+1,f
  6320  0558  09AA               	comf	___aomod@dividend+2,f
  6321  0559  09AB               	comf	___aomod@dividend+3,f
  6322  055A  09AC               	comf	___aomod@dividend+4,f
  6323  055B  09AD               	comf	___aomod@dividend+5,f
  6324  055C  09AE               	comf	___aomod@dividend+6,f
  6325  055D  09AF               	comf	___aomod@dividend+7,f
  6326  055E  0AA8               	incf	___aomod@dividend,f
  6327  055F  1D03               	skipz
  6328  0560  2D74               	goto	u129lld
  6329  0561  0AA9               	incf	___aomod@dividend+1,f
  6330  0562  1D03               	skipz
  6331  0563  2D74               	goto	u129lld
  6332  0564  0AAA               	incf	___aomod@dividend+2,f
  6333  0565  1D03               	skipz
  6334  0566  2D74               	goto	u129lld
  6335  0567  0AAB               	incf	___aomod@dividend+3,f
  6336  0568  1D03               	skipz
  6337  0569  2D74               	goto	u129lld
  6338  056A  0AAC               	incf	___aomod@dividend+4,f
  6339  056B  1D03               	skipz
  6340  056C  2D74               	goto	u129lld
  6341  056D  0AAD               	incf	___aomod@dividend+5,f
  6342  056E  1D03               	skipz
  6343  056F  2D74               	goto	u129lld
  6344  0570  0AAE               	incf	___aomod@dividend+6,f
  6345  0571  1D03               	skipz
  6346  0572  2D74               	goto	u129lld
  6347  0573  0AAF               	incf	___aomod@dividend+7,f
  6348  0574                     u129lld:
  6349  0574                     l921:
  6350  0574  0020               	movlb	0	; select bank0
  6351  0575  0828               	movf	___aomod@dividend,w
  6352  0576  00A0               	movwf	?___aomod
  6353  0577  0829               	movf	___aomod@dividend+1,w
  6354  0578  00A1               	movwf	?___aomod+1
  6355  0579  082A               	movf	___aomod@dividend+2,w
  6356  057A  00A2               	movwf	?___aomod+2
  6357  057B  082B               	movf	___aomod@dividend+3,w
  6358  057C  00A3               	movwf	?___aomod+3
  6359  057D  082C               	movf	___aomod@dividend+4,w
  6360  057E  00A4               	movwf	?___aomod+4
  6361  057F  082D               	movf	___aomod@dividend+5,w
  6362  0580  00A5               	movwf	?___aomod+5
  6363  0581  082E               	movf	___aomod@dividend+6,w
  6364  0582  00A6               	movwf	?___aomod+6
  6365  0583  082F               	movf	___aomod@dividend+7,w
  6366  0584  00A7               	movwf	?___aomod+7
  6367  0585                     l922:
  6368  0585  0008               	return
  6369  0586                     __end_of___aomod:
  6370                           
  6371                           	psect	text13
  6372  0586                     __ptext13:	
  6373 ;; *************** function ___aodiv *****************
  6374 ;; Defined at:
  6375 ;;		line 7 in file "C:\Program Files\Microchip\xc8\v2.32\pic\sources\c99\common\aodiv.c"
  6376 ;; Parameters:    Size  Location     Type
  6377 ;;  divisor         8    0[BANK0 ] long long 
  6378 ;;  dividend        8    8[BANK0 ] long long 
  6379 ;; Auto vars:     Size  Location     Type
  6380 ;;  quotient        8    3[COMMON] long long 
  6381 ;;  sign            1    2[COMMON] unsigned char 
  6382 ;;  counter         1    1[COMMON] unsigned char 
  6383 ;; Return value:  Size  Location     Type
  6384 ;;                  8    0[BANK0 ] long long 
  6385 ;; Registers used:
  6386 ;;		wreg, fsr1l, fsr1h, status,2, status,0
  6387 ;; Tracked objects:
  6388 ;;		On entry : 0/0
  6389 ;;		On exit  : 0/0
  6390 ;;		Unchanged: 0/0
  6391 ;; Data sizes:     COMMON   BANK0   BANK1   BANK2   BANK3   BANK4   BANK5   BANK6   BANK7   BANK8   BANK9  BANK10  BANK1
      +1  BANK12
  6392 ;;      Params:         0      16       0       0       0       0       0       0       0       0       0       0       
      +0       0
  6393 ;;      Locals:        10       0       0       0       0       0       0       0       0       0       0       0       
      +0       0
  6394 ;;      Temps:          1       0       0       0       0       0       0       0       0       0       0       0       
      +0       0
  6395 ;;      Totals:        11      16       0       0       0       0       0       0       0       0       0       0       
      +0       0
  6396 ;;Total ram usage:       27 bytes
  6397 ;; Hardware stack levels used: 1
  6398 ;; This function calls:
  6399 ;;		Nothing
  6400 ;; This function is called by:
  6401 ;;		_dtoa
  6402 ;; This function uses a non-reentrant model
  6403 ;;
  6404                           
  6405                           
  6406                           ;psect for function ___aodiv
  6407  0586                     ___aodiv:
  6408  0586                     l2736:	
  6409                           ;incstack = 0
  6410                           ; Regs used in ___aodiv: [wreg+fsr1l+fsr1h+status,2+status,0]
  6411                           
  6412  0586  01F2               	clrf	___aodiv@sign
  6413  0587                     l2738:
  6414  0587  3020               	movlw	low ___aodiv@divisor
  6415  0588  0086               	movwf	6
  6416  0589  3000               	movlw	high ___aodiv@divisor
  6417  058A  0087               	movwf	7
  6418  058B  3F47               	moviw [7]fsr1
  6419  058C  00F0               	movwf	??___aodiv
  6420  058D  1FF0               	btfss	??___aodiv,7
  6421  058E  2D90               	goto	u1091
  6422  058F  2D91               	goto	u1090
  6423  0590                     u1091:
  6424  0590  2DB2               	goto	l2742
  6425  0591                     u1090:
  6426  0591                     l2740:
  6427  0591  0020               	movlb	0	; select bank0
  6428  0592  09A0               	comf	___aodiv@divisor,f
  6429  0593  09A1               	comf	___aodiv@divisor+1,f
  6430  0594  09A2               	comf	___aodiv@divisor+2,f
  6431  0595  09A3               	comf	___aodiv@divisor+3,f
  6432  0596  09A4               	comf	___aodiv@divisor+4,f
  6433  0597  09A5               	comf	___aodiv@divisor+5,f
  6434  0598  09A6               	comf	___aodiv@divisor+6,f
  6435  0599  09A7               	comf	___aodiv@divisor+7,f
  6436  059A  0AA0               	incf	___aodiv@divisor,f
  6437  059B  1D03               	skipz
  6438  059C  2DB0               	goto	u110lld
  6439  059D  0AA1               	incf	___aodiv@divisor+1,f
  6440  059E  1D03               	skipz
  6441  059F  2DB0               	goto	u110lld
  6442  05A0  0AA2               	incf	___aodiv@divisor+2,f
  6443  05A1  1D03               	skipz
  6444  05A2  2DB0               	goto	u110lld
  6445  05A3  0AA3               	incf	___aodiv@divisor+3,f
  6446  05A4  1D03               	skipz
  6447  05A5  2DB0               	goto	u110lld
  6448  05A6  0AA4               	incf	___aodiv@divisor+4,f
  6449  05A7  1D03               	skipz
  6450  05A8  2DB0               	goto	u110lld
  6451  05A9  0AA5               	incf	___aodiv@divisor+5,f
  6452  05AA  1D03               	skipz
  6453  05AB  2DB0               	goto	u110lld
  6454  05AC  0AA6               	incf	___aodiv@divisor+6,f
  6455  05AD  1D03               	skipz
  6456  05AE  2DB0               	goto	u110lld
  6457  05AF  0AA7               	incf	___aodiv@divisor+7,f
  6458  05B0                     u110lld:
  6459  05B0  01F2               	clrf	___aodiv@sign
  6460  05B1  0AF2               	incf	___aodiv@sign,f
  6461  05B2                     l2742:
  6462  05B2  3028               	movlw	low ___aodiv@dividend
  6463  05B3  0086               	movwf	6
  6464  05B4  3000               	movlw	high ___aodiv@dividend
  6465  05B5  0087               	movwf	7
  6466  05B6  3F47               	moviw [7]fsr1
  6467  05B7  00F0               	movwf	??___aodiv
  6468  05B8  1FF0               	btfss	??___aodiv,7
  6469  05B9  2DBB               	goto	u1111
  6470  05BA  2DBC               	goto	u1110
  6471  05BB                     u1111:
  6472  05BB  2DDF               	goto	l2748
  6473  05BC                     u1110:
  6474  05BC                     l2744:
  6475  05BC  0020               	movlb	0	; select bank0
  6476  05BD  09A8               	comf	___aodiv@dividend,f
  6477  05BE  09A9               	comf	___aodiv@dividend+1,f
  6478  05BF  09AA               	comf	___aodiv@dividend+2,f
  6479  05C0  09AB               	comf	___aodiv@dividend+3,f
  6480  05C1  09AC               	comf	___aodiv@dividend+4,f
  6481  05C2  09AD               	comf	___aodiv@dividend+5,f
  6482  05C3  09AE               	comf	___aodiv@dividend+6,f
  6483  05C4  09AF               	comf	___aodiv@dividend+7,f
  6484  05C5  0AA8               	incf	___aodiv@dividend,f
  6485  05C6  1D03               	skipz
  6486  05C7  2DDB               	goto	u112lld
  6487  05C8  0AA9               	incf	___aodiv@dividend+1,f
  6488  05C9  1D03               	skipz
  6489  05CA  2DDB               	goto	u112lld
  6490  05CB  0AAA               	incf	___aodiv@dividend+2,f
  6491  05CC  1D03               	skipz
  6492  05CD  2DDB               	goto	u112lld
  6493  05CE  0AAB               	incf	___aodiv@dividend+3,f
  6494  05CF  1D03               	skipz
  6495  05D0  2DDB               	goto	u112lld
  6496  05D1  0AAC               	incf	___aodiv@dividend+4,f
  6497  05D2  1D03               	skipz
  6498  05D3  2DDB               	goto	u112lld
  6499  05D4  0AAD               	incf	___aodiv@dividend+5,f
  6500  05D5  1D03               	skipz
  6501  05D6  2DDB               	goto	u112lld
  6502  05D7  0AAE               	incf	___aodiv@dividend+6,f
  6503  05D8  1D03               	skipz
  6504  05D9  2DDB               	goto	u112lld
  6505  05DA  0AAF               	incf	___aodiv@dividend+7,f
  6506  05DB                     u112lld:
  6507  05DB                     l2746:
  6508  05DB  3001               	movlw	1
  6509  05DC  00F0               	movwf	??___aodiv
  6510  05DD  0870               	movf	??___aodiv,w
  6511  05DE  06F2               	xorwf	___aodiv@sign,f
  6512  05DF                     l2748:
  6513  05DF  3073               	movlw	low ___aodiv@quotient
  6514  05E0  0086               	movwf	6
  6515  05E1  3000               	movlw	high ___aodiv@quotient
  6516  05E2  0087               	movwf	7
  6517  05E3  3008               	movlw	8
  6518  05E4  00F0               	movwf	??___aodiv
  6519  05E5  3000               	movlw	0
  6520  05E6                     u1130:
  6521  05E6  001E               	movwi fsr1++
  6522  05E7  0BF0               	decfsz	??___aodiv,f
  6523  05E8  2DE6               	goto	u1130
  6524  05E9                     l2750:
  6525  05E9  0020               	movlb	0	; select bank0
  6526  05EA  0820               	movf	___aodiv@divisor,w
  6527  05EB  0421               	iorwf	___aodiv@divisor+1,w
  6528  05EC  0422               	iorwf	___aodiv@divisor+2,w
  6529  05ED  0423               	iorwf	___aodiv@divisor+3,w
  6530  05EE  0424               	iorwf	___aodiv@divisor+4,w
  6531  05EF  0425               	iorwf	___aodiv@divisor+5,w
  6532  05F0  0426               	iorwf	___aodiv@divisor+6,w
  6533  05F1  0427               	iorwf	___aodiv@divisor+7,w
  6534  05F2  1903               	skipnz
  6535  05F3  2DF5               	goto	u1141
  6536  05F4  2DF6               	goto	u1140
  6537  05F5                     u1141:
  6538  05F5  2E52               	goto	l2770
  6539  05F6                     u1140:
  6540  05F6                     l2752:
  6541  05F6  01F1               	clrf	___aodiv@counter
  6542  05F7  0AF1               	incf	___aodiv@counter,f
  6543  05F8  2E05               	goto	l2758
  6544  05F9                     l2754:
  6545  05F9  35A0               	lslf	___aodiv@divisor,f
  6546  05FA  0DA1               	rlf	___aodiv@divisor+1,f
  6547  05FB  0DA2               	rlf	___aodiv@divisor+2,f
  6548  05FC  0DA3               	rlf	___aodiv@divisor+3,f
  6549  05FD  0DA4               	rlf	___aodiv@divisor+4,f
  6550  05FE  0DA5               	rlf	___aodiv@divisor+5,f
  6551  05FF  0DA6               	rlf	___aodiv@divisor+6,f
  6552  0600  0DA7               	rlf	___aodiv@divisor+7,f
  6553  0601                     l2756:
  6554  0601  3001               	movlw	1
  6555  0602  00F0               	movwf	??___aodiv
  6556  0603  0870               	movf	??___aodiv,w
  6557  0604  07F1               	addwf	___aodiv@counter,f
  6558  0605                     l2758:
  6559  0605  1FA7               	btfss	___aodiv@divisor+7,7
  6560  0606  2E08               	goto	u1151
  6561  0607  2E09               	goto	u1150
  6562  0608                     u1151:
  6563  0608  2DF9               	goto	l2754
  6564  0609                     u1150:
  6565  0609                     l2760:
  6566  0609  35F3               	lslf	___aodiv@quotient,f
  6567  060A  0DF4               	rlf	___aodiv@quotient+1,f
  6568  060B  0DF5               	rlf	___aodiv@quotient+2,f
  6569  060C  0DF6               	rlf	___aodiv@quotient+3,f
  6570  060D  0DF7               	rlf	___aodiv@quotient+4,f
  6571  060E  0DF8               	rlf	___aodiv@quotient+5,f
  6572  060F  0DF9               	rlf	___aodiv@quotient+6,f
  6573  0610  0DFA               	rlf	___aodiv@quotient+7,f
  6574  0611                     l2762:
  6575  0611  0827               	movf	___aodiv@divisor+7,w
  6576  0612  022F               	subwf	___aodiv@dividend+7,w
  6577  0613  1D03               	skipz
  6578  0614  2E2F               	goto	u1165
  6579  0615  0826               	movf	___aodiv@divisor+6,w
  6580  0616  022E               	subwf	___aodiv@dividend+6,w
  6581  0617  1D03               	skipz
  6582  0618  2E2F               	goto	u1165
  6583  0619  0825               	movf	___aodiv@divisor+5,w
  6584  061A  022D               	subwf	___aodiv@dividend+5,w
  6585  061B  1D03               	skipz
  6586  061C  2E2F               	goto	u1165
  6587  061D  0824               	movf	___aodiv@divisor+4,w
  6588  061E  022C               	subwf	___aodiv@dividend+4,w
  6589  061F  1D03               	skipz
  6590  0620  2E2F               	goto	u1165
  6591  0621  0823               	movf	___aodiv@divisor+3,w
  6592  0622  022B               	subwf	___aodiv@dividend+3,w
  6593  0623  1D03               	skipz
  6594  0624  2E2F               	goto	u1165
  6595  0625  0822               	movf	___aodiv@divisor+2,w
  6596  0626  022A               	subwf	___aodiv@dividend+2,w
  6597  0627  1D03               	skipz
  6598  0628  2E2F               	goto	u1165
  6599  0629  0821               	movf	___aodiv@divisor+1,w
  6600  062A  0229               	subwf	___aodiv@dividend+1,w
  6601  062B  1D03               	skipz
  6602  062C  2E2F               	goto	u1165
  6603  062D  0820               	movf	___aodiv@divisor,w
  6604  062E  0228               	subwf	___aodiv@dividend,w
  6605  062F                     u1165:
  6606  062F  1C03               	skipc
  6607  0630  2E32               	goto	u1161
  6608  0631  2E33               	goto	u1160
  6609  0632                     u1161:
  6610  0632  2E44               	goto	l2768
  6611  0633                     u1160:
  6612  0633                     l2764:
  6613  0633  0820               	movf	___aodiv@divisor,w
  6614  0634  02A8               	subwf	___aodiv@dividend,f
  6615  0635  0821               	movf	___aodiv@divisor+1,w
  6616  0636  3BA9               	subwfb	___aodiv@dividend+1,f
  6617  0637  0822               	movf	___aodiv@divisor+2,w
  6618  0638  3BAA               	subwfb	___aodiv@dividend+2,f
  6619  0639  0823               	movf	___aodiv@divisor+3,w
  6620  063A  3BAB               	subwfb	___aodiv@dividend+3,f
  6621  063B  0824               	movf	___aodiv@divisor+4,w
  6622  063C  3BAC               	subwfb	___aodiv@dividend+4,f
  6623  063D  0825               	movf	___aodiv@divisor+5,w
  6624  063E  3BAD               	subwfb	___aodiv@dividend+5,f
  6625  063F  0826               	movf	___aodiv@divisor+6,w
  6626  0640  3BAE               	subwfb	___aodiv@dividend+6,f
  6627  0641  0827               	movf	___aodiv@divisor+7,w
  6628  0642  3BAF               	subwfb	___aodiv@dividend+7,f
  6629  0643                     l2766:
  6630  0643  1473               	bsf	___aodiv@quotient,0
  6631  0644                     l2768:
  6632  0644  36A7               	lsrf	___aodiv@divisor+7,f
  6633  0645  0CA6               	rrf	___aodiv@divisor+6,f
  6634  0646  0CA5               	rrf	___aodiv@divisor+5,f
  6635  0647  0CA4               	rrf	___aodiv@divisor+4,f
  6636  0648  0CA3               	rrf	___aodiv@divisor+3,f
  6637  0649  0CA2               	rrf	___aodiv@divisor+2,f
  6638  064A  0CA1               	rrf	___aodiv@divisor+1,f
  6639  064B  0CA0               	rrf	___aodiv@divisor,f
  6640  064C  3001               	movlw	1
  6641  064D  02F1               	subwf	___aodiv@counter,f
  6642  064E  1D03               	btfss	3,2
  6643  064F  2E51               	goto	u1171
  6644  0650  2E52               	goto	u1170
  6645  0651                     u1171:
  6646  0651  2E09               	goto	l2760
  6647  0652                     u1170:
  6648  0652                     l2770:
  6649  0652  0872               	movf	___aodiv@sign,w
  6650  0653  1903               	btfsc	3,2
  6651  0654  2E56               	goto	u1181
  6652  0655  2E57               	goto	u1180
  6653  0656                     u1181:
  6654  0656  2E75               	goto	l908
  6655  0657                     u1180:
  6656  0657                     l2772:
  6657  0657  09F3               	comf	___aodiv@quotient,f
  6658  0658  09F4               	comf	___aodiv@quotient+1,f
  6659  0659  09F5               	comf	___aodiv@quotient+2,f
  6660  065A  09F6               	comf	___aodiv@quotient+3,f
  6661  065B  09F7               	comf	___aodiv@quotient+4,f
  6662  065C  09F8               	comf	___aodiv@quotient+5,f
  6663  065D  09F9               	comf	___aodiv@quotient+6,f
  6664  065E  09FA               	comf	___aodiv@quotient+7,f
  6665  065F  0AF3               	incf	___aodiv@quotient,f
  6666  0660  1D03               	skipz
  6667  0661  2E75               	goto	u119lld
  6668  0662  0AF4               	incf	___aodiv@quotient+1,f
  6669  0663  1D03               	skipz
  6670  0664  2E75               	goto	u119lld
  6671  0665  0AF5               	incf	___aodiv@quotient+2,f
  6672  0666  1D03               	skipz
  6673  0667  2E75               	goto	u119lld
  6674  0668  0AF6               	incf	___aodiv@quotient+3,f
  6675  0669  1D03               	skipz
  6676  066A  2E75               	goto	u119lld
  6677  066B  0AF7               	incf	___aodiv@quotient+4,f
  6678  066C  1D03               	skipz
  6679  066D  2E75               	goto	u119lld
  6680  066E  0AF8               	incf	___aodiv@quotient+5,f
  6681  066F  1D03               	skipz
  6682  0670  2E75               	goto	u119lld
  6683  0671  0AF9               	incf	___aodiv@quotient+6,f
  6684  0672  1D03               	skipz
  6685  0673  2E75               	goto	u119lld
  6686  0674  0AFA               	incf	___aodiv@quotient+7,f
  6687  0675                     u119lld:
  6688  0675                     l908:
  6689  0675  0873               	movf	___aodiv@quotient,w
  6690  0676  0020               	movlb	0	; select bank0
  6691  0677  00A0               	movwf	?___aodiv
  6692  0678  0874               	movf	___aodiv@quotient+1,w
  6693  0679  00A1               	movwf	?___aodiv+1
  6694  067A  0875               	movf	___aodiv@quotient+2,w
  6695  067B  00A2               	movwf	?___aodiv+2
  6696  067C  0876               	movf	___aodiv@quotient+3,w
  6697  067D  00A3               	movwf	?___aodiv+3
  6698  067E  0877               	movf	___aodiv@quotient+4,w
  6699  067F  00A4               	movwf	?___aodiv+4
  6700  0680  0878               	movf	___aodiv@quotient+5,w
  6701  0681  00A5               	movwf	?___aodiv+5
  6702  0682  0879               	movf	___aodiv@quotient+6,w
  6703  0683  00A6               	movwf	?___aodiv+6
  6704  0684  087A               	movf	___aodiv@quotient+7,w
  6705  0685  00A7               	movwf	?___aodiv+7
  6706  0686                     l909:
  6707  0686  0008               	return
  6708  0687                     __end_of___aodiv:
  6709                           
  6710                           	psect	text14
  6711  000F                     __ptext14:	
  6712 ;; *************** function ___wmul *****************
  6713 ;; Defined at:
  6714 ;;		line 15 in file "C:\Program Files\Microchip\xc8\v2.32\pic\sources\c99\common\Umul16.c"
  6715 ;; Parameters:    Size  Location     Type
  6716 ;;  multiplier      2    0[COMMON] unsigned int 
  6717 ;;  multiplicand    2    2[COMMON] unsigned int 
  6718 ;; Auto vars:     Size  Location     Type
  6719 ;;  product         2    4[COMMON] unsigned int 
  6720 ;; Return value:  Size  Location     Type
  6721 ;;                  2    0[COMMON] unsigned int 
  6722 ;; Registers used:
  6723 ;;		wreg, status,2, status,0
  6724 ;; Tracked objects:
  6725 ;;		On entry : 0/0
  6726 ;;		On exit  : 0/0
  6727 ;;		Unchanged: 0/0
  6728 ;; Data sizes:     COMMON   BANK0   BANK1   BANK2   BANK3   BANK4   BANK5   BANK6   BANK7   BANK8   BANK9  BANK10  BANK1
      +1  BANK12
  6729 ;;      Params:         4       0       0       0       0       0       0       0       0       0       0       0       
      +0       0
  6730 ;;      Locals:         2       0       0       0       0       0       0       0       0       0       0       0       
      +0       0
  6731 ;;      Temps:          0       0       0       0       0       0       0       0       0       0       0       0       
      +0       0
  6732 ;;      Totals:         6       0       0       0       0       0       0       0       0       0       0       0       
      +0       0
  6733 ;;Total ram usage:        6 bytes
  6734 ;; Hardware stack levels used: 1
  6735 ;; This function calls:
  6736 ;;		Nothing
  6737 ;; This function is called by:
  6738 ;;		_main
  6739 ;; This function uses a non-reentrant model
  6740 ;;
  6741                           
  6742                           
  6743                           ;psect for function ___wmul
  6744  000F                     ___wmul:
  6745  000F                     l3164:	
  6746                           ;incstack = 0
  6747                           ; Regs used in ___wmul: [wreg+status,2+status,0]
  6748                           
  6749  000F  01F4               	clrf	___wmul@product
  6750  0010  01F5               	clrf	___wmul@product+1
  6751  0011                     l3166:
  6752  0011  1C70               	btfss	___wmul@multiplier,0
  6753  0012  2814               	goto	u1661
  6754  0013  2815               	goto	u1660
  6755  0014                     u1661:
  6756  0014  2819               	goto	l808
  6757  0015                     u1660:
  6758  0015                     l3168:
  6759  0015  0872               	movf	___wmul@multiplicand,w
  6760  0016  07F4               	addwf	___wmul@product,f
  6761  0017  0873               	movf	___wmul@multiplicand+1,w
  6762  0018  3DF5               	addwfc	___wmul@product+1,f
  6763  0019                     l808:
  6764  0019  3001               	movlw	1
  6765  001A                     u1675:
  6766  001A  35F2               	lslf	___wmul@multiplicand,f
  6767  001B  0DF3               	rlf	___wmul@multiplicand+1,f
  6768  001C  0B89               	decfsz	9,f
  6769  001D  281A               	goto	u1675
  6770  001E                     l3170:
  6771  001E  3001               	movlw	1
  6772  001F                     u1685:
  6773  001F  36F1               	lsrf	___wmul@multiplier+1,f
  6774  0020  0CF0               	rrf	___wmul@multiplier,f
  6775  0021  0B89               	decfsz	9,f
  6776  0022  281F               	goto	u1685
  6777  0023                     l3172:
  6778  0023  0870               	movf	___wmul@multiplier,w
  6779  0024  0471               	iorwf	___wmul@multiplier+1,w
  6780  0025  1D03               	btfss	3,2
  6781  0026  2828               	goto	u1691
  6782  0027  2829               	goto	u1690
  6783  0028                     u1691:
  6784  0028  2811               	goto	l3166
  6785  0029                     u1690:
  6786  0029                     l3174:
  6787  0029  0875               	movf	___wmul@product+1,w
  6788  002A  00F1               	movwf	?___wmul+1
  6789  002B  0874               	movf	___wmul@product,w
  6790  002C  00F0               	movwf	?___wmul
  6791  002D                     l810:
  6792  002D  0008               	return
  6793  002E                     __end_of___wmul:
  6794                           
  6795                           	psect	text15
  6796  0F33                     __ptext15:	
  6797 ;; *************** function _SYSTEM_Initialize *****************
  6798 ;; Defined at:
  6799 ;;		line 50 in file "mcc_generated_files/mcc.c"
  6800 ;; Parameters:    Size  Location     Type
  6801 ;;		None
  6802 ;; Auto vars:     Size  Location     Type
  6803 ;;		None
  6804 ;; Return value:  Size  Location     Type
  6805 ;;                  1    wreg      void 
  6806 ;; Registers used:
  6807 ;;		wreg, status,2, status,0, pclath, cstack
  6808 ;; Tracked objects:
  6809 ;;		On entry : 0/0
  6810 ;;		On exit  : 0/0
  6811 ;;		Unchanged: 0/0
  6812 ;; Data sizes:     COMMON   BANK0   BANK1   BANK2   BANK3   BANK4   BANK5   BANK6   BANK7   BANK8   BANK9  BANK10  BANK1
      +1  BANK12
  6813 ;;      Params:         0       0       0       0       0       0       0       0       0       0       0       0       
      +0       0
  6814 ;;      Locals:         0       0       0       0       0       0       0       0       0       0       0       0       
      +0       0
  6815 ;;      Temps:          0       0       0       0       0       0       0       0       0       0       0       0       
      +0       0
  6816 ;;      Totals:         0       0       0       0       0       0       0       0       0       0       0       0       
      +0       0
  6817 ;;Total ram usage:        0 bytes
  6818 ;; Hardware stack levels used: 1
  6819 ;; Hardware stack levels required when called: 2
  6820 ;; This function calls:
  6821 ;;		_EUSART_Initialize
  6822 ;;		_I2C2_Initialize
  6823 ;;		_OSCILLATOR_Initialize
  6824 ;;		_PIN_MANAGER_Initialize
  6825 ;;		_PMD_Initialize
  6826 ;; This function is called by:
  6827 ;;		_main
  6828 ;; This function uses a non-reentrant model
  6829 ;;
  6830                           
  6831                           
  6832                           ;psect for function _SYSTEM_Initialize
  6833  0F33                     _SYSTEM_Initialize:
  6834  0F33                     l3130:	
  6835                           ;incstack = 0
  6836                           ; Regs used in _SYSTEM_Initialize: [wreg+status,2+status,0+pclath+cstack]
  6837                           
  6838                           
  6839                           ;mcc_generated_files/mcc.c: 52:     PMD_Initialize();
  6840  0F33  318E  26CC  318F   	fcall	_PMD_Initialize
  6841  0F36                     l3132:
  6842                           
  6843                           ;mcc_generated_files/mcc.c: 53:     I2C2_Initialize();
  6844  0F36  318E  26DD  318F   	fcall	_I2C2_Initialize
  6845  0F39                     l3134:
  6846                           
  6847                           ;mcc_generated_files/mcc.c: 54:     PIN_MANAGER_Initialize();
  6848  0F39  3181  217B  318F   	fcall	_PIN_MANAGER_Initialize
  6849  0F3C                     l3136:
  6850                           
  6851                           ;mcc_generated_files/mcc.c: 55:     OSCILLATOR_Initialize();
  6852  0F3C  318E  26E6  318F   	fcall	_OSCILLATOR_Initialize
  6853  0F3F                     l3138:
  6854                           
  6855                           ;mcc_generated_files/mcc.c: 56:     EUSART_Initialize();
  6856  0F3F  3180  202E  318F   	fcall	_EUSART_Initialize
  6857  0F42                     l193:
  6858  0F42  0008               	return
  6859  0F43                     __end_of_SYSTEM_Initialize:
  6860                           
  6861                           	psect	text16
  6862  0ECC                     __ptext16:	
  6863 ;; *************** function _PMD_Initialize *****************
  6864 ;; Defined at:
  6865 ;;		line 73 in file "mcc_generated_files/mcc.c"
  6866 ;; Parameters:    Size  Location     Type
  6867 ;;		None
  6868 ;; Auto vars:     Size  Location     Type
  6869 ;;		None
  6870 ;; Return value:  Size  Location     Type
  6871 ;;                  1    wreg      void 
  6872 ;; Registers used:
  6873 ;;		status,2
  6874 ;; Tracked objects:
  6875 ;;		On entry : 0/0
  6876 ;;		On exit  : 0/0
  6877 ;;		Unchanged: 0/0
  6878 ;; Data sizes:     COMMON   BANK0   BANK1   BANK2   BANK3   BANK4   BANK5   BANK6   BANK7   BANK8   BANK9  BANK10  BANK1
      +1  BANK12
  6879 ;;      Params:         0       0       0       0       0       0       0       0       0       0       0       0       
      +0       0
  6880 ;;      Locals:         0       0       0       0       0       0       0       0       0       0       0       0       
      +0       0
  6881 ;;      Temps:          0       0       0       0       0       0       0       0       0       0       0       0       
      +0       0
  6882 ;;      Totals:         0       0       0       0       0       0       0       0       0       0       0       0       
      +0       0
  6883 ;;Total ram usage:        0 bytes
  6884 ;; Hardware stack levels used: 1
  6885 ;; This function calls:
  6886 ;;		Nothing
  6887 ;; This function is called by:
  6888 ;;		_SYSTEM_Initialize
  6889 ;; This function uses a non-reentrant model
  6890 ;;
  6891                           
  6892                           
  6893                           ;psect for function _PMD_Initialize
  6894  0ECC                     _PMD_Initialize:
  6895  0ECC                     l3032:	
  6896                           ;incstack = 0
  6897                           ; Regs used in _PMD_Initialize: [status,2]
  6898                           
  6899                           
  6900                           ;mcc_generated_files/mcc.c: 76:     PMD0 = 0x00;
  6901  0ECC  002F               	movlb	15	; select bank15
  6902  0ECD  0196               	clrf	22	;volatile
  6903                           
  6904                           ;mcc_generated_files/mcc.c: 78:     PMD1 = 0x00;
  6905  0ECE  0197               	clrf	23	;volatile
  6906                           
  6907                           ;mcc_generated_files/mcc.c: 80:     PMD2 = 0x00;
  6908  0ECF  0198               	clrf	24	;volatile
  6909                           
  6910                           ;mcc_generated_files/mcc.c: 82:     PMD3 = 0x00;
  6911  0ED0  0199               	clrf	25	;volatile
  6912                           
  6913                           ;mcc_generated_files/mcc.c: 84:     PMD4 = 0x00;
  6914  0ED1  019A               	clrf	26	;volatile
  6915                           
  6916                           ;mcc_generated_files/mcc.c: 86:     PMD5 = 0x00;
  6917  0ED2  019B               	clrf	27	;volatile
  6918  0ED3                     l199:
  6919  0ED3  0008               	return
  6920  0ED4                     __end_of_PMD_Initialize:
  6921                           
  6922                           	psect	text17
  6923  017B                     __ptext17:	
  6924 ;; *************** function _PIN_MANAGER_Initialize *****************
  6925 ;; Defined at:
  6926 ;;		line 55 in file "mcc_generated_files/pin_manager.c"
  6927 ;; Parameters:    Size  Location     Type
  6928 ;;		None
  6929 ;; Auto vars:     Size  Location     Type
  6930 ;;		None
  6931 ;; Return value:  Size  Location     Type
  6932 ;;                  1    wreg      void 
  6933 ;; Registers used:
  6934 ;;		wreg, status,2
  6935 ;; Tracked objects:
  6936 ;;		On entry : 0/0
  6937 ;;		On exit  : 0/0
  6938 ;;		Unchanged: 0/0
  6939 ;; Data sizes:     COMMON   BANK0   BANK1   BANK2   BANK3   BANK4   BANK5   BANK6   BANK7   BANK8   BANK9  BANK10  BANK1
      +1  BANK12
  6940 ;;      Params:         0       0       0       0       0       0       0       0       0       0       0       0       
      +0       0
  6941 ;;      Locals:         0       0       0       0       0       0       0       0       0       0       0       0       
      +0       0
  6942 ;;      Temps:          0       0       0       0       0       0       0       0       0       0       0       0       
      +0       0
  6943 ;;      Totals:         0       0       0       0       0       0       0       0       0       0       0       0       
      +0       0
  6944 ;;Total ram usage:        0 bytes
  6945 ;; Hardware stack levels used: 1
  6946 ;; This function calls:
  6947 ;;		Nothing
  6948 ;; This function is called by:
  6949 ;;		_SYSTEM_Initialize
  6950 ;; This function uses a non-reentrant model
  6951 ;;
  6952                           
  6953                           
  6954                           ;psect for function _PIN_MANAGER_Initialize
  6955  017B                     _PIN_MANAGER_Initialize:
  6956  017B                     l2994:	
  6957                           ;incstack = 0
  6958                           ; Regs used in _PIN_MANAGER_Initialize: [wreg+status,2]
  6959                           
  6960                           
  6961                           ;mcc_generated_files/pin_manager.c: 60:     LATA = 0x00;
  6962  017B  0020               	movlb	0	; select bank0
  6963  017C  0196               	clrf	22	;volatile
  6964                           
  6965                           ;mcc_generated_files/pin_manager.c: 61:     LATB = 0x00;
  6966  017D  0197               	clrf	23	;volatile
  6967                           
  6968                           ;mcc_generated_files/pin_manager.c: 62:     LATC = 0x00;
  6969  017E  0198               	clrf	24	;volatile
  6970  017F                     l2996:
  6971                           
  6972                           ;mcc_generated_files/pin_manager.c: 67:     TRISA = 0xF0;
  6973  017F  30F0               	movlw	240
  6974  0180  0091               	movwf	17	;volatile
  6975  0181                     l2998:
  6976                           
  6977                           ;mcc_generated_files/pin_manager.c: 68:     TRISB = 0xFF;
  6978  0181  30FF               	movlw	255
  6979  0182  0092               	movwf	18	;volatile
  6980  0183                     l3000:
  6981                           
  6982                           ;mcc_generated_files/pin_manager.c: 69:     TRISC = 0xFE;
  6983  0183  30FE               	movlw	254
  6984  0184  0093               	movwf	19	;volatile
  6985  0185                     l3002:
  6986                           
  6987                           ;mcc_generated_files/pin_manager.c: 74:     ANSELC = 0xE4;
  6988  0185  30E4               	movlw	228
  6989  0186  003E               	movlb	30	; select bank30
  6990  0187  00CE               	movwf	78	;volatile
  6991  0188                     l3004:
  6992                           
  6993                           ;mcc_generated_files/pin_manager.c: 75:     ANSELB = 0xFF;
  6994  0188  30FF               	movlw	255
  6995  0189  00C3               	movwf	67	;volatile
  6996  018A                     l3006:
  6997                           
  6998                           ;mcc_generated_files/pin_manager.c: 76:     ANSELA = 0xC0;
  6999  018A  30C0               	movlw	192
  7000  018B  00B8               	movwf	56	;volatile
  7001                           
  7002                           ;mcc_generated_files/pin_manager.c: 81:     WPUE = 0x00;
  7003  018C  01E5               	clrf	101	;volatile
  7004                           
  7005                           ;mcc_generated_files/pin_manager.c: 82:     WPUB = 0x00;
  7006  018D  01C4               	clrf	68	;volatile
  7007                           
  7008                           ;mcc_generated_files/pin_manager.c: 83:     WPUA = 0x00;
  7009  018E  01B9               	clrf	57	;volatile
  7010                           
  7011                           ;mcc_generated_files/pin_manager.c: 84:     WPUC = 0x00;
  7012  018F  01CF               	clrf	79	;volatile
  7013                           
  7014                           ;mcc_generated_files/pin_manager.c: 89:     ODCONA = 0x00;
  7015  0190  01BA               	clrf	58	;volatile
  7016                           
  7017                           ;mcc_generated_files/pin_manager.c: 90:     ODCONB = 0x00;
  7018  0191  01C5               	clrf	69	;volatile
  7019                           
  7020                           ;mcc_generated_files/pin_manager.c: 91:     ODCONC = 0x00;
  7021  0192  01D0               	clrf	80	;volatile
  7022  0193                     l3008:
  7023                           
  7024                           ;mcc_generated_files/pin_manager.c: 96:     SLRCONA = 0xFF;
  7025  0193  30FF               	movlw	255
  7026  0194  00BB               	movwf	59	;volatile
  7027  0195                     l3010:
  7028                           
  7029                           ;mcc_generated_files/pin_manager.c: 97:     SLRCONB = 0xFF;
  7030  0195  30FF               	movlw	255
  7031  0196  00C6               	movwf	70	;volatile
  7032  0197                     l3012:
  7033                           
  7034                           ;mcc_generated_files/pin_manager.c: 98:     SLRCONC = 0xFF;
  7035  0197  30FF               	movlw	255
  7036  0198  00D1               	movwf	81	;volatile
  7037  0199                     l3014:
  7038                           
  7039                           ;mcc_generated_files/pin_manager.c: 103:     INLVLA = 0xFF;
  7040  0199  30FF               	movlw	255
  7041  019A  00BC               	movwf	60	;volatile
  7042  019B                     l3016:
  7043                           
  7044                           ;mcc_generated_files/pin_manager.c: 104:     INLVLB = 0xFF;
  7045  019B  30FF               	movlw	255
  7046  019C  00C7               	movwf	71	;volatile
  7047  019D                     l3018:
  7048                           
  7049                           ;mcc_generated_files/pin_manager.c: 105:     INLVLC = 0xFF;
  7050  019D  30FF               	movlw	255
  7051  019E  00D2               	movwf	82	;volatile
  7052                           
  7053                           ;mcc_generated_files/pin_manager.c: 106:     INLVLE = 0x00;
  7054  019F  01E8               	clrf	104	;volatile
  7055  01A0                     l3020:
  7056                           
  7057                           ;mcc_generated_files/pin_manager.c: 115:     RC0PPS = 0x10;
  7058  01A0  3010               	movlw	16
  7059  01A1  00A0               	movwf	32	;volatile
  7060  01A2                     l3022:
  7061                           
  7062                           ;mcc_generated_files/pin_manager.c: 116:     RXPPS = 0x11;
  7063  01A2  3011               	movlw	17
  7064  01A3  003D               	movlb	29	; select bank29
  7065  01A4  00CB               	movwf	75	;volatile
  7066  01A5                     l3024:
  7067                           
  7068                           ;mcc_generated_files/pin_manager.c: 117:     SSP2DATPPS = 0x13;
  7069  01A5  3013               	movlw	19
  7070  01A6  00C9               	movwf	73	;volatile
  7071  01A7                     l3026:
  7072                           
  7073                           ;mcc_generated_files/pin_manager.c: 118:     RC3PPS = 0x17;
  7074  01A7  3017               	movlw	23
  7075  01A8  003E               	movlb	30	; select bank30
  7076  01A9  00A3               	movwf	35	;volatile
  7077  01AA                     l3028:
  7078                           
  7079                           ;mcc_generated_files/pin_manager.c: 119:     RC4PPS = 0x16;
  7080  01AA  3016               	movlw	22
  7081  01AB  00A4               	movwf	36	;volatile
  7082  01AC                     l3030:
  7083                           
  7084                           ;mcc_generated_files/pin_manager.c: 120:     SSP2CLKPPS = 0x14;
  7085  01AC  3014               	movlw	20
  7086  01AD  003D               	movlb	29	; select bank29
  7087  01AE  00C8               	movwf	72	;volatile
  7088  01AF                     l155:
  7089  01AF  0008               	return
  7090  01B0                     __end_of_PIN_MANAGER_Initialize:
  7091                           
  7092                           	psect	text18
  7093  0EE6                     __ptext18:	
  7094 ;; *************** function _OSCILLATOR_Initialize *****************
  7095 ;; Defined at:
  7096 ;;		line 59 in file "mcc_generated_files/mcc.c"
  7097 ;; Parameters:    Size  Location     Type
  7098 ;;		None
  7099 ;; Auto vars:     Size  Location     Type
  7100 ;;		None
  7101 ;; Return value:  Size  Location     Type
  7102 ;;                  1    wreg      void 
  7103 ;; Registers used:
  7104 ;;		wreg, status,2
  7105 ;; Tracked objects:
  7106 ;;		On entry : 0/0
  7107 ;;		On exit  : 0/0
  7108 ;;		Unchanged: 0/0
  7109 ;; Data sizes:     COMMON   BANK0   BANK1   BANK2   BANK3   BANK4   BANK5   BANK6   BANK7   BANK8   BANK9  BANK10  BANK1
      +1  BANK12
  7110 ;;      Params:         0       0       0       0       0       0       0       0       0       0       0       0       
      +0       0
  7111 ;;      Locals:         0       0       0       0       0       0       0       0       0       0       0       0       
      +0       0
  7112 ;;      Temps:          0       0       0       0       0       0       0       0       0       0       0       0       
      +0       0
  7113 ;;      Totals:         0       0       0       0       0       0       0       0       0       0       0       0       
      +0       0
  7114 ;;Total ram usage:        0 bytes
  7115 ;; Hardware stack levels used: 1
  7116 ;; This function calls:
  7117 ;;		Nothing
  7118 ;; This function is called by:
  7119 ;;		_SYSTEM_Initialize
  7120 ;; This function uses a non-reentrant model
  7121 ;;
  7122                           
  7123                           
  7124                           ;psect for function _OSCILLATOR_Initialize
  7125  0EE6                     _OSCILLATOR_Initialize:
  7126  0EE6                     l3042:	
  7127                           ;incstack = 0
  7128                           ; Regs used in _OSCILLATOR_Initialize: [wreg+status,2]
  7129                           
  7130                           
  7131                           ;mcc_generated_files/mcc.c: 62:     OSCCON1 = 0x60;
  7132  0EE6  3060               	movlw	96
  7133  0EE7  0031               	movlb	17	; select bank17
  7134  0EE8  008D               	movwf	13	;volatile
  7135  0EE9                     l3044:
  7136                           
  7137                           ;mcc_generated_files/mcc.c: 64:     OSCCON3 = 0x00;
  7138  0EE9  018F               	clrf	15	;volatile
  7139  0EEA                     l3046:
  7140                           
  7141                           ;mcc_generated_files/mcc.c: 66:     OSCEN = 0x00;
  7142  0EEA  0191               	clrf	17	;volatile
  7143                           
  7144                           ;mcc_generated_files/mcc.c: 68:     OSCFRQ = 0x03;
  7145  0EEB  3003               	movlw	3
  7146  0EEC  0093               	movwf	19	;volatile
  7147  0EED                     l3048:
  7148                           
  7149                           ;mcc_generated_files/mcc.c: 70:     OSCTUNE = 0x00;
  7150  0EED  0192               	clrf	18	;volatile
  7151  0EEE                     l196:
  7152  0EEE  0008               	return
  7153  0EEF                     __end_of_OSCILLATOR_Initialize:
  7154                           
  7155                           	psect	text19
  7156  0EDD                     __ptext19:	
  7157 ;; *************** function _I2C2_Initialize *****************
  7158 ;; Defined at:
  7159 ;;		line 167 in file "mcc_generated_files/i2c2_master.c"
  7160 ;; Parameters:    Size  Location     Type
  7161 ;;		None
  7162 ;; Auto vars:     Size  Location     Type
  7163 ;;		None
  7164 ;; Return value:  Size  Location     Type
  7165 ;;                  1    wreg      void 
  7166 ;; Registers used:
  7167 ;;		wreg, status,2
  7168 ;; Tracked objects:
  7169 ;;		On entry : 0/0
  7170 ;;		On exit  : 0/0
  7171 ;;		Unchanged: 0/0
  7172 ;; Data sizes:     COMMON   BANK0   BANK1   BANK2   BANK3   BANK4   BANK5   BANK6   BANK7   BANK8   BANK9  BANK10  BANK1
      +1  BANK12
  7173 ;;      Params:         0       0       0       0       0       0       0       0       0       0       0       0       
      +0       0
  7174 ;;      Locals:         0       0       0       0       0       0       0       0       0       0       0       0       
      +0       0
  7175 ;;      Temps:          0       0       0       0       0       0       0       0       0       0       0       0       
      +0       0
  7176 ;;      Totals:         0       0       0       0       0       0       0       0       0       0       0       0       
      +0       0
  7177 ;;Total ram usage:        0 bytes
  7178 ;; Hardware stack levels used: 1
  7179 ;; This function calls:
  7180 ;;		Nothing
  7181 ;; This function is called by:
  7182 ;;		_SYSTEM_Initialize
  7183 ;; This function uses a non-reentrant model
  7184 ;;
  7185                           
  7186                           
  7187                           ;psect for function _I2C2_Initialize
  7188  0EDD                     _I2C2_Initialize:
  7189  0EDD                     l3034:	
  7190                           ;incstack = 0
  7191                           ; Regs used in _I2C2_Initialize: [wreg+status,2]
  7192                           
  7193                           
  7194                           ;mcc_generated_files/i2c2_master.c: 169:     SSP2STAT = 0x00;
  7195  0EDD  0023               	movlb	3	; select bank3
  7196  0EDE  0199               	clrf	25	;volatile
  7197  0EDF                     l3036:
  7198                           
  7199                           ;mcc_generated_files/i2c2_master.c: 170:     SSP2CON1 = 0x18;
  7200  0EDF  3018               	movlw	24
  7201  0EE0  009A               	movwf	26	;volatile
  7202  0EE1                     l3038:
  7203                           
  7204                           ;mcc_generated_files/i2c2_master.c: 171:     SSP2CON2 = 0x00;
  7205  0EE1  019B               	clrf	27	;volatile
  7206                           
  7207                           ;mcc_generated_files/i2c2_master.c: 172:     SSP2ADD = 0x04;
  7208  0EE2  3004               	movlw	4
  7209  0EE3  0097               	movwf	23	;volatile
  7210  0EE4                     l3040:
  7211                           
  7212                           ;mcc_generated_files/i2c2_master.c: 173:     SSP2CON1bits.SSPEN = 0;
  7213  0EE4  129A               	bcf	26,5	;volatile
  7214  0EE5                     l426:
  7215  0EE5  0008               	return
  7216  0EE6                     __end_of_I2C2_Initialize:
  7217                           
  7218                           	psect	text20
  7219  002E                     __ptext20:	
  7220 ;; *************** function _EUSART_Initialize *****************
  7221 ;; Defined at:
  7222 ;;		line 66 in file "mcc_generated_files/eusart.c"
  7223 ;; Parameters:    Size  Location     Type
  7224 ;;		None
  7225 ;; Auto vars:     Size  Location     Type
  7226 ;;		None
  7227 ;; Return value:  Size  Location     Type
  7228 ;;                  1    wreg      void 
  7229 ;; Registers used:
  7230 ;;		wreg, status,2, status,0, pclath, cstack
  7231 ;; Tracked objects:
  7232 ;;		On entry : 0/0
  7233 ;;		On exit  : 0/0
  7234 ;;		Unchanged: 0/0
  7235 ;; Data sizes:     COMMON   BANK0   BANK1   BANK2   BANK3   BANK4   BANK5   BANK6   BANK7   BANK8   BANK9  BANK10  BANK1
      +1  BANK12
  7236 ;;      Params:         0       0       0       0       0       0       0       0       0       0       0       0       
      +0       0
  7237 ;;      Locals:         0       0       0       0       0       0       0       0       0       0       0       0       
      +0       0
  7238 ;;      Temps:          0       0       0       0       0       0       0       0       0       0       0       0       
      +0       0
  7239 ;;      Totals:         0       0       0       0       0       0       0       0       0       0       0       0       
      +0       0
  7240 ;;Total ram usage:        0 bytes
  7241 ;; Hardware stack levels used: 1
  7242 ;; Hardware stack levels required when called: 1
  7243 ;; This function calls:
  7244 ;;		_EUSART_SetErrorHandler
  7245 ;;		_EUSART_SetFramingErrorHandler
  7246 ;;		_EUSART_SetOverrunErrorHandler
  7247 ;; This function is called by:
  7248 ;;		_SYSTEM_Initialize
  7249 ;; This function uses a non-reentrant model
  7250 ;;
  7251                           
  7252                           
  7253                           ;psect for function _EUSART_Initialize
  7254  002E                     _EUSART_Initialize:
  7255  002E                     l2982:	
  7256                           ;incstack = 0
  7257                           ; Regs used in _EUSART_Initialize: [wreg+status,2+status,0+pclath+cstack]
  7258                           
  7259                           
  7260                           ;mcc_generated_files/eusart.c: 71:     BAUD1CON = 0x08;
  7261  002E  3008               	movlw	8
  7262  002F  0022               	movlb	2	; select bank2
  7263  0030  009F               	movwf	31	;volatile
  7264                           
  7265                           ;mcc_generated_files/eusart.c: 74:     RC1STA = 0x90;
  7266  0031  3090               	movlw	144
  7267  0032  009D               	movwf	29	;volatile
  7268                           
  7269                           ;mcc_generated_files/eusart.c: 77:     TX1STA = 0x24;
  7270  0033  3024               	movlw	36
  7271  0034  009E               	movwf	30	;volatile
  7272                           
  7273                           ;mcc_generated_files/eusart.c: 80:     SP1BRGL = 0xCF;
  7274  0035  30CF               	movlw	207
  7275  0036  009B               	movwf	27	;volatile
  7276  0037                     l2984:
  7277                           
  7278                           ;mcc_generated_files/eusart.c: 83:     SP1BRGH = 0x00;
  7279  0037  019C               	clrf	28	;volatile
  7280  0038                     l2986:
  7281                           
  7282                           ;mcc_generated_files/eusart.c: 86:     EUSART_SetFramingErrorHandler(EUSART_DefaultFrami
      +                          ngErrorHandler);
  7283  0038  3000               	movlw	0
  7284  0039  00F0               	movwf	EUSART_SetFramingErrorHandler@interruptHandler
  7285  003A  3000               	movlw	0
  7286  003B  00F1               	movwf	EUSART_SetFramingErrorHandler@interruptHandler+1
  7287  003C  318E  26A5  3180   	fcall	_EUSART_SetFramingErrorHandler
  7288  003F                     l2988:
  7289                           
  7290                           ;mcc_generated_files/eusart.c: 87:     EUSART_SetOverrunErrorHandler(EUSART_DefaultOverr
      +                          unErrorHandler);
  7291  003F  3000               	movlw	0
  7292  0040  00F0               	movwf	EUSART_SetOverrunErrorHandler@interruptHandler
  7293  0041  3000               	movlw	0
  7294  0042  00F1               	movwf	EUSART_SetOverrunErrorHandler@interruptHandler+1
  7295  0043  318E  26AB  3180   	fcall	_EUSART_SetOverrunErrorHandler
  7296  0046                     l2990:
  7297                           
  7298                           ;mcc_generated_files/eusart.c: 88:     EUSART_SetErrorHandler(EUSART_DefaultErrorHandler
      +                          );
  7299  0046  3000               	movlw	0
  7300  0047  00F0               	movwf	EUSART_SetErrorHandler@interruptHandler
  7301  0048  3000               	movlw	0
  7302  0049  00F1               	movwf	EUSART_SetErrorHandler@interruptHandler+1
  7303  004A  318E  269F  3180   	fcall	_EUSART_SetErrorHandler
  7304  004D                     l2992:
  7305                           
  7306                           ;mcc_generated_files/eusart.c: 90:     eusartRxLastError.status = 0;
  7307  004D  0021               	movlb	1	; select bank1
  7308  004E  01C5               	clrf	_eusartRxLastError^(0+128)	;volatile
  7309  004F                     l43:
  7310  004F  0008               	return
  7311  0050                     __end_of_EUSART_Initialize:
  7312                           
  7313                           	psect	text21
  7314  0EAB                     __ptext21:	
  7315 ;; *************** function _EUSART_SetOverrunErrorHandler *****************
  7316 ;; Defined at:
  7317 ;;		line 170 in file "mcc_generated_files/eusart.c"
  7318 ;; Parameters:    Size  Location     Type
  7319 ;;  interruptHan    2    0[COMMON] PTR FTN()void 
  7320 ;;		 -> EUSART_DefaultOverrunErrorHandler(1), 
  7321 ;; Auto vars:     Size  Location     Type
  7322 ;;		None
  7323 ;; Return value:  Size  Location     Type
  7324 ;;                  1    wreg      void 
  7325 ;; Registers used:
  7326 ;;		wreg
  7327 ;; Tracked objects:
  7328 ;;		On entry : 0/0
  7329 ;;		On exit  : 0/0
  7330 ;;		Unchanged: 0/0
  7331 ;; Data sizes:     COMMON   BANK0   BANK1   BANK2   BANK3   BANK4   BANK5   BANK6   BANK7   BANK8   BANK9  BANK10  BANK1
      +1  BANK12
  7332 ;;      Params:         2       0       0       0       0       0       0       0       0       0       0       0       
      +0       0
  7333 ;;      Locals:         0       0       0       0       0       0       0       0       0       0       0       0       
      +0       0
  7334 ;;      Temps:          0       0       0       0       0       0       0       0       0       0       0       0       
      +0       0
  7335 ;;      Totals:         2       0       0       0       0       0       0       0       0       0       0       0       
      +0       0
  7336 ;;Total ram usage:        2 bytes
  7337 ;; Hardware stack levels used: 1
  7338 ;; This function calls:
  7339 ;;		Nothing
  7340 ;; This function is called by:
  7341 ;;		_EUSART_Initialize
  7342 ;; This function uses a non-reentrant model
  7343 ;;
  7344                           
  7345                           
  7346                           ;psect for function _EUSART_SetOverrunErrorHandler
  7347  0EAB                     _EUSART_SetOverrunErrorHandler:
  7348  0EAB                     l2898:	
  7349                           ;incstack = 0
  7350                           ; Regs used in _EUSART_SetOverrunErrorHandler: [wreg]
  7351                           
  7352                           
  7353                           ;mcc_generated_files/eusart.c: 171:     EUSART_OverrunErrorHandler = interruptHandler;
  7354  0EAB  0871               	movf	EUSART_SetOverrunErrorHandler@interruptHandler+1,w
  7355  0EAC  0021               	movlb	1	; select bank1
  7356  0EAD  00E9               	movwf	(_EUSART_OverrunErrorHandler+1)^(0+128)
  7357  0EAE  0870               	movf	EUSART_SetOverrunErrorHandler@interruptHandler,w
  7358  0EAF  00E8               	movwf	_EUSART_OverrunErrorHandler^(0+128)
  7359  0EB0                     l91:
  7360  0EB0  0008               	return
  7361  0EB1                     __end_of_EUSART_SetOverrunErrorHandler:
  7362                           
  7363                           	psect	text22
  7364  0EA5                     __ptext22:	
  7365 ;; *************** function _EUSART_SetFramingErrorHandler *****************
  7366 ;; Defined at:
  7367 ;;		line 166 in file "mcc_generated_files/eusart.c"
  7368 ;; Parameters:    Size  Location     Type
  7369 ;;  interruptHan    2    0[COMMON] PTR FTN()void 
  7370 ;;		 -> EUSART_DefaultFramingErrorHandler(1), 
  7371 ;; Auto vars:     Size  Location     Type
  7372 ;;		None
  7373 ;; Return value:  Size  Location     Type
  7374 ;;                  1    wreg      void 
  7375 ;; Registers used:
  7376 ;;		wreg
  7377 ;; Tracked objects:
  7378 ;;		On entry : 0/0
  7379 ;;		On exit  : 0/0
  7380 ;;		Unchanged: 0/0
  7381 ;; Data sizes:     COMMON   BANK0   BANK1   BANK2   BANK3   BANK4   BANK5   BANK6   BANK7   BANK8   BANK9  BANK10  BANK1
      +1  BANK12
  7382 ;;      Params:         2       0       0       0       0       0       0       0       0       0       0       0       
      +0       0
  7383 ;;      Locals:         0       0       0       0       0       0       0       0       0       0       0       0       
      +0       0
  7384 ;;      Temps:          0       0       0       0       0       0       0       0       0       0       0       0       
      +0       0
  7385 ;;      Totals:         2       0       0       0       0       0       0       0       0       0       0       0       
      +0       0
  7386 ;;Total ram usage:        2 bytes
  7387 ;; Hardware stack levels used: 1
  7388 ;; This function calls:
  7389 ;;		Nothing
  7390 ;; This function is called by:
  7391 ;;		_EUSART_Initialize
  7392 ;; This function uses a non-reentrant model
  7393 ;;
  7394                           
  7395                           
  7396                           ;psect for function _EUSART_SetFramingErrorHandler
  7397  0EA5                     _EUSART_SetFramingErrorHandler:
  7398  0EA5                     l2896:	
  7399                           ;incstack = 0
  7400                           ; Regs used in _EUSART_SetFramingErrorHandler: [wreg]
  7401                           
  7402                           
  7403                           ;mcc_generated_files/eusart.c: 167:     EUSART_FramingErrorHandler = interruptHandler;
  7404  0EA5  0871               	movf	EUSART_SetFramingErrorHandler@interruptHandler+1,w
  7405  0EA6  0021               	movlb	1	; select bank1
  7406  0EA7  00EB               	movwf	(_EUSART_FramingErrorHandler+1)^(0+128)
  7407  0EA8  0870               	movf	EUSART_SetFramingErrorHandler@interruptHandler,w
  7408  0EA9  00EA               	movwf	_EUSART_FramingErrorHandler^(0+128)
  7409  0EAA                     l88:
  7410  0EAA  0008               	return
  7411  0EAB                     __end_of_EUSART_SetFramingErrorHandler:
  7412                           
  7413                           	psect	text23
  7414  0E9F                     __ptext23:	
  7415 ;; *************** function _EUSART_SetErrorHandler *****************
  7416 ;; Defined at:
  7417 ;;		line 174 in file "mcc_generated_files/eusart.c"
  7418 ;; Parameters:    Size  Location     Type
  7419 ;;  interruptHan    2    0[COMMON] PTR FTN()void 
  7420 ;;		 -> EUSART_DefaultErrorHandler(1), 
  7421 ;; Auto vars:     Size  Location     Type
  7422 ;;		None
  7423 ;; Return value:  Size  Location     Type
  7424 ;;                  1    wreg      void 
  7425 ;; Registers used:
  7426 ;;		wreg
  7427 ;; Tracked objects:
  7428 ;;		On entry : 0/0
  7429 ;;		On exit  : 0/0
  7430 ;;		Unchanged: 0/0
  7431 ;; Data sizes:     COMMON   BANK0   BANK1   BANK2   BANK3   BANK4   BANK5   BANK6   BANK7   BANK8   BANK9  BANK10  BANK1
      +1  BANK12
  7432 ;;      Params:         2       0       0       0       0       0       0       0       0       0       0       0       
      +0       0
  7433 ;;      Locals:         0       0       0       0       0       0       0       0       0       0       0       0       
      +0       0
  7434 ;;      Temps:          0       0       0       0       0       0       0       0       0       0       0       0       
      +0       0
  7435 ;;      Totals:         2       0       0       0       0       0       0       0       0       0       0       0       
      +0       0
  7436 ;;Total ram usage:        2 bytes
  7437 ;; Hardware stack levels used: 1
  7438 ;; This function calls:
  7439 ;;		Nothing
  7440 ;; This function is called by:
  7441 ;;		_EUSART_Initialize
  7442 ;; This function uses a non-reentrant model
  7443 ;;
  7444                           
  7445                           
  7446                           ;psect for function _EUSART_SetErrorHandler
  7447  0E9F                     _EUSART_SetErrorHandler:
  7448  0E9F                     l2900:	
  7449                           ;incstack = 0
  7450                           ; Regs used in _EUSART_SetErrorHandler: [wreg]
  7451                           
  7452                           
  7453                           ;mcc_generated_files/eusart.c: 175:     EUSART_ErrorHandler = interruptHandler;
  7454  0E9F  0871               	movf	EUSART_SetErrorHandler@interruptHandler+1,w
  7455  0EA0  0021               	movlb	1	; select bank1
  7456  0EA1  00E7               	movwf	(_EUSART_ErrorHandler+1)^(0+128)
  7457  0EA2  0870               	movf	EUSART_SetErrorHandler@interruptHandler,w
  7458  0EA3  00E6               	movwf	_EUSART_ErrorHandler^(0+128)
  7459  0EA4                     l94:
  7460  0EA4  0008               	return
  7461  0EA5                     __end_of_EUSART_SetErrorHandler:
  7462                           
  7463                           	psect	text24
  7464  01B0                     __ptext24:	
  7465 ;; *************** function _I2C2_Read1ByteRegister *****************
  7466 ;; Defined at:
  7467 ;;		line 63 in file "mcc_generated_files/examples/i2c2_master_example.c"
  7468 ;; Parameters:    Size  Location     Type
  7469 ;;  address         1    wreg     unsigned char 
  7470 ;;  reg             1    5[BANK0 ] unsigned char 
  7471 ;; Auto vars:     Size  Location     Type
  7472 ;;  address         1    7[BANK0 ] unsigned char 
  7473 ;;  returnValue     1    8[BANK0 ] unsigned char 
  7474 ;; Return value:  Size  Location     Type
  7475 ;;                  1    wreg      unsigned char 
  7476 ;; Registers used:
  7477 ;;		wreg, fsr0l, fsr0h, fsr1l, fsr1h, status,2, status,0, pclath, cstack
  7478 ;; Tracked objects:
  7479 ;;		On entry : 0/0
  7480 ;;		On exit  : 0/0
  7481 ;;		Unchanged: 0/0
  7482 ;; Data sizes:     COMMON   BANK0   BANK1   BANK2   BANK3   BANK4   BANK5   BANK6   BANK7   BANK8   BANK9  BANK10  BANK1
      +1  BANK12
  7483 ;;      Params:         0       1       0       0       0       0       0       0       0       0       0       0       
      +0       0
  7484 ;;      Locals:         0       2       0       0       0       0       0       0       0       0       0       0       
      +0       0
  7485 ;;      Temps:          0       1       0       0       0       0       0       0       0       0       0       0       
      +0       0
  7486 ;;      Totals:         0       4       0       0       0       0       0       0       0       0       0       0       
      +0       0
  7487 ;;Total ram usage:        4 bytes
  7488 ;; Hardware stack levels used: 1
  7489 ;; Hardware stack levels required when called: 8
  7490 ;; This function calls:
  7491 ;;		_I2C2_Close
  7492 ;;		_I2C2_MasterWrite
  7493 ;;		_I2C2_Open
  7494 ;;		_I2C2_SetAddressNackCallback
  7495 ;;		_I2C2_SetBuffer
  7496 ;;		_I2C2_SetDataCompleteCallback
  7497 ;; This function is called by:
  7498 ;;		_main
  7499 ;; This function uses a non-reentrant model
  7500 ;;
  7501                           
  7502                           
  7503                           ;psect for function _I2C2_Read1ByteRegister
  7504  01B0                     _I2C2_Read1ByteRegister:
  7505                           
  7506                           ;incstack = 0
  7507                           ; Regs used in _I2C2_Read1ByteRegister: [wreg-fsr1h+status,2+status,0+pclath+cstack]
  7508                           ;I2C2_Read1ByteRegister@address stored from wreg
  7509  01B0  0020               	movlb	0	; select bank0
  7510  01B1  00A7               	movwf	I2C2_Read1ByteRegister@address
  7511  01B2                     l3146:
  7512                           
  7513                           ;mcc_generated_files/examples/i2c2_master_example.c: 63: uint8_t I2C2_Read1ByteRegister(
      +                          i2c2_address_t address, uint8_t reg);mcc_generated_files/examples/i2c2_master_example.c:
      +                           64: {;mcc_generated_files/examples/i2c2_master_example.c: 65:     uint8_t returnValue =
      +                           0x00;
  7514  01B2  01A8               	clrf	I2C2_Read1ByteRegister@returnValue
  7515  01B3                     l3148:	
  7516                           ;mcc_generated_files/examples/i2c2_master_example.c: 67:     while(!I2C2_Open(address));
  7517                           
  7518  01B3  0020               	movlb	0	; select bank0
  7519  01B4  0827               	movf	I2C2_Read1ByteRegister@address,w
  7520  01B5  3181  21E6  3181   	fcall	_I2C2_Open
  7521  01B8  3A00               	xorlw	0
  7522  01B9  1903               	skipnz
  7523  01BA  29BC               	goto	u1641
  7524  01BB  29BD               	goto	u1640
  7525  01BC                     u1641:
  7526  01BC  29B3               	goto	l3148
  7527  01BD                     u1640:
  7528  01BD                     l3150:
  7529                           
  7530                           ;mcc_generated_files/examples/i2c2_master_example.c: 68:     I2C2_SetDataCompleteCallbac
      +                          k(rd1RegCompleteHandler,&returnValue);
  7531  01BD  3054               	movlw	low _rd1RegCompleteHandler
  7532  01BE  00F5               	movwf	I2C2_SetDataCompleteCallback@cb
  7533  01BF  300F               	movlw	high _rd1RegCompleteHandler
  7534  01C0  00F6               	movwf	I2C2_SetDataCompleteCallback@cb+1
  7535  01C1  3028               	movlw	(low (I2C2_Read1ByteRegister@returnValue| 0))& (0+255)
  7536  01C2  0020               	movlb	0	; select bank0
  7537  01C3  00A6               	movwf	??_I2C2_Read1ByteRegister
  7538  01C4  0826               	movf	??_I2C2_Read1ByteRegister,w
  7539  01C5  00F7               	movwf	I2C2_SetDataCompleteCallback@ptr
  7540  01C6  318E  26EF  3181   	fcall	_I2C2_SetDataCompleteCallback
  7541  01C9                     l3152:
  7542                           
  7543                           ;mcc_generated_files/examples/i2c2_master_example.c: 69:     I2C2_SetBuffer(&reg,1);
  7544  01C9  3001               	movlw	1
  7545  01CA  00F0               	movwf	I2C2_SetBuffer@bufferSize
  7546  01CB  3000               	movlw	0
  7547  01CC  00F1               	movwf	I2C2_SetBuffer@bufferSize+1
  7548  01CD  3025               	movlw	(low (I2C2_Read1ByteRegister@reg| 0))& (0+255)
  7549  01CE  318F  2723  3181   	fcall	_I2C2_SetBuffer
  7550  01D1                     l3154:
  7551                           
  7552                           ;mcc_generated_files/examples/i2c2_master_example.c: 70:     I2C2_SetAddressNackCallback
      +                          (((void*)0),((void*)0));
  7553  01D1  3000               	movlw	0
  7554  01D2  00F5               	movwf	I2C2_SetAddressNackCallback@cb
  7555  01D3  00F6               	movwf	I2C2_SetAddressNackCallback@cb+1
  7556  01D4  01F7               	clrf	I2C2_SetAddressNackCallback@ptr
  7557  01D5  318F  2716  3181   	fcall	_I2C2_SetAddressNackCallback
  7558  01D8                     l3156:
  7559                           
  7560                           ;mcc_generated_files/examples/i2c2_master_example.c: 71:     I2C2_MasterWrite();
  7561  01D8  318E  268E  3181   	fcall	_I2C2_MasterWrite
  7562  01DB                     l3158:	
  7563                           ;mcc_generated_files/examples/i2c2_master_example.c: 72:     while(I2C2_BUSY == I2C2_Clo
      +                          se());
  7564                           
  7565  01DB  318F  27E4  3181   	fcall	_I2C2_Close
  7566  01DE  3A01               	xorlw	1
  7567  01DF  1903               	skipnz
  7568  01E0  29E2               	goto	u1651
  7569  01E1  29E3               	goto	u1650
  7570  01E2                     u1651:
  7571  01E2  29DB               	goto	l3158
  7572  01E3                     u1650:
  7573  01E3                     l3160:
  7574                           
  7575                           ;mcc_generated_files/examples/i2c2_master_example.c: 74:     return returnValue;
  7576  01E3  0020               	movlb	0	; select bank0
  7577  01E4  0828               	movf	I2C2_Read1ByteRegister@returnValue,w
  7578  01E5                     l252:
  7579  01E5  0008               	return
  7580  01E6                     __end_of_I2C2_Read1ByteRegister:
  7581                           
  7582                           	psect	text25
  7583  0F16                     __ptext25:	
  7584 ;; *************** function _I2C2_SetAddressNackCallback *****************
  7585 ;; Defined at:
  7586 ;;		line 283 in file "mcc_generated_files/i2c2_master.c"
  7587 ;; Parameters:    Size  Location     Type
  7588 ;;  cb              2    5[COMMON] PTR FTN(PTR void ,)enum 
  7589 ;;		 -> Absolute function(1), 
  7590 ;;  ptr             1    7[COMMON] PTR void 
  7591 ;;		 -> NULL(0), 
  7592 ;; Auto vars:     Size  Location     Type
  7593 ;;		None
  7594 ;; Return value:  Size  Location     Type
  7595 ;;                  1    wreg      void 
  7596 ;; Registers used:
  7597 ;;		wreg, fsr1l, fsr1h, status,2, status,0, pclath, cstack
  7598 ;; Tracked objects:
  7599 ;;		On entry : 0/0
  7600 ;;		On exit  : 0/0
  7601 ;;		Unchanged: 0/0
  7602 ;; Data sizes:     COMMON   BANK0   BANK1   BANK2   BANK3   BANK4   BANK5   BANK6   BANK7   BANK8   BANK9  BANK10  BANK1
      +1  BANK12
  7603 ;;      Params:         3       0       0       0       0       0       0       0       0       0       0       0       
      +0       0
  7604 ;;      Locals:         0       0       0       0       0       0       0       0       0       0       0       0       
      +0       0
  7605 ;;      Temps:          1       0       0       0       0       0       0       0       0       0       0       0       
      +0       0
  7606 ;;      Totals:         4       0       0       0       0       0       0       0       0       0       0       0       
      +0       0
  7607 ;;Total ram usage:        4 bytes
  7608 ;; Hardware stack levels used: 1
  7609 ;; Hardware stack levels required when called: 1
  7610 ;; This function calls:
  7611 ;;		_I2C2_SetCallback
  7612 ;; This function is called by:
  7613 ;;		_I2C2_Read1ByteRegister
  7614 ;;		_I2C2_Read2ByteRegister
  7615 ;;		_I2C2_Write1ByteRegister
  7616 ;;		_I2C2_Write2ByteRegister
  7617 ;;		_I2C2_WriteNBytes
  7618 ;;		_I2C2_ReadDataBlock
  7619 ;; This function uses a non-reentrant model
  7620 ;;
  7621                           
  7622                           
  7623                           ;psect for function _I2C2_SetAddressNackCallback
  7624  0F16                     _I2C2_SetAddressNackCallback:
  7625  0F16                     l3082:	
  7626                           ;incstack = 0
  7627                           ; Regs used in _I2C2_SetAddressNackCallback: [wreg+fsr1l+fsr1h+status,2+status,0+pclath+
      +                          cstack]
  7628                           
  7629                           
  7630                           ;mcc_generated_files/i2c2_master.c: 283: void I2C2_SetAddressNackCallback(i2c2_callback_
      +                          t cb, void *ptr);mcc_generated_files/i2c2_master.c: 284: {;mcc_generated_files/i2c2_mast
      +                          er.c: 285:     I2C2_SetCallback(I2C2_ADDR_NACK, cb, ptr);
  7631  0F16  0876               	movf	I2C2_SetAddressNackCallback@cb+1,w
  7632  0F17  00F1               	movwf	I2C2_SetCallback@cb+1
  7633  0F18  0875               	movf	I2C2_SetAddressNackCallback@cb,w
  7634  0F19  00F0               	movwf	I2C2_SetCallback@cb
  7635  0F1A  0877               	movf	I2C2_SetAddressNackCallback@ptr,w
  7636  0F1B  00F8               	movwf	??_I2C2_SetAddressNackCallback
  7637  0F1C  0878               	movf	??_I2C2_SetAddressNackCallback,w
  7638  0F1D  00F2               	movwf	I2C2_SetCallback@ptr
  7639  0F1E  3002               	movlw	2
  7640  0F1F  3180  2073  318F   	fcall	_I2C2_SetCallback
  7641  0F22                     l462:
  7642  0F22  0008               	return
  7643  0F23                     __end_of_I2C2_SetAddressNackCallback:
  7644                           
  7645                           	psect	text26
  7646  01E6                     __ptext26:	
  7647 ;; *************** function _I2C2_Open *****************
  7648 ;; Defined at:
  7649 ;;		line 176 in file "mcc_generated_files/i2c2_master.c"
  7650 ;; Parameters:    Size  Location     Type
  7651 ;;  address         1    wreg     unsigned char 
  7652 ;; Auto vars:     Size  Location     Type
  7653 ;;  address         1    1[COMMON] unsigned char 
  7654 ;;  returnValue     1    2[COMMON] enum E355
  7655 ;; Return value:  Size  Location     Type
  7656 ;;                  1    wreg      enum E355
  7657 ;; Registers used:
  7658 ;;		wreg, status,2, status,0, pclath, cstack
  7659 ;; Tracked objects:
  7660 ;;		On entry : 0/0
  7661 ;;		On exit  : 0/0
  7662 ;;		Unchanged: 0/0
  7663 ;; Data sizes:     COMMON   BANK0   BANK1   BANK2   BANK3   BANK4   BANK5   BANK6   BANK7   BANK8   BANK9  BANK10  BANK1
      +1  BANK12
  7664 ;;      Params:         0       0       0       0       0       0       0       0       0       0       0       0       
      +0       0
  7665 ;;      Locals:         2       0       0       0       0       0       0       0       0       0       0       0       
      +0       0
  7666 ;;      Temps:          1       0       0       0       0       0       0       0       0       0       0       0       
      +0       0
  7667 ;;      Totals:         3       0       0       0       0       0       0       0       0       0       0       0       
      +0       0
  7668 ;;Total ram usage:        3 bytes
  7669 ;; Hardware stack levels used: 1
  7670 ;; Hardware stack levels required when called: 1
  7671 ;; This function calls:
  7672 ;;		_I2C2_MasterClearIrq
  7673 ;;		_I2C2_MasterOpen
  7674 ;; This function is called by:
  7675 ;;		_I2C2_Read1ByteRegister
  7676 ;;		_I2C2_Read2ByteRegister
  7677 ;;		_I2C2_Write1ByteRegister
  7678 ;;		_I2C2_Write2ByteRegister
  7679 ;;		_I2C2_WriteNBytes
  7680 ;;		_I2C2_ReadNBytes
  7681 ;;		_I2C2_ReadDataBlock
  7682 ;; This function uses a non-reentrant model
  7683 ;;
  7684                           
  7685                           
  7686                           ;psect for function _I2C2_Open
  7687  01E6                     _I2C2_Open:
  7688                           
  7689                           ;incstack = 0
  7690                           ; Regs used in _I2C2_Open: [wreg+status,2+status,0+pclath+cstack]
  7691                           ;I2C2_Open@address stored from wreg
  7692  01E6  00F1               	movwf	I2C2_Open@address
  7693  01E7                     l3050:
  7694                           
  7695                           ;mcc_generated_files/i2c2_master.c: 176: i2c2_error_t I2C2_Open(i2c2_address_t address);
      +                          mcc_generated_files/i2c2_master.c: 177: {;mcc_generated_files/i2c2_master.c: 178:     i2
      +                          c2_error_t returnValue = I2C2_BUSY;
  7696  01E7  01F2               	clrf	I2C2_Open@returnValue
  7697  01E8  0AF2               	incf	I2C2_Open@returnValue,f
  7698                           
  7699                           ;mcc_generated_files/i2c2_master.c: 180:     if(!I2C2_Status.inUse)
  7700  01E9  0021               	movlb	1	; select bank1
  7701  01EA  193C               	btfsc	(_I2C2_Status^(0+128)+28),2
  7702  01EB  29ED               	goto	u1591
  7703  01EC  29EE               	goto	u1590
  7704  01ED                     u1591:
  7705  01ED  2A1E               	goto	l429
  7706  01EE                     u1590:
  7707  01EE                     l3052:
  7708                           
  7709                           ;mcc_generated_files/i2c2_master.c: 181:     {;mcc_generated_files/i2c2_master.c: 182:  
      +                                 I2C2_Status.address = address;
  7710  01EE  0871               	movf	I2C2_Open@address,w
  7711  01EF  00F0               	movwf	??_I2C2_Open
  7712  01F0  0870               	movf	??_I2C2_Open,w
  7713  01F1  00B6               	movwf	(_I2C2_Status^(0+128)+22)
  7714  01F2                     l3054:
  7715                           
  7716                           ;mcc_generated_files/i2c2_master.c: 183:         I2C2_Status.busy = 0;
  7717  01F2  10BC               	bcf	(_I2C2_Status^(0+128)+28),1
  7718  01F3                     l3056:
  7719                           
  7720                           ;mcc_generated_files/i2c2_master.c: 184:         I2C2_Status.inUse = 1;
  7721  01F3  153C               	bsf	(_I2C2_Status^(0+128)+28),2
  7722  01F4                     l3058:
  7723                           
  7724                           ;mcc_generated_files/i2c2_master.c: 185:         I2C2_Status.addressNackCheck = 0;
  7725  01F4  103C               	bcf	(_I2C2_Status^(0+128)+28),0
  7726                           
  7727                           ;mcc_generated_files/i2c2_master.c: 186:         I2C2_Status.state = I2C2_RESET;
  7728  01F5  300E               	movlw	14
  7729  01F6  00F0               	movwf	??_I2C2_Open
  7730  01F7  0870               	movf	??_I2C2_Open,w
  7731  01F8  00BA               	movwf	(_I2C2_Status^(0+128)+26)
  7732                           
  7733                           ;mcc_generated_files/i2c2_master.c: 187:         I2C2_Status.time_out_value = 500;
  7734  01F9  30F4               	movlw	244
  7735  01FA  00B4               	movwf	(_I2C2_Status^(0+128)+20)
  7736  01FB  3001               	movlw	1
  7737  01FC  00B5               	movwf	(_I2C2_Status^(0+128)+21)
  7738  01FD                     l3060:
  7739                           
  7740                           ;mcc_generated_files/i2c2_master.c: 188:         I2C2_Status.bufferFree = 1;
  7741  01FD  15BC               	bsf	(_I2C2_Status^(0+128)+28),3
  7742                           
  7743                           ;mcc_generated_files/i2c2_master.c: 191:         I2C2_Status.callbackTable[I2C2_DATA_COM
      +                          PLETE]=I2C2_CallbackReturnStop;
  7744  01FE  3035               	movlw	low _I2C2_CallbackReturnStop
  7745  01FF  00A0               	movwf	_I2C2_Status^(0+128)
  7746  0200  300E               	movlw	high _I2C2_CallbackReturnStop
  7747  0201  00A1               	movwf	(_I2C2_Status^(0+128)+1)
  7748  0202                     l3062:
  7749                           
  7750                           ;mcc_generated_files/i2c2_master.c: 192:         I2C2_Status.callbackPayload[I2C2_DATA_C
      +                          OMPLETE] = ((void*)0);
  7751  0202  01AC               	clrf	(low ((_I2C2_Status| 0+12)))^(0+128)
  7752  0203                     l3064:
  7753                           
  7754                           ;mcc_generated_files/i2c2_master.c: 193:         I2C2_Status.callbackTable[I2C2_WRITE_CO
      +                          LLISION]=I2C2_CallbackReturnStop;
  7755  0203  3035               	movlw	low _I2C2_CallbackReturnStop
  7756  0204  00A2               	movwf	(low ((_I2C2_Status| 0+2)))^(0+128)
  7757  0205  300E               	movlw	high _I2C2_CallbackReturnStop
  7758  0206  00A3               	movwf	((low ((_I2C2_Status| 0+2)))^(0+128)+1)
  7759                           
  7760                           ;mcc_generated_files/i2c2_master.c: 194:         I2C2_Status.callbackPayload[I2C2_WRITE_
      +                          COLLISION] = ((void*)0);
  7761  0207  01AD               	clrf	(low ((_I2C2_Status| 0+13)))^(0+128)
  7762  0208                     l3066:
  7763                           
  7764                           ;mcc_generated_files/i2c2_master.c: 195:         I2C2_Status.callbackTable[I2C2_ADDR_NAC
      +                          K]=I2C2_CallbackReturnStop;
  7765  0208  3035               	movlw	low _I2C2_CallbackReturnStop
  7766  0209  00A4               	movwf	(low ((_I2C2_Status| 0+4)))^(0+128)
  7767  020A  300E               	movlw	high _I2C2_CallbackReturnStop
  7768  020B  00A5               	movwf	((low ((_I2C2_Status| 0+4)))^(0+128)+1)
  7769  020C                     l3068:
  7770                           
  7771                           ;mcc_generated_files/i2c2_master.c: 196:         I2C2_Status.callbackPayload[I2C2_ADDR_N
      +                          ACK] = ((void*)0);
  7772  020C  01AE               	clrf	(low ((_I2C2_Status| 0+14)))^(0+128)
  7773                           
  7774                           ;mcc_generated_files/i2c2_master.c: 197:         I2C2_Status.callbackTable[I2C2_DATA_NAC
      +                          K]=I2C2_CallbackReturnStop;
  7775  020D  3035               	movlw	low _I2C2_CallbackReturnStop
  7776  020E  00A6               	movwf	(low ((_I2C2_Status| 0+6)))^(0+128)
  7777  020F  300E               	movlw	high _I2C2_CallbackReturnStop
  7778  0210  00A7               	movwf	((low ((_I2C2_Status| 0+6)))^(0+128)+1)
  7779  0211                     l3070:
  7780                           
  7781                           ;mcc_generated_files/i2c2_master.c: 198:         I2C2_Status.callbackPayload[I2C2_DATA_N
      +                          ACK] = ((void*)0);
  7782  0211  01AF               	clrf	(low ((_I2C2_Status| 0+15)))^(0+128)
  7783  0212                     l3072:
  7784                           
  7785                           ;mcc_generated_files/i2c2_master.c: 199:         I2C2_Status.callbackTable[I2C2_TIMEOUT]
      +                          =I2C2_CallbackReturnReset;
  7786  0212  3037               	movlw	low _I2C2_CallbackReturnReset
  7787  0213  00A8               	movwf	(low ((_I2C2_Status| 0+8)))^(0+128)
  7788  0214  300E               	movlw	high _I2C2_CallbackReturnReset
  7789  0215  00A9               	movwf	((low ((_I2C2_Status| 0+8)))^(0+128)+1)
  7790                           
  7791                           ;mcc_generated_files/i2c2_master.c: 200:         I2C2_Status.callbackPayload[I2C2_TIMEOU
      +                          T] = ((void*)0);
  7792  0216  01B0               	clrf	(low ((_I2C2_Status| 0+16)))^(0+128)
  7793  0217                     l3074:
  7794                           
  7795                           ;mcc_generated_files/i2c2_master.c: 202:         I2C2_MasterClearIrq();
  7796  0217  318E  2639  3181   	fcall	_I2C2_MasterClearIrq
  7797  021A                     l3076:
  7798                           
  7799                           ;mcc_generated_files/i2c2_master.c: 203:         I2C2_MasterOpen();
  7800  021A  318F  2709  3181   	fcall	_I2C2_MasterOpen
  7801  021D                     l3078:
  7802                           
  7803                           ;mcc_generated_files/i2c2_master.c: 204:         returnValue = I2C2_NOERR;
  7804  021D  01F2               	clrf	I2C2_Open@returnValue
  7805  021E                     l429:	
  7806                           ;mcc_generated_files/i2c2_master.c: 205:     }
  7807                           
  7808                           
  7809                           ;mcc_generated_files/i2c2_master.c: 206:     return returnValue;
  7810  021E  0872               	movf	I2C2_Open@returnValue,w
  7811  021F                     l430:
  7812  021F  0008               	return
  7813  0220                     __end_of_I2C2_Open:
  7814                           
  7815                           	psect	text27
  7816  0F09                     __ptext27:	
  7817 ;; *************** function _I2C2_MasterOpen *****************
  7818 ;; Defined at:
  7819 ;;		line 543 in file "mcc_generated_files/i2c2_master.c"
  7820 ;; Parameters:    Size  Location     Type
  7821 ;;		None
  7822 ;; Auto vars:     Size  Location     Type
  7823 ;;		None
  7824 ;; Return value:  Size  Location     Type
  7825 ;;                  1    wreg      _Bool 
  7826 ;; Registers used:
  7827 ;;		wreg, status,2
  7828 ;; Tracked objects:
  7829 ;;		On entry : 0/0
  7830 ;;		On exit  : 0/0
  7831 ;;		Unchanged: 0/0
  7832 ;; Data sizes:     COMMON   BANK0   BANK1   BANK2   BANK3   BANK4   BANK5   BANK6   BANK7   BANK8   BANK9  BANK10  BANK1
      +1  BANK12
  7833 ;;      Params:         0       0       0       0       0       0       0       0       0       0       0       0       
      +0       0
  7834 ;;      Locals:         0       0       0       0       0       0       0       0       0       0       0       0       
      +0       0
  7835 ;;      Temps:          0       0       0       0       0       0       0       0       0       0       0       0       
      +0       0
  7836 ;;      Totals:         0       0       0       0       0       0       0       0       0       0       0       0       
      +0       0
  7837 ;;Total ram usage:        0 bytes
  7838 ;; Hardware stack levels used: 1
  7839 ;; This function calls:
  7840 ;;		Nothing
  7841 ;; This function is called by:
  7842 ;;		_I2C2_Open
  7843 ;; This function uses a non-reentrant model
  7844 ;;
  7845                           
  7846                           
  7847                           ;psect for function _I2C2_MasterOpen
  7848  0F09                     _I2C2_MasterOpen:
  7849  0F09                     l2902:	
  7850                           ;incstack = 0
  7851                           ; Regs used in _I2C2_MasterOpen: [wreg+status,2]
  7852                           
  7853                           
  7854                           ;mcc_generated_files/i2c2_master.c: 545:     if(!SSP2CON1bits.SSPEN)
  7855  0F09  0023               	movlb	3	; select bank3
  7856  0F0A  1A9A               	btfsc	26,5	;volatile
  7857  0F0B  2F0D               	goto	u1521
  7858  0F0C  2F0E               	goto	u1520
  7859  0F0D                     u1521:
  7860  0F0D  2F15               	goto	l595
  7861  0F0E                     u1520:
  7862  0F0E                     l2904:
  7863                           
  7864                           ;mcc_generated_files/i2c2_master.c: 546:     {;mcc_generated_files/i2c2_master.c: 547:  
      +                                 SSP2STAT = 0x00;
  7865  0F0E  0199               	clrf	25	;volatile
  7866  0F0F                     l2906:
  7867                           
  7868                           ;mcc_generated_files/i2c2_master.c: 548:         SSP2CON1 = 0x18;
  7869  0F0F  3018               	movlw	24
  7870  0F10  009A               	movwf	26	;volatile
  7871  0F11                     l2908:
  7872                           
  7873                           ;mcc_generated_files/i2c2_master.c: 549:         SSP2CON2 = 0x00;
  7874  0F11  019B               	clrf	27	;volatile
  7875                           
  7876                           ;mcc_generated_files/i2c2_master.c: 550:         SSP2ADD = 0x04;
  7877  0F12  3004               	movlw	4
  7878  0F13  0097               	movwf	23	;volatile
  7879  0F14                     l2910:
  7880                           
  7881                           ;mcc_generated_files/i2c2_master.c: 551:         SSP2CON1bits.SSPEN = 1;
  7882  0F14  169A               	bsf	26,5	;volatile
  7883  0F15                     l595:
  7884  0F15  0008               	return
  7885  0F16                     __end_of_I2C2_MasterOpen:
  7886                           
  7887                           	psect	text28
  7888  0E8E                     __ptext28:	
  7889 ;; *************** function _I2C2_MasterWrite *****************
  7890 ;; Defined at:
  7891 ;;		line 251 in file "mcc_generated_files/i2c2_master.c"
  7892 ;; Parameters:    Size  Location     Type
  7893 ;;		None
  7894 ;; Auto vars:     Size  Location     Type
  7895 ;;		None
  7896 ;; Return value:  Size  Location     Type
  7897 ;;                  1    wreg      enum E355
  7898 ;; Registers used:
  7899 ;;		wreg, fsr0l, fsr0h, fsr1l, fsr1h, status,2, status,0, pclath, cstack
  7900 ;; Tracked objects:
  7901 ;;		On entry : 0/0
  7902 ;;		On exit  : 0/0
  7903 ;;		Unchanged: 0/0
  7904 ;; Data sizes:     COMMON   BANK0   BANK1   BANK2   BANK3   BANK4   BANK5   BANK6   BANK7   BANK8   BANK9  BANK10  BANK1
      +1  BANK12
  7905 ;;      Params:         0       0       0       0       0       0       0       0       0       0       0       0       
      +0       0
  7906 ;;      Locals:         0       0       0       0       0       0       0       0       0       0       0       0       
      +0       0
  7907 ;;      Temps:          0       0       0       0       0       0       0       0       0       0       0       0       
      +0       0
  7908 ;;      Totals:         0       0       0       0       0       0       0       0       0       0       0       0       
      +0       0
  7909 ;;Total ram usage:        0 bytes
  7910 ;; Hardware stack levels used: 1
  7911 ;; Hardware stack levels required when called: 7
  7912 ;; This function calls:
  7913 ;;		_I2C2_MasterOperation
  7914 ;; This function is called by:
  7915 ;;		_I2C2_Read1ByteRegister
  7916 ;;		_I2C2_Read2ByteRegister
  7917 ;;		_I2C2_Write1ByteRegister
  7918 ;;		_I2C2_Write2ByteRegister
  7919 ;;		_I2C2_WriteNBytes
  7920 ;;		_I2C2_ReadDataBlock
  7921 ;; This function uses a non-reentrant model
  7922 ;;
  7923                           
  7924                           
  7925                           ;psect for function _I2C2_MasterWrite
  7926  0E8E                     _I2C2_MasterWrite:
  7927  0E8E                     l3084:	
  7928                           ;incstack = 0
  7929                           ; Regs used in _I2C2_MasterWrite: [wreg-fsr1h+status,2+status,0+pclath+cstack]
  7930                           
  7931                           
  7932                           ;mcc_generated_files/i2c2_master.c: 253:     return I2C2_MasterOperation(0);;	Return val
      +                          ue of _I2C2_MasterWrite is never used
  7933  0E8E  3000               	movlw	0
  7934  0E8F  3180  2050  318E   	fcall	_I2C2_MasterOperation
  7935  0E92                     l446:
  7936  0E92  0008               	return
  7937  0E93                     __end_of_I2C2_MasterWrite:
  7938                           
  7939                           	psect	text29
  7940  0050                     __ptext29:	
  7941 ;; *************** function _I2C2_MasterOperation *****************
  7942 ;; Defined at:
  7943 ;;		line 224 in file "mcc_generated_files/i2c2_master.c"
  7944 ;; Parameters:    Size  Location     Type
  7945 ;;  read            1    wreg     _Bool 
  7946 ;; Auto vars:     Size  Location     Type
  7947 ;;  read            1    3[BANK0 ] _Bool 
  7948 ;;  returnValue     1    4[BANK0 ] enum E355
  7949 ;; Return value:  Size  Location     Type
  7950 ;;                  1    wreg      enum E355
  7951 ;; Registers used:
  7952 ;;		wreg, fsr0l, fsr0h, fsr1l, fsr1h, status,2, status,0, pclath, cstack
  7953 ;; Tracked objects:
  7954 ;;		On entry : 0/0
  7955 ;;		On exit  : 0/0
  7956 ;;		Unchanged: 0/0
  7957 ;; Data sizes:     COMMON   BANK0   BANK1   BANK2   BANK3   BANK4   BANK5   BANK6   BANK7   BANK8   BANK9  BANK10  BANK1
      +1  BANK12
  7958 ;;      Params:         0       0       0       0       0       0       0       0       0       0       0       0       
      +0       0
  7959 ;;      Locals:         0       2       0       0       0       0       0       0       0       0       0       0       
      +0       0
  7960 ;;      Temps:          1       0       0       0       0       0       0       0       0       0       0       0       
      +0       0
  7961 ;;      Totals:         1       2       0       0       0       0       0       0       0       0       0       0       
      +0       0
  7962 ;;Total ram usage:        3 bytes
  7963 ;; Hardware stack levels used: 1
  7964 ;; Hardware stack levels required when called: 6
  7965 ;; This function calls:
  7966 ;;		_I2C2_MasterStart
  7967 ;;		_I2C2_Poller
  7968 ;; This function is called by:
  7969 ;;		_I2C2_MasterWrite
  7970 ;;		_I2C2_MasterRead
  7971 ;; This function uses a non-reentrant model
  7972 ;;
  7973                           
  7974                           
  7975                           ;psect for function _I2C2_MasterOperation
  7976  0050                     _I2C2_MasterOperation:
  7977                           
  7978                           ;incstack = 0
  7979                           ; Regs used in _I2C2_MasterOperation: [wreg-fsr1h+status,2+status,0+pclath+cstack]
  7980                           ;I2C2_MasterOperation@read stored from wreg
  7981  0050  0020               	movlb	0	; select bank0
  7982  0051  00A3               	movwf	I2C2_MasterOperation@read
  7983  0052                     l2918:
  7984                           
  7985                           ;mcc_generated_files/i2c2_master.c: 224: i2c2_error_t I2C2_MasterOperation(_Bool read);m
      +                          cc_generated_files/i2c2_master.c: 225: {;mcc_generated_files/i2c2_master.c: 226:     i2c
      +                          2_error_t returnValue = I2C2_BUSY;
  7986  0052  01A4               	clrf	I2C2_MasterOperation@returnValue
  7987  0053  0AA4               	incf	I2C2_MasterOperation@returnValue,f
  7988                           
  7989                           ;mcc_generated_files/i2c2_master.c: 227:     if(!I2C2_Status.busy)
  7990  0054  0021               	movlb	1	; select bank1
  7991  0055  18BC               	btfsc	(_I2C2_Status^(0+128)+28),1
  7992  0056  2858               	goto	u1531
  7993  0057  2859               	goto	u1530
  7994  0058                     u1531:
  7995  0058  2870               	goto	l2934
  7996  0059                     u1530:
  7997  0059                     l2920:
  7998                           
  7999                           ;mcc_generated_files/i2c2_master.c: 228:     {;mcc_generated_files/i2c2_master.c: 229:  
      +                                 I2C2_Status.busy = 1;
  8000  0059  14BC               	bsf	(_I2C2_Status^(0+128)+28),1
  8001  005A                     l2922:
  8002                           
  8003                           ;mcc_generated_files/i2c2_master.c: 230:         returnValue = I2C2_NOERR;
  8004  005A  0020               	movlb	0	; select bank0
  8005  005B  01A4               	clrf	I2C2_MasterOperation@returnValue
  8006  005C                     l2924:
  8007                           
  8008                           ;mcc_generated_files/i2c2_master.c: 232:         if(read)
  8009  005C  0823               	movf	I2C2_MasterOperation@read,w
  8010  005D  1903               	btfsc	3,2
  8011  005E  2860               	goto	u1541
  8012  005F  2861               	goto	u1540
  8013  0060                     u1541:
  8014  0060  2865               	goto	l2928
  8015  0061                     u1540:
  8016  0061                     l2926:
  8017                           
  8018                           ;mcc_generated_files/i2c2_master.c: 233:         {;mcc_generated_files/i2c2_master.c: 23
      +                          4:             I2C2_Status.state = I2C2_SEND_ADR_READ;
  8019  0061  0021               	movlb	1	; select bank1
  8020  0062  01BA               	clrf	(_I2C2_Status^(0+128)+26)
  8021  0063  0ABA               	incf	(_I2C2_Status^(0+128)+26),f
  8022                           
  8023                           ;mcc_generated_files/i2c2_master.c: 235:         }
  8024  0064  286A               	goto	l2930
  8025  0065                     l2928:
  8026                           
  8027                           ;mcc_generated_files/i2c2_master.c: 237:         {;mcc_generated_files/i2c2_master.c: 23
      +                          8:             I2C2_Status.state = I2C2_SEND_ADR_WRITE;
  8028  0065  3002               	movlw	2
  8029  0066  00FD               	movwf	??_I2C2_MasterOperation
  8030  0067  087D               	movf	??_I2C2_MasterOperation,w
  8031  0068  0021               	movlb	1	; select bank1
  8032  0069  00BA               	movwf	(_I2C2_Status^(0+128)+26)
  8033  006A                     l2930:
  8034                           
  8035                           ;mcc_generated_files/i2c2_master.c: 240:         I2C2_MasterStart();
  8036  006A  318E  2642  3180   	fcall	_I2C2_MasterStart
  8037  006D                     l2932:
  8038                           
  8039                           ;mcc_generated_files/i2c2_master.c: 241:         I2C2_Poller();
  8040  006D  318E  26FC  3180   	fcall	_I2C2_Poller
  8041  0070                     l2934:
  8042                           
  8043                           ;mcc_generated_files/i2c2_master.c: 243:     return returnValue;
  8044  0070  0020               	movlb	0	; select bank0
  8045  0071  0824               	movf	I2C2_MasterOperation@returnValue,w
  8046  0072                     l440:
  8047  0072  0008               	return
  8048  0073                     __end_of_I2C2_MasterOperation:
  8049                           
  8050                           	psect	text30
  8051  0EFC                     __ptext30:	
  8052 ;; *************** function _I2C2_Poller *****************
  8053 ;; Defined at:
  8054 ;;		line 312 in file "mcc_generated_files/i2c2_master.c"
  8055 ;; Parameters:    Size  Location     Type
  8056 ;;		None
  8057 ;; Auto vars:     Size  Location     Type
  8058 ;;		None
  8059 ;; Return value:  Size  Location     Type
  8060 ;;                  1    wreg      void 
  8061 ;; Registers used:
  8062 ;;		wreg, fsr0l, fsr0h, fsr1l, fsr1h, status,2, status,0, pclath, cstack
  8063 ;; Tracked objects:
  8064 ;;		On entry : 0/0
  8065 ;;		On exit  : 0/0
  8066 ;;		Unchanged: 0/0
  8067 ;; Data sizes:     COMMON   BANK0   BANK1   BANK2   BANK3   BANK4   BANK5   BANK6   BANK7   BANK8   BANK9  BANK10  BANK1
      +1  BANK12
  8068 ;;      Params:         0       0       0       0       0       0       0       0       0       0       0       0       
      +0       0
  8069 ;;      Locals:         0       0       0       0       0       0       0       0       0       0       0       0       
      +0       0
  8070 ;;      Temps:          0       0       0       0       0       0       0       0       0       0       0       0       
      +0       0
  8071 ;;      Totals:         0       0       0       0       0       0       0       0       0       0       0       0       
      +0       0
  8072 ;;Total ram usage:        0 bytes
  8073 ;; Hardware stack levels used: 1
  8074 ;; Hardware stack levels required when called: 5
  8075 ;; This function calls:
  8076 ;;		_I2C2_MasterFsm
  8077 ;;		_I2C2_MasterWaitForEvent
  8078 ;; This function is called by:
  8079 ;;		_I2C2_MasterOperation
  8080 ;; This function uses a non-reentrant model
  8081 ;;
  8082                           
  8083                           
  8084                           ;psect for function _I2C2_Poller
  8085  0EFC                     _I2C2_Poller:
  8086  0EFC                     l2830:	
  8087                           ;incstack = 0
  8088                           ; Regs used in _I2C2_Poller: [wreg-fsr1h+status,2+status,0+pclath+cstack]
  8089                           
  8090                           
  8091                           ;mcc_generated_files/i2c2_master.c: 314:     while(I2C2_Status.busy)
  8092  0EFC  2F03               	goto	l2836
  8093  0EFD                     l2832:
  8094                           
  8095                           ;mcc_generated_files/i2c2_master.c: 315:     {;mcc_generated_files/i2c2_master.c: 316:  
      +                                 I2C2_MasterWaitForEvent();
  8096  0EFD  318E  2699  318E   	fcall	_I2C2_MasterWaitForEvent
  8097  0F00                     l2834:
  8098                           
  8099                           ;mcc_generated_files/i2c2_master.c: 317:         I2C2_MasterFsm();
  8100  0F00  3180  20ED  318E   	fcall	_I2C2_MasterFsm
  8101  0F03                     l2836:
  8102                           
  8103                           ;mcc_generated_files/i2c2_master.c: 314:     while(I2C2_Status.busy)
  8104  0F03  0021               	movlb	1	; select bank1
  8105  0F04  18BC               	btfsc	(_I2C2_Status^(0+128)+28),1
  8106  0F05  2F07               	goto	u1351
  8107  0F06  2F08               	goto	u1350
  8108  0F07                     u1351:
  8109  0F07  2EFD               	goto	l2832
  8110  0F08                     u1350:
  8111  0F08                     l479:
  8112  0F08  0008               	return
  8113  0F09                     __end_of_I2C2_Poller:
  8114                           
  8115                           	psect	text31
  8116  0E99                     __ptext31:	
  8117 ;; *************** function _I2C2_MasterWaitForEvent *****************
  8118 ;; Defined at:
  8119 ;;		line 650 in file "mcc_generated_files/i2c2_master.c"
  8120 ;; Parameters:    Size  Location     Type
  8121 ;;		None
  8122 ;; Auto vars:     Size  Location     Type
  8123 ;;		None
  8124 ;; Return value:  Size  Location     Type
  8125 ;;                  1    wreg      void 
  8126 ;; Registers used:
  8127 ;;		None
  8128 ;; Tracked objects:
  8129 ;;		On entry : 0/0
  8130 ;;		On exit  : 0/0
  8131 ;;		Unchanged: 0/0
  8132 ;; Data sizes:     COMMON   BANK0   BANK1   BANK2   BANK3   BANK4   BANK5   BANK6   BANK7   BANK8   BANK9  BANK10  BANK1
      +1  BANK12
  8133 ;;      Params:         0       0       0       0       0       0       0       0       0       0       0       0       
      +0       0
  8134 ;;      Locals:         0       0       0       0       0       0       0       0       0       0       0       0       
      +0       0
  8135 ;;      Temps:          0       0       0       0       0       0       0       0       0       0       0       0       
      +0       0
  8136 ;;      Totals:         0       0       0       0       0       0       0       0       0       0       0       0       
      +0       0
  8137 ;;Total ram usage:        0 bytes
  8138 ;; Hardware stack levels used: 1
  8139 ;; This function calls:
  8140 ;;		Nothing
  8141 ;; This function is called by:
  8142 ;;		_I2C2_Poller
  8143 ;; This function uses a non-reentrant model
  8144 ;;
  8145                           
  8146                           
  8147                           ;psect for function _I2C2_MasterWaitForEvent
  8148  0E99                     _I2C2_MasterWaitForEvent:
  8149  0E99                     l652:	
  8150                           ;incstack = 0
  8151                           ; Regs used in _I2C2_MasterWaitForEvent: []
  8152                           ;mcc_generated_files/i2c2_master.c: 652:     while(1)
  8153                           
  8154                           
  8155                           ;mcc_generated_files/i2c2_master.c: 653:     {;mcc_generated_files/i2c2_master.c: 654:  
      +                                 if(PIR3bits.SSP2IF)
  8156  0E99  002E               	movlb	14	; select bank14
  8157  0E9A  1D0F               	btfss	15,2	;volatile
  8158  0E9B  2E9D               	goto	u1061
  8159  0E9C  2E9E               	goto	u1060
  8160  0E9D                     u1061:
  8161  0E9D  2E99               	goto	l652
  8162  0E9E                     u1060:
  8163  0E9E                     l656:
  8164  0E9E  0008               	return
  8165  0E9F                     __end_of_I2C2_MasterWaitForEvent:
  8166                           
  8167                           	psect	text32
  8168  00ED                     __ptext32:	
  8169 ;; *************** function _I2C2_MasterFsm *****************
  8170 ;; Defined at:
  8171 ;;		line 321 in file "mcc_generated_files/i2c2_master.c"
  8172 ;; Parameters:    Size  Location     Type
  8173 ;;		None
  8174 ;; Auto vars:     Size  Location     Type
  8175 ;;		None
  8176 ;; Return value:  Size  Location     Type
  8177 ;;                  1    wreg      void 
  8178 ;; Registers used:
  8179 ;;		wreg, fsr0l, fsr0h, fsr1l, fsr1h, status,2, status,0, pclath, cstack
  8180 ;; Tracked objects:
  8181 ;;		On entry : 0/0
  8182 ;;		On exit  : 0/0
  8183 ;;		Unchanged: 0/0
  8184 ;; Data sizes:     COMMON   BANK0   BANK1   BANK2   BANK3   BANK4   BANK5   BANK6   BANK7   BANK8   BANK9  BANK10  BANK1
      +1  BANK12
  8185 ;;      Params:         0       0       0       0       0       0       0       0       0       0       0       0       
      +0       0
  8186 ;;      Locals:         0       0       0       0       0       0       0       0       0       0       0       0       
      +0       0
  8187 ;;      Temps:          0       3       0       0       0       0       0       0       0       0       0       0       
      +0       0
  8188 ;;      Totals:         0       3       0       0       0       0       0       0       0       0       0       0       
      +0       0
  8189 ;;Total ram usage:        3 bytes
  8190 ;; Hardware stack levels used: 1
  8191 ;; Hardware stack levels required when called: 4
  8192 ;; This function calls:
  8193 ;;		_I2C2_DO_ADDRESS_NACK
  8194 ;;		_I2C2_DO_IDLE
  8195 ;;		_I2C2_DO_RCEN
  8196 ;;		_I2C2_DO_RESET
  8197 ;;		_I2C2_DO_RX
  8198 ;;		_I2C2_DO_RX_ACK
  8199 ;;		_I2C2_DO_RX_NACK_RESTART
  8200 ;;		_I2C2_DO_RX_NACK_STOP
  8201 ;;		_I2C2_DO_SEND_ADR_READ
  8202 ;;		_I2C2_DO_SEND_ADR_WRITE
  8203 ;;		_I2C2_DO_SEND_RESTART
  8204 ;;		_I2C2_DO_SEND_RESTART_READ
  8205 ;;		_I2C2_DO_SEND_RESTART_WRITE
  8206 ;;		_I2C2_DO_SEND_STOP
  8207 ;;		_I2C2_DO_TX
  8208 ;;		_I2C2_DO_TX_EMPTY
  8209 ;;		_I2C2_MasterClearIrq
  8210 ;;		_I2C2_MasterIsNack
  8211 ;; This function is called by:
  8212 ;;		_I2C2_Poller
  8213 ;; This function uses a non-reentrant model
  8214 ;;
  8215                           
  8216                           
  8217                           ;psect for function _I2C2_MasterFsm
  8218  00ED                     _I2C2_MasterFsm:
  8219  00ED                     l2726:	
  8220                           ;incstack = 0
  8221                           ; Regs used in _I2C2_MasterFsm: [wreg-fsr1h+status,2+status,0+pclath+cstack]
  8222                           
  8223                           
  8224                           ;mcc_generated_files/i2c2_master.c: 323:     I2C2_MasterClearIrq();
  8225  00ED  318E  2639  3180   	fcall	_I2C2_MasterClearIrq
  8226  00F0                     l2728:
  8227                           
  8228                           ;mcc_generated_files/i2c2_master.c: 325:     if(I2C2_Status.addressNackCheck && I2C2_Mas
      +                          terIsNack())
  8229  00F0  0021               	movlb	1	; select bank1
  8230  00F1  1C3C               	btfss	(_I2C2_Status^(0+128)+28),0
  8231  00F2  28F4               	goto	u1071
  8232  00F3  28F5               	goto	u1070
  8233  00F4                     u1071:
  8234  00F4  2903               	goto	l2734
  8235  00F5                     u1070:
  8236  00F5                     l2730:
  8237  00F5  318E  2693  3180   	fcall	_I2C2_MasterIsNack
  8238  00F8  3A00               	xorlw	0
  8239  00F9  1903               	skipnz
  8240  00FA  28FC               	goto	u1081
  8241  00FB  28FD               	goto	u1080
  8242  00FC                     u1081:
  8243  00FC  2903               	goto	l2734
  8244  00FD                     u1080:
  8245  00FD                     l2732:
  8246                           
  8247                           ;mcc_generated_files/i2c2_master.c: 326:     {;mcc_generated_files/i2c2_master.c: 327:  
      +                                 I2C2_Status.state = I2C2_ADDRESS_NACK;
  8248  00FD  300F               	movlw	15
  8249  00FE  0020               	movlb	0	; select bank0
  8250  00FF  00A0               	movwf	??_I2C2_MasterFsm
  8251  0100  0820               	movf	??_I2C2_MasterFsm,w
  8252  0101  0021               	movlb	1	; select bank1
  8253  0102  00BA               	movwf	(_I2C2_Status^(0+128)+26)
  8254  0103                     l2734:
  8255                           
  8256                           ;mcc_generated_files/i2c2_master.c: 329:     I2C2_Status.state = i2c2_fsmStateTable[I2C2
      +                          _Status.state]();
  8257  0103  0021               	movlb	1	; select bank1
  8258  0104  083A               	movf	(_I2C2_Status^(0+128)+26),w
  8259  0105  0020               	movlb	0	; select bank0
  8260  0106  00A0               	movwf	??_I2C2_MasterFsm
  8261  0107  01A1               	clrf	??_I2C2_MasterFsm+1
  8262  0108  35A0               	lslf	??_I2C2_MasterFsm,f
  8263  0109  0DA1               	rlf	??_I2C2_MasterFsm+1,f
  8264  010A  3030               	movlw	low (_i2c2_fsmStateTable| (0+32768))
  8265  010B  0720               	addwf	??_I2C2_MasterFsm,w
  8266  010C  0084               	movwf	4
  8267  010D  3088               	movlw	high (_i2c2_fsmStateTable| (0+32768))
  8268  010E  3D21               	addwfc	??_I2C2_MasterFsm+1,w
  8269  010F  0085               	movwf	5
  8270  0110  3F01               	moviw [1]fsr0
  8271  0111  008A               	movwf	10
  8272  0112  3F00               	moviw [0]fsr0
  8273  0113  000A               	callw
  8274  0114  3180               	pagesel	$
  8275  0115  0020               	movlb	0	; select bank0
  8276  0116  00A2               	movwf	??_I2C2_MasterFsm+2
  8277  0117  0822               	movf	??_I2C2_MasterFsm+2,w
  8278  0118  0021               	movlb	1	; select bank1
  8279  0119  00BA               	movwf	(_I2C2_Status^(0+128)+26)
  8280  011A                     l483:
  8281  011A  0008               	return
  8282  011B                     __end_of_I2C2_MasterFsm:
  8283                           
  8284                           	psect	text33
  8285  00C1                     __ptext33:	
  8286 ;; *************** function _I2C2_DO_ADDRESS_NACK *****************
  8287 ;; Defined at:
  8288 ;;		line 500 in file "mcc_generated_files/i2c2_master.c"
  8289 ;; Parameters:    Size  Location     Type
  8290 ;;		None
  8291 ;; Auto vars:     Size  Location     Type
  8292 ;;		None
  8293 ;; Return value:  Size  Location     Type
  8294 ;;                  1    wreg      enum E12083
  8295 ;; Registers used:
  8296 ;;		wreg, fsr0l, fsr0h, fsr1l, fsr1h, status,2, status,0, pclath, cstack
  8297 ;; Tracked objects:
  8298 ;;		On entry : 0/0
  8299 ;;		On exit  : 0/0
  8300 ;;		Unchanged: 0/0
  8301 ;; Data sizes:     COMMON   BANK0   BANK1   BANK2   BANK3   BANK4   BANK5   BANK6   BANK7   BANK8   BANK9  BANK10  BANK1
      +1  BANK12
  8302 ;;      Params:         0       0       0       0       0       0       0       0       0       0       0       0       
      +0       0
  8303 ;;      Locals:         0       0       0       0       0       0       0       0       0       0       0       0       
      +0       0
  8304 ;;      Temps:          3       0       0       0       0       0       0       0       0       0       0       0       
      +0       0
  8305 ;;      Totals:         3       0       0       0       0       0       0       0       0       0       0       0       
      +0       0
  8306 ;;Total ram usage:        3 bytes
  8307 ;; Hardware stack levels used: 1
  8308 ;; Hardware stack levels required when called: 3
  8309 ;; This function calls:
  8310 ;;		Absolute function
  8311 ;;		_I2C2_CallbackReturnReset
  8312 ;;		_I2C2_CallbackReturnStop
  8313 ;;		_I2C2_DO_SEND_RESTART
  8314 ;;		_I2C2_DO_SEND_STOP
  8315 ;;		_rd1RegCompleteHandler
  8316 ;;		_rd2RegCompleteHandler
  8317 ;;		_rdBlkRegCompleteHandler
  8318 ;;		_wr1RegCompleteHandler
  8319 ;;		_wr2RegCompleteHandler
  8320 ;; This function is called by:
  8321 ;;		_I2C2_MasterFsm
  8322 ;; This function uses a non-reentrant model
  8323 ;;
  8324                           
  8325                           
  8326                           ;psect for function _I2C2_DO_ADDRESS_NACK
  8327  00C1                     _I2C2_DO_ADDRESS_NACK:
  8328  00C1                     l2684:	
  8329                           ;incstack = 0
  8330                           ; Regs used in _I2C2_DO_ADDRESS_NACK: [wreg-fsr1h+status,2+status,0+pclath+cstack]
  8331                           
  8332                           
  8333                           ;mcc_generated_files/i2c2_master.c: 502:     I2C2_Status.addressNackCheck = 0;
  8334  00C1  0021               	movlb	1	; select bank1
  8335  00C2  103C               	bcf	(_I2C2_Status^(0+128)+28),0
  8336  00C3                     l2686:
  8337                           
  8338                           ;mcc_generated_files/i2c2_master.c: 503:     I2C2_Status.error = I2C2_FAIL;
  8339  00C3  3002               	movlw	2
  8340  00C4  00FA               	movwf	??_I2C2_DO_ADDRESS_NACK
  8341  00C5  087A               	movf	??_I2C2_DO_ADDRESS_NACK,w
  8342  00C6  00BB               	movwf	(_I2C2_Status^(0+128)+27)
  8343                           
  8344                           ;mcc_generated_files/i2c2_master.c: 504:     switch(I2C2_Status.callbackTable[I2C2_ADDR_
      +                          NACK](I2C2_Status.callbackPayload[I2C2_ADDR_NACK]))
  8345  00C7  28D0               	goto	l2698
  8346  00C8                     l2688:
  8347                           
  8348                           ;mcc_generated_files/i2c2_master.c: 508:             return I2C2_DO_SEND_RESTART();
  8349  00C8  318E  2670  3180   	fcall	_I2C2_DO_SEND_RESTART
  8350  00CB  28EC               	goto	l574
  8351  00CC                     l2692:
  8352                           
  8353                           ;mcc_generated_files/i2c2_master.c: 510:             return I2C2_DO_SEND_STOP();
  8354  00CC  318E  2675  3180   	fcall	_I2C2_DO_SEND_STOP
  8355  00CF  28EC               	goto	l574
  8356  00D0                     l2698:
  8357  00D0  082E               	movf	(low ((_I2C2_Status| 0+14)))^(0+128),w
  8358  00D1  00FA               	movwf	??_I2C2_DO_ADDRESS_NACK
  8359  00D2  087A               	movf	??_I2C2_DO_ADDRESS_NACK,w
  8360  00D3  00F9               	movwf	I2C2_CallbackReturnReset@funPtr
  8361  00D4  3004               	movlw	4
  8362  00D5  3EA0               	addlw	(low (_I2C2_Status| 0))& (0+255)
  8363  00D6  0086               	movwf	6
  8364  00D7  0187               	clrf	7
  8365  00D8  3F41               	moviw [1]fsr1
  8366  00D9  008A               	movwf	10
  8367  00DA  3F40               	moviw [0]fsr1
  8368  00DB  000A               	callw
  8369  00DC  3180               	pagesel	$
  8370  00DD  00FB               	movwf	??_I2C2_DO_ADDRESS_NACK+1
  8371  00DE  01FC               	clrf	??_I2C2_DO_ADDRESS_NACK+2
  8372                           
  8373                           ; Switch on 2 bytes has been partitioned into a top level switch of size 1, and 1 sub-sw
      +                          itches
  8374                           ; Switch size 1, requested type "simple"
  8375                           ; Number of cases is 1, Range of values is 0 to 0
  8376                           ; switch strategies available:
  8377                           ; Name         Instructions Cycles
  8378                           ; simple_byte            4     3 (average)
  8379                           ; direct_byte            8     6 (fixed)
  8380                           ; jumptable            260     6 (fixed)
  8381                           ;	Chosen strategy is simple_byte
  8382  00DF  087C               	movf	??_I2C2_DO_ADDRESS_NACK+2,w
  8383  00E0  3A00               	xorlw	0	; case 0
  8384  00E1  1903               	skipnz
  8385  00E2  28E4               	goto	l3440
  8386  00E3  28CC               	goto	l2692
  8387  00E4                     l3440:
  8388                           
  8389                           ; Switch size 1, requested type "simple"
  8390                           ; Number of cases is 2, Range of values is 2 to 3
  8391                           ; switch strategies available:
  8392                           ; Name         Instructions Cycles
  8393                           ; simple_byte            7     4 (average)
  8394                           ; direct_byte           13     9 (fixed)
  8395                           ; jumptable            263     9 (fixed)
  8396                           ;	Chosen strategy is simple_byte
  8397  00E4  087B               	movf	??_I2C2_DO_ADDRESS_NACK+1,w
  8398  00E5  3A02               	xorlw	2	; case 2
  8399  00E6  1903               	skipnz
  8400  00E7  28C8               	goto	l2688
  8401  00E8  3A01               	xorlw	1	; case 3
  8402  00E9  1903               	skipnz
  8403  00EA  28C8               	goto	l2688
  8404  00EB  28CC               	goto	l2692
  8405  00EC                     l574:
  8406  00EC  0008               	return
  8407  00ED                     __end_of_I2C2_DO_ADDRESS_NACK:
  8408                           
  8409                           	psect	text34
  8410  0E89                     __ptext34:	
  8411 ;; *************** function _I2C2_DO_RESET *****************
  8412 ;; Defined at:
  8413 ;;		line 494 in file "mcc_generated_files/i2c2_master.c"
  8414 ;; Parameters:    Size  Location     Type
  8415 ;;		None
  8416 ;; Auto vars:     Size  Location     Type
  8417 ;;		None
  8418 ;; Return value:  Size  Location     Type
  8419 ;;                  1    wreg      enum E12083
  8420 ;; Registers used:
  8421 ;;		wreg, status,2
  8422 ;; Tracked objects:
  8423 ;;		On entry : 0/0
  8424 ;;		On exit  : 0/0
  8425 ;;		Unchanged: 0/0
  8426 ;; Data sizes:     COMMON   BANK0   BANK1   BANK2   BANK3   BANK4   BANK5   BANK6   BANK7   BANK8   BANK9  BANK10  BANK1
      +1  BANK12
  8427 ;;      Params:         0       0       0       0       0       0       0       0       0       0       0       0       
      +0       0
  8428 ;;      Locals:         0       0       0       0       0       0       0       0       0       0       0       0       
      +0       0
  8429 ;;      Temps:          0       0       0       0       0       0       0       0       0       0       0       0       
      +0       0
  8430 ;;      Totals:         0       0       0       0       0       0       0       0       0       0       0       0       
      +0       0
  8431 ;;Total ram usage:        0 bytes
  8432 ;; Hardware stack levels used: 1
  8433 ;; This function calls:
  8434 ;;		Nothing
  8435 ;; This function is called by:
  8436 ;;		_I2C2_MasterFsm
  8437 ;; This function uses a non-reentrant model
  8438 ;;
  8439                           
  8440                           
  8441                           ;psect for function _I2C2_DO_RESET
  8442  0E89                     _I2C2_DO_RESET:
  8443  0E89                     l2676:	
  8444                           ;incstack = 0
  8445                           ; Regs used in _I2C2_DO_RESET: [wreg+status,2]
  8446                           
  8447                           
  8448                           ;mcc_generated_files/i2c2_master.c: 496:     I2C2_Status.busy = 0;
  8449  0E89  0021               	movlb	1	; select bank1
  8450  0E8A  10BC               	bcf	(_I2C2_Status^(0+128)+28),1
  8451  0E8B                     l2678:
  8452                           
  8453                           ;mcc_generated_files/i2c2_master.c: 497:     I2C2_Status.error = I2C2_NOERR;
  8454  0E8B  01BB               	clrf	(_I2C2_Status^(0+128)+27)
  8455  0E8C                     l2680:
  8456                           
  8457                           ;mcc_generated_files/i2c2_master.c: 498:     return I2C2_RESET;
  8458  0E8C  300E               	movlw	14
  8459  0E8D                     l568:
  8460  0E8D  0008               	return
  8461  0E8E                     __end_of_I2C2_DO_RESET:
  8462                           
  8463                           	psect	text35
  8464  0E84                     __ptext35:	
  8465 ;; *************** function _I2C2_DO_RX_NACK_RESTART *****************
  8466 ;; Defined at:
  8467 ;;		line 488 in file "mcc_generated_files/i2c2_master.c"
  8468 ;; Parameters:    Size  Location     Type
  8469 ;;		None
  8470 ;; Auto vars:     Size  Location     Type
  8471 ;;		None
  8472 ;; Return value:  Size  Location     Type
  8473 ;;                  1    wreg      enum E12083
  8474 ;; Registers used:
  8475 ;;		wreg, status,2, status,0, pclath, cstack
  8476 ;; Tracked objects:
  8477 ;;		On entry : 0/0
  8478 ;;		On exit  : 0/0
  8479 ;;		Unchanged: 0/0
  8480 ;; Data sizes:     COMMON   BANK0   BANK1   BANK2   BANK3   BANK4   BANK5   BANK6   BANK7   BANK8   BANK9  BANK10  BANK1
      +1  BANK12
  8481 ;;      Params:         0       0       0       0       0       0       0       0       0       0       0       0       
      +0       0
  8482 ;;      Locals:         0       0       0       0       0       0       0       0       0       0       0       0       
      +0       0
  8483 ;;      Temps:          0       0       0       0       0       0       0       0       0       0       0       0       
      +0       0
  8484 ;;      Totals:         0       0       0       0       0       0       0       0       0       0       0       0       
      +0       0
  8485 ;;Total ram usage:        0 bytes
  8486 ;; Hardware stack levels used: 1
  8487 ;; Hardware stack levels required when called: 1
  8488 ;; This function calls:
  8489 ;;		_I2C2_MasterSendNack
  8490 ;; This function is called by:
  8491 ;;		_I2C2_DO_RX
  8492 ;;		_I2C2_MasterFsm
  8493 ;; This function uses a non-reentrant model
  8494 ;;
  8495                           
  8496                           
  8497                           ;psect for function _I2C2_DO_RX_NACK_RESTART
  8498  0E84                     _I2C2_DO_RX_NACK_RESTART:
  8499  0E84                     l2500:	
  8500                           ;incstack = 0
  8501                           ; Regs used in _I2C2_DO_RX_NACK_RESTART: [wreg+status,2+status,0+pclath+cstack]
  8502                           
  8503                           
  8504                           ;mcc_generated_files/i2c2_master.c: 490:     I2C2_MasterSendNack();
  8505  0E84  318E  2654  318E   	fcall	_I2C2_MasterSendNack
  8506  0E87                     l2502:
  8507                           
  8508                           ;mcc_generated_files/i2c2_master.c: 491:     return I2C2_SEND_RESTART;
  8509  0E87  3009               	movlw	9
  8510  0E88                     l565:
  8511  0E88  0008               	return
  8512  0E89                     __end_of_I2C2_DO_RX_NACK_RESTART:
  8513                           
  8514                           	psect	text36
  8515  0E7F                     __ptext36:	
  8516 ;; *************** function _I2C2_DO_RX_NACK_STOP *****************
  8517 ;; Defined at:
  8518 ;;		line 482 in file "mcc_generated_files/i2c2_master.c"
  8519 ;; Parameters:    Size  Location     Type
  8520 ;;		None
  8521 ;; Auto vars:     Size  Location     Type
  8522 ;;		None
  8523 ;; Return value:  Size  Location     Type
  8524 ;;                  1    wreg      enum E12083
  8525 ;; Registers used:
  8526 ;;		wreg, status,2, status,0, pclath, cstack
  8527 ;; Tracked objects:
  8528 ;;		On entry : 0/0
  8529 ;;		On exit  : 0/0
  8530 ;;		Unchanged: 0/0
  8531 ;; Data sizes:     COMMON   BANK0   BANK1   BANK2   BANK3   BANK4   BANK5   BANK6   BANK7   BANK8   BANK9  BANK10  BANK1
      +1  BANK12
  8532 ;;      Params:         0       0       0       0       0       0       0       0       0       0       0       0       
      +0       0
  8533 ;;      Locals:         0       0       0       0       0       0       0       0       0       0       0       0       
      +0       0
  8534 ;;      Temps:          0       0       0       0       0       0       0       0       0       0       0       0       
      +0       0
  8535 ;;      Totals:         0       0       0       0       0       0       0       0       0       0       0       0       
      +0       0
  8536 ;;Total ram usage:        0 bytes
  8537 ;; Hardware stack levels used: 1
  8538 ;; Hardware stack levels required when called: 1
  8539 ;; This function calls:
  8540 ;;		_I2C2_MasterSendNack
  8541 ;; This function is called by:
  8542 ;;		_I2C2_DO_RX
  8543 ;;		_I2C2_MasterFsm
  8544 ;; This function uses a non-reentrant model
  8545 ;;
  8546                           
  8547                           
  8548                           ;psect for function _I2C2_DO_RX_NACK_STOP
  8549  0E7F                     _I2C2_DO_RX_NACK_STOP:
  8550  0E7F                     l2506:	
  8551                           ;incstack = 0
  8552                           ; Regs used in _I2C2_DO_RX_NACK_STOP: [wreg+status,2+status,0+pclath+cstack]
  8553                           
  8554                           
  8555                           ;mcc_generated_files/i2c2_master.c: 484:     I2C2_MasterSendNack();
  8556  0E7F  318E  2654  318E   	fcall	_I2C2_MasterSendNack
  8557  0E82                     l2508:
  8558                           
  8559                           ;mcc_generated_files/i2c2_master.c: 485:     return I2C2_SEND_STOP;
  8560  0E82  300A               	movlw	10
  8561  0E83                     l562:
  8562  0E83  0008               	return
  8563  0E84                     __end_of_I2C2_DO_RX_NACK_STOP:
  8564                           
  8565                           	psect	text37
  8566  0E7A                     __ptext37:	
  8567 ;; *************** function _I2C2_DO_RX_ACK *****************
  8568 ;; Defined at:
  8569 ;;		line 475 in file "mcc_generated_files/i2c2_master.c"
  8570 ;; Parameters:    Size  Location     Type
  8571 ;;		None
  8572 ;; Auto vars:     Size  Location     Type
  8573 ;;		None
  8574 ;; Return value:  Size  Location     Type
  8575 ;;                  1    wreg      enum E12083
  8576 ;; Registers used:
  8577 ;;		wreg, status,2, status,0, pclath, cstack
  8578 ;; Tracked objects:
  8579 ;;		On entry : 0/0
  8580 ;;		On exit  : 0/0
  8581 ;;		Unchanged: 0/0
  8582 ;; Data sizes:     COMMON   BANK0   BANK1   BANK2   BANK3   BANK4   BANK5   BANK6   BANK7   BANK8   BANK9  BANK10  BANK1
      +1  BANK12
  8583 ;;      Params:         0       0       0       0       0       0       0       0       0       0       0       0       
      +0       0
  8584 ;;      Locals:         0       0       0       0       0       0       0       0       0       0       0       0       
      +0       0
  8585 ;;      Temps:          0       0       0       0       0       0       0       0       0       0       0       0       
      +0       0
  8586 ;;      Totals:         0       0       0       0       0       0       0       0       0       0       0       0       
      +0       0
  8587 ;;Total ram usage:        0 bytes
  8588 ;; Hardware stack levels used: 1
  8589 ;; Hardware stack levels required when called: 1
  8590 ;; This function calls:
  8591 ;;		_I2C2_MasterSendAck
  8592 ;; This function is called by:
  8593 ;;		_I2C2_MasterFsm
  8594 ;; This function uses a non-reentrant model
  8595 ;;
  8596                           
  8597                           
  8598                           ;psect for function _I2C2_DO_RX_ACK
  8599  0E7A                     _I2C2_DO_RX_ACK:
  8600  0E7A                     l2670:	
  8601                           ;incstack = 0
  8602                           ; Regs used in _I2C2_DO_RX_ACK: [wreg+status,2+status,0+pclath+cstack]
  8603                           
  8604                           
  8605                           ;mcc_generated_files/i2c2_master.c: 477:     I2C2_MasterSendAck();
  8606  0E7A  318E  2658  318E   	fcall	_I2C2_MasterSendAck
  8607  0E7D                     l2672:
  8608                           
  8609                           ;mcc_generated_files/i2c2_master.c: 478:     return I2C2_RCEN;
  8610  0E7D  3005               	movlw	5
  8611  0E7E                     l559:
  8612  0E7E  0008               	return
  8613  0E7F                     __end_of_I2C2_DO_RX_ACK:
  8614                           
  8615                           	psect	text38
  8616  0E75                     __ptext38:	
  8617 ;; *************** function _I2C2_DO_SEND_STOP *****************
  8618 ;; Defined at:
  8619 ;;		line 469 in file "mcc_generated_files/i2c2_master.c"
  8620 ;; Parameters:    Size  Location     Type
  8621 ;;		None
  8622 ;; Auto vars:     Size  Location     Type
  8623 ;;		None
  8624 ;; Return value:  Size  Location     Type
  8625 ;;                  1    wreg      enum E12083
  8626 ;; Registers used:
  8627 ;;		wreg, status,2, status,0, pclath, cstack
  8628 ;; Tracked objects:
  8629 ;;		On entry : 0/0
  8630 ;;		On exit  : 0/0
  8631 ;;		Unchanged: 0/0
  8632 ;; Data sizes:     COMMON   BANK0   BANK1   BANK2   BANK3   BANK4   BANK5   BANK6   BANK7   BANK8   BANK9  BANK10  BANK1
      +1  BANK12
  8633 ;;      Params:         0       0       0       0       0       0       0       0       0       0       0       0       
      +0       0
  8634 ;;      Locals:         0       0       0       0       0       0       0       0       0       0       0       0       
      +0       0
  8635 ;;      Temps:          0       0       0       0       0       0       0       0       0       0       0       0       
      +0       0
  8636 ;;      Totals:         0       0       0       0       0       0       0       0       0       0       0       0       
      +0       0
  8637 ;;Total ram usage:        0 bytes
  8638 ;; Hardware stack levels used: 1
  8639 ;; Hardware stack levels required when called: 1
  8640 ;; This function calls:
  8641 ;;		_I2C2_MasterStop
  8642 ;; This function is called by:
  8643 ;;		_I2C2_DO_TX
  8644 ;;		_I2C2_DO_TX_EMPTY
  8645 ;;		_I2C2_DO_ADDRESS_NACK
  8646 ;;		_I2C2_MasterFsm
  8647 ;; This function uses a non-reentrant model
  8648 ;;
  8649                           
  8650                           
  8651                           ;psect for function _I2C2_DO_SEND_STOP
  8652  0E75                     _I2C2_DO_SEND_STOP:
  8653  0E75                     l2488:	
  8654                           ;incstack = 0
  8655                           ; Regs used in _I2C2_DO_SEND_STOP: [wreg+status,2+status,0+pclath+cstack]
  8656                           
  8657                           
  8658                           ;mcc_generated_files/i2c2_master.c: 471:     I2C2_MasterStop();
  8659  0E75  318E  2648  318E   	fcall	_I2C2_MasterStop
  8660  0E78                     l2490:
  8661                           
  8662                           ;mcc_generated_files/i2c2_master.c: 472:     return I2C2_IDLE;
  8663  0E78  3000               	movlw	0
  8664  0E79                     l556:
  8665  0E79  0008               	return
  8666  0E7A                     __end_of_I2C2_DO_SEND_STOP:
  8667                           
  8668                           	psect	text39
  8669  0E70                     __ptext39:	
  8670 ;; *************** function _I2C2_DO_SEND_RESTART *****************
  8671 ;; Defined at:
  8672 ;;		line 463 in file "mcc_generated_files/i2c2_master.c"
  8673 ;; Parameters:    Size  Location     Type
  8674 ;;		None
  8675 ;; Auto vars:     Size  Location     Type
  8676 ;;		None
  8677 ;; Return value:  Size  Location     Type
  8678 ;;                  1    wreg      enum E12083
  8679 ;; Registers used:
  8680 ;;		wreg, status,2, status,0, pclath, cstack
  8681 ;; Tracked objects:
  8682 ;;		On entry : 0/0
  8683 ;;		On exit  : 0/0
  8684 ;;		Unchanged: 0/0
  8685 ;; Data sizes:     COMMON   BANK0   BANK1   BANK2   BANK3   BANK4   BANK5   BANK6   BANK7   BANK8   BANK9  BANK10  BANK1
      +1  BANK12
  8686 ;;      Params:         0       0       0       0       0       0       0       0       0       0       0       0       
      +0       0
  8687 ;;      Locals:         0       0       0       0       0       0       0       0       0       0       0       0       
      +0       0
  8688 ;;      Temps:          0       0       0       0       0       0       0       0       0       0       0       0       
      +0       0
  8689 ;;      Totals:         0       0       0       0       0       0       0       0       0       0       0       0       
      +0       0
  8690 ;;Total ram usage:        0 bytes
  8691 ;; Hardware stack levels used: 1
  8692 ;; Hardware stack levels required when called: 1
  8693 ;; This function calls:
  8694 ;;		_I2C2_MasterEnableRestart
  8695 ;; This function is called by:
  8696 ;;		_I2C2_DO_TX_EMPTY
  8697 ;;		_I2C2_DO_ADDRESS_NACK
  8698 ;;		_I2C2_MasterFsm
  8699 ;; This function uses a non-reentrant model
  8700 ;;
  8701                           
  8702                           
  8703                           ;psect for function _I2C2_DO_SEND_RESTART
  8704  0E70                     _I2C2_DO_SEND_RESTART:
  8705  0E70                     l2514:	
  8706                           ;incstack = 0
  8707                           ; Regs used in _I2C2_DO_SEND_RESTART: [wreg+status,2+status,0+pclath+cstack]
  8708                           
  8709                           
  8710                           ;mcc_generated_files/i2c2_master.c: 465:     I2C2_MasterEnableRestart();
  8711  0E70  318E  2645  318E   	fcall	_I2C2_MasterEnableRestart
  8712  0E73                     l2516:
  8713                           
  8714                           ;mcc_generated_files/i2c2_master.c: 466:     return I2C2_SEND_ADR_READ;
  8715  0E73  3001               	movlw	1
  8716  0E74                     l553:
  8717  0E74  0008               	return
  8718  0E75                     __end_of_I2C2_DO_SEND_RESTART:
  8719                           
  8720                           	psect	text40
  8721  0E6B                     __ptext40:	
  8722 ;; *************** function _I2C2_DO_SEND_RESTART_WRITE *****************
  8723 ;; Defined at:
  8724 ;;		line 456 in file "mcc_generated_files/i2c2_master.c"
  8725 ;; Parameters:    Size  Location     Type
  8726 ;;		None
  8727 ;; Auto vars:     Size  Location     Type
  8728 ;;		None
  8729 ;; Return value:  Size  Location     Type
  8730 ;;                  1    wreg      enum E12083
  8731 ;; Registers used:
  8732 ;;		wreg, status,2, status,0, pclath, cstack
  8733 ;; Tracked objects:
  8734 ;;		On entry : 0/0
  8735 ;;		On exit  : 0/0
  8736 ;;		Unchanged: 0/0
  8737 ;; Data sizes:     COMMON   BANK0   BANK1   BANK2   BANK3   BANK4   BANK5   BANK6   BANK7   BANK8   BANK9  BANK10  BANK1
      +1  BANK12
  8738 ;;      Params:         0       0       0       0       0       0       0       0       0       0       0       0       
      +0       0
  8739 ;;      Locals:         0       0       0       0       0       0       0       0       0       0       0       0       
      +0       0
  8740 ;;      Temps:          0       0       0       0       0       0       0       0       0       0       0       0       
      +0       0
  8741 ;;      Totals:         0       0       0       0       0       0       0       0       0       0       0       0       
      +0       0
  8742 ;;Total ram usage:        0 bytes
  8743 ;; Hardware stack levels used: 1
  8744 ;; Hardware stack levels required when called: 1
  8745 ;; This function calls:
  8746 ;;		_I2C2_MasterEnableRestart
  8747 ;; This function is called by:
  8748 ;;		_I2C2_DO_TX
  8749 ;;		_I2C2_MasterFsm
  8750 ;; This function uses a non-reentrant model
  8751 ;;
  8752                           
  8753                           
  8754                           ;psect for function _I2C2_DO_SEND_RESTART_WRITE
  8755  0E6B                     _I2C2_DO_SEND_RESTART_WRITE:
  8756  0E6B                     l2482:	
  8757                           ;incstack = 0
  8758                           ; Regs used in _I2C2_DO_SEND_RESTART_WRITE: [wreg+status,2+status,0+pclath+cstack]
  8759                           
  8760                           
  8761                           ;mcc_generated_files/i2c2_master.c: 458:     I2C2_MasterEnableRestart();
  8762  0E6B  318E  2645  318E   	fcall	_I2C2_MasterEnableRestart
  8763  0E6E                     l2484:
  8764                           
  8765                           ;mcc_generated_files/i2c2_master.c: 459:     return I2C2_SEND_ADR_WRITE;
  8766  0E6E  3002               	movlw	2
  8767  0E6F                     l550:
  8768  0E6F  0008               	return
  8769  0E70                     __end_of_I2C2_DO_SEND_RESTART_WRITE:
  8770                           
  8771                           	psect	text41
  8772  0E66                     __ptext41:	
  8773 ;; *************** function _I2C2_DO_SEND_RESTART_READ *****************
  8774 ;; Defined at:
  8775 ;;		line 450 in file "mcc_generated_files/i2c2_master.c"
  8776 ;; Parameters:    Size  Location     Type
  8777 ;;		None
  8778 ;; Auto vars:     Size  Location     Type
  8779 ;;		None
  8780 ;; Return value:  Size  Location     Type
  8781 ;;                  1    wreg      enum E12083
  8782 ;; Registers used:
  8783 ;;		wreg, status,2, status,0, pclath, cstack
  8784 ;; Tracked objects:
  8785 ;;		On entry : 0/0
  8786 ;;		On exit  : 0/0
  8787 ;;		Unchanged: 0/0
  8788 ;; Data sizes:     COMMON   BANK0   BANK1   BANK2   BANK3   BANK4   BANK5   BANK6   BANK7   BANK8   BANK9  BANK10  BANK1
      +1  BANK12
  8789 ;;      Params:         0       0       0       0       0       0       0       0       0       0       0       0       
      +0       0
  8790 ;;      Locals:         0       0       0       0       0       0       0       0       0       0       0       0       
      +0       0
  8791 ;;      Temps:          0       0       0       0       0       0       0       0       0       0       0       0       
      +0       0
  8792 ;;      Totals:         0       0       0       0       0       0       0       0       0       0       0       0       
      +0       0
  8793 ;;Total ram usage:        0 bytes
  8794 ;; Hardware stack levels used: 1
  8795 ;; Hardware stack levels required when called: 1
  8796 ;; This function calls:
  8797 ;;		_I2C2_MasterEnableRestart
  8798 ;; This function is called by:
  8799 ;;		_I2C2_DO_TX
  8800 ;;		_I2C2_MasterFsm
  8801 ;; This function uses a non-reentrant model
  8802 ;;
  8803                           
  8804                           
  8805                           ;psect for function _I2C2_DO_SEND_RESTART_READ
  8806  0E66                     _I2C2_DO_SEND_RESTART_READ:
  8807  0E66                     l2476:	
  8808                           ;incstack = 0
  8809                           ; Regs used in _I2C2_DO_SEND_RESTART_READ: [wreg+status,2+status,0+pclath+cstack]
  8810                           
  8811                           
  8812                           ;mcc_generated_files/i2c2_master.c: 452:     I2C2_MasterEnableRestart();
  8813  0E66  318E  2645  318E   	fcall	_I2C2_MasterEnableRestart
  8814  0E69                     l2478:
  8815                           
  8816                           ;mcc_generated_files/i2c2_master.c: 453:     return I2C2_SEND_ADR_READ;
  8817  0E69  3001               	movlw	1
  8818  0E6A                     l547:
  8819  0E6A  0008               	return
  8820  0E6B                     __end_of_I2C2_DO_SEND_RESTART_READ:
  8821                           
  8822                           	psect	text42
  8823  0EBD                     __ptext42:	
  8824 ;; *************** function _I2C2_DO_RCEN *****************
  8825 ;; Defined at:
  8826 ;;		line 402 in file "mcc_generated_files/i2c2_master.c"
  8827 ;; Parameters:    Size  Location     Type
  8828 ;;		None
  8829 ;; Auto vars:     Size  Location     Type
  8830 ;;		None
  8831 ;; Return value:  Size  Location     Type
  8832 ;;                  1    wreg      enum E12083
  8833 ;; Registers used:
  8834 ;;		wreg, status,2, status,0, pclath, cstack
  8835 ;; Tracked objects:
  8836 ;;		On entry : 0/0
  8837 ;;		On exit  : 0/0
  8838 ;;		Unchanged: 0/0
  8839 ;; Data sizes:     COMMON   BANK0   BANK1   BANK2   BANK3   BANK4   BANK5   BANK6   BANK7   BANK8   BANK9  BANK10  BANK1
      +1  BANK12
  8840 ;;      Params:         0       0       0       0       0       0       0       0       0       0       0       0       
      +0       0
  8841 ;;      Locals:         0       0       0       0       0       0       0       0       0       0       0       0       
      +0       0
  8842 ;;      Temps:          0       0       0       0       0       0       0       0       0       0       0       0       
      +0       0
  8843 ;;      Totals:         0       0       0       0       0       0       0       0       0       0       0       0       
      +0       0
  8844 ;;Total ram usage:        0 bytes
  8845 ;; Hardware stack levels used: 1
  8846 ;; Hardware stack levels required when called: 1
  8847 ;; This function calls:
  8848 ;;		_I2C2_MasterStartRx
  8849 ;; This function is called by:
  8850 ;;		_I2C2_MasterFsm
  8851 ;; This function uses a non-reentrant model
  8852 ;;
  8853                           
  8854                           
  8855                           ;psect for function _I2C2_DO_RCEN
  8856  0EBD                     _I2C2_DO_RCEN:
  8857  0EBD                     l2636:	
  8858                           ;incstack = 0
  8859                           ; Regs used in _I2C2_DO_RCEN: [wreg+status,2+status,0+pclath+cstack]
  8860                           
  8861                           
  8862                           ;mcc_generated_files/i2c2_master.c: 404:     I2C2_Status.addressNackCheck = 0;
  8863  0EBD  0021               	movlb	1	; select bank1
  8864  0EBE  103C               	bcf	(_I2C2_Status^(0+128)+28),0
  8865  0EBF                     l2638:
  8866                           
  8867                           ;mcc_generated_files/i2c2_master.c: 405:     I2C2_MasterStartRx();
  8868  0EBF  318E  264B  318E   	fcall	_I2C2_MasterStartRx
  8869  0EC2                     l2640:
  8870                           
  8871                           ;mcc_generated_files/i2c2_master.c: 406:     return I2C2_RX;
  8872  0EC2  3004               	movlw	4
  8873  0EC3                     l523:
  8874  0EC3  0008               	return
  8875  0EC4                     __end_of_I2C2_DO_RCEN:
  8876                           
  8877                           	psect	text43
  8878  025F                     __ptext43:	
  8879 ;; *************** function _I2C2_DO_RX *****************
  8880 ;; Defined at:
  8881 ;;		line 378 in file "mcc_generated_files/i2c2_master.c"
  8882 ;; Parameters:    Size  Location     Type
  8883 ;;		None
  8884 ;; Auto vars:     Size  Location     Type
  8885 ;;		None
  8886 ;; Return value:  Size  Location     Type
  8887 ;;                  1    wreg      enum E12083
  8888 ;; Registers used:
  8889 ;;		wreg, fsr0l, fsr0h, fsr1l, fsr1h, status,2, status,0, pclath, cstack
  8890 ;; Tracked objects:
  8891 ;;		On entry : 0/0
  8892 ;;		On exit  : 0/0
  8893 ;;		Unchanged: 0/0
  8894 ;; Data sizes:     COMMON   BANK0   BANK1   BANK2   BANK3   BANK4   BANK5   BANK6   BANK7   BANK8   BANK9  BANK10  BANK1
      +1  BANK12
  8895 ;;      Params:         0       0       0       0       0       0       0       0       0       0       0       0       
      +0       0
  8896 ;;      Locals:         0       0       0       0       0       0       0       0       0       0       0       0       
      +0       0
  8897 ;;      Temps:          3       0       0       0       0       0       0       0       0       0       0       0       
      +0       0
  8898 ;;      Totals:         3       0       0       0       0       0       0       0       0       0       0       0       
      +0       0
  8899 ;;Total ram usage:        3 bytes
  8900 ;; Hardware stack levels used: 1
  8901 ;; Hardware stack levels required when called: 3
  8902 ;; This function calls:
  8903 ;;		Absolute function
  8904 ;;		_I2C2_CallbackReturnReset
  8905 ;;		_I2C2_CallbackReturnStop
  8906 ;;		_I2C2_DO_RX_NACK_RESTART
  8907 ;;		_I2C2_DO_RX_NACK_STOP
  8908 ;;		_I2C2_MasterGetRxData
  8909 ;;		_I2C2_MasterSendAck
  8910 ;;		_rd1RegCompleteHandler
  8911 ;;		_rd2RegCompleteHandler
  8912 ;;		_rdBlkRegCompleteHandler
  8913 ;;		_wr1RegCompleteHandler
  8914 ;;		_wr2RegCompleteHandler
  8915 ;; This function is called by:
  8916 ;;		_I2C2_MasterFsm
  8917 ;; This function uses a non-reentrant model
  8918 ;;
  8919                           
  8920                           
  8921                           ;psect for function _I2C2_DO_RX
  8922  025F                     _I2C2_DO_RX:
  8923  025F                     l2604:	
  8924                           ;incstack = 0
  8925                           ; Regs used in _I2C2_DO_RX: [wreg-fsr1h+status,2+status,0+pclath+cstack]
  8926                           
  8927                           
  8928                           ;mcc_generated_files/i2c2_master.c: 380:     *I2C2_Status.data_ptr++ = I2C2_MasterGetRxD
      +                          ata();
  8929  025F  318E  264E  3182   	fcall	_I2C2_MasterGetRxData
  8930  0262  00FA               	movwf	??_I2C2_DO_RX
  8931  0263  0021               	movlb	1	; select bank1
  8932  0264  0837               	movf	(low ((_I2C2_Status| 0+23)))^(0+128),w
  8933  0265  0086               	movwf	6
  8934  0266  0187               	clrf	7
  8935  0267  087A               	movf	??_I2C2_DO_RX,w
  8936  0268  0081               	movwf	1
  8937  0269                     l2606:
  8938  0269  3001               	movlw	1
  8939  026A  00FA               	movwf	??_I2C2_DO_RX
  8940  026B  087A               	movf	??_I2C2_DO_RX,w
  8941  026C  07B7               	addwf	(low ((_I2C2_Status| 0+23)))^(0+128),f
  8942  026D                     l2608:
  8943                           
  8944                           ;mcc_generated_files/i2c2_master.c: 381:     if(--I2C2_Status.data_length)
  8945  026D  3001               	movlw	1
  8946  026E  02B8               	subwf	(_I2C2_Status^(0+128)+24),f
  8947  026F  3000               	movlw	0
  8948  0270  3BB9               	subwfb	((_I2C2_Status+1)^(0+128)+24),f
  8949  0271  0838               	movf	(_I2C2_Status^(0+128)+24),w
  8950  0272  0439               	iorwf	((_I2C2_Status+1)^(0+128)+24),w
  8951  0273  1903               	btfsc	3,2
  8952  0274  2A76               	goto	u1031
  8953  0275  2A77               	goto	u1030
  8954  0276                     u1031:
  8955  0276  2A7C               	goto	l511
  8956  0277                     u1030:
  8957  0277                     l2610:
  8958                           
  8959                           ;mcc_generated_files/i2c2_master.c: 382:     {;mcc_generated_files/i2c2_master.c: 383:  
      +                                 I2C2_MasterSendAck();
  8960  0277  318E  2658  3182   	fcall	_I2C2_MasterSendAck
  8961  027A                     l2612:
  8962                           
  8963                           ;mcc_generated_files/i2c2_master.c: 384:         return I2C2_RCEN;
  8964  027A  3005               	movlw	5
  8965  027B  2AA4               	goto	l512
  8966  027C                     l511:	
  8967                           ;mcc_generated_files/i2c2_master.c: 386:     else
  8968                           
  8969                           
  8970                           ;mcc_generated_files/i2c2_master.c: 387:     {;mcc_generated_files/i2c2_master.c: 388:  
      +                                 I2C2_Status.bufferFree = 1;
  8971  027C  15BC               	bsf	(_I2C2_Status^(0+128)+28),3
  8972                           
  8973                           ;mcc_generated_files/i2c2_master.c: 389:         switch(I2C2_Status.callbackTable[I2C2_D
      +                          ATA_COMPLETE](I2C2_Status.callbackPayload[I2C2_DATA_COMPLETE]))
  8974  027D  2A86               	goto	l2628
  8975  027E                     l2618:
  8976                           
  8977                           ;mcc_generated_files/i2c2_master.c: 393:                 return I2C2_DO_RX_NACK_RESTART(
      +                          );
  8978  027E  318E  2684  3182   	fcall	_I2C2_DO_RX_NACK_RESTART
  8979  0281  2AA4               	goto	l512
  8980  0282                     l2622:
  8981                           
  8982                           ;mcc_generated_files/i2c2_master.c: 397:                 return I2C2_DO_RX_NACK_STOP();
  8983  0282  318E  267F  3182   	fcall	_I2C2_DO_RX_NACK_STOP
  8984  0285  2AA4               	goto	l512
  8985  0286                     l2628:
  8986  0286  082C               	movf	(low ((_I2C2_Status| 0+12)))^(0+128),w
  8987  0287  00FA               	movwf	??_I2C2_DO_RX
  8988  0288  087A               	movf	??_I2C2_DO_RX,w
  8989  0289  00F9               	movwf	I2C2_CallbackReturnReset@funPtr
  8990  028A  0821               	movf	(_I2C2_Status+1)^(0+128),w
  8991  028B  008A               	movwf	10
  8992  028C  0820               	movf	_I2C2_Status^(0+128),w
  8993  028D  000A               	callw
  8994  028E  3182               	pagesel	$
  8995  028F  00FB               	movwf	??_I2C2_DO_RX+1
  8996  0290  01FC               	clrf	??_I2C2_DO_RX+2
  8997                           
  8998                           ; Switch on 2 bytes has been partitioned into a top level switch of size 1, and 1 sub-sw
      +                          itches
  8999                           ; Switch size 1, requested type "simple"
  9000                           ; Number of cases is 1, Range of values is 0 to 0
  9001                           ; switch strategies available:
  9002                           ; Name         Instructions Cycles
  9003                           ; simple_byte            4     3 (average)
  9004                           ; direct_byte            8     6 (fixed)
  9005                           ; jumptable            260     6 (fixed)
  9006                           ;	Chosen strategy is simple_byte
  9007  0291  087C               	movf	??_I2C2_DO_RX+2,w
  9008  0292  3A00               	xorlw	0	; case 0
  9009  0293  1903               	skipnz
  9010  0294  2A96               	goto	l3442
  9011  0295  2A82               	goto	l2622
  9012  0296                     l3442:
  9013                           
  9014                           ; Switch size 1, requested type "simple"
  9015                           ; Number of cases is 4, Range of values is 1 to 4
  9016                           ; switch strategies available:
  9017                           ; Name         Instructions Cycles
  9018                           ; simple_byte           13     7 (average)
  9019                           ; direct_byte           17     9 (fixed)
  9020                           ; jumptable            263     9 (fixed)
  9021                           ;	Chosen strategy is simple_byte
  9022  0296  087B               	movf	??_I2C2_DO_RX+1,w
  9023  0297  3A01               	xorlw	1	; case 1
  9024  0298  1903               	skipnz
  9025  0299  2A82               	goto	l2622
  9026  029A  3A03               	xorlw	3	; case 2
  9027  029B  1903               	skipnz
  9028  029C  2A7E               	goto	l2618
  9029  029D  3A01               	xorlw	1	; case 3
  9030  029E  1903               	skipnz
  9031  029F  2A7E               	goto	l2618
  9032  02A0  3A07               	xorlw	7	; case 4
  9033  02A1  1903               	skipnz
  9034  02A2  2A82               	goto	l2622
  9035  02A3  2A82               	goto	l2622
  9036  02A4                     l512:
  9037  02A4  0008               	return
  9038  02A5                     __end_of_I2C2_DO_RX:
  9039                           
  9040                           	psect	text44
  9041  02A5                     __ptext44:	
  9042 ;; *************** function _I2C2_DO_TX *****************
  9043 ;; Defined at:
  9044 ;;		line 354 in file "mcc_generated_files/i2c2_master.c"
  9045 ;; Parameters:    Size  Location     Type
  9046 ;;		None
  9047 ;; Auto vars:     Size  Location     Type
  9048 ;;		None
  9049 ;; Return value:  Size  Location     Type
  9050 ;;                  1    wreg      enum E12083
  9051 ;; Registers used:
  9052 ;;		wreg, fsr0l, fsr0h, fsr1l, fsr1h, status,2, status,0, pclath, cstack
  9053 ;; Tracked objects:
  9054 ;;		On entry : 0/0
  9055 ;;		On exit  : 0/0
  9056 ;;		Unchanged: 0/0
  9057 ;; Data sizes:     COMMON   BANK0   BANK1   BANK2   BANK3   BANK4   BANK5   BANK6   BANK7   BANK8   BANK9  BANK10  BANK1
      +1  BANK12
  9058 ;;      Params:         0       0       0       0       0       0       0       0       0       0       0       0       
      +0       0
  9059 ;;      Locals:         0       0       0       0       0       0       0       0       0       0       0       0       
      +0       0
  9060 ;;      Temps:          3       0       0       0       0       0       0       0       0       0       0       0       
      +0       0
  9061 ;;      Totals:         3       0       0       0       0       0       0       0       0       0       0       0       
      +0       0
  9062 ;;Total ram usage:        3 bytes
  9063 ;; Hardware stack levels used: 1
  9064 ;; Hardware stack levels required when called: 3
  9065 ;; This function calls:
  9066 ;;		Absolute function
  9067 ;;		_I2C2_CallbackReturnReset
  9068 ;;		_I2C2_CallbackReturnStop
  9069 ;;		_I2C2_DO_SEND_RESTART_READ
  9070 ;;		_I2C2_DO_SEND_RESTART_WRITE
  9071 ;;		_I2C2_DO_SEND_STOP
  9072 ;;		_I2C2_MasterIsNack
  9073 ;;		_I2C2_MasterSendTxData
  9074 ;;		_rd1RegCompleteHandler
  9075 ;;		_rd2RegCompleteHandler
  9076 ;;		_rdBlkRegCompleteHandler
  9077 ;;		_wr1RegCompleteHandler
  9078 ;;		_wr2RegCompleteHandler
  9079 ;; This function is called by:
  9080 ;;		_I2C2_MasterFsm
  9081 ;; This function uses a non-reentrant model
  9082 ;;
  9083                           
  9084                           
  9085                           ;psect for function _I2C2_DO_TX
  9086  02A5                     _I2C2_DO_TX:
  9087  02A5                     l2570:	
  9088                           ;incstack = 0
  9089                           ; Regs used in _I2C2_DO_TX: [wreg-fsr1h+status,2+status,0+pclath+cstack]
  9090                           
  9091                           
  9092                           ;mcc_generated_files/i2c2_master.c: 356:     if(I2C2_MasterIsNack())
  9093  02A5  318E  2693  3182   	fcall	_I2C2_MasterIsNack
  9094  02A8  3A00               	xorlw	0
  9095  02A9  1903               	skipnz
  9096  02AA  2AAC               	goto	u1011
  9097  02AB  2AAD               	goto	u1010
  9098  02AC                     u1011:
  9099  02AC  2ADD               	goto	l495
  9100  02AD                     u1010:
  9101  02AD  2ABA               	goto	l2588
  9102  02AE                     l2574:
  9103                           
  9104                           ;mcc_generated_files/i2c2_master.c: 361:                 return I2C2_DO_SEND_RESTART_REA
      +                          D();
  9105  02AE  318E  2666  3182   	fcall	_I2C2_DO_SEND_RESTART_READ
  9106  02B1  2AF9               	goto	l498
  9107  02B2                     l2578:
  9108                           
  9109                           ;mcc_generated_files/i2c2_master.c: 363:                   return I2C2_DO_SEND_RESTART_W
      +                          RITE();
  9110  02B2  318E  266B  3182   	fcall	_I2C2_DO_SEND_RESTART_WRITE
  9111  02B5  2AF9               	goto	l498
  9112  02B6                     l2582:
  9113                           
  9114                           ;mcc_generated_files/i2c2_master.c: 367:                 return I2C2_DO_SEND_STOP();
  9115  02B6  318E  2675  3182   	fcall	_I2C2_DO_SEND_STOP
  9116  02B9  2AF9               	goto	l498
  9117  02BA                     l2588:
  9118  02BA  0021               	movlb	1	; select bank1
  9119  02BB  082F               	movf	(low ((_I2C2_Status| 0+15)))^(0+128),w
  9120  02BC  00FA               	movwf	??_I2C2_DO_TX
  9121  02BD  087A               	movf	??_I2C2_DO_TX,w
  9122  02BE  00F9               	movwf	I2C2_CallbackReturnReset@funPtr
  9123  02BF  3006               	movlw	6
  9124  02C0  3EA0               	addlw	(low (_I2C2_Status| 0))& (0+255)
  9125  02C1  0086               	movwf	6
  9126  02C2  0187               	clrf	7
  9127  02C3  3F41               	moviw [1]fsr1
  9128  02C4  008A               	movwf	10
  9129  02C5  3F40               	moviw [0]fsr1
  9130  02C6  000A               	callw
  9131  02C7  3182               	pagesel	$
  9132  02C8  00FB               	movwf	??_I2C2_DO_TX+1
  9133  02C9  01FC               	clrf	??_I2C2_DO_TX+2
  9134                           
  9135                           ; Switch on 2 bytes has been partitioned into a top level switch of size 1, and 1 sub-sw
      +                          itches
  9136                           ; Switch size 1, requested type "simple"
  9137                           ; Number of cases is 1, Range of values is 0 to 0
  9138                           ; switch strategies available:
  9139                           ; Name         Instructions Cycles
  9140                           ; simple_byte            4     3 (average)
  9141                           ; direct_byte            8     6 (fixed)
  9142                           ; jumptable            260     6 (fixed)
  9143                           ;	Chosen strategy is simple_byte
  9144  02CA  087C               	movf	??_I2C2_DO_TX+2,w
  9145  02CB  3A00               	xorlw	0	; case 0
  9146  02CC  1903               	skipnz
  9147  02CD  2ACF               	goto	l3444
  9148  02CE  2AB6               	goto	l2582
  9149  02CF                     l3444:
  9150                           
  9151                           ; Switch size 1, requested type "simple"
  9152                           ; Number of cases is 4, Range of values is 1 to 4
  9153                           ; switch strategies available:
  9154                           ; Name         Instructions Cycles
  9155                           ; simple_byte           13     7 (average)
  9156                           ; direct_byte           17     9 (fixed)
  9157                           ; jumptable            263     9 (fixed)
  9158                           ;	Chosen strategy is simple_byte
  9159  02CF  087B               	movf	??_I2C2_DO_TX+1,w
  9160  02D0  3A01               	xorlw	1	; case 1
  9161  02D1  1903               	skipnz
  9162  02D2  2AB6               	goto	l2582
  9163  02D3  3A03               	xorlw	3	; case 2
  9164  02D4  1903               	skipnz
  9165  02D5  2AAE               	goto	l2574
  9166  02D6  3A01               	xorlw	1	; case 3
  9167  02D7  1903               	skipnz
  9168  02D8  2AB2               	goto	l2578
  9169  02D9  3A07               	xorlw	7	; case 4
  9170  02DA  1903               	skipnz
  9171  02DB  2AB6               	goto	l2582
  9172  02DC  2AB6               	goto	l2582
  9173  02DD                     l495:	
  9174                           ;mcc_generated_files/i2c2_master.c: 370:     else
  9175                           
  9176                           
  9177                           ;mcc_generated_files/i2c2_master.c: 371:     {;mcc_generated_files/i2c2_master.c: 372:  
      +                                 I2C2_Status.addressNackCheck = 0;
  9178  02DD  0021               	movlb	1	; select bank1
  9179  02DE  103C               	bcf	(_I2C2_Status^(0+128)+28),0
  9180  02DF                     l2590:
  9181                           
  9182                           ;mcc_generated_files/i2c2_master.c: 373:         I2C2_MasterSendTxData(*I2C2_Status.data
      +                          _ptr++);
  9183  02DF  3017               	movlw	23
  9184  02E0  3EA0               	addlw	(low (_I2C2_Status| 0))& (0+255)
  9185  02E1  0086               	movwf	6
  9186  02E2  0187               	clrf	7
  9187  02E3  3F40               	moviw [0]fsr1
  9188  02E4  0084               	movwf	4
  9189  02E5  0185               	clrf	5
  9190  02E6  0A81               	incf	1,f
  9191  02E7  0800               	movf	0,w
  9192  02E8  318E  265C  3182   	fcall	_I2C2_MasterSendTxData
  9193  02EB                     l2592:
  9194                           
  9195                           ;mcc_generated_files/i2c2_master.c: 374:         return (--I2C2_Status.data_length)?I2C2
      +                          _TX:I2C2_TX_EMPTY;
  9196  02EB  3001               	movlw	1
  9197  02EC  0021               	movlb	1	; select bank1
  9198  02ED  02B8               	subwf	(_I2C2_Status^(0+128)+24),f
  9199  02EE  3000               	movlw	0
  9200  02EF  3BB9               	subwfb	((_I2C2_Status+1)^(0+128)+24),f
  9201  02F0  0838               	movf	(_I2C2_Status^(0+128)+24),w
  9202  02F1  0439               	iorwf	((_I2C2_Status+1)^(0+128)+24),w
  9203  02F2  1D03               	btfss	3,2
  9204  02F3  2AF5               	goto	u1021
  9205  02F4  2AF6               	goto	u1020
  9206  02F5                     u1021:
  9207  02F5  2AF8               	goto	l2596
  9208  02F6                     u1020:
  9209  02F6                     l2594:
  9210  02F6  3006               	movlw	6
  9211  02F7  2AF9               	goto	l498
  9212  02F8                     l2596:
  9213  02F8  3003               	movlw	3
  9214  02F9                     l498:
  9215  02F9  0008               	return
  9216  02FA                     __end_of_I2C2_DO_TX:
  9217                           
  9218                           	psect	text45
  9219  0EC4                     __ptext45:	
  9220 ;; *************** function _I2C2_DO_SEND_ADR_WRITE *****************
  9221 ;; Defined at:
  9222 ;;		line 347 in file "mcc_generated_files/i2c2_master.c"
  9223 ;; Parameters:    Size  Location     Type
  9224 ;;		None
  9225 ;; Auto vars:     Size  Location     Type
  9226 ;;		None
  9227 ;; Return value:  Size  Location     Type
  9228 ;;                  1    wreg      enum E12083
  9229 ;; Registers used:
  9230 ;;		wreg, status,2, status,0, pclath, cstack
  9231 ;; Tracked objects:
  9232 ;;		On entry : 0/0
  9233 ;;		On exit  : 0/0
  9234 ;;		Unchanged: 0/0
  9235 ;; Data sizes:     COMMON   BANK0   BANK1   BANK2   BANK3   BANK4   BANK5   BANK6   BANK7   BANK8   BANK9  BANK10  BANK1
      +1  BANK12
  9236 ;;      Params:         0       0       0       0       0       0       0       0       0       0       0       0       
      +0       0
  9237 ;;      Locals:         0       0       0       0       0       0       0       0       0       0       0       0       
      +0       0
  9238 ;;      Temps:          0       0       0       0       0       0       0       0       0       0       0       0       
      +0       0
  9239 ;;      Totals:         0       0       0       0       0       0       0       0       0       0       0       0       
      +0       0
  9240 ;;Total ram usage:        0 bytes
  9241 ;; Hardware stack levels used: 1
  9242 ;; Hardware stack levels required when called: 1
  9243 ;; This function calls:
  9244 ;;		_I2C2_MasterSendTxData
  9245 ;; This function is called by:
  9246 ;;		_I2C2_MasterFsm
  9247 ;; This function uses a non-reentrant model
  9248 ;;
  9249                           
  9250                           
  9251                           ;psect for function _I2C2_DO_SEND_ADR_WRITE
  9252  0EC4                     _I2C2_DO_SEND_ADR_WRITE:
  9253  0EC4                     l2562:	
  9254                           ;incstack = 0
  9255                           ; Regs used in _I2C2_DO_SEND_ADR_WRITE: [wreg+status,2+status,0+pclath+cstack]
  9256                           
  9257                           
  9258                           ;mcc_generated_files/i2c2_master.c: 349:     I2C2_Status.addressNackCheck = 1;
  9259  0EC4  0021               	movlb	1	; select bank1
  9260  0EC5  143C               	bsf	(_I2C2_Status^(0+128)+28),0
  9261  0EC6                     l2564:
  9262                           
  9263                           ;mcc_generated_files/i2c2_master.c: 350:     I2C2_MasterSendTxData((uint8_t) (I2C2_Statu
      +                          s.address << 1));
  9264  0EC6  3536               	lslf	(_I2C2_Status^(0+128)+22),w
  9265  0EC7  318E  265C  318E   	fcall	_I2C2_MasterSendTxData
  9266  0ECA                     l2566:
  9267                           
  9268                           ;mcc_generated_files/i2c2_master.c: 351:     return I2C2_TX;
  9269  0ECA  3003               	movlw	3
  9270  0ECB                     l492:
  9271  0ECB  0008               	return
  9272  0ECC                     __end_of_I2C2_DO_SEND_ADR_WRITE:
  9273                           
  9274                           	psect	text46
  9275  0ED4                     __ptext46:	
  9276 ;; *************** function _I2C2_DO_SEND_ADR_READ *****************
  9277 ;; Defined at:
  9278 ;;		line 340 in file "mcc_generated_files/i2c2_master.c"
  9279 ;; Parameters:    Size  Location     Type
  9280 ;;		None
  9281 ;; Auto vars:     Size  Location     Type
  9282 ;;		None
  9283 ;; Return value:  Size  Location     Type
  9284 ;;                  1    wreg      enum E12083
  9285 ;; Registers used:
  9286 ;;		wreg, status,2, status,0, pclath, cstack
  9287 ;; Tracked objects:
  9288 ;;		On entry : 0/0
  9289 ;;		On exit  : 0/0
  9290 ;;		Unchanged: 0/0
  9291 ;; Data sizes:     COMMON   BANK0   BANK1   BANK2   BANK3   BANK4   BANK5   BANK6   BANK7   BANK8   BANK9  BANK10  BANK1
      +1  BANK12
  9292 ;;      Params:         0       0       0       0       0       0       0       0       0       0       0       0       
      +0       0
  9293 ;;      Locals:         0       0       0       0       0       0       0       0       0       0       0       0       
      +0       0
  9294 ;;      Temps:          0       0       0       0       0       0       0       0       0       0       0       0       
      +0       0
  9295 ;;      Totals:         0       0       0       0       0       0       0       0       0       0       0       0       
      +0       0
  9296 ;;Total ram usage:        0 bytes
  9297 ;; Hardware stack levels used: 1
  9298 ;; Hardware stack levels required when called: 1
  9299 ;; This function calls:
  9300 ;;		_I2C2_MasterSendTxData
  9301 ;; This function is called by:
  9302 ;;		_I2C2_MasterFsm
  9303 ;; This function uses a non-reentrant model
  9304 ;;
  9305                           
  9306                           
  9307                           ;psect for function _I2C2_DO_SEND_ADR_READ
  9308  0ED4                     _I2C2_DO_SEND_ADR_READ:
  9309  0ED4                     l2554:	
  9310                           ;incstack = 0
  9311                           ; Regs used in _I2C2_DO_SEND_ADR_READ: [wreg+status,2+status,0+pclath+cstack]
  9312                           
  9313                           
  9314                           ;mcc_generated_files/i2c2_master.c: 342:     I2C2_Status.addressNackCheck = 1;
  9315  0ED4  0021               	movlb	1	; select bank1
  9316  0ED5  143C               	bsf	(_I2C2_Status^(0+128)+28),0
  9317  0ED6                     l2556:
  9318                           
  9319                           ;mcc_generated_files/i2c2_master.c: 343:     I2C2_MasterSendTxData((uint8_t) (I2C2_Statu
      +                          s.address << 1 | 1));
  9320  0ED6  1403               	setc
  9321  0ED7  0D36               	rlf	(_I2C2_Status^(0+128)+22),w
  9322  0ED8  318E  265C  318E   	fcall	_I2C2_MasterSendTxData
  9323  0EDB                     l2558:
  9324                           
  9325                           ;mcc_generated_files/i2c2_master.c: 344:     return I2C2_RCEN;
  9326  0EDB  3005               	movlw	5
  9327  0EDC                     l489:
  9328  0EDC  0008               	return
  9329  0EDD                     __end_of_I2C2_DO_SEND_ADR_READ:
  9330                           
  9331                           	psect	text47
  9332  0E61                     __ptext47:	
  9333 ;; *************** function _I2C2_DO_IDLE *****************
  9334 ;; Defined at:
  9335 ;;		line 333 in file "mcc_generated_files/i2c2_master.c"
  9336 ;; Parameters:    Size  Location     Type
  9337 ;;		None
  9338 ;; Auto vars:     Size  Location     Type
  9339 ;;		None
  9340 ;; Return value:  Size  Location     Type
  9341 ;;                  1    wreg      enum E12083
  9342 ;; Registers used:
  9343 ;;		wreg, status,2
  9344 ;; Tracked objects:
  9345 ;;		On entry : 0/0
  9346 ;;		On exit  : 0/0
  9347 ;;		Unchanged: 0/0
  9348 ;; Data sizes:     COMMON   BANK0   BANK1   BANK2   BANK3   BANK4   BANK5   BANK6   BANK7   BANK8   BANK9  BANK10  BANK1
      +1  BANK12
  9349 ;;      Params:         0       0       0       0       0       0       0       0       0       0       0       0       
      +0       0
  9350 ;;      Locals:         0       0       0       0       0       0       0       0       0       0       0       0       
      +0       0
  9351 ;;      Temps:          0       0       0       0       0       0       0       0       0       0       0       0       
      +0       0
  9352 ;;      Totals:         0       0       0       0       0       0       0       0       0       0       0       0       
      +0       0
  9353 ;;Total ram usage:        0 bytes
  9354 ;; Hardware stack levels used: 1
  9355 ;; This function calls:
  9356 ;;		Nothing
  9357 ;; This function is called by:
  9358 ;;		_I2C2_MasterFsm
  9359 ;; This function uses a non-reentrant model
  9360 ;;
  9361                           
  9362                           
  9363                           ;psect for function _I2C2_DO_IDLE
  9364  0E61                     _I2C2_DO_IDLE:
  9365  0E61                     l2546:	
  9366                           ;incstack = 0
  9367                           ; Regs used in _I2C2_DO_IDLE: [wreg+status,2]
  9368                           
  9369                           
  9370                           ;mcc_generated_files/i2c2_master.c: 335:     I2C2_Status.busy = 0;
  9371  0E61  0021               	movlb	1	; select bank1
  9372  0E62  10BC               	bcf	(_I2C2_Status^(0+128)+28),1
  9373  0E63                     l2548:
  9374                           
  9375                           ;mcc_generated_files/i2c2_master.c: 336:     I2C2_Status.error = I2C2_NOERR;
  9376  0E63  01BB               	clrf	(_I2C2_Status^(0+128)+27)
  9377  0E64                     l2550:
  9378                           
  9379                           ;mcc_generated_files/i2c2_master.c: 337:     return I2C2_RESET;
  9380  0E64  300E               	movlw	14
  9381  0E65                     l486:
  9382  0E65  0008               	return
  9383  0E66                     __end_of_I2C2_DO_IDLE:
  9384                           
  9385                           	psect	text48
  9386  011B                     __ptext48:	
  9387 ;; *************** function _I2C2_DO_TX_EMPTY *****************
  9388 ;; Defined at:
  9389 ;;		line 409 in file "mcc_generated_files/i2c2_master.c"
  9390 ;; Parameters:    Size  Location     Type
  9391 ;;		None
  9392 ;; Auto vars:     Size  Location     Type
  9393 ;;		None
  9394 ;; Return value:  Size  Location     Type
  9395 ;;                  1    wreg      enum E12083
  9396 ;; Registers used:
  9397 ;;		wreg, fsr0l, fsr0h, fsr1l, fsr1h, status,2, status,0, pclath, cstack
  9398 ;; Tracked objects:
  9399 ;;		On entry : 0/0
  9400 ;;		On exit  : 0/0
  9401 ;;		Unchanged: 0/0
  9402 ;; Data sizes:     COMMON   BANK0   BANK1   BANK2   BANK3   BANK4   BANK5   BANK6   BANK7   BANK8   BANK9  BANK10  BANK1
      +1  BANK12
  9403 ;;      Params:         0       0       0       0       0       0       0       0       0       0       0       0       
      +0       0
  9404 ;;      Locals:         0       0       0       0       0       0       0       0       0       0       0       0       
      +0       0
  9405 ;;      Temps:          3       0       0       0       0       0       0       0       0       0       0       0       
      +0       0
  9406 ;;      Totals:         3       0       0       0       0       0       0       0       0       0       0       0       
      +0       0
  9407 ;;Total ram usage:        3 bytes
  9408 ;; Hardware stack levels used: 1
  9409 ;; Hardware stack levels required when called: 3
  9410 ;; This function calls:
  9411 ;;		Absolute function
  9412 ;;		_I2C2_CallbackReturnReset
  9413 ;;		_I2C2_CallbackReturnStop
  9414 ;;		_I2C2_DO_SEND_RESTART
  9415 ;;		_I2C2_DO_SEND_STOP
  9416 ;;		_I2C2_MasterSetIrq
  9417 ;;		_rd1RegCompleteHandler
  9418 ;;		_rd2RegCompleteHandler
  9419 ;;		_rdBlkRegCompleteHandler
  9420 ;;		_wr1RegCompleteHandler
  9421 ;;		_wr2RegCompleteHandler
  9422 ;; This function is called by:
  9423 ;;		_I2C2_MasterFsm
  9424 ;; This function uses a non-reentrant model
  9425 ;;
  9426                           
  9427                           
  9428                           ;psect for function _I2C2_DO_TX_EMPTY
  9429  011B                     _I2C2_DO_TX_EMPTY:
  9430  011B                     l2644:	
  9431                           ;incstack = 0
  9432                           ; Regs used in _I2C2_DO_TX_EMPTY: [wreg-fsr1h+status,2+status,0+pclath+cstack]
  9433                           
  9434                           
  9435                           ;mcc_generated_files/i2c2_master.c: 411:     I2C2_Status.bufferFree = 1;
  9436  011B  0021               	movlb	1	; select bank1
  9437  011C  15BC               	bsf	(_I2C2_Status^(0+128)+28),3
  9438                           
  9439                           ;mcc_generated_files/i2c2_master.c: 412:     switch(I2C2_Status.callbackTable[I2C2_DATA_
      +                          COMPLETE](I2C2_Status.callbackPayload[I2C2_DATA_COMPLETE]))
  9440  011D  292B               	goto	l2662
  9441  011E                     l2646:
  9442                           
  9443                           ;mcc_generated_files/i2c2_master.c: 416:             return I2C2_DO_SEND_RESTART();
  9444  011E  318E  2670  3181   	fcall	_I2C2_DO_SEND_RESTART
  9445  0121  2949               	goto	l529
  9446  0122                     l2650:
  9447                           
  9448                           ;mcc_generated_files/i2c2_master.c: 418:             I2C2_MasterSetIrq();
  9449  0122  318E  2651  3181   	fcall	_I2C2_MasterSetIrq
  9450  0125                     l2652:
  9451                           
  9452                           ;mcc_generated_files/i2c2_master.c: 419:             return I2C2_TX;
  9453  0125  3003               	movlw	3
  9454  0126  2949               	goto	l529
  9455  0127                     l2656:
  9456                           
  9457                           ;mcc_generated_files/i2c2_master.c: 422:             return I2C2_DO_SEND_STOP();
  9458  0127  318E  2675  3181   	fcall	_I2C2_DO_SEND_STOP
  9459  012A  2949               	goto	l529
  9460  012B                     l2662:
  9461  012B  082C               	movf	(low ((_I2C2_Status| 0+12)))^(0+128),w
  9462  012C  00FA               	movwf	??_I2C2_DO_TX_EMPTY
  9463  012D  087A               	movf	??_I2C2_DO_TX_EMPTY,w
  9464  012E  00F9               	movwf	I2C2_CallbackReturnReset@funPtr
  9465  012F  0821               	movf	(_I2C2_Status+1)^(0+128),w
  9466  0130  008A               	movwf	10
  9467  0131  0820               	movf	_I2C2_Status^(0+128),w
  9468  0132  000A               	callw
  9469  0133  3181               	pagesel	$
  9470  0134  00FB               	movwf	??_I2C2_DO_TX_EMPTY+1
  9471  0135  01FC               	clrf	??_I2C2_DO_TX_EMPTY+2
  9472                           
  9473                           ; Switch on 2 bytes has been partitioned into a top level switch of size 1, and 1 sub-sw
      +                          itches
  9474                           ; Switch size 1, requested type "simple"
  9475                           ; Number of cases is 1, Range of values is 0 to 0
  9476                           ; switch strategies available:
  9477                           ; Name         Instructions Cycles
  9478                           ; simple_byte            4     3 (average)
  9479                           ; direct_byte            8     6 (fixed)
  9480                           ; jumptable            260     6 (fixed)
  9481                           ;	Chosen strategy is simple_byte
  9482  0136  087C               	movf	??_I2C2_DO_TX_EMPTY+2,w
  9483  0137  3A00               	xorlw	0	; case 0
  9484  0138  1903               	skipnz
  9485  0139  293B               	goto	l3446
  9486  013A  2927               	goto	l2656
  9487  013B                     l3446:
  9488                           
  9489                           ; Switch size 1, requested type "simple"
  9490                           ; Number of cases is 4, Range of values is 1 to 4
  9491                           ; switch strategies available:
  9492                           ; Name         Instructions Cycles
  9493                           ; simple_byte           13     7 (average)
  9494                           ; direct_byte           17     9 (fixed)
  9495                           ; jumptable            263     9 (fixed)
  9496                           ;	Chosen strategy is simple_byte
  9497  013B  087B               	movf	??_I2C2_DO_TX_EMPTY+1,w
  9498  013C  3A01               	xorlw	1	; case 1
  9499  013D  1903               	skipnz
  9500  013E  2927               	goto	l2656
  9501  013F  3A03               	xorlw	3	; case 2
  9502  0140  1903               	skipnz
  9503  0141  291E               	goto	l2646
  9504  0142  3A01               	xorlw	1	; case 3
  9505  0143  1903               	skipnz
  9506  0144  291E               	goto	l2646
  9507  0145  3A07               	xorlw	7	; case 4
  9508  0146  1903               	skipnz
  9509  0147  2922               	goto	l2650
  9510  0148  2927               	goto	l2656
  9511  0149                     l529:
  9512  0149  0008               	return
  9513  014A                     __end_of_I2C2_DO_TX_EMPTY:
  9514                           
  9515                           	psect	text49
  9516  0E51                     __ptext49:	
  9517 ;; *************** function _I2C2_MasterSetIrq *****************
  9518 ;; Defined at:
  9519 ;;		line 645 in file "mcc_generated_files/i2c2_master.c"
  9520 ;; Parameters:    Size  Location     Type
  9521 ;;		None
  9522 ;; Auto vars:     Size  Location     Type
  9523 ;;		None
  9524 ;; Return value:  Size  Location     Type
  9525 ;;                  1    wreg      void 
  9526 ;; Registers used:
  9527 ;;		None
  9528 ;; Tracked objects:
  9529 ;;		On entry : 0/0
  9530 ;;		On exit  : 0/0
  9531 ;;		Unchanged: 0/0
  9532 ;; Data sizes:     COMMON   BANK0   BANK1   BANK2   BANK3   BANK4   BANK5   BANK6   BANK7   BANK8   BANK9  BANK10  BANK1
      +1  BANK12
  9533 ;;      Params:         0       0       0       0       0       0       0       0       0       0       0       0       
      +0       0
  9534 ;;      Locals:         0       0       0       0       0       0       0       0       0       0       0       0       
      +0       0
  9535 ;;      Temps:          0       0       0       0       0       0       0       0       0       0       0       0       
      +0       0
  9536 ;;      Totals:         0       0       0       0       0       0       0       0       0       0       0       0       
      +0       0
  9537 ;;Total ram usage:        0 bytes
  9538 ;; Hardware stack levels used: 1
  9539 ;; This function calls:
  9540 ;;		Nothing
  9541 ;; This function is called by:
  9542 ;;		_I2C2_DO_TX_EMPTY
  9543 ;; This function uses a non-reentrant model
  9544 ;;
  9545                           
  9546                           
  9547                           ;psect for function _I2C2_MasterSetIrq
  9548  0E51                     _I2C2_MasterSetIrq:
  9549  0E51                     l2520:	
  9550                           ;incstack = 0
  9551                           ; Regs used in _I2C2_MasterSetIrq: []
  9552                           
  9553                           
  9554                           ;mcc_generated_files/i2c2_master.c: 647:     PIR3bits.SSP2IF = 1;
  9555  0E51  002E               	movlb	14	; select bank14
  9556  0E52  150F               	bsf	15,2	;volatile
  9557  0E53                     l649:
  9558  0E53  0008               	return
  9559  0E54                     __end_of_I2C2_MasterSetIrq:
  9560                           
  9561                           	psect	text50
  9562  0E93                     __ptext50:	
  9563 ;; *************** function _I2C2_MasterIsNack *****************
  9564 ;; Defined at:
  9565 ;;		line 598 in file "mcc_generated_files/i2c2_master.c"
  9566 ;; Parameters:    Size  Location     Type
  9567 ;;		None
  9568 ;; Auto vars:     Size  Location     Type
  9569 ;;		None
  9570 ;; Return value:  Size  Location     Type
  9571 ;;                  1    wreg      _Bool 
  9572 ;; Registers used:
  9573 ;;		wreg, status,2, status,0
  9574 ;; Tracked objects:
  9575 ;;		On entry : 0/0
  9576 ;;		On exit  : 0/0
  9577 ;;		Unchanged: 0/0
  9578 ;; Data sizes:     COMMON   BANK0   BANK1   BANK2   BANK3   BANK4   BANK5   BANK6   BANK7   BANK8   BANK9  BANK10  BANK1
      +1  BANK12
  9579 ;;      Params:         0       0       0       0       0       0       0       0       0       0       0       0       
      +0       0
  9580 ;;      Locals:         0       0       0       0       0       0       0       0       0       0       0       0       
      +0       0
  9581 ;;      Temps:          0       0       0       0       0       0       0       0       0       0       0       0       
      +0       0
  9582 ;;      Totals:         0       0       0       0       0       0       0       0       0       0       0       0       
      +0       0
  9583 ;;Total ram usage:        0 bytes
  9584 ;; Hardware stack levels used: 1
  9585 ;; This function calls:
  9586 ;;		Nothing
  9587 ;; This function is called by:
  9588 ;;		_I2C2_MasterFsm
  9589 ;;		_I2C2_DO_TX
  9590 ;; This function uses a non-reentrant model
  9591 ;;
  9592                           
  9593                           
  9594                           ;psect for function _I2C2_MasterIsNack
  9595  0E93                     _I2C2_MasterIsNack:
  9596  0E93                     l2470:	
  9597                           ;incstack = 0
  9598                           ; Regs used in _I2C2_MasterIsNack: [wreg+status,2+status,0]
  9599                           
  9600                           
  9601                           ;mcc_generated_files/i2c2_master.c: 600:     return SSP2CON2bits.ACKSTAT;
  9602  0E93  0023               	movlb	3	; select bank3
  9603  0E94  0E1B               	swapf	27,w	;volatile
  9604  0E95  0C89               	rrf	9,f
  9605  0E96  0C89               	rrf	9,f
  9606  0E97  3901               	andlw	1
  9607  0E98                     l622:
  9608  0E98  0008               	return
  9609  0E99                     __end_of_I2C2_MasterIsNack:
  9610                           
  9611                           	psect	text51
  9612  0E5C                     __ptext51:	
  9613 ;; *************** function _I2C2_MasterSendTxData *****************
  9614 ;; Defined at:
  9615 ;;		line 568 in file "mcc_generated_files/i2c2_master.c"
  9616 ;; Parameters:    Size  Location     Type
  9617 ;;  data            1    wreg     unsigned char 
  9618 ;; Auto vars:     Size  Location     Type
  9619 ;;  data            1    0[COMMON] unsigned char 
  9620 ;; Return value:  Size  Location     Type
  9621 ;;                  1    wreg      void 
  9622 ;; Registers used:
  9623 ;;		wreg
  9624 ;; Tracked objects:
  9625 ;;		On entry : 0/0
  9626 ;;		On exit  : 0/0
  9627 ;;		Unchanged: 0/0
  9628 ;; Data sizes:     COMMON   BANK0   BANK1   BANK2   BANK3   BANK4   BANK5   BANK6   BANK7   BANK8   BANK9  BANK10  BANK1
      +1  BANK12
  9629 ;;      Params:         0       0       0       0       0       0       0       0       0       0       0       0       
      +0       0
  9630 ;;      Locals:         1       0       0       0       0       0       0       0       0       0       0       0       
      +0       0
  9631 ;;      Temps:          0       0       0       0       0       0       0       0       0       0       0       0       
      +0       0
  9632 ;;      Totals:         1       0       0       0       0       0       0       0       0       0       0       0       
      +0       0
  9633 ;;Total ram usage:        1 bytes
  9634 ;; Hardware stack levels used: 1
  9635 ;; This function calls:
  9636 ;;		Nothing
  9637 ;; This function is called by:
  9638 ;;		_I2C2_DO_SEND_ADR_READ
  9639 ;;		_I2C2_DO_SEND_ADR_WRITE
  9640 ;;		_I2C2_DO_TX
  9641 ;; This function uses a non-reentrant model
  9642 ;;
  9643                           
  9644                           
  9645                           ;psect for function _I2C2_MasterSendTxData
  9646  0E5C                     _I2C2_MasterSendTxData:
  9647                           
  9648                           ;incstack = 0
  9649                           ; Regs used in _I2C2_MasterSendTxData: [wreg]
  9650                           ;I2C2_MasterSendTxData@data stored from wreg
  9651  0E5C  00F0               	movwf	I2C2_MasterSendTxData@data
  9652  0E5D                     l2474:
  9653                           
  9654                           ;mcc_generated_files/i2c2_master.c: 568: static __attribute__((inline)) void I2C2_Master
      +                          SendTxData(uint8_t data);mcc_generated_files/i2c2_master.c: 569: {;mcc_generated_files/i
      +                          2c2_master.c: 570:     SSP2BUF = data;
  9655  0E5D  0870               	movf	I2C2_MasterSendTxData@data,w
  9656  0E5E  0023               	movlb	3	; select bank3
  9657  0E5F  0096               	movwf	22	;volatile
  9658  0E60                     l604:
  9659  0E60  0008               	return
  9660  0E61                     __end_of_I2C2_MasterSendTxData:
  9661                           
  9662                           	psect	text52
  9663  0E58                     __ptext52:	
  9664 ;; *************** function _I2C2_MasterSendAck *****************
  9665 ;; Defined at:
  9666 ;;		line 603 in file "mcc_generated_files/i2c2_master.c"
  9667 ;; Parameters:    Size  Location     Type
  9668 ;;		None
  9669 ;; Auto vars:     Size  Location     Type
  9670 ;;		None
  9671 ;; Return value:  Size  Location     Type
  9672 ;;                  1    wreg      void 
  9673 ;; Registers used:
  9674 ;;		None
  9675 ;; Tracked objects:
  9676 ;;		On entry : 0/0
  9677 ;;		On exit  : 0/0
  9678 ;;		Unchanged: 0/0
  9679 ;; Data sizes:     COMMON   BANK0   BANK1   BANK2   BANK3   BANK4   BANK5   BANK6   BANK7   BANK8   BANK9  BANK10  BANK1
      +1  BANK12
  9680 ;;      Params:         0       0       0       0       0       0       0       0       0       0       0       0       
      +0       0
  9681 ;;      Locals:         0       0       0       0       0       0       0       0       0       0       0       0       
      +0       0
  9682 ;;      Temps:          0       0       0       0       0       0       0       0       0       0       0       0       
      +0       0
  9683 ;;      Totals:         0       0       0       0       0       0       0       0       0       0       0       0       
      +0       0
  9684 ;;Total ram usage:        0 bytes
  9685 ;; Hardware stack levels used: 1
  9686 ;; This function calls:
  9687 ;;		Nothing
  9688 ;; This function is called by:
  9689 ;;		_I2C2_DO_RX
  9690 ;;		_I2C2_DO_RX_ACK
  9691 ;; This function uses a non-reentrant model
  9692 ;;
  9693                           
  9694                           
  9695                           ;psect for function _I2C2_MasterSendAck
  9696  0E58                     _I2C2_MasterSendAck:
  9697  0E58                     l2498:	
  9698                           ;incstack = 0
  9699                           ; Regs used in _I2C2_MasterSendAck: []
  9700                           
  9701                           
  9702                           ;mcc_generated_files/i2c2_master.c: 605:     SSP2CON2bits.ACKDT = 0;
  9703  0E58  0023               	movlb	3	; select bank3
  9704  0E59  129B               	bcf	27,5	;volatile
  9705                           
  9706                           ;mcc_generated_files/i2c2_master.c: 606:     SSP2CON2bits.ACKEN = 1;
  9707  0E5A  161B               	bsf	27,4	;volatile
  9708  0E5B                     l625:
  9709  0E5B  0008               	return
  9710  0E5C                     __end_of_I2C2_MasterSendAck:
  9711                           
  9712                           	psect	text53
  9713  0E4E                     __ptext53:	
  9714 ;; *************** function _I2C2_MasterGetRxData *****************
  9715 ;; Defined at:
  9716 ;;		line 563 in file "mcc_generated_files/i2c2_master.c"
  9717 ;; Parameters:    Size  Location     Type
  9718 ;;		None
  9719 ;; Auto vars:     Size  Location     Type
  9720 ;;		None
  9721 ;; Return value:  Size  Location     Type
  9722 ;;                  1    wreg      unsigned char 
  9723 ;; Registers used:
  9724 ;;		wreg
  9725 ;; Tracked objects:
  9726 ;;		On entry : 0/0
  9727 ;;		On exit  : 0/0
  9728 ;;		Unchanged: 0/0
  9729 ;; Data sizes:     COMMON   BANK0   BANK1   BANK2   BANK3   BANK4   BANK5   BANK6   BANK7   BANK8   BANK9  BANK10  BANK1
      +1  BANK12
  9730 ;;      Params:         0       0       0       0       0       0       0       0       0       0       0       0       
      +0       0
  9731 ;;      Locals:         0       0       0       0       0       0       0       0       0       0       0       0       
      +0       0
  9732 ;;      Temps:          0       0       0       0       0       0       0       0       0       0       0       0       
      +0       0
  9733 ;;      Totals:         0       0       0       0       0       0       0       0       0       0       0       0       
      +0       0
  9734 ;;Total ram usage:        0 bytes
  9735 ;; Hardware stack levels used: 1
  9736 ;; This function calls:
  9737 ;;		Nothing
  9738 ;; This function is called by:
  9739 ;;		_I2C2_DO_RX
  9740 ;; This function uses a non-reentrant model
  9741 ;;
  9742                           
  9743                           
  9744                           ;psect for function _I2C2_MasterGetRxData
  9745  0E4E                     _I2C2_MasterGetRxData:
  9746  0E4E                     l2494:	
  9747                           ;incstack = 0
  9748                           ; Regs used in _I2C2_MasterGetRxData: [wreg]
  9749                           
  9750                           
  9751                           ;mcc_generated_files/i2c2_master.c: 565:     return SSP2BUF;
  9752  0E4E  0023               	movlb	3	; select bank3
  9753  0E4F  0816               	movf	22,w	;volatile
  9754  0E50                     l601:
  9755  0E50  0008               	return
  9756  0E51                     __end_of_I2C2_MasterGetRxData:
  9757                           
  9758                           	psect	text54
  9759  0E54                     __ptext54:	
  9760 ;; *************** function _I2C2_MasterSendNack *****************
  9761 ;; Defined at:
  9762 ;;		line 609 in file "mcc_generated_files/i2c2_master.c"
  9763 ;; Parameters:    Size  Location     Type
  9764 ;;		None
  9765 ;; Auto vars:     Size  Location     Type
  9766 ;;		None
  9767 ;; Return value:  Size  Location     Type
  9768 ;;                  1    wreg      void 
  9769 ;; Registers used:
  9770 ;;		None
  9771 ;; Tracked objects:
  9772 ;;		On entry : 0/0
  9773 ;;		On exit  : 0/0
  9774 ;;		Unchanged: 0/0
  9775 ;; Data sizes:     COMMON   BANK0   BANK1   BANK2   BANK3   BANK4   BANK5   BANK6   BANK7   BANK8   BANK9  BANK10  BANK1
      +1  BANK12
  9776 ;;      Params:         0       0       0       0       0       0       0       0       0       0       0       0       
      +0       0
  9777 ;;      Locals:         0       0       0       0       0       0       0       0       0       0       0       0       
      +0       0
  9778 ;;      Temps:          0       0       0       0       0       0       0       0       0       0       0       0       
      +0       0
  9779 ;;      Totals:         0       0       0       0       0       0       0       0       0       0       0       0       
      +0       0
  9780 ;;Total ram usage:        0 bytes
  9781 ;; Hardware stack levels used: 1
  9782 ;; This function calls:
  9783 ;;		Nothing
  9784 ;; This function is called by:
  9785 ;;		_I2C2_DO_RX_NACK_STOP
  9786 ;;		_I2C2_DO_RX_NACK_RESTART
  9787 ;; This function uses a non-reentrant model
  9788 ;;
  9789                           
  9790                           
  9791                           ;psect for function _I2C2_MasterSendNack
  9792  0E54                     _I2C2_MasterSendNack:
  9793  0E54                     l2430:	
  9794                           ;incstack = 0
  9795                           ; Regs used in _I2C2_MasterSendNack: []
  9796                           
  9797                           
  9798                           ;mcc_generated_files/i2c2_master.c: 611:     SSP2CON2bits.ACKDT = 1;
  9799  0E54  0023               	movlb	3	; select bank3
  9800  0E55  169B               	bsf	27,5	;volatile
  9801                           
  9802                           ;mcc_generated_files/i2c2_master.c: 612:     SSP2CON2bits.ACKEN = 1;
  9803  0E56  161B               	bsf	27,4	;volatile
  9804  0E57                     l628:
  9805  0E57  0008               	return
  9806  0E58                     __end_of_I2C2_MasterSendNack:
  9807                           
  9808                           	psect	text55
  9809  0E4B                     __ptext55:	
  9810 ;; *************** function _I2C2_MasterStartRx *****************
  9811 ;; Defined at:
  9812 ;;		line 583 in file "mcc_generated_files/i2c2_master.c"
  9813 ;; Parameters:    Size  Location     Type
  9814 ;;		None
  9815 ;; Auto vars:     Size  Location     Type
  9816 ;;		None
  9817 ;; Return value:  Size  Location     Type
  9818 ;;                  1    wreg      void 
  9819 ;; Registers used:
  9820 ;;		None
  9821 ;; Tracked objects:
  9822 ;;		On entry : 0/0
  9823 ;;		On exit  : 0/0
  9824 ;;		Unchanged: 0/0
  9825 ;; Data sizes:     COMMON   BANK0   BANK1   BANK2   BANK3   BANK4   BANK5   BANK6   BANK7   BANK8   BANK9  BANK10  BANK1
      +1  BANK12
  9826 ;;      Params:         0       0       0       0       0       0       0       0       0       0       0       0       
      +0       0
  9827 ;;      Locals:         0       0       0       0       0       0       0       0       0       0       0       0       
      +0       0
  9828 ;;      Temps:          0       0       0       0       0       0       0       0       0       0       0       0       
      +0       0
  9829 ;;      Totals:         0       0       0       0       0       0       0       0       0       0       0       0       
      +0       0
  9830 ;;Total ram usage:        0 bytes
  9831 ;; Hardware stack levels used: 1
  9832 ;; This function calls:
  9833 ;;		Nothing
  9834 ;; This function is called by:
  9835 ;;		_I2C2_DO_RCEN
  9836 ;; This function uses a non-reentrant model
  9837 ;;
  9838                           
  9839                           
  9840                           ;psect for function _I2C2_MasterStartRx
  9841  0E4B                     _I2C2_MasterStartRx:
  9842  0E4B                     l2512:	
  9843                           ;incstack = 0
  9844                           ; Regs used in _I2C2_MasterStartRx: []
  9845                           
  9846                           
  9847                           ;mcc_generated_files/i2c2_master.c: 585:     SSP2CON2bits.RCEN = 1;
  9848  0E4B  0023               	movlb	3	; select bank3
  9849  0E4C  159B               	bsf	27,3	;volatile
  9850  0E4D                     l613:
  9851  0E4D  0008               	return
  9852  0E4E                     __end_of_I2C2_MasterStartRx:
  9853                           
  9854                           	psect	text56
  9855  0E37                     __ptext56:	
  9856 ;; *************** function _I2C2_CallbackReturnReset *****************
  9857 ;; Defined at:
  9858 ;;		line 525 in file "mcc_generated_files/i2c2_master.c"
  9859 ;; Parameters:    Size  Location     Type
  9860 ;;  funPtr          1    9[COMMON] PTR void 
  9861 ;;		 -> I2C2_ReadDataBlock@bufferBlock(3), I2C2_Write2ByteRegister@data(2), I2C2_Write1ByteRegister@data(1), I2C2_Read2B
      +yteRegister@returnValue(2), 
  9862 ;;		 -> NULL(0), I2C2_Read1ByteRegister@returnValue(1), 
  9863 ;; Auto vars:     Size  Location     Type
  9864 ;;		None
  9865 ;; Return value:  Size  Location     Type
  9866 ;;                  1    wreg      enum E360
  9867 ;; Registers used:
  9868 ;;		wreg
  9869 ;; Tracked objects:
  9870 ;;		On entry : 0/0
  9871 ;;		On exit  : 0/0
  9872 ;;		Unchanged: 0/0
  9873 ;; Data sizes:     COMMON   BANK0   BANK1   BANK2   BANK3   BANK4   BANK5   BANK6   BANK7   BANK8   BANK9  BANK10  BANK1
      +1  BANK12
  9874 ;;      Params:         1       0       0       0       0       0       0       0       0       0       0       0       
      +0       0
  9875 ;;      Locals:         0       0       0       0       0       0       0       0       0       0       0       0       
      +0       0
  9876 ;;      Temps:          0       0       0       0       0       0       0       0       0       0       0       0       
      +0       0
  9877 ;;      Totals:         1       0       0       0       0       0       0       0       0       0       0       0       
      +0       0
  9878 ;;Total ram usage:        1 bytes
  9879 ;; Hardware stack levels used: 1
  9880 ;; This function calls:
  9881 ;;		Nothing
  9882 ;; This function is called by:
  9883 ;;		_I2C2_Open
  9884 ;;		_I2C2_DO_TX
  9885 ;;		_I2C2_DO_RX
  9886 ;;		_I2C2_DO_TX_EMPTY
  9887 ;;		_I2C2_DO_ADDRESS_NACK
  9888 ;;		_I2C2_DO_RX_EMPTY
  9889 ;; This function uses a non-reentrant model
  9890 ;;
  9891                           
  9892                           
  9893                           ;psect for function _I2C2_CallbackReturnReset
  9894  0E37                     _I2C2_CallbackReturnReset:
  9895  0E37                     l2526:	
  9896                           ;incstack = 0
  9897                           ; Regs used in _I2C2_CallbackReturnReset: [wreg]
  9898                           
  9899                           
  9900                           ;mcc_generated_files/i2c2_master.c: 525: i2c2_operations_t I2C2_CallbackReturnReset(void
      +                           *funPtr);mcc_generated_files/i2c2_master.c: 526: {;mcc_generated_files/i2c2_master.c: 5
      +                          27:     return I2C2_RESET_LINK;
  9901  0E37  3005               	movlw	5
  9902  0E38                     l585:
  9903  0E38  0008               	return
  9904  0E39                     __end_of_I2C2_CallbackReturnReset:
  9905                           
  9906                           	psect	text57
  9907  0E35                     __ptext57:	
  9908 ;; *************** function _I2C2_CallbackReturnStop *****************
  9909 ;; Defined at:
  9910 ;;		line 520 in file "mcc_generated_files/i2c2_master.c"
  9911 ;; Parameters:    Size  Location     Type
  9912 ;;  funPtr          1    9[COMMON] PTR void 
  9913 ;;		 -> I2C2_ReadDataBlock@bufferBlock(3), I2C2_Write2ByteRegister@data(2), I2C2_Write1ByteRegister@data(1), I2C2_Read2B
      +yteRegister@returnValue(2), 
  9914 ;;		 -> NULL(0), I2C2_Read1ByteRegister@returnValue(1), 
  9915 ;; Auto vars:     Size  Location     Type
  9916 ;;		None
  9917 ;; Return value:  Size  Location     Type
  9918 ;;                  1    wreg      enum E360
  9919 ;; Registers used:
  9920 ;;		wreg
  9921 ;; Tracked objects:
  9922 ;;		On entry : 0/0
  9923 ;;		On exit  : 0/0
  9924 ;;		Unchanged: 0/0
  9925 ;; Data sizes:     COMMON   BANK0   BANK1   BANK2   BANK3   BANK4   BANK5   BANK6   BANK7   BANK8   BANK9  BANK10  BANK1
      +1  BANK12
  9926 ;;      Params:         1       0       0       0       0       0       0       0       0       0       0       0       
      +0       0
  9927 ;;      Locals:         0       0       0       0       0       0       0       0       0       0       0       0       
      +0       0
  9928 ;;      Temps:          0       0       0       0       0       0       0       0       0       0       0       0       
      +0       0
  9929 ;;      Totals:         1       0       0       0       0       0       0       0       0       0       0       0       
      +0       0
  9930 ;;Total ram usage:        1 bytes
  9931 ;; Hardware stack levels used: 1
  9932 ;; This function calls:
  9933 ;;		Nothing
  9934 ;; This function is called by:
  9935 ;;		_I2C2_Open
  9936 ;;		_I2C2_SetCallback
  9937 ;;		_I2C2_DO_TX
  9938 ;;		_I2C2_DO_RX
  9939 ;;		_I2C2_DO_TX_EMPTY
  9940 ;;		_I2C2_DO_ADDRESS_NACK
  9941 ;;		_I2C2_DO_RX_EMPTY
  9942 ;; This function uses a non-reentrant model
  9943 ;;
  9944                           
  9945                           
  9946                           ;psect for function _I2C2_CallbackReturnStop
  9947  0E35                     _I2C2_CallbackReturnStop:
  9948  0E35                     l2522:	
  9949                           ;incstack = 0
  9950                           ; Regs used in _I2C2_CallbackReturnStop: [wreg]
  9951                           
  9952                           
  9953                           ;mcc_generated_files/i2c2_master.c: 520: i2c2_operations_t I2C2_CallbackReturnStop(void 
      +                          *funPtr);mcc_generated_files/i2c2_master.c: 521: {;mcc_generated_files/i2c2_master.c: 52
      +                          2:     return I2C2_STOP;
  9954  0E35  3001               	movlw	1
  9955  0E36                     l582:
  9956  0E36  0008               	return
  9957  0E37                     __end_of_I2C2_CallbackReturnStop:
  9958                           
  9959                           	psect	text58
  9960  0F99                     __ptext58:	
  9961 ;; *************** function _rdBlkRegCompleteHandler *****************
  9962 ;; Defined at:
  9963 ;;		line 170 in file "mcc_generated_files/examples/i2c2_master_example.c"
  9964 ;; Parameters:    Size  Location     Type
  9965 ;;  ptr             1    9[COMMON] PTR void 
  9966 ;;		 -> I2C2_ReadDataBlock@bufferBlock(3), I2C2_Write2ByteRegister@data(2), I2C2_Write1ByteRegister@data(1), I2C2_Read2B
      +yteRegister@returnValue(2), 
  9967 ;;		 -> NULL(0), I2C2_Read1ByteRegister@returnValue(1), 
  9968 ;; Auto vars:     Size  Location     Type
  9969 ;;		None
  9970 ;; Return value:  Size  Location     Type
  9971 ;;                  1    wreg      enum E360
  9972 ;; Registers used:
  9973 ;;		wreg, fsr1l, fsr1h, status,2, status,0, pclath, cstack
  9974 ;; Tracked objects:
  9975 ;;		On entry : 0/0
  9976 ;;		On exit  : 0/0
  9977 ;;		Unchanged: 0/0
  9978 ;; Data sizes:     COMMON   BANK0   BANK1   BANK2   BANK3   BANK4   BANK5   BANK6   BANK7   BANK8   BANK9  BANK10  BANK1
      +1  BANK12
  9979 ;;      Params:         1       0       0       0       0       0       0       0       0       0       0       0       
      +0       0
  9980 ;;      Locals:         0       0       0       0       0       0       0       0       0       0       0       0       
      +0       0
  9981 ;;      Temps:          0       0       0       0       0       0       0       0       0       0       0       0       
      +0       0
  9982 ;;      Totals:         1       0       0       0       0       0       0       0       0       0       0       0       
      +0       0
  9983 ;;Total ram usage:        1 bytes
  9984 ;; Hardware stack levels used: 1
  9985 ;; Hardware stack levels required when called: 2
  9986 ;; This function calls:
  9987 ;;		_I2C2_SetBuffer
  9988 ;;		_I2C2_SetDataCompleteCallback
  9989 ;; This function is called by:
  9990 ;;		_I2C2_ReadDataBlock
  9991 ;;		_I2C2_DO_TX
  9992 ;;		_I2C2_DO_RX
  9993 ;;		_I2C2_DO_TX_EMPTY
  9994 ;;		_I2C2_DO_ADDRESS_NACK
  9995 ;;		_I2C2_DO_RX_EMPTY
  9996 ;; This function uses a non-reentrant model
  9997 ;;
  9998                           
  9999                           
 10000                           ;psect for function _rdBlkRegCompleteHandler
 10001  0F99                     _rdBlkRegCompleteHandler:
 10002  0F99                     l2464:	
 10003                           ;incstack = 0
 10004                           ; Regs used in _rdBlkRegCompleteHandler: [wreg+fsr1l+fsr1h+status,2+status,0+pclath+csta
      +                          ck]
 10005                           
 10006                           
 10007                           ;mcc_generated_files/examples/i2c2_master_example.c: 170: static i2c2_operations_t rdBlk
      +                          RegCompleteHandler(void *ptr);mcc_generated_files/examples/i2c2_master_example.c: 171: {
      +                          ;mcc_generated_files/examples/i2c2_master_example.c: 172:     I2C2_SetBuffer(((i2c2_buff
      +                          er_t *)ptr)->data,((i2c2_buffer_t*)ptr)->len);
 10008  0F99  0879               	movf	rdBlkRegCompleteHandler@ptr,w
 10009  0F9A  0086               	movwf	6
 10010  0F9B  0187               	clrf	7
 10011  0F9C  3F40               	moviw [0]fsr1
 10012  0F9D  00F0               	movwf	I2C2_SetBuffer@bufferSize
 10013  0F9E  3F41               	moviw [1]fsr1
 10014  0F9F  00F1               	movwf	I2C2_SetBuffer@bufferSize+1
 10015  0FA0  0879               	movf	rdBlkRegCompleteHandler@ptr,w
 10016  0FA1  3E02               	addlw	2
 10017  0FA2  0086               	movwf	6
 10018  0FA3  0187               	clrf	7
 10019  0FA4  0801               	movf	1,w
 10020  0FA5  318F  2723  318F   	fcall	_I2C2_SetBuffer
 10021                           
 10022                           ;mcc_generated_files/examples/i2c2_master_example.c: 173:     I2C2_SetDataCompleteCallba
      +                          ck(((void*)0),((void*)0));
 10023  0FA8  3000               	movlw	0
 10024  0FA9  00F5               	movwf	I2C2_SetDataCompleteCallback@cb
 10025  0FAA  00F6               	movwf	I2C2_SetDataCompleteCallback@cb+1
 10026  0FAB  01F7               	clrf	I2C2_SetDataCompleteCallback@ptr
 10027  0FAC  318E  26EF  318F   	fcall	_I2C2_SetDataCompleteCallback
 10028  0FAF                     l2466:
 10029                           
 10030                           ;mcc_generated_files/examples/i2c2_master_example.c: 174:     return I2C2_RESTART_READ;
 10031  0FAF  3002               	movlw	2
 10032  0FB0                     l321:
 10033  0FB0  0008               	return
 10034  0FB1                     __end_of_rdBlkRegCompleteHandler:
 10035                           
 10036                           	psect	text59
 10037  0F76                     __ptext59:	
 10038 ;; *************** function _wr1RegCompleteHandler *****************
 10039 ;; Defined at:
 10040 ;;		line 156 in file "mcc_generated_files/examples/i2c2_master_example.c"
 10041 ;; Parameters:    Size  Location     Type
 10042 ;;  ptr             1    9[COMMON] PTR void 
 10043 ;;		 -> I2C2_ReadDataBlock@bufferBlock(3), I2C2_Write2ByteRegister@data(2), I2C2_Write1ByteRegister@data(1), I2C2_Read2B
      +yteRegister@returnValue(2), 
 10044 ;;		 -> NULL(0), I2C2_Read1ByteRegister@returnValue(1), 
 10045 ;; Auto vars:     Size  Location     Type
 10046 ;;		None
 10047 ;; Return value:  Size  Location     Type
 10048 ;;                  1    wreg      enum E360
 10049 ;; Registers used:
 10050 ;;		wreg, fsr1l, fsr1h, status,2, status,0, pclath, cstack
 10051 ;; Tracked objects:
 10052 ;;		On entry : 0/0
 10053 ;;		On exit  : 0/0
 10054 ;;		Unchanged: 0/0
 10055 ;; Data sizes:     COMMON   BANK0   BANK1   BANK2   BANK3   BANK4   BANK5   BANK6   BANK7   BANK8   BANK9  BANK10  BANK1
      +1  BANK12
 10056 ;;      Params:         1       0       0       0       0       0       0       0       0       0       0       0       
      +0       0
 10057 ;;      Locals:         0       0       0       0       0       0       0       0       0       0       0       0       
      +0       0
 10058 ;;      Temps:          0       0       0       0       0       0       0       0       0       0       0       0       
      +0       0
 10059 ;;      Totals:         1       0       0       0       0       0       0       0       0       0       0       0       
      +0       0
 10060 ;;Total ram usage:        1 bytes
 10061 ;; Hardware stack levels used: 1
 10062 ;; Hardware stack levels required when called: 2
 10063 ;; This function calls:
 10064 ;;		_I2C2_SetBuffer
 10065 ;;		_I2C2_SetDataCompleteCallback
 10066 ;; This function is called by:
 10067 ;;		_I2C2_Write1ByteRegister
 10068 ;;		_I2C2_DO_TX
 10069 ;;		_I2C2_DO_RX
 10070 ;;		_I2C2_DO_TX_EMPTY
 10071 ;;		_I2C2_DO_ADDRESS_NACK
 10072 ;;		_I2C2_DO_RX_EMPTY
 10073 ;; This function uses a non-reentrant model
 10074 ;;
 10075                           
 10076                           
 10077                           ;psect for function _wr1RegCompleteHandler
 10078  0F76                     _wr1RegCompleteHandler:
 10079  0F76                     l2448:	
 10080                           ;incstack = 0
 10081                           ; Regs used in _wr1RegCompleteHandler: [wreg+fsr1l+fsr1h+status,2+status,0+pclath+cstack
      +                          ]
 10082                           
 10083                           
 10084                           ;mcc_generated_files/examples/i2c2_master_example.c: 156: static i2c2_operations_t wr1Re
      +                          gCompleteHandler(void *ptr);mcc_generated_files/examples/i2c2_master_example.c: 157: {;m
      +                          cc_generated_files/examples/i2c2_master_example.c: 158:     I2C2_SetBuffer(ptr,1);
 10085  0F76  3001               	movlw	1
 10086  0F77  00F0               	movwf	I2C2_SetBuffer@bufferSize
 10087  0F78  3000               	movlw	0
 10088  0F79  00F1               	movwf	I2C2_SetBuffer@bufferSize+1
 10089  0F7A  0879               	movf	wr1RegCompleteHandler@ptr,w
 10090  0F7B  318F  2723  318F   	fcall	_I2C2_SetBuffer
 10091  0F7E                     l2450:
 10092                           
 10093                           ;mcc_generated_files/examples/i2c2_master_example.c: 159:     I2C2_SetDataCompleteCallba
      +                          ck(((void*)0),((void*)0));
 10094  0F7E  3000               	movlw	0
 10095  0F7F  00F5               	movwf	I2C2_SetDataCompleteCallback@cb
 10096  0F80  00F6               	movwf	I2C2_SetDataCompleteCallback@cb+1
 10097  0F81  01F7               	clrf	I2C2_SetDataCompleteCallback@ptr
 10098  0F82  318E  26EF  318F   	fcall	_I2C2_SetDataCompleteCallback
 10099  0F85                     l2452:
 10100                           
 10101                           ;mcc_generated_files/examples/i2c2_master_example.c: 160:     return I2C2_CONTINUE;
 10102  0F85  3004               	movlw	4
 10103  0F86                     l315:
 10104  0F86  0008               	return
 10105  0F87                     __end_of_wr1RegCompleteHandler:
 10106                           
 10107                           	psect	text60
 10108  0F65                     __ptext60:	
 10109 ;; *************** function _rd2RegCompleteHandler *****************
 10110 ;; Defined at:
 10111 ;;		line 149 in file "mcc_generated_files/examples/i2c2_master_example.c"
 10112 ;; Parameters:    Size  Location     Type
 10113 ;;  ptr             1    9[COMMON] PTR void 
 10114 ;;		 -> I2C2_ReadDataBlock@bufferBlock(3), I2C2_Write2ByteRegister@data(2), I2C2_Write1ByteRegister@data(1), I2C2_Read2B
      +yteRegister@returnValue(2), 
 10115 ;;		 -> NULL(0), I2C2_Read1ByteRegister@returnValue(1), 
 10116 ;; Auto vars:     Size  Location     Type
 10117 ;;		None
 10118 ;; Return value:  Size  Location     Type
 10119 ;;                  1    wreg      enum E360
 10120 ;; Registers used:
 10121 ;;		wreg, fsr1l, fsr1h, status,2, status,0, pclath, cstack
 10122 ;; Tracked objects:
 10123 ;;		On entry : 0/0
 10124 ;;		On exit  : 0/0
 10125 ;;		Unchanged: 0/0
 10126 ;; Data sizes:     COMMON   BANK0   BANK1   BANK2   BANK3   BANK4   BANK5   BANK6   BANK7   BANK8   BANK9  BANK10  BANK1
      +1  BANK12
 10127 ;;      Params:         1       0       0       0       0       0       0       0       0       0       0       0       
      +0       0
 10128 ;;      Locals:         0       0       0       0       0       0       0       0       0       0       0       0       
      +0       0
 10129 ;;      Temps:          0       0       0       0       0       0       0       0       0       0       0       0       
      +0       0
 10130 ;;      Totals:         1       0       0       0       0       0       0       0       0       0       0       0       
      +0       0
 10131 ;;Total ram usage:        1 bytes
 10132 ;; Hardware stack levels used: 1
 10133 ;; Hardware stack levels required when called: 2
 10134 ;; This function calls:
 10135 ;;		_I2C2_SetBuffer
 10136 ;;		_I2C2_SetDataCompleteCallback
 10137 ;; This function is called by:
 10138 ;;		_I2C2_Read2ByteRegister
 10139 ;;		_I2C2_DO_TX
 10140 ;;		_I2C2_DO_RX
 10141 ;;		_I2C2_DO_TX_EMPTY
 10142 ;;		_I2C2_DO_ADDRESS_NACK
 10143 ;;		_I2C2_DO_RX_EMPTY
 10144 ;; This function uses a non-reentrant model
 10145 ;;
 10146                           
 10147                           
 10148                           ;psect for function _rd2RegCompleteHandler
 10149  0F65                     _rd2RegCompleteHandler:
 10150  0F65                     l2440:	
 10151                           ;incstack = 0
 10152                           ; Regs used in _rd2RegCompleteHandler: [wreg+fsr1l+fsr1h+status,2+status,0+pclath+cstack
      +                          ]
 10153                           
 10154                           
 10155                           ;mcc_generated_files/examples/i2c2_master_example.c: 149: static i2c2_operations_t rd2Re
      +                          gCompleteHandler(void *ptr);mcc_generated_files/examples/i2c2_master_example.c: 150: {;m
      +                          cc_generated_files/examples/i2c2_master_example.c: 151:     I2C2_SetBuffer(ptr,2);
 10156  0F65  3002               	movlw	2
 10157  0F66  00F0               	movwf	I2C2_SetBuffer@bufferSize
 10158  0F67  3000               	movlw	0
 10159  0F68  00F1               	movwf	I2C2_SetBuffer@bufferSize+1
 10160  0F69  0879               	movf	rd2RegCompleteHandler@ptr,w
 10161  0F6A  318F  2723  318F   	fcall	_I2C2_SetBuffer
 10162  0F6D                     l2442:
 10163                           
 10164                           ;mcc_generated_files/examples/i2c2_master_example.c: 152:     I2C2_SetDataCompleteCallba
      +                          ck(((void*)0),((void*)0));
 10165  0F6D  3000               	movlw	0
 10166  0F6E  00F5               	movwf	I2C2_SetDataCompleteCallback@cb
 10167  0F6F  00F6               	movwf	I2C2_SetDataCompleteCallback@cb+1
 10168  0F70  01F7               	clrf	I2C2_SetDataCompleteCallback@ptr
 10169  0F71  318E  26EF  318F   	fcall	_I2C2_SetDataCompleteCallback
 10170  0F74                     l2444:
 10171                           
 10172                           ;mcc_generated_files/examples/i2c2_master_example.c: 153:     return I2C2_RESTART_READ;
 10173  0F74  3002               	movlw	2
 10174  0F75                     l312:
 10175  0F75  0008               	return
 10176  0F76                     __end_of_rd2RegCompleteHandler:
 10177                           
 10178                           	psect	text61
 10179  0F54                     __ptext61:	
 10180 ;; *************** function _rd1RegCompleteHandler *****************
 10181 ;; Defined at:
 10182 ;;		line 142 in file "mcc_generated_files/examples/i2c2_master_example.c"
 10183 ;; Parameters:    Size  Location     Type
 10184 ;;  ptr             1    9[COMMON] PTR void 
 10185 ;;		 -> I2C2_ReadDataBlock@bufferBlock(3), I2C2_Write2ByteRegister@data(2), I2C2_Write1ByteRegister@data(1), I2C2_Read2B
      +yteRegister@returnValue(2), 
 10186 ;;		 -> NULL(0), I2C2_Read1ByteRegister@returnValue(1), 
 10187 ;; Auto vars:     Size  Location     Type
 10188 ;;		None
 10189 ;; Return value:  Size  Location     Type
 10190 ;;                  1    wreg      enum E360
 10191 ;; Registers used:
 10192 ;;		wreg, fsr1l, fsr1h, status,2, status,0, pclath, cstack
 10193 ;; Tracked objects:
 10194 ;;		On entry : 0/0
 10195 ;;		On exit  : 0/0
 10196 ;;		Unchanged: 0/0
 10197 ;; Data sizes:     COMMON   BANK0   BANK1   BANK2   BANK3   BANK4   BANK5   BANK6   BANK7   BANK8   BANK9  BANK10  BANK1
      +1  BANK12
 10198 ;;      Params:         1       0       0       0       0       0       0       0       0       0       0       0       
      +0       0
 10199 ;;      Locals:         0       0       0       0       0       0       0       0       0       0       0       0       
      +0       0
 10200 ;;      Temps:          0       0       0       0       0       0       0       0       0       0       0       0       
      +0       0
 10201 ;;      Totals:         1       0       0       0       0       0       0       0       0       0       0       0       
      +0       0
 10202 ;;Total ram usage:        1 bytes
 10203 ;; Hardware stack levels used: 1
 10204 ;; Hardware stack levels required when called: 2
 10205 ;; This function calls:
 10206 ;;		_I2C2_SetBuffer
 10207 ;;		_I2C2_SetDataCompleteCallback
 10208 ;; This function is called by:
 10209 ;;		_I2C2_Read1ByteRegister
 10210 ;;		_I2C2_DO_TX
 10211 ;;		_I2C2_DO_RX
 10212 ;;		_I2C2_DO_TX_EMPTY
 10213 ;;		_I2C2_DO_ADDRESS_NACK
 10214 ;;		_I2C2_DO_RX_EMPTY
 10215 ;; This function uses a non-reentrant model
 10216 ;;
 10217                           
 10218                           
 10219                           ;psect for function _rd1RegCompleteHandler
 10220  0F54                     _rd1RegCompleteHandler:
 10221  0F54                     l2432:	
 10222                           ;incstack = 0
 10223                           ; Regs used in _rd1RegCompleteHandler: [wreg+fsr1l+fsr1h+status,2+status,0+pclath+cstack
      +                          ]
 10224                           
 10225                           
 10226                           ;mcc_generated_files/examples/i2c2_master_example.c: 142: static i2c2_operations_t rd1Re
      +                          gCompleteHandler(void *ptr);mcc_generated_files/examples/i2c2_master_example.c: 143: {;m
      +                          cc_generated_files/examples/i2c2_master_example.c: 144:     I2C2_SetBuffer(ptr,1);
 10227  0F54  3001               	movlw	1
 10228  0F55  00F0               	movwf	I2C2_SetBuffer@bufferSize
 10229  0F56  3000               	movlw	0
 10230  0F57  00F1               	movwf	I2C2_SetBuffer@bufferSize+1
 10231  0F58  0879               	movf	rd1RegCompleteHandler@ptr,w
 10232  0F59  318F  2723  318F   	fcall	_I2C2_SetBuffer
 10233  0F5C                     l2434:
 10234                           
 10235                           ;mcc_generated_files/examples/i2c2_master_example.c: 145:     I2C2_SetDataCompleteCallba
      +                          ck(((void*)0),((void*)0));
 10236  0F5C  3000               	movlw	0
 10237  0F5D  00F5               	movwf	I2C2_SetDataCompleteCallback@cb
 10238  0F5E  00F6               	movwf	I2C2_SetDataCompleteCallback@cb+1
 10239  0F5F  01F7               	clrf	I2C2_SetDataCompleteCallback@ptr
 10240  0F60  318E  26EF  318F   	fcall	_I2C2_SetDataCompleteCallback
 10241  0F63                     l2436:
 10242                           
 10243                           ;mcc_generated_files/examples/i2c2_master_example.c: 146:     return I2C2_RESTART_READ;
 10244  0F63  3002               	movlw	2
 10245  0F64                     l309:
 10246  0F64  0008               	return
 10247  0F65                     __end_of_rd1RegCompleteHandler:
 10248                           
 10249                           	psect	text62
 10250  0F43                     __ptext62:	
 10251 ;; *************** function _wr2RegCompleteHandler *****************
 10252 ;; Defined at:
 10253 ;;		line 163 in file "mcc_generated_files/examples/i2c2_master_example.c"
 10254 ;; Parameters:    Size  Location     Type
 10255 ;;  ptr             1    9[COMMON] PTR void 
 10256 ;;		 -> I2C2_ReadDataBlock@bufferBlock(3), I2C2_Write2ByteRegister@data(2), I2C2_Write1ByteRegister@data(1), I2C2_Read2B
      +yteRegister@returnValue(2), 
 10257 ;;		 -> NULL(0), I2C2_Read1ByteRegister@returnValue(1), 
 10258 ;; Auto vars:     Size  Location     Type
 10259 ;;		None
 10260 ;; Return value:  Size  Location     Type
 10261 ;;                  1    wreg      enum E360
 10262 ;; Registers used:
 10263 ;;		wreg, fsr1l, fsr1h, status,2, status,0, pclath, cstack
 10264 ;; Tracked objects:
 10265 ;;		On entry : 0/0
 10266 ;;		On exit  : 0/0
 10267 ;;		Unchanged: 0/0
 10268 ;; Data sizes:     COMMON   BANK0   BANK1   BANK2   BANK3   BANK4   BANK5   BANK6   BANK7   BANK8   BANK9  BANK10  BANK1
      +1  BANK12
 10269 ;;      Params:         1       0       0       0       0       0       0       0       0       0       0       0       
      +0       0
 10270 ;;      Locals:         0       0       0       0       0       0       0       0       0       0       0       0       
      +0       0
 10271 ;;      Temps:          0       0       0       0       0       0       0       0       0       0       0       0       
      +0       0
 10272 ;;      Totals:         1       0       0       0       0       0       0       0       0       0       0       0       
      +0       0
 10273 ;;Total ram usage:        1 bytes
 10274 ;; Hardware stack levels used: 1
 10275 ;; Hardware stack levels required when called: 2
 10276 ;; This function calls:
 10277 ;;		_I2C2_SetBuffer
 10278 ;;		_I2C2_SetDataCompleteCallback
 10279 ;; This function is called by:
 10280 ;;		_I2C2_Write2ByteRegister
 10281 ;;		_I2C2_DO_TX
 10282 ;;		_I2C2_DO_RX
 10283 ;;		_I2C2_DO_TX_EMPTY
 10284 ;;		_I2C2_DO_ADDRESS_NACK
 10285 ;;		_I2C2_DO_RX_EMPTY
 10286 ;; This function uses a non-reentrant model
 10287 ;;
 10288                           
 10289                           
 10290                           ;psect for function _wr2RegCompleteHandler
 10291  0F43                     _wr2RegCompleteHandler:
 10292  0F43                     l2456:	
 10293                           ;incstack = 0
 10294                           ; Regs used in _wr2RegCompleteHandler: [wreg+fsr1l+fsr1h+status,2+status,0+pclath+cstack
      +                          ]
 10295                           
 10296                           
 10297                           ;mcc_generated_files/examples/i2c2_master_example.c: 163: static i2c2_operations_t wr2Re
      +                          gCompleteHandler(void *ptr);mcc_generated_files/examples/i2c2_master_example.c: 164: {;m
      +                          cc_generated_files/examples/i2c2_master_example.c: 165:     I2C2_SetBuffer(ptr,2);
 10298  0F43  3002               	movlw	2
 10299  0F44  00F0               	movwf	I2C2_SetBuffer@bufferSize
 10300  0F45  3000               	movlw	0
 10301  0F46  00F1               	movwf	I2C2_SetBuffer@bufferSize+1
 10302  0F47  0879               	movf	wr2RegCompleteHandler@ptr,w
 10303  0F48  318F  2723  318F   	fcall	_I2C2_SetBuffer
 10304  0F4B                     l2458:
 10305                           
 10306                           ;mcc_generated_files/examples/i2c2_master_example.c: 166:     I2C2_SetDataCompleteCallba
      +                          ck(((void*)0),((void*)0));
 10307  0F4B  3000               	movlw	0
 10308  0F4C  00F5               	movwf	I2C2_SetDataCompleteCallback@cb
 10309  0F4D  00F6               	movwf	I2C2_SetDataCompleteCallback@cb+1
 10310  0F4E  01F7               	clrf	I2C2_SetDataCompleteCallback@ptr
 10311  0F4F  318E  26EF  318F   	fcall	_I2C2_SetDataCompleteCallback
 10312  0F52                     l2460:
 10313                           
 10314                           ;mcc_generated_files/examples/i2c2_master_example.c: 167:     return I2C2_CONTINUE;
 10315  0F52  3004               	movlw	4
 10316  0F53                     l318:
 10317  0F53  0008               	return
 10318  0F54                     __end_of_wr2RegCompleteHandler:
 10319                           
 10320                           	psect	text63
 10321  0EEF                     __ptext63:	
 10322 ;; *************** function _I2C2_SetDataCompleteCallback *****************
 10323 ;; Defined at:
 10324 ;;		line 273 in file "mcc_generated_files/i2c2_master.c"
 10325 ;; Parameters:    Size  Location     Type
 10326 ;;  cb              2    5[COMMON] PTR FTN(PTR void ,)enum 
 10327 ;;		 -> Absolute function(1), rdBlkRegCompleteHandler(1), wr2RegCompleteHandler(1), wr1RegCompleteHandler(1), 
 10328 ;;		 -> rd2RegCompleteHandler(1), rd1RegCompleteHandler(1), 
 10329 ;;  ptr             1    7[COMMON] PTR void 
 10330 ;;		 -> I2C2_ReadDataBlock@bufferBlock(3), I2C2_Write2ByteRegister@data(2), I2C2_Write1ByteRegister@data(1), I2C2_Read2B
      +yteRegister@returnValue(2), 
 10331 ;;		 -> NULL(0), I2C2_Read1ByteRegister@returnValue(1), 
 10332 ;; Auto vars:     Size  Location     Type
 10333 ;;		None
 10334 ;; Return value:  Size  Location     Type
 10335 ;;                  1    wreg      void 
 10336 ;; Registers used:
 10337 ;;		wreg, fsr1l, fsr1h, status,2, status,0, pclath, cstack
 10338 ;; Tracked objects:
 10339 ;;		On entry : 0/0
 10340 ;;		On exit  : 0/0
 10341 ;;		Unchanged: 0/0
 10342 ;; Data sizes:     COMMON   BANK0   BANK1   BANK2   BANK3   BANK4   BANK5   BANK6   BANK7   BANK8   BANK9  BANK10  BANK1
      +1  BANK12
 10343 ;;      Params:         3       0       0       0       0       0       0       0       0       0       0       0       
      +0       0
 10344 ;;      Locals:         0       0       0       0       0       0       0       0       0       0       0       0       
      +0       0
 10345 ;;      Temps:          1       0       0       0       0       0       0       0       0       0       0       0       
      +0       0
 10346 ;;      Totals:         4       0       0       0       0       0       0       0       0       0       0       0       
      +0       0
 10347 ;;Total ram usage:        4 bytes
 10348 ;; Hardware stack levels used: 1
 10349 ;; Hardware stack levels required when called: 1
 10350 ;; This function calls:
 10351 ;;		_I2C2_SetCallback
 10352 ;; This function is called by:
 10353 ;;		_I2C2_Read1ByteRegister
 10354 ;;		_rd1RegCompleteHandler
 10355 ;;		_rd2RegCompleteHandler
 10356 ;;		_wr1RegCompleteHandler
 10357 ;;		_wr2RegCompleteHandler
 10358 ;;		_rdBlkRegCompleteHandler
 10359 ;;		_I2C2_Read2ByteRegister
 10360 ;;		_I2C2_Write1ByteRegister
 10361 ;;		_I2C2_Write2ByteRegister
 10362 ;;		_I2C2_ReadDataBlock
 10363 ;; This function uses a non-reentrant model
 10364 ;;
 10365                           
 10366                           
 10367                           ;psect for function _I2C2_SetDataCompleteCallback
 10368  0EEF                     _I2C2_SetDataCompleteCallback:
 10369  0EEF                     l2418:	
 10370                           ;incstack = 0
 10371                           ; Regs used in _I2C2_SetDataCompleteCallback: [wreg+fsr1l+fsr1h+status,2+status,0+pclath
      +                          +cstack]
 10372                           
 10373                           
 10374                           ;mcc_generated_files/i2c2_master.c: 273: void I2C2_SetDataCompleteCallback(i2c2_callback
      +                          _t cb, void *ptr);mcc_generated_files/i2c2_master.c: 274: {;mcc_generated_files/i2c2_mas
      +                          ter.c: 275:     I2C2_SetCallback(I2C2_DATA_COMPLETE, cb, ptr);
 10375  0EEF  0876               	movf	I2C2_SetDataCompleteCallback@cb+1,w
 10376  0EF0  00F1               	movwf	I2C2_SetCallback@cb+1
 10377  0EF1  0875               	movf	I2C2_SetDataCompleteCallback@cb,w
 10378  0EF2  00F0               	movwf	I2C2_SetCallback@cb
 10379  0EF3  0877               	movf	I2C2_SetDataCompleteCallback@ptr,w
 10380  0EF4  00F8               	movwf	??_I2C2_SetDataCompleteCallback
 10381  0EF5  0878               	movf	??_I2C2_SetDataCompleteCallback,w
 10382  0EF6  00F2               	movwf	I2C2_SetCallback@ptr
 10383  0EF7  3000               	movlw	0
 10384  0EF8  3180  2073  318E   	fcall	_I2C2_SetCallback
 10385  0EFB                     l456:
 10386  0EFB  0008               	return
 10387  0EFC                     __end_of_I2C2_SetDataCompleteCallback:
 10388                           
 10389                           	psect	text64
 10390  0073                     __ptext64:	
 10391 ;; *************** function _I2C2_SetCallback *****************
 10392 ;; Defined at:
 10393 ;;		line 298 in file "mcc_generated_files/i2c2_master.c"
 10394 ;; Parameters:    Size  Location     Type
 10395 ;;  idx             1    wreg     enum E12101
 10396 ;;  cb              2    0[COMMON] PTR FTN(PTR void ,)enum 
 10397 ;;		 -> Absolute function(1), rdBlkRegCompleteHandler(1), wr2RegCompleteHandler(1), wr1RegCompleteHandler(1), 
 10398 ;;		 -> rd2RegCompleteHandler(1), rd1RegCompleteHandler(1), 
 10399 ;;  ptr             1    2[COMMON] PTR void 
 10400 ;;		 -> I2C2_ReadDataBlock@bufferBlock(3), I2C2_Write2ByteRegister@data(2), I2C2_Write1ByteRegister@data(1), I2C2_Read2B
      +yteRegister@returnValue(2), 
 10401 ;;		 -> NULL(0), I2C2_Read1ByteRegister@returnValue(1), 
 10402 ;; Auto vars:     Size  Location     Type
 10403 ;;  idx             1    4[COMMON] enum E12101
 10404 ;; Return value:  Size  Location     Type
 10405 ;;                  1    wreg      void 
 10406 ;; Registers used:
 10407 ;;		wreg, fsr1l, fsr1h, status,2, status,0
 10408 ;; Tracked objects:
 10409 ;;		On entry : 0/0
 10410 ;;		On exit  : 0/0
 10411 ;;		Unchanged: 0/0
 10412 ;; Data sizes:     COMMON   BANK0   BANK1   BANK2   BANK3   BANK4   BANK5   BANK6   BANK7   BANK8   BANK9  BANK10  BANK1
      +1  BANK12
 10413 ;;      Params:         3       0       0       0       0       0       0       0       0       0       0       0       
      +0       0
 10414 ;;      Locals:         1       0       0       0       0       0       0       0       0       0       0       0       
      +0       0
 10415 ;;      Temps:          1       0       0       0       0       0       0       0       0       0       0       0       
      +0       0
 10416 ;;      Totals:         5       0       0       0       0       0       0       0       0       0       0       0       
      +0       0
 10417 ;;Total ram usage:        5 bytes
 10418 ;; Hardware stack levels used: 1
 10419 ;; This function calls:
 10420 ;;		Nothing
 10421 ;; This function is called by:
 10422 ;;		_I2C2_SetDataCompleteCallback
 10423 ;;		_I2C2_SetAddressNackCallback
 10424 ;;		_I2C2_SetWriteCollisionCallback
 10425 ;;		_I2C2_SetDataNackCallback
 10426 ;;		_I2C2_SetTimeoutCallback
 10427 ;; This function uses a non-reentrant model
 10428 ;;
 10429                           
 10430                           
 10431                           ;psect for function _I2C2_SetCallback
 10432  0073                     _I2C2_SetCallback:
 10433                           
 10434                           ;incstack = 0
 10435                           ; Regs used in _I2C2_SetCallback: [wreg+fsr1l+fsr1h+status,2+status,0]
 10436                           ;I2C2_SetCallback@idx stored from wreg
 10437  0073  00F4               	movwf	I2C2_SetCallback@idx
 10438  0074                     l2410:
 10439                           
 10440                           ;mcc_generated_files/i2c2_master.c: 298: static void I2C2_SetCallback(i2c2_callbackIndex
      +                          _t idx, i2c2_callback_t cb, void *ptr);mcc_generated_files/i2c2_master.c: 299: {;mcc_gen
      +                          erated_files/i2c2_master.c: 300:     if(cb)
 10441  0074  0870               	movf	I2C2_SetCallback@cb,w
 10442  0075  0471               	iorwf	I2C2_SetCallback@cb+1,w
 10443  0076  1903               	btfsc	3,2
 10444  0077  2879               	goto	u951
 10445  0078  287A               	goto	u950
 10446  0079                     u951:
 10447  0079  288B               	goto	l2414
 10448  007A                     u950:
 10449  007A                     l2412:
 10450                           
 10451                           ;mcc_generated_files/i2c2_master.c: 301:     {;mcc_generated_files/i2c2_master.c: 302:  
      +                                 I2C2_Status.callbackTable[idx] = cb;
 10452  007A  3574               	lslf	I2C2_SetCallback@idx,w
 10453  007B  3EA0               	addlw	(low (_I2C2_Status| 0))& (0+255)
 10454  007C  0086               	movwf	6
 10455  007D  0187               	clrf	7
 10456  007E  0870               	movf	I2C2_SetCallback@cb,w
 10457  007F  3FC0               	movwi [0]fsr1
 10458  0080  0871               	movf	I2C2_SetCallback@cb+1,w
 10459  0081  3FC1               	movwi [1]fsr1
 10460                           
 10461                           ;mcc_generated_files/i2c2_master.c: 303:         I2C2_Status.callbackPayload[idx] = ptr;
 10462  0082  0872               	movf	I2C2_SetCallback@ptr,w
 10463  0083  00F3               	movwf	??_I2C2_SetCallback
 10464  0084  0874               	movf	I2C2_SetCallback@idx,w
 10465  0085  3EAC               	addlw	(low ((_I2C2_Status| 0+12)))& (0+255)
 10466  0086  0086               	movwf	6
 10467  0087  0187               	clrf	7
 10468  0088  0873               	movf	??_I2C2_SetCallback,w
 10469  0089  0081               	movwf	1
 10470                           
 10471                           ;mcc_generated_files/i2c2_master.c: 304:     }
 10472  008A  2898               	goto	l473
 10473  008B                     l2414:
 10474                           
 10475                           ;mcc_generated_files/i2c2_master.c: 306:     {;mcc_generated_files/i2c2_master.c: 307:  
      +                                 I2C2_Status.callbackTable[idx] = I2C2_CallbackReturnStop;
 10476  008B  3574               	lslf	I2C2_SetCallback@idx,w
 10477  008C  3EA0               	addlw	(low (_I2C2_Status| 0))& (0+255)
 10478  008D  0086               	movwf	6
 10479  008E  0187               	clrf	7
 10480  008F  3035               	movlw	low _I2C2_CallbackReturnStop
 10481  0090  3FC0               	movwi [0]fsr1
 10482  0091  300E               	movlw	high _I2C2_CallbackReturnStop
 10483  0092  3FC1               	movwi [1]fsr1
 10484                           
 10485                           ;mcc_generated_files/i2c2_master.c: 308:         I2C2_Status.callbackPayload[idx] = ((vo
      +                          id*)0);
 10486  0093  0874               	movf	I2C2_SetCallback@idx,w
 10487  0094  3EAC               	addlw	(low ((_I2C2_Status| 0+12)))& (0+255)
 10488  0095  0086               	movwf	6
 10489  0096  0187               	clrf	7
 10490  0097  0181               	clrf	1
 10491  0098                     l473:
 10492  0098  0008               	return
 10493  0099                     __end_of_I2C2_SetCallback:
 10494                           
 10495                           	psect	text65
 10496  0F23                     __ptext65:	
 10497 ;; *************** function _I2C2_SetBuffer *****************
 10498 ;; Defined at:
 10499 ;;		line 263 in file "mcc_generated_files/i2c2_master.c"
 10500 ;; Parameters:    Size  Location     Type
 10501 ;;  buffer          1    wreg     PTR void 
 10502 ;;		 -> I2C2_ReadDataBlock@reg(1), I2C2_ReadDataBlock@bufferBlock(3), I2C2_Write2ByteRegister@reg(1), I2C2_Write2ByteReg
      +ister@data(2), 
 10503 ;;		 -> I2C2_Write1ByteRegister@reg(1), I2C2_Write1ByteRegister@data(1), I2C2_Read2ByteRegister@reg(1), I2C2_Read2ByteRe
      +gister@returnValue(2), 
 10504 ;;		 -> NULL(0), I2C2_Read1ByteRegister@reg(1), I2C2_Read1ByteRegister@returnValue(1), 
 10505 ;;  bufferSize      2    0[COMMON] unsigned int 
 10506 ;; Auto vars:     Size  Location     Type
 10507 ;;  buffer          1    3[COMMON] PTR void 
 10508 ;;		 -> I2C2_ReadDataBlock@reg(1), I2C2_ReadDataBlock@bufferBlock(3), I2C2_Write2ByteRegister@reg(1), I2C2_Write2ByteReg
      +ister@data(2), 
 10509 ;;		 -> I2C2_Write1ByteRegister@reg(1), I2C2_Write1ByteRegister@data(1), I2C2_Read2ByteRegister@reg(1), I2C2_Read2ByteRe
      +gister@returnValue(2), 
 10510 ;;		 -> NULL(0), I2C2_Read1ByteRegister@reg(1), I2C2_Read1ByteRegister@returnValue(1), 
 10511 ;; Return value:  Size  Location     Type
 10512 ;;                  1    wreg      void 
 10513 ;; Registers used:
 10514 ;;		wreg
 10515 ;; Tracked objects:
 10516 ;;		On entry : 0/0
 10517 ;;		On exit  : 0/0
 10518 ;;		Unchanged: 0/0
 10519 ;; Data sizes:     COMMON   BANK0   BANK1   BANK2   BANK3   BANK4   BANK5   BANK6   BANK7   BANK8   BANK9  BANK10  BANK1
      +1  BANK12
 10520 ;;      Params:         2       0       0       0       0       0       0       0       0       0       0       0       
      +0       0
 10521 ;;      Locals:         1       0       0       0       0       0       0       0       0       0       0       0       
      +0       0
 10522 ;;      Temps:          1       0       0       0       0       0       0       0       0       0       0       0       
      +0       0
 10523 ;;      Totals:         4       0       0       0       0       0       0       0       0       0       0       0       
      +0       0
 10524 ;;Total ram usage:        4 bytes
 10525 ;; Hardware stack levels used: 1
 10526 ;; This function calls:
 10527 ;;		Nothing
 10528 ;; This function is called by:
 10529 ;;		_I2C2_Read1ByteRegister
 10530 ;;		_rd1RegCompleteHandler
 10531 ;;		_rd2RegCompleteHandler
 10532 ;;		_wr1RegCompleteHandler
 10533 ;;		_wr2RegCompleteHandler
 10534 ;;		_rdBlkRegCompleteHandler
 10535 ;;		_I2C2_Read2ByteRegister
 10536 ;;		_I2C2_Write1ByteRegister
 10537 ;;		_I2C2_Write2ByteRegister
 10538 ;;		_I2C2_WriteNBytes
 10539 ;;		_I2C2_ReadNBytes
 10540 ;;		_I2C2_ReadDataBlock
 10541 ;; This function uses a non-reentrant model
 10542 ;;
 10543                           
 10544                           
 10545                           ;psect for function _I2C2_SetBuffer
 10546  0F23                     _I2C2_SetBuffer:
 10547                           
 10548                           ;incstack = 0
 10549                           ; Regs used in _I2C2_SetBuffer: [wreg]
 10550                           ;I2C2_SetBuffer@buffer stored from wreg
 10551  0F23  00F3               	movwf	I2C2_SetBuffer@buffer
 10552  0F24                     l2420:
 10553                           
 10554                           ;mcc_generated_files/i2c2_master.c: 263: void I2C2_SetBuffer(void *buffer, size_t buffer
      +                          Size);mcc_generated_files/i2c2_master.c: 264: {;mcc_generated_files/i2c2_master.c: 265: 
      +                              if(I2C2_Status.bufferFree)
 10555  0F24  0021               	movlb	1	; select bank1
 10556  0F25  1DBC               	btfss	(_I2C2_Status^(0+128)+28),3
 10557  0F26  2F28               	goto	u961
 10558  0F27  2F29               	goto	u960
 10559  0F28                     u961:
 10560  0F28  2F32               	goto	l453
 10561  0F29                     u960:
 10562  0F29                     l2422:
 10563                           
 10564                           ;mcc_generated_files/i2c2_master.c: 266:     {;mcc_generated_files/i2c2_master.c: 267:  
      +                                 I2C2_Status.data_ptr = buffer;
 10565  0F29  0873               	movf	I2C2_SetBuffer@buffer,w
 10566  0F2A  00F2               	movwf	??_I2C2_SetBuffer
 10567  0F2B  0872               	movf	??_I2C2_SetBuffer,w
 10568  0F2C  00B7               	movwf	(low ((_I2C2_Status| 0+23)))^(0+128)
 10569                           
 10570                           ;mcc_generated_files/i2c2_master.c: 268:         I2C2_Status.data_length = bufferSize;
 10571  0F2D  0871               	movf	I2C2_SetBuffer@bufferSize+1,w
 10572  0F2E  00B9               	movwf	((_I2C2_Status+1)^(0+128)+24)
 10573  0F2F  0870               	movf	I2C2_SetBuffer@bufferSize,w
 10574  0F30  00B8               	movwf	(_I2C2_Status^(0+128)+24)
 10575  0F31                     l2424:
 10576                           
 10577                           ;mcc_generated_files/i2c2_master.c: 269:         I2C2_Status.bufferFree = 0;
 10578  0F31  11BC               	bcf	(_I2C2_Status^(0+128)+28),3
 10579  0F32                     l453:
 10580  0F32  0008               	return
 10581  0F33                     __end_of_I2C2_SetBuffer:
 10582                           
 10583                           	psect	text66
 10584  0E48                     __ptext66:	
 10585 ;; *************** function _I2C2_MasterStop *****************
 10586 ;; Defined at:
 10587 ;;		line 593 in file "mcc_generated_files/i2c2_master.c"
 10588 ;; Parameters:    Size  Location     Type
 10589 ;;		None
 10590 ;; Auto vars:     Size  Location     Type
 10591 ;;		None
 10592 ;; Return value:  Size  Location     Type
 10593 ;;                  1    wreg      void 
 10594 ;; Registers used:
 10595 ;;		None
 10596 ;; Tracked objects:
 10597 ;;		On entry : 0/0
 10598 ;;		On exit  : 0/0
 10599 ;;		Unchanged: 0/0
 10600 ;; Data sizes:     COMMON   BANK0   BANK1   BANK2   BANK3   BANK4   BANK5   BANK6   BANK7   BANK8   BANK9  BANK10  BANK1
      +1  BANK12
 10601 ;;      Params:         0       0       0       0       0       0       0       0       0       0       0       0       
      +0       0
 10602 ;;      Locals:         0       0       0       0       0       0       0       0       0       0       0       0       
      +0       0
 10603 ;;      Temps:          0       0       0       0       0       0       0       0       0       0       0       0       
      +0       0
 10604 ;;      Totals:         0       0       0       0       0       0       0       0       0       0       0       0       
      +0       0
 10605 ;;Total ram usage:        0 bytes
 10606 ;; Hardware stack levels used: 1
 10607 ;; This function calls:
 10608 ;;		Nothing
 10609 ;; This function is called by:
 10610 ;;		_I2C2_DO_SEND_STOP
 10611 ;; This function uses a non-reentrant model
 10612 ;;
 10613                           
 10614                           
 10615                           ;psect for function _I2C2_MasterStop
 10616  0E48                     _I2C2_MasterStop:
 10617  0E48                     l2428:	
 10618                           ;incstack = 0
 10619                           ; Regs used in _I2C2_MasterStop: []
 10620                           
 10621                           
 10622                           ;mcc_generated_files/i2c2_master.c: 595:     SSP2CON2bits.PEN = 1;
 10623  0E48  0023               	movlb	3	; select bank3
 10624  0E49  151B               	bsf	27,2	;volatile
 10625  0E4A                     l619:
 10626  0E4A  0008               	return
 10627  0E4B                     __end_of_I2C2_MasterStop:
 10628                           
 10629                           	psect	text67
 10630  0E45                     __ptext67:	
 10631 ;; *************** function _I2C2_MasterEnableRestart *****************
 10632 ;; Defined at:
 10633 ;;		line 573 in file "mcc_generated_files/i2c2_master.c"
 10634 ;; Parameters:    Size  Location     Type
 10635 ;;		None
 10636 ;; Auto vars:     Size  Location     Type
 10637 ;;		None
 10638 ;; Return value:  Size  Location     Type
 10639 ;;                  1    wreg      void 
 10640 ;; Registers used:
 10641 ;;		None
 10642 ;; Tracked objects:
 10643 ;;		On entry : 0/0
 10644 ;;		On exit  : 0/0
 10645 ;;		Unchanged: 0/0
 10646 ;; Data sizes:     COMMON   BANK0   BANK1   BANK2   BANK3   BANK4   BANK5   BANK6   BANK7   BANK8   BANK9  BANK10  BANK1
      +1  BANK12
 10647 ;;      Params:         0       0       0       0       0       0       0       0       0       0       0       0       
      +0       0
 10648 ;;      Locals:         0       0       0       0       0       0       0       0       0       0       0       0       
      +0       0
 10649 ;;      Temps:          0       0       0       0       0       0       0       0       0       0       0       0       
      +0       0
 10650 ;;      Totals:         0       0       0       0       0       0       0       0       0       0       0       0       
      +0       0
 10651 ;;Total ram usage:        0 bytes
 10652 ;; Hardware stack levels used: 1
 10653 ;; This function calls:
 10654 ;;		Nothing
 10655 ;; This function is called by:
 10656 ;;		_I2C2_DO_SEND_RESTART_READ
 10657 ;;		_I2C2_DO_SEND_RESTART_WRITE
 10658 ;;		_I2C2_DO_SEND_RESTART
 10659 ;;		_I2C2_DO_RX_EMPTY
 10660 ;; This function uses a non-reentrant model
 10661 ;;
 10662                           
 10663                           
 10664                           ;psect for function _I2C2_MasterEnableRestart
 10665  0E45                     _I2C2_MasterEnableRestart:
 10666  0E45                     l2426:	
 10667                           ;incstack = 0
 10668                           ; Regs used in _I2C2_MasterEnableRestart: []
 10669                           
 10670                           
 10671                           ;mcc_generated_files/i2c2_master.c: 575:     SSP2CON2bits.RSEN = 1;
 10672  0E45  0023               	movlb	3	; select bank3
 10673  0E46  149B               	bsf	27,1	;volatile
 10674  0E47                     l607:
 10675  0E47  0008               	return
 10676  0E48                     __end_of_I2C2_MasterEnableRestart:
 10677                           
 10678                           	psect	text68
 10679  0E42                     __ptext68:	
 10680 ;; *************** function _I2C2_MasterStart *****************
 10681 ;; Defined at:
 10682 ;;		line 588 in file "mcc_generated_files/i2c2_master.c"
 10683 ;; Parameters:    Size  Location     Type
 10684 ;;		None
 10685 ;; Auto vars:     Size  Location     Type
 10686 ;;		None
 10687 ;; Return value:  Size  Location     Type
 10688 ;;                  1    wreg      void 
 10689 ;; Registers used:
 10690 ;;		None
 10691 ;; Tracked objects:
 10692 ;;		On entry : 0/0
 10693 ;;		On exit  : 0/0
 10694 ;;		Unchanged: 0/0
 10695 ;; Data sizes:     COMMON   BANK0   BANK1   BANK2   BANK3   BANK4   BANK5   BANK6   BANK7   BANK8   BANK9  BANK10  BANK1
      +1  BANK12
 10696 ;;      Params:         0       0       0       0       0       0       0       0       0       0       0       0       
      +0       0
 10697 ;;      Locals:         0       0       0       0       0       0       0       0       0       0       0       0       
      +0       0
 10698 ;;      Temps:          0       0       0       0       0       0       0       0       0       0       0       0       
      +0       0
 10699 ;;      Totals:         0       0       0       0       0       0       0       0       0       0       0       0       
      +0       0
 10700 ;;Total ram usage:        0 bytes
 10701 ;; Hardware stack levels used: 1
 10702 ;; This function calls:
 10703 ;;		Nothing
 10704 ;; This function is called by:
 10705 ;;		_I2C2_MasterOperation
 10706 ;; This function uses a non-reentrant model
 10707 ;;
 10708                           
 10709                           
 10710                           ;psect for function _I2C2_MasterStart
 10711  0E42                     _I2C2_MasterStart:
 10712  0E42                     l2828:	
 10713                           ;incstack = 0
 10714                           ; Regs used in _I2C2_MasterStart: []
 10715                           
 10716                           
 10717                           ;mcc_generated_files/i2c2_master.c: 590:     SSP2CON2bits.SEN = 1;
 10718  0E42  0023               	movlb	3	; select bank3
 10719  0E43  141B               	bsf	27,0	;volatile
 10720  0E44                     l616:
 10721  0E44  0008               	return
 10722  0E45                     __end_of_I2C2_MasterStart:
 10723                           
 10724                           	psect	text69
 10725  0FE4                     __ptext69:	
 10726 ;; *************** function _I2C2_Close *****************
 10727 ;; Defined at:
 10728 ;;		line 209 in file "mcc_generated_files/i2c2_master.c"
 10729 ;; Parameters:    Size  Location     Type
 10730 ;;		None
 10731 ;; Auto vars:     Size  Location     Type
 10732 ;;  returnValue     1    1[COMMON] enum E355
 10733 ;; Return value:  Size  Location     Type
 10734 ;;                  1    wreg      enum E355
 10735 ;; Registers used:
 10736 ;;		wreg, status,2, status,0, pclath, cstack
 10737 ;; Tracked objects:
 10738 ;;		On entry : 0/0
 10739 ;;		On exit  : 0/0
 10740 ;;		Unchanged: 0/0
 10741 ;; Data sizes:     COMMON   BANK0   BANK1   BANK2   BANK3   BANK4   BANK5   BANK6   BANK7   BANK8   BANK9  BANK10  BANK1
      +1  BANK12
 10742 ;;      Params:         0       0       0       0       0       0       0       0       0       0       0       0       
      +0       0
 10743 ;;      Locals:         1       0       0       0       0       0       0       0       0       0       0       0       
      +0       0
 10744 ;;      Temps:          1       0       0       0       0       0       0       0       0       0       0       0       
      +0       0
 10745 ;;      Totals:         2       0       0       0       0       0       0       0       0       0       0       0       
      +0       0
 10746 ;;Total ram usage:        2 bytes
 10747 ;; Hardware stack levels used: 1
 10748 ;; Hardware stack levels required when called: 1
 10749 ;; This function calls:
 10750 ;;		_I2C2_MasterClearIrq
 10751 ;;		_I2C2_MasterClose
 10752 ;;		_I2C2_MasterDisableIrq
 10753 ;; This function is called by:
 10754 ;;		_I2C2_Read1ByteRegister
 10755 ;;		_I2C2_Read2ByteRegister
 10756 ;;		_I2C2_Write1ByteRegister
 10757 ;;		_I2C2_Write2ByteRegister
 10758 ;;		_I2C2_WriteNBytes
 10759 ;;		_I2C2_ReadNBytes
 10760 ;;		_I2C2_ReadDataBlock
 10761 ;; This function uses a non-reentrant model
 10762 ;;
 10763                           
 10764                           
 10765                           ;psect for function _I2C2_Close
 10766  0FE4                     _I2C2_Close:
 10767  0FE4                     l3088:	
 10768                           ;incstack = 0
 10769                           ; Regs used in _I2C2_Close: [wreg+status,2+status,0+pclath+cstack]
 10770                           
 10771                           
 10772                           ;mcc_generated_files/i2c2_master.c: 211:     i2c2_error_t returnValue = I2C2_BUSY;
 10773  0FE4  01F1               	clrf	I2C2_Close@returnValue
 10774  0FE5  0AF1               	incf	I2C2_Close@returnValue,f
 10775                           
 10776                           ;mcc_generated_files/i2c2_master.c: 212:     if(!I2C2_Status.busy)
 10777  0FE6  0021               	movlb	1	; select bank1
 10778  0FE7  18BC               	btfsc	(_I2C2_Status^(0+128)+28),1
 10779  0FE8  2FEA               	goto	u1601
 10780  0FE9  2FEB               	goto	u1600
 10781  0FEA                     u1601:
 10782  0FEA  2FFE               	goto	l3102
 10783  0FEB                     u1600:
 10784  0FEB                     l3090:
 10785                           
 10786                           ;mcc_generated_files/i2c2_master.c: 213:     {;mcc_generated_files/i2c2_master.c: 214:  
      +                                 I2C2_Status.inUse = 0;
 10787  0FEB  113C               	bcf	(_I2C2_Status^(0+128)+28),2
 10788  0FEC                     l3092:
 10789                           
 10790                           ;mcc_generated_files/i2c2_master.c: 215:         I2C2_Status.address = 0xff;
 10791  0FEC  30FF               	movlw	255
 10792  0FED  00F0               	movwf	??_I2C2_Close
 10793  0FEE  0870               	movf	??_I2C2_Close,w
 10794  0FEF  00B6               	movwf	(_I2C2_Status^(0+128)+22)
 10795  0FF0                     l3094:
 10796                           
 10797                           ;mcc_generated_files/i2c2_master.c: 216:         I2C2_MasterClearIrq();
 10798  0FF0  318E  2639  318F   	fcall	_I2C2_MasterClearIrq
 10799  0FF3                     l3096:
 10800                           
 10801                           ;mcc_generated_files/i2c2_master.c: 217:         I2C2_MasterDisableIrq();
 10802  0FF3  318E  263F  318F   	fcall	_I2C2_MasterDisableIrq
 10803  0FF6                     l3098:
 10804                           
 10805                           ;mcc_generated_files/i2c2_master.c: 218:         I2C2_MasterClose();
 10806  0FF6  318E  263C  318F   	fcall	_I2C2_MasterClose
 10807  0FF9                     l3100:
 10808                           
 10809                           ;mcc_generated_files/i2c2_master.c: 219:         returnValue = I2C2_Status.error;
 10810  0FF9  0021               	movlb	1	; select bank1
 10811  0FFA  083B               	movf	(_I2C2_Status^(0+128)+27),w
 10812  0FFB  00F0               	movwf	??_I2C2_Close
 10813  0FFC  0870               	movf	??_I2C2_Close,w
 10814  0FFD  00F1               	movwf	I2C2_Close@returnValue
 10815  0FFE                     l3102:
 10816                           
 10817                           ;mcc_generated_files/i2c2_master.c: 221:     return returnValue;
 10818  0FFE  0871               	movf	I2C2_Close@returnValue,w
 10819  0FFF                     l434:
 10820  0FFF  0008               	return
 10821  1000                     __end_of_I2C2_Close:
 10822                           
 10823                           	psect	text70
 10824  0E3F                     __ptext70:	
 10825 ;; *************** function _I2C2_MasterDisableIrq *****************
 10826 ;; Defined at:
 10827 ;;		line 635 in file "mcc_generated_files/i2c2_master.c"
 10828 ;; Parameters:    Size  Location     Type
 10829 ;;		None
 10830 ;; Auto vars:     Size  Location     Type
 10831 ;;		None
 10832 ;; Return value:  Size  Location     Type
 10833 ;;                  1    wreg      void 
 10834 ;; Registers used:
 10835 ;;		None
 10836 ;; Tracked objects:
 10837 ;;		On entry : 0/0
 10838 ;;		On exit  : 0/0
 10839 ;;		Unchanged: 0/0
 10840 ;; Data sizes:     COMMON   BANK0   BANK1   BANK2   BANK3   BANK4   BANK5   BANK6   BANK7   BANK8   BANK9  BANK10  BANK1
      +1  BANK12
 10841 ;;      Params:         0       0       0       0       0       0       0       0       0       0       0       0       
      +0       0
 10842 ;;      Locals:         0       0       0       0       0       0       0       0       0       0       0       0       
      +0       0
 10843 ;;      Temps:          0       0       0       0       0       0       0       0       0       0       0       0       
      +0       0
 10844 ;;      Totals:         0       0       0       0       0       0       0       0       0       0       0       0       
      +0       0
 10845 ;;Total ram usage:        0 bytes
 10846 ;; Hardware stack levels used: 1
 10847 ;; This function calls:
 10848 ;;		Nothing
 10849 ;; This function is called by:
 10850 ;;		_I2C2_Close
 10851 ;;		_I2C2_SetTimeOut
 10852 ;; This function uses a non-reentrant model
 10853 ;;
 10854                           
 10855                           
 10856                           ;psect for function _I2C2_MasterDisableIrq
 10857  0E3F                     _I2C2_MasterDisableIrq:
 10858  0E3F                     l2914:	
 10859                           ;incstack = 0
 10860                           ; Regs used in _I2C2_MasterDisableIrq: []
 10861                           
 10862                           
 10863                           ;mcc_generated_files/i2c2_master.c: 637:     PIE3bits.SSP2IE = 0;
 10864  0E3F  002E               	movlb	14	; select bank14
 10865  0E40  1119               	bcf	25,2	;volatile
 10866  0E41                     l643:
 10867  0E41  0008               	return
 10868  0E42                     __end_of_I2C2_MasterDisableIrq:
 10869                           
 10870                           	psect	text71
 10871  0E3C                     __ptext71:	
 10872 ;; *************** function _I2C2_MasterClose *****************
 10873 ;; Defined at:
 10874 ;;		line 557 in file "mcc_generated_files/i2c2_master.c"
 10875 ;; Parameters:    Size  Location     Type
 10876 ;;		None
 10877 ;; Auto vars:     Size  Location     Type
 10878 ;;		None
 10879 ;; Return value:  Size  Location     Type
 10880 ;;                  1    wreg      void 
 10881 ;; Registers used:
 10882 ;;		None
 10883 ;; Tracked objects:
 10884 ;;		On entry : 0/0
 10885 ;;		On exit  : 0/0
 10886 ;;		Unchanged: 0/0
 10887 ;; Data sizes:     COMMON   BANK0   BANK1   BANK2   BANK3   BANK4   BANK5   BANK6   BANK7   BANK8   BANK9  BANK10  BANK1
      +1  BANK12
 10888 ;;      Params:         0       0       0       0       0       0       0       0       0       0       0       0       
      +0       0
 10889 ;;      Locals:         0       0       0       0       0       0       0       0       0       0       0       0       
      +0       0
 10890 ;;      Temps:          0       0       0       0       0       0       0       0       0       0       0       0       
      +0       0
 10891 ;;      Totals:         0       0       0       0       0       0       0       0       0       0       0       0       
      +0       0
 10892 ;;Total ram usage:        0 bytes
 10893 ;; Hardware stack levels used: 1
 10894 ;; This function calls:
 10895 ;;		Nothing
 10896 ;; This function is called by:
 10897 ;;		_I2C2_Close
 10898 ;; This function uses a non-reentrant model
 10899 ;;
 10900                           
 10901                           
 10902                           ;psect for function _I2C2_MasterClose
 10903  0E3C                     _I2C2_MasterClose:
 10904  0E3C                     l2916:	
 10905                           ;incstack = 0
 10906                           ; Regs used in _I2C2_MasterClose: []
 10907                           
 10908                           
 10909                           ;mcc_generated_files/i2c2_master.c: 560:     SSP2CON1bits.SSPEN = 0;
 10910  0E3C  0023               	movlb	3	; select bank3
 10911  0E3D  129A               	bcf	26,5	;volatile
 10912  0E3E                     l598:
 10913  0E3E  0008               	return
 10914  0E3F                     __end_of_I2C2_MasterClose:
 10915                           
 10916                           	psect	text72
 10917  0E39                     __ptext72:	
 10918 ;; *************** function _I2C2_MasterClearIrq *****************
 10919 ;; Defined at:
 10920 ;;		line 640 in file "mcc_generated_files/i2c2_master.c"
 10921 ;; Parameters:    Size  Location     Type
 10922 ;;		None
 10923 ;; Auto vars:     Size  Location     Type
 10924 ;;		None
 10925 ;; Return value:  Size  Location     Type
 10926 ;;                  1    wreg      void 
 10927 ;; Registers used:
 10928 ;;		None
 10929 ;; Tracked objects:
 10930 ;;		On entry : 0/0
 10931 ;;		On exit  : 0/0
 10932 ;;		Unchanged: 0/0
 10933 ;; Data sizes:     COMMON   BANK0   BANK1   BANK2   BANK3   BANK4   BANK5   BANK6   BANK7   BANK8   BANK9  BANK10  BANK1
      +1  BANK12
 10934 ;;      Params:         0       0       0       0       0       0       0       0       0       0       0       0       
      +0       0
 10935 ;;      Locals:         0       0       0       0       0       0       0       0       0       0       0       0       
      +0       0
 10936 ;;      Temps:          0       0       0       0       0       0       0       0       0       0       0       0       
      +0       0
 10937 ;;      Totals:         0       0       0       0       0       0       0       0       0       0       0       0       
      +0       0
 10938 ;;Total ram usage:        0 bytes
 10939 ;; Hardware stack levels used: 1
 10940 ;; This function calls:
 10941 ;;		Nothing
 10942 ;; This function is called by:
 10943 ;;		_I2C2_Open
 10944 ;;		_I2C2_Close
 10945 ;;		_I2C2_MasterFsm
 10946 ;; This function uses a non-reentrant model
 10947 ;;
 10948                           
 10949                           
 10950                           ;psect for function _I2C2_MasterClearIrq
 10951  0E39                     _I2C2_MasterClearIrq:
 10952  0E39                     l2544:	
 10953                           ;incstack = 0
 10954                           ; Regs used in _I2C2_MasterClearIrq: []
 10955                           
 10956                           
 10957                           ;mcc_generated_files/i2c2_master.c: 642:     PIR3bits.SSP2IF = 0;
 10958  0E39  002E               	movlb	14	; select bank14
 10959  0E3A  110F               	bcf	15,2	;volatile
 10960  0E3B                     l646:
 10961  0E3B  0008               	return
 10962  0E3C                     __end_of_I2C2_MasterClearIrq:
 10963  007E                     btemp	set	126	;btemp
 10964  007E                     wtemp0	set	126
 10965                           
 10966                           	psect	config
 10967                           
 10968                           ;Config register CONFIG1 @ 0x8007
 10969                           ;	External Oscillator mode selection bits
 10970                           ;	FEXTOSC = OFF, Oscillator not enabled
 10971                           ;	Power-up default value for COSC bits
 10972                           ;	RSTOSC = HFINT1, HFINTOSC (1MHz)
 10973                           ;	Clock Out Enable bit
 10974                           ;	CLKOUTEN = OFF, CLKOUT function is disabled; i/o or oscillator function on OSC2
 10975                           ;	Clock Switch Enable bit
 10976                           ;	CSWEN = ON, Writing to NOSC and NDIV is allowed
 10977                           ;	Fail-Safe Clock Monitor Enable bit
 10978                           ;	FCMEN = ON, FSCM timer enabled
 10979  8007                     	org	32775
 10980  8007  3FEC               	dw	16364
 10981                           
 10982                           ;Config register CONFIG2 @ 0x8008
 10983                           ;	Master Clear Enable bit
 10984                           ;	MCLRE = ON, MCLR pin is Master Clear function
 10985                           ;	Power-up Timer Enable bit
 10986                           ;	PWRTE = OFF, PWRT disabled
 10987                           ;	Low-Power BOR enable bit
 10988                           ;	LPBOREN = OFF, ULPBOR disabled
 10989                           ;	Brown-out reset enable bits
 10990                           ;	BOREN = ON, Brown-out Reset Enabled, SBOREN bit is ignored
 10991                           ;	Brown-out Reset Voltage Selection
 10992                           ;	BORV = LO, Brown-out Reset Voltage (VBOR) set to 1.9V on LF, and 2.45V on F Devices
 10993                           ;	Zero-cross detect disable
 10994                           ;	ZCD = OFF, Zero-cross detect circuit is disabled at POR.
 10995                           ;	Peripheral Pin Select one-way control
 10996                           ;	PPS1WAY = ON, The PPSLOCK bit can be cleared and set only once in software
 10997                           ;	Stack Overflow/Underflow Reset Enable bit
 10998                           ;	STVREN = ON, Stack Overflow or Underflow will cause a reset
 10999                           ;	Background Debugger
 11000                           ;	DEBUG = OFF, Background Debugger disabled
 11001  8008                     	org	32776
 11002  8008  3FFF               	dw	16383
 11003                           
 11004                           ;Config register CONFIG3 @ 0x8009
 11005                           ;	WDT Period Select bits
 11006                           ;	WDTCPS = WDTCPS_31, Divider ratio 1:65536; software control of WDTPS
 11007                           ;	WDT operating mode
 11008                           ;	WDTE = OFF, WDT Disabled, SWDTEN is ignored
 11009                           ;	WDT Window Select bits
 11010                           ;	WDTCWS = WDTCWS_7, window always open (100%); software control; keyed access not requi
      +                          red
 11011                           ;	WDT input clock selector
 11012                           ;	WDTCCS = SC, Software Control
 11013  8009                     	org	32777
 11014  8009  3F9F               	dw	16287
 11015                           
 11016                           ;Config register CONFIG4 @ 0x800A
 11017                           ;	UserNVM self-write protection bits
 11018                           ;	WRT = OFF, Write protection off
 11019                           ;	Scanner Enable bit
 11020                           ;	SCANE = available, Scanner module is available for use
 11021                           ;	Low Voltage Programming Enable bit
 11022                           ;	LVP = ON, Low Voltage programming enabled. MCLR/Vpp pin function is MCLR.
 11023  800A                     	org	32778
 11024  800A  3FFF               	dw	16383
 11025                           
 11026                           ;Config register CONFIG5 @ 0x800B
 11027                           ;	UserNVM Program memory code protection bit
 11028                           ;	CP = OFF, Program Memory code protection disabled
 11029                           ;	DataNVM code protection bit
 11030                           ;	CPD = OFF, Data EEPROM code protection disabled
 11031  800B                     	org	32779
 11032  800B  3FFF               	dw	16383

Data Sizes:
    Strings     80
    Constant    32
    Data        0
    BSS         70
    Persistent  38
    Stack       0

Auto Spaces:
    Space          Size  Autos    Used
    COMMON           14     14      14
    BANK0            80     80      80
    BANK1            80      4      80
    BANK2            80      0       0
    BANK3            80      0       0
    BANK4            80      0       0
    BANK5            80      0       0
    BANK6            80      0       0
    BANK7            80      0       0
    BANK8            80      0       0
    BANK9            80      0       0
    BANK10           80      0       0
    BANK11           80      0       0
    BANK12           48      0       0

Pointer List with Targets:

    I2C2_Read1ByteRegister@returnValue.data	PTR unsigned char  size(1) Largest target is 0

    I2C2_Read2ByteRegister@returnValue.data	PTR unsigned char  size(1) Largest target is 0

    I2C2_Write1ByteRegister@data.data	PTR unsigned char  size(1) Largest target is 0

    I2C2_Write2ByteRegister@data.data	PTR unsigned char  size(1) Largest target is 0

    I2C2_DO_TX$2019$0	PTR void  size(1) Largest target is 4
		 -> I2C2_ReadDataBlock@bufferBlock(COMMON[3]), I2C2_Write2ByteRegister@data(COMMON[2]), I2C2_Write1ByteRegister@data(COMMON[1]), I2C2_Read2ByteRegister@returnValue(COMMON[2]), 
		 -> NULL(NULL[0]), I2C2_Read1ByteRegister@returnValue(BANK0[1]), 

    I2C2_DO_TX$2024	PTR void  size(1) Largest target is 4
		 -> I2C2_ReadDataBlock@bufferBlock(COMMON[3]), I2C2_Write2ByteRegister@data(COMMON[2]), I2C2_Write1ByteRegister@data(COMMON[1]), I2C2_Read2ByteRegister@returnValue(COMMON[2]), 
		 -> NULL(NULL[0]), I2C2_Read1ByteRegister@returnValue(BANK0[1]), 

    I2C2_DO_TX$2019	PTR FTN(PTR void ,)enum E360 size(2) Largest target is 1
		 -> I2C2_CallbackReturnReset(), I2C2_CallbackReturnStop(), Absolute function(), rdBlkRegCompleteHandler(), 
		 -> wr2RegCompleteHandler(), wr1RegCompleteHandler(), rd2RegCompleteHandler(), rd1RegCompleteHandler(), 

    I2C2_MasterFsm$2018	const PTR FTN()enum E12083 size(2) Largest target is 1
		 -> I2C2_DO_ADDRESS_NACK(), I2C2_DO_RESET(), I2C2_DO_RX_NACK_RESTART(), I2C2_DO_RX_NACK_STOP(), 
		 -> I2C2_DO_RX_ACK(), I2C2_DO_SEND_STOP(), I2C2_DO_SEND_RESTART(), I2C2_DO_SEND_RESTART_WRITE(), 
		 -> I2C2_DO_SEND_RESTART_READ(), I2C2_DO_TX_EMPTY(), I2C2_DO_RCEN(), I2C2_DO_RX(), 
		 -> I2C2_DO_TX(), I2C2_DO_SEND_ADR_WRITE(), I2C2_DO_SEND_ADR_READ(), I2C2_DO_IDLE(), 

    I2C2_CallbackReturnStop@funPtr	PTR void  size(1) Largest target is 4
		 -> I2C2_ReadDataBlock@bufferBlock(COMMON[3]), I2C2_Write2ByteRegister@data(COMMON[2]), I2C2_Write1ByteRegister@data(COMMON[1]), I2C2_Read2ByteRegister@returnValue(COMMON[2]), 
		 -> NULL(NULL[0]), I2C2_Read1ByteRegister@returnValue(BANK0[1]), 

    I2C2_CallbackReturnReset@funPtr	PTR void  size(1) Largest target is 4
		 -> I2C2_ReadDataBlock@bufferBlock(COMMON[3]), I2C2_Write2ByteRegister@data(COMMON[2]), I2C2_Write1ByteRegister@data(COMMON[1]), I2C2_Read2ByteRegister@returnValue(COMMON[2]), 
		 -> NULL(NULL[0]), I2C2_Read1ByteRegister@returnValue(BANK0[1]), 

    cb$0	PTR void  size(1) Largest target is 4
		 -> I2C2_ReadDataBlock@bufferBlock(COMMON[3]), I2C2_Write2ByteRegister@data(COMMON[2]), I2C2_Write1ByteRegister@data(COMMON[1]), I2C2_Read2ByteRegister@returnValue(COMMON[2]), 
		 -> NULL(NULL[0]), I2C2_Read1ByteRegister@returnValue(BANK0[1]), 

    Absolute function$0	PTR void  size(1) Largest target is 4
		 -> I2C2_ReadDataBlock@bufferBlock(COMMON[3]), I2C2_Write2ByteRegister@data(COMMON[2]), I2C2_Write1ByteRegister@data(COMMON[1]), I2C2_Read2ByteRegister@returnValue(COMMON[2]), 
		 -> NULL(NULL[0]), I2C2_Read1ByteRegister@returnValue(BANK0[1]), 

    cb$0	PTR void  size(1) Largest target is 4
		 -> I2C2_ReadDataBlock@bufferBlock(COMMON[3]), I2C2_Write2ByteRegister@data(COMMON[2]), I2C2_Write1ByteRegister@data(COMMON[1]), I2C2_Read2ByteRegister@returnValue(COMMON[2]), 
		 -> NULL(NULL[0]), I2C2_Read1ByteRegister@returnValue(BANK0[1]), 

    S532$0$0	PTR void  size(1) Largest target is 4
		 -> I2C2_ReadDataBlock@bufferBlock(COMMON[3]), I2C2_Write2ByteRegister@data(COMMON[2]), I2C2_Write1ByteRegister@data(COMMON[1]), I2C2_Read2ByteRegister@returnValue(COMMON[2]), 
		 -> NULL(NULL[0]), I2C2_Read1ByteRegister@returnValue(BANK0[1]), 

    strlen@s	PTR const unsigned char  size(1) Largest target is 32
		 -> dbuf(BANK1[32]), 

    strlen@a	PTR const unsigned char  size(1) Largest target is 32
		 -> dbuf(BANK1[32]), 

    fputs@s	PTR const unsigned char  size(1) Largest target is 32
		 -> dbuf(BANK1[32]), 

    fputs@fp	PTR struct _IO_FILE size(1) Largest target is 0
		 -> NULL(NULL[0]), 

    S1661_IO_FILE$buffer	PTR unsigned char  size(1) Largest target is 0

    fputc@fp.buffer	PTR unsigned char  size(1) Largest target is 0

    fputc@fp	PTR struct _IO_FILE size(1) Largest target is 0
		 -> NULL(NULL[0]), 

    vfprintf@ap	PTR PTR void  size(1) Largest target is 1
		 -> printf@ap(BANK0[1]), 

    vfprintf@fp	PTR struct _IO_FILE size(1) Largest target is 0
		 -> NULL(NULL[0]), 

    vfprintf@fmt	PTR const unsigned char  size(2) Largest target is 48
		 -> STR_2(CODE[48]), STR_1(CODE[32]), 

    vfprintf@cfmt	PTR unsigned char  size(2) Largest target is 48
		 -> STR_2(CODE[48]), STR_1(CODE[32]), 

    vfpfcnvrt@fp	PTR struct _IO_FILE size(1) Largest target is 0
		 -> NULL(NULL[0]), 

    vfpfcnvrt@ap	PTR PTR void  size(1) Largest target is 1
		 -> printf@ap(BANK0[1]), 

    vfpfcnvrt@fmt	PTR PTR unsigned char  size(1) Largest target is 2
		 -> vfprintf@cfmt(BANK0[2]), 

    dtoa@fp	PTR struct _IO_FILE size(1) Largest target is 0
		 -> NULL(NULL[0]), 

    pad@fp	PTR struct _IO_FILE size(1) Largest target is 0
		 -> NULL(NULL[0]), 

    pad@buf	PTR unsigned char  size(1) Largest target is 32
		 -> dbuf(BANK1[32]), 

    printf@fmt	PTR const unsigned char  size(2) Largest target is 48
		 -> STR_2(CODE[48]), STR_1(CODE[32]), 

    printf@ap	PTR void [1] size(1) Largest target is 2
		 -> ?_printf(BANK0[2]), 

    I2C2_SetCallback@ptr	PTR void  size(1) Largest target is 4
		 -> I2C2_ReadDataBlock@bufferBlock(COMMON[3]), I2C2_Write2ByteRegister@data(COMMON[2]), I2C2_Write1ByteRegister@data(COMMON[1]), I2C2_Read2ByteRegister@returnValue(COMMON[2]), 
		 -> NULL(NULL[0]), I2C2_Read1ByteRegister@returnValue(BANK0[1]), 

    I2C2_SetCallback@cb	PTR FTN(PTR void ,)enum E360 size(2) Largest target is 1
		 -> Absolute function(), rdBlkRegCompleteHandler(), wr2RegCompleteHandler(), wr1RegCompleteHandler(), 
		 -> rd2RegCompleteHandler(), rd1RegCompleteHandler(), 

    I2C2_SetAddressNackCallback@ptr	PTR void  size(1) Largest target is 0
		 -> NULL(NULL[0]), 

    I2C2_SetAddressNackCallback@cb	PTR FTN(PTR void ,)enum E360 size(2) Largest target is 1
		 -> Absolute function(), 

    I2C2_SetDataCompleteCallback@ptr	PTR void  size(1) Largest target is 4
		 -> I2C2_ReadDataBlock@bufferBlock(COMMON[3]), I2C2_Write2ByteRegister@data(COMMON[2]), I2C2_Write1ByteRegister@data(COMMON[1]), I2C2_Read2ByteRegister@returnValue(COMMON[2]), 
		 -> NULL(NULL[0]), I2C2_Read1ByteRegister@returnValue(BANK0[1]), 

    I2C2_SetDataCompleteCallback@cb	PTR FTN(PTR void ,)enum E360 size(2) Largest target is 1
		 -> Absolute function(), rdBlkRegCompleteHandler(), wr2RegCompleteHandler(), wr1RegCompleteHandler(), 
		 -> rd2RegCompleteHandler(), rd1RegCompleteHandler(), 

    I2C2_SetBuffer@buffer	PTR void  size(1) Largest target is 4
		 -> I2C2_ReadDataBlock@reg(COMMON[1]), I2C2_ReadDataBlock@bufferBlock(COMMON[3]), I2C2_Write2ByteRegister@reg(COMMON[1]), I2C2_Write2ByteRegister@data(COMMON[2]), 
		 -> I2C2_Write1ByteRegister@reg(COMMON[1]), I2C2_Write1ByteRegister@data(COMMON[1]), I2C2_Read2ByteRegister@reg(COMMON[1]), I2C2_Read2ByteRegister@returnValue(COMMON[2]), 
		 -> NULL(NULL[0]), I2C2_Read1ByteRegister@reg(BANK0[1]), I2C2_Read1ByteRegister@returnValue(BANK0[1]), 

    S532$data_ptr	PTR unsigned char  size(1) Largest target is 4
		 -> I2C2_ReadDataBlock@reg(COMMON[1]), I2C2_ReadDataBlock@bufferBlock(COMMON[3]), I2C2_Write2ByteRegister@reg(COMMON[1]), I2C2_Write2ByteRegister@data(COMMON[2]), 
		 -> I2C2_Write1ByteRegister@reg(COMMON[1]), I2C2_Write1ByteRegister@data(COMMON[1]), I2C2_Read2ByteRegister@reg(COMMON[1]), I2C2_Read2ByteRegister@returnValue(COMMON[2]), 
		 -> NULL(NULL[0]), I2C2_Read1ByteRegister@reg(BANK0[1]), I2C2_Read1ByteRegister@returnValue(BANK0[1]), 

    I2C2_Status.data_ptr	PTR unsigned char  size(1) Largest target is 4
		 -> I2C2_ReadDataBlock@reg(COMMON[1]), I2C2_ReadDataBlock@bufferBlock(COMMON[3]), I2C2_Write2ByteRegister@reg(COMMON[1]), I2C2_Write2ByteRegister@data(COMMON[2]), 
		 -> I2C2_Write1ByteRegister@reg(COMMON[1]), I2C2_Write1ByteRegister@data(COMMON[1]), I2C2_Read2ByteRegister@reg(COMMON[1]), I2C2_Read2ByteRegister@returnValue(COMMON[2]), 
		 -> NULL(NULL[0]), I2C2_Read1ByteRegister@reg(BANK0[1]), I2C2_Read1ByteRegister@returnValue(BANK0[1]), 

    S532$callbackPayload	PTR void [6] size(1) Largest target is 4
		 -> I2C2_ReadDataBlock@bufferBlock(COMMON[3]), I2C2_Write2ByteRegister@data(COMMON[2]), I2C2_Write1ByteRegister@data(COMMON[1]), I2C2_Read2ByteRegister@returnValue(COMMON[2]), 
		 -> NULL(NULL[0]), I2C2_Read1ByteRegister@returnValue(BANK0[1]), 

    I2C2_Status.callbackPayload	PTR void [6] size(1) Largest target is 4
		 -> I2C2_ReadDataBlock@bufferBlock(COMMON[3]), I2C2_Write2ByteRegister@data(COMMON[2]), I2C2_Write1ByteRegister@data(COMMON[1]), I2C2_Read2ByteRegister@returnValue(COMMON[2]), 
		 -> NULL(NULL[0]), I2C2_Read1ByteRegister@returnValue(BANK0[1]), 

    S532$callbackTable	PTR FTN(PTR void ,)enum E360[6] size(2) Largest target is 1
		 -> I2C2_CallbackReturnReset(), I2C2_CallbackReturnStop(), Absolute function(), rdBlkRegCompleteHandler(), 
		 -> wr2RegCompleteHandler(), wr1RegCompleteHandler(), rd2RegCompleteHandler(), rd1RegCompleteHandler(), 

    I2C2_Status.callbackTable	PTR FTN(PTR void ,)enum E360[6] size(2) Largest target is 1
		 -> I2C2_CallbackReturnReset(), I2C2_CallbackReturnStop(), Absolute function(), rdBlkRegCompleteHandler(), 
		 -> wr2RegCompleteHandler(), wr1RegCompleteHandler(), rd2RegCompleteHandler(), rd1RegCompleteHandler(), 

    i2c2_fsmStateTable	const PTR FTN()enum E12083[16] size(2) Largest target is 1
		 -> I2C2_DO_ADDRESS_NACK(), I2C2_DO_RESET(), I2C2_DO_RX_NACK_RESTART(), I2C2_DO_RX_NACK_STOP(), 
		 -> I2C2_DO_RX_ACK(), I2C2_DO_SEND_STOP(), I2C2_DO_SEND_RESTART(), I2C2_DO_SEND_RESTART_WRITE(), 
		 -> I2C2_DO_SEND_RESTART_READ(), I2C2_DO_TX_EMPTY(), I2C2_DO_RCEN(), I2C2_DO_RX(), 
		 -> I2C2_DO_TX(), I2C2_DO_SEND_ADR_WRITE(), I2C2_DO_SEND_ADR_READ(), I2C2_DO_IDLE(), 

    rdBlkRegCompleteHandler@ptr.data	PTR unsigned char  size(1) Largest target is 0

    rdBlkRegCompleteHandler@ptr	PTR void  size(1) Largest target is 4
		 -> I2C2_ReadDataBlock@bufferBlock(COMMON[3]), I2C2_Write2ByteRegister@data(COMMON[2]), I2C2_Write1ByteRegister@data(COMMON[1]), I2C2_Read2ByteRegister@returnValue(COMMON[2]), 
		 -> NULL(NULL[0]), I2C2_Read1ByteRegister@returnValue(BANK0[1]), 

    wr2RegCompleteHandler@ptr	PTR void  size(1) Largest target is 4
		 -> I2C2_ReadDataBlock@bufferBlock(COMMON[3]), I2C2_Write2ByteRegister@data(COMMON[2]), I2C2_Write1ByteRegister@data(COMMON[1]), I2C2_Read2ByteRegister@returnValue(COMMON[2]), 
		 -> NULL(NULL[0]), I2C2_Read1ByteRegister@returnValue(BANK0[1]), 

    wr1RegCompleteHandler@ptr	PTR void  size(1) Largest target is 4
		 -> I2C2_ReadDataBlock@bufferBlock(COMMON[3]), I2C2_Write2ByteRegister@data(COMMON[2]), I2C2_Write1ByteRegister@data(COMMON[1]), I2C2_Read2ByteRegister@returnValue(COMMON[2]), 
		 -> NULL(NULL[0]), I2C2_Read1ByteRegister@returnValue(BANK0[1]), 

    rd2RegCompleteHandler@ptr	PTR void  size(1) Largest target is 4
		 -> I2C2_ReadDataBlock@bufferBlock(COMMON[3]), I2C2_Write2ByteRegister@data(COMMON[2]), I2C2_Write1ByteRegister@data(COMMON[1]), I2C2_Read2ByteRegister@returnValue(COMMON[2]), 
		 -> NULL(NULL[0]), I2C2_Read1ByteRegister@returnValue(BANK0[1]), 

    rd1RegCompleteHandler@ptr	PTR void  size(1) Largest target is 4
		 -> I2C2_ReadDataBlock@bufferBlock(COMMON[3]), I2C2_Write2ByteRegister@data(COMMON[2]), I2C2_Write1ByteRegister@data(COMMON[1]), I2C2_Read2ByteRegister@returnValue(COMMON[2]), 
		 -> NULL(NULL[0]), I2C2_Read1ByteRegister@returnValue(BANK0[1]), 

    S380$data	PTR unsigned char  size(1) Largest target is 0

    bufferBlock.data	PTR unsigned char  size(1) Largest target is 0

    EUSART_SetErrorHandler@interruptHandler	PTR FTN()void  size(2) Largest target is 1
		 -> EUSART_DefaultErrorHandler(), 

    EUSART_ErrorHandler	PTR FTN()void  size(2) Largest target is 1
		 -> Absolute function(), EUSART_DefaultErrorHandler(), 

    EUSART_SetOverrunErrorHandler@interruptHandler	PTR FTN()void  size(2) Largest target is 1
		 -> EUSART_DefaultOverrunErrorHandler(), 

    EUSART_OverrunErrorHandler	PTR FTN()void  size(2) Largest target is 1
		 -> Absolute function(), EUSART_DefaultOverrunErrorHandler(), 

    EUSART_SetFramingErrorHandler@interruptHandler	PTR FTN()void  size(2) Largest target is 1
		 -> EUSART_DefaultFramingErrorHandler(), 

    EUSART_FramingErrorHandler	PTR FTN()void  size(2) Largest target is 1
		 -> Absolute function(), EUSART_DefaultFramingErrorHandler(), 


Critical Paths under _main in COMMON

    _pad->_fputs
    _fputs->_fputc
    _fputc->_putch
    _putch->_EUSART_Write
    _abs->___aomod
    _EUSART_Initialize->_EUSART_SetErrorHandler
    _EUSART_Initialize->_EUSART_SetFramingErrorHandler
    _EUSART_Initialize->_EUSART_SetOverrunErrorHandler
    _I2C2_SetAddressNackCallback->_I2C2_SetCallback
    _I2C2_MasterWrite->_I2C2_MasterOperation
    _I2C2_MasterFsm->_I2C2_DO_ADDRESS_NACK
    _I2C2_MasterFsm->_I2C2_DO_RX
    _I2C2_MasterFsm->_I2C2_DO_TX
    _I2C2_MasterFsm->_I2C2_DO_TX_EMPTY
    _I2C2_DO_TX_EMPTY->_I2C2_CallbackReturnReset
    _I2C2_DO_TX_EMPTY->_I2C2_CallbackReturnStop
    _I2C2_DO_TX_EMPTY->_rd1RegCompleteHandler
    _I2C2_DO_TX_EMPTY->_rd2RegCompleteHandler
    _I2C2_DO_TX_EMPTY->_rdBlkRegCompleteHandler
    _I2C2_DO_TX_EMPTY->_wr1RegCompleteHandler
    _I2C2_DO_TX_EMPTY->_wr2RegCompleteHandler
    _I2C2_DO_TX->_I2C2_CallbackReturnReset
    _I2C2_DO_TX->_I2C2_CallbackReturnStop
    _I2C2_DO_TX->_rd1RegCompleteHandler
    _I2C2_DO_TX->_rd2RegCompleteHandler
    _I2C2_DO_TX->_rdBlkRegCompleteHandler
    _I2C2_DO_TX->_wr1RegCompleteHandler
    _I2C2_DO_TX->_wr2RegCompleteHandler
    _I2C2_DO_SEND_ADR_WRITE->_I2C2_MasterSendTxData
    _I2C2_DO_RX->_I2C2_CallbackReturnReset
    _I2C2_DO_RX->_I2C2_CallbackReturnStop
    _I2C2_DO_RX->_rd1RegCompleteHandler
    _I2C2_DO_RX->_rd2RegCompleteHandler
    _I2C2_DO_RX->_rdBlkRegCompleteHandler
    _I2C2_DO_RX->_wr1RegCompleteHandler
    _I2C2_DO_RX->_wr2RegCompleteHandler
    _I2C2_DO_ADDRESS_NACK->_I2C2_CallbackReturnReset
    _I2C2_DO_ADDRESS_NACK->_I2C2_CallbackReturnStop
    _I2C2_DO_ADDRESS_NACK->_rd1RegCompleteHandler
    _I2C2_DO_ADDRESS_NACK->_rd2RegCompleteHandler
    _I2C2_DO_ADDRESS_NACK->_rdBlkRegCompleteHandler
    _I2C2_DO_ADDRESS_NACK->_wr1RegCompleteHandler
    _I2C2_DO_ADDRESS_NACK->_wr2RegCompleteHandler
    _wr2RegCompleteHandler->_I2C2_SetDataCompleteCallback
    _wr1RegCompleteHandler->_I2C2_SetDataCompleteCallback
    _rdBlkRegCompleteHandler->_I2C2_SetDataCompleteCallback
    _rd2RegCompleteHandler->_I2C2_SetDataCompleteCallback
    _rd1RegCompleteHandler->_I2C2_SetDataCompleteCallback
    _I2C2_SetDataCompleteCallback->_I2C2_SetCallback

Critical Paths under _main in BANK0

    _main->_printf
    _printf->_vfprintf
    _vfprintf->_vfpfcnvrt
    _vfpfcnvrt->_dtoa
    _dtoa->___aodiv
    _dtoa->___aomod
    _pad->_fputs
    _abs->___aomod
    _I2C2_MasterWrite->_I2C2_MasterOperation
    _I2C2_Poller->_I2C2_MasterFsm

Critical Paths under _main in BANK1

    None.

Critical Paths under _main in BANK2

    None.

Critical Paths under _main in BANK3

    None.

Critical Paths under _main in BANK4

    None.

Critical Paths under _main in BANK5

    None.

Critical Paths under _main in BANK6

    None.

Critical Paths under _main in BANK7

    None.

Critical Paths under _main in BANK8

    None.

Critical Paths under _main in BANK9

    None.

Critical Paths under _main in BANK10

    None.

Critical Paths under _main in BANK11

    None.

Critical Paths under _main in BANK12

    None.

Call Graph Tables:

 ---------------------------------------------------------------------------------
 (Depth) Function   	        Calls       Base Space   Used Autos Params    Refs
 ---------------------------------------------------------------------------------
 (0) _main                                                 6     6      0   91818
                                             78 BANK0      2     2      0
                                              0 BANK1      4     4      0
             _I2C2_Read1ByteRegister
                  _SYSTEM_Initialize
                             ___wmul
                             _printf
 ---------------------------------------------------------------------------------
 (1) _printf                                              10     4      6    6012
                                             70 BANK0      8     2      6
                             ___wmul (ARG)
                           _vfprintf
 ---------------------------------------------------------------------------------
 (2) _vfprintf                                             8     5      3    5806
                                             62 BANK0      8     5      3
                          _vfpfcnvrt
 ---------------------------------------------------------------------------------
 (3) _vfpfcnvrt                                           40    38      2    5478
                                             46 BANK0     16    14      2
                               _dtoa
                              _fputc
 ---------------------------------------------------------------------------------
 (4) _dtoa                                                30    22      8    4133
                                             16 BANK0     30    22      8
                            ___aodiv
                            ___aomod
                                _abs
                                _pad
 ---------------------------------------------------------------------------------
 (5) _pad                                                  9     6      3    2510
                                              4 BANK0      9     6      3
                              _fputc
                              _fputs
                             _strlen
 ---------------------------------------------------------------------------------
 (6) _strlen                                               5     3      2     123
                                              0 COMMON     5     3      2
 ---------------------------------------------------------------------------------
 (6) _fputs                                                8     7      1    1127
                                             10 COMMON     4     3      1
                                              0 BANK0      4     4      0
                              _fputc
 ---------------------------------------------------------------------------------
 (4) _fputc                                                8     5      3     812
                                              2 COMMON     8     5      3
                              _putch
 ---------------------------------------------------------------------------------
 (5) _putch                                                1     1      0      44
                                              1 COMMON     1     1      0
                       _EUSART_Write
 ---------------------------------------------------------------------------------
 (6) _EUSART_Write                                         1     1      0      22
                                              0 COMMON     1     1      0
 ---------------------------------------------------------------------------------
 (5) _abs                                                  4     2      2     142
                                              3 COMMON     4     2      2
                            ___aomod (ARG)
 ---------------------------------------------------------------------------------
 (5) ___aomod                                             19     3     16     448
                                              0 COMMON     3     3      0
                                              0 BANK0     16     0     16
 ---------------------------------------------------------------------------------
 (5) ___aodiv                                             27    11     16     452
                                              0 COMMON    11    11      0
                                              0 BANK0     16     0     16
 ---------------------------------------------------------------------------------
 (1) ___wmul                                               6     2      4    1144
                                              0 COMMON     6     2      4
 ---------------------------------------------------------------------------------
 (1) _SYSTEM_Initialize                                    0     0      0     294
                  _EUSART_Initialize
                    _I2C2_Initialize
              _OSCILLATOR_Initialize
             _PIN_MANAGER_Initialize
                     _PMD_Initialize
 ---------------------------------------------------------------------------------
 (2) _PMD_Initialize                                       0     0      0       0
 ---------------------------------------------------------------------------------
 (2) _PIN_MANAGER_Initialize                               0     0      0       0
 ---------------------------------------------------------------------------------
 (2) _OSCILLATOR_Initialize                                0     0      0       0
 ---------------------------------------------------------------------------------
 (2) _I2C2_Initialize                                      0     0      0       0
 ---------------------------------------------------------------------------------
 (2) _EUSART_Initialize                                    0     0      0     294
             _EUSART_SetErrorHandler
      _EUSART_SetFramingErrorHandler
      _EUSART_SetOverrunErrorHandler
 ---------------------------------------------------------------------------------
 (3) _EUSART_SetOverrunErrorHandler                        2     0      2      98
                                              0 COMMON     2     0      2
 ---------------------------------------------------------------------------------
 (3) _EUSART_SetFramingErrorHandler                        2     0      2      98
                                              0 COMMON     2     0      2
 ---------------------------------------------------------------------------------
 (3) _EUSART_SetErrorHandler                               2     0      2      98
                                              0 COMMON     2     0      2
 ---------------------------------------------------------------------------------
 (1) _I2C2_Read1ByteRegister                               4     3      1   84319
                                              5 BANK0      4     3      1
                         _I2C2_Close
                   _I2C2_MasterWrite
                          _I2C2_Open
        _I2C2_SetAddressNackCallback
                     _I2C2_SetBuffer
       _I2C2_SetDataCompleteCallback
 ---------------------------------------------------------------------------------
 (2) _I2C2_SetAddressNackCallback                          4     1      3    1870
                                              5 COMMON     4     1      3
                   _I2C2_SetCallback
 ---------------------------------------------------------------------------------
 (2) _I2C2_Open                                            3     3      0      46
                                              0 COMMON     3     3      0
                _I2C2_MasterClearIrq
                    _I2C2_MasterOpen
 ---------------------------------------------------------------------------------
 (3) _I2C2_MasterOpen                                      0     0      0       0
 ---------------------------------------------------------------------------------
 (2) _I2C2_MasterWrite                                     0     0      0   78300
               _I2C2_MasterOperation
 ---------------------------------------------------------------------------------
 (3) _I2C2_MasterOperation                                 3     3      0   78300
                                             13 COMMON     1     1      0
                                              3 BANK0      2     2      0
                   _I2C2_MasterStart
                        _I2C2_Poller
 ---------------------------------------------------------------------------------
 (4) _I2C2_Poller                                          0     0      0   78254
                     _I2C2_MasterFsm
            _I2C2_MasterWaitForEvent
 ---------------------------------------------------------------------------------
 (5) _I2C2_MasterWaitForEvent                              0     0      0       0
 ---------------------------------------------------------------------------------
 (5) _I2C2_MasterFsm                                       3     3      0   78254
                                              0 BANK0      3     3      0
               _I2C2_DO_ADDRESS_NACK *
                       _I2C2_DO_IDLE *
                       _I2C2_DO_RCEN *
                      _I2C2_DO_RESET *
                         _I2C2_DO_RX *
                     _I2C2_DO_RX_ACK *
            _I2C2_DO_RX_NACK_RESTART *
               _I2C2_DO_RX_NACK_STOP *
              _I2C2_DO_SEND_ADR_READ *
             _I2C2_DO_SEND_ADR_WRITE *
               _I2C2_DO_SEND_RESTART *
          _I2C2_DO_SEND_RESTART_READ *
         _I2C2_DO_SEND_RESTART_WRITE *
                  _I2C2_DO_SEND_STOP *
                         _I2C2_DO_TX *
                   _I2C2_DO_TX_EMPTY *
                _I2C2_MasterClearIrq
                  _I2C2_MasterIsNack
 ---------------------------------------------------------------------------------
 (6) _I2C2_DO_TX_EMPTY                                     3     3      0   19547
                                             10 COMMON     3     3      0
                   Absolute function *
           _I2C2_CallbackReturnReset *
            _I2C2_CallbackReturnStop *
               _I2C2_DO_SEND_RESTART
                  _I2C2_DO_SEND_STOP
                  _I2C2_MasterSetIrq
              _rd1RegCompleteHandler *
              _rd2RegCompleteHandler *
            _rdBlkRegCompleteHandler *
              _wr1RegCompleteHandler *
              _wr2RegCompleteHandler *
 ---------------------------------------------------------------------------------
 (7) _I2C2_MasterSetIrq                                    0     0      0       0
 ---------------------------------------------------------------------------------
 (6) _I2C2_DO_TX                                           3     3      0   19569
                                             10 COMMON     3     3      0
                   Absolute function *
           _I2C2_CallbackReturnReset *
            _I2C2_CallbackReturnStop *
          _I2C2_DO_SEND_RESTART_READ
         _I2C2_DO_SEND_RESTART_WRITE
                  _I2C2_DO_SEND_STOP
                  _I2C2_MasterIsNack
              _I2C2_MasterSendTxData
              _rd1RegCompleteHandler *
              _rd2RegCompleteHandler *
            _rdBlkRegCompleteHandler *
              _wr1RegCompleteHandler *
              _wr2RegCompleteHandler *
 ---------------------------------------------------------------------------------
 (6) _I2C2_MasterIsNack                                    0     0      0       0
 ---------------------------------------------------------------------------------
 (7) _I2C2_DO_SEND_RESTART_WRITE                           0     0      0       0
           _I2C2_MasterEnableRestart
 ---------------------------------------------------------------------------------
 (7) _I2C2_DO_SEND_RESTART_READ                            0     0      0       0
           _I2C2_MasterEnableRestart
 ---------------------------------------------------------------------------------
 (6) _I2C2_DO_SEND_ADR_WRITE                               0     0      0      22
              _I2C2_MasterSendTxData
 ---------------------------------------------------------------------------------
 (6) _I2C2_DO_SEND_ADR_READ                                0     0      0      22
              _I2C2_MasterSendTxData
 ---------------------------------------------------------------------------------
 (7) _I2C2_MasterSendTxData                                1     1      0      22
                                              0 COMMON     1     1      0
 ---------------------------------------------------------------------------------
 (6) _I2C2_DO_RX_ACK                                       0     0      0       0
                 _I2C2_MasterSendAck
 ---------------------------------------------------------------------------------
 (6) _I2C2_DO_RX                                           3     3      0   19547
                                             10 COMMON     3     3      0
                   Absolute function *
           _I2C2_CallbackReturnReset *
            _I2C2_CallbackReturnStop *
            _I2C2_DO_RX_NACK_RESTART
               _I2C2_DO_RX_NACK_STOP
               _I2C2_MasterGetRxData
                 _I2C2_MasterSendAck
              _rd1RegCompleteHandler *
              _rd2RegCompleteHandler *
            _rdBlkRegCompleteHandler *
              _wr1RegCompleteHandler *
              _wr2RegCompleteHandler *
 ---------------------------------------------------------------------------------
 (7) _I2C2_MasterSendAck                                   0     0      0       0
 ---------------------------------------------------------------------------------
 (7) _I2C2_MasterGetRxData                                 0     0      0       0
 ---------------------------------------------------------------------------------
 (6) _I2C2_DO_RX_NACK_STOP                                 0     0      0       0
                _I2C2_MasterSendNack
 ---------------------------------------------------------------------------------
 (6) _I2C2_DO_RX_NACK_RESTART                              0     0      0       0
                _I2C2_MasterSendNack
 ---------------------------------------------------------------------------------
 (7) _I2C2_MasterSendNack                                  0     0      0       0
 ---------------------------------------------------------------------------------
 (6) _I2C2_DO_RESET                                        0     0      0       0
 ---------------------------------------------------------------------------------
 (6) _I2C2_DO_RCEN                                         0     0      0       0
                 _I2C2_MasterStartRx
 ---------------------------------------------------------------------------------
 (7) _I2C2_MasterStartRx                                   0     0      0       0
 ---------------------------------------------------------------------------------
 (6) _I2C2_DO_IDLE                                         0     0      0       0
 ---------------------------------------------------------------------------------
 (6) _I2C2_DO_ADDRESS_NACK                                 3     3      0   19547
                                             10 COMMON     3     3      0
                   Absolute function *
           _I2C2_CallbackReturnReset *
            _I2C2_CallbackReturnStop *
               _I2C2_DO_SEND_RESTART
                  _I2C2_DO_SEND_STOP
              _rd1RegCompleteHandler *
              _rd2RegCompleteHandler *
            _rdBlkRegCompleteHandler *
              _wr1RegCompleteHandler *
              _wr2RegCompleteHandler *
 ---------------------------------------------------------------------------------
 (7) _wr2RegCompleteHandler                                1     0      1    3852
                                              9 COMMON     1     0      1
                     _I2C2_SetBuffer
       _I2C2_SetDataCompleteCallback
 ---------------------------------------------------------------------------------
 (7) _wr1RegCompleteHandler                                1     0      1    3852
                                              9 COMMON     1     0      1
                     _I2C2_SetBuffer
       _I2C2_SetDataCompleteCallback
 ---------------------------------------------------------------------------------
 (7) _rdBlkRegCompleteHandler                              1     0      1    3874
                                              9 COMMON     1     0      1
                     _I2C2_SetBuffer
       _I2C2_SetDataCompleteCallback
 ---------------------------------------------------------------------------------
 (7) _rd2RegCompleteHandler                                1     0      1    3852
                                              9 COMMON     1     0      1
                     _I2C2_SetBuffer
       _I2C2_SetDataCompleteCallback
 ---------------------------------------------------------------------------------
 (7) _rd1RegCompleteHandler                                1     0      1    3852
                                              9 COMMON     1     0      1
                     _I2C2_SetBuffer
       _I2C2_SetDataCompleteCallback
 ---------------------------------------------------------------------------------
 (2) _I2C2_SetDataCompleteCallback                         4     1      3    2478
                                              5 COMMON     4     1      3
                   _I2C2_SetCallback
 ---------------------------------------------------------------------------------
 (3) _I2C2_SetCallback                                     5     2      3     914
                                              0 COMMON     5     2      3
 ---------------------------------------------------------------------------------
 (2) _I2C2_SetBuffer                                       4     2      2    1352
                                              0 COMMON     4     2      2
 ---------------------------------------------------------------------------------
 (7) _I2C2_DO_SEND_STOP                                    0     0      0       0
                    _I2C2_MasterStop
 ---------------------------------------------------------------------------------
 (8) _I2C2_MasterStop                                      0     0      0       0
 ---------------------------------------------------------------------------------
 (7) _I2C2_DO_SEND_RESTART                                 0     0      0       0
           _I2C2_MasterEnableRestart
 ---------------------------------------------------------------------------------
 (8) _I2C2_MasterEnableRestart                             0     0      0       0
 ---------------------------------------------------------------------------------
 (7) _I2C2_CallbackReturnStop                              1     0      1       0
                                              9 COMMON     1     0      1
 ---------------------------------------------------------------------------------
 (7) _I2C2_CallbackReturnReset                             1     0      1     265
                                              9 COMMON     1     0      1
 ---------------------------------------------------------------------------------
 (7) Absolute function(Fake)                               1     0      1       0
 ---------------------------------------------------------------------------------
 (4) _I2C2_MasterStart                                     0     0      0       0
 ---------------------------------------------------------------------------------
 (2) _I2C2_Close                                           2     2      0      24
                                              0 COMMON     2     2      0
                _I2C2_MasterClearIrq
                   _I2C2_MasterClose
              _I2C2_MasterDisableIrq
 ---------------------------------------------------------------------------------
 (3) _I2C2_MasterDisableIrq                                0     0      0       0
 ---------------------------------------------------------------------------------
 (3) _I2C2_MasterClose                                     0     0      0       0
 ---------------------------------------------------------------------------------
 (3) _I2C2_MasterClearIrq                                  0     0      0       0
 ---------------------------------------------------------------------------------
 Estimated maximum stack depth 8
 ---------------------------------------------------------------------------------

 Call Graph Graphs:

 _main (ROOT)
   _I2C2_Read1ByteRegister
     _I2C2_Close
       _I2C2_MasterClearIrq
       _I2C2_MasterClose
       _I2C2_MasterDisableIrq
     _I2C2_MasterWrite
       _I2C2_MasterOperation
         _I2C2_MasterStart
         _I2C2_Poller
           _I2C2_MasterFsm
             _I2C2_DO_ADDRESS_NACK *
               Absolute function(Fake) *
               _I2C2_CallbackReturnReset *
               _I2C2_CallbackReturnStop *
               _I2C2_DO_SEND_RESTART *
                 _I2C2_MasterEnableRestart
               _I2C2_DO_SEND_STOP *
                 _I2C2_MasterStop
               _rd1RegCompleteHandler *
                 _I2C2_SetBuffer
                 _I2C2_SetDataCompleteCallback
                   _I2C2_SetCallback
               _rd2RegCompleteHandler *
                 _I2C2_SetBuffer
                 _I2C2_SetDataCompleteCallback
               _rdBlkRegCompleteHandler *
                 _I2C2_SetBuffer
                 _I2C2_SetDataCompleteCallback
               _wr1RegCompleteHandler *
                 _I2C2_SetBuffer
                 _I2C2_SetDataCompleteCallback
               _wr2RegCompleteHandler *
                 _I2C2_SetBuffer
                 _I2C2_SetDataCompleteCallback
             _I2C2_DO_IDLE *
             _I2C2_DO_RCEN *
               _I2C2_MasterStartRx
             _I2C2_DO_RESET *
             _I2C2_DO_RX *
               Absolute function(Fake) *
               _I2C2_CallbackReturnReset *
               _I2C2_CallbackReturnStop *
               _I2C2_DO_RX_NACK_RESTART *
                 _I2C2_MasterSendNack
               _I2C2_DO_RX_NACK_STOP *
                 _I2C2_MasterSendNack
               _I2C2_MasterGetRxData *
               _I2C2_MasterSendAck *
               _rd1RegCompleteHandler *
               _rd2RegCompleteHandler *
               _rdBlkRegCompleteHandler *
               _wr1RegCompleteHandler *
               _wr2RegCompleteHandler *
             _I2C2_DO_RX_ACK *
               _I2C2_MasterSendAck
             _I2C2_DO_RX_NACK_RESTART *
             _I2C2_DO_RX_NACK_STOP *
             _I2C2_DO_SEND_ADR_READ *
               _I2C2_MasterSendTxData
             _I2C2_DO_SEND_ADR_WRITE *
               _I2C2_MasterSendTxData
             _I2C2_DO_SEND_RESTART *
             _I2C2_DO_SEND_RESTART_READ *
               _I2C2_MasterEnableRestart
             _I2C2_DO_SEND_RESTART_WRITE *
               _I2C2_MasterEnableRestart
             _I2C2_DO_SEND_STOP *
             _I2C2_DO_TX *
               Absolute function(Fake) *
               _I2C2_CallbackReturnReset *
               _I2C2_CallbackReturnStop *
               _I2C2_DO_SEND_RESTART_READ *
               _I2C2_DO_SEND_RESTART_WRITE *
               _I2C2_DO_SEND_STOP *
               _I2C2_MasterIsNack *
               _I2C2_MasterSendTxData *
               _rd1RegCompleteHandler *
               _rd2RegCompleteHandler *
               _rdBlkRegCompleteHandler *
               _wr1RegCompleteHandler *
               _wr2RegCompleteHandler *
             _I2C2_DO_TX_EMPTY *
               Absolute function(Fake) *
               _I2C2_CallbackReturnReset *
               _I2C2_CallbackReturnStop *
               _I2C2_DO_SEND_RESTART *
               _I2C2_DO_SEND_STOP *
               _I2C2_MasterSetIrq *
               _rd1RegCompleteHandler *
               _rd2RegCompleteHandler *
               _rdBlkRegCompleteHandler *
               _wr1RegCompleteHandler *
               _wr2RegCompleteHandler *
             _I2C2_MasterClearIrq *
             _I2C2_MasterIsNack *
           _I2C2_MasterWaitForEvent
     _I2C2_Open
       _I2C2_MasterClearIrq
       _I2C2_MasterOpen
     _I2C2_SetAddressNackCallback
       _I2C2_SetCallback
     _I2C2_SetBuffer
     _I2C2_SetDataCompleteCallback
   _SYSTEM_Initialize
     _EUSART_Initialize
       _EUSART_SetErrorHandler
       _EUSART_SetFramingErrorHandler
       _EUSART_SetOverrunErrorHandler
     _I2C2_Initialize
     _OSCILLATOR_Initialize
     _PIN_MANAGER_Initialize
     _PMD_Initialize
   ___wmul
   _printf
     ___wmul (ARG)
     _vfprintf (ARG)
       _vfpfcnvrt
         _dtoa
           ___aodiv
           ___aomod
           _abs
             ___aomod (ARG)
           _pad
             _fputc
               _putch
                 _EUSART_Write
             _fputs
               _fputc
             _strlen
         _fputc

 Address spaces:
Name               Size   Autos  Total    Cost      Usage
BIGRAM             3F0      0       0       0        0.0%
EEDATA             100      0       0       0        0.0%
NULL                 0      0       0       0        0.0%
CODE                 0      0       0       0        0.0%
BITCOMMON            E      0       0       1        0.0%
BITSFR0              0      0       0       1        0.0%
SFR0                 0      0       0       1        0.0%
COMMON               E      E       E       2      100.0%
BITSFR1              0      0       0       2        0.0%
SFR1                 0      0       0       2        0.0%
BITSFR2              0      0       0       3        0.0%
SFR2                 0      0       0       3        0.0%
STACK                0      0       0       3        0.0%
BITBANK0            50      0       0       4        0.0%
BITSFR3              0      0       0       4        0.0%
SFR3                 0      0       0       4        0.0%
BANK0               50     50      50       5      100.0%
BITSFR4              0      0       0       5        0.0%
SFR4                 0      0       0       5        0.0%
BITBANK1            50      0       0       6        0.0%
BITSFR5              0      0       0       6        0.0%
SFR5                 0      0       0       6        0.0%
BANK1               50      4      50       7      100.0%
BITSFR6              0      0       0       7        0.0%
SFR6                 0      0       0       7        0.0%
BITBANK2            50      0       0       8        0.0%
BITSFR7              0      0       0       8        0.0%
SFR7                 0      0       0       8        0.0%
BANK2               50      0       0       9        0.0%
BITSFR8              0      0       0       9        0.0%
SFR8                 0      0       0       9        0.0%
BITBANK3            50      0       0      10        0.0%
BITSFR9              0      0       0      10        0.0%
SFR9                 0      0       0      10        0.0%
BANK3               50      0       0      11        0.0%
BITSFR10             0      0       0      11        0.0%
SFR10                0      0       0      11        0.0%
BITBANK4            50      0       0      12        0.0%
BITSFR11             0      0       0      12        0.0%
SFR11                0      0       0      12        0.0%
BANK4               50      0       0      13        0.0%
BITSFR12             0      0       0      13        0.0%
SFR12                0      0       0      13        0.0%
BITBANK5            50      0       0      14        0.0%
BITSFR13             0      0       0      14        0.0%
SFR13                0      0       0      14        0.0%
BANK5               50      0       0      15        0.0%
BITSFR14             0      0       0      15        0.0%
SFR14                0      0       0      15        0.0%
BITBANK6            50      0       0      16        0.0%
BITSFR15             0      0       0      16        0.0%
SFR15                0      0       0      16        0.0%
BANK6               50      0       0      17        0.0%
BITSFR16             0      0       0      17        0.0%
SFR16                0      0       0      17        0.0%
BITBANK7            50      0       0      18        0.0%
BITSFR17             0      0       0      18        0.0%
SFR17                0      0       0      18        0.0%
BANK7               50      0       0      19        0.0%
BITSFR18             0      0       0      19        0.0%
SFR18                0      0       0      19        0.0%
BITSFR19             0      0       0      20        0.0%
SFR19                0      0       0      20        0.0%
ABS                  0      0      AE      20        0.0%
BITBANK8            50      0       0      21        0.0%
BITSFR20             0      0       0      21        0.0%
SFR20                0      0       0      21        0.0%
BANK8               50      0       0      22        0.0%
BITSFR21             0      0       0      22        0.0%
SFR21                0      0       0      22        0.0%
BITBANK9            50      0       0      23        0.0%
BITSFR22             0      0       0      23        0.0%
SFR22                0      0       0      23        0.0%
BANK9               50      0       0      24        0.0%
BITSFR23             0      0       0      24        0.0%
SFR23                0      0       0      24        0.0%
BITBANK10           50      0       0      25        0.0%
BITSFR24             0      0       0      25        0.0%
SFR24                0      0       0      25        0.0%
BANK10              50      0       0      26        0.0%
BITSFR25             0      0       0      26        0.0%
SFR25                0      0       0      26        0.0%
BITBANK11           50      0       0      27        0.0%
BITSFR26             0      0       0      27        0.0%
SFR26                0      0       0      27        0.0%
BANK11              50      0       0      28        0.0%
BITSFR27             0      0       0      28        0.0%
SFR27                0      0       0      28        0.0%
BITBANK12           30      0       0      29        0.0%
BITSFR28             0      0       0      29        0.0%
SFR28                0      0       0      29        0.0%
BANK12              30      0       0      30        0.0%
BITSFR29             0      0       0      30        0.0%
SFR29                0      0       0      30        0.0%
BITSFR30             0      0       0      31        0.0%
SFR30                0      0       0      31        0.0%
DATA                 0      0      AE      31        0.0%
BITSFR31             0      0       0      32        0.0%
SFR31                0      0       0      32        0.0%


Microchip Technology PIC Macro Assembler V2.32 build 20210201212658 
Symbol Table                                                                                   Tue Mar 16 17:02:33 2021

                           _I2C2_MasterSendAck 0E58                                             l43 004F  
                                           l70 000E                                             l91 0EB0  
                                           l67 0006                                             l76 0EB6  
                                           l94 0EA4                                             l88 0EAA  
                          ___wmul@multiplicand 0072                            _I2C2_MasterSendNack 0E54  
                     ??_I2C2_Read1ByteRegister 0026                             _I2C2_MasterStartRx 0E4B  
                         _I2C2_DO_ADDRESS_NACK 00C1                  I2C2_SetAddressNackCallback@cb 0075  
                         ?_I2C2_MasterClearIrq 0070                       __end_of_I2C2_SetCallback 0099  
                                          l312 0F75                                            l321 0FB0  
                                          l315 0F86                                            l155 01AF  
                                          l252 01E5                                            l309 0F64  
                                          l318 0F53                                            l430 021F  
                                          l511 027C                                            l512 02A4  
                                          l440 0072                                            l601 0E50  
                                          l193 0F42                                            l434 0FFF  
                                          l426 0EE5                                            l523 0EC3  
                                          l604 0E60                                            l196 0EEE  
                                          l453 0F32                                            l613 0E4D  
                                          l429 021E                                            l622 0E98  
                                          l550 0E6F                                            l446 0E92  
                                          l462 0F22                                            l607 0E47  
                                          l199 0ED3                                            l616 0E44  
                                          l456 0EFB                                            l473 0098  
                                          l625 0E5B                                            l529 0149  
                                          l553 0E74                                            l562 0E83  
                                          l810 002D                                            l643 0E41  
                                          l619 0E4A                                            l547 0E6A  
                                          l483 011A                                            l628 0E57  
                                          l492 0ECB                                            l556 0E79  
                                          l652 0E99                                            l565 0E88  
                                          l646 0E3B                                            l582 0E36  
                                          l486 0E65                                            l574 00EC  
                                          l495 02DD                                            l559 0E7E  
                                          l479 0F08                                            l568 0E8D  
                                          l656 0E9E                                            l808 0019  
                                          l585 0E38                                            l649 0E53  
                                          l489 0EDC                                            l921 0574  
                                          l498 02F9                                            l922 0585  
                                          l595 0F15                                            l908 0675  
                                          l909 0686                                            l598 0E3E  
                          ?_I2C2_MasterSendAck 0070                                            u940 000B  
                                          u941 000A                                            u950 007A  
                                          u951 0079                                            u960 0F29  
                                          u961 0F28                                            u970 0225  
                                          u971 0224                                            u980 022A  
                                          u981 0229                                            u990 0239  
                                          u991 0238                                            _abs 0FCA  
                                          _pad 02FA                 ?_EUSART_SetFramingErrorHandler 0070  
                      __size_of_PMD_Initialize 0008                                            wreg 0009  
                          ?_I2C2_MasterStartRx 0070                      ??_I2C2_DO_RX_NACK_RESTART 0070  
           __size_of_I2C2_DO_SEND_RESTART_READ 0005               __end_of_I2C2_CallbackReturnReset 0E39  
                   ?_I2C2_DO_SEND_RESTART_READ 0070                                           ?_abs 0073  
                      ??_rd2RegCompleteHandler 007A                                           l1301 0338  
                                         l1302 0346                                           l1303 0352  
                                         l1311 06F6                                           l3000 0183  
                                         l1312 070E                                           l3010 0195  
                                         l3002 0185                                           l1306 06D0  
                                         l1315 077E                                           l1307 06D9  
                                         l3100 0FF9                                           l3020 01A0  
                                         l3012 0197                                           l3004 0188  
                                         l3102 0FFE                                           l3030 01AC  
                                         l3022 01A2                                           l3014 0199  
                                         l3006 018A                                           l1350 0FE3  
                                         l3110 0154                                           l1343 017A  
                                         l1271 0F98                                           l3040 0EE4  
                                         l3024 01A5                                           l3016 019B  
                                         l3008 0193                                           l3032 0ECC  
                                         l1336 049B                                           l3112 0168  
                                         l1329 07F4                                           l2410 0074  
                                         l3050 01E7                                           l3034 0EDD  
                                         l3042 0EE6                                           l3026 01A7  
                                         l3018 019D                                           l3130 0F33  
                                         l1362 025E                                           l1370 00C0  
                                         l3114 0172                                           l3106 014C  
                                         l1347 0FE3                                           l2420 0F24  
                                         l2412 007A                                           l2500 0E84  
                                         l3060 01FD                                           l3052 01EE  
                                         l3036 0EDF                                           l3044 0EE9  
                                         l3028 01AA                                           l3132 0F36  
                                         l3108 0150                                           l3140 0F87  
                                         l2422 0F29                                           l2414 008B  
                                         l2430 0E54                                           l2502 0E87  
                                         l3070 0211                                           l3062 0202  
                                         l3054 01F2                                           l3150 01BD  
                                         l3038 0EE1                                           l3046 0EEA  
                                         l3134 0F39                                           l2406 0006  
                                         l3142 0F8C                                           l2424 0F31  
                                         l2432 0F54                                           l2440 0F65  
                                         l2512 0E4B                                           l2520 0E51  
                                         l3072 0212                                           l3064 0203  
                                         l3056 01F3                                           l3160 01E3  
                                         l3152 01C9                                           l3048 0EED  
                                         l3136 0F3C                                           l2408 000B  
                                         l2416 0EB2                                           l1376 0FC9  
                                         l3090 0FEB                                           l2426 0E45  
                                         l2418 0EEF                                           l2434 0F5C  
                                         l2442 0F6D                                           l2450 0F7E  
                                         l2522 0E35                                           l2610 0277  
                                         l2514 0E70                                           l2506 0E7F  
                                         l3074 0217                                           l3066 0208  
                                         l3058 01F4                                           l3082 0F16  
                                         l3154 01D1                                           l3146 01B2  
                                         l3138 0F3F                                           l3170 001E  
                                         l2530 0220                                           l1298 0316  
                                         l3092 0FEC                                           l2428 0E48  
                                         l2460 0F52                                           l2436 0F63  
                                         l2444 0F74                                           l2452 0F85  
                                         l2612 027A                                           l2604 025F  
                                         l2516 0E73                                           l2508 0E82  
                                         l3084 0E8E                                           l3076 021A  
                                         l3068 020C                                           l3156 01D8  
                                         l3148 01B3                                           l3172 0023  
                                         l3164 000F                                           l2540 0256  
                                         l2532 0225                                           l3094 0FF0  
                                         l2526 0E37                                           l2470 0E93  
                                         l2550 0E64                                           l2622 0282  
                                         l2606 0269                                           l3078 021D  
                                         l3158 01DB                                           l3174 0029  
                                         l3166 0011                                           l2534 022A  
                                         l2710 00AC                                           l3190 036B  
                                         l3182 0353                                           l2544 0E39  
                                         l3096 0FF3                                           l3088 0FE4  
                                         l2456 0F43                                           l2448 0F76  
                                         l2464 0F99                                           l2608 026D  
                                         l2640 0EC2                                           l3440 00E4  
                                         l3168 0015                                           l2800 0551  
                                         l2536 022F                                           l2712 00B1  
                                         l2720 0FC3                                           l3192 037A  
                                         l3184 0355                                           l3098 0FF6  
                                         l2458 0F4B                                           l2466 0FAF  
                                         l2474 0E5D                                           l2650 0122  
                                         l2546 0E61                                           l2554 0ED4  
                                         l2562 0EC4                                           l2570 02A5  
                                         l3442 0296                                           l2618 027E  
                                         l2482 0E6B                                           l2490 0E78  
                                         l2730 00F5                                           l2802 0556  
                                         l2538 0239                                           l2706 009B  
                                         l2714 0FB2                                           l2810 030F  
                                         l3194 037F                                           l3186 0358  
                                         l2652 0125                                           l2644 011B  
                                         l2548 0E63                                           l2556 0ED6  
                                         l2564 0EC6                                           l3444 02CF  
                                         l2628 0286                                           l2636 0EBD  
                                         l2476 0E66                                           l2484 0E6E  
                                         l2732 00FD                                           l2900 0E9F  
                                         l2740 0591                                           l2708 009E  
                                         l2716 0FB7                                           l2820 033D  
                                         l2812 0314                                           l2804 02FC  
                                         l3196 03A5                                           l3188 0360  
                                         l2494 0E4E                                           l3446 013B  
                                         l2646 011E                                           l2662 012B  
                                         l2558 0EDB                                           l2566 0ECA  
                                         l2590 02DF                                           l2582 02B6  
                                         l2574 02AE                                           l2638 0EBF  
                                         l2478 0E69                                           l2670 0E7A  
                                         l2734 0103                                           l2726 00ED  
                                         l2830 0EFC                                           l2910 0F14  
                                         l2902 0F09                                           l2750 05E9  
                                         l2742 05B2                                           l2718 0FBB  
                                         l2814 0319                                           l2806 0301  
                                         l3198 03B1                                           l2656 0127  
                                         l2592 02EB                                           l2488 0E75  
                                         l2672 0E7D                                           l2680 0E8C  
                                         l2728 00F0                                           l2832 0EFD  
                                         l2920 0059                                           l2904 0F0E  
                                         l2760 0609                                           l2752 05F6  
                                         l2744 05BC                                           l2736 0586  
                                         l2824 0FCA                                           l2816 0325  
                                         l2808 030A                                           l2840 0699  
                                         l2914 0E3F                                           l2498 0E58  
                                         l2594 02F6                                           l2578 02B2  
                                         l2834 0F00                                           l2930 006A  
                                         l2922 005A                                           l2906 0F0F  
                                         l2762 0611                                           l2754 05F9  
                                         l2770 0652                                           l2746 05DB  
                                         l2738 0587                                           l2826 0FD7  
                                         l2818 032A                                           l2850 06EE  
                                         l2842 06AC                                           l2916 0E3C  
                                         l2828 0E42                                           l2596 02F8  
                                         l2588 02BA                                           l2676 0E89  
                                         l2692 00CC                                           l2684 00C1  
                                         l2836 0F03                                           l2932 006D  
                                         l2924 005C                                           l2908 0F11  
                                         l2772 0657                                           l2764 0633  
                                         l2756 0601                                           l2748 05DF  
                                         l2780 04C8                                           l2860 0716  
                                         l2852 06FE                                           l2844 06B2  
                                         l2940 03D4                                           l2678 0E8B  
                                         l2686 00C3                                           l2926 0061  
                                         l2934 0070                                           l2918 0052  
                                         l2766 0643                                           l2758 0605  
                                         l2790 0509                                           l2782 04D2  
                                         l2774 049C                                           l2870 078C  
                                         l2862 071B                                           l2854 0704  
                                         l2846 06D5                                           l2838 0689  
                                         l2950 0408                                           l2942 03DC  
                                         ?_pad 0024                        ?_I2C2_DO_SEND_ADR_WRITE 0070  
                                         l2688 00C8                                           l2928 0065  
                                         l2768 0644                                           l2792 050D  
                                         l2784 04F1                                           l2776 049D  
                                         l2880 07C0                                           l2872 0799  
                                         l2864 0749                                           l2856 0709  
                                         l2848 06E8                                           l2960 0454  
                                         l2952 0410                                           l2944 03E1  
                                         l2698 00D0                                           l2794 0511  
                                         l2786 04FE                                           l2778 04A7  
                                         l2890 07D9                                           l2882 07C5  
                                         l2874 07A6                                           l2866 074D  
                                         l2858 0713                                           l2970 0475  
                                         l2962 045C                                           l2954 0429  
                                         l2946 03E5                                           l2938 03C3  
                                         l2796 0533                                           l2788 0501  
                                         l2884 07CA                                           l2892 07E1  
                                         l2876 07B4                                           l2868 0751  
                                         l2964 0467                                           l2948 03F7  
                                         l2990 0046                                           l2982 002E  
                                         l2798 0543                                           l2886 07D0  
                                         l2878 07B9                                           l2958 0443  
                                         l2974 0478                                           l2896 0EA5  
                                         l2992 004D                                           l2984 0037  
                                         l2888 07D5                                           l2976 0491  
                                         l2968 046D                                           l2898 0EAB  
                                         l2986 0038                                           l2994 017B  
                                         l2988 003F                                           l2996 017F  
                                         l2998 0181                                           STR_1 0850  
                                         STR_2 0800                           _I2C2_MasterOperation 0050  
                                         u1000 0256                                           u1001 0255  
                                         u1010 02AD                                           u1011 02AC  
                                         u1020 02F6                                           u1021 02F5  
                                         u1005 0252                                           u1030 0277  
                                         u1110 05BC                                           u1031 0276  
                                         u1111 05BB                                           u1200 04A7  
                                         u1040 00C0                                           u1201 04A6  
                                         u1041 00BF                                           u1130 05E6  
                                         u1050 0FC3                                           u1051 0FC2  
                                         u1060 0E9E                                           u1140 05F6  
                                         u1220 04D2                                           u1300 0301  
                                         u1061 0E9D                                           u1141 05F5  
                                         u1221 04D1                                           u1301 0300  
                                         u1070 00F5                                           u1150 0609  
                                         u1310 030F                                           u1071 00F4  
                                         u1151 0608                                           u1311 030E  
                                         u1080 00FD                                           u1160 0633  
                                         u1240 04FE                                           u1320 0338  
                                         u1400 06D5                                           u1081 00FC  
                                         u1161 0632                                           u1241 04FD  
                                         u1321 0337                                           u1401 06D4  
                                         u1170 0652                                           u1090 0591  
                                         u1250 0511                                           u1330 033D  
                                         u1410 06E8                                           u1171 0651  
                                         u1091 0590                                           u1251 0510  
                                         u1331 033C                                           u1411 06E7  
                                         u1180 0657                                           u1260 0533  
                                         u1340 0FD7                                           u1500 07C5  
                                         u1420 0704                                           u1181 0656  
                                         u1165 062F                                           u1261 0532  
                                         u1341 0FD6                                           u1325 0334  
                                         u1501 07C4                                           u1421 0703  
                                         _LATA 0016                                           u1350 0F08  
                                         u1270 0551                                           u1510 07D0  
                                         u1430 0709                                           _LATB 0017  
                                         u1351 0F07                                           u1271 0550  
                                         u1511 07CF                                           u1431 0708  
                                         u1415 06E4                                           _LATC 0018  
                                         u1600 0FEB                                           u1520 0F0E  
                                         u1280 0556                                           u1440 078C  
                                         u1360 06A4                                           u1601 0FEA  
                                         u1521 0F0D                                           u1281 0555  
                                         u1265 052F                                           u1345 0FD3  
                                         u1441 078B                                           u1361 06A2  
                                         u1530 0059                                           u1450 0799  
                                         u1370 06A5                                           u1610 0172  
                                         u1531 0058                                           u1451 0798  
                                         u1611 0171                                           u1540 0061  
                                         u1460 07A6                                           u1380 06B2  
                                         u1700 03AF                                           u1541 0060  
                                         u1461 07A5                                           u1445 0788  
                                         u1381 06B1                                           u1701 03AC  
                                         u1470 07B4                                           u1550 03D4  
                                         u1471 07B3                                           u1551 03D3  
                                         u1640 01BD                                           u1480 07B9  
                                         u1560 03F7                                           u1641 01BC  
                                         u1481 07B8                                           u1465 07A2  
                                         u1561 03F6                                           u1650 01E3  
                                         u1490 07C0                                           u1570 0408  
                                         u1714 03B1                                           u1651 01E2  
                                         u1491 07BF                                           u1475 07B0  
                                         u1571 0407                                           u1660 0015  
                                         u1580 0454                                           u1661 0014  
                                         u1581 0453                                           u1590 01EE  
                                         u1591 01ED                                           u1690 0029  
                                         u1691 0028                                           u1675 001A  
                                         u1685 001F                                           u1857 03B7  
                                         _PMD0 0796                                           _PMD1 0797  
                                         _PMD2 0798                                           _PMD3 0799  
                                         _PMD4 079A                                           _PMD5 079B  
                    I2C2_MasterSendTxData@data 0070                                           _WPUA 0F39  
                                         _WPUB 0F44                                           _WPUC 0F4F  
                                         _WPUE 0F65                           ?_I2C2_MasterSendNack 0070  
               __size_of_I2C2_DO_SEND_ADR_READ 0009                        ??_wr2RegCompleteHandler 007A  
                        ?_I2C2_MasterGetRxData 0070                  __end_of_I2C2_DO_SEND_ADR_READ 0EDD  
                                         abs@a 0073                                           _dbuf 00C6  
                                         _main 0353                                           _dtoa 0687  
                                         _prec 00C1                                           _nout 00BD  
                                         pad@i 0028                                           pad@p 0025  
                                         fsr0h 0005                                           fsr1h 0007  
                                         indf0 0000                                           fsr0l 0004  
                                         indf1 0001                                           fsr1l 0006  
                                         pad@w 002A                                           btemp 007E  
                         ??_I2C2_MasterSendAck 0070                                           start 0002  
                    __size_of_I2C2_DO_TX_EMPTY 002F                           ??_I2C2_MasterStartRx 0070  
                             ??_I2C2_MasterFsm 0020                          _I2C2_MasterSendTxData 0E5C  
             __size_of_rdBlkRegCompleteHandler 0018                                          ??_abs 0075  
                                        ??_pad 0027                               ??_I2C2_SetBuffer 0072  
                        ?_I2C2_DO_ADDRESS_NACK 0070                                  ?_EUSART_Write 0070  
               __size_of_OSCILLATOR_Initialize 0009                  __end_of_OSCILLATOR_Initialize 0EEF  
                        ??_I2C2_MasterClearIrq 0070                    ?_I2C2_DO_SEND_RESTART_WRITE 0070  
                              __end_of___aodiv 0687           __end_of_I2C2_SetDataCompleteCallback 0EFC  
        __size_of_I2C2_SetDataCompleteCallback 000D                   _I2C2_SetDataCompleteCallback 0EEF  
                                        ?_main 0070                                          ?_dtoa 0030  
                              __end_of___aomod 0586                              __end_of_I2C2_Open 0220  
                                        _OSCEN 0891                                   vfpfcnvrt@fmt 004E  
                 ?_I2C2_SetAddressNackCallback 0075                                          _TRISA 0011  
                                        _TRISB 0012                                          _TRISC 0013  
                                        _RXPPS 0ECB                         ?_I2C2_MasterDisableIrq 0070  
               __end_of_I2C2_DO_SEND_ADR_WRITE 0ECC                       ?_I2C2_CallbackReturnStop 0079  
                                        _flags 00C3                                          _fputc 0220  
                                        _fputs 0099                          ?_I2C2_MasterOperation 0070  
                                        pad@fp 002C                                          _width 00BF  
                                        _putch 0EB1                          I2C2_Close@returnValue 0071  
                                        dtoa@d 0030                                          dtoa@i 004C  
                                        dtoa@n 0044                                          dtoa@p 003D  
                                        dtoa@s 0042                                          dtoa@w 0040  
            __end_of_I2C2_DO_SEND_RESTART_READ 0E6B                          ??_I2C2_MasterSendNack 0070  
                                        pclath 000A                           _I2C2_DO_RX_NACK_STOP 0E7F  
                                        status 0003                                          wtemp0 007E  
                                 ??_I2C2_DO_RX 007A                                   ??_I2C2_DO_TX 007A  
                                 ??_I2C2_Close 0070                              ??_I2C2_MasterOpen 0070  
                            ??_I2C2_MasterStop 0070                              ??_I2C2_Initialize 0070  
                              __initialization 07F5                                   __end_of_main 03C1  
                                 __end_of_dtoa 07F5                                 ??_EUSART_Write 0070  
          __end_of_I2C2_SetAddressNackCallback 0F23                    _I2C2_SetAddressNackCallback 0F16  
              __size_of_I2C2_Read1ByteRegister 0036                                         ??_main 00EC  
                                       ??_dtoa 0038               __size_of_I2C2_MasterWaitForEvent 0006  
                           __end_of_I2C2_DO_RX 02A5                             __end_of_I2C2_DO_TX 02FA  
                ??_I2C2_SetAddressNackCallback 0078                             __end_of_I2C2_Close 1000  
            _EUSART_DefaultFramingErrorHandler 0000                     _EUSART_OverrunErrorHandler 00E8  
                                       ?_fputc 0072                                         ?_fputs 007A  
                                       _ANSELA 0F38                                         ?_putch 0070  
                                       _ANSELB 0F43                                         _ANSELC 0F4E  
                       ??_I2C2_MasterGetRxData 0070                                         _RC1REG 0119  
                                       _RC0PPS 0F20                          ?_I2C2_DO_RX_NACK_STOP 0070  
                                       _RC1STA 011D                                         _RC3PPS 0F23  
                                       _RC4PPS 0F24                                         _ODCONA 0F3A  
                                       _ODCONB 0F45                                         _ODCONC 0F50  
                                       _INLVLA 0F3C                                         _INLVLB 0F47  
                                       _INLVLC 0F52                                         _INLVLE 0F68  
                                       u110lld 05B0                                         u112lld 05DB  
                                       u121lld 04C6                                         _OSCFRQ 0893  
                                       u123lld 04F1                                         u119lld 0675  
                                       u129lld 0574                                         u139lld 06D0  
                                       _TX1REG 011A                       _I2C2_CallbackReturnReset 0E37  
                                       _TX1STA 011E                         ?_I2C2_MasterSendTxData 0070  
                                 vfprintf@cfmt 0064                           I2C2_SetBuffer@buffer 0073  
                                    ??___aodiv 0070                                      ??___aomod 0070  
                                       ___wmul 000F                         ??_I2C2_DO_ADDRESS_NACK 007A  
                                       _printf 0F87                                         pad@buf 0024  
                                       main@r1 006E                                         main@r2 006F  
                                       dtoa@fp 003F                                         _strlen 0FB1  
              __end_of_I2C2_CallbackReturnStop 0E37                                         fputc@c 0072  
                               _PMD_Initialize 0ECC                                         fputs@c 0020  
                                       fputs@i 0021                                         fputs@s 0023  
                       ??_I2C2_MasterOperation 007D                 I2C2_CallbackReturnReset@funPtr 0079  
                             __end_of_vfprintf 017B                  __size_of_I2C2_DO_SEND_RESTART 0005  
                            _SYSTEM_Initialize 0F33                         _I2C2_Read1ByteRegister 01B0  
                      __end_of__initialization 07FD                              ?_I2C2_MasterClose 0070  
                           ?_SYSTEM_Initialize 0070                              ?_I2C2_MasterStart 0070  
                            ?_I2C2_MasterWrite 0070                       I2C2_SetBuffer@bufferSize 0070  
                           ??_I2C2_MasterClose 0070                               _I2C2_DO_TX_EMPTY 011B  
                                ??_I2C2_Poller 007D                        _rdBlkRegCompleteHandler 0F99  
                           ??_I2C2_MasterStart 0070                             ??_I2C2_MasterWrite 007E  
                               __pcstackCOMMON 0070                            ??_SYSTEM_Initialize 0072  
                                __end_of_fputc 025F                                  __end_of_fputs 00C1  
                                __end_of_putch 0EB7                         __end_of_PMD_Initialize 0ED4  
                I2C2_Read1ByteRegister@address 0027                              ?_I2C2_SetCallback 0070  
                           ??_I2C2_SetCallback 0073                ??_EUSART_SetOverrunErrorHandler 0072  
                       ??_I2C2_DO_RX_NACK_STOP 0070                                        ??_fputc 0075  
                    __end_of_SYSTEM_Initialize 0F43                                        ??_fputs 007B  
                        __end_of_I2C2_DO_RESET 0E8E                    ??_I2C2_DO_SEND_RESTART_READ 0070  
                                      ??_putch 0071                                     __pbssBANK1 00A0  
                         __end_of_EUSART_Write 000F                 __size_of_rd2RegCompleteHandler 0011  
                __end_of_rd2RegCompleteHandler 0F76                 __size_of_wr2RegCompleteHandler 0011  
                __end_of_wr2RegCompleteHandler 0F54                          _rd1RegCompleteHandler 0F54  
                        _wr1RegCompleteHandler 0F76                                     __pmaintext 0353  
                     rd1RegCompleteHandler@ptr 0079                                        ?___wmul 0070  
                          __end_of_I2C2_Poller 0F09                        _I2C2_MasterWaitForEvent 0E99  
                                      ?_printf 0066                                ?_PMD_Initialize 0070  
                                      ?_strlen 0070                        ??_I2C2_MasterDisableIrq 0070  
                   __end_of_i2c2_fsmStateTable 0850                                        _SP1BRGH 011C  
                                      _SP1BRGL 011B              __size_of_I2C2_MasterEnableRestart 0003  
                                      _OSCCON1 088D                                        _OSCCON3 088F  
                                    _I2C2_Open 01E6                             __size_of_vfpfcnvrt 00DB  
                    ?_I2C2_MasterEnableRestart 0070                        __size_of_I2C2_DO_RX_ACK 0005  
                                      _OSCTUNE 0892                                        _SSP2ADD 0197  
                                      _SLRCONA 0F3B                                        _SLRCONB 0F46  
                                      _SLRCONC 0F51                                        _SSP2BUF 0196  
                     ??_EUSART_SetErrorHandler 0072                                _I2C2_MasterOpen 0F09  
                              _I2C2_MasterStop 0E48                                _I2C2_Initialize 0EDD  
                    ??_rdBlkRegCompleteHandler 007A                    __size_of_I2C2_MasterSendAck 0004  
                        _I2C2_DO_SEND_ADR_READ 0ED4               __size_of_I2C2_CallbackReturnStop 0002  
                  __size_of_I2C2_MasterStartRx 0003                    __end_of_I2C2_MasterClearIrq 0E3C  
                                      ___aodiv 0586                      _I2C2_DO_SEND_RESTART_READ 0E66  
                                      ___aomod 049C                                __size_of___wmul 001F  
                                    ?_vfprintf 005E                                        __ptext1 0F87  
                                      __ptext2 014A                                        __ptext3 03C1  
                                      __ptext4 0687                                        __ptext5 02FA  
                                      __ptext6 0FB1                                        __ptext7 0099  
                                      __ptext8 0220                                        __ptext9 0EB1  
                                ?_I2C2_DO_IDLE 0070                                __size_of_printf 0012  
                                ?_I2C2_DO_RCEN 0070                       ?_I2C2_DO_RX_NACK_RESTART 0070  
                              __size_of_strlen 0019                          _OSCILLATOR_Initialize 0EE6  
                                 __size_of_abs 001A                                   __size_of_pad 0059  
                  __end_of_I2C2_MasterSendNack 0E58                       ??_PIN_MANAGER_Initialize 0070  
                     wr1RegCompleteHandler@ptr 0079                     ??_I2C2_CallbackReturnReset 007A  
                                   ?_I2C2_Open 0070                     __size_of_SYSTEM_Initialize 0010  
                I2C2_CallbackReturnStop@funPtr 0079                                        clrloop0 0EB8  
                         end_of_initialization 07FD          __end_of_EUSART_SetOverrunErrorHandler 0EB1  
       __size_of_EUSART_SetOverrunErrorHandler 0006                  _EUSART_SetOverrunErrorHandler 0EAB  
                                      fputc@fp 0074                        ??_I2C2_MasterSendTxData 0070  
                                      fputs@fp 007A                         ?_rd1RegCompleteHandler 0079  
                            _EUSART_Initialize 002E                         ?_wr1RegCompleteHandler 0079  
                                  _I2C2_Poller 0EFC                              _I2C2_DO_SEND_STOP 0E75  
                           ?_EUSART_Initialize 0070                                    _I2C2_Status 00A0  
                            __end_of_vfpfcnvrt 049C                      ??_I2C2_MasterWaitForEvent 0070  
                           ?_I2C2_DO_SEND_STOP 0070                                     ??_vfprintf 0061  
                                      strlen@a 0073                                        strlen@s 0074  
                               ??_I2C2_DO_IDLE 0070                            ??_EUSART_Initialize 0072  
                               ??_I2C2_DO_RCEN 0070                           I2C2_Open@returnValue 0072  
              __end_of_rdBlkRegCompleteHandler 0FB1                            ??_I2C2_DO_SEND_STOP 0070  
                      __size_of_I2C2_MasterFsm 002E                        __end_of_I2C2_MasterOpen 0F16  
                      __end_of_I2C2_MasterStop 0E4B                        __end_of_I2C2_Initialize 0EE6  
                     __end_of_I2C2_DO_TX_EMPTY 014A                              _I2C2_MasterIsNack 0E93  
                        __size_of_EUSART_Write 000A                        __size_of_I2C2_SetBuffer 0010  
                            _I2C2_MasterSetIrq 0E51                        ?_I2C2_Read1ByteRegister 0025  
                           ?_I2C2_MasterIsNack 0070                __size_of_EUSART_SetErrorHandler 0006  
                           ?_I2C2_MasterSetIrq 0070                      __end_of_EUSART_Initialize 0050  
                __size_of_I2C2_MasterGetRxData 0003                         ?_I2C2_DO_SEND_ADR_READ 0070  
                   rdBlkRegCompleteHandler@ptr 0079                            ??_I2C2_MasterIsNack 0070  
                    __end_of_I2C2_DO_SEND_STOP 0E7A                            ??_I2C2_MasterSetIrq 0070  
              __end_of_I2C2_DO_RX_NACK_RESTART 0E89                   __end_of_I2C2_DO_SEND_RESTART 0E75  
                     I2C2_MasterOperation@read 0023                     _EUSART_DefaultErrorHandler 0000  
                                  vfpfcnvrt@ap 004F                                    vfpfcnvrt@fp 005D  
                                  vfpfcnvrt@ll 0055                                 __end_of___wmul 002E  
                __size_of_I2C2_DO_ADDRESS_NACK 002C                                   _EUSART_Write 0005  
                    __size_of_I2C2_MasterClose 0003                         ?_OSCILLATOR_Initialize 0070  
                     ??_I2C2_DO_SEND_ADR_WRITE 0071                      __size_of_I2C2_MasterStart 0003  
                    __size_of_I2C2_MasterWrite 0005                      __end_of_I2C2_MasterIsNack 0E99  
                               __end_of_printf 0F99                                 __end_of_strlen 0FCA  
                          start_initialization 07F5                      __end_of_I2C2_MasterSetIrq 0E54  
                               _I2C2_DO_RX_ACK 0E7A                 __end_of_I2C2_Read1ByteRegister 01E6  
                                  ??_I2C2_Open 0070                __size_of_PIN_MANAGER_Initialize 0035  
                                  __end_of_abs 0FE4                                    __end_of_pad 0353  
                ?_I2C2_SetDataCompleteCallback 0075                                    putch@txData 0071  
                __size_of_I2C2_MasterOperation 0023                      __size_of_I2C2_SetCallback 0026  
                      _I2C2_CallbackReturnStop 0E35                 ?_EUSART_SetOverrunErrorHandler 0070  
                                  vfprintf@fmt 005E                     _EUSART_FramingErrorHandler 00EA  
                             ??_PMD_Initialize 0070                                       ??___wmul 0074  
                       _EUSART_SetErrorHandler 0E9F               __end_of_I2C2_MasterEnableRestart 0E48  
                                     ??_printf 006C                   ??_I2C2_DO_SEND_RESTART_WRITE 0070  
                                     ??_strlen 0072                         __end_of_I2C2_DO_RX_ACK 0E7F  
                             ?_I2C2_MasterOpen 0070                               ?_I2C2_MasterStop 0070  
                             ?_I2C2_Initialize 0070                 __size_of_I2C2_MasterDisableIrq 0003  
                                    ___latbits 0002                 I2C2_SetAddressNackCallback@ptr 0077  
                __end_of_I2C2_MasterDisableIrq 0E42                                  __pcstackBANK0 0020  
                                __pcstackBANK1 00EC                               ___aodiv@dividend 0028  
                __size_of_I2C2_DO_RX_NACK_STOP 0005                     __size_of_EUSART_Initialize 0022  
                         __end_of_I2C2_DO_IDLE 0E66                           __end_of_I2C2_DO_RCEN 0EC4  
                           _i2c2_fsmStateTable 0830                     __size_of_I2C2_DO_SEND_STOP 0005  
                                    __pnvBANK1 00E6                          _rd2RegCompleteHandler 0F65  
                       _PIN_MANAGER_Initialize 017B                                      _dtoa$1724 003B  
                        _wr2RegCompleteHandler 0F43            __size_of_I2C2_DO_SEND_RESTART_WRITE 0005  
                     rd2RegCompleteHandler@ptr 0079                                       ?___aodiv 0020  
                                     ?___aomod 0020              I2C2_Read1ByteRegister@returnValue 0028  
                             ___aodiv@quotient 0073                         __size_of_I2C2_DO_RESET 0005  
                            __size_of_vfprintf 0031                                 _I2C2_MasterFsm 00ED  
                                     _BAUD1CON 011F                                ?_I2C2_DO_RX_ACK 0070  
              __size_of_I2C2_DO_SEND_ADR_WRITE 0008                     __size_of_I2C2_MasterIsNack 0006  
                   __size_of_I2C2_MasterSetIrq 0003                                 _I2C2_SetBuffer 0F23  
                               __size_of_fputc 003F                                 __size_of_fputs 0028  
                      ??_rd1RegCompleteHandler 007A                                 __size_of_putch 0006  
                         _I2C2_DO_SEND_RESTART 0E70                     __end_of_I2C2_MasterSendAck 0E5C  
                      ??_wr1RegCompleteHandler 007A               __size_of_I2C2_DO_RX_NACK_RESTART 0005  
                    ??_I2C2_CallbackReturnStop 007A                 ??_I2C2_SetDataCompleteCallback 0078  
              I2C2_MasterOperation@returnValue 0024                                 ___wmul@product 0074  
                                     _LATAbits 0016         EUSART_SetErrorHandler@interruptHandler 0070  
                                   _I2C2_DO_RX 025F                                     _I2C2_DO_TX 02A5  
                   __end_of_I2C2_MasterStartRx 0E4E                                      clear_ram0 0EB7  
               __size_of_I2C2_MasterSendTxData 0005                                       _PIE3bits 0719  
                            _eusartRxLastError 00C5                  __end_of_I2C2_MasterSendTxData 0E61  
                                   _I2C2_Close 0FE4                                   ?_I2C2_Poller 0070  
              ??_EUSART_SetFramingErrorHandler 0072                                       _PIR3bits 070F  
                                     _SSP2CON1 019A                                       _SSP2CON2 019B  
            _EUSART_DefaultOverrunErrorHandler 0000                                       _SSP2STAT 0199  
                       __end_of_I2C2_MasterFsm 011B                                      _vfpfcnvrt 03C1  
                             _I2C2_MasterClose 0E3C                              ___wmul@multiplier 0070  
                             _I2C2_MasterStart 0E42                       _I2C2_MasterEnableRestart 0E45  
                 __size_of_I2C2_MasterClearIrq 0003                               _I2C2_MasterWrite 0E8E  
                             I2C2_Open@address 0071                         __end_of_I2C2_SetBuffer 0F33  
                            ?_I2C2_DO_TX_EMPTY 0070                       wr2RegCompleteHandler@ptr 0079  
                           ??_I2C2_DO_TX_EMPTY 007A                        ??_I2C2_DO_SEND_ADR_READ 0070  
                     ?_rdBlkRegCompleteHandler 0079                          ?_I2C2_DO_SEND_RESTART 0070  
                                _I2C2_DO_RESET 0E89                   __size_of_I2C2_MasterSendNack 0004  
                             _I2C2_SetCallback 0073                         ?_rd2RegCompleteHandler 0079  
                       _I2C2_DO_SEND_ADR_WRITE 0EC4                         ?_wr2RegCompleteHandler 0079  
            __size_of_I2C2_CallbackReturnReset 0002                      ?_I2C2_CallbackReturnReset 0079  
                                   vfprintf@ap 0060                                     vfprintf@fp 0063  
                      ??_OSCILLATOR_Initialize 0070                            _EUSART_ErrorHandler 00E6  
                             __size_of___aodiv 0101                               __size_of___aomod 00EA  
                              ?_I2C2_MasterFsm 0070                                     ?_vfpfcnvrt 004E  
                 __end_of_I2C2_MasterGetRxData 0E51             __end_of_I2C2_DO_SEND_RESTART_WRITE 0E70  
                   _I2C2_DO_SEND_RESTART_WRITE 0E6B                                ___aodiv@divisor 0020  
                              ___aodiv@counter 0071                                ?_I2C2_SetBuffer 0070  
                    I2C2_Read1ByteRegister@reg 0025                                       __ptext10 0005  
                                     __ptext11 0FCA                                       __ptext20 002E  
                                     __ptext12 049C                                       __ptext21 0EAB  
                                     __ptext13 0586                                       __ptext30 0EFC  
                                     __ptext22 0EA5                                       __ptext14 000F  
                                     __ptext31 0E99                                       __ptext23 0E9F  
                                     __ptext15 0F33                                       __ptext40 0E6B  
                                     __ptext32 00ED                                       __ptext24 01B0  
                                     __ptext16 0ECC                                       __ptext41 0E66  
                                     __ptext33 00C1                                       __ptext25 0F16  
                                     __ptext17 017B                                       __ptext50 0E93  
                                     __ptext42 0EBD                                       __ptext34 0E89  
                                     __ptext26 01E6                                       __ptext18 0EE6  
                                     __ptext51 0E5C                                       __ptext43 025F  
                                     __ptext35 0E84                                       __ptext27 0F09  
                                     __ptext19 0EDD                                       __ptext60 0F65  
                                     __ptext52 0E58                                       __ptext44 02A5  
                                     __ptext36 0E7F                                       __ptext28 0E8E  
                                     __ptext61 0F54                                       __ptext53 0E4E  
                                     __ptext45 0EC4                                       __ptext37 0E7A  
                                     __ptext29 0050                                       __ptext70 0E3F  
                                     __ptext62 0F43                                       __ptext54 0E54  
                                     __ptext46 0ED4                                       __ptext38 0E75  
                                     __ptext71 0E3C                                       __ptext63 0EEF  
                                     __ptext55 0E4B                                       __ptext47 0E61  
                                     __ptext39 0E70                                       __ptext72 0E39  
                                     __ptext64 0073                                       __ptext56 0E37  
                                     __ptext48 011B                                       __ptext65 0F23  
                                     __ptext57 0E35                                       __ptext49 0E51  
                                     __ptext66 0E48                                       __ptext58 0F99  
                                     __ptext67 0E45                                       __ptext59 0F76  
                                     __ptext68 0E42                                       __ptext69 0FE4  
                        __size_of_I2C2_DO_IDLE 0005                          __size_of_I2C2_DO_RCEN 0007  
                               ?_I2C2_DO_RESET 0070                                   _SSP2CON1bits 019A  
                                 _SSP2CON2bits 019B                   __end_of_I2C2_DO_ADDRESS_NACK 00ED  
         __size_of_I2C2_SetAddressNackCallback 000D                                  __size_of_main 006E  
                                __size_of_dtoa 016E                                    ?_I2C2_DO_RX 0070  
                                  ?_I2C2_DO_TX 0070                       ?_I2C2_MasterWaitForEvent 0070  
                                  ?_I2C2_Close 0070                        ?_EUSART_SetErrorHandler 0070  
                          I2C2_SetCallback@idx 0074                            I2C2_SetCallback@ptr 0072  
                                   _RC1STAbits 011D  EUSART_SetOverrunErrorHandler@interruptHandler 0070  
                 __end_of_I2C2_MasterOperation 0073                                       _vfprintf 014A  
                                    printf@fmt 0066          __end_of_EUSART_SetFramingErrorHandler 0EAB  
       __size_of_EUSART_SetFramingErrorHandler 0006                  _EUSART_SetFramingErrorHandler 0EA5  
                                 _SSP2STATbits 0199                               ___aomod@dividend 0028  
                                 _I2C2_DO_IDLE 0E61                                   _I2C2_DO_RCEN 0EBD  
                       ??_I2C2_DO_SEND_RESTART 0070                        _I2C2_DO_RX_NACK_RESTART 0E84  
                      ?_PIN_MANAGER_Initialize 0070                 __end_of_EUSART_SetErrorHandler 0EA5  
                           I2C2_SetCallback@cb 0070                                       printf@ap 006D  
                         __size_of_I2C2_Poller 000D                               ??_I2C2_DO_RX_ACK 0070  
EUSART_SetFramingErrorHandler@interruptHandler 0070                   __end_of_I2C2_DO_RX_NACK_STOP 0E84  
                              ___aomod@divisor 0020                                    ??_vfpfcnvrt 0050  
                              ___aomod@counter 0071                                  __pstringtext1 0830  
                                __pstringtext2 0800                                  __pstringtext3 0850  
                                __pstringtext4 0000                                     _SSP2DATPPS 0EC9  
                                   _SSP2CLKPPS 0EC8                            __size_of_I2C2_DO_RX 0046  
                          __size_of_I2C2_DO_TX 0055                I2C2_SetDataCompleteCallback@ptr 0077  
                          __size_of_I2C2_Close 001C                                ??_I2C2_DO_RESET 0070  
                                   _TX1STAbits 011E                          _I2C2_MasterDisableIrq 0E3F  
                           EUSART_Write@txData 0070                                   ___aodiv@sign 0072  
              __end_of_I2C2_MasterWaitForEvent 0E9F                 __end_of_PIN_MANAGER_Initialize 01B0  
               I2C2_SetDataCompleteCallback@cb 0075                       __size_of_I2C2_MasterOpen 000D  
               __size_of_rd1RegCompleteHandler 0011                       __size_of_I2C2_MasterStop 0003  
                     __size_of_I2C2_Initialize 0009                  __end_of_rd1RegCompleteHandler 0F65  
                     __end_of_I2C2_MasterClose 0E3F                             __size_of_I2C2_Open 003A  
                         _I2C2_MasterGetRxData 0E4E                            _I2C2_MasterClearIrq 0E39  
               __size_of_wr1RegCompleteHandler 0011                       __end_of_I2C2_MasterStart 0E45  
                     __end_of_I2C2_MasterWrite 0E93                  __end_of_wr1RegCompleteHandler 0F87  
                                 ___aomod@sign 0072                     ??_I2C2_MasterEnableRestart 0070  
