

Microchip MPLAB XC8 Assembler V2.32 build 20210201212658 
                                                                                               Thu Aug 04 13:47:45 2022

Microchip MPLAB XC8 C Compiler v2.32 (Free license) build 20210201212658 Og1 
     1                           	processor	16F18855
     2                           	pagewidth 120
     3                           	opt	flic
     4                           	psect	idataBANK0,global,class=CODE,delta=2,noexec
     5                           	psect	stringtext1,global,class=STRCODE,delta=2,noexec
     6                           	psect	stringtext2,global,class=STRCODE,delta=2,noexec
     7                           	psect	stringtext3,global,class=STRCODE,delta=2,noexec
     8                           	psect	stringtext4,global,class=STRCODE,delta=2,noexec
     9                           	psect	stringtext5,global,class=STRCODE,delta=2,noexec
    10                           	psect	cinit,global,class=CODE,merge=1,delta=2
    11                           	psect	bssCOMMON,global,class=COMMON,space=1,delta=1,noexec
    12                           	psect	bssBANK0,global,class=BANK0,space=1,delta=1,noexec
    13                           	psect	dataBANK0,global,class=BANK0,space=1,delta=1,noexec
    14                           	psect	clrtext,global,class=CODE,delta=2
    15                           	psect	cstackCOMMON,global,class=COMMON,space=1,delta=1,noexec
    16                           	psect	cstackBANK0,global,class=BANK0,space=1,delta=1,noexec
    17                           	psect	maintext,global,class=CODE,merge=1,split=1,delta=2
    18                           	psect	text1,local,class=CODE,merge=1,delta=2,group=3
    19                           	psect	text2,local,class=CODE,merge=1,delta=2,group=1
    20                           	psect	text3,local,class=CODE,merge=1,delta=2,group=1
    21                           	psect	text4,local,class=CODE,merge=1,delta=2,group=3
    22                           	psect	text5,local,class=CODE,merge=1,delta=2
    23                           	psect	text6,local,class=CODE,merge=1,delta=2
    24                           	psect	text7,local,class=CODE,merge=1,delta=2
    25                           	psect	text8,local,class=CODE,merge=1,delta=2
    26                           	psect	text9,local,class=CODE,merge=1,delta=2,group=2
    27                           	psect	text10,local,class=CODE,merge=1,delta=2
    28                           	psect	text11,local,class=CODE,merge=1,delta=2
    29                           	psect	text12,local,class=CODE,merge=1,delta=2
    30                           	psect	text13,local,class=CODE,merge=1,delta=2
    31                           	psect	text14,local,class=CODE,merge=1,delta=2
    32                           	psect	intentry,global,class=CODE,delta=2
    33                           	psect	text16,local,class=CODE,merge=1,delta=2
    34                           	psect	text17,local,class=CODE,merge=1,delta=2
    35                           	psect	idloc,global,abs,ovrld,class=IDLOC,space=5,delta=2,noexec
    36                           	psect	config,global,abs,ovrld,class=CONFIG,space=4,delta=2,noexec
    37                           	dabs	1,0x7E,2
    38  0000                     
    39                           ; Version 2.40
    40                           ; Generated 02/12/2021 GMT
    41                           ; 
    42                           ; Copyright © 2021, Microchip Technology Inc. and its subsidiaries ("Microchip")
    43                           ; All rights reserved.
    44                           ; 
    45                           ; This software is developed by Microchip Technology Inc. and its subsidiaries ("Microch
      +                          ip").
    46                           ; 
    47                           ; Redistribution and use in source and binary forms, with or without modification, are
    48                           ; permitted provided that the following conditions are met:
    49                           ; 
    50                           ;     1. Redistributions of source code must retain the above copyright notice, this lis
      +                          t of
    51                           ;        conditions and the following disclaimer.
    52                           ; 
    53                           ;     2. Redistributions in binary form must reproduce the above copyright notice, this 
      +                          list
    54                           ;        of conditions and the following disclaimer in the documentation and/or other
    55                           ;        materials provided with the distribution. Publication is not required when
    56                           ;        this file is used in an embedded application.
    57                           ; 
    58                           ;     3. Microchip's name may not be used to endorse or promote products derived from th
      +                          is
    59                           ;        software without specific prior written permission.
    60                           ; 
    61                           ; THIS SOFTWARE IS PROVIDED BY MICROCHIP "AS IS" AND ANY EXPRESS OR IMPLIED WARRANTIES,
    62                           ; INCLUDING, BUT NOT LIMITED TO, THE IMPLIED WARRANTIES OF MERCHANTABILITY AND FITNESS F
      +                          OR
    63                           ; PURPOSE ARE DISCLAIMED.  IN NO EVENT SHALL MICROCHIP BE LIABLE FOR ANY DIRECT, INDIREC
      +                          T,
    64                           ; INCIDENTAL, SPECIAL, EXEMPLARY, OR CONSEQUENTIAL DAMAGES (INCLUDING BUT NOT LIMITED TO
    65                           ; PROCUREMENT OF SUBSTITUTE GOODS OR SERVICES; LOSS OF USE, DATA OR PROFITS; OR BUSINESS
    66                           ; INTERRUPTION) HOWSOEVER CAUSED AND ON ANY THEORY OF LIABILITY, WHETHER IN CONTRACT, ST
      +                          RICT
    67                           ; LIABILITY, OR TORT (INCLUDING NEGLIGENCE OR OTHERWISE) ARISING IN ANY WAY OUT OF THE U
      +                          SE OF
    68                           ; THIS SOFTWARE, EVEN IF ADVISED OF THE POSSIBILITY OF SUCH DAMAGE.
    69                           ; 
    70                           ; 
    71                           ; Code-generator required, PIC16F18855 Definitions
    72                           ; 
    73                           ; SFR Addresses
    74  0000                     	;# 
    75  0001                     	;# 
    76  0002                     	;# 
    77  0003                     	;# 
    78  0004                     	;# 
    79  0005                     	;# 
    80  0006                     	;# 
    81  0007                     	;# 
    82  0008                     	;# 
    83  0009                     	;# 
    84  000A                     	;# 
    85  000B                     	;# 
    86  000C                     	;# 
    87  000D                     	;# 
    88  000E                     	;# 
    89  0010                     	;# 
    90  0011                     	;# 
    91  0012                     	;# 
    92  0013                     	;# 
    93  0016                     	;# 
    94  0017                     	;# 
    95  0018                     	;# 
    96  001C                     	;# 
    97  001C                     	;# 
    98  001D                     	;# 
    99  001D                     	;# 
   100  001E                     	;# 
   101  001F                     	;# 
   102  008C                     	;# 
   103  008C                     	;# 
   104  008D                     	;# 
   105  008E                     	;# 
   106  008E                     	;# 
   107  008F                     	;# 
   108  0090                     	;# 
   109  0090                     	;# 
   110  0091                     	;# 
   111  0093                     	;# 
   112  0094                     	;# 
   113  0095                     	;# 
   114  0096                     	;# 
   115  0097                     	;# 
   116  0098                     	;# 
   117  0099                     	;# 
   118  009A                     	;# 
   119  009B                     	;# 
   120  009C                     	;# 
   121  009D                     	;# 
   122  009E                     	;# 
   123  010C                     	;# 
   124  010D                     	;# 
   125  010E                     	;# 
   126  010E                     	;# 
   127  010F                     	;# 
   128  0110                     	;# 
   129  0110                     	;# 
   130  0111                     	;# 
   131  0112                     	;# 
   132  0112                     	;# 
   133  0113                     	;# 
   134  0114                     	;# 
   135  0114                     	;# 
   136  0115                     	;# 
   137  0116                     	;# 
   138  0116                     	;# 
   139  0117                     	;# 
   140  0119                     	;# 
   141  0119                     	;# 
   142  0119                     	;# 
   143  011A                     	;# 
   144  011A                     	;# 
   145  011A                     	;# 
   146  011B                     	;# 
   147  011B                     	;# 
   148  011B                     	;# 
   149  011B                     	;# 
   150  011B                     	;# 
   151  011C                     	;# 
   152  011C                     	;# 
   153  011C                     	;# 
   154  011D                     	;# 
   155  011D                     	;# 
   156  011D                     	;# 
   157  011E                     	;# 
   158  011E                     	;# 
   159  011E                     	;# 
   160  011F                     	;# 
   161  011F                     	;# 
   162  011F                     	;# 
   163  011F                     	;# 
   164  011F                     	;# 
   165  018C                     	;# 
   166  018D                     	;# 
   167  018E                     	;# 
   168  018F                     	;# 
   169  0190                     	;# 
   170  0191                     	;# 
   171  0192                     	;# 
   172  0196                     	;# 
   173  0197                     	;# 
   174  0198                     	;# 
   175  0199                     	;# 
   176  019A                     	;# 
   177  019B                     	;# 
   178  019C                     	;# 
   179  020C                     	;# 
   180  020C                     	;# 
   181  020D                     	;# 
   182  020E                     	;# 
   183  020F                     	;# 
   184  020F                     	;# 
   185  0210                     	;# 
   186  0210                     	;# 
   187  0211                     	;# 
   188  0211                     	;# 
   189  0212                     	;# 
   190  0212                     	;# 
   191  0213                     	;# 
   192  0214                     	;# 
   193  0215                     	;# 
   194  0215                     	;# 
   195  0216                     	;# 
   196  0216                     	;# 
   197  0217                     	;# 
   198  0217                     	;# 
   199  0218                     	;# 
   200  0218                     	;# 
   201  0219                     	;# 
   202  021A                     	;# 
   203  021B                     	;# 
   204  021B                     	;# 
   205  021C                     	;# 
   206  021C                     	;# 
   207  021D                     	;# 
   208  021D                     	;# 
   209  021E                     	;# 
   210  021F                     	;# 
   211  028C                     	;# 
   212  028C                     	;# 
   213  028D                     	;# 
   214  028D                     	;# 
   215  028E                     	;# 
   216  028F                     	;# 
   217  0290                     	;# 
   218  0290                     	;# 
   219  0291                     	;# 
   220  0292                     	;# 
   221  0292                     	;# 
   222  0293                     	;# 
   223  0293                     	;# 
   224  0294                     	;# 
   225  0295                     	;# 
   226  0296                     	;# 
   227  0296                     	;# 
   228  0297                     	;# 
   229  0298                     	;# 
   230  0298                     	;# 
   231  0299                     	;# 
   232  0299                     	;# 
   233  029A                     	;# 
   234  029B                     	;# 
   235  029C                     	;# 
   236  029C                     	;# 
   237  029D                     	;# 
   238  030C                     	;# 
   239  030C                     	;# 
   240  030D                     	;# 
   241  030E                     	;# 
   242  030F                     	;# 
   243  0310                     	;# 
   244  0310                     	;# 
   245  0311                     	;# 
   246  0312                     	;# 
   247  0313                     	;# 
   248  0314                     	;# 
   249  0314                     	;# 
   250  0315                     	;# 
   251  0316                     	;# 
   252  0317                     	;# 
   253  0318                     	;# 
   254  0318                     	;# 
   255  0319                     	;# 
   256  031A                     	;# 
   257  031B                     	;# 
   258  031C                     	;# 
   259  031C                     	;# 
   260  031D                     	;# 
   261  031E                     	;# 
   262  031F                     	;# 
   263  038C                     	;# 
   264  038C                     	;# 
   265  038D                     	;# 
   266  038E                     	;# 
   267  0390                     	;# 
   268  0390                     	;# 
   269  0391                     	;# 
   270  0392                     	;# 
   271  040C                     	;# 
   272  040D                     	;# 
   273  040E                     	;# 
   274  040F                     	;# 
   275  0410                     	;# 
   276  0411                     	;# 
   277  0416                     	;# 
   278  0416                     	;# 
   279  0417                     	;# 
   280  0418                     	;# 
   281  0418                     	;# 
   282  0419                     	;# 
   283  041A                     	;# 
   284  041A                     	;# 
   285  041B                     	;# 
   286  041C                     	;# 
   287  041C                     	;# 
   288  041D                     	;# 
   289  041E                     	;# 
   290  041F                     	;# 
   291  048C                     	;# 
   292  048C                     	;# 
   293  048D                     	;# 
   294  048E                     	;# 
   295  048F                     	;# 
   296  048F                     	;# 
   297  0490                     	;# 
   298  0491                     	;# 
   299  0492                     	;# 
   300  0492                     	;# 
   301  0493                     	;# 
   302  0494                     	;# 
   303  0495                     	;# 
   304  0495                     	;# 
   305  0496                     	;# 
   306  0497                     	;# 
   307  0498                     	;# 
   308  0499                     	;# 
   309  049A                     	;# 
   310  049B                     	;# 
   311  049C                     	;# 
   312  049D                     	;# 
   313  050C                     	;# 
   314  050C                     	;# 
   315  050D                     	;# 
   316  050E                     	;# 
   317  050F                     	;# 
   318  050F                     	;# 
   319  0510                     	;# 
   320  0511                     	;# 
   321  0512                     	;# 
   322  0512                     	;# 
   323  0513                     	;# 
   324  0514                     	;# 
   325  0515                     	;# 
   326  0515                     	;# 
   327  0516                     	;# 
   328  0517                     	;# 
   329  0518                     	;# 
   330  0519                     	;# 
   331  051A                     	;# 
   332  051B                     	;# 
   333  051C                     	;# 
   334  051D                     	;# 
   335  058C                     	;# 
   336  058C                     	;# 
   337  058D                     	;# 
   338  058E                     	;# 
   339  058F                     	;# 
   340  058F                     	;# 
   341  0590                     	;# 
   342  0591                     	;# 
   343  0592                     	;# 
   344  0593                     	;# 
   345  060C                     	;# 
   346  060D                     	;# 
   347  060E                     	;# 
   348  060F                     	;# 
   349  0610                     	;# 
   350  0611                     	;# 
   351  0612                     	;# 
   352  0613                     	;# 
   353  0614                     	;# 
   354  0616                     	;# 
   355  0617                     	;# 
   356  0618                     	;# 
   357  0619                     	;# 
   358  061A                     	;# 
   359  061B                     	;# 
   360  061C                     	;# 
   361  061D                     	;# 
   362  061E                     	;# 
   363  068C                     	;# 
   364  068D                     	;# 
   365  068E                     	;# 
   366  068F                     	;# 
   367  0690                     	;# 
   368  0691                     	;# 
   369  0692                     	;# 
   370  0693                     	;# 
   371  0694                     	;# 
   372  070C                     	;# 
   373  070D                     	;# 
   374  070E                     	;# 
   375  070F                     	;# 
   376  0710                     	;# 
   377  0711                     	;# 
   378  0712                     	;# 
   379  0713                     	;# 
   380  0714                     	;# 
   381  0716                     	;# 
   382  0717                     	;# 
   383  0718                     	;# 
   384  0719                     	;# 
   385  071A                     	;# 
   386  071B                     	;# 
   387  071C                     	;# 
   388  071D                     	;# 
   389  071E                     	;# 
   390  0796                     	;# 
   391  0797                     	;# 
   392  0798                     	;# 
   393  0799                     	;# 
   394  079A                     	;# 
   395  079B                     	;# 
   396  080C                     	;# 
   397  080D                     	;# 
   398  080E                     	;# 
   399  080F                     	;# 
   400  0810                     	;# 
   401  0811                     	;# 
   402  0812                     	;# 
   403  0813                     	;# 
   404  0814                     	;# 
   405  081A                     	;# 
   406  081B                     	;# 
   407  081C                     	;# 
   408  081D                     	;# 
   409  081E                     	;# 
   410  081F                     	;# 
   411  088C                     	;# 
   412  088D                     	;# 
   413  088E                     	;# 
   414  088F                     	;# 
   415  0890                     	;# 
   416  0891                     	;# 
   417  0892                     	;# 
   418  0893                     	;# 
   419  0895                     	;# 
   420  0896                     	;# 
   421  0897                     	;# 
   422  0898                     	;# 
   423  0899                     	;# 
   424  089A                     	;# 
   425  089B                     	;# 
   426  090C                     	;# 
   427  090E                     	;# 
   428  090F                     	;# 
   429  091F                     	;# 
   430  091F                     	;# 
   431  098F                     	;# 
   432  098F                     	;# 
   433  0990                     	;# 
   434  0991                     	;# 
   435  0992                     	;# 
   436  0993                     	;# 
   437  0994                     	;# 
   438  0995                     	;# 
   439  0996                     	;# 
   440  0997                     	;# 
   441  0E0F                     	;# 
   442  0E10                     	;# 
   443  0E11                     	;# 
   444  0E12                     	;# 
   445  0E13                     	;# 
   446  0E14                     	;# 
   447  0E15                     	;# 
   448  0E16                     	;# 
   449  0E17                     	;# 
   450  0E18                     	;# 
   451  0E19                     	;# 
   452  0E1A                     	;# 
   453  0E1B                     	;# 
   454  0E1C                     	;# 
   455  0E1D                     	;# 
   456  0E1E                     	;# 
   457  0E1F                     	;# 
   458  0E20                     	;# 
   459  0E21                     	;# 
   460  0E22                     	;# 
   461  0E23                     	;# 
   462  0E24                     	;# 
   463  0E25                     	;# 
   464  0E26                     	;# 
   465  0E27                     	;# 
   466  0E28                     	;# 
   467  0E29                     	;# 
   468  0E2A                     	;# 
   469  0E2B                     	;# 
   470  0E2C                     	;# 
   471  0E2D                     	;# 
   472  0E2E                     	;# 
   473  0E2F                     	;# 
   474  0E30                     	;# 
   475  0E31                     	;# 
   476  0E32                     	;# 
   477  0E33                     	;# 
   478  0E34                     	;# 
   479  0E35                     	;# 
   480  0E36                     	;# 
   481  0E37                     	;# 
   482  0E8F                     	;# 
   483  0E90                     	;# 
   484  0E91                     	;# 
   485  0E92                     	;# 
   486  0E93                     	;# 
   487  0E94                     	;# 
   488  0E95                     	;# 
   489  0E96                     	;# 
   490  0E97                     	;# 
   491  0E9C                     	;# 
   492  0E9D                     	;# 
   493  0E9E                     	;# 
   494  0EA1                     	;# 
   495  0EA2                     	;# 
   496  0EA3                     	;# 
   497  0EA4                     	;# 
   498  0EA5                     	;# 
   499  0EA9                     	;# 
   500  0EAA                     	;# 
   501  0EAB                     	;# 
   502  0EAC                     	;# 
   503  0EB1                     	;# 
   504  0EB2                     	;# 
   505  0EB3                     	;# 
   506  0EB8                     	;# 
   507  0EB9                     	;# 
   508  0EBA                     	;# 
   509  0EBB                     	;# 
   510  0EBC                     	;# 
   511  0EBD                     	;# 
   512  0EBE                     	;# 
   513  0EC3                     	;# 
   514  0EC5                     	;# 
   515  0EC6                     	;# 
   516  0EC7                     	;# 
   517  0EC8                     	;# 
   518  0EC9                     	;# 
   519  0ECA                     	;# 
   520  0ECB                     	;# 
   521  0ECC                     	;# 
   522  0F10                     	;# 
   523  0F11                     	;# 
   524  0F12                     	;# 
   525  0F13                     	;# 
   526  0F14                     	;# 
   527  0F15                     	;# 
   528  0F16                     	;# 
   529  0F17                     	;# 
   530  0F18                     	;# 
   531  0F19                     	;# 
   532  0F1A                     	;# 
   533  0F1B                     	;# 
   534  0F1C                     	;# 
   535  0F1D                     	;# 
   536  0F1E                     	;# 
   537  0F1F                     	;# 
   538  0F20                     	;# 
   539  0F21                     	;# 
   540  0F22                     	;# 
   541  0F23                     	;# 
   542  0F24                     	;# 
   543  0F25                     	;# 
   544  0F26                     	;# 
   545  0F27                     	;# 
   546  0F38                     	;# 
   547  0F39                     	;# 
   548  0F3A                     	;# 
   549  0F3B                     	;# 
   550  0F3C                     	;# 
   551  0F3D                     	;# 
   552  0F3E                     	;# 
   553  0F3F                     	;# 
   554  0F40                     	;# 
   555  0F41                     	;# 
   556  0F43                     	;# 
   557  0F44                     	;# 
   558  0F45                     	;# 
   559  0F46                     	;# 
   560  0F47                     	;# 
   561  0F48                     	;# 
   562  0F49                     	;# 
   563  0F4A                     	;# 
   564  0F4B                     	;# 
   565  0F4C                     	;# 
   566  0F4E                     	;# 
   567  0F4F                     	;# 
   568  0F50                     	;# 
   569  0F51                     	;# 
   570  0F52                     	;# 
   571  0F53                     	;# 
   572  0F54                     	;# 
   573  0F55                     	;# 
   574  0F56                     	;# 
   575  0F57                     	;# 
   576  0F65                     	;# 
   577  0F68                     	;# 
   578  0F69                     	;# 
   579  0F6A                     	;# 
   580  0F6B                     	;# 
   581  0FE4                     	;# 
   582  0FE5                     	;# 
   583  0FE6                     	;# 
   584  0FE7                     	;# 
   585  0FE8                     	;# 
   586  0FE9                     	;# 
   587  0FEA                     	;# 
   588  0FEB                     	;# 
   589  0FED                     	;# 
   590  0FEE                     	;# 
   591  0FEF                     	;# 
   592  0000                     	;# 
   593  0001                     	;# 
   594  0002                     	;# 
   595  0003                     	;# 
   596  0004                     	;# 
   597  0005                     	;# 
   598  0006                     	;# 
   599  0007                     	;# 
   600  0008                     	;# 
   601  0009                     	;# 
   602  000A                     	;# 
   603  000B                     	;# 
   604  000C                     	;# 
   605  000D                     	;# 
   606  000E                     	;# 
   607  0010                     	;# 
   608  0011                     	;# 
   609  0012                     	;# 
   610  0013                     	;# 
   611  0016                     	;# 
   612  0017                     	;# 
   613  0018                     	;# 
   614  001C                     	;# 
   615  001C                     	;# 
   616  001D                     	;# 
   617  001D                     	;# 
   618  001E                     	;# 
   619  001F                     	;# 
   620  008C                     	;# 
   621  008C                     	;# 
   622  008D                     	;# 
   623  008E                     	;# 
   624  008E                     	;# 
   625  008F                     	;# 
   626  0090                     	;# 
   627  0090                     	;# 
   628  0091                     	;# 
   629  0093                     	;# 
   630  0094                     	;# 
   631  0095                     	;# 
   632  0096                     	;# 
   633  0097                     	;# 
   634  0098                     	;# 
   635  0099                     	;# 
   636  009A                     	;# 
   637  009B                     	;# 
   638  009C                     	;# 
   639  009D                     	;# 
   640  009E                     	;# 
   641  010C                     	;# 
   642  010D                     	;# 
   643  010E                     	;# 
   644  010E                     	;# 
   645  010F                     	;# 
   646  0110                     	;# 
   647  0110                     	;# 
   648  0111                     	;# 
   649  0112                     	;# 
   650  0112                     	;# 
   651  0113                     	;# 
   652  0114                     	;# 
   653  0114                     	;# 
   654  0115                     	;# 
   655  0116                     	;# 
   656  0116                     	;# 
   657  0117                     	;# 
   658  0119                     	;# 
   659  0119                     	;# 
   660  0119                     	;# 
   661  011A                     	;# 
   662  011A                     	;# 
   663  011A                     	;# 
   664  011B                     	;# 
   665  011B                     	;# 
   666  011B                     	;# 
   667  011B                     	;# 
   668  011B                     	;# 
   669  011C                     	;# 
   670  011C                     	;# 
   671  011C                     	;# 
   672  011D                     	;# 
   673  011D                     	;# 
   674  011D                     	;# 
   675  011E                     	;# 
   676  011E                     	;# 
   677  011E                     	;# 
   678  011F                     	;# 
   679  011F                     	;# 
   680  011F                     	;# 
   681  011F                     	;# 
   682  011F                     	;# 
   683  018C                     	;# 
   684  018D                     	;# 
   685  018E                     	;# 
   686  018F                     	;# 
   687  0190                     	;# 
   688  0191                     	;# 
   689  0192                     	;# 
   690  0196                     	;# 
   691  0197                     	;# 
   692  0198                     	;# 
   693  0199                     	;# 
   694  019A                     	;# 
   695  019B                     	;# 
   696  019C                     	;# 
   697  020C                     	;# 
   698  020C                     	;# 
   699  020D                     	;# 
   700  020E                     	;# 
   701  020F                     	;# 
   702  020F                     	;# 
   703  0210                     	;# 
   704  0210                     	;# 
   705  0211                     	;# 
   706  0211                     	;# 
   707  0212                     	;# 
   708  0212                     	;# 
   709  0213                     	;# 
   710  0214                     	;# 
   711  0215                     	;# 
   712  0215                     	;# 
   713  0216                     	;# 
   714  0216                     	;# 
   715  0217                     	;# 
   716  0217                     	;# 
   717  0218                     	;# 
   718  0218                     	;# 
   719  0219                     	;# 
   720  021A                     	;# 
   721  021B                     	;# 
   722  021B                     	;# 
   723  021C                     	;# 
   724  021C                     	;# 
   725  021D                     	;# 
   726  021D                     	;# 
   727  021E                     	;# 
   728  021F                     	;# 
   729  028C                     	;# 
   730  028C                     	;# 
   731  028D                     	;# 
   732  028D                     	;# 
   733  028E                     	;# 
   734  028F                     	;# 
   735  0290                     	;# 
   736  0290                     	;# 
   737  0291                     	;# 
   738  0292                     	;# 
   739  0292                     	;# 
   740  0293                     	;# 
   741  0293                     	;# 
   742  0294                     	;# 
   743  0295                     	;# 
   744  0296                     	;# 
   745  0296                     	;# 
   746  0297                     	;# 
   747  0298                     	;# 
   748  0298                     	;# 
   749  0299                     	;# 
   750  0299                     	;# 
   751  029A                     	;# 
   752  029B                     	;# 
   753  029C                     	;# 
   754  029C                     	;# 
   755  029D                     	;# 
   756  030C                     	;# 
   757  030C                     	;# 
   758  030D                     	;# 
   759  030E                     	;# 
   760  030F                     	;# 
   761  0310                     	;# 
   762  0310                     	;# 
   763  0311                     	;# 
   764  0312                     	;# 
   765  0313                     	;# 
   766  0314                     	;# 
   767  0314                     	;# 
   768  0315                     	;# 
   769  0316                     	;# 
   770  0317                     	;# 
   771  0318                     	;# 
   772  0318                     	;# 
   773  0319                     	;# 
   774  031A                     	;# 
   775  031B                     	;# 
   776  031C                     	;# 
   777  031C                     	;# 
   778  031D                     	;# 
   779  031E                     	;# 
   780  031F                     	;# 
   781  038C                     	;# 
   782  038C                     	;# 
   783  038D                     	;# 
   784  038E                     	;# 
   785  0390                     	;# 
   786  0390                     	;# 
   787  0391                     	;# 
   788  0392                     	;# 
   789  040C                     	;# 
   790  040D                     	;# 
   791  040E                     	;# 
   792  040F                     	;# 
   793  0410                     	;# 
   794  0411                     	;# 
   795  0416                     	;# 
   796  0416                     	;# 
   797  0417                     	;# 
   798  0418                     	;# 
   799  0418                     	;# 
   800  0419                     	;# 
   801  041A                     	;# 
   802  041A                     	;# 
   803  041B                     	;# 
   804  041C                     	;# 
   805  041C                     	;# 
   806  041D                     	;# 
   807  041E                     	;# 
   808  041F                     	;# 
   809  048C                     	;# 
   810  048C                     	;# 
   811  048D                     	;# 
   812  048E                     	;# 
   813  048F                     	;# 
   814  048F                     	;# 
   815  0490                     	;# 
   816  0491                     	;# 
   817  0492                     	;# 
   818  0492                     	;# 
   819  0493                     	;# 
   820  0494                     	;# 
   821  0495                     	;# 
   822  0495                     	;# 
   823  0496                     	;# 
   824  0497                     	;# 
   825  0498                     	;# 
   826  0499                     	;# 
   827  049A                     	;# 
   828  049B                     	;# 
   829  049C                     	;# 
   830  049D                     	;# 
   831  050C                     	;# 
   832  050C                     	;# 
   833  050D                     	;# 
   834  050E                     	;# 
   835  050F                     	;# 
   836  050F                     	;# 
   837  0510                     	;# 
   838  0511                     	;# 
   839  0512                     	;# 
   840  0512                     	;# 
   841  0513                     	;# 
   842  0514                     	;# 
   843  0515                     	;# 
   844  0515                     	;# 
   845  0516                     	;# 
   846  0517                     	;# 
   847  0518                     	;# 
   848  0519                     	;# 
   849  051A                     	;# 
   850  051B                     	;# 
   851  051C                     	;# 
   852  051D                     	;# 
   853  058C                     	;# 
   854  058C                     	;# 
   855  058D                     	;# 
   856  058E                     	;# 
   857  058F                     	;# 
   858  058F                     	;# 
   859  0590                     	;# 
   860  0591                     	;# 
   861  0592                     	;# 
   862  0593                     	;# 
   863  060C                     	;# 
   864  060D                     	;# 
   865  060E                     	;# 
   866  060F                     	;# 
   867  0610                     	;# 
   868  0611                     	;# 
   869  0612                     	;# 
   870  0613                     	;# 
   871  0614                     	;# 
   872  0616                     	;# 
   873  0617                     	;# 
   874  0618                     	;# 
   875  0619                     	;# 
   876  061A                     	;# 
   877  061B                     	;# 
   878  061C                     	;# 
   879  061D                     	;# 
   880  061E                     	;# 
   881  068C                     	;# 
   882  068D                     	;# 
   883  068E                     	;# 
   884  068F                     	;# 
   885  0690                     	;# 
   886  0691                     	;# 
   887  0692                     	;# 
   888  0693                     	;# 
   889  0694                     	;# 
   890  070C                     	;# 
   891  070D                     	;# 
   892  070E                     	;# 
   893  070F                     	;# 
   894  0710                     	;# 
   895  0711                     	;# 
   896  0712                     	;# 
   897  0713                     	;# 
   898  0714                     	;# 
   899  0716                     	;# 
   900  0717                     	;# 
   901  0718                     	;# 
   902  0719                     	;# 
   903  071A                     	;# 
   904  071B                     	;# 
   905  071C                     	;# 
   906  071D                     	;# 
   907  071E                     	;# 
   908  0796                     	;# 
   909  0797                     	;# 
   910  0798                     	;# 
   911  0799                     	;# 
   912  079A                     	;# 
   913  079B                     	;# 
   914  080C                     	;# 
   915  080D                     	;# 
   916  080E                     	;# 
   917  080F                     	;# 
   918  0810                     	;# 
   919  0811                     	;# 
   920  0812                     	;# 
   921  0813                     	;# 
   922  0814                     	;# 
   923  081A                     	;# 
   924  081B                     	;# 
   925  081C                     	;# 
   926  081D                     	;# 
   927  081E                     	;# 
   928  081F                     	;# 
   929  088C                     	;# 
   930  088D                     	;# 
   931  088E                     	;# 
   932  088F                     	;# 
   933  0890                     	;# 
   934  0891                     	;# 
   935  0892                     	;# 
   936  0893                     	;# 
   937  0895                     	;# 
   938  0896                     	;# 
   939  0897                     	;# 
   940  0898                     	;# 
   941  0899                     	;# 
   942  089A                     	;# 
   943  089B                     	;# 
   944  090C                     	;# 
   945  090E                     	;# 
   946  090F                     	;# 
   947  091F                     	;# 
   948  091F                     	;# 
   949  098F                     	;# 
   950  098F                     	;# 
   951  0990                     	;# 
   952  0991                     	;# 
   953  0992                     	;# 
   954  0993                     	;# 
   955  0994                     	;# 
   956  0995                     	;# 
   957  0996                     	;# 
   958  0997                     	;# 
   959  0E0F                     	;# 
   960  0E10                     	;# 
   961  0E11                     	;# 
   962  0E12                     	;# 
   963  0E13                     	;# 
   964  0E14                     	;# 
   965  0E15                     	;# 
   966  0E16                     	;# 
   967  0E17                     	;# 
   968  0E18                     	;# 
   969  0E19                     	;# 
   970  0E1A                     	;# 
   971  0E1B                     	;# 
   972  0E1C                     	;# 
   973  0E1D                     	;# 
   974  0E1E                     	;# 
   975  0E1F                     	;# 
   976  0E20                     	;# 
   977  0E21                     	;# 
   978  0E22                     	;# 
   979  0E23                     	;# 
   980  0E24                     	;# 
   981  0E25                     	;# 
   982  0E26                     	;# 
   983  0E27                     	;# 
   984  0E28                     	;# 
   985  0E29                     	;# 
   986  0E2A                     	;# 
   987  0E2B                     	;# 
   988  0E2C                     	;# 
   989  0E2D                     	;# 
   990  0E2E                     	;# 
   991  0E2F                     	;# 
   992  0E30                     	;# 
   993  0E31                     	;# 
   994  0E32                     	;# 
   995  0E33                     	;# 
   996  0E34                     	;# 
   997  0E35                     	;# 
   998  0E36                     	;# 
   999  0E37                     	;# 
  1000  0E8F                     	;# 
  1001  0E90                     	;# 
  1002  0E91                     	;# 
  1003  0E92                     	;# 
  1004  0E93                     	;# 
  1005  0E94                     	;# 
  1006  0E95                     	;# 
  1007  0E96                     	;# 
  1008  0E97                     	;# 
  1009  0E9C                     	;# 
  1010  0E9D                     	;# 
  1011  0E9E                     	;# 
  1012  0EA1                     	;# 
  1013  0EA2                     	;# 
  1014  0EA3                     	;# 
  1015  0EA4                     	;# 
  1016  0EA5                     	;# 
  1017  0EA9                     	;# 
  1018  0EAA                     	;# 
  1019  0EAB                     	;# 
  1020  0EAC                     	;# 
  1021  0EB1                     	;# 
  1022  0EB2                     	;# 
  1023  0EB3                     	;# 
  1024  0EB8                     	;# 
  1025  0EB9                     	;# 
  1026  0EBA                     	;# 
  1027  0EBB                     	;# 
  1028  0EBC                     	;# 
  1029  0EBD                     	;# 
  1030  0EBE                     	;# 
  1031  0EC3                     	;# 
  1032  0EC5                     	;# 
  1033  0EC6                     	;# 
  1034  0EC7                     	;# 
  1035  0EC8                     	;# 
  1036  0EC9                     	;# 
  1037  0ECA                     	;# 
  1038  0ECB                     	;# 
  1039  0ECC                     	;# 
  1040  0F10                     	;# 
  1041  0F11                     	;# 
  1042  0F12                     	;# 
  1043  0F13                     	;# 
  1044  0F14                     	;# 
  1045  0F15                     	;# 
  1046  0F16                     	;# 
  1047  0F17                     	;# 
  1048  0F18                     	;# 
  1049  0F19                     	;# 
  1050  0F1A                     	;# 
  1051  0F1B                     	;# 
  1052  0F1C                     	;# 
  1053  0F1D                     	;# 
  1054  0F1E                     	;# 
  1055  0F1F                     	;# 
  1056  0F20                     	;# 
  1057  0F21                     	;# 
  1058  0F22                     	;# 
  1059  0F23                     	;# 
  1060  0F24                     	;# 
  1061  0F25                     	;# 
  1062  0F26                     	;# 
  1063  0F27                     	;# 
  1064  0F38                     	;# 
  1065  0F39                     	;# 
  1066  0F3A                     	;# 
  1067  0F3B                     	;# 
  1068  0F3C                     	;# 
  1069  0F3D                     	;# 
  1070  0F3E                     	;# 
  1071  0F3F                     	;# 
  1072  0F40                     	;# 
  1073  0F41                     	;# 
  1074  0F43                     	;# 
  1075  0F44                     	;# 
  1076  0F45                     	;# 
  1077  0F46                     	;# 
  1078  0F47                     	;# 
  1079  0F48                     	;# 
  1080  0F49                     	;# 
  1081  0F4A                     	;# 
  1082  0F4B                     	;# 
  1083  0F4C                     	;# 
  1084  0F4E                     	;# 
  1085  0F4F                     	;# 
  1086  0F50                     	;# 
  1087  0F51                     	;# 
  1088  0F52                     	;# 
  1089  0F53                     	;# 
  1090  0F54                     	;# 
  1091  0F55                     	;# 
  1092  0F56                     	;# 
  1093  0F57                     	;# 
  1094  0F65                     	;# 
  1095  0F68                     	;# 
  1096  0F69                     	;# 
  1097  0F6A                     	;# 
  1098  0F6B                     	;# 
  1099  0FE4                     	;# 
  1100  0FE5                     	;# 
  1101  0FE6                     	;# 
  1102  0FE7                     	;# 
  1103  0FE8                     	;# 
  1104  0FE9                     	;# 
  1105  0FEA                     	;# 
  1106  0FEB                     	;# 
  1107  0FED                     	;# 
  1108  0FEE                     	;# 
  1109  0FEF                     	;# 
  1110  0000                     	;# 
  1111  0001                     	;# 
  1112  0002                     	;# 
  1113  0003                     	;# 
  1114  0004                     	;# 
  1115  0005                     	;# 
  1116  0006                     	;# 
  1117  0007                     	;# 
  1118  0008                     	;# 
  1119  0009                     	;# 
  1120  000A                     	;# 
  1121  000B                     	;# 
  1122  000C                     	;# 
  1123  000D                     	;# 
  1124  000E                     	;# 
  1125  0010                     	;# 
  1126  0011                     	;# 
  1127  0012                     	;# 
  1128  0013                     	;# 
  1129  0016                     	;# 
  1130  0017                     	;# 
  1131  0018                     	;# 
  1132  001C                     	;# 
  1133  001C                     	;# 
  1134  001D                     	;# 
  1135  001D                     	;# 
  1136  001E                     	;# 
  1137  001F                     	;# 
  1138  008C                     	;# 
  1139  008C                     	;# 
  1140  008D                     	;# 
  1141  008E                     	;# 
  1142  008E                     	;# 
  1143  008F                     	;# 
  1144  0090                     	;# 
  1145  0090                     	;# 
  1146  0091                     	;# 
  1147  0093                     	;# 
  1148  0094                     	;# 
  1149  0095                     	;# 
  1150  0096                     	;# 
  1151  0097                     	;# 
  1152  0098                     	;# 
  1153  0099                     	;# 
  1154  009A                     	;# 
  1155  009B                     	;# 
  1156  009C                     	;# 
  1157  009D                     	;# 
  1158  009E                     	;# 
  1159  010C                     	;# 
  1160  010D                     	;# 
  1161  010E                     	;# 
  1162  010E                     	;# 
  1163  010F                     	;# 
  1164  0110                     	;# 
  1165  0110                     	;# 
  1166  0111                     	;# 
  1167  0112                     	;# 
  1168  0112                     	;# 
  1169  0113                     	;# 
  1170  0114                     	;# 
  1171  0114                     	;# 
  1172  0115                     	;# 
  1173  0116                     	;# 
  1174  0116                     	;# 
  1175  0117                     	;# 
  1176  0119                     	;# 
  1177  0119                     	;# 
  1178  0119                     	;# 
  1179  011A                     	;# 
  1180  011A                     	;# 
  1181  011A                     	;# 
  1182  011B                     	;# 
  1183  011B                     	;# 
  1184  011B                     	;# 
  1185  011B                     	;# 
  1186  011B                     	;# 
  1187  011C                     	;# 
  1188  011C                     	;# 
  1189  011C                     	;# 
  1190  011D                     	;# 
  1191  011D                     	;# 
  1192  011D                     	;# 
  1193  011E                     	;# 
  1194  011E                     	;# 
  1195  011E                     	;# 
  1196  011F                     	;# 
  1197  011F                     	;# 
  1198  011F                     	;# 
  1199  011F                     	;# 
  1200  011F                     	;# 
  1201  018C                     	;# 
  1202  018D                     	;# 
  1203  018E                     	;# 
  1204  018F                     	;# 
  1205  0190                     	;# 
  1206  0191                     	;# 
  1207  0192                     	;# 
  1208  0196                     	;# 
  1209  0197                     	;# 
  1210  0198                     	;# 
  1211  0199                     	;# 
  1212  019A                     	;# 
  1213  019B                     	;# 
  1214  019C                     	;# 
  1215  020C                     	;# 
  1216  020C                     	;# 
  1217  020D                     	;# 
  1218  020E                     	;# 
  1219  020F                     	;# 
  1220  020F                     	;# 
  1221  0210                     	;# 
  1222  0210                     	;# 
  1223  0211                     	;# 
  1224  0211                     	;# 
  1225  0212                     	;# 
  1226  0212                     	;# 
  1227  0213                     	;# 
  1228  0214                     	;# 
  1229  0215                     	;# 
  1230  0215                     	;# 
  1231  0216                     	;# 
  1232  0216                     	;# 
  1233  0217                     	;# 
  1234  0217                     	;# 
  1235  0218                     	;# 
  1236  0218                     	;# 
  1237  0219                     	;# 
  1238  021A                     	;# 
  1239  021B                     	;# 
  1240  021B                     	;# 
  1241  021C                     	;# 
  1242  021C                     	;# 
  1243  021D                     	;# 
  1244  021D                     	;# 
  1245  021E                     	;# 
  1246  021F                     	;# 
  1247  028C                     	;# 
  1248  028C                     	;# 
  1249  028D                     	;# 
  1250  028D                     	;# 
  1251  028E                     	;# 
  1252  028F                     	;# 
  1253  0290                     	;# 
  1254  0290                     	;# 
  1255  0291                     	;# 
  1256  0292                     	;# 
  1257  0292                     	;# 
  1258  0293                     	;# 
  1259  0293                     	;# 
  1260  0294                     	;# 
  1261  0295                     	;# 
  1262  0296                     	;# 
  1263  0296                     	;# 
  1264  0297                     	;# 
  1265  0298                     	;# 
  1266  0298                     	;# 
  1267  0299                     	;# 
  1268  0299                     	;# 
  1269  029A                     	;# 
  1270  029B                     	;# 
  1271  029C                     	;# 
  1272  029C                     	;# 
  1273  029D                     	;# 
  1274  030C                     	;# 
  1275  030C                     	;# 
  1276  030D                     	;# 
  1277  030E                     	;# 
  1278  030F                     	;# 
  1279  0310                     	;# 
  1280  0310                     	;# 
  1281  0311                     	;# 
  1282  0312                     	;# 
  1283  0313                     	;# 
  1284  0314                     	;# 
  1285  0314                     	;# 
  1286  0315                     	;# 
  1287  0316                     	;# 
  1288  0317                     	;# 
  1289  0318                     	;# 
  1290  0318                     	;# 
  1291  0319                     	;# 
  1292  031A                     	;# 
  1293  031B                     	;# 
  1294  031C                     	;# 
  1295  031C                     	;# 
  1296  031D                     	;# 
  1297  031E                     	;# 
  1298  031F                     	;# 
  1299  038C                     	;# 
  1300  038C                     	;# 
  1301  038D                     	;# 
  1302  038E                     	;# 
  1303  0390                     	;# 
  1304  0390                     	;# 
  1305  0391                     	;# 
  1306  0392                     	;# 
  1307  040C                     	;# 
  1308  040D                     	;# 
  1309  040E                     	;# 
  1310  040F                     	;# 
  1311  0410                     	;# 
  1312  0411                     	;# 
  1313  0416                     	;# 
  1314  0416                     	;# 
  1315  0417                     	;# 
  1316  0418                     	;# 
  1317  0418                     	;# 
  1318  0419                     	;# 
  1319  041A                     	;# 
  1320  041A                     	;# 
  1321  041B                     	;# 
  1322  041C                     	;# 
  1323  041C                     	;# 
  1324  041D                     	;# 
  1325  041E                     	;# 
  1326  041F                     	;# 
  1327  048C                     	;# 
  1328  048C                     	;# 
  1329  048D                     	;# 
  1330  048E                     	;# 
  1331  048F                     	;# 
  1332  048F                     	;# 
  1333  0490                     	;# 
  1334  0491                     	;# 
  1335  0492                     	;# 
  1336  0492                     	;# 
  1337  0493                     	;# 
  1338  0494                     	;# 
  1339  0495                     	;# 
  1340  0495                     	;# 
  1341  0496                     	;# 
  1342  0497                     	;# 
  1343  0498                     	;# 
  1344  0499                     	;# 
  1345  049A                     	;# 
  1346  049B                     	;# 
  1347  049C                     	;# 
  1348  049D                     	;# 
  1349  050C                     	;# 
  1350  050C                     	;# 
  1351  050D                     	;# 
  1352  050E                     	;# 
  1353  050F                     	;# 
  1354  050F                     	;# 
  1355  0510                     	;# 
  1356  0511                     	;# 
  1357  0512                     	;# 
  1358  0512                     	;# 
  1359  0513                     	;# 
  1360  0514                     	;# 
  1361  0515                     	;# 
  1362  0515                     	;# 
  1363  0516                     	;# 
  1364  0517                     	;# 
  1365  0518                     	;# 
  1366  0519                     	;# 
  1367  051A                     	;# 
  1368  051B                     	;# 
  1369  051C                     	;# 
  1370  051D                     	;# 
  1371  058C                     	;# 
  1372  058C                     	;# 
  1373  058D                     	;# 
  1374  058E                     	;# 
  1375  058F                     	;# 
  1376  058F                     	;# 
  1377  0590                     	;# 
  1378  0591                     	;# 
  1379  0592                     	;# 
  1380  0593                     	;# 
  1381  060C                     	;# 
  1382  060D                     	;# 
  1383  060E                     	;# 
  1384  060F                     	;# 
  1385  0610                     	;# 
  1386  0611                     	;# 
  1387  0612                     	;# 
  1388  0613                     	;# 
  1389  0614                     	;# 
  1390  0616                     	;# 
  1391  0617                     	;# 
  1392  0618                     	;# 
  1393  0619                     	;# 
  1394  061A                     	;# 
  1395  061B                     	;# 
  1396  061C                     	;# 
  1397  061D                     	;# 
  1398  061E                     	;# 
  1399  068C                     	;# 
  1400  068D                     	;# 
  1401  068E                     	;# 
  1402  068F                     	;# 
  1403  0690                     	;# 
  1404  0691                     	;# 
  1405  0692                     	;# 
  1406  0693                     	;# 
  1407  0694                     	;# 
  1408  070C                     	;# 
  1409  070D                     	;# 
  1410  070E                     	;# 
  1411  070F                     	;# 
  1412  0710                     	;# 
  1413  0711                     	;# 
  1414  0712                     	;# 
  1415  0713                     	;# 
  1416  0714                     	;# 
  1417  0716                     	;# 
  1418  0717                     	;# 
  1419  0718                     	;# 
  1420  0719                     	;# 
  1421  071A                     	;# 
  1422  071B                     	;# 
  1423  071C                     	;# 
  1424  071D                     	;# 
  1425  071E                     	;# 
  1426  0796                     	;# 
  1427  0797                     	;# 
  1428  0798                     	;# 
  1429  0799                     	;# 
  1430  079A                     	;# 
  1431  079B                     	;# 
  1432  080C                     	;# 
  1433  080D                     	;# 
  1434  080E                     	;# 
  1435  080F                     	;# 
  1436  0810                     	;# 
  1437  0811                     	;# 
  1438  0812                     	;# 
  1439  0813                     	;# 
  1440  0814                     	;# 
  1441  081A                     	;# 
  1442  081B                     	;# 
  1443  081C                     	;# 
  1444  081D                     	;# 
  1445  081E                     	;# 
  1446  081F                     	;# 
  1447  088C                     	;# 
  1448  088D                     	;# 
  1449  088E                     	;# 
  1450  088F                     	;# 
  1451  0890                     	;# 
  1452  0891                     	;# 
  1453  0892                     	;# 
  1454  0893                     	;# 
  1455  0895                     	;# 
  1456  0896                     	;# 
  1457  0897                     	;# 
  1458  0898                     	;# 
  1459  0899                     	;# 
  1460  089A                     	;# 
  1461  089B                     	;# 
  1462  090C                     	;# 
  1463  090E                     	;# 
  1464  090F                     	;# 
  1465  091F                     	;# 
  1466  091F                     	;# 
  1467  098F                     	;# 
  1468  098F                     	;# 
  1469  0990                     	;# 
  1470  0991                     	;# 
  1471  0992                     	;# 
  1472  0993                     	;# 
  1473  0994                     	;# 
  1474  0995                     	;# 
  1475  0996                     	;# 
  1476  0997                     	;# 
  1477  0E0F                     	;# 
  1478  0E10                     	;# 
  1479  0E11                     	;# 
  1480  0E12                     	;# 
  1481  0E13                     	;# 
  1482  0E14                     	;# 
  1483  0E15                     	;# 
  1484  0E16                     	;# 
  1485  0E17                     	;# 
  1486  0E18                     	;# 
  1487  0E19                     	;# 
  1488  0E1A                     	;# 
  1489  0E1B                     	;# 
  1490  0E1C                     	;# 
  1491  0E1D                     	;# 
  1492  0E1E                     	;# 
  1493  0E1F                     	;# 
  1494  0E20                     	;# 
  1495  0E21                     	;# 
  1496  0E22                     	;# 
  1497  0E23                     	;# 
  1498  0E24                     	;# 
  1499  0E25                     	;# 
  1500  0E26                     	;# 
  1501  0E27                     	;# 
  1502  0E28                     	;# 
  1503  0E29                     	;# 
  1504  0E2A                     	;# 
  1505  0E2B                     	;# 
  1506  0E2C                     	;# 
  1507  0E2D                     	;# 
  1508  0E2E                     	;# 
  1509  0E2F                     	;# 
  1510  0E30                     	;# 
  1511  0E31                     	;# 
  1512  0E32                     	;# 
  1513  0E33                     	;# 
  1514  0E34                     	;# 
  1515  0E35                     	;# 
  1516  0E36                     	;# 
  1517  0E37                     	;# 
  1518  0E8F                     	;# 
  1519  0E90                     	;# 
  1520  0E91                     	;# 
  1521  0E92                     	;# 
  1522  0E93                     	;# 
  1523  0E94                     	;# 
  1524  0E95                     	;# 
  1525  0E96                     	;# 
  1526  0E97                     	;# 
  1527  0E9C                     	;# 
  1528  0E9D                     	;# 
  1529  0E9E                     	;# 
  1530  0EA1                     	;# 
  1531  0EA2                     	;# 
  1532  0EA3                     	;# 
  1533  0EA4                     	;# 
  1534  0EA5                     	;# 
  1535  0EA9                     	;# 
  1536  0EAA                     	;# 
  1537  0EAB                     	;# 
  1538  0EAC                     	;# 
  1539  0EB1                     	;# 
  1540  0EB2                     	;# 
  1541  0EB3                     	;# 
  1542  0EB8                     	;# 
  1543  0EB9                     	;# 
  1544  0EBA                     	;# 
  1545  0EBB                     	;# 
  1546  0EBC                     	;# 
  1547  0EBD                     	;# 
  1548  0EBE                     	;# 
  1549  0EC3                     	;# 
  1550  0EC5                     	;# 
  1551  0EC6                     	;# 
  1552  0EC7                     	;# 
  1553  0EC8                     	;# 
  1554  0EC9                     	;# 
  1555  0ECA                     	;# 
  1556  0ECB                     	;# 
  1557  0ECC                     	;# 
  1558  0F10                     	;# 
  1559  0F11                     	;# 
  1560  0F12                     	;# 
  1561  0F13                     	;# 
  1562  0F14                     	;# 
  1563  0F15                     	;# 
  1564  0F16                     	;# 
  1565  0F17                     	;# 
  1566  0F18                     	;# 
  1567  0F19                     	;# 
  1568  0F1A                     	;# 
  1569  0F1B                     	;# 
  1570  0F1C                     	;# 
  1571  0F1D                     	;# 
  1572  0F1E                     	;# 
  1573  0F1F                     	;# 
  1574  0F20                     	;# 
  1575  0F21                     	;# 
  1576  0F22                     	;# 
  1577  0F23                     	;# 
  1578  0F24                     	;# 
  1579  0F25                     	;# 
  1580  0F26                     	;# 
  1581  0F27                     	;# 
  1582  0F38                     	;# 
  1583  0F39                     	;# 
  1584  0F3A                     	;# 
  1585  0F3B                     	;# 
  1586  0F3C                     	;# 
  1587  0F3D                     	;# 
  1588  0F3E                     	;# 
  1589  0F3F                     	;# 
  1590  0F40                     	;# 
  1591  0F41                     	;# 
  1592  0F43                     	;# 
  1593  0F44                     	;# 
  1594  0F45                     	;# 
  1595  0F46                     	;# 
  1596  0F47                     	;# 
  1597  0F48                     	;# 
  1598  0F49                     	;# 
  1599  0F4A                     	;# 
  1600  0F4B                     	;# 
  1601  0F4C                     	;# 
  1602  0F4E                     	;# 
  1603  0F4F                     	;# 
  1604  0F50                     	;# 
  1605  0F51                     	;# 
  1606  0F52                     	;# 
  1607  0F53                     	;# 
  1608  0F54                     	;# 
  1609  0F55                     	;# 
  1610  0F56                     	;# 
  1611  0F57                     	;# 
  1612  0F65                     	;# 
  1613  0F68                     	;# 
  1614  0F69                     	;# 
  1615  0F6A                     	;# 
  1616  0F6B                     	;# 
  1617  0FE4                     	;# 
  1618  0FE5                     	;# 
  1619  0FE6                     	;# 
  1620  0FE7                     	;# 
  1621  0FE8                     	;# 
  1622  0FE9                     	;# 
  1623  0FEA                     	;# 
  1624  0FEB                     	;# 
  1625  0FED                     	;# 
  1626  0FEE                     	;# 
  1627  0FEF                     	;# 
  1628  0000                     	;# 
  1629  0001                     	;# 
  1630  0002                     	;# 
  1631  0003                     	;# 
  1632  0004                     	;# 
  1633  0005                     	;# 
  1634  0006                     	;# 
  1635  0007                     	;# 
  1636  0008                     	;# 
  1637  0009                     	;# 
  1638  000A                     	;# 
  1639  000B                     	;# 
  1640  000C                     	;# 
  1641  000D                     	;# 
  1642  000E                     	;# 
  1643  0010                     	;# 
  1644  0011                     	;# 
  1645  0012                     	;# 
  1646  0013                     	;# 
  1647  0016                     	;# 
  1648  0017                     	;# 
  1649  0018                     	;# 
  1650  001C                     	;# 
  1651  001C                     	;# 
  1652  001D                     	;# 
  1653  001D                     	;# 
  1654  001E                     	;# 
  1655  001F                     	;# 
  1656  008C                     	;# 
  1657  008C                     	;# 
  1658  008D                     	;# 
  1659  008E                     	;# 
  1660  008E                     	;# 
  1661  008F                     	;# 
  1662  0090                     	;# 
  1663  0090                     	;# 
  1664  0091                     	;# 
  1665  0093                     	;# 
  1666  0094                     	;# 
  1667  0095                     	;# 
  1668  0096                     	;# 
  1669  0097                     	;# 
  1670  0098                     	;# 
  1671  0099                     	;# 
  1672  009A                     	;# 
  1673  009B                     	;# 
  1674  009C                     	;# 
  1675  009D                     	;# 
  1676  009E                     	;# 
  1677  010C                     	;# 
  1678  010D                     	;# 
  1679  010E                     	;# 
  1680  010E                     	;# 
  1681  010F                     	;# 
  1682  0110                     	;# 
  1683  0110                     	;# 
  1684  0111                     	;# 
  1685  0112                     	;# 
  1686  0112                     	;# 
  1687  0113                     	;# 
  1688  0114                     	;# 
  1689  0114                     	;# 
  1690  0115                     	;# 
  1691  0116                     	;# 
  1692  0116                     	;# 
  1693  0117                     	;# 
  1694  0119                     	;# 
  1695  0119                     	;# 
  1696  0119                     	;# 
  1697  011A                     	;# 
  1698  011A                     	;# 
  1699  011A                     	;# 
  1700  011B                     	;# 
  1701  011B                     	;# 
  1702  011B                     	;# 
  1703  011B                     	;# 
  1704  011B                     	;# 
  1705  011C                     	;# 
  1706  011C                     	;# 
  1707  011C                     	;# 
  1708  011D                     	;# 
  1709  011D                     	;# 
  1710  011D                     	;# 
  1711  011E                     	;# 
  1712  011E                     	;# 
  1713  011E                     	;# 
  1714  011F                     	;# 
  1715  011F                     	;# 
  1716  011F                     	;# 
  1717  011F                     	;# 
  1718  011F                     	;# 
  1719  018C                     	;# 
  1720  018D                     	;# 
  1721  018E                     	;# 
  1722  018F                     	;# 
  1723  0190                     	;# 
  1724  0191                     	;# 
  1725  0192                     	;# 
  1726  0196                     	;# 
  1727  0197                     	;# 
  1728  0198                     	;# 
  1729  0199                     	;# 
  1730  019A                     	;# 
  1731  019B                     	;# 
  1732  019C                     	;# 
  1733  020C                     	;# 
  1734  020C                     	;# 
  1735  020D                     	;# 
  1736  020E                     	;# 
  1737  020F                     	;# 
  1738  020F                     	;# 
  1739  0210                     	;# 
  1740  0210                     	;# 
  1741  0211                     	;# 
  1742  0211                     	;# 
  1743  0212                     	;# 
  1744  0212                     	;# 
  1745  0213                     	;# 
  1746  0214                     	;# 
  1747  0215                     	;# 
  1748  0215                     	;# 
  1749  0216                     	;# 
  1750  0216                     	;# 
  1751  0217                     	;# 
  1752  0217                     	;# 
  1753  0218                     	;# 
  1754  0218                     	;# 
  1755  0219                     	;# 
  1756  021A                     	;# 
  1757  021B                     	;# 
  1758  021B                     	;# 
  1759  021C                     	;# 
  1760  021C                     	;# 
  1761  021D                     	;# 
  1762  021D                     	;# 
  1763  021E                     	;# 
  1764  021F                     	;# 
  1765  028C                     	;# 
  1766  028C                     	;# 
  1767  028D                     	;# 
  1768  028D                     	;# 
  1769  028E                     	;# 
  1770  028F                     	;# 
  1771  0290                     	;# 
  1772  0290                     	;# 
  1773  0291                     	;# 
  1774  0292                     	;# 
  1775  0292                     	;# 
  1776  0293                     	;# 
  1777  0293                     	;# 
  1778  0294                     	;# 
  1779  0295                     	;# 
  1780  0296                     	;# 
  1781  0296                     	;# 
  1782  0297                     	;# 
  1783  0298                     	;# 
  1784  0298                     	;# 
  1785  0299                     	;# 
  1786  0299                     	;# 
  1787  029A                     	;# 
  1788  029B                     	;# 
  1789  029C                     	;# 
  1790  029C                     	;# 
  1791  029D                     	;# 
  1792  030C                     	;# 
  1793  030C                     	;# 
  1794  030D                     	;# 
  1795  030E                     	;# 
  1796  030F                     	;# 
  1797  0310                     	;# 
  1798  0310                     	;# 
  1799  0311                     	;# 
  1800  0312                     	;# 
  1801  0313                     	;# 
  1802  0314                     	;# 
  1803  0314                     	;# 
  1804  0315                     	;# 
  1805  0316                     	;# 
  1806  0317                     	;# 
  1807  0318                     	;# 
  1808  0318                     	;# 
  1809  0319                     	;# 
  1810  031A                     	;# 
  1811  031B                     	;# 
  1812  031C                     	;# 
  1813  031C                     	;# 
  1814  031D                     	;# 
  1815  031E                     	;# 
  1816  031F                     	;# 
  1817  038C                     	;# 
  1818  038C                     	;# 
  1819  038D                     	;# 
  1820  038E                     	;# 
  1821  0390                     	;# 
  1822  0390                     	;# 
  1823  0391                     	;# 
  1824  0392                     	;# 
  1825  040C                     	;# 
  1826  040D                     	;# 
  1827  040E                     	;# 
  1828  040F                     	;# 
  1829  0410                     	;# 
  1830  0411                     	;# 
  1831  0416                     	;# 
  1832  0416                     	;# 
  1833  0417                     	;# 
  1834  0418                     	;# 
  1835  0418                     	;# 
  1836  0419                     	;# 
  1837  041A                     	;# 
  1838  041A                     	;# 
  1839  041B                     	;# 
  1840  041C                     	;# 
  1841  041C                     	;# 
  1842  041D                     	;# 
  1843  041E                     	;# 
  1844  041F                     	;# 
  1845  048C                     	;# 
  1846  048C                     	;# 
  1847  048D                     	;# 
  1848  048E                     	;# 
  1849  048F                     	;# 
  1850  048F                     	;# 
  1851  0490                     	;# 
  1852  0491                     	;# 
  1853  0492                     	;# 
  1854  0492                     	;# 
  1855  0493                     	;# 
  1856  0494                     	;# 
  1857  0495                     	;# 
  1858  0495                     	;# 
  1859  0496                     	;# 
  1860  0497                     	;# 
  1861  0498                     	;# 
  1862  0499                     	;# 
  1863  049A                     	;# 
  1864  049B                     	;# 
  1865  049C                     	;# 
  1866  049D                     	;# 
  1867  050C                     	;# 
  1868  050C                     	;# 
  1869  050D                     	;# 
  1870  050E                     	;# 
  1871  050F                     	;# 
  1872  050F                     	;# 
  1873  0510                     	;# 
  1874  0511                     	;# 
  1875  0512                     	;# 
  1876  0512                     	;# 
  1877  0513                     	;# 
  1878  0514                     	;# 
  1879  0515                     	;# 
  1880  0515                     	;# 
  1881  0516                     	;# 
  1882  0517                     	;# 
  1883  0518                     	;# 
  1884  0519                     	;# 
  1885  051A                     	;# 
  1886  051B                     	;# 
  1887  051C                     	;# 
  1888  051D                     	;# 
  1889  058C                     	;# 
  1890  058C                     	;# 
  1891  058D                     	;# 
  1892  058E                     	;# 
  1893  058F                     	;# 
  1894  058F                     	;# 
  1895  0590                     	;# 
  1896  0591                     	;# 
  1897  0592                     	;# 
  1898  0593                     	;# 
  1899  060C                     	;# 
  1900  060D                     	;# 
  1901  060E                     	;# 
  1902  060F                     	;# 
  1903  0610                     	;# 
  1904  0611                     	;# 
  1905  0612                     	;# 
  1906  0613                     	;# 
  1907  0614                     	;# 
  1908  0616                     	;# 
  1909  0617                     	;# 
  1910  0618                     	;# 
  1911  0619                     	;# 
  1912  061A                     	;# 
  1913  061B                     	;# 
  1914  061C                     	;# 
  1915  061D                     	;# 
  1916  061E                     	;# 
  1917  068C                     	;# 
  1918  068D                     	;# 
  1919  068E                     	;# 
  1920  068F                     	;# 
  1921  0690                     	;# 
  1922  0691                     	;# 
  1923  0692                     	;# 
  1924  0693                     	;# 
  1925  0694                     	;# 
  1926  070C                     	;# 
  1927  070D                     	;# 
  1928  070E                     	;# 
  1929  070F                     	;# 
  1930  0710                     	;# 
  1931  0711                     	;# 
  1932  0712                     	;# 
  1933  0713                     	;# 
  1934  0714                     	;# 
  1935  0716                     	;# 
  1936  0717                     	;# 
  1937  0718                     	;# 
  1938  0719                     	;# 
  1939  071A                     	;# 
  1940  071B                     	;# 
  1941  071C                     	;# 
  1942  071D                     	;# 
  1943  071E                     	;# 
  1944  0796                     	;# 
  1945  0797                     	;# 
  1946  0798                     	;# 
  1947  0799                     	;# 
  1948  079A                     	;# 
  1949  079B                     	;# 
  1950  080C                     	;# 
  1951  080D                     	;# 
  1952  080E                     	;# 
  1953  080F                     	;# 
  1954  0810                     	;# 
  1955  0811                     	;# 
  1956  0812                     	;# 
  1957  0813                     	;# 
  1958  0814                     	;# 
  1959  081A                     	;# 
  1960  081B                     	;# 
  1961  081C                     	;# 
  1962  081D                     	;# 
  1963  081E                     	;# 
  1964  081F                     	;# 
  1965  088C                     	;# 
  1966  088D                     	;# 
  1967  088E                     	;# 
  1968  088F                     	;# 
  1969  0890                     	;# 
  1970  0891                     	;# 
  1971  0892                     	;# 
  1972  0893                     	;# 
  1973  0895                     	;# 
  1974  0896                     	;# 
  1975  0897                     	;# 
  1976  0898                     	;# 
  1977  0899                     	;# 
  1978  089A                     	;# 
  1979  089B                     	;# 
  1980  090C                     	;# 
  1981  090E                     	;# 
  1982  090F                     	;# 
  1983  091F                     	;# 
  1984  091F                     	;# 
  1985  098F                     	;# 
  1986  098F                     	;# 
  1987  0990                     	;# 
  1988  0991                     	;# 
  1989  0992                     	;# 
  1990  0993                     	;# 
  1991  0994                     	;# 
  1992  0995                     	;# 
  1993  0996                     	;# 
  1994  0997                     	;# 
  1995  0E0F                     	;# 
  1996  0E10                     	;# 
  1997  0E11                     	;# 
  1998  0E12                     	;# 
  1999  0E13                     	;# 
  2000  0E14                     	;# 
  2001  0E15                     	;# 
  2002  0E16                     	;# 
  2003  0E17                     	;# 
  2004  0E18                     	;# 
  2005  0E19                     	;# 
  2006  0E1A                     	;# 
  2007  0E1B                     	;# 
  2008  0E1C                     	;# 
  2009  0E1D                     	;# 
  2010  0E1E                     	;# 
  2011  0E1F                     	;# 
  2012  0E20                     	;# 
  2013  0E21                     	;# 
  2014  0E22                     	;# 
  2015  0E23                     	;# 
  2016  0E24                     	;# 
  2017  0E25                     	;# 
  2018  0E26                     	;# 
  2019  0E27                     	;# 
  2020  0E28                     	;# 
  2021  0E29                     	;# 
  2022  0E2A                     	;# 
  2023  0E2B                     	;# 
  2024  0E2C                     	;# 
  2025  0E2D                     	;# 
  2026  0E2E                     	;# 
  2027  0E2F                     	;# 
  2028  0E30                     	;# 
  2029  0E31                     	;# 
  2030  0E32                     	;# 
  2031  0E33                     	;# 
  2032  0E34                     	;# 
  2033  0E35                     	;# 
  2034  0E36                     	;# 
  2035  0E37                     	;# 
  2036  0E8F                     	;# 
  2037  0E90                     	;# 
  2038  0E91                     	;# 
  2039  0E92                     	;# 
  2040  0E93                     	;# 
  2041  0E94                     	;# 
  2042  0E95                     	;# 
  2043  0E96                     	;# 
  2044  0E97                     	;# 
  2045  0E9C                     	;# 
  2046  0E9D                     	;# 
  2047  0E9E                     	;# 
  2048  0EA1                     	;# 
  2049  0EA2                     	;# 
  2050  0EA3                     	;# 
  2051  0EA4                     	;# 
  2052  0EA5                     	;# 
  2053  0EA9                     	;# 
  2054  0EAA                     	;# 
  2055  0EAB                     	;# 
  2056  0EAC                     	;# 
  2057  0EB1                     	;# 
  2058  0EB2                     	;# 
  2059  0EB3                     	;# 
  2060  0EB8                     	;# 
  2061  0EB9                     	;# 
  2062  0EBA                     	;# 
  2063  0EBB                     	;# 
  2064  0EBC                     	;# 
  2065  0EBD                     	;# 
  2066  0EBE                     	;# 
  2067  0EC3                     	;# 
  2068  0EC5                     	;# 
  2069  0EC6                     	;# 
  2070  0EC7                     	;# 
  2071  0EC8                     	;# 
  2072  0EC9                     	;# 
  2073  0ECA                     	;# 
  2074  0ECB                     	;# 
  2075  0ECC                     	;# 
  2076  0F10                     	;# 
  2077  0F11                     	;# 
  2078  0F12                     	;# 
  2079  0F13                     	;# 
  2080  0F14                     	;# 
  2081  0F15                     	;# 
  2082  0F16                     	;# 
  2083  0F17                     	;# 
  2084  0F18                     	;# 
  2085  0F19                     	;# 
  2086  0F1A                     	;# 
  2087  0F1B                     	;# 
  2088  0F1C                     	;# 
  2089  0F1D                     	;# 
  2090  0F1E                     	;# 
  2091  0F1F                     	;# 
  2092  0F20                     	;# 
  2093  0F21                     	;# 
  2094  0F22                     	;# 
  2095  0F23                     	;# 
  2096  0F24                     	;# 
  2097  0F25                     	;# 
  2098  0F26                     	;# 
  2099  0F27                     	;# 
  2100  0F38                     	;# 
  2101  0F39                     	;# 
  2102  0F3A                     	;# 
  2103  0F3B                     	;# 
  2104  0F3C                     	;# 
  2105  0F3D                     	;# 
  2106  0F3E                     	;# 
  2107  0F3F                     	;# 
  2108  0F40                     	;# 
  2109  0F41                     	;# 
  2110  0F43                     	;# 
  2111  0F44                     	;# 
  2112  0F45                     	;# 
  2113  0F46                     	;# 
  2114  0F47                     	;# 
  2115  0F48                     	;# 
  2116  0F49                     	;# 
  2117  0F4A                     	;# 
  2118  0F4B                     	;# 
  2119  0F4C                     	;# 
  2120  0F4E                     	;# 
  2121  0F4F                     	;# 
  2122  0F50                     	;# 
  2123  0F51                     	;# 
  2124  0F52                     	;# 
  2125  0F53                     	;# 
  2126  0F54                     	;# 
  2127  0F55                     	;# 
  2128  0F56                     	;# 
  2129  0F57                     	;# 
  2130  0F65                     	;# 
  2131  0F68                     	;# 
  2132  0F69                     	;# 
  2133  0F6A                     	;# 
  2134  0F6B                     	;# 
  2135  0FE4                     	;# 
  2136  0FE5                     	;# 
  2137  0FE6                     	;# 
  2138  0FE7                     	;# 
  2139  0FE8                     	;# 
  2140  0FE9                     	;# 
  2141  0FEA                     	;# 
  2142  0FEB                     	;# 
  2143  0FED                     	;# 
  2144  0FEE                     	;# 
  2145  0FEF                     	;# 
  2146  0000                     	;# 
  2147  0001                     	;# 
  2148  0002                     	;# 
  2149  0003                     	;# 
  2150  0004                     	;# 
  2151  0005                     	;# 
  2152  0006                     	;# 
  2153  0007                     	;# 
  2154  0008                     	;# 
  2155  0009                     	;# 
  2156  000A                     	;# 
  2157  000B                     	;# 
  2158  000C                     	;# 
  2159  000D                     	;# 
  2160  000E                     	;# 
  2161  0010                     	;# 
  2162  0011                     	;# 
  2163  0012                     	;# 
  2164  0013                     	;# 
  2165  0016                     	;# 
  2166  0017                     	;# 
  2167  0018                     	;# 
  2168  001C                     	;# 
  2169  001C                     	;# 
  2170  001D                     	;# 
  2171  001D                     	;# 
  2172  001E                     	;# 
  2173  001F                     	;# 
  2174  008C                     	;# 
  2175  008C                     	;# 
  2176  008D                     	;# 
  2177  008E                     	;# 
  2178  008E                     	;# 
  2179  008F                     	;# 
  2180  0090                     	;# 
  2181  0090                     	;# 
  2182  0091                     	;# 
  2183  0093                     	;# 
  2184  0094                     	;# 
  2185  0095                     	;# 
  2186  0096                     	;# 
  2187  0097                     	;# 
  2188  0098                     	;# 
  2189  0099                     	;# 
  2190  009A                     	;# 
  2191  009B                     	;# 
  2192  009C                     	;# 
  2193  009D                     	;# 
  2194  009E                     	;# 
  2195  010C                     	;# 
  2196  010D                     	;# 
  2197  010E                     	;# 
  2198  010E                     	;# 
  2199  010F                     	;# 
  2200  0110                     	;# 
  2201  0110                     	;# 
  2202  0111                     	;# 
  2203  0112                     	;# 
  2204  0112                     	;# 
  2205  0113                     	;# 
  2206  0114                     	;# 
  2207  0114                     	;# 
  2208  0115                     	;# 
  2209  0116                     	;# 
  2210  0116                     	;# 
  2211  0117                     	;# 
  2212  0119                     	;# 
  2213  0119                     	;# 
  2214  0119                     	;# 
  2215  011A                     	;# 
  2216  011A                     	;# 
  2217  011A                     	;# 
  2218  011B                     	;# 
  2219  011B                     	;# 
  2220  011B                     	;# 
  2221  011B                     	;# 
  2222  011B                     	;# 
  2223  011C                     	;# 
  2224  011C                     	;# 
  2225  011C                     	;# 
  2226  011D                     	;# 
  2227  011D                     	;# 
  2228  011D                     	;# 
  2229  011E                     	;# 
  2230  011E                     	;# 
  2231  011E                     	;# 
  2232  011F                     	;# 
  2233  011F                     	;# 
  2234  011F                     	;# 
  2235  011F                     	;# 
  2236  011F                     	;# 
  2237  018C                     	;# 
  2238  018D                     	;# 
  2239  018E                     	;# 
  2240  018F                     	;# 
  2241  0190                     	;# 
  2242  0191                     	;# 
  2243  0192                     	;# 
  2244  0196                     	;# 
  2245  0197                     	;# 
  2246  0198                     	;# 
  2247  0199                     	;# 
  2248  019A                     	;# 
  2249  019B                     	;# 
  2250  019C                     	;# 
  2251  020C                     	;# 
  2252  020C                     	;# 
  2253  020D                     	;# 
  2254  020E                     	;# 
  2255  020F                     	;# 
  2256  020F                     	;# 
  2257  0210                     	;# 
  2258  0210                     	;# 
  2259  0211                     	;# 
  2260  0211                     	;# 
  2261  0212                     	;# 
  2262  0212                     	;# 
  2263  0213                     	;# 
  2264  0214                     	;# 
  2265  0215                     	;# 
  2266  0215                     	;# 
  2267  0216                     	;# 
  2268  0216                     	;# 
  2269  0217                     	;# 
  2270  0217                     	;# 
  2271  0218                     	;# 
  2272  0218                     	;# 
  2273  0219                     	;# 
  2274  021A                     	;# 
  2275  021B                     	;# 
  2276  021B                     	;# 
  2277  021C                     	;# 
  2278  021C                     	;# 
  2279  021D                     	;# 
  2280  021D                     	;# 
  2281  021E                     	;# 
  2282  021F                     	;# 
  2283  028C                     	;# 
  2284  028C                     	;# 
  2285  028D                     	;# 
  2286  028D                     	;# 
  2287  028E                     	;# 
  2288  028F                     	;# 
  2289  0290                     	;# 
  2290  0290                     	;# 
  2291  0291                     	;# 
  2292  0292                     	;# 
  2293  0292                     	;# 
  2294  0293                     	;# 
  2295  0293                     	;# 
  2296  0294                     	;# 
  2297  0295                     	;# 
  2298  0296                     	;# 
  2299  0296                     	;# 
  2300  0297                     	;# 
  2301  0298                     	;# 
  2302  0298                     	;# 
  2303  0299                     	;# 
  2304  0299                     	;# 
  2305  029A                     	;# 
  2306  029B                     	;# 
  2307  029C                     	;# 
  2308  029C                     	;# 
  2309  029D                     	;# 
  2310  030C                     	;# 
  2311  030C                     	;# 
  2312  030D                     	;# 
  2313  030E                     	;# 
  2314  030F                     	;# 
  2315  0310                     	;# 
  2316  0310                     	;# 
  2317  0311                     	;# 
  2318  0312                     	;# 
  2319  0313                     	;# 
  2320  0314                     	;# 
  2321  0314                     	;# 
  2322  0315                     	;# 
  2323  0316                     	;# 
  2324  0317                     	;# 
  2325  0318                     	;# 
  2326  0318                     	;# 
  2327  0319                     	;# 
  2328  031A                     	;# 
  2329  031B                     	;# 
  2330  031C                     	;# 
  2331  031C                     	;# 
  2332  031D                     	;# 
  2333  031E                     	;# 
  2334  031F                     	;# 
  2335  038C                     	;# 
  2336  038C                     	;# 
  2337  038D                     	;# 
  2338  038E                     	;# 
  2339  0390                     	;# 
  2340  0390                     	;# 
  2341  0391                     	;# 
  2342  0392                     	;# 
  2343  040C                     	;# 
  2344  040D                     	;# 
  2345  040E                     	;# 
  2346  040F                     	;# 
  2347  0410                     	;# 
  2348  0411                     	;# 
  2349  0416                     	;# 
  2350  0416                     	;# 
  2351  0417                     	;# 
  2352  0418                     	;# 
  2353  0418                     	;# 
  2354  0419                     	;# 
  2355  041A                     	;# 
  2356  041A                     	;# 
  2357  041B                     	;# 
  2358  041C                     	;# 
  2359  041C                     	;# 
  2360  041D                     	;# 
  2361  041E                     	;# 
  2362  041F                     	;# 
  2363  048C                     	;# 
  2364  048C                     	;# 
  2365  048D                     	;# 
  2366  048E                     	;# 
  2367  048F                     	;# 
  2368  048F                     	;# 
  2369  0490                     	;# 
  2370  0491                     	;# 
  2371  0492                     	;# 
  2372  0492                     	;# 
  2373  0493                     	;# 
  2374  0494                     	;# 
  2375  0495                     	;# 
  2376  0495                     	;# 
  2377  0496                     	;# 
  2378  0497                     	;# 
  2379  0498                     	;# 
  2380  0499                     	;# 
  2381  049A                     	;# 
  2382  049B                     	;# 
  2383  049C                     	;# 
  2384  049D                     	;# 
  2385  050C                     	;# 
  2386  050C                     	;# 
  2387  050D                     	;# 
  2388  050E                     	;# 
  2389  050F                     	;# 
  2390  050F                     	;# 
  2391  0510                     	;# 
  2392  0511                     	;# 
  2393  0512                     	;# 
  2394  0512                     	;# 
  2395  0513                     	;# 
  2396  0514                     	;# 
  2397  0515                     	;# 
  2398  0515                     	;# 
  2399  0516                     	;# 
  2400  0517                     	;# 
  2401  0518                     	;# 
  2402  0519                     	;# 
  2403  051A                     	;# 
  2404  051B                     	;# 
  2405  051C                     	;# 
  2406  051D                     	;# 
  2407  058C                     	;# 
  2408  058C                     	;# 
  2409  058D                     	;# 
  2410  058E                     	;# 
  2411  058F                     	;# 
  2412  058F                     	;# 
  2413  0590                     	;# 
  2414  0591                     	;# 
  2415  0592                     	;# 
  2416  0593                     	;# 
  2417  060C                     	;# 
  2418  060D                     	;# 
  2419  060E                     	;# 
  2420  060F                     	;# 
  2421  0610                     	;# 
  2422  0611                     	;# 
  2423  0612                     	;# 
  2424  0613                     	;# 
  2425  0614                     	;# 
  2426  0616                     	;# 
  2427  0617                     	;# 
  2428  0618                     	;# 
  2429  0619                     	;# 
  2430  061A                     	;# 
  2431  061B                     	;# 
  2432  061C                     	;# 
  2433  061D                     	;# 
  2434  061E                     	;# 
  2435  068C                     	;# 
  2436  068D                     	;# 
  2437  068E                     	;# 
  2438  068F                     	;# 
  2439  0690                     	;# 
  2440  0691                     	;# 
  2441  0692                     	;# 
  2442  0693                     	;# 
  2443  0694                     	;# 
  2444  070C                     	;# 
  2445  070D                     	;# 
  2446  070E                     	;# 
  2447  070F                     	;# 
  2448  0710                     	;# 
  2449  0711                     	;# 
  2450  0712                     	;# 
  2451  0713                     	;# 
  2452  0714                     	;# 
  2453  0716                     	;# 
  2454  0717                     	;# 
  2455  0718                     	;# 
  2456  0719                     	;# 
  2457  071A                     	;# 
  2458  071B                     	;# 
  2459  071C                     	;# 
  2460  071D                     	;# 
  2461  071E                     	;# 
  2462  0796                     	;# 
  2463  0797                     	;# 
  2464  0798                     	;# 
  2465  0799                     	;# 
  2466  079A                     	;# 
  2467  079B                     	;# 
  2468  080C                     	;# 
  2469  080D                     	;# 
  2470  080E                     	;# 
  2471  080F                     	;# 
  2472  0810                     	;# 
  2473  0811                     	;# 
  2474  0812                     	;# 
  2475  0813                     	;# 
  2476  0814                     	;# 
  2477  081A                     	;# 
  2478  081B                     	;# 
  2479  081C                     	;# 
  2480  081D                     	;# 
  2481  081E                     	;# 
  2482  081F                     	;# 
  2483  088C                     	;# 
  2484  088D                     	;# 
  2485  088E                     	;# 
  2486  088F                     	;# 
  2487  0890                     	;# 
  2488  0891                     	;# 
  2489  0892                     	;# 
  2490  0893                     	;# 
  2491  0895                     	;# 
  2492  0896                     	;# 
  2493  0897                     	;# 
  2494  0898                     	;# 
  2495  0899                     	;# 
  2496  089A                     	;# 
  2497  089B                     	;# 
  2498  090C                     	;# 
  2499  090E                     	;# 
  2500  090F                     	;# 
  2501  091F                     	;# 
  2502  091F                     	;# 
  2503  098F                     	;# 
  2504  098F                     	;# 
  2505  0990                     	;# 
  2506  0991                     	;# 
  2507  0992                     	;# 
  2508  0993                     	;# 
  2509  0994                     	;# 
  2510  0995                     	;# 
  2511  0996                     	;# 
  2512  0997                     	;# 
  2513  0E0F                     	;# 
  2514  0E10                     	;# 
  2515  0E11                     	;# 
  2516  0E12                     	;# 
  2517  0E13                     	;# 
  2518  0E14                     	;# 
  2519  0E15                     	;# 
  2520  0E16                     	;# 
  2521  0E17                     	;# 
  2522  0E18                     	;# 
  2523  0E19                     	;# 
  2524  0E1A                     	;# 
  2525  0E1B                     	;# 
  2526  0E1C                     	;# 
  2527  0E1D                     	;# 
  2528  0E1E                     	;# 
  2529  0E1F                     	;# 
  2530  0E20                     	;# 
  2531  0E21                     	;# 
  2532  0E22                     	;# 
  2533  0E23                     	;# 
  2534  0E24                     	;# 
  2535  0E25                     	;# 
  2536  0E26                     	;# 
  2537  0E27                     	;# 
  2538  0E28                     	;# 
  2539  0E29                     	;# 
  2540  0E2A                     	;# 
  2541  0E2B                     	;# 
  2542  0E2C                     	;# 
  2543  0E2D                     	;# 
  2544  0E2E                     	;# 
  2545  0E2F                     	;# 
  2546  0E30                     	;# 
  2547  0E31                     	;# 
  2548  0E32                     	;# 
  2549  0E33                     	;# 
  2550  0E34                     	;# 
  2551  0E35                     	;# 
  2552  0E36                     	;# 
  2553  0E37                     	;# 
  2554  0E8F                     	;# 
  2555  0E90                     	;# 
  2556  0E91                     	;# 
  2557  0E92                     	;# 
  2558  0E93                     	;# 
  2559  0E94                     	;# 
  2560  0E95                     	;# 
  2561  0E96                     	;# 
  2562  0E97                     	;# 
  2563  0E9C                     	;# 
  2564  0E9D                     	;# 
  2565  0E9E                     	;# 
  2566  0EA1                     	;# 
  2567  0EA2                     	;# 
  2568  0EA3                     	;# 
  2569  0EA4                     	;# 
  2570  0EA5                     	;# 
  2571  0EA9                     	;# 
  2572  0EAA                     	;# 
  2573  0EAB                     	;# 
  2574  0EAC                     	;# 
  2575  0EB1                     	;# 
  2576  0EB2                     	;# 
  2577  0EB3                     	;# 
  2578  0EB8                     	;# 
  2579  0EB9                     	;# 
  2580  0EBA                     	;# 
  2581  0EBB                     	;# 
  2582  0EBC                     	;# 
  2583  0EBD                     	;# 
  2584  0EBE                     	;# 
  2585  0EC3                     	;# 
  2586  0EC5                     	;# 
  2587  0EC6                     	;# 
  2588  0EC7                     	;# 
  2589  0EC8                     	;# 
  2590  0EC9                     	;# 
  2591  0ECA                     	;# 
  2592  0ECB                     	;# 
  2593  0ECC                     	;# 
  2594  0F10                     	;# 
  2595  0F11                     	;# 
  2596  0F12                     	;# 
  2597  0F13                     	;# 
  2598  0F14                     	;# 
  2599  0F15                     	;# 
  2600  0F16                     	;# 
  2601  0F17                     	;# 
  2602  0F18                     	;# 
  2603  0F19                     	;# 
  2604  0F1A                     	;# 
  2605  0F1B                     	;# 
  2606  0F1C                     	;# 
  2607  0F1D                     	;# 
  2608  0F1E                     	;# 
  2609  0F1F                     	;# 
  2610  0F20                     	;# 
  2611  0F21                     	;# 
  2612  0F22                     	;# 
  2613  0F23                     	;# 
  2614  0F24                     	;# 
  2615  0F25                     	;# 
  2616  0F26                     	;# 
  2617  0F27                     	;# 
  2618  0F38                     	;# 
  2619  0F39                     	;# 
  2620  0F3A                     	;# 
  2621  0F3B                     	;# 
  2622  0F3C                     	;# 
  2623  0F3D                     	;# 
  2624  0F3E                     	;# 
  2625  0F3F                     	;# 
  2626  0F40                     	;# 
  2627  0F41                     	;# 
  2628  0F43                     	;# 
  2629  0F44                     	;# 
  2630  0F45                     	;# 
  2631  0F46                     	;# 
  2632  0F47                     	;# 
  2633  0F48                     	;# 
  2634  0F49                     	;# 
  2635  0F4A                     	;# 
  2636  0F4B                     	;# 
  2637  0F4C                     	;# 
  2638  0F4E                     	;# 
  2639  0F4F                     	;# 
  2640  0F50                     	;# 
  2641  0F51                     	;# 
  2642  0F52                     	;# 
  2643  0F53                     	;# 
  2644  0F54                     	;# 
  2645  0F55                     	;# 
  2646  0F56                     	;# 
  2647  0F57                     	;# 
  2648  0F65                     	;# 
  2649  0F68                     	;# 
  2650  0F69                     	;# 
  2651  0F6A                     	;# 
  2652  0F6B                     	;# 
  2653  0FE4                     	;# 
  2654  0FE5                     	;# 
  2655  0FE6                     	;# 
  2656  0FE7                     	;# 
  2657  0FE8                     	;# 
  2658  0FE9                     	;# 
  2659  0FEA                     	;# 
  2660  0FEB                     	;# 
  2661  0FED                     	;# 
  2662  0FEE                     	;# 
  2663  0FEF                     	;# 
  2664  0000                     	;# 
  2665  0001                     	;# 
  2666  0002                     	;# 
  2667  0003                     	;# 
  2668  0004                     	;# 
  2669  0005                     	;# 
  2670  0006                     	;# 
  2671  0007                     	;# 
  2672  0008                     	;# 
  2673  0009                     	;# 
  2674  000A                     	;# 
  2675  000B                     	;# 
  2676  000C                     	;# 
  2677  000D                     	;# 
  2678  000E                     	;# 
  2679  0010                     	;# 
  2680  0011                     	;# 
  2681  0012                     	;# 
  2682  0013                     	;# 
  2683  0016                     	;# 
  2684  0017                     	;# 
  2685  0018                     	;# 
  2686  001C                     	;# 
  2687  001C                     	;# 
  2688  001D                     	;# 
  2689  001D                     	;# 
  2690  001E                     	;# 
  2691  001F                     	;# 
  2692  008C                     	;# 
  2693  008C                     	;# 
  2694  008D                     	;# 
  2695  008E                     	;# 
  2696  008E                     	;# 
  2697  008F                     	;# 
  2698  0090                     	;# 
  2699  0090                     	;# 
  2700  0091                     	;# 
  2701  0093                     	;# 
  2702  0094                     	;# 
  2703  0095                     	;# 
  2704  0096                     	;# 
  2705  0097                     	;# 
  2706  0098                     	;# 
  2707  0099                     	;# 
  2708  009A                     	;# 
  2709  009B                     	;# 
  2710  009C                     	;# 
  2711  009D                     	;# 
  2712  009E                     	;# 
  2713  010C                     	;# 
  2714  010D                     	;# 
  2715  010E                     	;# 
  2716  010E                     	;# 
  2717  010F                     	;# 
  2718  0110                     	;# 
  2719  0110                     	;# 
  2720  0111                     	;# 
  2721  0112                     	;# 
  2722  0112                     	;# 
  2723  0113                     	;# 
  2724  0114                     	;# 
  2725  0114                     	;# 
  2726  0115                     	;# 
  2727  0116                     	;# 
  2728  0116                     	;# 
  2729  0117                     	;# 
  2730  0119                     	;# 
  2731  0119                     	;# 
  2732  0119                     	;# 
  2733  011A                     	;# 
  2734  011A                     	;# 
  2735  011A                     	;# 
  2736  011B                     	;# 
  2737  011B                     	;# 
  2738  011B                     	;# 
  2739  011B                     	;# 
  2740  011B                     	;# 
  2741  011C                     	;# 
  2742  011C                     	;# 
  2743  011C                     	;# 
  2744  011D                     	;# 
  2745  011D                     	;# 
  2746  011D                     	;# 
  2747  011E                     	;# 
  2748  011E                     	;# 
  2749  011E                     	;# 
  2750  011F                     	;# 
  2751  011F                     	;# 
  2752  011F                     	;# 
  2753  011F                     	;# 
  2754  011F                     	;# 
  2755  018C                     	;# 
  2756  018D                     	;# 
  2757  018E                     	;# 
  2758  018F                     	;# 
  2759  0190                     	;# 
  2760  0191                     	;# 
  2761  0192                     	;# 
  2762  0196                     	;# 
  2763  0197                     	;# 
  2764  0198                     	;# 
  2765  0199                     	;# 
  2766  019A                     	;# 
  2767  019B                     	;# 
  2768  019C                     	;# 
  2769  020C                     	;# 
  2770  020C                     	;# 
  2771  020D                     	;# 
  2772  020E                     	;# 
  2773  020F                     	;# 
  2774  020F                     	;# 
  2775  0210                     	;# 
  2776  0210                     	;# 
  2777  0211                     	;# 
  2778  0211                     	;# 
  2779  0212                     	;# 
  2780  0212                     	;# 
  2781  0213                     	;# 
  2782  0214                     	;# 
  2783  0215                     	;# 
  2784  0215                     	;# 
  2785  0216                     	;# 
  2786  0216                     	;# 
  2787  0217                     	;# 
  2788  0217                     	;# 
  2789  0218                     	;# 
  2790  0218                     	;# 
  2791  0219                     	;# 
  2792  021A                     	;# 
  2793  021B                     	;# 
  2794  021B                     	;# 
  2795  021C                     	;# 
  2796  021C                     	;# 
  2797  021D                     	;# 
  2798  021D                     	;# 
  2799  021E                     	;# 
  2800  021F                     	;# 
  2801  028C                     	;# 
  2802  028C                     	;# 
  2803  028D                     	;# 
  2804  028D                     	;# 
  2805  028E                     	;# 
  2806  028F                     	;# 
  2807  0290                     	;# 
  2808  0290                     	;# 
  2809  0291                     	;# 
  2810  0292                     	;# 
  2811  0292                     	;# 
  2812  0293                     	;# 
  2813  0293                     	;# 
  2814  0294                     	;# 
  2815  0295                     	;# 
  2816  0296                     	;# 
  2817  0296                     	;# 
  2818  0297                     	;# 
  2819  0298                     	;# 
  2820  0298                     	;# 
  2821  0299                     	;# 
  2822  0299                     	;# 
  2823  029A                     	;# 
  2824  029B                     	;# 
  2825  029C                     	;# 
  2826  029C                     	;# 
  2827  029D                     	;# 
  2828  030C                     	;# 
  2829  030C                     	;# 
  2830  030D                     	;# 
  2831  030E                     	;# 
  2832  030F                     	;# 
  2833  0310                     	;# 
  2834  0310                     	;# 
  2835  0311                     	;# 
  2836  0312                     	;# 
  2837  0313                     	;# 
  2838  0314                     	;# 
  2839  0314                     	;# 
  2840  0315                     	;# 
  2841  0316                     	;# 
  2842  0317                     	;# 
  2843  0318                     	;# 
  2844  0318                     	;# 
  2845  0319                     	;# 
  2846  031A                     	;# 
  2847  031B                     	;# 
  2848  031C                     	;# 
  2849  031C                     	;# 
  2850  031D                     	;# 
  2851  031E                     	;# 
  2852  031F                     	;# 
  2853  038C                     	;# 
  2854  038C                     	;# 
  2855  038D                     	;# 
  2856  038E                     	;# 
  2857  0390                     	;# 
  2858  0390                     	;# 
  2859  0391                     	;# 
  2860  0392                     	;# 
  2861  040C                     	;# 
  2862  040D                     	;# 
  2863  040E                     	;# 
  2864  040F                     	;# 
  2865  0410                     	;# 
  2866  0411                     	;# 
  2867  0416                     	;# 
  2868  0416                     	;# 
  2869  0417                     	;# 
  2870  0418                     	;# 
  2871  0418                     	;# 
  2872  0419                     	;# 
  2873  041A                     	;# 
  2874  041A                     	;# 
  2875  041B                     	;# 
  2876  041C                     	;# 
  2877  041C                     	;# 
  2878  041D                     	;# 
  2879  041E                     	;# 
  2880  041F                     	;# 
  2881  048C                     	;# 
  2882  048C                     	;# 
  2883  048D                     	;# 
  2884  048E                     	;# 
  2885  048F                     	;# 
  2886  048F                     	;# 
  2887  0490                     	;# 
  2888  0491                     	;# 
  2889  0492                     	;# 
  2890  0492                     	;# 
  2891  0493                     	;# 
  2892  0494                     	;# 
  2893  0495                     	;# 
  2894  0495                     	;# 
  2895  0496                     	;# 
  2896  0497                     	;# 
  2897  0498                     	;# 
  2898  0499                     	;# 
  2899  049A                     	;# 
  2900  049B                     	;# 
  2901  049C                     	;# 
  2902  049D                     	;# 
  2903  050C                     	;# 
  2904  050C                     	;# 
  2905  050D                     	;# 
  2906  050E                     	;# 
  2907  050F                     	;# 
  2908  050F                     	;# 
  2909  0510                     	;# 
  2910  0511                     	;# 
  2911  0512                     	;# 
  2912  0512                     	;# 
  2913  0513                     	;# 
  2914  0514                     	;# 
  2915  0515                     	;# 
  2916  0515                     	;# 
  2917  0516                     	;# 
  2918  0517                     	;# 
  2919  0518                     	;# 
  2920  0519                     	;# 
  2921  051A                     	;# 
  2922  051B                     	;# 
  2923  051C                     	;# 
  2924  051D                     	;# 
  2925  058C                     	;# 
  2926  058C                     	;# 
  2927  058D                     	;# 
  2928  058E                     	;# 
  2929  058F                     	;# 
  2930  058F                     	;# 
  2931  0590                     	;# 
  2932  0591                     	;# 
  2933  0592                     	;# 
  2934  0593                     	;# 
  2935  060C                     	;# 
  2936  060D                     	;# 
  2937  060E                     	;# 
  2938  060F                     	;# 
  2939  0610                     	;# 
  2940  0611                     	;# 
  2941  0612                     	;# 
  2942  0613                     	;# 
  2943  0614                     	;# 
  2944  0616                     	;# 
  2945  0617                     	;# 
  2946  0618                     	;# 
  2947  0619                     	;# 
  2948  061A                     	;# 
  2949  061B                     	;# 
  2950  061C                     	;# 
  2951  061D                     	;# 
  2952  061E                     	;# 
  2953  068C                     	;# 
  2954  068D                     	;# 
  2955  068E                     	;# 
  2956  068F                     	;# 
  2957  0690                     	;# 
  2958  0691                     	;# 
  2959  0692                     	;# 
  2960  0693                     	;# 
  2961  0694                     	;# 
  2962  070C                     	;# 
  2963  070D                     	;# 
  2964  070E                     	;# 
  2965  070F                     	;# 
  2966  0710                     	;# 
  2967  0711                     	;# 
  2968  0712                     	;# 
  2969  0713                     	;# 
  2970  0714                     	;# 
  2971  0716                     	;# 
  2972  0717                     	;# 
  2973  0718                     	;# 
  2974  0719                     	;# 
  2975  071A                     	;# 
  2976  071B                     	;# 
  2977  071C                     	;# 
  2978  071D                     	;# 
  2979  071E                     	;# 
  2980  0796                     	;# 
  2981  0797                     	;# 
  2982  0798                     	;# 
  2983  0799                     	;# 
  2984  079A                     	;# 
  2985  079B                     	;# 
  2986  080C                     	;# 
  2987  080D                     	;# 
  2988  080E                     	;# 
  2989  080F                     	;# 
  2990  0810                     	;# 
  2991  0811                     	;# 
  2992  0812                     	;# 
  2993  0813                     	;# 
  2994  0814                     	;# 
  2995  081A                     	;# 
  2996  081B                     	;# 
  2997  081C                     	;# 
  2998  081D                     	;# 
  2999  081E                     	;# 
  3000  081F                     	;# 
  3001  088C                     	;# 
  3002  088D                     	;# 
  3003  088E                     	;# 
  3004  088F                     	;# 
  3005  0890                     	;# 
  3006  0891                     	;# 
  3007  0892                     	;# 
  3008  0893                     	;# 
  3009  0895                     	;# 
  3010  0896                     	;# 
  3011  0897                     	;# 
  3012  0898                     	;# 
  3013  0899                     	;# 
  3014  089A                     	;# 
  3015  089B                     	;# 
  3016  090C                     	;# 
  3017  090E                     	;# 
  3018  090F                     	;# 
  3019  091F                     	;# 
  3020  091F                     	;# 
  3021  098F                     	;# 
  3022  098F                     	;# 
  3023  0990                     	;# 
  3024  0991                     	;# 
  3025  0992                     	;# 
  3026  0993                     	;# 
  3027  0994                     	;# 
  3028  0995                     	;# 
  3029  0996                     	;# 
  3030  0997                     	;# 
  3031  0E0F                     	;# 
  3032  0E10                     	;# 
  3033  0E11                     	;# 
  3034  0E12                     	;# 
  3035  0E13                     	;# 
  3036  0E14                     	;# 
  3037  0E15                     	;# 
  3038  0E16                     	;# 
  3039  0E17                     	;# 
  3040  0E18                     	;# 
  3041  0E19                     	;# 
  3042  0E1A                     	;# 
  3043  0E1B                     	;# 
  3044  0E1C                     	;# 
  3045  0E1D                     	;# 
  3046  0E1E                     	;# 
  3047  0E1F                     	;# 
  3048  0E20                     	;# 
  3049  0E21                     	;# 
  3050  0E22                     	;# 
  3051  0E23                     	;# 
  3052  0E24                     	;# 
  3053  0E25                     	;# 
  3054  0E26                     	;# 
  3055  0E27                     	;# 
  3056  0E28                     	;# 
  3057  0E29                     	;# 
  3058  0E2A                     	;# 
  3059  0E2B                     	;# 
  3060  0E2C                     	;# 
  3061  0E2D                     	;# 
  3062  0E2E                     	;# 
  3063  0E2F                     	;# 
  3064  0E30                     	;# 
  3065  0E31                     	;# 
  3066  0E32                     	;# 
  3067  0E33                     	;# 
  3068  0E34                     	;# 
  3069  0E35                     	;# 
  3070  0E36                     	;# 
  3071  0E37                     	;# 
  3072  0E8F                     	;# 
  3073  0E90                     	;# 
  3074  0E91                     	;# 
  3075  0E92                     	;# 
  3076  0E93                     	;# 
  3077  0E94                     	;# 
  3078  0E95                     	;# 
  3079  0E96                     	;# 
  3080  0E97                     	;# 
  3081  0E9C                     	;# 
  3082  0E9D                     	;# 
  3083  0E9E                     	;# 
  3084  0EA1                     	;# 
  3085  0EA2                     	;# 
  3086  0EA3                     	;# 
  3087  0EA4                     	;# 
  3088  0EA5                     	;# 
  3089  0EA9                     	;# 
  3090  0EAA                     	;# 
  3091  0EAB                     	;# 
  3092  0EAC                     	;# 
  3093  0EB1                     	;# 
  3094  0EB2                     	;# 
  3095  0EB3                     	;# 
  3096  0EB8                     	;# 
  3097  0EB9                     	;# 
  3098  0EBA                     	;# 
  3099  0EBB                     	;# 
  3100  0EBC                     	;# 
  3101  0EBD                     	;# 
  3102  0EBE                     	;# 
  3103  0EC3                     	;# 
  3104  0EC5                     	;# 
  3105  0EC6                     	;# 
  3106  0EC7                     	;# 
  3107  0EC8                     	;# 
  3108  0EC9                     	;# 
  3109  0ECA                     	;# 
  3110  0ECB                     	;# 
  3111  0ECC                     	;# 
  3112  0F10                     	;# 
  3113  0F11                     	;# 
  3114  0F12                     	;# 
  3115  0F13                     	;# 
  3116  0F14                     	;# 
  3117  0F15                     	;# 
  3118  0F16                     	;# 
  3119  0F17                     	;# 
  3120  0F18                     	;# 
  3121  0F19                     	;# 
  3122  0F1A                     	;# 
  3123  0F1B                     	;# 
  3124  0F1C                     	;# 
  3125  0F1D                     	;# 
  3126  0F1E                     	;# 
  3127  0F1F                     	;# 
  3128  0F20                     	;# 
  3129  0F21                     	;# 
  3130  0F22                     	;# 
  3131  0F23                     	;# 
  3132  0F24                     	;# 
  3133  0F25                     	;# 
  3134  0F26                     	;# 
  3135  0F27                     	;# 
  3136  0F38                     	;# 
  3137  0F39                     	;# 
  3138  0F3A                     	;# 
  3139  0F3B                     	;# 
  3140  0F3C                     	;# 
  3141  0F3D                     	;# 
  3142  0F3E                     	;# 
  3143  0F3F                     	;# 
  3144  0F40                     	;# 
  3145  0F41                     	;# 
  3146  0F43                     	;# 
  3147  0F44                     	;# 
  3148  0F45                     	;# 
  3149  0F46                     	;# 
  3150  0F47                     	;# 
  3151  0F48                     	;# 
  3152  0F49                     	;# 
  3153  0F4A                     	;# 
  3154  0F4B                     	;# 
  3155  0F4C                     	;# 
  3156  0F4E                     	;# 
  3157  0F4F                     	;# 
  3158  0F50                     	;# 
  3159  0F51                     	;# 
  3160  0F52                     	;# 
  3161  0F53                     	;# 
  3162  0F54                     	;# 
  3163  0F55                     	;# 
  3164  0F56                     	;# 
  3165  0F57                     	;# 
  3166  0F65                     	;# 
  3167  0F68                     	;# 
  3168  0F69                     	;# 
  3169  0F6A                     	;# 
  3170  0F6B                     	;# 
  3171  0FE4                     	;# 
  3172  0FE5                     	;# 
  3173  0FE6                     	;# 
  3174  0FE7                     	;# 
  3175  0FE8                     	;# 
  3176  0FE9                     	;# 
  3177  0FEA                     	;# 
  3178  0FEB                     	;# 
  3179  0FED                     	;# 
  3180  0FEE                     	;# 
  3181  0FEF                     	;# 
  3182                           
  3183                           	psect	idataBANK0
  3184  032C                     __pidataBANK0:
  3185                           
  3186                           ;initializer for _tSERVO1
  3187  032C  345D               	retlw	93
  3188                           
  3189                           	psect	stringtext1
  3190  032D                     __pstringtext1:
  3191  032D                     _ticks_PULSO_MAXIMO:
  3192  032D  349B               	retlw	155
  3193  032E                     __end_of_ticks_PULSO_MAXIMO:
  3194                           
  3195                           	psect	stringtext2
  3196  032E                     __pstringtext2:
  3197  032E                     _ticks_PULSO_MEDIO:
  3198  032E  345D               	retlw	93
  3199  032F                     __end_of_ticks_PULSO_MEDIO:
  3200                           
  3201                           	psect	stringtext3
  3202  032F                     __pstringtext3:
  3203  032F                     _ticks_PULSO_MINIMO:
  3204  032F  341F               	retlw	31
  3205  0330                     __end_of_ticks_PULSO_MINIMO:
  3206                           
  3207                           	psect	stringtext4
  3208  0306                     __pstringtext4:
  3209  0306                     _AJUSTE_FINO_DE_RTCC:
  3210  0306  341E               	retlw	30
  3211  0307                     __end_of_AJUSTE_FINO_DE_RTCC:
  3212  000B                     _INTCONbits	set	11
  3213  000B                     _INTCON	set	11
  3214  001C                     _TMR0L	set	28
  3215  001D                     _TMR0H	set	29
  3216  001F                     _T0CON1	set	31
  3217  001E                     _T0CON0	set	30
  3218  0013                     _TRISC	set	19
  3219  0012                     _TRISB	set	18
  3220  000D                     _PORTB	set	13
  3221  0017                     _LATB	set	23
  3222  0011                     _TRISA	set	17
  3223  000C                     _PORTA	set	12
  3224  0016                     _LATA	set	22
  3225  0018                     _LATCbits	set	24
  3226  0016                     _LATAbits	set	22
  3227  0119                     _RCREG	set	281
  3228  011A                     _TXREG	set	282
  3229  011C                     _SP1BRGH	set	284
  3230  011B                     _SP1BRGL	set	283
  3231  011E                     _TX1STA	set	286
  3232  011D                     _RC1STA	set	285
  3233  011F                     _BAUD1CON	set	287
  3234  020C                     _TMR1L	set	524
  3235  020D                     _TMR1H	set	525
  3236  0211                     _T1CLK	set	529
  3237  020E                     _T1CON	set	526
  3238  0716                     _PIE0	set	1814
  3239  0716                     _PIE0bits	set	1814
  3240  070C                     _PIR0bits	set	1804
  3241  070F                     _PIR3	set	1807
  3242  0719                     _PIE3bits	set	1817
  3243  070F                     _PIR3bits	set	1807
  3244  0710                     _PIR4bits	set	1808
  3245  0E90                     _INTPPS	set	3728
  3246  0ECB                     _RXPPS	set	3787
  3247  0F20                     _RC0PPS	set	3872
  3248  0F4E                     _ANSELC	set	3918
  3249  0F43                     _ANSELB	set	3907
  3250  0F38                     _ANSELA	set	3896
  3251  0307                     STR_1:
  3252  0307  3448               	retlw	72	;'H'
  3253  0308  346F               	retlw	111	;'o'
  3254  0309  346C               	retlw	108	;'l'
  3255  030A  3461               	retlw	97	;'a'
  3256  030B  3461               	retlw	97	;'a'
  3257  030C  3461               	retlw	97	;'a'
  3258  030D  340A               	retlw	10
  3259  030E  340A               	retlw	10
  3260  030F  3400               	retlw	0
  3261                           
  3262                           	psect	stringtext5
  3263  0000                     __pstringtext5:
  3264                           
  3265                           	psect	cinit
  3266  0050                     start_initialization:	
  3267                           ; #config settings
  3268                           
  3269  0050                     __initialization:
  3270                           
  3271                           ; Initialize objects allocated to BANK0
  3272  0050  3183  232C  3180   	fcall	__pidataBANK0	;fetch initializer
  3273  0053  00E6               	movwf	__pdataBANK0& (0+127)
  3274                           
  3275                           ; Clear objects allocated to COMMON
  3276  0054  01FA               	clrf	__pbssCOMMON& (0+127)
  3277  0055  01FB               	clrf	(__pbssCOMMON+1)& (0+127)
  3278                           
  3279                           ; Clear objects allocated to BANK0
  3280  0056  3020               	movlw	low __pbssBANK0
  3281  0057  0084               	movwf	4
  3282  0058  3000               	movlw	high __pbssBANK0
  3283  0059  0085               	movwf	5
  3284  005A  302D               	movlw	45
  3285  005B  3183  2310  3180   	fcall	clear_ram0
  3286  005E                     end_of_initialization:	
  3287                           ;End of C runtime variable initialization code
  3288                           
  3289  005E                     __end_of__initialization:
  3290  005E  107E               	bcf	int$flags,0	;clear compiler interrupt flag (level 1)
  3291  005F  0020               	movlb	0
  3292  0060  3180  2862         	ljmp	_main	;jump to C main() function
  3293                           
  3294                           	psect	bssCOMMON
  3295  007A                     __pbssCOMMON:
  3296  007A                     _contRTCC:
  3297  007A                     	ds	1
  3298  007B                     _counts:
  3299  007B                     	ds	1
  3300                           
  3301                           	psect	bssBANK0
  3302  0020                     __pbssBANK0:
  3303  0020                     _dbuf:
  3304  0020                     	ds	32
  3305  0040                     _nout:
  3306  0040                     	ds	2
  3307  0042                     _width:
  3308  0042                     	ds	2
  3309  0044                     _prec:
  3310  0044                     	ds	2
  3311  0046                     _flags:
  3312  0046                     	ds	2
  3313  0048                     _valTIMER0:
  3314  0048                     	ds	1
  3315  0049                     _flagSERVO1:
  3316  0049                     	ds	1
  3317  004A                     _flagRTCC:
  3318  004A                     	ds	1
  3319  004B                     _recepcionRX:
  3320  004B                     	ds	1
  3321  004C                     _countsAnterior:
  3322  004C                     	ds	1
  3323                           
  3324                           	psect	dataBANK0
  3325  0066                     __pdataBANK0:
  3326  0066                     _tSERVO1:
  3327  0066                     	ds	1
  3328                           
  3329                           	psect	clrtext
  3330  0310                     clear_ram0:	
  3331                           ;	Called with FSR0 containing the base address, and
  3332                           ;	WREG with the size to clear
  3333                           
  3334  0310  0064               	clrwdt	;clear the watchdog before getting into this loop
  3335  0311                     clrloop0:
  3336  0311  0180               	clrf	0	;clear RAM location pointed to by FSR
  3337  0312  3101               	addfsr 0,1
  3338  0313  0B89               	decfsz	9,f	;Have we reached the end of clearing yet?
  3339  0314  2B11               	goto	clrloop0	;have we reached the end yet?
  3340  0315  3400               	retlw	0	;all done for this memory range, return
  3341                           
  3342                           	psect	cstackCOMMON
  3343  0070                     __pcstackCOMMON:
  3344  0070                     ?_port_init:
  3345  0070                     ?_enable_Global_interrupt:	
  3346                           ; 1 bytes @ 0x0
  3347                           
  3348  0070                     ?_enable_Peripheral_interrupt:	
  3349                           ; 1 bytes @ 0x0
  3350                           
  3351  0070                     ?_Timer0_8bit_get:	
  3352                           ; 1 bytes @ 0x0
  3353                           
  3354  0070                     ?_main:	
  3355                           ; 1 bytes @ 0x0
  3356                           
  3357  0070                     ?_uart_tx:	
  3358                           ; 1 bytes @ 0x0
  3359                           
  3360  0070                     ?_uart_rx:	
  3361                           ; 1 bytes @ 0x0
  3362                           
  3363  0070                     ??_uart_rx:	
  3364                           ; 1 bytes @ 0x0
  3365                           
  3366  0070                     ?_putch:	
  3367                           ; 1 bytes @ 0x0
  3368                           
  3369  0070                     ?_Timer0_8bit_set:	
  3370                           ; 1 bytes @ 0x0
  3371                           
  3372  0070                     ??_Timer0_8bit_set:	
  3373                           ; 1 bytes @ 0x0
  3374                           
  3375  0070                     ?_INTERRUPT_InterruptManager:	
  3376                           ; 1 bytes @ 0x0
  3377                           
  3378  0070                     Timer0_8bit_set@TimerValue:	
  3379                           ; 1 bytes @ 0x0
  3380                           
  3381                           
  3382                           ; 1 bytes @ 0x0
  3383  0070                     	ds	1
  3384  0071                     ??_INTERRUPT_InterruptManager:
  3385                           
  3386                           ; 1 bytes @ 0x1
  3387  0071                     	ds	1
  3388  0072                     ??_enable_Global_interrupt:
  3389  0072                     ??_enable_Peripheral_interrupt:	
  3390                           ; 1 bytes @ 0x2
  3391                           
  3392  0072                     ?_Timer0_8bit_InterruptInit:	
  3393                           ; 1 bytes @ 0x2
  3394                           
  3395  0072                     ?_Timer1_init:	
  3396                           ; 1 bytes @ 0x2
  3397                           
  3398  0072                     ??_Timer0_8bit_get:	
  3399                           ; 1 bytes @ 0x2
  3400                           
  3401  0072                     ??_uart_tx:	
  3402                           ; 1 bytes @ 0x2
  3403                           
  3404  0072                     ?___lldiv:	
  3405                           ; 1 bytes @ 0x2
  3406                           
  3407  0072                     Timer0_8bit_InterruptInit@prescaler:	
  3408                           ; 4 bytes @ 0x2
  3409                           
  3410  0072                     Timer1_init@TimerValue:	
  3411                           ; 1 bytes @ 0x2
  3412                           
  3413  0072                     ___lldiv@divisor:	
  3414                           ; 2 bytes @ 0x2
  3415                           
  3416                           
  3417                           ; 4 bytes @ 0x2
  3418  0072                     	ds	1
  3419  0073                     uart_tx@dato:
  3420  0073                     Timer0_8bit_InterruptInit@TimerValue:	
  3421                           ; 1 bytes @ 0x3
  3422                           
  3423                           
  3424                           ; 1 bytes @ 0x3
  3425  0073                     	ds	1
  3426  0074                     ??_Timer0_8bit_InterruptInit:
  3427  0074                     ??_Timer1_init:	
  3428                           ; 1 bytes @ 0x4
  3429                           
  3430  0074                     ??_putch:	
  3431                           ; 1 bytes @ 0x4
  3432                           
  3433  0074                     putch@dato:	
  3434                           ; 1 bytes @ 0x4
  3435                           
  3436  0074                     Timer0_8bit_InterruptInit@postscaler:	
  3437                           ; 1 bytes @ 0x4
  3438                           
  3439                           
  3440                           ; 1 bytes @ 0x4
  3441  0074                     	ds	1
  3442  0075                     ?_fputc:
  3443  0075                     Timer1_init@prescaler:	
  3444                           ; 2 bytes @ 0x5
  3445                           
  3446  0075                     fputc@c:	
  3447                           ; 1 bytes @ 0x5
  3448                           
  3449                           
  3450                           ; 2 bytes @ 0x5
  3451  0075                     	ds	1
  3452  0076                     ___lldiv@dividend:
  3453                           
  3454                           ; 4 bytes @ 0x6
  3455  0076                     	ds	1
  3456  0077                     fputc@fp:
  3457                           
  3458                           ; 1 bytes @ 0x7
  3459  0077                     	ds	1
  3460  0078                     ?_vfpfcnvrt:
  3461  0078                     vfpfcnvrt@fmt:	
  3462                           ; 2 bytes @ 0x8
  3463                           
  3464                           
  3465                           ; 1 bytes @ 0x8
  3466  0078                     	ds	1
  3467  0079                     vfpfcnvrt@ap:
  3468                           
  3469                           ; 1 bytes @ 0x9
  3470  0079                     	ds	1
  3471  007A                     ??_port_init:
  3472                           
  3473                           	psect	cstackBANK0
  3474  004D                     __pcstackBANK0:	
  3475                           ; 1 bytes @ 0xA
  3476                           
  3477  004D                     ??_fputc:
  3478  004D                     ??___lldiv:	
  3479                           ; 1 bytes @ 0x0
  3480                           
  3481                           
  3482                           ; 1 bytes @ 0x0
  3483  004D                     	ds	1
  3484  004E                     ___lldiv@quotient:
  3485                           
  3486                           ; 4 bytes @ 0x1
  3487  004E                     	ds	4
  3488  0052                     ??_vfpfcnvrt:
  3489  0052                     ___lldiv@counter:	
  3490                           ; 1 bytes @ 0x5
  3491                           
  3492                           
  3493                           ; 1 bytes @ 0x5
  3494  0052                     	ds	1
  3495  0053                     ?_serial_Interrupt_init:
  3496  0053                     serial_Interrupt_init@baudios:	
  3497                           ; 1 bytes @ 0x6
  3498                           
  3499                           
  3500                           ; 4 bytes @ 0x6
  3501  0053                     	ds	4
  3502  0057                     ??_serial_Interrupt_init:
  3503  0057                     vfpfcnvrt@fp:	
  3504                           ; 1 bytes @ 0xA
  3505                           
  3506                           
  3507                           ; 1 bytes @ 0xA
  3508  0057                     	ds	1
  3509  0058                     ?_vfprintf:
  3510  0058                     vfprintf@fmt:	
  3511                           ; 2 bytes @ 0xB
  3512                           
  3513                           
  3514                           ; 2 bytes @ 0xB
  3515  0058                     	ds	2
  3516  005A                     vfprintf@ap:
  3517                           
  3518                           ; 1 bytes @ 0xD
  3519  005A                     	ds	1
  3520  005B                     ??_vfprintf:
  3521  005B                     serial_Interrupt_init@sx:	
  3522                           ; 1 bytes @ 0xE
  3523                           
  3524                           
  3525                           ; 2 bytes @ 0xE
  3526  005B                     	ds	2
  3527  005D                     vfprintf@fp:
  3528                           
  3529                           ; 1 bytes @ 0x10
  3530  005D                     	ds	1
  3531  005E                     vfprintf@cfmt:
  3532                           
  3533                           ; 2 bytes @ 0x11
  3534  005E                     	ds	2
  3535  0060                     ?_printf:
  3536  0060                     printf@fmt:	
  3537                           ; 2 bytes @ 0x13
  3538                           
  3539                           
  3540                           ; 2 bytes @ 0x13
  3541  0060                     	ds	2
  3542  0062                     ??_printf:
  3543                           
  3544                           ; 1 bytes @ 0x15
  3545  0062                     	ds	1
  3546  0063                     printf@ap:
  3547                           
  3548                           ; 1 bytes @ 0x16
  3549  0063                     	ds	1
  3550  0064                     ??_main:
  3551                           
  3552                           ; 1 bytes @ 0x17
  3553  0064                     	ds	2
  3554                           
  3555                           	psect	maintext
  3556  0062                     __pmaintext:	
  3557 ;;
  3558 ;;Main: autosize = 0, tempsize = 2, incstack = 0, save=0
  3559 ;;
  3560 ;; *************** function _main *****************
  3561 ;; Defined at:
  3562 ;;		line 27 in file "Main.c"
  3563 ;; Parameters:    Size  Location     Type
  3564 ;;		None
  3565 ;; Auto vars:     Size  Location     Type
  3566 ;;		None
  3567 ;; Return value:  Size  Location     Type
  3568 ;;                  1    wreg      void 
  3569 ;; Registers used:
  3570 ;;		wreg, fsr0l, fsr0h, fsr1l, fsr1h, status,2, status,0, pclath, cstack
  3571 ;; Tracked objects:
  3572 ;;		On entry : B1F/0
  3573 ;;		On exit  : 0/0
  3574 ;;		Unchanged: 0/0
  3575 ;; Data sizes:     COMMON   BANK0   BANK1   BANK2   BANK3   BANK4   BANK5   BANK6   BANK7   BANK8   BANK9  BANK10  BANK1
      +1  BANK12
  3576 ;;      Params:         0       0       0       0       0       0       0       0       0       0       0       0       
      +0       0
  3577 ;;      Locals:         0       0       0       0       0       0       0       0       0       0       0       0       
      +0       0
  3578 ;;      Temps:          0       2       0       0       0       0       0       0       0       0       0       0       
      +0       0
  3579 ;;      Totals:         0       2       0       0       0       0       0       0       0       0       0       0       
      +0       0
  3580 ;;Total ram usage:        2 bytes
  3581 ;; Hardware stack levels required when called: 8
  3582 ;; This function calls:
  3583 ;;		_Timer0_8bit_InterruptInit
  3584 ;;		_Timer0_8bit_get
  3585 ;;		_Timer1_init
  3586 ;;		_enable_Global_interrupt
  3587 ;;		_enable_Peripheral_interrupt
  3588 ;;		_port_init
  3589 ;;		_printf
  3590 ;; This function is called by:
  3591 ;;		Startup code after reset
  3592 ;; This function uses a non-reentrant model
  3593 ;;
  3594                           
  3595                           
  3596                           ;psect for function _main
  3597  0062                     _main:
  3598  0062                     l1696:	
  3599                           ;incstack = 0
  3600                           ; Regs used in _main: [wreg-fsr1h+status,2+status,0+pclath+cstack]
  3601                           
  3602                           
  3603                           ;Main.c: 28:     port_init();
  3604  0062  3182  2242  3180   	fcall	_port_init
  3605                           
  3606                           ;Main.c: 30:     enable_Global_interrupt();
  3607  0065  3183  2325  3180   	fcall	_enable_Global_interrupt
  3608                           
  3609                           ;Main.c: 31:     enable_Peripheral_interrupt();
  3610  0068  3183  2321  3180   	fcall	_enable_Peripheral_interrupt
  3611  006B                     l1698:
  3612                           
  3613                           ;Main.c: 33:     printf("Holaaa\n\n");
  3614  006B  3007               	movlw	low (STR_1| (0+32768))
  3615  006C  0020               	movlb	0	; select bank0
  3616  006D  00E0               	movwf	printf@fmt
  3617  006E  3083               	movlw	high (STR_1| (0+32768))
  3618  006F  00E1               	movwf	printf@fmt+1
  3619  0070  3182  22E4  3180   	fcall	_printf
  3620  0073                     l1700:
  3621                           
  3622                           ;Main.c: 39:     Timer0_8bit_InterruptInit(T0Poscaler_div1,9,255);
  3623  0073  3009               	movlw	9
  3624  0074  0020               	movlb	0	; select bank0
  3625  0075  00E4               	movwf	??_main
  3626  0076  0864               	movf	??_main,w
  3627  0077  00F2               	movwf	Timer0_8bit_InterruptInit@prescaler
  3628  0078  30FF               	movlw	255
  3629  0079  00E5               	movwf	??_main+1
  3630  007A  0865               	movf	??_main+1,w
  3631  007B  00F3               	movwf	Timer0_8bit_InterruptInit@TimerValue
  3632  007C  3000               	movlw	0
  3633  007D  3182  22CE  3180   	fcall	_Timer0_8bit_InterruptInit
  3634  0080                     l1702:
  3635                           
  3636                           ;Main.c: 42:     Timer1_init(3, 34286);
  3637  0080  30EE               	movlw	238
  3638  0081  00F2               	movwf	Timer1_init@TimerValue
  3639  0082  3085               	movlw	133
  3640  0083  00F3               	movwf	Timer1_init@TimerValue+1
  3641  0084  3003               	movlw	3
  3642  0085  3182  22B4  3180   	fcall	_Timer1_init
  3643  0088                     l1704:
  3644                           
  3645                           ;Main.c: 44:     _delay((unsigned long)((1000)*(32000000UL/4000.0)));
  3646  0088  3029               	movlw	41
  3647  0089  0020               	movlb	0	; select bank0
  3648  008A  00E5               	movwf	??_main+1
  3649  008B  3096               	movlw	150
  3650  008C  00E4               	movwf	??_main
  3651  008D  307F               	movlw	127
  3652  008E                     u1167:
  3653  008E  0B89               	decfsz	9,f
  3654  008F  288E               	goto	u1167
  3655  0090  0BE4               	decfsz	??_main,f
  3656  0091  288E               	goto	u1167
  3657  0092  0BE5               	decfsz	??_main+1,f
  3658  0093  288E               	goto	u1167
  3659  0094                     l1706:
  3660                           
  3661                           ;Main.c: 49:     {;Main.c: 50:         if (PIR4bits.TMR1IF == 1){
  3662  0094  002E               	movlb	14	; select bank14
  3663  0095  1C10               	btfss	16,0	;volatile
  3664  0096  2898               	goto	u1041
  3665  0097  2899               	goto	u1040
  3666  0098                     u1041:
  3667  0098  28A6               	goto	l1712
  3668  0099                     u1040:
  3669  0099                     l1708:
  3670                           
  3671                           ;Main.c: 51:             PIR4bits.TMR1IF = 0;
  3672  0099  1010               	bcf	16,0	;volatile
  3673  009A                     l1710:
  3674                           
  3675                           ;Main.c: 52:             LATAbits.LATA0 = !LATAbits.LATA0;
  3676  009A  1003               	clrc
  3677  009B  0020               	movlb	0	; select bank0
  3678  009C  1C16               	btfss	22,0	;volatile
  3679  009D  1403               	setc
  3680  009E  1803               	btfsc	3,0
  3681  009F  28A1               	goto	u1051
  3682  00A0  28A4               	goto	u1050
  3683  00A1                     u1051:
  3684  00A1  0020               	movlb	0	; select bank0
  3685  00A2  1416               	bsf	22,0	;volatile
  3686  00A3  28A6               	goto	u1064
  3687  00A4                     u1050:
  3688  00A4  0020               	movlb	0	; select bank0
  3689  00A5  1016               	bcf	22,0	;volatile
  3690  00A6                     u1064:
  3691  00A6                     l1712:
  3692                           
  3693                           ;Main.c: 56:         if (flagRTCC ==1){
  3694  00A6  0020               	movlb	0	; select bank0
  3695  00A7  034A               	decf	_flagRTCC,w
  3696  00A8  1D03               	btfss	3,2
  3697  00A9  28AB               	goto	u1071
  3698  00AA  28AC               	goto	u1070
  3699  00AB                     u1071:
  3700  00AB  28B0               	goto	l1720
  3701  00AC                     u1070:
  3702  00AC                     l1714:
  3703                           
  3704                           ;Main.c: 57:             flagRTCC=0;
  3705  00AC  01CA               	clrf	_flagRTCC
  3706  00AD                     l1716:
  3707                           
  3708                           ;Main.c: 58:             LATCbits.LATC7 = 1;
  3709  00AD  1798               	bsf	24,7	;volatile
  3710  00AE                     l1718:
  3711                           
  3712                           ;Main.c: 59:             flagSERVO1=1;
  3713  00AE  01C9               	clrf	_flagSERVO1
  3714  00AF  0AC9               	incf	_flagSERVO1,f
  3715  00B0                     l1720:
  3716                           
  3717                           ;Main.c: 61:         if(flagSERVO1==1){
  3718  00B0  0349               	decf	_flagSERVO1,w
  3719  00B1  1D03               	btfss	3,2
  3720  00B2  28B4               	goto	u1081
  3721  00B3  28B5               	goto	u1080
  3722  00B4                     u1081:
  3723  00B4  28C4               	goto	l1730
  3724  00B5                     u1080:
  3725  00B5                     l1722:
  3726                           
  3727                           ;Main.c: 62:             valTIMER0 = Timer0_8bit_get();
  3728  00B5  3183  2329  3180   	fcall	_Timer0_8bit_get
  3729  00B8  0020               	movlb	0	; select bank0
  3730  00B9  00E4               	movwf	??_main
  3731  00BA  0864               	movf	??_main,w
  3732  00BB  00C8               	movwf	_valTIMER0
  3733  00BC                     l1724:
  3734                           
  3735                           ;Main.c: 63:             if(valTIMER0>tSERVO1){
  3736  00BC  0848               	movf	_valTIMER0,w
  3737  00BD  0266               	subwf	_tSERVO1,w
  3738  00BE  1803               	skipnc
  3739  00BF  28C1               	goto	u1091
  3740  00C0  28C2               	goto	u1090
  3741  00C1                     u1091:
  3742  00C1  28C4               	goto	l1730
  3743  00C2                     u1090:
  3744  00C2                     l1726:
  3745                           
  3746                           ;Main.c: 64:                 flagSERVO1=0;
  3747  00C2  01C9               	clrf	_flagSERVO1
  3748  00C3                     l1728:
  3749                           
  3750                           ;Main.c: 65:                 LATCbits.LATC7 = 0;
  3751  00C3  1398               	bcf	24,7	;volatile
  3752  00C4                     l1730:
  3753                           
  3754                           ;Main.c: 70:         if (recepcionRX != '\0'){
  3755  00C4  084B               	movf	_recepcionRX,w
  3756  00C5  1903               	btfsc	3,2
  3757  00C6  28C8               	goto	u1101
  3758  00C7  28C9               	goto	u1100
  3759  00C8                     u1101:
  3760  00C8  2894               	goto	l1706
  3761  00C9                     u1100:
  3762  00C9                     l1732:
  3763                           
  3764                           ;Main.c: 71:             if(recepcionRX == 'a'){
  3765  00C9  3061               	movlw	97
  3766  00CA  064B               	xorwf	_recepcionRX,w
  3767  00CB  1D03               	btfss	3,2
  3768  00CC  28CE               	goto	u1111
  3769  00CD  28CF               	goto	u1110
  3770  00CE                     u1111:
  3771  00CE  28D4               	goto	l1738
  3772  00CF                     u1110:
  3773  00CF                     l1734:
  3774                           
  3775                           ;Main.c: 72:                 tSERVO1 += 9;
  3776  00CF  3009               	movlw	9
  3777  00D0  00E4               	movwf	??_main
  3778  00D1  0864               	movf	??_main,w
  3779  00D2  07E6               	addwf	_tSERVO1,f
  3780  00D3                     l1736:
  3781                           
  3782                           ;Main.c: 73:                 recepcionRX = '\0';
  3783  00D3  01CB               	clrf	_recepcionRX
  3784  00D4                     l1738:
  3785                           
  3786                           ;Main.c: 75:             if(recepcionRX == 's'){
  3787  00D4  3073               	movlw	115
  3788  00D5  064B               	xorwf	_recepcionRX,w
  3789  00D6  1D03               	btfss	3,2
  3790  00D7  28D9               	goto	u1121
  3791  00D8  28DA               	goto	u1120
  3792  00D9                     u1121:
  3793  00D9  28DF               	goto	l1744
  3794  00DA                     u1120:
  3795  00DA                     l1740:
  3796                           
  3797                           ;Main.c: 76:                 tSERVO1 = 93;
  3798  00DA  305D               	movlw	93
  3799  00DB  00E4               	movwf	??_main
  3800  00DC  0864               	movf	??_main,w
  3801  00DD  00E6               	movwf	_tSERVO1
  3802  00DE                     l1742:
  3803                           
  3804                           ;Main.c: 77:                 recepcionRX = '\0';
  3805  00DE  01CB               	clrf	_recepcionRX
  3806  00DF                     l1744:
  3807                           
  3808                           ;Main.c: 79:             if(recepcionRX == 'd'){
  3809  00DF  3064               	movlw	100
  3810  00E0  064B               	xorwf	_recepcionRX,w
  3811  00E1  1D03               	btfss	3,2
  3812  00E2  28E4               	goto	u1131
  3813  00E3  28E5               	goto	u1130
  3814  00E4                     u1131:
  3815  00E4  2894               	goto	l1706
  3816  00E5                     u1130:
  3817  00E5                     l1746:
  3818                           
  3819                           ;Main.c: 80:                 tSERVO1 -= 9;
  3820  00E5  3009               	movlw	9
  3821  00E6  02E6               	subwf	_tSERVO1,f
  3822  00E7                     l1748:
  3823                           
  3824                           ;Main.c: 81:                 recepcionRX = '\0';
  3825  00E7  01CB               	clrf	_recepcionRX
  3826  00E8  2894               	goto	l1706
  3827  00E9  3180  284E         	ljmp	start
  3828  00EB                     __end_of_main:
  3829                           
  3830                           	psect	text1
  3831  02E4                     __ptext1:	
  3832 ;; *************** function _printf *****************
  3833 ;; Defined at:
  3834 ;;		line 5 in file "C:\Program Files\Microchip\xc8\v2.32\pic\sources\c99\common\printf.c"
  3835 ;; Parameters:    Size  Location     Type
  3836 ;;  fmt             2   19[BANK0 ] PTR const unsigned char 
  3837 ;;		 -> STR_1(9), 
  3838 ;; Auto vars:     Size  Location     Type
  3839 ;;  ret             2    0        int 
  3840 ;;  ap              1   22[BANK0 ] PTR void [1]
  3841 ;;		 -> ?_printf(2), 
  3842 ;; Return value:  Size  Location     Type
  3843 ;;                  2   19[BANK0 ] int 
  3844 ;; Registers used:
  3845 ;;		wreg, fsr0l, fsr0h, fsr1l, fsr1h, status,2, status,0, pclath, cstack
  3846 ;; Tracked objects:
  3847 ;;		On entry : 0/0
  3848 ;;		On exit  : 0/0
  3849 ;;		Unchanged: 0/0
  3850 ;; Data sizes:     COMMON   BANK0   BANK1   BANK2   BANK3   BANK4   BANK5   BANK6   BANK7   BANK8   BANK9  BANK10  BANK1
      +1  BANK12
  3851 ;;      Params:         0       2       0       0       0       0       0       0       0       0       0       0       
      +0       0
  3852 ;;      Locals:         0       1       0       0       0       0       0       0       0       0       0       0       
      +0       0
  3853 ;;      Temps:          0       1       0       0       0       0       0       0       0       0       0       0       
      +0       0
  3854 ;;      Totals:         0       4       0       0       0       0       0       0       0       0       0       0       
      +0       0
  3855 ;;Total ram usage:        4 bytes
  3856 ;; Hardware stack levels used: 1
  3857 ;; Hardware stack levels required when called: 7
  3858 ;; This function calls:
  3859 ;;		_vfprintf
  3860 ;; This function is called by:
  3861 ;;		_main
  3862 ;; This function uses a non-reentrant model
  3863 ;;
  3864                           
  3865                           
  3866                           ;psect for function _printf
  3867  02E4                     _printf:
  3868  02E4                     l1690:	
  3869                           ;incstack = 0
  3870                           ; Regs used in _printf: [wreg-fsr1h+status,2+status,0+pclath+cstack]
  3871                           
  3872  02E4  3062               	movlw	(low ((?_printf| 0+2)))& (0+255)
  3873  02E5  0020               	movlb	0	; select bank0
  3874  02E6  00E2               	movwf	??_printf
  3875  02E7  0862               	movf	??_printf,w
  3876  02E8  00E3               	movwf	printf@ap
  3877  02E9                     l1692:
  3878  02E9  0861               	movf	printf@fmt+1,w
  3879  02EA  00D9               	movwf	vfprintf@fmt+1
  3880  02EB  0860               	movf	printf@fmt,w
  3881  02EC  00D8               	movwf	vfprintf@fmt
  3882  02ED  3063               	movlw	(low (printf@ap| 0))& (0+255)
  3883  02EE  00E2               	movwf	??_printf
  3884  02EF  0862               	movf	??_printf,w
  3885  02F0  00DA               	movwf	vfprintf@ap
  3886  02F1  3000               	movlw	0
  3887  02F2  3182  226E  3182   	fcall	_vfprintf
  3888  02F5                     l873:
  3889  02F5  0008               	return
  3890  02F6                     __end_of_printf:
  3891                           
  3892                           	psect	text2
  3893  026E                     __ptext2:	
  3894 ;; *************** function _vfprintf *****************
  3895 ;; Defined at:
  3896 ;;		line 1390 in file "C:\Program Files\Microchip\xc8\v2.32\pic\sources\c99\common\doprnt.c"
  3897 ;; Parameters:    Size  Location     Type
  3898 ;;  fp              1    wreg     PTR struct _IO_FILE
  3899 ;;		 -> NULL(0), 
  3900 ;;  fmt             2   11[BANK0 ] PTR const unsigned char 
  3901 ;;		 -> STR_1(9), 
  3902 ;;  ap              1   13[BANK0 ] PTR PTR void 
  3903 ;;		 -> printf@ap(1), 
  3904 ;; Auto vars:     Size  Location     Type
  3905 ;;  fp              1   16[BANK0 ] PTR struct _IO_FILE
  3906 ;;		 -> NULL(0), 
  3907 ;;  cfmt            2   17[BANK0 ] PTR unsigned char 
  3908 ;;		 -> STR_1(9), 
  3909 ;; Return value:  Size  Location     Type
  3910 ;;                  2   11[BANK0 ] int 
  3911 ;; Registers used:
  3912 ;;		wreg, fsr0l, fsr0h, fsr1l, fsr1h, status,2, status,0, pclath, cstack
  3913 ;; Tracked objects:
  3914 ;;		On entry : 0/0
  3915 ;;		On exit  : 0/0
  3916 ;;		Unchanged: 0/0
  3917 ;; Data sizes:     COMMON   BANK0   BANK1   BANK2   BANK3   BANK4   BANK5   BANK6   BANK7   BANK8   BANK9  BANK10  BANK1
      +1  BANK12
  3918 ;;      Params:         0       3       0       0       0       0       0       0       0       0       0       0       
      +0       0
  3919 ;;      Locals:         0       3       0       0       0       0       0       0       0       0       0       0       
      +0       0
  3920 ;;      Temps:          0       2       0       0       0       0       0       0       0       0       0       0       
      +0       0
  3921 ;;      Totals:         0       8       0       0       0       0       0       0       0       0       0       0       
      +0       0
  3922 ;;Total ram usage:        8 bytes
  3923 ;; Hardware stack levels used: 1
  3924 ;; Hardware stack levels required when called: 6
  3925 ;; This function calls:
  3926 ;;		_vfpfcnvrt
  3927 ;; This function is called by:
  3928 ;;		_printf
  3929 ;; This function uses a non-reentrant model
  3930 ;;
  3931                           
  3932                           
  3933                           ;psect for function _vfprintf
  3934  026E                     _vfprintf:
  3935                           
  3936                           ;incstack = 0
  3937                           ; Regs used in _vfprintf: [wreg-fsr1h+status,2+status,0+pclath+cstack]
  3938                           ;vfprintf@fp stored from wreg
  3939  026E  0020               	movlb	0	; select bank0
  3940  026F  00DD               	movwf	vfprintf@fp
  3941  0270                     l1660:
  3942                           
  3943                           ;C:\Program Files\Microchip\xc8\v2.32\pic\sources\c99\common\doprnt.c: 1390: int vfprint
      +                          f(FILE *fp, const char *fmt, va_list ap);C:\Program Files\Microchip\xc8\v2.32\pic\source
      +                          s\c99\common\doprnt.c: 1391: {;C:\Program Files\Microchip\xc8\v2.32\pic\sources\c99\comm
      +                          on\doprnt.c: 1393:     char *cfmt;;C:\Program Files\Microchip\xc8\v2.32\pic\sources\c99\
      +                          common\doprnt.c: 1395:     cfmt = (char *)fmt;
  3944  0270  0859               	movf	vfprintf@fmt+1,w
  3945  0271  00DF               	movwf	vfprintf@cfmt+1
  3946  0272  0858               	movf	vfprintf@fmt,w
  3947  0273  00DE               	movwf	vfprintf@cfmt
  3948  0274                     l1662:
  3949                           
  3950                           ;C:\Program Files\Microchip\xc8\v2.32\pic\sources\c99\common\doprnt.c: 1396:     nout = 
      +                          0;
  3951  0274  01C0               	clrf	_nout
  3952  0275  01C1               	clrf	_nout+1
  3953                           
  3954                           ;C:\Program Files\Microchip\xc8\v2.32\pic\sources\c99\common\doprnt.c: 1397:     while (
      +                          *cfmt) {
  3955  0276  2A88               	goto	l1666
  3956  0277                     l1664:
  3957                           
  3958                           ;C:\Program Files\Microchip\xc8\v2.32\pic\sources\c99\common\doprnt.c: 1398:         nou
      +                          t += vfpfcnvrt(fp, &cfmt, ap);
  3959  0277  305E               	movlw	(low (vfprintf@cfmt| 0))& (0+255)
  3960  0278  00DB               	movwf	??_vfprintf
  3961  0279  085B               	movf	??_vfprintf,w
  3962  027A  00F8               	movwf	vfpfcnvrt@fmt
  3963  027B  085A               	movf	vfprintf@ap,w
  3964  027C  00DC               	movwf	??_vfprintf+1
  3965  027D  085C               	movf	??_vfprintf+1,w
  3966  027E  00F9               	movwf	vfpfcnvrt@ap
  3967  027F  085D               	movf	vfprintf@fp,w
  3968  0280  3180  20EB  3182   	fcall	_vfpfcnvrt
  3969  0283  0878               	movf	?_vfpfcnvrt,w
  3970  0284  0020               	movlb	0	; select bank0
  3971  0285  07C0               	addwf	_nout,f
  3972  0286  0879               	movf	?_vfpfcnvrt+1,w
  3973  0287  3DC1               	addwfc	_nout+1,f
  3974  0288                     l1666:
  3975                           
  3976                           ;C:\Program Files\Microchip\xc8\v2.32\pic\sources\c99\common\doprnt.c: 1397:     while (
      +                          *cfmt) {
  3977  0288  085E               	movf	vfprintf@cfmt,w
  3978  0289  0084               	movwf	4
  3979  028A  085F               	movf	vfprintf@cfmt+1,w
  3980  028B  0085               	movwf	5
  3981  028C  0012               	moviw fsr0++
  3982  028D  1D03               	btfss	3,2
  3983  028E  2A90               	goto	u1031
  3984  028F  2A91               	goto	u1030
  3985  0290                     u1031:
  3986  0290  2A77               	goto	l1664
  3987  0291                     u1030:
  3988  0291                     l1668:
  3989                           
  3990                           ;C:\Program Files\Microchip\xc8\v2.32\pic\sources\c99\common\doprnt.c: 1400:     return 
      +                          nout;
  3991  0291  0841               	movf	_nout+1,w
  3992  0292  00D9               	movwf	?_vfprintf+1
  3993  0293  0840               	movf	_nout,w
  3994  0294  00D8               	movwf	?_vfprintf
  3995  0295                     l912:
  3996  0295  0008               	return
  3997  0296                     __end_of_vfprintf:
  3998                           
  3999                           	psect	text3
  4000  00EB                     __ptext3:	
  4001 ;; *************** function _vfpfcnvrt *****************
  4002 ;; Defined at:
  4003 ;;		line 692 in file "C:\Program Files\Microchip\xc8\v2.32\pic\sources\c99\common\doprnt.c"
  4004 ;; Parameters:    Size  Location     Type
  4005 ;;  fp              1    wreg     PTR struct _IO_FILE
  4006 ;;		 -> NULL(0), 
  4007 ;;  fmt             1    8[COMMON] PTR PTR unsigned char 
  4008 ;;		 -> vfprintf@cfmt(2), 
  4009 ;;  ap              1    9[COMMON] PTR PTR void 
  4010 ;;		 -> printf@ap(1), 
  4011 ;; Auto vars:     Size  Location     Type
  4012 ;;  fp              1   10[BANK0 ] PTR struct _IO_FILE
  4013 ;;		 -> NULL(0), 
  4014 ;;  llu             8    0        unsigned long long 
  4015 ;;  ll              8    0        long long 
  4016 ;;  f               4    0        long long 
  4017 ;;  ct              3    0        unsigned char [3]
  4018 ;;  vp              2    0        PTR void 
  4019 ;;  i               2    0        int 
  4020 ;;  done            2    0        int 
  4021 ;;  cp              2    0        PTR unsigned char 
  4022 ;;  c               1    0        unsigned char 
  4023 ;; Return value:  Size  Location     Type
  4024 ;;                  2    8[COMMON] int 
  4025 ;; Registers used:
  4026 ;;		wreg, fsr0l, fsr0h, fsr1l, fsr1h, status,2, status,0, pclath, cstack
  4027 ;; Tracked objects:
  4028 ;;		On entry : 0/0
  4029 ;;		On exit  : 0/0
  4030 ;;		Unchanged: 0/0
  4031 ;; Data sizes:     COMMON   BANK0   BANK1   BANK2   BANK3   BANK4   BANK5   BANK6   BANK7   BANK8   BANK9  BANK10  BANK1
      +1  BANK12
  4032 ;;      Params:         2       0       0       0       0       0       0       0       0       0       0       0       
      +0       0
  4033 ;;      Locals:         0       1       0       0       0       0       0       0       0       0       0       0       
      +0       0
  4034 ;;      Temps:          0       5       0       0       0       0       0       0       0       0       0       0       
      +0       0
  4035 ;;      Totals:         2       6       0       0       0       0       0       0       0       0       0       0       
      +0       0
  4036 ;;Total ram usage:        8 bytes
  4037 ;; Hardware stack levels used: 1
  4038 ;; Hardware stack levels required when called: 5
  4039 ;; This function calls:
  4040 ;;		_fputc
  4041 ;; This function is called by:
  4042 ;;		_vfprintf
  4043 ;; This function uses a non-reentrant model
  4044 ;;
  4045                           
  4046                           
  4047                           ;psect for function _vfpfcnvrt
  4048  00EB                     _vfpfcnvrt:
  4049                           
  4050                           ;incstack = 0
  4051                           ; Regs used in _vfpfcnvrt: [wreg-fsr1h+status,2+status,0+pclath+cstack]
  4052                           ;vfpfcnvrt@fp stored from wreg
  4053  00EB  0020               	movlb	0	; select bank0
  4054  00EC  00D7               	movwf	vfpfcnvrt@fp
  4055  00ED                     l1612:
  4056                           
  4057                           ;C:\Program Files\Microchip\xc8\v2.32\pic\sources\c99\common\doprnt.c: 692: static int v
      +                          fpfcnvrt(FILE *fp, char *fmt[], va_list ap);C:\Program Files\Microchip\xc8\v2.32\pic\sou
      +                          rces\c99\common\doprnt.c: 693: {;C:\Program Files\Microchip\xc8\v2.32\pic\sources\c99\co
      +                          mmon\doprnt.c: 694:     char c, *cp, ct[3];;C:\Program Files\Microchip\xc8\v2.32\pic\sou
      +                          rces\c99\common\doprnt.c: 695:     int done, i;;C:\Program Files\Microchip\xc8\v2.32\pic
      +                          \sources\c99\common\doprnt.c: 696:     long long ll;;C:\Program Files\Microchip\xc8\v2.3
      +                          2\pic\sources\c99\common\doprnt.c: 697:     unsigned long long llu;
  4058  00ED  0878               	movf	vfpfcnvrt@fmt,w
  4059  00EE  0086               	movwf	6
  4060  00EF  0187               	clrf	7
  4061  00F0  3F40               	moviw [0]fsr1
  4062  00F1  00D2               	movwf	??_vfpfcnvrt
  4063  00F2  3F41               	moviw [1]fsr1
  4064  00F3  00D3               	movwf	??_vfpfcnvrt+1
  4065  00F4  0852               	movf	??_vfpfcnvrt,w
  4066  00F5  0084               	movwf	4
  4067  00F6  0853               	movf	??_vfpfcnvrt+1,w
  4068  00F7  0085               	movwf	5
  4069  00F8  0012               	moviw fsr0++
  4070  00F9  3A25               	xorlw	37
  4071  00FA  1D03               	btfss	3,2
  4072  00FB  28FD               	goto	u1001
  4073  00FC  28FE               	goto	u1000
  4074  00FD                     u1001:
  4075  00FD  2942               	goto	l1636
  4076  00FE                     u1000:
  4077  00FE                     l1614:
  4078                           
  4079                           ;C:\Program Files\Microchip\xc8\v2.32\pic\sources\c99\common\doprnt.c: 703:         ++*f
      +                          mt;
  4080  00FE  0878               	movf	vfpfcnvrt@fmt,w
  4081  00FF  0086               	movwf	6
  4082  0100  0187               	clrf	7
  4083  0101  3001               	movlw	1
  4084  0102  0781               	addwf	1,f
  4085  0103  3141               	addfsr 1,1
  4086  0104  1803               	skipnc
  4087  0105  0A81               	incf	1,f
  4088  0106                     l1616:
  4089                           
  4090                           ;C:\Program Files\Microchip\xc8\v2.32\pic\sources\c99\common\doprnt.c: 705:         flag
      +                          s = width = 0;
  4091  0106  01C2               	clrf	_width
  4092  0107  01C3               	clrf	_width+1
  4093  0108  01C6               	clrf	_flags
  4094  0109  01C7               	clrf	_flags+1
  4095  010A                     l1618:
  4096                           
  4097                           ;C:\Program Files\Microchip\xc8\v2.32\pic\sources\c99\common\doprnt.c: 706:         prec
      +                           = -1;
  4098  010A  30FF               	movlw	255
  4099  010B  00C4               	movwf	_prec
  4100  010C  30FF               	movlw	255
  4101  010D  00C5               	movwf	_prec+1
  4102  010E                     l1620:
  4103                           
  4104                           ;C:\Program Files\Microchip\xc8\v2.32\pic\sources\c99\common\doprnt.c: 1372:         if 
      +                          ((*fmt)[0] == '%') {
  4105  010E  0878               	movf	vfpfcnvrt@fmt,w
  4106  010F  0086               	movwf	6
  4107  0110  0187               	clrf	7
  4108  0111  3F40               	moviw [0]fsr1
  4109  0112  00D2               	movwf	??_vfpfcnvrt
  4110  0113  3F41               	moviw [1]fsr1
  4111  0114  00D3               	movwf	??_vfpfcnvrt+1
  4112  0115  0852               	movf	??_vfpfcnvrt,w
  4113  0116  0084               	movwf	4
  4114  0117  0853               	movf	??_vfpfcnvrt+1,w
  4115  0118  0085               	movwf	5
  4116  0119  0012               	moviw fsr0++
  4117  011A  3A25               	xorlw	37
  4118  011B  1D03               	btfss	3,2
  4119  011C  291E               	goto	u1011
  4120  011D  291F               	goto	u1010
  4121  011E                     u1011:
  4122  011E  2937               	goto	l1630
  4123  011F                     u1010:
  4124  011F                     l1622:
  4125                           
  4126                           ;C:\Program Files\Microchip\xc8\v2.32\pic\sources\c99\common\doprnt.c: 1373:            
      +                           ++*fmt;
  4127  011F  0878               	movf	vfpfcnvrt@fmt,w
  4128  0120  0086               	movwf	6
  4129  0121  0187               	clrf	7
  4130  0122  3001               	movlw	1
  4131  0123  0781               	addwf	1,f
  4132  0124  3141               	addfsr 1,1
  4133  0125  1803               	skipnc
  4134  0126  0A81               	incf	1,f
  4135  0127                     l1624:
  4136                           
  4137                           ;C:\Program Files\Microchip\xc8\v2.32\pic\sources\c99\common\doprnt.c: 1374:            
      +                           fputc((int)'%', fp);
  4138  0127  3025               	movlw	37
  4139  0128  00F5               	movwf	fputc@c
  4140  0129  3000               	movlw	0
  4141  012A  00F6               	movwf	fputc@c+1
  4142  012B  0857               	movf	vfpfcnvrt@fp,w
  4143  012C  00D2               	movwf	??_vfpfcnvrt
  4144  012D  0852               	movf	??_vfpfcnvrt,w
  4145  012E  00F7               	movwf	fputc@fp
  4146  012F  3182  2202  3180   	fcall	_fputc
  4147  0132                     l1626:
  4148                           
  4149                           ;C:\Program Files\Microchip\xc8\v2.32\pic\sources\c99\common\doprnt.c: 1375:            
      +                           return 1;
  4150  0132  3001               	movlw	1
  4151  0133  00F8               	movwf	?_vfpfcnvrt
  4152  0134  3000               	movlw	0
  4153  0135  00F9               	movwf	?_vfpfcnvrt+1
  4154  0136  2964               	goto	l906
  4155  0137                     l1630:
  4156                           
  4157                           ;C:\Program Files\Microchip\xc8\v2.32\pic\sources\c99\common\doprnt.c: 1379:         ++*
      +                          fmt;
  4158  0137  0878               	movf	vfpfcnvrt@fmt,w
  4159  0138  0086               	movwf	6
  4160  0139  0187               	clrf	7
  4161  013A  3001               	movlw	1
  4162  013B  0781               	addwf	1,f
  4163  013C  3141               	addfsr 1,1
  4164  013D  1803               	skipnc
  4165  013E  0A81               	incf	1,f
  4166  013F                     l1632:
  4167                           
  4168                           ;C:\Program Files\Microchip\xc8\v2.32\pic\sources\c99\common\doprnt.c: 1380:         ret
      +                          urn 0;
  4169  013F  01F8               	clrf	?_vfpfcnvrt
  4170  0140  01F9               	clrf	?_vfpfcnvrt+1
  4171  0141  2964               	goto	l906
  4172  0142                     l1636:
  4173                           
  4174                           ;C:\Program Files\Microchip\xc8\v2.32\pic\sources\c99\common\doprnt.c: 1384:     fputc((
      +                          int)(*fmt)[0], fp);
  4175  0142  0878               	movf	vfpfcnvrt@fmt,w
  4176  0143  0086               	movwf	6
  4177  0144  0187               	clrf	7
  4178  0145  3F40               	moviw [0]fsr1
  4179  0146  00D2               	movwf	??_vfpfcnvrt
  4180  0147  3F41               	moviw [1]fsr1
  4181  0148  00D3               	movwf	??_vfpfcnvrt+1
  4182  0149  0852               	movf	??_vfpfcnvrt,w
  4183  014A  0084               	movwf	4
  4184  014B  0853               	movf	??_vfpfcnvrt+1,w
  4185  014C  0085               	movwf	5
  4186  014D  0800               	movf	0,w	;code access
  4187  014E  00D4               	movwf	??_vfpfcnvrt+2
  4188  014F  01D5               	clrf	??_vfpfcnvrt+3
  4189  0150  0854               	movf	??_vfpfcnvrt+2,w
  4190  0151  00F5               	movwf	fputc@c
  4191  0152  0855               	movf	??_vfpfcnvrt+3,w
  4192  0153  00F6               	movwf	fputc@c+1
  4193  0154  0857               	movf	vfpfcnvrt@fp,w
  4194  0155  00D6               	movwf	??_vfpfcnvrt+4
  4195  0156  0856               	movf	??_vfpfcnvrt+4,w
  4196  0157  00F7               	movwf	fputc@fp
  4197  0158  3182  2202  3180   	fcall	_fputc
  4198  015B                     l1638:
  4199                           
  4200                           ;C:\Program Files\Microchip\xc8\v2.32\pic\sources\c99\common\doprnt.c: 1385:     ++*fmt;
  4201  015B  0878               	movf	vfpfcnvrt@fmt,w
  4202  015C  0086               	movwf	6
  4203  015D  0187               	clrf	7
  4204  015E  3001               	movlw	1
  4205  015F  0781               	addwf	1,f
  4206  0160  3141               	addfsr 1,1
  4207  0161  1803               	skipnc
  4208  0162  0A81               	incf	1,f
  4209  0163  2932               	goto	l1626
  4210  0164                     l906:
  4211  0164  0008               	return
  4212  0165                     __end_of_vfpfcnvrt:
  4213                           
  4214                           	psect	text4
  4215  0202                     __ptext4:	
  4216 ;; *************** function _fputc *****************
  4217 ;; Defined at:
  4218 ;;		line 8 in file "C:\Program Files\Microchip\xc8\v2.32\pic\sources\c99\common\nf_fputc.c"
  4219 ;; Parameters:    Size  Location     Type
  4220 ;;  c               2    5[COMMON] int 
  4221 ;;  fp              1    7[COMMON] PTR struct _IO_FILE
  4222 ;;		 -> NULL(0), 
  4223 ;; Auto vars:     Size  Location     Type
  4224 ;;		None
  4225 ;; Return value:  Size  Location     Type
  4226 ;;                  2    5[COMMON] int 
  4227 ;; Registers used:
  4228 ;;		wreg, fsr1l, fsr1h, status,2, status,0, pclath, cstack
  4229 ;; Tracked objects:
  4230 ;;		On entry : 0/0
  4231 ;;		On exit  : 0/0
  4232 ;;		Unchanged: 0/0
  4233 ;; Data sizes:     COMMON   BANK0   BANK1   BANK2   BANK3   BANK4   BANK5   BANK6   BANK7   BANK8   BANK9  BANK10  BANK1
      +1  BANK12
  4234 ;;      Params:         3       0       0       0       0       0       0       0       0       0       0       0       
      +0       0
  4235 ;;      Locals:         0       0       0       0       0       0       0       0       0       0       0       0       
      +0       0
  4236 ;;      Temps:          0       5       0       0       0       0       0       0       0       0       0       0       
      +0       0
  4237 ;;      Totals:         3       5       0       0       0       0       0       0       0       0       0       0       
      +0       0
  4238 ;;Total ram usage:        8 bytes
  4239 ;; Hardware stack levels used: 1
  4240 ;; Hardware stack levels required when called: 4
  4241 ;; This function calls:
  4242 ;;		_putch
  4243 ;; This function is called by:
  4244 ;;		_vfpfcnvrt
  4245 ;; This function uses a non-reentrant model
  4246 ;;
  4247                           
  4248                           
  4249                           ;psect for function _fputc
  4250  0202                     _fputc:
  4251  0202                     l1574:	
  4252                           ;incstack = 0
  4253                           ; Regs used in _fputc: [wreg+fsr1l+fsr1h+status,2+status,0+pclath+cstack]
  4254                           
  4255  0202  0877               	movf	fputc@fp,w
  4256  0203  1903               	btfsc	3,2
  4257  0204  2A06               	goto	u891
  4258  0205  2A07               	goto	u890
  4259  0206                     u891:
  4260  0206  2A0C               	goto	l1578
  4261  0207                     u890:
  4262  0207                     l1576:
  4263  0207  0877               	movf	fputc@fp,w
  4264  0208  1D03               	btfss	3,2
  4265  0209  2A0B               	goto	u901
  4266  020A  2A0C               	goto	u900
  4267  020B                     u901:
  4268  020B  2A11               	goto	l1580
  4269  020C                     u900:
  4270  020C                     l1578:
  4271  020C  0875               	movf	fputc@c,w
  4272  020D  3183  2316  3182   	fcall	_putch
  4273  0210  2A41               	goto	l924
  4274  0211                     l1580:
  4275  0211  0877               	movf	fputc@fp,w
  4276  0212  3E03               	addlw	3
  4277  0213  0086               	movwf	6
  4278  0214  0187               	clrf	7
  4279  0215  0016               	moviw fsr1++
  4280  0216  0401               	iorwf	1,w
  4281  0217  1903               	btfsc	3,2
  4282  0218  2A1A               	goto	u911
  4283  0219  2A1B               	goto	u910
  4284  021A                     u911:
  4285  021A  2A39               	goto	l1584
  4286  021B                     u910:
  4287  021B                     l1582:
  4288  021B  0877               	movf	fputc@fp,w
  4289  021C  3E03               	addlw	3
  4290  021D  0086               	movwf	6
  4291  021E  0187               	clrf	7
  4292  021F  3F40               	moviw [0]fsr1
  4293  0220  0020               	movlb	0	; select bank0
  4294  0221  00CD               	movwf	??_fputc
  4295  0222  3F41               	moviw [1]fsr1
  4296  0223  00CE               	movwf	??_fputc+1
  4297  0224  0A77               	incf	fputc@fp,w
  4298  0225  0086               	movwf	6
  4299  0226  0187               	clrf	7
  4300  0227  3F40               	moviw [0]fsr1
  4301  0228  00CF               	movwf	??_fputc+2
  4302  0229  3F41               	moviw [1]fsr1
  4303  022A  00D0               	movwf	??_fputc+3
  4304  022B  0850               	movf	??_fputc+3,w
  4305  022C  3A80               	xorlw	128
  4306  022D  00D1               	movwf	??_fputc+4
  4307  022E  084E               	movf	??_fputc+1,w
  4308  022F  3A80               	xorlw	128
  4309  0230  0251               	subwf	??_fputc+4,w
  4310  0231  1D03               	skipz
  4311  0232  2A35               	goto	u925
  4312  0233  084D               	movf	??_fputc,w
  4313  0234  024F               	subwf	??_fputc+2,w
  4314  0235                     u925:
  4315  0235  1803               	skipnc
  4316  0236  2A38               	goto	u921
  4317  0237  2A39               	goto	u920
  4318  0238                     u921:
  4319  0238  2A41               	goto	l924
  4320  0239                     u920:
  4321  0239                     l1584:
  4322  0239  0A77               	incf	fputc@fp,w
  4323  023A  0086               	movwf	6
  4324  023B  0187               	clrf	7
  4325  023C  3001               	movlw	1
  4326  023D  0781               	addwf	1,f
  4327  023E  3141               	addfsr 1,1
  4328  023F  1803               	skipnc
  4329  0240  0A81               	incf	1,f
  4330  0241                     l924:
  4331  0241  0008               	return
  4332  0242                     __end_of_fputc:
  4333                           
  4334                           	psect	text5
  4335  0316                     __ptext5:	
  4336 ;; *************** function _putch *****************
  4337 ;; Defined at:
  4338 ;;		line 98 in file "uart.c"
  4339 ;; Parameters:    Size  Location     Type
  4340 ;;  dato            1    wreg     unsigned char 
  4341 ;; Auto vars:     Size  Location     Type
  4342 ;;  dato            1    4[COMMON] unsigned char 
  4343 ;; Return value:  Size  Location     Type
  4344 ;;                  1    wreg      void 
  4345 ;; Registers used:
  4346 ;;		wreg, status,2, status,0, pclath, cstack
  4347 ;; Tracked objects:
  4348 ;;		On entry : 0/0
  4349 ;;		On exit  : 0/0
  4350 ;;		Unchanged: 0/0
  4351 ;; Data sizes:     COMMON   BANK0   BANK1   BANK2   BANK3   BANK4   BANK5   BANK6   BANK7   BANK8   BANK9  BANK10  BANK1
      +1  BANK12
  4352 ;;      Params:         0       0       0       0       0       0       0       0       0       0       0       0       
      +0       0
  4353 ;;      Locals:         1       0       0       0       0       0       0       0       0       0       0       0       
      +0       0
  4354 ;;      Temps:          0       0       0       0       0       0       0       0       0       0       0       0       
      +0       0
  4355 ;;      Totals:         1       0       0       0       0       0       0       0       0       0       0       0       
      +0       0
  4356 ;;Total ram usage:        1 bytes
  4357 ;; Hardware stack levels used: 1
  4358 ;; Hardware stack levels required when called: 3
  4359 ;; This function calls:
  4360 ;;		_uart_tx
  4361 ;; This function is called by:
  4362 ;;		_fputc
  4363 ;; This function uses a non-reentrant model
  4364 ;;
  4365                           
  4366                           
  4367                           ;psect for function _putch
  4368  0316                     _putch:
  4369                           
  4370                           ;incstack = 0
  4371                           ; Regs used in _putch: [wreg+status,2+status,0+pclath+cstack]
  4372                           ;putch@dato stored from wreg
  4373  0316  00F4               	movwf	putch@dato
  4374  0317                     l1572:
  4375                           
  4376                           ;uart.c: 100:     uart_tx( dato);
  4377  0317  0874               	movf	putch@dato,w
  4378  0318  3182  22F6  3183   	fcall	_uart_tx
  4379  031B                     l139:
  4380  031B  0008               	return
  4381  031C                     __end_of_putch:
  4382                           
  4383                           	psect	text6
  4384  02F6                     __ptext6:	
  4385 ;; *************** function _uart_tx *****************
  4386 ;; Defined at:
  4387 ;;		line 65 in file "uart.c"
  4388 ;; Parameters:    Size  Location     Type
  4389 ;;  dato            1    wreg     unsigned char 
  4390 ;; Auto vars:     Size  Location     Type
  4391 ;;  dato            1    3[COMMON] unsigned char 
  4392 ;; Return value:  Size  Location     Type
  4393 ;;                  1    wreg      void 
  4394 ;; Registers used:
  4395 ;;		wreg, status,2, status,0
  4396 ;; Tracked objects:
  4397 ;;		On entry : 0/0
  4398 ;;		On exit  : 0/0
  4399 ;;		Unchanged: 0/0
  4400 ;; Data sizes:     COMMON   BANK0   BANK1   BANK2   BANK3   BANK4   BANK5   BANK6   BANK7   BANK8   BANK9  BANK10  BANK1
      +1  BANK12
  4401 ;;      Params:         0       0       0       0       0       0       0       0       0       0       0       0       
      +0       0
  4402 ;;      Locals:         1       0       0       0       0       0       0       0       0       0       0       0       
      +0       0
  4403 ;;      Temps:          1       0       0       0       0       0       0       0       0       0       0       0       
      +0       0
  4404 ;;      Totals:         2       0       0       0       0       0       0       0       0       0       0       0       
      +0       0
  4405 ;;Total ram usage:        2 bytes
  4406 ;; Hardware stack levels used: 1
  4407 ;; Hardware stack levels required when called: 2
  4408 ;; This function calls:
  4409 ;;		Nothing
  4410 ;; This function is called by:
  4411 ;;		_putch
  4412 ;;		_uart_send_string
  4413 ;; This function uses a non-reentrant model
  4414 ;;
  4415                           
  4416                           
  4417                           ;psect for function _uart_tx
  4418  02F6                     _uart_tx:
  4419                           
  4420                           ;incstack = 0
  4421                           ; Regs used in _uart_tx: [wreg+status,2+status,0]
  4422                           ;uart_tx@dato stored from wreg
  4423  02F6  00F3               	movwf	uart_tx@dato
  4424  02F7                     l1566:
  4425  02F7                     l1568:	
  4426                           ;uart.c: 67:     while( ( (PIR3>>4) & 0x01) == 0){}
  4427                           
  4428  02F7  002E               	movlb	14	; select bank14
  4429  02F8  080F               	movf	15,w	;volatile
  4430  02F9  00F2               	movwf	??_uart_tx
  4431  02FA  3004               	movlw	4
  4432  02FB                     u875:
  4433  02FB  36F2               	lsrf	??_uart_tx,f
  4434  02FC  0B89               	decfsz	9,f
  4435  02FD  2AFB               	goto	u875
  4436  02FE  1C72               	btfss	??_uart_tx,0
  4437  02FF  2B01               	goto	u881
  4438  0300  2B02               	goto	u880
  4439  0301                     u881:
  4440  0301  2AF7               	goto	l1568
  4441  0302                     u880:
  4442  0302                     l1570:
  4443                           
  4444                           ;uart.c: 69:         TXREG = dato;
  4445  0302  0873               	movf	uart_tx@dato,w
  4446  0303  0022               	movlb	2	; select bank2
  4447  0304  009A               	movwf	26	;volatile
  4448  0305                     l123:
  4449  0305  0008               	return
  4450  0306                     __end_of_uart_tx:
  4451                           
  4452                           	psect	text7
  4453  0242                     __ptext7:	
  4454 ;; *************** function _port_init *****************
  4455 ;; Defined at:
  4456 ;;		line 91 in file "Main.c"
  4457 ;; Parameters:    Size  Location     Type
  4458 ;;		None
  4459 ;; Auto vars:     Size  Location     Type
  4460 ;;		None
  4461 ;; Return value:  Size  Location     Type
  4462 ;;                  1    wreg      void 
  4463 ;; Registers used:
  4464 ;;		wreg, status,2, status,0, pclath, cstack
  4465 ;; Tracked objects:
  4466 ;;		On entry : 0/0
  4467 ;;		On exit  : 0/0
  4468 ;;		Unchanged: 0/0
  4469 ;; Data sizes:     COMMON   BANK0   BANK1   BANK2   BANK3   BANK4   BANK5   BANK6   BANK7   BANK8   BANK9  BANK10  BANK1
      +1  BANK12
  4470 ;;      Params:         0       0       0       0       0       0       0       0       0       0       0       0       
      +0       0
  4471 ;;      Locals:         0       0       0       0       0       0       0       0       0       0       0       0       
      +0       0
  4472 ;;      Temps:          0       0       0       0       0       0       0       0       0       0       0       0       
      +0       0
  4473 ;;      Totals:         0       0       0       0       0       0       0       0       0       0       0       0       
      +0       0
  4474 ;;Total ram usage:        0 bytes
  4475 ;; Hardware stack levels used: 1
  4476 ;; Hardware stack levels required when called: 4
  4477 ;; This function calls:
  4478 ;;		_serial_Interrupt_init
  4479 ;; This function is called by:
  4480 ;;		_main
  4481 ;; This function uses a non-reentrant model
  4482 ;;
  4483                           
  4484                           
  4485                           ;psect for function _port_init
  4486  0242                     _port_init:
  4487  0242                     l1672:	
  4488                           ;incstack = 0
  4489                           ; Regs used in _port_init: [wreg+status,2+status,0+pclath+cstack]
  4490                           
  4491                           
  4492                           ;Main.c: 93:     ANSELA = 0;
  4493  0242  003E               	movlb	30	; select bank30
  4494  0243  01B8               	clrf	56	;volatile
  4495                           
  4496                           ;Main.c: 94:     LATA=0;
  4497  0244  0020               	movlb	0	; select bank0
  4498  0245  0196               	clrf	22	;volatile
  4499                           
  4500                           ;Main.c: 95:     PORTA =0;
  4501  0246  018C               	clrf	12	;volatile
  4502  0247                     l1674:
  4503                           
  4504                           ;Main.c: 96:     TRISA = 0b11110000;
  4505  0247  30F0               	movlw	240
  4506  0248  0091               	movwf	17	;volatile
  4507  0249                     l1676:
  4508                           
  4509                           ;Main.c: 99:     ANSELA = 0;
  4510  0249  003E               	movlb	30	; select bank30
  4511  024A  01B8               	clrf	56	;volatile
  4512  024B                     l1678:
  4513                           
  4514                           ;Main.c: 100:     ANSELA = ANSELA | (1<<4);
  4515  024B  0838               	movf	56,w	;volatile
  4516  024C  3810               	iorlw	16
  4517  024D  00B8               	movwf	56	;volatile
  4518                           
  4519                           ;Main.c: 102:     LATB=0;
  4520  024E  0020               	movlb	0	; select bank0
  4521  024F  0197               	clrf	23	;volatile
  4522                           
  4523                           ;Main.c: 103:     PORTB =0;
  4524  0250  018D               	clrf	13	;volatile
  4525  0251                     l1680:
  4526                           
  4527                           ;Main.c: 104:     TRISB = TRISA | (1<<0);
  4528  0251  0811               	movf	17,w	;volatile
  4529  0252  3801               	iorlw	1
  4530  0253  0092               	movwf	18	;volatile
  4531  0254                     l1682:
  4532                           
  4533                           ;Main.c: 105:     ANSELB = 0;
  4534  0254  003E               	movlb	30	; select bank30
  4535  0255  01C3               	clrf	67	;volatile
  4536                           
  4537                           ;Main.c: 106:     ANSELB = ANSELB | (1<<0);
  4538  0256  0843               	movf	67,w	;volatile
  4539  0257  3801               	iorlw	1
  4540  0258  00C3               	movwf	67	;volatile
  4541  0259                     l1684:
  4542                           
  4543                           ;Main.c: 108:     TRISC = 0b10;
  4544  0259  3002               	movlw	2
  4545  025A  0020               	movlb	0	; select bank0
  4546  025B  0093               	movwf	19	;volatile
  4547                           
  4548                           ;Main.c: 109:     ANSELC = 0;
  4549  025C  003E               	movlb	30	; select bank30
  4550  025D  01CE               	clrf	78	;volatile
  4551  025E                     l1686:
  4552                           
  4553                           ;Main.c: 110:     TRISC = TRISC | (1<<4 |1<<3 );
  4554  025E  0020               	movlb	0	; select bank0
  4555  025F  0813               	movf	19,w	;volatile
  4556  0260  3818               	iorlw	24
  4557  0261  0093               	movwf	19	;volatile
  4558  0262                     l1688:
  4559                           
  4560                           ;Main.c: 112:     serial_Interrupt_init(9600);
  4561  0262  3000               	movlw	0
  4562  0263  00D6               	movwf	serial_Interrupt_init@baudios+3
  4563  0264  3000               	movlw	0
  4564  0265  00D5               	movwf	serial_Interrupt_init@baudios+2
  4565  0266  3025               	movlw	37
  4566  0267  00D4               	movwf	serial_Interrupt_init@baudios+1
  4567  0268  3080               	movlw	128
  4568  0269  00D3               	movwf	serial_Interrupt_init@baudios
  4569  026A  3181  21C0  3182   	fcall	_serial_Interrupt_init
  4570  026D                     l87:
  4571  026D  0008               	return
  4572  026E                     __end_of_port_init:
  4573                           
  4574                           	psect	text8
  4575  01C0                     __ptext8:	
  4576 ;; *************** function _serial_Interrupt_init *****************
  4577 ;; Defined at:
  4578 ;;		line 32 in file "uart.c"
  4579 ;; Parameters:    Size  Location     Type
  4580 ;;  baudios         4    6[BANK0 ] unsigned long 
  4581 ;; Auto vars:     Size  Location     Type
  4582 ;;  sx              2   14[BANK0 ] unsigned short 
  4583 ;; Return value:  Size  Location     Type
  4584 ;;                  1    wreg      void 
  4585 ;; Registers used:
  4586 ;;		wreg, status,2, status,0, pclath, cstack
  4587 ;; Tracked objects:
  4588 ;;		On entry : 0/0
  4589 ;;		On exit  : 0/0
  4590 ;;		Unchanged: 0/0
  4591 ;; Data sizes:     COMMON   BANK0   BANK1   BANK2   BANK3   BANK4   BANK5   BANK6   BANK7   BANK8   BANK9  BANK10  BANK1
      +1  BANK12
  4592 ;;      Params:         0       4       0       0       0       0       0       0       0       0       0       0       
      +0       0
  4593 ;;      Locals:         0       2       0       0       0       0       0       0       0       0       0       0       
      +0       0
  4594 ;;      Temps:          0       4       0       0       0       0       0       0       0       0       0       0       
      +0       0
  4595 ;;      Totals:         0      10       0       0       0       0       0       0       0       0       0       0       
      +0       0
  4596 ;;Total ram usage:       10 bytes
  4597 ;; Hardware stack levels used: 1
  4598 ;; Hardware stack levels required when called: 3
  4599 ;; This function calls:
  4600 ;;		___lldiv
  4601 ;; This function is called by:
  4602 ;;		_port_init
  4603 ;; This function uses a non-reentrant model
  4604 ;;
  4605                           
  4606                           
  4607                           ;psect for function _serial_Interrupt_init
  4608  01C0                     _serial_Interrupt_init:
  4609  01C0                     l1644:	
  4610                           ;incstack = 0
  4611                           ; Regs used in _serial_Interrupt_init: [wreg+status,2+status,0+pclath+cstack]
  4612                           
  4613                           
  4614                           ;uart.c: 33:     uint16_t sx;;uart.c: 36:     BAUD1CON = 0x08;
  4615  01C0  3008               	movlw	8
  4616  01C1  0022               	movlb	2	; select bank2
  4617  01C2  009F               	movwf	31	;volatile
  4618                           
  4619                           ;uart.c: 38:     RC1STA = 0b10010000;
  4620  01C3  3090               	movlw	144
  4621  01C4  009D               	movwf	29	;volatile
  4622                           
  4623                           ;uart.c: 44:     TX1STA = 0b00100100;
  4624  01C5  3024               	movlw	36
  4625  01C6  009E               	movwf	30	;volatile
  4626  01C7                     l1646:
  4627                           
  4628                           ;uart.c: 49:     sx = ((32000000UL/baudios)/4 ) - 1;
  4629  01C7  0020               	movlb	0	; select bank0
  4630  01C8  0856               	movf	serial_Interrupt_init@baudios+3,w
  4631  01C9  00F5               	movwf	___lldiv@divisor+3
  4632  01CA  0855               	movf	serial_Interrupt_init@baudios+2,w
  4633  01CB  00F4               	movwf	___lldiv@divisor+2
  4634  01CC  0854               	movf	serial_Interrupt_init@baudios+1,w
  4635  01CD  00F3               	movwf	___lldiv@divisor+1
  4636  01CE  0853               	movf	serial_Interrupt_init@baudios,w
  4637  01CF  00F2               	movwf	___lldiv@divisor
  4638  01D0  3001               	movlw	1
  4639  01D1  00F9               	movwf	___lldiv@dividend+3
  4640  01D2  30E8               	movlw	232
  4641  01D3  00F8               	movwf	___lldiv@dividend+2
  4642  01D4  3048               	movlw	72
  4643  01D5  00F7               	movwf	___lldiv@dividend+1
  4644  01D6  3000               	movlw	0
  4645  01D7  00F6               	movwf	___lldiv@dividend
  4646  01D8  3181  2165  3181   	fcall	___lldiv
  4647  01DB  0872               	movf	?___lldiv,w
  4648  01DC  0020               	movlb	0	; select bank0
  4649  01DD  00D7               	movwf	??_serial_Interrupt_init
  4650  01DE  0873               	movf	?___lldiv+1,w
  4651  01DF  00D8               	movwf	??_serial_Interrupt_init+1
  4652  01E0  0874               	movf	?___lldiv+2,w
  4653  01E1  00D9               	movwf	??_serial_Interrupt_init+2
  4654  01E2  0875               	movf	?___lldiv+3,w
  4655  01E3  00DA               	movwf	??_serial_Interrupt_init+3
  4656  01E4  3002               	movlw	2
  4657  01E5                     u1025:
  4658  01E5  36DA               	lsrf	??_serial_Interrupt_init+3,f
  4659  01E6  0CD9               	rrf	??_serial_Interrupt_init+2,f
  4660  01E7  0CD8               	rrf	??_serial_Interrupt_init+1,f
  4661  01E8  0CD7               	rrf	??_serial_Interrupt_init,f
  4662  01E9                     u1020:
  4663  01E9  0B89               	decfsz	9,f
  4664  01EA  29E5               	goto	u1025
  4665  01EB  0857               	movf	??_serial_Interrupt_init,w
  4666  01EC  3EFF               	addlw	255
  4667  01ED  00DB               	movwf	serial_Interrupt_init@sx
  4668  01EE  30FF               	movlw	255
  4669  01EF  3D58               	addwfc	??_serial_Interrupt_init+1,w
  4670  01F0  00DC               	movwf	serial_Interrupt_init@sx+1
  4671  01F1                     l1648:
  4672                           
  4673                           ;uart.c: 50:     SP1BRGL = (uint8_t)sx;
  4674  01F1  085B               	movf	serial_Interrupt_init@sx,w
  4675  01F2  0022               	movlb	2	; select bank2
  4676  01F3  009B               	movwf	27	;volatile
  4677  01F4                     l1650:
  4678                           
  4679                           ;uart.c: 51:     SP1BRGH = (uint8_t)(sx>>8);
  4680  01F4  0020               	movlb	0	; select bank0
  4681  01F5  085C               	movf	serial_Interrupt_init@sx+1,w
  4682  01F6  0022               	movlb	2	; select bank2
  4683  01F7  009C               	movwf	28	;volatile
  4684  01F8                     l1652:
  4685                           
  4686                           ;uart.c: 53:     PIR3bits.RCIF = 0;
  4687  01F8  002E               	movlb	14	; select bank14
  4688  01F9  128F               	bcf	15,5	;volatile
  4689  01FA                     l1654:
  4690                           
  4691                           ;uart.c: 54:     PIE3bits.RCIE = 1;
  4692  01FA  1699               	bsf	25,5	;volatile
  4693  01FB                     l1656:
  4694                           
  4695                           ;uart.c: 60:     RC0PPS = 0x10;
  4696  01FB  3010               	movlw	16
  4697  01FC  003E               	movlb	30	; select bank30
  4698  01FD  00A0               	movwf	32	;volatile
  4699  01FE                     l1658:
  4700                           
  4701                           ;uart.c: 62:     RXPPS = 0x11;
  4702  01FE  3011               	movlw	17
  4703  01FF  003D               	movlb	29	; select bank29
  4704  0200  00CB               	movwf	75	;volatile
  4705  0201                     l117:
  4706  0201  0008               	return
  4707  0202                     __end_of_serial_Interrupt_init:
  4708                           
  4709                           	psect	text9
  4710  0165                     __ptext9:	
  4711 ;; *************** function ___lldiv *****************
  4712 ;; Defined at:
  4713 ;;		line 5 in file "C:\Program Files\Microchip\xc8\v2.32\pic\sources\c99\common\__lldiv.c"
  4714 ;; Parameters:    Size  Location     Type
  4715 ;;  divisor         4    2[COMMON] unsigned long 
  4716 ;;  dividend        4    6[COMMON] unsigned long 
  4717 ;; Auto vars:     Size  Location     Type
  4718 ;;  quotient        4    1[BANK0 ] unsigned long 
  4719 ;;  counter         1    5[BANK0 ] unsigned char 
  4720 ;; Return value:  Size  Location     Type
  4721 ;;                  4    2[COMMON] unsigned long 
  4722 ;; Registers used:
  4723 ;;		wreg, status,2, status,0
  4724 ;; Tracked objects:
  4725 ;;		On entry : 0/0
  4726 ;;		On exit  : 0/0
  4727 ;;		Unchanged: 0/0
  4728 ;; Data sizes:     COMMON   BANK0   BANK1   BANK2   BANK3   BANK4   BANK5   BANK6   BANK7   BANK8   BANK9  BANK10  BANK1
      +1  BANK12
  4729 ;;      Params:         8       0       0       0       0       0       0       0       0       0       0       0       
      +0       0
  4730 ;;      Locals:         0       5       0       0       0       0       0       0       0       0       0       0       
      +0       0
  4731 ;;      Temps:          0       1       0       0       0       0       0       0       0       0       0       0       
      +0       0
  4732 ;;      Totals:         8       6       0       0       0       0       0       0       0       0       0       0       
      +0       0
  4733 ;;Total ram usage:       14 bytes
  4734 ;; Hardware stack levels used: 1
  4735 ;; Hardware stack levels required when called: 2
  4736 ;; This function calls:
  4737 ;;		Nothing
  4738 ;; This function is called by:
  4739 ;;		_serial_Interrupt_init
  4740 ;;		_serial_init
  4741 ;; This function uses a non-reentrant model
  4742 ;;
  4743                           
  4744                           
  4745                           ;psect for function ___lldiv
  4746  0165                     ___lldiv:
  4747  0165                     l1588:	
  4748                           ;incstack = 0
  4749                           ; Regs used in ___lldiv: [wreg+status,2+status,0]
  4750                           
  4751  0165  3000               	movlw	0
  4752  0166  0020               	movlb	0	; select bank0
  4753  0167  00D1               	movwf	___lldiv@quotient+3
  4754  0168  3000               	movlw	0
  4755  0169  00D0               	movwf	___lldiv@quotient+2
  4756  016A  3000               	movlw	0
  4757  016B  00CF               	movwf	___lldiv@quotient+1
  4758  016C  3000               	movlw	0
  4759  016D  00CE               	movwf	___lldiv@quotient
  4760  016E  0875               	movf	___lldiv@divisor+3,w
  4761  016F  0474               	iorwf	___lldiv@divisor+2,w
  4762  0170  0473               	iorwf	___lldiv@divisor+1,w
  4763  0171  0472               	iorwf	___lldiv@divisor,w
  4764  0172  1903               	skipnz
  4765  0173  2975               	goto	u931
  4766  0174  2976               	goto	u930
  4767  0175                     u931:
  4768  0175  29B7               	goto	l1608
  4769  0176                     u930:
  4770  0176                     l1590:
  4771  0176  01D2               	clrf	___lldiv@counter
  4772  0177  0AD2               	incf	___lldiv@counter,f
  4773  0178  2984               	goto	l1594
  4774  0179                     l1592:
  4775  0179  3001               	movlw	1
  4776  017A                     u945:
  4777  017A  35F2               	lslf	___lldiv@divisor,f
  4778  017B  0DF3               	rlf	___lldiv@divisor+1,f
  4779  017C  0DF4               	rlf	___lldiv@divisor+2,f
  4780  017D  0DF5               	rlf	___lldiv@divisor+3,f
  4781  017E  0B89               	decfsz	9,f
  4782  017F  297A               	goto	u945
  4783  0180  3001               	movlw	1
  4784  0181  00CD               	movwf	??___lldiv
  4785  0182  084D               	movf	??___lldiv,w
  4786  0183  07D2               	addwf	___lldiv@counter,f
  4787  0184                     l1594:
  4788  0184  1FF5               	btfss	___lldiv@divisor+3,7
  4789  0185  2987               	goto	u951
  4790  0186  2988               	goto	u950
  4791  0187                     u951:
  4792  0187  2979               	goto	l1592
  4793  0188                     u950:
  4794  0188                     l1596:
  4795  0188  3001               	movlw	1
  4796  0189                     u965:
  4797  0189  35CE               	lslf	___lldiv@quotient,f
  4798  018A  0DCF               	rlf	___lldiv@quotient+1,f
  4799  018B  0DD0               	rlf	___lldiv@quotient+2,f
  4800  018C  0DD1               	rlf	___lldiv@quotient+3,f
  4801  018D  0B89               	decfsz	9,f
  4802  018E  2989               	goto	u965
  4803  018F                     l1598:
  4804  018F  0875               	movf	___lldiv@divisor+3,w
  4805  0190  0279               	subwf	___lldiv@dividend+3,w
  4806  0191  1D03               	skipz
  4807  0192  299D               	goto	u975
  4808  0193  0874               	movf	___lldiv@divisor+2,w
  4809  0194  0278               	subwf	___lldiv@dividend+2,w
  4810  0195  1D03               	skipz
  4811  0196  299D               	goto	u975
  4812  0197  0873               	movf	___lldiv@divisor+1,w
  4813  0198  0277               	subwf	___lldiv@dividend+1,w
  4814  0199  1D03               	skipz
  4815  019A  299D               	goto	u975
  4816  019B  0872               	movf	___lldiv@divisor,w
  4817  019C  0276               	subwf	___lldiv@dividend,w
  4818  019D                     u975:
  4819  019D  1C03               	skipc
  4820  019E  29A0               	goto	u971
  4821  019F  29A1               	goto	u970
  4822  01A0                     u971:
  4823  01A0  29AA               	goto	l1604
  4824  01A1                     u970:
  4825  01A1                     l1600:
  4826  01A1  0872               	movf	___lldiv@divisor,w
  4827  01A2  02F6               	subwf	___lldiv@dividend,f
  4828  01A3  0873               	movf	___lldiv@divisor+1,w
  4829  01A4  3BF7               	subwfb	___lldiv@dividend+1,f
  4830  01A5  0874               	movf	___lldiv@divisor+2,w
  4831  01A6  3BF8               	subwfb	___lldiv@dividend+2,f
  4832  01A7  0875               	movf	___lldiv@divisor+3,w
  4833  01A8  3BF9               	subwfb	___lldiv@dividend+3,f
  4834  01A9                     l1602:
  4835  01A9  144E               	bsf	___lldiv@quotient,0
  4836  01AA                     l1604:
  4837  01AA  3001               	movlw	1
  4838  01AB                     u985:
  4839  01AB  36F5               	lsrf	___lldiv@divisor+3,f
  4840  01AC  0CF4               	rrf	___lldiv@divisor+2,f
  4841  01AD  0CF3               	rrf	___lldiv@divisor+1,f
  4842  01AE  0CF2               	rrf	___lldiv@divisor,f
  4843  01AF  0B89               	decfsz	9,f
  4844  01B0  29AB               	goto	u985
  4845  01B1                     l1606:
  4846  01B1  3001               	movlw	1
  4847  01B2  02D2               	subwf	___lldiv@counter,f
  4848  01B3  1D03               	btfss	3,2
  4849  01B4  29B6               	goto	u991
  4850  01B5  29B7               	goto	u990
  4851  01B6                     u991:
  4852  01B6  2988               	goto	l1596
  4853  01B7                     u990:
  4854  01B7                     l1608:
  4855  01B7  0851               	movf	___lldiv@quotient+3,w
  4856  01B8  00F5               	movwf	?___lldiv+3
  4857  01B9  0850               	movf	___lldiv@quotient+2,w
  4858  01BA  00F4               	movwf	?___lldiv+2
  4859  01BB  084F               	movf	___lldiv@quotient+1,w
  4860  01BC  00F3               	movwf	?___lldiv+1
  4861  01BD  084E               	movf	___lldiv@quotient,w
  4862  01BE  00F2               	movwf	?___lldiv
  4863  01BF                     l446:
  4864  01BF  0008               	return
  4865  01C0                     __end_of___lldiv:
  4866                           
  4867                           	psect	text10
  4868  0321                     __ptext10:	
  4869 ;; *************** function _enable_Peripheral_interrupt *****************
  4870 ;; Defined at:
  4871 ;;		line 11 in file "interrupt.c"
  4872 ;; Parameters:    Size  Location     Type
  4873 ;;		None
  4874 ;; Auto vars:     Size  Location     Type
  4875 ;;		None
  4876 ;; Return value:  Size  Location     Type
  4877 ;;                  1    wreg      void 
  4878 ;; Registers used:
  4879 ;;		wreg, status,2
  4880 ;; Tracked objects:
  4881 ;;		On entry : 0/0
  4882 ;;		On exit  : 0/0
  4883 ;;		Unchanged: 0/0
  4884 ;; Data sizes:     COMMON   BANK0   BANK1   BANK2   BANK3   BANK4   BANK5   BANK6   BANK7   BANK8   BANK9  BANK10  BANK1
      +1  BANK12
  4885 ;;      Params:         0       0       0       0       0       0       0       0       0       0       0       0       
      +0       0
  4886 ;;      Locals:         0       0       0       0       0       0       0       0       0       0       0       0       
      +0       0
  4887 ;;      Temps:          0       0       0       0       0       0       0       0       0       0       0       0       
      +0       0
  4888 ;;      Totals:         0       0       0       0       0       0       0       0       0       0       0       0       
      +0       0
  4889 ;;Total ram usage:        0 bytes
  4890 ;; Hardware stack levels used: 1
  4891 ;; Hardware stack levels required when called: 2
  4892 ;; This function calls:
  4893 ;;		Nothing
  4894 ;; This function is called by:
  4895 ;;		_main
  4896 ;; This function uses a non-reentrant model
  4897 ;;
  4898                           
  4899                           
  4900                           ;psect for function _enable_Peripheral_interrupt
  4901  0321                     _enable_Peripheral_interrupt:
  4902  0321                     l1402:	
  4903                           ;incstack = 0
  4904                           ; Regs used in _enable_Peripheral_interrupt: [wreg+status,2]
  4905                           
  4906                           
  4907                           ;interrupt.c: 12:     INTCON = INTCON | (1<<6);
  4908  0321  080B               	movf	11,w	;volatile
  4909  0322  3840               	iorlw	64
  4910  0323  008B               	movwf	11	;volatile
  4911  0324                     l222:
  4912  0324  0008               	return
  4913  0325                     __end_of_enable_Peripheral_interrupt:
  4914                           
  4915                           	psect	text11
  4916  0325                     __ptext11:	
  4917 ;; *************** function _enable_Global_interrupt *****************
  4918 ;; Defined at:
  4919 ;;		line 7 in file "interrupt.c"
  4920 ;; Parameters:    Size  Location     Type
  4921 ;;		None
  4922 ;; Auto vars:     Size  Location     Type
  4923 ;;		None
  4924 ;; Return value:  Size  Location     Type
  4925 ;;                  1    wreg      void 
  4926 ;; Registers used:
  4927 ;;		wreg, status,2
  4928 ;; Tracked objects:
  4929 ;;		On entry : 0/0
  4930 ;;		On exit  : 0/0
  4931 ;;		Unchanged: 0/0
  4932 ;; Data sizes:     COMMON   BANK0   BANK1   BANK2   BANK3   BANK4   BANK5   BANK6   BANK7   BANK8   BANK9  BANK10  BANK1
      +1  BANK12
  4933 ;;      Params:         0       0       0       0       0       0       0       0       0       0       0       0       
      +0       0
  4934 ;;      Locals:         0       0       0       0       0       0       0       0       0       0       0       0       
      +0       0
  4935 ;;      Temps:          0       0       0       0       0       0       0       0       0       0       0       0       
      +0       0
  4936 ;;      Totals:         0       0       0       0       0       0       0       0       0       0       0       0       
      +0       0
  4937 ;;Total ram usage:        0 bytes
  4938 ;; Hardware stack levels used: 1
  4939 ;; Hardware stack levels required when called: 2
  4940 ;; This function calls:
  4941 ;;		Nothing
  4942 ;; This function is called by:
  4943 ;;		_main
  4944 ;; This function uses a non-reentrant model
  4945 ;;
  4946                           
  4947                           
  4948                           ;psect for function _enable_Global_interrupt
  4949  0325                     _enable_Global_interrupt:
  4950  0325                     l1400:	
  4951                           ;incstack = 0
  4952                           ; Regs used in _enable_Global_interrupt: [wreg+status,2]
  4953                           
  4954                           
  4955                           ;interrupt.c: 8:     INTCON = INTCON | (1<<7);
  4956  0325  080B               	movf	11,w	;volatile
  4957  0326  3880               	iorlw	128
  4958  0327  008B               	movwf	11	;volatile
  4959  0328                     l219:
  4960  0328  0008               	return
  4961  0329                     __end_of_enable_Global_interrupt:
  4962                           
  4963                           	psect	text12
  4964  02B4                     __ptext12:	
  4965 ;; *************** function _Timer1_init *****************
  4966 ;; Defined at:
  4967 ;;		line 3 in file "Timer1.c"
  4968 ;; Parameters:    Size  Location     Type
  4969 ;;  prescaler       1    wreg     unsigned char 
  4970 ;;  TimerValue      2    2[COMMON] unsigned short 
  4971 ;; Auto vars:     Size  Location     Type
  4972 ;;  prescaler       1    5[COMMON] unsigned char 
  4973 ;; Return value:  Size  Location     Type
  4974 ;;                  1    wreg      void 
  4975 ;; Registers used:
  4976 ;;		wreg, status,2, status,0
  4977 ;; Tracked objects:
  4978 ;;		On entry : 0/0
  4979 ;;		On exit  : 0/0
  4980 ;;		Unchanged: 0/0
  4981 ;; Data sizes:     COMMON   BANK0   BANK1   BANK2   BANK3   BANK4   BANK5   BANK6   BANK7   BANK8   BANK9  BANK10  BANK1
      +1  BANK12
  4982 ;;      Params:         2       0       0       0       0       0       0       0       0       0       0       0       
      +0       0
  4983 ;;      Locals:         1       0       0       0       0       0       0       0       0       0       0       0       
      +0       0
  4984 ;;      Temps:          1       0       0       0       0       0       0       0       0       0       0       0       
      +0       0
  4985 ;;      Totals:         4       0       0       0       0       0       0       0       0       0       0       0       
      +0       0
  4986 ;;Total ram usage:        4 bytes
  4987 ;; Hardware stack levels used: 1
  4988 ;; Hardware stack levels required when called: 2
  4989 ;; This function calls:
  4990 ;;		Nothing
  4991 ;; This function is called by:
  4992 ;;		_main
  4993 ;; This function uses a non-reentrant model
  4994 ;;
  4995                           
  4996                           
  4997                           ;psect for function _Timer1_init
  4998  02B4                     _Timer1_init:
  4999                           
  5000                           ;incstack = 0
  5001                           ; Regs used in _Timer1_init: [wreg+status,2+status,0]
  5002                           ;Timer1_init@prescaler stored from wreg
  5003  02B4  00F5               	movwf	Timer1_init@prescaler
  5004  02B5                     l1426:
  5005                           
  5006                           ;Timer1.c: 4:     T1CON = 0;
  5007  02B5  0024               	movlb	4	; select bank4
  5008  02B6  018E               	clrf	14	;volatile
  5009  02B7                     l1428:
  5010                           
  5011                           ;Timer1.c: 5:     T1CON = T1CON |(prescaler<<4);
  5012  02B7  0875               	movf	Timer1_init@prescaler,w
  5013  02B8  00F4               	movwf	??_Timer1_init
  5014  02B9  3003               	movlw	3
  5015  02BA                     u615:
  5016  02BA  35F4               	lslf	??_Timer1_init,f
  5017  02BB  3EFF               	addlw	-1
  5018  02BC  1D03               	skipz
  5019  02BD  2ABA               	goto	u615
  5020  02BE  3574               	lslf	??_Timer1_init,w
  5021  02BF  040E               	iorwf	14,w	;volatile
  5022  02C0  008E               	movwf	14	;volatile
  5023  02C1                     l1430:
  5024                           
  5025                           ;Timer1.c: 6:     T1CON = T1CON |(1<<1);
  5026  02C1  080E               	movf	14,w	;volatile
  5027  02C2  3802               	iorlw	2
  5028  02C3  008E               	movwf	14	;volatile
  5029  02C4                     l1432:
  5030                           
  5031                           ;Timer1.c: 7:     T1CLK = 5;
  5032  02C4  3005               	movlw	5
  5033  02C5  0091               	movwf	17	;volatile
  5034  02C6                     l1434:
  5035                           
  5036                           ;Timer1.c: 9:     TMR1H = ((uint16_t)TimerValue>>8);
  5037  02C6  0873               	movf	Timer1_init@TimerValue+1,w
  5038  02C7  008D               	movwf	13	;volatile
  5039  02C8                     l1436:
  5040                           
  5041                           ;Timer1.c: 10:     TMR1L = TimerValue&0XFF;
  5042  02C8  0872               	movf	Timer1_init@TimerValue,w
  5043  02C9  008C               	movwf	12	;volatile
  5044  02CA                     l1438:
  5045                           
  5046                           ;Timer1.c: 12:     T1CON = T1CON | 1;
  5047  02CA  080E               	movf	14,w	;volatile
  5048  02CB  3801               	iorlw	1
  5049  02CC  008E               	movwf	14	;volatile
  5050  02CD                     l255:
  5051  02CD  0008               	return
  5052  02CE                     __end_of_Timer1_init:
  5053                           
  5054                           	psect	text13
  5055  0329                     __ptext13:	
  5056 ;; *************** function _Timer0_8bit_get *****************
  5057 ;; Defined at:
  5058 ;;		line 31 in file "Timer0.c"
  5059 ;; Parameters:    Size  Location     Type
  5060 ;;		None
  5061 ;; Auto vars:     Size  Location     Type
  5062 ;;		None
  5063 ;; Return value:  Size  Location     Type
  5064 ;;                  1    wreg      unsigned char 
  5065 ;; Registers used:
  5066 ;;		wreg
  5067 ;; Tracked objects:
  5068 ;;		On entry : 0/0
  5069 ;;		On exit  : 0/0
  5070 ;;		Unchanged: 0/0
  5071 ;; Data sizes:     COMMON   BANK0   BANK1   BANK2   BANK3   BANK4   BANK5   BANK6   BANK7   BANK8   BANK9  BANK10  BANK1
      +1  BANK12
  5072 ;;      Params:         0       0       0       0       0       0       0       0       0       0       0       0       
      +0       0
  5073 ;;      Locals:         0       0       0       0       0       0       0       0       0       0       0       0       
      +0       0
  5074 ;;      Temps:          0       0       0       0       0       0       0       0       0       0       0       0       
      +0       0
  5075 ;;      Totals:         0       0       0       0       0       0       0       0       0       0       0       0       
      +0       0
  5076 ;;Total ram usage:        0 bytes
  5077 ;; Hardware stack levels used: 1
  5078 ;; Hardware stack levels required when called: 2
  5079 ;; This function calls:
  5080 ;;		Nothing
  5081 ;; This function is called by:
  5082 ;;		_main
  5083 ;; This function uses a non-reentrant model
  5084 ;;
  5085                           
  5086                           
  5087                           ;psect for function _Timer0_8bit_get
  5088  0329                     _Timer0_8bit_get:
  5089  0329                     l1440:	
  5090                           ;incstack = 0
  5091                           ; Regs used in _Timer0_8bit_get: [wreg]
  5092                           
  5093                           
  5094                           ;Timer0.c: 32:     return TMR0L;
  5095  0329  0020               	movlb	0	; select bank0
  5096  032A  081C               	movf	28,w	;volatile
  5097  032B                     l163:
  5098  032B  0008               	return
  5099  032C                     __end_of_Timer0_8bit_get:
  5100                           
  5101                           	psect	text14
  5102  02CE                     __ptext14:	
  5103 ;; *************** function _Timer0_8bit_InterruptInit *****************
  5104 ;; Defined at:
  5105 ;;		line 14 in file "Timer0.c"
  5106 ;; Parameters:    Size  Location     Type
  5107 ;;  postscaler      1    wreg     unsigned char 
  5108 ;;  prescaler       1    2[COMMON] unsigned char 
  5109 ;;  TimerValue      1    3[COMMON] unsigned char 
  5110 ;; Auto vars:     Size  Location     Type
  5111 ;;  postscaler      1    4[COMMON] unsigned char 
  5112 ;; Return value:  Size  Location     Type
  5113 ;;                  1    wreg      void 
  5114 ;; Registers used:
  5115 ;;		wreg, status,2, status,0
  5116 ;; Tracked objects:
  5117 ;;		On entry : 0/0
  5118 ;;		On exit  : 0/0
  5119 ;;		Unchanged: 0/0
  5120 ;; Data sizes:     COMMON   BANK0   BANK1   BANK2   BANK3   BANK4   BANK5   BANK6   BANK7   BANK8   BANK9  BANK10  BANK1
      +1  BANK12
  5121 ;;      Params:         2       0       0       0       0       0       0       0       0       0       0       0       
      +0       0
  5122 ;;      Locals:         1       0       0       0       0       0       0       0       0       0       0       0       
      +0       0
  5123 ;;      Temps:          0       0       0       0       0       0       0       0       0       0       0       0       
      +0       0
  5124 ;;      Totals:         3       0       0       0       0       0       0       0       0       0       0       0       
      +0       0
  5125 ;;Total ram usage:        3 bytes
  5126 ;; Hardware stack levels used: 1
  5127 ;; Hardware stack levels required when called: 2
  5128 ;; This function calls:
  5129 ;;		Nothing
  5130 ;; This function is called by:
  5131 ;;		_main
  5132 ;; This function uses a non-reentrant model
  5133 ;;
  5134                           
  5135                           
  5136                           ;psect for function _Timer0_8bit_InterruptInit
  5137  02CE                     _Timer0_8bit_InterruptInit:
  5138                           
  5139                           ;incstack = 0
  5140                           ; Regs used in _Timer0_8bit_InterruptInit: [wreg+status,2+status,0]
  5141                           ;Timer0_8bit_InterruptInit@postscaler stored from wreg
  5142  02CE  00F4               	movwf	Timer0_8bit_InterruptInit@postscaler
  5143  02CF                     l1410:
  5144                           
  5145                           ;Timer0.c: 15:     T0CON0 = 0;
  5146  02CF  0020               	movlb	0	; select bank0
  5147  02D0  019E               	clrf	30	;volatile
  5148  02D1                     l1412:
  5149                           
  5150                           ;Timer0.c: 16:     T0CON0 = (T0CON0 | postscaler);
  5151  02D1  081E               	movf	30,w	;volatile
  5152  02D2  0474               	iorwf	Timer0_8bit_InterruptInit@postscaler,w
  5153  02D3  009E               	movwf	30	;volatile
  5154  02D4                     l1414:
  5155                           
  5156                           ;Timer0.c: 17:     T0CON1 = 0b01110000;
  5157  02D4  3070               	movlw	112
  5158  02D5  009F               	movwf	31	;volatile
  5159  02D6                     l1416:
  5160                           
  5161                           ;Timer0.c: 18:     T0CON1 = (T0CON1 | prescaler);
  5162  02D6  081F               	movf	31,w	;volatile
  5163  02D7  0472               	iorwf	Timer0_8bit_InterruptInit@prescaler,w
  5164  02D8  009F               	movwf	31	;volatile
  5165  02D9                     l1418:
  5166                           
  5167                           ;Timer0.c: 19:     TMR0H = TimerValue;
  5168  02D9  0873               	movf	Timer0_8bit_InterruptInit@TimerValue,w
  5169  02DA  009D               	movwf	29	;volatile
  5170                           
  5171                           ;Timer0.c: 20:     TMR0L = 0;
  5172  02DB  019C               	clrf	28	;volatile
  5173  02DC                     l1420:
  5174                           
  5175                           ;Timer0.c: 23:     PIR0bits.TMR0IF = 0;
  5176  02DC  002E               	movlb	14	; select bank14
  5177  02DD  128C               	bcf	12,5	;volatile
  5178  02DE                     l1422:
  5179                           
  5180                           ;Timer0.c: 26:     PIE0bits.TMR0IE = 1;
  5181  02DE  1696               	bsf	22,5	;volatile
  5182  02DF                     l1424:
  5183                           
  5184                           ;Timer0.c: 28:     T0CON0 = T0CON0 | (1<<7);
  5185  02DF  0020               	movlb	0	; select bank0
  5186  02E0  081E               	movf	30,w	;volatile
  5187  02E1  3880               	iorlw	128
  5188  02E2  009E               	movwf	30	;volatile
  5189  02E3                     l160:
  5190  02E3  0008               	return
  5191  02E4                     __end_of_Timer0_8bit_InterruptInit:
  5192                           
  5193                           	psect	intentry
  5194  0004                     __pintentry:	
  5195 ;; *************** function _INTERRUPT_InterruptManager *****************
  5196 ;; Defined at:
  5197 ;;		line 35 in file "interrupt.c"
  5198 ;; Parameters:    Size  Location     Type
  5199 ;;		None
  5200 ;; Auto vars:     Size  Location     Type
  5201 ;;		None
  5202 ;; Return value:  Size  Location     Type
  5203 ;;                  1    wreg      void 
  5204 ;; Registers used:
  5205 ;;		wreg, status,2, status,0, pclath, cstack
  5206 ;; Tracked objects:
  5207 ;;		On entry : 0/0
  5208 ;;		On exit  : 0/0
  5209 ;;		Unchanged: 0/0
  5210 ;; Data sizes:     COMMON   BANK0   BANK1   BANK2   BANK3   BANK4   BANK5   BANK6   BANK7   BANK8   BANK9  BANK10  BANK1
      +1  BANK12
  5211 ;;      Params:         0       0       0       0       0       0       0       0       0       0       0       0       
      +0       0
  5212 ;;      Locals:         0       0       0       0       0       0       0       0       0       0       0       0       
      +0       0
  5213 ;;      Temps:          1       0       0       0       0       0       0       0       0       0       0       0       
      +0       0
  5214 ;;      Totals:         1       0       0       0       0       0       0       0       0       0       0       0       
      +0       0
  5215 ;;Total ram usage:        1 bytes
  5216 ;; Hardware stack levels used: 1
  5217 ;; Hardware stack levels required when called: 1
  5218 ;; This function calls:
  5219 ;;		_Timer0_8bit_set
  5220 ;;		_uart_rx
  5221 ;; This function is called by:
  5222 ;;		Interrupt level 1
  5223 ;; This function uses a non-reentrant model
  5224 ;;
  5225                           
  5226  0004                     _INTERRUPT_InterruptManager:
  5227                           
  5228                           ;incstack = 0
  5229  0004  147E               	bsf	int$flags,0	;set compiler interrupt flag (level 1)
  5230                           
  5231                           ; Regs used in _INTERRUPT_InterruptManager: [wreg+status,2+status,0+pclath+cstack]
  5232  0005  3180               	pagesel	$
  5233  0006                     i1l1536:
  5234                           
  5235                           ;interrupt.c: 38:     if (PIE0bits.INTE == 1 && PIR0bits.INTF == 1){
  5236  0006  002E               	movlb	14	; select bank14
  5237  0007  1C16               	btfss	22,0	;volatile
  5238  0008  280A               	goto	u78_21
  5239  0009  280B               	goto	u78_20
  5240  000A                     u78_21:
  5241  000A  2815               	goto	i1l236
  5242  000B                     u78_20:
  5243  000B                     i1l1538:
  5244  000B  1C0C               	btfss	12,0	;volatile
  5245  000C  280E               	goto	u79_21
  5246  000D  280F               	goto	u79_20
  5247  000E                     u79_21:
  5248  000E  2815               	goto	i1l236
  5249  000F                     u79_20:
  5250  000F                     i1l1540:
  5251                           
  5252                           ;interrupt.c: 39:         PIR0bits.INTF = 0;
  5253  000F  100C               	bcf	12,0	;volatile
  5254  0010                     i1l1542:
  5255                           
  5256                           ;interrupt.c: 40:         counts++;
  5257  0010  3001               	movlw	1
  5258  0011  00F1               	movwf	??_INTERRUPT_InterruptManager
  5259  0012  0871               	movf	??_INTERRUPT_InterruptManager,w
  5260  0013  07FB               	addwf	_counts,f
  5261                           
  5262                           ;interrupt.c: 42:     }else if(PIE0bits.TMR0IE == 1 && PIR0bits.TMR0IF == 1)
  5263  0014  284C               	goto	i1l244
  5264  0015                     i1l236:
  5265  0015  1E96               	btfss	22,5	;volatile
  5266  0016  2818               	goto	u80_21
  5267  0017  2819               	goto	u80_20
  5268  0018                     u80_21:
  5269  0018  2837               	goto	i1l238
  5270  0019                     u80_20:
  5271  0019                     i1l1544:
  5272  0019  1E8C               	btfss	12,5	;volatile
  5273  001A  281C               	goto	u81_21
  5274  001B  281D               	goto	u81_20
  5275  001C                     u81_21:
  5276  001C  2837               	goto	i1l238
  5277  001D                     u81_20:
  5278  001D                     i1l1546:
  5279                           
  5280                           ;interrupt.c: 43:     {;interrupt.c: 44:         PIR0bits.TMR0IF = 0;
  5281  001D  128C               	bcf	12,5	;volatile
  5282  001E                     i1l1548:
  5283                           
  5284                           ;interrupt.c: 45:         contRTCC++;
  5285  001E  3001               	movlw	1
  5286  001F  00F1               	movwf	??_INTERRUPT_InterruptManager
  5287  0020  0871               	movf	??_INTERRUPT_InterruptManager,w
  5288  0021  07FA               	addwf	_contRTCC,f
  5289                           
  5290                           ;interrupt.c: 46:         if (contRTCC ==4){
  5291  0022  3004               	movlw	4
  5292  0023  067A               	xorwf	_contRTCC,w
  5293  0024  1D03               	btfss	3,2
  5294  0025  2827               	goto	u82_21
  5295  0026  2828               	goto	u82_20
  5296  0027                     u82_21:
  5297  0027  282C               	goto	i1l1552
  5298  0028                     u82_20:
  5299  0028                     i1l1550:
  5300  0028  301E               	movlw	30
  5301  0029  3183  231C  3180   	fcall	_Timer0_8bit_set
  5302  002C                     i1l1552:
  5303                           
  5304                           ;interrupt.c: 49:         if (contRTCC ==5){
  5305  002C  3005               	movlw	5
  5306  002D  067A               	xorwf	_contRTCC,w
  5307  002E  1D03               	btfss	3,2
  5308  002F  2831               	goto	u83_21
  5309  0030  2832               	goto	u83_20
  5310  0031                     u83_21:
  5311  0031  284C               	goto	i1l244
  5312  0032                     u83_20:
  5313  0032                     i1l1554:
  5314                           
  5315                           ;interrupt.c: 50:             contRTCC = 0;
  5316  0032  01FA               	clrf	_contRTCC
  5317  0033                     i1l1556:
  5318                           
  5319                           ;interrupt.c: 51:             flagRTCC =1;
  5320  0033  0020               	movlb	0	; select bank0
  5321  0034  01CA               	clrf	_flagRTCC
  5322  0035  0ACA               	incf	_flagRTCC,f
  5323  0036  284C               	goto	i1l244
  5324  0037                     i1l238:	
  5325                           ;interrupt.c: 55:     else if(INTCONbits.PEIE == 1)
  5326                           
  5327  0037  1F0B               	btfss	11,6	;volatile
  5328  0038  283A               	goto	u84_21
  5329  0039  283B               	goto	u84_20
  5330  003A                     u84_21:
  5331  003A  284C               	goto	i1l244
  5332  003B                     u84_20:
  5333  003B                     i1l1558:
  5334                           
  5335                           ;interrupt.c: 56:     {;interrupt.c: 57:         if(PIE3bits.RCIE == 1 && PIR3bits.RCIF 
      +                          == 1){
  5336  003B  1E99               	btfss	25,5	;volatile
  5337  003C  283E               	goto	u85_21
  5338  003D  283F               	goto	u85_20
  5339  003E                     u85_21:
  5340  003E  284C               	goto	i1l241
  5341  003F                     u85_20:
  5342  003F                     i1l1560:
  5343  003F  1E8F               	btfss	15,5	;volatile
  5344  0040  2842               	goto	u86_21
  5345  0041  2843               	goto	u86_20
  5346  0042                     u86_21:
  5347  0042  284C               	goto	i1l241
  5348  0043                     u86_20:
  5349  0043                     i1l1562:
  5350                           
  5351                           ;interrupt.c: 58:             PIR3bits.RCIF = 0;
  5352  0043  128F               	bcf	15,5	;volatile
  5353  0044                     i1l1564:
  5354                           
  5355                           ;interrupt.c: 59:             recepcionRX = uart_rx();
  5356  0044  3182  2296  3180   	fcall	_uart_rx
  5357  0047  00F1               	movwf	??_INTERRUPT_InterruptManager
  5358  0048  0871               	movf	??_INTERRUPT_InterruptManager,w
  5359  0049  0020               	movlb	0	; select bank0
  5360  004A  00CB               	movwf	_recepcionRX
  5361  004B  284C               	goto	i1l244
  5362  004C                     i1l241:
  5363  004C                     i1l244:
  5364  004C  107E               	bcf	int$flags,0	;clear compiler interrupt flag (level 1)
  5365  004D  0009               	retfie
  5366  004E                     __end_of_INTERRUPT_InterruptManager:
  5367                           
  5368                           	psect	text16
  5369  0296                     __ptext16:	
  5370 ;; *************** function _uart_rx *****************
  5371 ;; Defined at:
  5372 ;;		line 73 in file "uart.c"
  5373 ;; Parameters:    Size  Location     Type
  5374 ;;		None
  5375 ;; Auto vars:     Size  Location     Type
  5376 ;;		None
  5377 ;; Return value:  Size  Location     Type
  5378 ;;                  1    wreg      unsigned char 
  5379 ;; Registers used:
  5380 ;;		wreg, status,2, status,0
  5381 ;; Tracked objects:
  5382 ;;		On entry : 0/0
  5383 ;;		On exit  : 0/0
  5384 ;;		Unchanged: 0/0
  5385 ;; Data sizes:     COMMON   BANK0   BANK1   BANK2   BANK3   BANK4   BANK5   BANK6   BANK7   BANK8   BANK9  BANK10  BANK1
      +1  BANK12
  5386 ;;      Params:         0       0       0       0       0       0       0       0       0       0       0       0       
      +0       0
  5387 ;;      Locals:         0       0       0       0       0       0       0       0       0       0       0       0       
      +0       0
  5388 ;;      Temps:          1       0       0       0       0       0       0       0       0       0       0       0       
      +0       0
  5389 ;;      Totals:         1       0       0       0       0       0       0       0       0       0       0       0       
      +0       0
  5390 ;;Total ram usage:        1 bytes
  5391 ;; Hardware stack levels used: 1
  5392 ;; This function calls:
  5393 ;;		Nothing
  5394 ;; This function is called by:
  5395 ;;		_INTERRUPT_InterruptManager
  5396 ;;		_getch
  5397 ;; This function uses a non-reentrant model
  5398 ;;
  5399                           
  5400                           
  5401                           ;psect for function _uart_rx
  5402  0296                     _uart_rx:
  5403  0296                     i1l1444:	
  5404                           ;incstack = 0
  5405                           ; Regs used in _uart_rx: [wreg+status,2+status,0]
  5406                           
  5407  0296                     i1l1446:	
  5408                           ;uart.c: 77:     while (((PIR3>>5) & 0x01) == 0){}
  5409                           
  5410  0296  002E               	movlb	14	; select bank14
  5411  0297  080F               	movf	15,w	;volatile
  5412  0298  00F0               	movwf	??_uart_rx
  5413  0299  3005               	movlw	5
  5414  029A                     u62_25:
  5415  029A  36F0               	lsrf	??_uart_rx,f
  5416  029B  0B89               	decfsz	9,f
  5417  029C  2A9A               	goto	u62_25
  5418  029D  1C70               	btfss	??_uart_rx,0
  5419  029E  2AA0               	goto	u63_21
  5420  029F  2AA1               	goto	u63_20
  5421  02A0                     u63_21:
  5422  02A0  2A96               	goto	i1l1446
  5423  02A1                     u63_20:
  5424  02A1                     i1l1448:
  5425                           
  5426                           ;uart.c: 79:     if( ((RC1STA >> 1)& 0x01) == 1){
  5427  02A1  0022               	movlb	2	; select bank2
  5428  02A2  081D               	movf	29,w	;volatile
  5429  02A3  00F0               	movwf	??_uart_rx
  5430  02A4  3001               	movlw	1
  5431  02A5                     u64_25:
  5432  02A5  36F0               	lsrf	??_uart_rx,f
  5433  02A6  0B89               	decfsz	9,f
  5434  02A7  2AA5               	goto	u64_25
  5435  02A8  1C70               	btfss	??_uart_rx,0
  5436  02A9  2AAB               	goto	u65_21
  5437  02AA  2AAC               	goto	u65_20
  5438  02AB                     u65_21:
  5439  02AB  2AB2               	goto	i1l1452
  5440  02AC                     u65_20:
  5441  02AC                     i1l1450:
  5442                           
  5443                           ;uart.c: 80:         RC1STA = RC1STA & ~(1<<4);
  5444  02AC  081D               	movf	29,w	;volatile
  5445  02AD  39EF               	andlw	239
  5446  02AE  009D               	movwf	29	;volatile
  5447                           
  5448                           ;uart.c: 81:         RC1STA = RC1STA | (1<<4);
  5449  02AF  081D               	movf	29,w	;volatile
  5450  02B0  3810               	iorlw	16
  5451  02B1  009D               	movwf	29	;volatile
  5452  02B2                     i1l1452:
  5453                           
  5454                           ;uart.c: 87:       return RCREG;
  5455  02B2  0819               	movf	25,w	;volatile
  5456  02B3                     i1l130:
  5457  02B3  0008               	return
  5458  02B4                     __end_of_uart_rx:
  5459                           
  5460                           	psect	text17
  5461  031C                     __ptext17:	
  5462 ;; *************** function _Timer0_8bit_set *****************
  5463 ;; Defined at:
  5464 ;;		line 34 in file "Timer0.c"
  5465 ;; Parameters:    Size  Location     Type
  5466 ;;  TimerValue      1    wreg     unsigned char 
  5467 ;; Auto vars:     Size  Location     Type
  5468 ;;  TimerValue      1    0[COMMON] unsigned char 
  5469 ;; Return value:  Size  Location     Type
  5470 ;;                  1    wreg      void 
  5471 ;; Registers used:
  5472 ;;		wreg
  5473 ;; Tracked objects:
  5474 ;;		On entry : 0/0
  5475 ;;		On exit  : 0/0
  5476 ;;		Unchanged: 0/0
  5477 ;; Data sizes:     COMMON   BANK0   BANK1   BANK2   BANK3   BANK4   BANK5   BANK6   BANK7   BANK8   BANK9  BANK10  BANK1
      +1  BANK12
  5478 ;;      Params:         0       0       0       0       0       0       0       0       0       0       0       0       
      +0       0
  5479 ;;      Locals:         1       0       0       0       0       0       0       0       0       0       0       0       
      +0       0
  5480 ;;      Temps:          0       0       0       0       0       0       0       0       0       0       0       0       
      +0       0
  5481 ;;      Totals:         1       0       0       0       0       0       0       0       0       0       0       0       
      +0       0
  5482 ;;Total ram usage:        1 bytes
  5483 ;; Hardware stack levels used: 1
  5484 ;; This function calls:
  5485 ;;		Nothing
  5486 ;; This function is called by:
  5487 ;;		_INTERRUPT_InterruptManager
  5488 ;; This function uses a non-reentrant model
  5489 ;;
  5490                           
  5491                           
  5492                           ;psect for function _Timer0_8bit_set
  5493  031C                     _Timer0_8bit_set:
  5494                           
  5495                           ;incstack = 0
  5496                           ; Regs used in _Timer0_8bit_set: [wreg]
  5497                           ;Timer0_8bit_set@TimerValue stored from wreg
  5498  031C  00F0               	movwf	Timer0_8bit_set@TimerValue
  5499  031D                     i1l1456:
  5500                           
  5501                           ;Timer0.c: 35:     TMR0L = TimerValue;
  5502  031D  0870               	movf	Timer0_8bit_set@TimerValue,w
  5503  031E  0020               	movlb	0	; select bank0
  5504  031F  009C               	movwf	28	;volatile
  5505  0320                     i1l166:
  5506  0320  0008               	return
  5507  0321                     __end_of_Timer0_8bit_set:
  5508  007E                     btemp	set	126	;btemp
  5509  007E                     int$flags	set	126
  5510  007E                     wtemp0	set	126
  5511                           
  5512                           	psect	idloc
  5513                           
  5514                           ;Config register IDLOC0 @ 0x8000
  5515                           ;	unspecified, using default values
  5516  8000                     	org	32768
  5517  8000  3FFF               	dw	16383
  5518                           
  5519                           ;Config register IDLOC1 @ 0x8001
  5520                           ;	unspecified, using default values
  5521  8001                     	org	32769
  5522  8001  3FFF               	dw	16383
  5523                           
  5524                           ;Config register IDLOC2 @ 0x8002
  5525                           ;	unspecified, using default values
  5526  8002                     	org	32770
  5527  8002  3FFF               	dw	16383
  5528                           
  5529                           ;Config register IDLOC3 @ 0x8003
  5530                           ;	unspecified, using default values
  5531  8003                     	org	32771
  5532  8003  3FFF               	dw	16383
  5533                           
  5534                           	psect	config
  5535                           
  5536                           ;Config register CONFIG1 @ 0x8007
  5537                           ;	External Oscillator mode selection bits
  5538                           ;	FEXTOSC = OFF, Oscillator not enabled
  5539                           ;	Power-up default value for COSC bits
  5540                           ;	RSTOSC = HFINT32, HFINTOSC with OSCFRQ= 32 MHz and CDIV = 1:1
  5541                           ;	Clock Out Enable bit
  5542                           ;	CLKOUTEN = OFF, CLKOUT function is disabled; i/o or oscillator function on OSC2
  5543                           ;	Clock Switch Enable bit
  5544                           ;	CSWEN = ON, Writing to NOSC and NDIV is allowed
  5545                           ;	Fail-Safe Clock Monitor Enable bit
  5546                           ;	FCMEN = ON, FSCM timer enabled
  5547  8007                     	org	32775
  5548  8007  3F8C               	dw	16268
  5549                           
  5550                           ;Config register CONFIG2 @ 0x8008
  5551                           ;	Master Clear Enable bit
  5552                           ;	MCLRE = ON, MCLR pin is Master Clear function
  5553                           ;	Power-up Timer Enable bit
  5554                           ;	PWRTE = OFF, PWRT disabled
  5555                           ;	Low-Power BOR enable bit
  5556                           ;	LPBOREN = OFF, ULPBOR disabled
  5557                           ;	Brown-out reset enable bits
  5558                           ;	BOREN = ON, Brown-out Reset Enabled, SBOREN bit is ignored
  5559                           ;	Brown-out Reset Voltage Selection
  5560                           ;	BORV = LO, Brown-out Reset Voltage (VBOR) set to 1.9V on LF, and 2.45V on F Devices
  5561                           ;	Zero-cross detect disable
  5562                           ;	ZCD = OFF, Zero-cross detect circuit is disabled at POR.
  5563                           ;	Peripheral Pin Select one-way control
  5564                           ;	PPS1WAY = ON, The PPSLOCK bit can be cleared and set only once in software
  5565                           ;	Stack Overflow/Underflow Reset Enable bit
  5566                           ;	STVREN = ON, Stack Overflow or Underflow will cause a reset
  5567                           ;	Background Debugger
  5568                           ;	DEBUG = 0x1, unprogrammed default
  5569  8008                     	org	32776
  5570  8008  3FFF               	dw	16383
  5571                           
  5572                           ;Config register CONFIG3 @ 0x8009
  5573                           ;	WDT Period Select bits
  5574                           ;	WDTCPS = WDTCPS_31, Divider ratio 1:65536; software control of WDTPS
  5575                           ;	WDT operating mode
  5576                           ;	WDTE = OFF, WDT Disabled, SWDTEN is ignored
  5577                           ;	WDT Window Select bits
  5578                           ;	WDTCWS = WDTCWS_7, window always open (100%); software control; keyed access not requi
      +                          red
  5579                           ;	WDT input clock selector
  5580                           ;	WDTCCS = SC, Software Control
  5581  8009                     	org	32777
  5582  8009  3F9F               	dw	16287
  5583                           
  5584                           ;Config register CONFIG4 @ 0x800A
  5585                           ;	UserNVM self-write protection bits
  5586                           ;	WRT = OFF, Write protection off
  5587                           ;	Scanner Enable bit
  5588                           ;	SCANE = available, Scanner module is available for use
  5589                           ;	Low Voltage Programming Enable bit
  5590                           ;	LVP = ON, Low Voltage programming enabled. MCLR/Vpp pin function is MCLR.
  5591  800A                     	org	32778
  5592  800A  3FFF               	dw	16383
  5593                           
  5594                           ;Config register CONFIG5 @ 0x800B
  5595                           ;	UserNVM Program memory code protection bit
  5596                           ;	CP = OFF, Program Memory code protection disabled
  5597                           ;	DataNVM code protection bit
  5598                           ;	CPD = OFF, Data EEPROM code protection disabled
  5599  800B                     	org	32779
  5600  800B  3FFF               	dw	16383

Data Sizes:
    Strings     9
    Constant    4
    Data        1
    BSS         47
    Persistent  32
    Stack       0

Auto Spaces:
    Space          Size  Autos    Used
    COMMON           14     10      12
    BANK0            80     25      71
    BANK1            80      0       0
    BANK2            80      0       0
    BANK3            80      0       0
    BANK4            80      0       0
    BANK5            80      0       0
    BANK6            80      0       0
    BANK7            80      0       0
    BANK8            80      0       0
    BANK9            80      0       0
    BANK10           80      0       0
    BANK11           80      0       0
    BANK12           48      0       0

Pointer List with Targets:

    vfpfcnvrt@ap	PTR PTR void  size(1) Largest target is 1
		 -> printf@ap(BANK0[1]), 

    S837_IO_FILE$buffer	PTR unsigned char  size(1) Largest target is 0

    fputc@fp.buffer	PTR unsigned char  size(1) Largest target is 0

    fputc@fp	PTR struct _IO_FILE size(1) Largest target is 0
		 -> NULL(NULL[0]), 

    vfprintf@ap	PTR PTR void  size(1) Largest target is 1
		 -> printf@ap(BANK0[1]), 

    vfprintf@fp	PTR struct _IO_FILE size(1) Largest target is 0
		 -> NULL(NULL[0]), 

    vfprintf@fmt	PTR const unsigned char  size(2) Largest target is 9
		 -> STR_1(CODE[9]), 

    vfprintf@cfmt	PTR unsigned char  size(2) Largest target is 9
		 -> STR_1(CODE[9]), 

    vfpfcnvrt@fp	PTR struct _IO_FILE size(1) Largest target is 0
		 -> NULL(NULL[0]), 

    vfpfcnvrt@fmt	PTR PTR unsigned char  size(1) Largest target is 2
		 -> vfprintf@cfmt(BANK0[2]), 

    printf@fmt	PTR const unsigned char  size(2) Largest target is 9
		 -> STR_1(CODE[9]), 

    printf@ap	PTR void [1] size(1) Largest target is 2
		 -> ?_printf(BANK0[2]), 


Critical Paths under _main in COMMON

    _vfprintf->_vfpfcnvrt
    _vfpfcnvrt->_fputc
    _fputc->_putch
    _putch->_uart_tx
    _serial_Interrupt_init->___lldiv

Critical Paths under _INTERRUPT_InterruptManager in COMMON

    _INTERRUPT_InterruptManager->_Timer0_8bit_set
    _INTERRUPT_InterruptManager->_uart_rx

Critical Paths under _main in BANK0

    _main->_printf
    _printf->_vfprintf
    _vfprintf->_vfpfcnvrt
    _vfpfcnvrt->_fputc
    _port_init->_serial_Interrupt_init
    _serial_Interrupt_init->___lldiv

Critical Paths under _INTERRUPT_InterruptManager in BANK0

    None.

Critical Paths under _main in BANK1

    None.

Critical Paths under _INTERRUPT_InterruptManager in BANK1

    None.

Critical Paths under _main in BANK2

    None.

Critical Paths under _INTERRUPT_InterruptManager in BANK2

    None.

Critical Paths under _main in BANK3

    None.

Critical Paths under _INTERRUPT_InterruptManager in BANK3

    None.

Critical Paths under _main in BANK4

    None.

Critical Paths under _INTERRUPT_InterruptManager in BANK4

    None.

Critical Paths under _main in BANK5

    None.

Critical Paths under _INTERRUPT_InterruptManager in BANK5

    None.

Critical Paths under _main in BANK6

    None.

Critical Paths under _INTERRUPT_InterruptManager in BANK6

    None.

Critical Paths under _main in BANK7

    None.

Critical Paths under _INTERRUPT_InterruptManager in BANK7

    None.

Critical Paths under _main in BANK8

    None.

Critical Paths under _INTERRUPT_InterruptManager in BANK8

    None.

Critical Paths under _main in BANK9

    None.

Critical Paths under _INTERRUPT_InterruptManager in BANK9

    None.

Critical Paths under _main in BANK10

    None.

Critical Paths under _INTERRUPT_InterruptManager in BANK10

    None.

Critical Paths under _main in BANK11

    None.

Critical Paths under _INTERRUPT_InterruptManager in BANK11

    None.

Critical Paths under _main in BANK12

    None.

Critical Paths under _INTERRUPT_InterruptManager in BANK12

    None.

Call Graph Tables:

 ---------------------------------------------------------------------------------
 (Depth) Function   	        Calls       Base Space   Used Autos Params    Refs
 ---------------------------------------------------------------------------------
 (0) _main                                                 2     2      0    3178
                                             23 BANK0      2     2      0
          _Timer0_8bit_InterruptInit
                    _Timer0_8bit_get
                        _Timer1_init
            _enable_Global_interrupt
        _enable_Peripheral_interrupt
                          _port_init
                             _printf
 ---------------------------------------------------------------------------------
 (1) _printf                                               6     4      2    2031
                                             19 BANK0      4     2      2
                           _vfprintf
 ---------------------------------------------------------------------------------
 (2) _vfprintf                                             8     5      3    1866
                                             11 BANK0      8     5      3
                          _vfpfcnvrt
 ---------------------------------------------------------------------------------
 (3) _vfpfcnvrt                                           40    38      2    1440
                                              8 COMMON     2     0      2
                                              5 BANK0      6     6      0
                              _fputc
 ---------------------------------------------------------------------------------
 (4) _fputc                                                8     5      3     926
                                              5 COMMON     3     0      3
                                              0 BANK0      5     5      0
                              _putch
 ---------------------------------------------------------------------------------
 (5) _putch                                                1     1      0      62
                                              4 COMMON     1     1      0
                            _uart_tx
 ---------------------------------------------------------------------------------
 (6) _uart_tx                                              2     2      0      31
                                              2 COMMON     2     2      0
 ---------------------------------------------------------------------------------
 (1) _port_init                                            0     0      0     787
              _serial_Interrupt_init
 ---------------------------------------------------------------------------------
 (2) _serial_Interrupt_init                               10     6      4     787
                                              6 BANK0     10     6      4
                            ___lldiv
 ---------------------------------------------------------------------------------
 (3) ___lldiv                                             14     6      8     601
                                              2 COMMON     8     0      8
                                              0 BANK0      6     6      0
 ---------------------------------------------------------------------------------
 (1) _enable_Peripheral_interrupt                          0     0      0       0
 ---------------------------------------------------------------------------------
 (1) _enable_Global_interrupt                              0     0      0       0
 ---------------------------------------------------------------------------------
 (1) _Timer1_init                                          4     2      2     142
                                              2 COMMON     4     2      2
 ---------------------------------------------------------------------------------
 (1) _Timer0_8bit_get                                      0     0      0       0
 ---------------------------------------------------------------------------------
 (1) _Timer0_8bit_InterruptInit                            3     1      2     218
                                              2 COMMON     3     1      2
 ---------------------------------------------------------------------------------
 Estimated maximum stack depth 6
 ---------------------------------------------------------------------------------
 (Depth) Function   	        Calls       Base Space   Used Autos Params    Refs
 ---------------------------------------------------------------------------------
 (7) _INTERRUPT_InterruptManager                           1     1      0      22
                                              1 COMMON     1     1      0
                    _Timer0_8bit_set
                            _uart_rx
 ---------------------------------------------------------------------------------
 (8) _uart_rx                                              1     1      0       0
                                              0 COMMON     1     1      0
 ---------------------------------------------------------------------------------
 (8) _Timer0_8bit_set                                      1     1      0      22
                                              0 COMMON     1     1      0
 ---------------------------------------------------------------------------------
 Estimated maximum stack depth 8
 ---------------------------------------------------------------------------------

 Call Graph Graphs:

 _main (ROOT)
   _Timer0_8bit_InterruptInit
   _Timer0_8bit_get
   _Timer1_init
   _enable_Global_interrupt
   _enable_Peripheral_interrupt
   _port_init
     _serial_Interrupt_init
       ___lldiv
   _printf
     _vfprintf
       _vfpfcnvrt
         _fputc
           _putch
             _uart_tx

 _INTERRUPT_InterruptManager (ROOT)
   _Timer0_8bit_set
   _uart_rx

 Address spaces:
Name               Size   Autos  Total    Cost      Usage
BIGRAM             3F0      0       0       0        0.0%
EEDATA             100      0       0       0        0.0%
NULL                 0      0       0       0        0.0%
CODE                 0      0       0       0        0.0%
BITCOMMON            E      0       0       1        0.0%
BITSFR0              0      0       0       1        0.0%
SFR0                 0      0       0       1        0.0%
COMMON               E      A       C       2       85.7%
BITSFR1              0      0       0       2        0.0%
SFR1                 0      0       0       2        0.0%
BITSFR2              0      0       0       3        0.0%
SFR2                 0      0       0       3        0.0%
STACK                0      0       0       3        0.0%
BITBANK0            50      0       0       4        0.0%
BITSFR3              0      0       0       4        0.0%
SFR3                 0      0       0       4        0.0%
BANK0               50     19      47       5       88.8%
BITSFR4              0      0       0       5        0.0%
SFR4                 0      0       0       5        0.0%
BITBANK1            50      0       0       6        0.0%
BITSFR5              0      0       0       6        0.0%
SFR5                 0      0       0       6        0.0%
BANK1               50      0       0       7        0.0%
BITSFR6              0      0       0       7        0.0%
SFR6                 0      0       0       7        0.0%
BITBANK2            50      0       0       8        0.0%
BITSFR7              0      0       0       8        0.0%
SFR7                 0      0       0       8        0.0%
BANK2               50      0       0       9        0.0%
BITSFR8              0      0       0       9        0.0%
SFR8                 0      0       0       9        0.0%
BITBANK3            50      0       0      10        0.0%
BITSFR9              0      0       0      10        0.0%
SFR9                 0      0       0      10        0.0%
BANK3               50      0       0      11        0.0%
BITSFR10             0      0       0      11        0.0%
SFR10                0      0       0      11        0.0%
BITBANK4            50      0       0      12        0.0%
BITSFR11             0      0       0      12        0.0%
SFR11                0      0       0      12        0.0%
BANK4               50      0       0      13        0.0%
BITSFR12             0      0       0      13        0.0%
SFR12                0      0       0      13        0.0%
BITBANK5            50      0       0      14        0.0%
BITSFR13             0      0       0      14        0.0%
SFR13                0      0       0      14        0.0%
BANK5               50      0       0      15        0.0%
BITSFR14             0      0       0      15        0.0%
SFR14                0      0       0      15        0.0%
BITBANK6            50      0       0      16        0.0%
BITSFR15             0      0       0      16        0.0%
SFR15                0      0       0      16        0.0%
BANK6               50      0       0      17        0.0%
BITSFR16             0      0       0      17        0.0%
SFR16                0      0       0      17        0.0%
BITBANK7            50      0       0      18        0.0%
BITSFR17             0      0       0      18        0.0%
SFR17                0      0       0      18        0.0%
BANK7               50      0       0      19        0.0%
BITSFR18             0      0       0      19        0.0%
SFR18                0      0       0      19        0.0%
BITSFR19             0      0       0      20        0.0%
SFR19                0      0       0      20        0.0%
ABS                  0      0      53      20        0.0%
BITBANK8            50      0       0      21        0.0%
BITSFR20             0      0       0      21        0.0%
SFR20                0      0       0      21        0.0%
BANK8               50      0       0      22        0.0%
BITSFR21             0      0       0      22        0.0%
SFR21                0      0       0      22        0.0%
BITBANK9            50      0       0      23        0.0%
BITSFR22             0      0       0      23        0.0%
SFR22                0      0       0      23        0.0%
BANK9               50      0       0      24        0.0%
BITSFR23             0      0       0      24        0.0%
SFR23                0      0       0      24        0.0%
BITBANK10           50      0       0      25        0.0%
BITSFR24             0      0       0      25        0.0%
SFR24                0      0       0      25        0.0%
BANK10              50      0       0      26        0.0%
BITSFR25             0      0       0      26        0.0%
SFR25                0      0       0      26        0.0%
BITBANK11           50      0       0      27        0.0%
BITSFR26             0      0       0      27        0.0%
SFR26                0      0       0      27        0.0%
BANK11              50      0       0      28        0.0%
BITSFR27             0      0       0      28        0.0%
SFR27                0      0       0      28        0.0%
BITBANK12           30      0       0      29        0.0%
BITSFR28             0      0       0      29        0.0%
SFR28                0      0       0      29        0.0%
BANK12              30      0       0      30        0.0%
BITSFR29             0      0       0      30        0.0%
SFR29                0      0       0      30        0.0%
BITSFR30             0      0       0      31        0.0%
SFR30                0      0       0      31        0.0%
DATA                 0      0      53      31        0.0%
BITSFR31             0      0       0      32        0.0%
SFR31                0      0       0      32        0.0%


Microchip Technology PIC Macro Assembler V2.32 build 20210201212658 
Symbol Table                                                                                   Thu Aug 04 13:47:45 2022

                                  l87 026D                                   l123 0305  
                                 l117 0201                                   l222 0324  
                                 l160 02E3                                   l163 032B  
                                 l219 0328                                   l139 031B  
                                 l255 02CD                                   l446 01BF  
                                 l912 0295                                   l906 0164  
                                 l924 0241                                   l873 02F5  
                                 u615 02BA                                   u900 020C  
                                 u901 020B                                   u910 021B  
                                 u911 021A                                   u920 0239  
                                 u921 0238                                   u930 0176  
                                 u931 0175                                   u925 0235  
                                 u950 0188                                   u951 0187  
                                 u880 0302                                   u945 017A  
                                 u881 0301                                   u970 01A1  
                                 u890 0207                                   u971 01A0  
                                 u875 02FB                                   u891 0206  
                                 u965 0189                                   u990 01B7  
                                 u991 01B6                                   u975 019D  
                                 u985 01AB                                   wreg 0009  
                                l1400 0325                                  l1410 02CF  
                                l1402 0321                                  l1420 02DC  
                                l1412 02D1                                  l1422 02DE  
                                l1414 02D4                                  l1430 02C1  
                                l1424 02DF                                  l1416 02D6  
                                l1440 0329                                  l1432 02C4  
                                l1600 01A1                                  l1418 02D9  
                                l1434 02C6                                  l1426 02B5  
                                l1602 01A9                                  l1436 02C8  
                                l1428 02B7                                  l1604 01AA  
                                l1620 010E                                  l1612 00ED  
                                l1700 0073                                  l1438 02CA  
                                l1606 01B1                                  l1622 011F  
                                l1630 0137                                  l1614 00FE  
                                l1710 009A                                  l1702 0080  
                                l1608 01B7                                  l1632 013F  
                                l1624 0127                                  l1616 0106  
                                l1720 00B0                                  l1712 00A6  
                                l1704 0088                                  l1650 01F4  
                                l1570 0302                                  l1626 0132  
                                l1618 010A                                  l1722 00B5  
                                l1730 00C4                                  l1714 00AC  
                                l1706 0094                                  l1652 01F8  
                                l1644 01C0                                  l1572 0317  
                                l1580 0211                                  l1636 0142  
                                l1660 0270                                  l1740 00DA  
                                l1732 00C9                                  l1724 00BC  
                                l1716 00AD                                  l1708 0099  
                                l1590 0176                                  l1654 01FA  
                                l1646 01C7                                  l1566 02F7  
                                l1582 021B                                  l1574 0202  
                                l1638 015B                                  l1662 0274  
                                l1742 00DE                                  l1734 00CF  
                                l1726 00C2                                  l1718 00AE  
                                l1592 0179                                  l1656 01FB  
                                l1648 01F1                                  l1680 0251  
                                l1672 0242                                  l1568 02F7  
                                l1584 0239                                  l1576 0207  
                                l1664 0277                                  l1744 00DF  
                                l1736 00D3                                  l1728 00C3  
                                l1594 0184                                  l1658 01FE  
                                l1682 0254                                  l1674 0247  
                                l1578 020C                                  l1666 0288  
                                l1690 02E4                                  l1746 00E5  
                                l1738 00D4                                  l1596 0188  
                                l1588 0165                                  l1684 0259  
                                l1676 0249                                  l1668 0291  
                                l1692 02E9                                  l1748 00E7  
                                l1598 018F                                  l1686 025E  
                                l1678 024B                                  l1688 0262  
                                l1696 0062                                  l1698 006B  
                                STR_1 0307                                  u1000 00FE  
                                u1001 00FD                                  u1010 011F  
                                u1011 011E                                  u1020 01E9  
                                u1100 00C9                                  u1101 00C8  
                                u1030 0291                                  u1110 00CF  
                                u1031 0290                                  u1111 00CE  
                                u1120 00DA                                  u1040 0099  
                                u1025 01E5                                  u1121 00D9  
                                u1041 0098                                  u1130 00E5  
                                u1050 00A4                                  u1131 00E4  
                                u1051 00A1                                  u1070 00AC  
                                u1071 00AB                                  u1080 00B5  
                                u1064 00A6                                  u1081 00B4  
                                u1090 00C2                                  u1091 00C1  
                                _LATA 0016                                  _LATB 0017  
                                u1167 008E                                  _PIE0 0716  
                                _PIR3 070F                ?_serial_Interrupt_init 0053  
                                _dbuf 0020                                  _main 0062  
                                _prec 0044                                  _nout 0040  
                                fsr0h 0005                                  fsr1h 0007  
                                indf0 0000                                  fsr0l 0004  
                                indf1 0001                                  fsr1l 0006  
                                btemp 007E            ?_Timer0_8bit_InterruptInit 0072  
                   ??_Timer0_8bit_get 0072                     ??_Timer0_8bit_set 0070  
                                start 004E                                 ?_main 0070  
                     __end_of___lldiv 01C0                                 _T1CLK 0211  
                               _T1CON 020E                                 i1l130 02B3  
                               i1l241 004C                                 i1l244 004C  
                               i1l236 0015                                 i1l166 0320  
                               i1l238 0037                                 _RCREG 0119  
                        vfpfcnvrt@fmt 0078                                 _TMR0H 001D  
                               _TMR1H 020D                                 _TMR0L 001C  
                               _TMR1L 020C                                 _PORTA 000C  
                               _PORTB 000D                                 u62_25 029A  
                               u63_20 02A1                                 u63_21 02A0  
                               u80_20 0019                                 u80_21 0018  
                               u64_25 02A5                                 u65_20 02AC  
                               u81_20 001D                                 u65_21 02AB  
                               u81_21 001C                                 _TRISA 0011  
                               _TRISB 0012                                 _TRISC 0013  
                               u82_20 0028                                 u82_21 0027  
                               u83_20 0032                                 u83_21 0031  
                               u84_20 003B                                 u84_21 003A  
                               u85_20 003F                                 u85_21 003E  
                               u86_20 0043                                 u78_20 000B  
                               u86_21 0042                                 u78_21 000A  
                               u79_20 000F                                 u79_21 000E  
                               _RXPPS 0ECB                                 _TXREG 011A  
                               _flags 0046                                 _fputc 0202  
                               _width 0042                                 _putch 0316  
                     __end_of_uart_rx 02B4                       __end_of_uart_tx 0306  
                               status 0003                                 wtemp0 007E  
               Timer1_init@TimerValue 0072     __end_of_Timer0_8bit_InterruptInit 02E4  
                     __initialization 0050                          __end_of_main 00EB  
         ?_INTERRUPT_InterruptManager 0070                                ??_main 0064  
                              ?_fputc 0075                                _ANSELA 0F38  
                              ?_putch 0070                                _ANSELB 0F43  
                              _ANSELC 0F4E   __end_of_enable_Peripheral_interrupt 0325  
         _enable_Peripheral_interrupt 0321                                _T0CON0 001E  
                              _T0CON1 001F                                _RC0PPS 0F20  
                              _RC1STA 011D                                i1l1450 02AC  
                              i1l1452 02B2                                i1l1444 0296  
                              i1l1540 000F                                i1l1446 0296  
                              i1l1550 0028                                i1l1542 0010  
                              i1l1456 031D                                i1l1448 02A1  
                              i1l1560 003F                                i1l1552 002C  
                              i1l1544 0019                                i1l1536 0006  
                              i1l1562 0043                                i1l1554 0032  
                              i1l1546 001D                                i1l1538 000B  
                              i1l1564 0044                                i1l1556 0033  
                              i1l1548 001E                                i1l1558 003B  
                              _INTCON 000B                                _INTPPS 0E90  
                              _TX1STA 011E         ??_enable_Peripheral_interrupt 0072  
                       ??_Timer1_init 0074                          vfprintf@cfmt 005E  
 Timer0_8bit_InterruptInit@TimerValue 0073                             ??___lldiv 004D  
                              _counts 007B                                _printf 02E4  
                              fputc@c 0075                             ??_uart_rx 0070  
                           ??_uart_tx 0072                      __end_of_vfprintf 0296  
             __end_of__initialization 005E              ?_enable_Global_interrupt 0070  
                      __pcstackCOMMON 0070                          __pidataBANK0 032C  
                       __end_of_fputc 0242                         __end_of_putch 031C  
                 __end_of_Timer1_init 02CE               ??_serial_Interrupt_init 0057  
                     _Timer0_8bit_get 0329                       _Timer0_8bit_set 031C  
                             ??_fputc 004D                               ??_putch 0074  
                          __pbssBANK0 0020           __end_of_AJUSTE_FINO_DE_RTCC 0307  
                      _countsAnterior 004C           ??_Timer0_8bit_InterruptInit 0074  
                          _flagSERVO1 0049                            __pmaintext 0062  
                          __pintentry 0004                               ?_printf 0060  
                             _SP1BRGH 011C                               _SP1BRGL 011B  
                  __size_of_vfpfcnvrt 007A                    __size_of_port_init 002C  
                         _Timer1_init 02B4                               _tSERVO1 0066  
                             ___lldiv 0165                             ?_vfprintf 0058  
                             __ptext1 02E4                               __ptext2 026E  
                             __ptext3 00EB                               __ptext4 0202  
                             __ptext5 0316                               __ptext6 02F6  
                             __ptext7 0242                               __ptext8 01C0  
                             __ptext9 0165               __end_of_Timer0_8bit_get 032C  
             __end_of_Timer0_8bit_set 0321                       __size_of_printf 0012  
           _Timer0_8bit_InterruptInit 02CE                               _uart_rx 0296  
                             _uart_tx 02F6                     _ticks_PULSO_MEDIO 032E  
                             clrloop0 0311                  end_of_initialization 005E  
                             fputc@fp 0077                       ___lldiv@divisor 0072  
                     ___lldiv@counter 0052                     __end_of_vfpfcnvrt 0165  
                   __end_of_port_init 026E                            ??_vfprintf 005B  
                         uart_tx@dato 0073             __end_of_ticks_PULSO_MEDIO 032F  
 Timer0_8bit_InterruptInit@postscaler 0074                           vfpfcnvrt@ap 0079  
                         vfpfcnvrt@fp 0057                      ?_Timer0_8bit_get 0070  
                    ?_Timer0_8bit_set 0070                        __end_of_printf 02F6  
    __size_of_enable_Global_interrupt 0004                   start_initialization 0050  
      __size_of_serial_Interrupt_init 0042         __end_of_serial_Interrupt_init 0202  
          __end_of_ticks_PULSO_MAXIMO 032E            __end_of_ticks_PULSO_MINIMO 0330  
                         vfprintf@fmt 0058                           __pdataBANK0 0066  
                            ??_printf 0062                           __pbssCOMMON 007A  
                           ___latbits 0002                         __pcstackBANK0 004D  
           Timer0_8bit_set@TimerValue 0070    __size_of_Timer0_8bit_InterruptInit 0016  
        serial_Interrupt_init@baudios 0053                          ?_Timer1_init 0072  
                            ?___lldiv 0072          ??_INTERRUPT_InterruptManager 0071  
                   __size_of_vfprintf 0028                              _BAUD1CON 011F  
                Timer1_init@prescaler 0075                              ?_uart_rx 0070  
                            ?_uart_tx 0070                             _valTIMER0 0048  
                      __size_of_fputc 0040                        __size_of_putch 0006  
        ?_enable_Peripheral_interrupt 0070                              _LATAbits 0016  
                            _LATCbits 0018                             clear_ram0 0310  
                            _PIE0bits 0716                              _PIE3bits 0719  
 __size_of_INTERRUPT_InterruptManager 004A                              _PIR0bits 070C  
                            _PIR3bits 070F                              _PIR4bits 0710  
                           _vfpfcnvrt 00EB                             _port_init 0242  
             _enable_Global_interrupt 0325                            vfprintf@ap 005A  
                          vfprintf@fp 005D                      __size_of___lldiv 005B  
                          ?_vfpfcnvrt 0078                            ?_port_init 0070  
                            _flagRTCC 004A                              __ptext10 0321  
                            __ptext11 0325                              __ptext12 02B4  
                            __ptext13 0329                              __ptext14 02CE  
                            __ptext16 0296                              __ptext17 031C  
                            _contRTCC 007A                      __size_of_uart_rx 001E  
                    __size_of_uart_tx 0010                         __size_of_main 0089  
                         _recepcionRX 004B                              int$flags 007E  
                  _ticks_PULSO_MAXIMO 032D                    _ticks_PULSO_MINIMO 032F  
                __size_of_Timer1_init 001A                              _vfprintf 026E  
  __end_of_INTERRUPT_InterruptManager 004E            _INTERRUPT_InterruptManager 0004  
           ??_enable_Global_interrupt 0072                             printf@fmt 0060  
__size_of_enable_Peripheral_interrupt 0004                             putch@dato 0074  
                          _INTCONbits 000B                   _AJUSTE_FINO_DE_RTCC 0306  
             serial_Interrupt_init@sx 005B              __size_of_Timer0_8bit_get 0003  
            __size_of_Timer0_8bit_set 0005                              intlevel1 0000  
               _serial_Interrupt_init 01C0                      ___lldiv@dividend 0076  
                            printf@ap 0063    Timer0_8bit_InterruptInit@prescaler 0072  
                         ??_vfpfcnvrt 0052                           ??_port_init 007A  
                       __pstringtext1 032D                         __pstringtext2 032E  
                       __pstringtext3 032F                         __pstringtext4 0306  
                       __pstringtext5 0000                      ___lldiv@quotient 004E  
     __end_of_enable_Global_interrupt 0329  
