CCS PCM C Compiler, Version 5.104, 22719               02-nov.-22 14:56

               Filename:   D:\OneDriveTrabajo\Clases\GitHub_Clases\Microcontroladores\2022\PidCruceCeroCCS.X\build\default\production\main.lst

               ROM used:   2181 words (7%)
                           Largest free fragment is 2048
               RAM used:   153 (4%) at main() level
                           210 (5%) worst case
               Stack used: 3 locations (2 in main + 1 for interrupts)
               Stack size: 16

*
0000:  MOVLP  08
0001:  GOTO   000
0002:  NOP
*
0004:  CLRF   03
0005:  MOVLP  00
0006:  MOVLB  00
0007:  MOVF   77,W
0008:  MOVWF  20
0009:  MOVF   78,W
000A:  MOVWF  21
000B:  MOVF   79,W
000C:  MOVWF  22
000D:  MOVF   7A,W
000E:  MOVWF  23
000F:  MOVLB  10
0010:  MOVF   1A,W
0011:  MOVLB  00
0012:  MOVWF  24
0013:  MOVLB  10
0014:  MOVF   1B,W
0015:  MOVLB  00
0016:  MOVWF  25
0017:  MOVLB  10
0018:  MOVF   1C,W
0019:  MOVLB  00
001A:  MOVWF  26
001B:  MOVLB  10
001C:  MOVF   1D,W
001D:  MOVLB  00
001E:  MOVWF  27
001F:  MOVLW  07
0020:  MOVWF  05
0021:  MOVLW  16
0022:  MOVWF  04
0023:  BTFSS  00.0
0024:  GOTO   02B
0025:  MOVLW  07
0026:  MOVWF  05
0027:  MOVLW  0C
0028:  MOVWF  04
0029:  BTFSC  00.0
002A:  GOTO   050
002B:  MOVLW  07
002C:  MOVWF  05
002D:  MOVLW  1A
002E:  MOVWF  04
002F:  BTFSS  00.4
0030:  GOTO   037
0031:  MOVLW  07
0032:  MOVWF  05
0033:  MOVLW  10
0034:  MOVWF  04
0035:  BTFSC  00.4
0036:  GOTO   052
0037:  MOVF   20,W
0038:  MOVWF  77
0039:  MOVF   21,W
003A:  MOVWF  78
003B:  MOVF   22,W
003C:  MOVWF  79
003D:  MOVF   23,W
003E:  MOVWF  7A
003F:  MOVF   24,W
0040:  MOVLB  10
0041:  MOVWF  1A
0042:  MOVLB  00
0043:  MOVF   25,W
0044:  MOVLB  10
0045:  MOVWF  1B
0046:  MOVLB  00
0047:  MOVF   26,W
0048:  MOVLB  10
0049:  MOVWF  1C
004A:  MOVLB  00
004B:  MOVF   27,W
004C:  MOVLB  10
004D:  MOVWF  1D
004E:  RETFIE
004F:  MOVLB  00
0050:  MOVLP  00
0051:  GOTO   059
0052:  MOVLP  00
0053:  GOTO   07B
.................... #case
.................... #include <main.h>
.................... #include <16LF18857.h>
.................... //////////// Standard Header file for the PIC16LF18857 device ////////////////
.................... ///////////////////////////////////////////////////////////////////////////
.................... ////        (C) Copyright 1996, 2020 Custom Computer Services          ////
.................... //// This source code may only be used by licensed users of the CCS C  ////
.................... //// compiler.  This source code may only be distributed to other      ////
.................... //// licensed users of the CCS C compiler.  No other use, reproduction ////
.................... //// or distribution is permitted without written permission.          ////
.................... //// Derivative programs created using this software in object code    ////
.................... //// form are not restricted in any way.                               ////
.................... ///////////////////////////////////////////////////////////////////////////
.................... #device PIC16LF18857
0054:  BRW
0055:  RETLW  28
0056:  RETLW  0C
0057:  RETLW  01
0058:  RETLW  06
*
008D:  DATA 0C,26
008E:  DATA 61,10
008F:  DATA F4,32
0090:  DATA 6D,38
0091:  DATA 65,39
0092:  DATA 61,3A
0093:  DATA 75,39
0094:  DATA 61,10
0095:  DATA E5,39
0096:  DATA 3A,05
0097:  DATA 20,10
0098:  DATA A0,12
0099:  DATA 33,17
009A:  DATA 32,33
009B:  DATA A5,31
009C:  DATA 43,00
*
014B:  MOVLW  8E
014C:  MOVWF  77
014D:  MOVLB  01
014E:  MOVF   61,W
014F:  MOVWF  78
0150:  MOVF   60,W
0151:  MOVWF  79
0152:  CLRF   7A
0153:  BTFSS  61.7
0154:  GOTO   15A
0155:  COMF   78,F
0156:  COMF   79,F
0157:  INCF   79,F
0158:  BTFSC  03.2
0159:  INCF   78,F
015A:  MOVF   78,F
015B:  BTFSS  03.2
015C:  GOTO   167
015D:  MOVF   79,W
015E:  MOVWF  78
015F:  CLRF   79
0160:  MOVLW  08
0161:  SUBWF  77,F
0162:  MOVF   78,F
0163:  BTFSS  03.2
0164:  GOTO   167
0165:  CLRF   77
0166:  GOTO   170
0167:  BCF    03.0
0168:  BTFSC  78.7
0169:  GOTO   16E
016A:  RLF    79,F
016B:  RLF    78,F
016C:  DECF   77,F
016D:  GOTO   167
016E:  BTFSS  61.7
016F:  BCF    78.7
0170:  MOVLB  00
0171:  RETURN
0172:  MOVLW  80
0173:  BTFSS  03.1
0174:  GOTO   178
0175:  MOVLB  02
0176:  XORWF  31,F
0177:  MOVLB  00
0178:  MOVLB  02
0179:  CLRF   3A
017A:  CLRF   3B
017B:  MOVF   2D,W
017C:  MOVWF  39
017D:  MOVF   31,W
017E:  XORWF  39,F
017F:  MOVF   2C,W
0180:  BTFSC  03.2
0181:  GOTO   269
0182:  MOVWF  38
0183:  MOVWF  77
0184:  MOVF   30,W
0185:  BTFSC  03.2
0186:  GOTO   272
0187:  SUBWF  38,F
0188:  BTFSC  03.2
0189:  GOTO   20D
018A:  BTFSS  03.0
018B:  GOTO   1CA
018C:  MOVF   31,W
018D:  MOVWF  3E
018E:  BSF    3E.7
018F:  MOVF   32,W
0190:  MOVWF  3D
0191:  MOVF   33,W
0192:  MOVWF  3C
0193:  CLRF   3B
0194:  BCF    03.0
0195:  RRF    3E,F
0196:  RRF    3D,F
0197:  RRF    3C,F
0198:  RRF    3B,F
0199:  DECFSZ 38,F
019A:  GOTO   193
019B:  BTFSS  39.7
019C:  GOTO   1A0
019D:  BSF    3A.0
019E:  GOTO   286
019F:  BCF    3A.0
01A0:  BCF    38.0
01A1:  BSF    3A.4
01A2:  MOVLW  20
01A3:  MOVWF  05
01A4:  MOVLW  AF
01A5:  MOVWF  04
01A6:  GOTO   29B
01A7:  BCF    3A.4
01A8:  BTFSC  39.7
01A9:  GOTO   1B4
01AA:  BTFSS  38.0
01AB:  GOTO   1BF
01AC:  RRF    3E,F
01AD:  RRF    3D,F
01AE:  RRF    3C,F
01AF:  RRF    3B,F
01B0:  INCF   77,F
01B1:  BTFSC  03.2
01B2:  GOTO   281
01B3:  GOTO   1BF
01B4:  BTFSC  3E.7
01B5:  GOTO   1C2
01B6:  BCF    03.0
01B7:  RLF    3B,F
01B8:  RLF    3C,F
01B9:  RLF    3D,F
01BA:  RLF    3E,F
01BB:  DECF   77,F
01BC:  BTFSC  03.2
01BD:  GOTO   281
01BE:  GOTO   1B4
01BF:  BSF    3A.6
01C0:  GOTO   22E
01C1:  BCF    3A.6
01C2:  MOVF   2D,W
01C3:  MOVWF  39
01C4:  BTFSS  39.7
01C5:  GOTO   1C8
01C6:  BSF    3E.7
01C7:  GOTO   27A
01C8:  BCF    3E.7
01C9:  GOTO   27A
01CA:  MOVF   30,W
01CB:  MOVWF  38
01CC:  MOVWF  77
01CD:  MOVF   2C,W
01CE:  SUBWF  38,F
01CF:  MOVF   2D,W
01D0:  MOVWF  3E
01D1:  BSF    3E.7
01D2:  MOVF   2E,W
01D3:  MOVWF  3D
01D4:  MOVF   2F,W
01D5:  MOVWF  3C
01D6:  CLRF   3B
01D7:  BCF    03.0
01D8:  RRF    3E,F
01D9:  RRF    3D,F
01DA:  RRF    3C,F
01DB:  RRF    3B,F
01DC:  DECFSZ 38,F
01DD:  GOTO   1D6
01DE:  BTFSS  39.7
01DF:  GOTO   1E3
01E0:  BSF    3A.1
01E1:  GOTO   286
01E2:  BCF    3A.1
01E3:  BCF    38.0
01E4:  BSF    3A.5
01E5:  MOVLW  20
01E6:  MOVWF  05
01E7:  MOVLW  B3
01E8:  MOVWF  04
01E9:  GOTO   29B
01EA:  BCF    3A.5
01EB:  BTFSC  39.7
01EC:  GOTO   1F7
01ED:  BTFSS  38.0
01EE:  GOTO   202
01EF:  RRF    3E,F
01F0:  RRF    3D,F
01F1:  RRF    3C,F
01F2:  RRF    3B,F
01F3:  INCF   77,F
01F4:  BTFSC  03.2
01F5:  GOTO   281
01F6:  GOTO   202
01F7:  BTFSC  3E.7
01F8:  GOTO   205
01F9:  BCF    03.0
01FA:  RLF    3B,F
01FB:  RLF    3C,F
01FC:  RLF    3D,F
01FD:  RLF    3E,F
01FE:  DECF   77,F
01FF:  BTFSC  03.2
0200:  GOTO   281
0201:  GOTO   1F7
0202:  BSF    3A.7
0203:  GOTO   22E
0204:  BCF    3A.7
0205:  MOVF   31,W
0206:  MOVWF  39
0207:  BTFSS  39.7
0208:  GOTO   20B
0209:  BSF    3E.7
020A:  GOTO   27A
020B:  BCF    3E.7
020C:  GOTO   27A
020D:  MOVF   31,W
020E:  MOVWF  3E
020F:  BSF    3E.7
0210:  MOVF   32,W
0211:  MOVWF  3D
0212:  MOVF   33,W
0213:  MOVWF  3C
0214:  BTFSS  39.7
0215:  GOTO   21A
0216:  BCF    3E.7
0217:  BSF    3A.2
0218:  GOTO   286
0219:  BCF    3A.2
021A:  CLRF   3B
021B:  BCF    38.0
021C:  MOVLW  20
021D:  MOVWF  05
021E:  MOVLW  AF
021F:  MOVWF  04
0220:  GOTO   29B
0221:  BTFSC  39.7
0222:  GOTO   244
0223:  MOVF   2D,W
0224:  MOVWF  39
0225:  BTFSS  38.0
0226:  GOTO   22E
0227:  RRF    3E,F
0228:  RRF    3D,F
0229:  RRF    3C,F
022A:  RRF    3B,F
022B:  INCF   77,F
022C:  BTFSC  03.2
022D:  GOTO   281
022E:  BTFSS  3B.7
022F:  GOTO   23F
0230:  INCF   3C,F
0231:  BTFSS  03.2
0232:  GOTO   23F
0233:  INCF   3D,F
0234:  BTFSS  03.2
0235:  GOTO   23F
0236:  INCF   3E,F
0237:  BTFSS  03.2
0238:  GOTO   23F
0239:  RRF    3E,F
023A:  RRF    3D,F
023B:  RRF    3C,F
023C:  INCF   77,F
023D:  BTFSC  03.2
023E:  GOTO   281
023F:  BTFSC  3A.6
0240:  GOTO   1C1
0241:  BTFSC  3A.7
0242:  GOTO   204
0243:  GOTO   263
0244:  MOVLW  80
0245:  XORWF  3E,F
0246:  BTFSS  3E.7
0247:  GOTO   24C
0248:  GOTO   286
0249:  MOVF   31,W
024A:  MOVWF  39
024B:  GOTO   259
024C:  MOVF   2D,W
024D:  MOVWF  39
024E:  MOVF   3E,F
024F:  BTFSS  03.2
0250:  GOTO   259
0251:  MOVF   3D,F
0252:  BTFSS  03.2
0253:  GOTO   259
0254:  MOVF   3C,F
0255:  BTFSS  03.2
0256:  GOTO   259
0257:  CLRF   77
0258:  GOTO   27A
0259:  BTFSC  3E.7
025A:  GOTO   263
025B:  BCF    03.0
025C:  RLF    3B,F
025D:  RLF    3C,F
025E:  RLF    3D,F
025F:  RLF    3E,F
0260:  DECFSZ 77,F
0261:  GOTO   259
0262:  GOTO   281
0263:  BTFSS  39.7
0264:  GOTO   267
0265:  BSF    3E.7
0266:  GOTO   27A
0267:  BCF    3E.7
0268:  GOTO   27A
0269:  MOVF   30,W
026A:  MOVWF  77
026B:  MOVF   31,W
026C:  MOVWF  3E
026D:  MOVF   32,W
026E:  MOVWF  3D
026F:  MOVF   33,W
0270:  MOVWF  3C
0271:  GOTO   27A
0272:  MOVF   2C,W
0273:  MOVWF  77
0274:  MOVF   2D,W
0275:  MOVWF  3E
0276:  MOVF   2E,W
0277:  MOVWF  3D
0278:  MOVF   2F,W
0279:  MOVWF  3C
027A:  MOVF   3E,W
027B:  MOVWF  78
027C:  MOVF   3D,W
027D:  MOVWF  79
027E:  MOVF   3C,W
027F:  MOVWF  7A
0280:  GOTO   2B7
0281:  CLRF   77
0282:  CLRF   78
0283:  CLRF   79
0284:  CLRF   7A
0285:  GOTO   2B7
0286:  CLRF   3B
0287:  COMF   3C,F
0288:  COMF   3D,F
0289:  COMF   3E,F
028A:  COMF   3B,F
028B:  INCF   3B,F
028C:  BTFSS  03.2
028D:  GOTO   294
028E:  INCF   3C,F
028F:  BTFSS  03.2
0290:  GOTO   294
0291:  INCF   3D,F
0292:  BTFSC  03.2
0293:  INCF   3E,F
0294:  BTFSC  3A.0
0295:  GOTO   19F
0296:  BTFSC  3A.1
0297:  GOTO   1E2
0298:  BTFSC  3A.2
0299:  GOTO   219
029A:  GOTO   249
029B:  MOVF   00,W
029C:  ADDWF  3C,F
029D:  BTFSS  03.0
029E:  GOTO   2A5
029F:  INCF   3D,F
02A0:  BTFSS  03.2
02A1:  GOTO   2A5
02A2:  INCF   3E,F
02A3:  BTFSC  03.2
02A4:  BSF    38.0
02A5:  MOVIW  [--FSR0],W
02A6:  ADDWF  3D,F
02A7:  BTFSS  03.0
02A8:  GOTO   2AC
02A9:  INCF   3E,F
02AA:  BTFSC  03.2
02AB:  BSF    38.0
02AC:  MOVIW  [--FSR0],W
02AD:  BTFSS  00.7
02AE:  XORLW  80
02AF:  ADDWF  3E,F
02B0:  BTFSC  03.0
02B1:  BSF    38.0
02B2:  BTFSC  3A.4
02B3:  GOTO   1A7
02B4:  BTFSC  3A.5
02B5:  GOTO   1EA
02B6:  GOTO   221
02B7:  MOVLB  00
02B8:  RETURN
02B9:  MOVLB  02
02BA:  MOVF   2C,W
02BB:  BTFSC  03.2
02BC:  GOTO   32A
02BD:  MOVWF  34
02BE:  MOVF   30,W
02BF:  BTFSC  03.2
02C0:  GOTO   32A
02C1:  ADDWF  34,F
02C2:  BTFSC  03.0
02C3:  GOTO   2CB
02C4:  MOVLW  7F
02C5:  SUBWF  34,F
02C6:  BTFSS  03.0
02C7:  GOTO   32A
02C8:  BTFSC  03.2
02C9:  GOTO   32A
02CA:  GOTO   2CF
02CB:  MOVLW  81
02CC:  ADDWF  34,F
02CD:  BTFSC  03.0
02CE:  GOTO   32A
02CF:  MOVF   34,W
02D0:  MOVWF  77
02D1:  CLRF   78
02D2:  CLRF   79
02D3:  CLRF   7A
02D4:  MOVF   2D,W
02D5:  MOVWF  38
02D6:  BSF    38.7
02D7:  MOVF   2E,W
02D8:  MOVWF  37
02D9:  MOVF   2F,W
02DA:  MOVWF  36
02DB:  MOVLW  18
02DC:  MOVWF  34
02DD:  CLRF   35
02DE:  BTFSS  36.0
02DF:  GOTO   2F8
02E0:  MOVF   33,W
02E1:  ADDWF  7A,F
02E2:  BTFSS  03.0
02E3:  GOTO   2EA
02E4:  INCF   79,F
02E5:  BTFSS  03.2
02E6:  GOTO   2EA
02E7:  INCF   78,F
02E8:  BTFSC  03.2
02E9:  BSF    35.7
02EA:  MOVF   32,W
02EB:  ADDWF  79,F
02EC:  BTFSS  03.0
02ED:  GOTO   2F1
02EE:  INCF   78,F
02EF:  BTFSC  03.2
02F0:  BSF    35.7
02F1:  MOVF   31,W
02F2:  MOVWF  2E
02F3:  BSF    2E.7
02F4:  MOVF   2E,W
02F5:  ADDWF  78,F
02F6:  BTFSC  03.0
02F7:  BSF    35.7
02F8:  RLF    35,F
02F9:  RRF    78,F
02FA:  RRF    79,F
02FB:  RRF    7A,F
02FC:  RRF    38,F
02FD:  RRF    37,F
02FE:  RRF    36,F
02FF:  BCF    03.0
0300:  DECFSZ 34,F
0301:  GOTO   2DD
0302:  MOVLW  01
0303:  ADDWF  77,F
0304:  BTFSC  03.0
0305:  GOTO   32A
0306:  BTFSC  78.7
0307:  GOTO   30F
0308:  RLF    38,F
0309:  RLF    7A,F
030A:  RLF    79,F
030B:  RLF    78,F
030C:  DECF   77,F
030D:  BTFSC  03.2
030E:  GOTO   32A
030F:  BTFSS  38.7
0310:  GOTO   320
0311:  INCF   7A,F
0312:  BTFSS  03.2
0313:  GOTO   320
0314:  INCF   79,F
0315:  BTFSS  03.2
0316:  GOTO   320
0317:  INCF   78,F
0318:  BTFSS  03.2
0319:  GOTO   320
031A:  RRF    78,F
031B:  RRF    79,F
031C:  RRF    7A,F
031D:  INCF   77,F
031E:  BTFSC  03.2
031F:  GOTO   32A
0320:  MOVF   2D,W
0321:  MOVWF  35
0322:  MOVF   31,W
0323:  XORWF  35,F
0324:  BTFSS  35.7
0325:  GOTO   328
0326:  BSF    78.7
0327:  GOTO   32E
0328:  BCF    78.7
0329:  GOTO   32E
032A:  CLRF   77
032B:  CLRF   78
032C:  CLRF   79
032D:  CLRF   7A
032E:  MOVLB  00
032F:  RETURN
0330:  MOVLB  02
0331:  MOVF   2C,W
0332:  BTFSC  03.2
0333:  GOTO   3F6
0334:  MOVWF  38
0335:  MOVF   30,W
0336:  BTFSC  03.2
0337:  GOTO   3F6
0338:  SUBWF  38,F
0339:  BTFSS  03.0
033A:  GOTO   340
033B:  MOVLW  7F
033C:  ADDWF  38,F
033D:  BTFSC  03.0
033E:  GOTO   3F6
033F:  GOTO   346
0340:  MOVLW  81
0341:  SUBWF  38,F
0342:  BTFSS  03.0
0343:  GOTO   3F6
0344:  BTFSC  03.2
0345:  GOTO   3F6
0346:  MOVF   38,W
0347:  MOVWF  77
0348:  CLRF   78
0349:  CLRF   79
034A:  CLRF   7A
034B:  CLRF   37
034C:  MOVF   2D,W
034D:  MOVWF  36
034E:  BSF    36.7
034F:  MOVF   2E,W
0350:  MOVWF  35
0351:  MOVF   2F,W
0352:  MOVWF  34
0353:  MOVLW  19
0354:  MOVWF  38
0355:  MOVF   33,W
0356:  SUBWF  34,F
0357:  BTFSC  03.0
0358:  GOTO   369
0359:  MOVLW  01
035A:  SUBWF  35,F
035B:  BTFSC  03.0
035C:  GOTO   369
035D:  SUBWF  36,F
035E:  BTFSC  03.0
035F:  GOTO   369
0360:  SUBWF  37,F
0361:  BTFSC  03.0
0362:  GOTO   369
0363:  INCF   37,F
0364:  INCF   36,F
0365:  INCF   35,F
0366:  MOVF   33,W
0367:  ADDWF  34,F
0368:  GOTO   39B
0369:  MOVF   32,W
036A:  SUBWF  35,F
036B:  BTFSC  03.0
036C:  GOTO   384
036D:  MOVLW  01
036E:  SUBWF  36,F
036F:  BTFSC  03.0
0370:  GOTO   384
0371:  SUBWF  37,F
0372:  BTFSC  03.0
0373:  GOTO   384
0374:  INCF   37,F
0375:  INCF   36,F
0376:  MOVF   32,W
0377:  ADDWF  35,F
0378:  MOVF   33,W
0379:  ADDWF  34,F
037A:  BTFSS  03.0
037B:  GOTO   39B
037C:  INCF   35,F
037D:  BTFSS  03.2
037E:  GOTO   39B
037F:  INCF   36,F
0380:  BTFSS  03.2
0381:  GOTO   39B
0382:  INCF   37,F
0383:  GOTO   39B
0384:  MOVF   31,W
0385:  IORLW  80
0386:  SUBWF  36,F
0387:  BTFSC  03.0
0388:  GOTO   39A
0389:  MOVLW  01
038A:  SUBWF  37,F
038B:  BTFSC  03.0
038C:  GOTO   39A
038D:  INCF   37,F
038E:  MOVF   31,W
038F:  IORLW  80
0390:  ADDWF  36,F
0391:  MOVF   32,W
0392:  ADDWF  35,F
0393:  BTFSS  03.0
0394:  GOTO   378
0395:  INCF   36,F
0396:  BTFSS  03.2
0397:  GOTO   378
0398:  INCF   37,F
0399:  GOTO   378
039A:  BSF    7A.0
039B:  DECFSZ 38,F
039C:  GOTO   39E
039D:  GOTO   3A9
039E:  BCF    03.0
039F:  RLF    34,F
03A0:  RLF    35,F
03A1:  RLF    36,F
03A2:  RLF    37,F
03A3:  BCF    03.0
03A4:  RLF    7A,F
03A5:  RLF    79,F
03A6:  RLF    78,F
03A7:  RLF    39,F
03A8:  GOTO   355
03A9:  BTFSS  39.0
03AA:  GOTO   3B1
03AB:  BCF    03.0
03AC:  RRF    78,F
03AD:  RRF    79,F
03AE:  RRF    7A,F
03AF:  RRF    39,F
03B0:  GOTO   3B4
03B1:  DECF   77,F
03B2:  BTFSC  03.2
03B3:  GOTO   3F6
03B4:  BTFSC  39.7
03B5:  GOTO   3DD
03B6:  BCF    03.0
03B7:  RLF    34,F
03B8:  RLF    35,F
03B9:  RLF    36,F
03BA:  RLF    37,F
03BB:  MOVF   33,W
03BC:  SUBWF  34,F
03BD:  BTFSC  03.0
03BE:  GOTO   3C9
03BF:  MOVLW  01
03C0:  SUBWF  35,F
03C1:  BTFSC  03.0
03C2:  GOTO   3C9
03C3:  SUBWF  36,F
03C4:  BTFSC  03.0
03C5:  GOTO   3C9
03C6:  SUBWF  37,F
03C7:  BTFSS  03.0
03C8:  GOTO   3EC
03C9:  MOVF   32,W
03CA:  SUBWF  35,F
03CB:  BTFSC  03.0
03CC:  GOTO   3D4
03CD:  MOVLW  01
03CE:  SUBWF  36,F
03CF:  BTFSC  03.0
03D0:  GOTO   3D4
03D1:  SUBWF  37,F
03D2:  BTFSS  03.0
03D3:  GOTO   3EC
03D4:  MOVF   31,W
03D5:  IORLW  80
03D6:  SUBWF  36,F
03D7:  BTFSC  03.0
03D8:  GOTO   3DD
03D9:  MOVLW  01
03DA:  SUBWF  37,F
03DB:  BTFSS  03.0
03DC:  GOTO   3EC
03DD:  INCF   7A,F
03DE:  BTFSS  03.2
03DF:  GOTO   3EC
03E0:  INCF   79,F
03E1:  BTFSS  03.2
03E2:  GOTO   3EC
03E3:  INCF   78,F
03E4:  BTFSS  03.2
03E5:  GOTO   3EC
03E6:  INCF   77,F
03E7:  BTFSC  03.2
03E8:  GOTO   3F6
03E9:  RRF    78,F
03EA:  RRF    79,F
03EB:  RRF    7A,F
03EC:  MOVF   2D,W
03ED:  MOVWF  38
03EE:  MOVF   31,W
03EF:  XORWF  38,F
03F0:  BTFSS  38.7
03F1:  GOTO   3F4
03F2:  BSF    78.7
03F3:  GOTO   3FA
03F4:  BCF    78.7
03F5:  GOTO   3FA
03F6:  CLRF   77
03F7:  CLRF   78
03F8:  CLRF   79
03F9:  CLRF   7A
03FA:  MOVLB  00
03FB:  RETURN
*
04AA:  MOVLW  8E
04AB:  MOVWF  77
04AC:  MOVLB  01
04AD:  MOVF   60,W
04AE:  SUBWF  77,F
04AF:  MOVF   61,W
04B0:  MOVWF  79
04B1:  MOVF   62,W
04B2:  MOVWF  78
04B3:  BSF    79.7
04B4:  MOVF   77,F
04B5:  BTFSC  03.2
04B6:  GOTO   4C2
04B7:  BCF    03.0
04B8:  MOVF   79,F
04B9:  BTFSS  03.2
04BA:  GOTO   4BE
04BB:  MOVF   78,F
04BC:  BTFSC  03.2
04BD:  GOTO   4C2
04BE:  RRF    79,F
04BF:  RRF    78,F
04C0:  DECFSZ 77,F
04C1:  GOTO   4B7
04C2:  BTFSS  61.7
04C3:  GOTO   4C9
04C4:  COMF   78,F
04C5:  COMF   79,F
04C6:  INCF   78,F
04C7:  BTFSC  03.2
04C8:  INCF   79,F
04C9:  MOVLB  00
04CA:  RETURN
*
0524:  MOVLW  8E
0525:  MOVWF  77
0526:  MOVF   65,W
0527:  MOVWF  78
0528:  MOVF   64,W
0529:  MOVWF  79
052A:  CLRF   7A
052B:  MOVF   78,F
052C:  BTFSS  03.2
052D:  GOTO   538
052E:  MOVF   79,W
052F:  MOVWF  78
0530:  CLRF   79
0531:  MOVLW  08
0532:  SUBWF  77,F
0533:  MOVF   78,F
0534:  BTFSS  03.2
0535:  GOTO   538
0536:  CLRF   77
0537:  GOTO   540
0538:  BCF    03.0
0539:  BTFSC  78.7
053A:  GOTO   53F
053B:  RLF    79,F
053C:  RLF    78,F
053D:  DECF   77,F
053E:  GOTO   538
053F:  BCF    78.7
*
0560:  MOVLB  01
0561:  MOVF   59,W
0562:  MOVWF  05
0563:  MOVF   58,W
0564:  MOVWF  04
0565:  MOVLB  02
0566:  MOVF   20,W
0567:  MOVWI  W,[FSR0++]
0568:  CLRF   00
0569:  MOVLB  01
056A:  INCF   58,F
056B:  BTFSC  03.2
056C:  INCF   59,F
056D:  MOVLB  00
056E:  RETURN
056F:  MOVF   0B,W
0570:  BCF    0B.7
0571:  MOVLB  10
0572:  BCF    1E.6
0573:  BSF    1E.0
0574:  NOP
0575:  NOP
0576:  BTFSC  09.7
0577:  BSF    0B.7
0578:  BTFSC  03.0
0579:  GOTO   5A3
057A:  MOVF   1C,W
057B:  ANDLW  7F
057C:  MOVLB  01
057D:  MOVWF  61
057E:  MOVLB  10
057F:  MOVF   1A,W
0580:  MOVLB  01
0581:  MOVWF  62
0582:  MOVLB  10
0583:  MOVF   1B,W
0584:  MOVLB  01
0585:  MOVWF  63
0586:  MOVF   61,W
0587:  MOVLB  02
0588:  MOVWF  20
0589:  MOVLB  00
058A:  CALL   560
058B:  MOVLB  01
058C:  MOVF   62,W
058D:  MOVLB  10
058E:  MOVWF  1A
058F:  MOVLB  01
0590:  MOVF   63,W
0591:  MOVLB  10
0592:  MOVWF  1B
0593:  MOVF   0B,W
0594:  BCF    0B.7
0595:  BCF    1E.6
0596:  BSF    1E.0
0597:  NOP
0598:  NOP
0599:  BTFSC  09.7
059A:  BSF    0B.7
059B:  MOVLB  01
059C:  DECFSZ 60,F
059D:  GOTO   59F
059E:  GOTO   5A1
059F:  MOVLB  10
05A0:  GOTO   5A3
05A1:  GOTO   5C7
05A2:  MOVLB  10
05A3:  RLF    1C,W
05A4:  RLF    1D,W
05A5:  ANDLW  7F
05A6:  MOVLB  01
05A7:  MOVWF  61
05A8:  MOVLB  10
05A9:  MOVF   1A,W
05AA:  MOVLB  01
05AB:  MOVWF  62
05AC:  MOVLB  10
05AD:  MOVF   1B,W
05AE:  MOVLB  01
05AF:  MOVWF  63
05B0:  MOVF   61,W
05B1:  MOVLB  02
05B2:  MOVWF  20
05B3:  MOVLB  00
05B4:  CALL   560
05B5:  MOVLB  01
05B6:  MOVF   62,W
05B7:  MOVLB  10
05B8:  MOVWF  1A
05B9:  MOVLB  01
05BA:  MOVF   63,W
05BB:  MOVLB  10
05BC:  MOVWF  1B
05BD:  INCF   1A,F
05BE:  BTFSC  03.2
05BF:  INCF   1B,F
05C0:  BCF    03.0
05C1:  MOVLB  01
05C2:  DECFSZ 60,F
05C3:  GOTO   5C5
05C4:  GOTO   5C7
05C5:  MOVLB  00
05C6:  GOTO   56F
05C7:  MOVLP  08
05C8:  MOVLB  00
05C9:  GOTO   0CD (RETURN)
05CA:  BTFSC  03.1
05CB:  GOTO   5D0
05CC:  MOVLW  20
05CD:  MOVWF  05
05CE:  MOVLW  AA
05CF:  MOVWF  04
05D0:  CLRF   77
05D1:  CLRF   78
05D2:  CLRF   79
05D3:  CLRF   7A
05D4:  MOVLB  02
05D5:  CLRF   2A
05D6:  CLRF   2B
05D7:  CLRF   2C
05D8:  CLRF   2D
05D9:  MOVF   27,W
05DA:  IORWF  26,W
05DB:  IORWF  25,W
05DC:  IORWF  24,W
05DD:  BTFSC  03.2
05DE:  GOTO   60F
05DF:  MOVLW  20
05E0:  MOVWF  2E
05E1:  BCF    03.0
05E2:  RLF    20,F
05E3:  RLF    21,F
05E4:  RLF    22,F
05E5:  RLF    23,F
05E6:  RLF    2A,F
05E7:  RLF    2B,F
05E8:  RLF    2C,F
05E9:  RLF    2D,F
05EA:  MOVF   27,W
05EB:  SUBWF  2D,W
05EC:  BTFSS  03.2
05ED:  GOTO   5F8
05EE:  MOVF   26,W
05EF:  SUBWF  2C,W
05F0:  BTFSS  03.2
05F1:  GOTO   5F8
05F2:  MOVF   25,W
05F3:  SUBWF  2B,W
05F4:  BTFSS  03.2
05F5:  GOTO   5F8
05F6:  MOVF   24,W
05F7:  SUBWF  2A,W
05F8:  BTFSS  03.0
05F9:  GOTO   609
05FA:  MOVF   24,W
05FB:  SUBWF  2A,F
05FC:  MOVF   25,W
05FD:  BTFSS  03.0
05FE:  INCFSZ 25,W
05FF:  SUBWF  2B,F
0600:  MOVF   26,W
0601:  BTFSS  03.0
0602:  INCFSZ 26,W
0603:  SUBWF  2C,F
0604:  MOVF   27,W
0605:  BTFSS  03.0
0606:  INCFSZ 27,W
0607:  SUBWF  2D,F
0608:  BSF    03.0
0609:  RLF    77,F
060A:  RLF    78,F
060B:  RLF    79,F
060C:  RLF    7A,F
060D:  DECFSZ 2E,F
060E:  GOTO   5E1
060F:  MOVF   2A,W
0610:  MOVWF  00
0611:  MOVF   2B,W
0612:  MOVWI  W,[FSR0+01]
0613:  MOVF   2C,W
0614:  MOVWI  W,[FSR0+02]
0615:  MOVF   2D,W
0616:  MOVWI  W,[FSR0+03]
0617:  MOVLB  00
0618:  RETURN
0619:  MOVF   04,W
061A:  MOVLB  01
061B:  MOVWF  68
061C:  MOVF   64,W
061D:  MOVWF  6A
061E:  BTFSC  03.2
061F:  GOTO   642
0620:  MOVF   63,W
0621:  MOVLB  02
0622:  MOVWF  2F
0623:  MOVLB  01
0624:  MOVF   62,W
0625:  MOVLB  02
0626:  MOVWF  2E
0627:  MOVLB  01
0628:  MOVF   61,W
0629:  MOVLB  02
062A:  MOVWF  2D
062B:  MOVLB  01
062C:  MOVF   60,W
062D:  MOVLB  02
062E:  MOVWF  2C
062F:  CLRF   33
0630:  CLRF   32
0631:  MOVLW  20
0632:  MOVWF  31
0633:  MOVLW  82
0634:  MOVWF  30
0635:  MOVLB  00
0636:  CALL   2B9
0637:  MOVF   7A,W
0638:  MOVLB  01
0639:  MOVWF  63
063A:  MOVF   79,W
063B:  MOVWF  62
063C:  MOVF   78,W
063D:  MOVWF  61
063E:  MOVF   77,W
063F:  MOVWF  60
0640:  DECFSZ 6A,F
0641:  GOTO   620
0642:  MOVF   63,W
0643:  MOVLB  02
0644:  MOVWF  23
0645:  MOVLB  01
0646:  MOVF   62,W
0647:  MOVLB  02
0648:  MOVWF  22
0649:  MOVLB  01
064A:  MOVF   61,W
064B:  MOVLB  02
064C:  MOVWF  21
064D:  MOVLB  01
064E:  MOVF   60,W
064F:  MOVLB  02
0650:  MOVWF  20
0651:  MOVF   20,W
0652:  SUBLW  B6
0653:  MOVWF  20
0654:  CLRF   7A
0655:  MOVF   21,W
0656:  MOVWF  24
0657:  BSF    21.7
0658:  BCF    03.0
0659:  RRF    21,F
065A:  RRF    22,F
065B:  RRF    23,F
065C:  RRF    7A,F
065D:  RRF    79,F
065E:  RRF    78,F
065F:  RRF    77,F
0660:  DECFSZ 20,F
0661:  GOTO   658
0662:  BTFSS  24.7
0663:  GOTO   66F
0664:  COMF   77,F
0665:  COMF   78,F
0666:  COMF   79,F
0667:  COMF   7A,F
0668:  INCF   77,F
0669:  BTFSC  03.2
066A:  INCF   78,F
066B:  BTFSC  03.2
066C:  INCF   79,F
066D:  BTFSC  03.2
066E:  INCF   7A,F
066F:  MOVF   7A,W
0670:  MOVLB  01
0671:  MOVWF  63
0672:  MOVF   79,W
0673:  MOVWF  62
0674:  MOVF   78,W
0675:  MOVWF  61
0676:  MOVF   77,W
0677:  MOVWF  60
0678:  BTFSS  63.7
0679:  GOTO   687
067A:  DECF   68,F
067B:  BSF    68.5
067C:  COMF   60,F
067D:  COMF   61,F
067E:  COMF   62,F
067F:  COMF   63,F
0680:  INCF   60,F
0681:  BTFSC  03.2
0682:  INCF   61,F
0683:  BTFSC  03.2
0684:  INCF   62,F
0685:  BTFSC  03.2
0686:  INCF   63,F
0687:  MOVLW  3B
0688:  MOVWF  6F
0689:  MOVLW  9A
068A:  MOVWF  6E
068B:  MOVLW  CA
068C:  MOVWF  6D
068D:  CLRF   6C
068E:  MOVLW  0A
068F:  MOVWF  6A
0690:  MOVF   64,W
0691:  BTFSC  03.2
0692:  INCF   68,F
0693:  BSF    03.1
0694:  MOVLW  20
0695:  MOVWF  05
0696:  MOVLW  90
0697:  MOVWF  04
0698:  MOVF   63,W
0699:  MOVLB  02
069A:  MOVWF  23
069B:  MOVLB  01
069C:  MOVF   62,W
069D:  MOVLB  02
069E:  MOVWF  22
069F:  MOVLB  01
06A0:  MOVF   61,W
06A1:  MOVLB  02
06A2:  MOVWF  21
06A3:  MOVLB  01
06A4:  MOVF   60,W
06A5:  MOVLB  02
06A6:  MOVWF  20
06A7:  MOVLB  01
06A8:  MOVF   6F,W
06A9:  MOVLB  02
06AA:  MOVWF  27
06AB:  MOVLB  01
06AC:  MOVF   6E,W
06AD:  MOVLB  02
06AE:  MOVWF  26
06AF:  MOVLB  01
06B0:  MOVF   6D,W
06B1:  MOVLB  02
06B2:  MOVWF  25
06B3:  MOVLB  01
06B4:  MOVF   6C,W
06B5:  MOVLB  02
06B6:  MOVWF  24
06B7:  MOVLB  00
06B8:  CALL   5CA
06B9:  MOVF   78,W
06BA:  MOVF   77,F
06BB:  BTFSS  03.2
06BC:  GOTO   6D4
06BD:  MOVLB  01
06BE:  INCF   64,W
06BF:  SUBWF  6A,W
06C0:  BTFSS  03.2
06C1:  GOTO   6C4
06C2:  MOVLB  00
06C3:  GOTO   6D4
06C4:  MOVF   68,W
06C5:  BTFSC  03.2
06C6:  GOTO   6D7
06C7:  ANDLW  0F
06C8:  SUBWF  6A,W
06C9:  BTFSC  03.2
06CA:  GOTO   6CD
06CB:  BTFSC  03.0
06CC:  GOTO   713
06CD:  BTFSC  68.7
06CE:  GOTO   713
06CF:  BTFSC  68.6
06D0:  GOTO   6D7
06D1:  MOVLW  20
06D2:  GOTO   70C
06D3:  MOVLB  00
06D4:  MOVLW  20
06D5:  MOVLB  01
06D6:  ANDWF  68,F
06D7:  BTFSS  68.5
06D8:  GOTO   6E8
06D9:  BCF    68.5
06DA:  MOVF   64,W
06DB:  BTFSS  03.2
06DC:  DECF   68,F
06DD:  MOVF   77,W
06DE:  MOVWF  68
06DF:  MOVLW  2D
06E0:  MOVLB  02
06E1:  MOVWF  20
06E2:  MOVLB  00
06E3:  CALL   560
06E4:  MOVLB  01
06E5:  MOVF   68,W
06E6:  MOVWF  77
06E7:  CLRF   68
06E8:  MOVF   64,W
06E9:  SUBWF  6A,W
06EA:  BTFSS  03.2
06EB:  GOTO   6F9
06EC:  MOVF   77,W
06ED:  MOVWF  68
06EE:  MOVLW  2E
06EF:  MOVLB  02
06F0:  MOVWF  20
06F1:  MOVLB  00
06F2:  CALL   560
06F3:  MOVLB  01
06F4:  MOVF   68,W
06F5:  MOVWF  77
06F6:  MOVLW  20
06F7:  ANDWF  68,F
06F8:  MOVLW  00
06F9:  MOVLW  30
06FA:  BTFSS  68.5
06FB:  GOTO   70C
06FC:  BCF    68.5
06FD:  MOVF   64,W
06FE:  BTFSS  03.2
06FF:  DECF   68,F
0700:  MOVF   77,W
0701:  MOVWF  68
0702:  MOVLW  2D
0703:  MOVLB  02
0704:  MOVWF  20
0705:  MOVLB  00
0706:  CALL   560
0707:  MOVLB  01
0708:  MOVF   68,W
0709:  MOVWF  77
070A:  CLRF   68
070B:  MOVLW  30
070C:  ADDWF  77,F
070D:  MOVF   77,W
070E:  MOVLB  02
070F:  MOVWF  20
0710:  MOVLB  00
0711:  CALL   560
0712:  MOVLB  01
0713:  BCF    03.1
0714:  MOVF   6F,W
0715:  MOVLB  02
0716:  MOVWF  23
0717:  MOVLB  01
0718:  MOVF   6E,W
0719:  MOVLB  02
071A:  MOVWF  22
071B:  MOVLB  01
071C:  MOVF   6D,W
071D:  MOVLB  02
071E:  MOVWF  21
071F:  MOVLB  01
0720:  MOVF   6C,W
0721:  MOVLB  02
0722:  MOVWF  20
0723:  CLRF   27
0724:  CLRF   26
0725:  CLRF   25
0726:  MOVLW  0A
0727:  MOVWF  24
0728:  MOVLB  00
0729:  CALL   5CA
072A:  MOVF   7A,W
072B:  MOVLB  01
072C:  MOVWF  6F
072D:  MOVF   79,W
072E:  MOVWF  6E
072F:  MOVF   78,W
0730:  MOVWF  6D
0731:  MOVF   77,W
0732:  MOVWF  6C
0733:  DECFSZ 6A,F
0734:  GOTO   693
0735:  MOVLP  08
0736:  MOVLB  00
0737:  GOTO   0E4 (RETURN)
.................... 
.................... #list
.................... 
.................... #include "PIC16F18857_registers.h"
.................... #byte INDF0 = 0x000
.................... 
.................... #byte INDF1 = 0x001
.................... 
.................... #byte PCL = 0x002
.................... 
.................... struct  {
....................    unsigned int C:1;
....................    unsigned int DC:1;
....................    unsigned int Z:1;
....................    unsigned int PD:1;
....................    unsigned int TO:1;
.................... } STATUS;
.................... #byte STATUS = 0x003
.................... 
.................... #word FSR0 = 0x004
.................... 
.................... #word FSR1 = 0x006
.................... 
.................... #byte BSR = 0x008
.................... 
.................... #byte WREG = 0x009
.................... 
.................... #byte PCLATH = 0x00A
.................... 
.................... struct  {
....................    unsigned int INTEDG:1;
....................    unsigned int :5;
....................    unsigned int PEIE:1;
....................    unsigned int GIE:1;
.................... } INTCON;
.................... #byte INTCON = 0x00B
.................... 
.................... struct  {
....................    unsigned int RA0:1;
....................    unsigned int RA1:1;
....................    unsigned int RA2:1;
....................    unsigned int RA3:1;
....................    unsigned int RA4:1;
....................    unsigned int RA5:1;
....................    unsigned int RA6:1;
....................    unsigned int RA7:1;
.................... } PORTA;
.................... #byte PORTA = 0x00C
.................... 
.................... struct  {
....................    unsigned int RB0:1;
....................    unsigned int RB1:1;
....................    unsigned int RB2:1;
....................    unsigned int RB3:1;
....................    unsigned int RB4:1;
....................    unsigned int RB5:1;
....................    unsigned int RB6:1;
....................    unsigned int RB7:1;
.................... } PORTB;
.................... #byte PORTB = 0x00D
.................... 
.................... struct  {
....................    unsigned int RC0:1;
....................    unsigned int RC1:1;
....................    unsigned int RC2:1;
....................    unsigned int RC3:1;
....................    unsigned int RC4:1;
....................    unsigned int RC5:1;
....................    unsigned int RC6:1;
....................    unsigned int RC7:1;
.................... } PORTC;
.................... #byte PORTC = 0x00E
.................... 
.................... struct  {
....................    unsigned int RE0:1;
....................    unsigned int RE1:1;
....................    unsigned int RE2:1;
....................    unsigned int RE3:1;
....................    unsigned int RE4:1;
....................    unsigned int RE5:1;
....................    unsigned int RE6:1;
....................    unsigned int RE7:1;
.................... } PORTE;
.................... #byte PORTE = 0x010
.................... 
.................... struct  {
....................    unsigned int TRISA0:1;
....................    unsigned int TRISA1:1;
....................    unsigned int TRISA2:1;
....................    unsigned int TRISA3:1;
....................    unsigned int TRISA4:1;
....................    unsigned int TRISA5:1;
....................    unsigned int TRISA6:1;
....................    unsigned int TRISA7:1;
.................... } TRISA;
.................... #byte TRISA = 0x011
.................... 
.................... struct  {
....................    unsigned int TRISB0:1;
....................    unsigned int TRISB1:1;
....................    unsigned int TRISB2:1;
....................    unsigned int TRISB3:1;
....................    unsigned int TRISB4:1;
....................    unsigned int TRISB5:1;
....................    unsigned int TRISB6:1;
....................    unsigned int TRISB7:1;
.................... } TRISB;
.................... #byte TRISB = 0x012
.................... 
.................... struct  {
....................    unsigned int TRISC0:1;
....................    unsigned int TRISC1:1;
....................    unsigned int TRISC2:1;
....................    unsigned int TRISC3:1;
....................    unsigned int TRISC4:1;
....................    unsigned int TRISC5:1;
....................    unsigned int TRISC6:1;
....................    unsigned int TRISC7:1;
.................... } TRISC;
.................... #byte TRISC = 0x013
.................... 
.................... struct  {
....................    unsigned int LATA0:1;
....................    unsigned int LATA1:1;
....................    unsigned int LATA2:1;
....................    unsigned int LATA3:1;
....................    unsigned int LATA4:1;
....................    unsigned int LATA5:1;
....................    unsigned int LATA6:1;
....................    unsigned int LATA7:1;
.................... } LATA;
.................... #byte LATA = 0x016
.................... 
.................... struct  {
....................    unsigned int LATB0:1;
....................    unsigned int LATB1:1;
....................    unsigned int LATB2:1;
....................    unsigned int LATB3:1;
....................    unsigned int LATB4:1;
....................    unsigned int LATB5:1;
....................    unsigned int LATB6:1;
....................    unsigned int LATB7:1;
.................... } LATB;
.................... #byte LATB = 0x017
.................... 
.................... struct  {
....................    unsigned int LATC0:1;
....................    unsigned int LATC1:1;
....................    unsigned int LATC2:1;
....................    unsigned int LATC3:1;
....................    unsigned int LATC4:1;
....................    unsigned int LATC5:1;
....................    unsigned int LATC6:1;
....................    unsigned int LATC7:1;
.................... } LATC;
.................... #byte LATC = 0x018
.................... 
.................... struct  {
....................    unsigned int TMR0L:8;
.................... } TMR0;
.................... #byte TMR0 = 0x01C
.................... 
.................... struct  {
....................    union {
....................       struct {
....................          unsigned int TMR0H:8;
....................       };
.................... 
....................       struct {
....................          unsigned int T0PR:8;
....................       };
....................    };
.................... } TMR0H;
.................... #byte TMR0H = 0x01D
.................... 
.................... struct  {
....................    unsigned int T0OUTPS:4;
....................    unsigned int T016BIT:1;
....................    unsigned int T0OUT:1;
....................    unsigned int T0OE:1;
....................    unsigned int T0EN:1;
.................... } T0CON0;
.................... #byte T0CON0 = 0x01E
.................... 
.................... struct  {
....................    unsigned int T0CKPS:4;
....................    unsigned int T0ASYNC:1;
....................    unsigned int T0CS:3;
.................... } T0CON1;
.................... #byte T0CON1 = 0x01F
.................... 
.................... #word ADRES = 0x08C
.................... 
.................... struct  {
....................    union {
....................       struct {
....................          unsigned int ADGO:1;
....................          unsigned int :1;
....................          unsigned int ADFM:2;
....................          unsigned int ADCS:1;
....................          unsigned int :1;
....................          unsigned int ADCONT:1;
....................          unsigned int ADON:1;
....................       };
.................... 
....................    union {
....................       struct {
....................          unsigned int DONE:1;
....................          unsigned int :1;
....................          unsigned int ADFRM:2;
....................       };
....................    };
.................... 
....................       struct {
....................          unsigned int GO:1;
....................       };
....................    };
.................... } ADCON0;
.................... #byte ADCON0 = 0x093
.................... 
.................... struct  {
....................    unsigned int ADDSEN:1;
....................    unsigned int :4;
....................    unsigned int ADGPOL:1;
....................    unsigned int ADIPEN:1;
....................    unsigned int ADPPOL:1;
.................... } ADCON1;
.................... #byte ADCON1 = 0x094
.................... 
.................... struct  {
....................    unsigned int ADMD:3;
....................    unsigned int ADACLR:1;
....................    unsigned int ADCRS:3;
....................    unsigned int ADPSIS:1;
.................... } ADCON2;
.................... #byte ADCON2 = 0x095
.................... 
.................... struct  {
....................    unsigned int ADTMD:3;
....................    unsigned int ADSOI:1;
....................    unsigned int ADCALC:3;
.................... } ADCON3;
.................... #byte ADCON3 = 0x096
.................... 
.................... struct  {
....................    unsigned int ADSTAT:3;
....................    unsigned int ADMACT:1;
....................    unsigned int ADMATH:1;
....................    unsigned int ADLTHR:1;
....................    unsigned int ADUTHR:1;
....................    unsigned int ADAOV:1;
.................... } ADSTAT;
.................... #byte ADSTAT = 0x097
.................... 
.................... #byte ADACT = 0x099
.................... 
.................... #byte RC1REG = 0x119
.................... 
.................... #byte TX1REG = 0x11A
.................... 
.................... #word SP1BRG = 0x11B
.................... 
.................... struct  {
....................    unsigned int RX9D:1;
....................    unsigned int OERR:1;
....................    unsigned int FERR:1;
....................    unsigned int ADDEN:1;
....................    unsigned int CREN:1;
....................    unsigned int SREN:1;
....................    unsigned int RX9:1;
....................    unsigned int SPEN:1;
.................... } RC1STA;
.................... #byte RC1STA = 0x11D
.................... 
.................... struct  {
....................    unsigned int TX9D:1;
....................    unsigned int TRMT:1;
....................    unsigned int BRGH:1;
....................    unsigned int SENDB:1;
....................    unsigned int SYNC:1;
....................    unsigned int TXEN:1;
....................    unsigned int TX9:1;
....................    unsigned int CSRC:1;
.................... } TX1STA;
.................... #byte TX1STA = 0x11E
.................... 
.................... struct  {
....................    unsigned int ABDEN:1;
....................    unsigned int WUE:1;
....................    unsigned int :1;
....................    unsigned int BRG16:1;
....................    unsigned int SCKP:1;
....................    unsigned int :1;
....................    unsigned int RCIDL:1;
....................    unsigned int ABDOVF:1;
.................... } BAUD1CON;
.................... #byte BAUD1CON = 0x11F
.................... 
.................... #byte SSP1BUF = 0x18C
.................... 
.................... 
.................... struct  {
....................    unsigned int MSK:8;
.................... } SSP1ADD;
.................... #byte SSP1ADD = 0x18D
.................... 
.................... 
.................... struct  {
....................    unsigned int MSK:8;
.................... } SSP1MSK;
.................... #byte SSP1MSK = 0x18E
.................... 
.................... struct  {
....................    union {
....................       struct {
....................          unsigned int BF:1;
....................          unsigned int UA:1;
....................          unsigned int R:1;
....................          unsigned int S:1;
....................          unsigned int P:1;
....................          unsigned int D:1;
....................          unsigned int CKE:1;
....................          unsigned int SMP:1;
....................       };
.................... 
....................    union {
....................       struct {
....................          unsigned int :2;
....................          unsigned int R_W:1;
....................          unsigned int :2;
....................          unsigned int D_A:1;
....................       };
....................    };
.................... 
....................    union {
....................       struct {
....................          unsigned int :2;
....................          unsigned int W:1;
....................          unsigned int :2;
....................          unsigned int A:1;
....................       };
....................    };
.................... 
....................    union {
....................       struct {
....................          unsigned int :2;
....................          unsigned int WRITE:1;
....................          unsigned int S2:1;
....................          unsigned int P2:1;
....................          unsigned int ADDRESS:1;
....................       };
....................    };
.................... 
....................    union {
....................       struct {
....................          unsigned int :2;
....................          unsigned int READ_WRITE:1;
....................          unsigned int I2C_START:1;
....................          unsigned int I2C_STOP:1;
....................          unsigned int DATA_ADDRESS:1;
....................       };
....................    };
.................... 
....................    union {
....................       struct {
....................          unsigned int BF1:1;
....................          unsigned int UA1:1;
....................          unsigned int I2C_READ:1;
....................          unsigned int START:1;
....................          unsigned int STOP:1;
....................          unsigned int I2C_DAT:1;
....................          unsigned int CKE1:1;
....................          unsigned int SMP1:1;
....................       };
....................    };
.................... 
....................    union {
....................       struct {
....................          unsigned int :2;
....................          unsigned int RW:1;
....................          unsigned int I2C_START1:1;
....................          unsigned int I2C_STOP2:1;
....................          unsigned int DA:1;
....................       };
....................    };
.................... 
....................       struct {
....................          unsigned int :2;
....................          unsigned int W2:1;
....................          unsigned int :2;
....................          unsigned int A2:1;
....................       };
....................    };
.................... } SSP1STAT;
.................... #byte SSP1STAT = 0x18F
.................... 
.................... struct  {
....................    unsigned int SSPM:4;
....................    unsigned int CKP:1;
....................    unsigned int SSPEN:1;
....................    unsigned int SSPOV:1;
....................    unsigned int WCOL:1;
.................... } SSP1CON1;
.................... #byte SSP1CON1 = 0x190
.................... 
.................... struct  {
....................    union {
....................       struct {
....................          unsigned int SEN:1;
....................          unsigned int RSEN:1;
....................          unsigned int PEN:1;
....................          unsigned int RCEN:1;
....................          unsigned int ACKEN:1;
....................          unsigned int ACKDT:1;
....................          unsigned int ACKSTAT:1;
....................          unsigned int GCEN:1;
....................       };
.................... 
....................    union {
....................       struct {
....................          unsigned int :1;
....................          unsigned int ADMSK:5;
....................       };
....................    };
.................... 
....................       struct {
....................          unsigned int SEN1:1;
....................          unsigned int ADMSK1:5;
....................          unsigned int ACKSTAT1:1;
....................          unsigned int GCEN1:1;
....................       };
....................    };
.................... } SSP1CON2;
.................... #byte SSP1CON2 = 0x191
.................... 
.................... struct  {
....................    unsigned int DHEN:1;
....................    unsigned int AHEN:1;
....................    unsigned int SBCDE:1;
....................    unsigned int SDAHT:1;
....................    unsigned int BOEN:1;
....................    unsigned int SCIE:1;
....................    unsigned int PCIE:1;
....................    unsigned int ACKTIM:1;
.................... } SSP1CON3;
.................... #byte SSP1CON3 = 0x192
.................... 
.................... #byte SSP2BUF = 0x196
.................... 
.................... 
.................... struct  {
....................    union {
....................       struct {
....................          unsigned int MSK:8;
....................       };
.................... 
....................       struct {
....................          unsigned int MSK02:1;
....................          unsigned int MSK12:1;
....................          unsigned int MSK22:1;
....................          unsigned int MSK32:1;
....................          unsigned int MSK42:1;
....................          unsigned int MSK52:1;
....................          unsigned int :1;
....................          unsigned int MSK72:1;
....................       };
....................    };
.................... } SSP2ADD;
.................... #byte SSP2ADD = 0x197
.................... 
.................... 
.................... struct  {
....................    unsigned int MSK:8;
.................... } SSP2MSK;
.................... #byte SSP2MSK = 0x198
.................... 
.................... struct  {
....................    union {
....................       struct {
....................          unsigned int BF:1;
....................          unsigned int UA:1;
....................          unsigned int R:1;
....................          unsigned int S:1;
....................          unsigned int P:1;
....................          unsigned int D:1;
....................          unsigned int CKE:1;
....................          unsigned int SMP:1;
....................       };
.................... 
....................    union {
....................       struct {
....................          unsigned int :2;
....................          unsigned int R_W:1;
....................          unsigned int :2;
....................          unsigned int D_A:1;
....................       };
....................    };
.................... 
....................    union {
....................       struct {
....................          unsigned int :2;
....................          unsigned int W:1;
....................          unsigned int :2;
....................          unsigned int A:1;
....................       };
....................    };
.................... 
....................    union {
....................       struct {
....................          unsigned int :2;
....................          unsigned int WRITE:1;
....................          unsigned int START2:1;
....................          unsigned int STOP2:1;
....................          unsigned int ADDRESS:1;
....................       };
....................    };
.................... 
....................    union {
....................       struct {
....................          unsigned int :2;
....................          unsigned int READ_WRITE:1;
....................          unsigned int I2C_START:1;
....................          unsigned int I2C_STOP:1;
....................          unsigned int DATA_ADDRESS:1;
....................       };
....................    };
.................... 
....................    union {
....................       struct {
....................          unsigned int BF2:1;
....................          unsigned int UA2:1;
....................          unsigned int I2C_READ:1;
....................          unsigned int START:1;
....................          unsigned int STOP:1;
....................          unsigned int I2C_DAT:1;
....................          unsigned int CKE2:1;
....................          unsigned int SMP2:1;
....................       };
....................    };
.................... 
....................    union {
....................       struct {
....................          unsigned int :2;
....................          unsigned int RW:1;
....................          unsigned int I2C_START2:1;
....................          unsigned int I2C_STOP2:1;
....................          unsigned int DA:1;
....................       };
....................    };
.................... 
....................    union {
....................       struct {
....................          unsigned int :2;
....................          unsigned int RW2:1;
....................          unsigned int S2:1;
....................          unsigned int P2:1;
....................          unsigned int DA2:1;
....................       };
....................    };
.................... 
....................    union {
....................       struct {
....................          unsigned int :2;
....................          unsigned int I2C_READ2:1;
....................          unsigned int :2;
....................          unsigned int DATA_ADDRESS2:1;
....................       };
....................    };
.................... 
....................    union {
....................       struct {
....................          unsigned int :2;
....................          unsigned int READ_WRITE2:1;
....................          unsigned int :2;
....................          unsigned int D_A2:1;
....................       };
....................    };
.................... 
....................    union {
....................       struct {
....................          unsigned int :2;
....................          unsigned int R_W2:1;
....................          unsigned int :2;
....................          unsigned int I2C_DAT2:1;
....................       };
....................    };
.................... 
....................    union {
....................       struct {
....................          unsigned int :2;
....................          unsigned int W2:1;
....................          unsigned int :2;
....................          unsigned int A2:1;
....................       };
....................    };
.................... 
....................       struct {
....................          unsigned int :2;
....................          unsigned int WRITE2:1;
....................          unsigned int :2;
....................          unsigned int ADDRESS2:1;
....................       };
....................    };
.................... } SSP2STAT;
.................... #byte SSP2STAT = 0x199
.................... 
.................... struct  {
....................    union {
....................       struct {
....................          unsigned int SSPM:4;
....................          unsigned int CKP:1;
....................          unsigned int SSPEN:1;
....................          unsigned int SSPOV:1;
....................          unsigned int WCOL:1;
....................       };
.................... 
....................       struct {
....................          unsigned int SSPM02:1;
....................          unsigned int SSPM12:1;
....................          unsigned int SSPM22:1;
....................          unsigned int SSPM32:1;
....................          unsigned int CKP2:1;
....................          unsigned int SSPEN2:1;
....................          unsigned int SSPOV2:1;
....................          unsigned int WCOL2:1;
....................       };
....................    };
.................... } SSP2CON1;
.................... #byte SSP2CON1 = 0x19A
.................... 
.................... struct  {
....................    union {
....................       struct {
....................          unsigned int SEN:1;
....................          unsigned int RSEN:1;
....................          unsigned int PEN:1;
....................          unsigned int RCEN:1;
....................          unsigned int ACKEN:1;
....................          unsigned int ACKDT:1;
....................          unsigned int ACKSTAT:1;
....................          unsigned int GCEN:1;
....................       };
.................... 
....................    union {
....................       struct {
....................          unsigned int :1;
....................          unsigned int ADMSK:5;
....................       };
....................    };
.................... 
....................    union {
....................       struct {
....................          unsigned int SEN2:1;
....................          unsigned int ADMSK1:5;
....................          unsigned int ACKSTAT2:1;
....................          unsigned int GCEN2:1;
....................       };
....................    };
.................... 
....................    union {
....................       struct {
....................          unsigned int :1;
....................          unsigned int ADMSK12:1;
....................          unsigned int ADMSK22:1;
....................          unsigned int ADMSK32:1;
....................          unsigned int ACKEN2:1;
....................          unsigned int ACKDT2:1;
....................       };
....................    };
.................... 
....................       struct {
....................          unsigned int :1;
....................          unsigned int RSEN2:1;
....................          unsigned int PEN2:1;
....................          unsigned int RCEN2:1;
....................          unsigned int ADMSK42:1;
....................          unsigned int ADMSK52:1;
....................       };
....................    };
.................... } SSP2CON2;
.................... #byte SSP2CON2 = 0x19B
.................... 
.................... struct  {
....................    unsigned int DHEN:1;
....................    unsigned int AHEN:1;
....................    unsigned int SBCDE:1;
....................    unsigned int SDAHT:1;
....................    unsigned int BOEN:1;
....................    unsigned int SCIE:1;
....................    unsigned int PCIE:1;
....................    unsigned int ACKTIM:1;
.................... } SSP2CON3;
.................... #byte SSP2CON3 = 0x19C
.................... 
.................... struct  {
....................    union {
....................       struct {
....................          unsigned int TMR1L:8;
....................       };
.................... 
....................    union {
....................       struct {
....................          unsigned int :8;
....................       };
....................    };
.................... 
....................    union {
....................       struct {
....................          unsigned int TMR1:8;
....................       };
....................    };
.................... 
....................       struct {
....................          unsigned int CAL01:1;
....................          unsigned int CAL11:1;
....................          unsigned int CAL21:1;
....................          unsigned int CAL31:1;
....................          unsigned int CAL41:1;
....................          unsigned int :1;
....................          unsigned int CAL61:1;
....................          unsigned int CAL71:1;
....................       };
....................    };
.................... } TMR1;
.................... #byte TMR1 = 0x20C
.................... 
.................... struct  {
....................    union {
....................       struct {
....................          unsigned int TMR1H:8;
....................       };
.................... 
....................    union {
....................       struct {
....................          unsigned int :8;
....................       };
....................    };
.................... 
....................       struct {
....................          unsigned int TMR18:2;
....................          unsigned int TMR11:6;
....................       };
....................    };
.................... } TMR1H;
.................... #byte TMR1H = 0x20D
.................... 
.................... struct  {
....................    union {
....................       struct {
....................          unsigned int ON:1;
....................          unsigned int RD16:1;
....................          unsigned int SYNC:1;
....................          unsigned int :1;
....................          unsigned int CKPS:2;
....................       };
.................... 
....................       struct {
....................          unsigned int TMR1ON:1;
....................          unsigned int T1RD16:1;
....................          unsigned int T1SYNC:1;
....................          unsigned int :1;
....................          unsigned int T1CKPS:2;
....................       };
....................    };
.................... } T1CON;
.................... #byte T1CON = 0x20E
.................... 
.................... struct  {
....................    union {
....................       struct {
....................          unsigned int :2;
....................          unsigned int GVAL:1;
....................          unsigned int GGO:1;
....................          unsigned int GSPM:1;
....................          unsigned int GTM:1;
....................          unsigned int GPOL:1;
....................          unsigned int GE:1;
....................       };
.................... 
....................       struct {
....................          unsigned int :2;
....................          unsigned int T1GVAL:1;
....................          unsigned int T1GGO:1;
....................          unsigned int T1GSPM:1;
....................          unsigned int T1GTM:1;
....................          unsigned int T1GPOL:1;
....................          unsigned int T1GE:1;
....................       };
....................    };
.................... } T1GCON;
.................... #byte T1GCON = 0x20F
.................... 
.................... struct  {
....................    union {
....................       struct {
....................          unsigned int TMR3L:8;
....................       };
.................... 
....................    union {
....................       struct {
....................          unsigned int TMR3:8;
....................       };
....................    };
.................... 
....................       struct {
....................          unsigned int CAL03:1;
....................          unsigned int CAL13:1;
....................          unsigned int CAL23:1;
....................          unsigned int CAL33:1;
....................          unsigned int CAL43:1;
....................          unsigned int CAL53:1;
....................          unsigned int CAL63:1;
....................       };
....................    };
.................... } TMR3;
.................... #byte TMR3 = 0x212
.................... 
.................... struct  {
....................    union {
....................       struct {
....................          unsigned int TMR3H:8;
....................       };
.................... 
....................       struct {
....................          unsigned int TMR38:2;
....................          unsigned int TMR31:6;
....................       };
....................    };
.................... } TMR3H;
.................... #byte TMR3H = 0x213
.................... 
.................... struct  {
....................    union {
....................       struct {
....................          unsigned int ON:1;
....................          unsigned int RD16:1;
....................          unsigned int SYNC:1;
....................          unsigned int :1;
....................          unsigned int CKPS:2;
....................       };
.................... 
....................    union {
....................       struct {
....................          unsigned int TMR3ON:1;
....................          unsigned int T3RD16:1;
....................          unsigned int T3SYNC:1;
....................          unsigned int :1;
....................          unsigned int T3CKPS:2;
....................       };
....................    };
.................... 
....................       struct {
....................          unsigned int :1;
....................          unsigned int RD163:1;
....................       };
....................    };
.................... } T3CON;
.................... #byte T3CON = 0x214
.................... 
.................... struct  {
....................    union {
....................       struct {
....................          unsigned int :2;
....................          unsigned int GVAL:1;
....................          unsigned int GGO:1;
....................          unsigned int GSPM:1;
....................          unsigned int GTM:1;
....................          unsigned int GPOL:1;
....................          unsigned int GE:1;
....................       };
.................... 
....................       struct {
....................          unsigned int :2;
....................          unsigned int T3GVAL:1;
....................          unsigned int T3GGO:1;
....................          unsigned int T3GSPM:1;
....................          unsigned int T3GTM:1;
....................          unsigned int T3GPOL:1;
....................          unsigned int T3GE:1;
....................       };
....................    };
.................... } T3GCON;
.................... #byte T3GCON = 0x215
.................... 
.................... struct  {
....................    union {
....................       struct {
....................          unsigned int TMR5L:8;
....................       };
.................... 
....................    union {
....................       struct {
....................          unsigned int TMR5:8;
....................       };
....................    };
.................... 
....................       struct {
....................          unsigned int CAL05:1;
....................          unsigned int CAL15:1;
....................          unsigned int CAL25:1;
....................          unsigned int CAL35:1;
....................          unsigned int CAL45:1;
....................          unsigned int CAL55:1;
....................          unsigned int CAL65:1;
....................          unsigned int CAL75:1;
....................       };
....................    };
.................... } TMR5;
.................... #byte TMR5 = 0x218
.................... 
.................... struct  {
....................    union {
....................       struct {
....................          unsigned int TMR5H:8;
....................       };
.................... 
....................       struct {
....................          unsigned int TMR58:2;
....................          unsigned int TMR51:6;
....................       };
....................    };
.................... } TMR5H;
.................... #byte TMR5H = 0x219
.................... 
.................... struct  {
....................    union {
....................       struct {
....................          unsigned int ON:1;
....................          unsigned int RD16:1;
....................          unsigned int SYNC:1;
....................          unsigned int :1;
....................          unsigned int CKPS:2;
....................       };
.................... 
....................    union {
....................       struct {
....................          unsigned int TMR5ON:1;
....................          unsigned int T5RD16:1;
....................          unsigned int T5SYNC:1;
....................          unsigned int :1;
....................          unsigned int T5CKPS:2;
....................       };
....................    };
.................... 
....................       struct {
....................          unsigned int :1;
....................          unsigned int RD165:1;
....................       };
....................    };
.................... } T5CON;
.................... #byte T5CON = 0x21A
.................... 
.................... struct  {
....................    union {
....................       struct {
....................          unsigned int :2;
....................          unsigned int GVAL:1;
....................          unsigned int GGO:1;
....................          unsigned int GSPM:1;
....................          unsigned int GTM:1;
....................          unsigned int GPOL:1;
....................          unsigned int GE:1;
....................       };
.................... 
....................       struct {
....................          unsigned int :2;
....................          unsigned int T5GVAL:1;
....................          unsigned int T5GGO:1;
....................          unsigned int T5GSPM:1;
....................          unsigned int T5GTM:1;
....................          unsigned int T5GPOL:1;
....................          unsigned int T5GE:1;
....................       };
....................    };
.................... } T5GCON;
.................... #byte T5GCON = 0x21B
.................... 
.................... struct  {
....................    unsigned int C1TSEL:2;
....................    unsigned int C2TSEL:2;
....................    unsigned int C3TSEL:2;
....................    unsigned int C4TSEL:2;
.................... } CCPTMRS0;
.................... #byte CCPTMRS0 = 0x21E
.................... 
.................... struct  {
....................    unsigned int C5TSEL:2;
....................    unsigned int P6TSEL:2;
....................    unsigned int P7TSEL:2;
.................... } CCPTMRS1;
.................... #byte CCPTMRS1 = 0x21F
.................... 
.................... #byte T2TMR = 0x28C
.................... 
.................... #byte T2PR = 0x28D
.................... 
.................... struct  {
....................    union {
....................       struct {
....................          unsigned int OUTPS:4;
....................          unsigned int CKPS:3;
....................          unsigned int ON:1;
....................       };
.................... 
....................    union {
....................       struct {
....................          unsigned int T2OUTPS:4;
....................          unsigned int T2CKPS:3;
....................          unsigned int T2ON:1;
....................       };
....................    };
.................... 
....................       struct {
....................          unsigned int :7;
....................          unsigned int TMR2ON:1;
....................       };
....................    };
.................... } T2CON;
.................... #byte T2CON = 0x28E
.................... 
.................... struct  {
....................    union {
....................       struct {
....................          unsigned int MODE:5;
....................          unsigned int CKSYNC:1;
....................          unsigned int CKPOL:1;
....................          unsigned int PSYNC:1;
....................       };
.................... 
....................       struct {
....................          unsigned int T2MODE:5;
....................          unsigned int T2CKSYNC:1;
....................          unsigned int T2CKPOL:1;
....................          unsigned int T2PSYNC:1;
....................       };
....................    };
.................... } T2HLT;
.................... #byte T2HLT = 0x28F
.................... 
.................... #byte T2RST = 0x291
.................... 
.................... #byte T4TMR = 0x292
.................... 
.................... #byte T4PR = 0x293
.................... 
.................... struct  {
....................    union {
....................       struct {
....................          unsigned int OUTPS:4;
....................          unsigned int CKPS:3;
....................          unsigned int ON:1;
....................       };
.................... 
....................    union {
....................       struct {
....................          unsigned int T4OUTPS:4;
....................          unsigned int T4CKPS:3;
....................          unsigned int T4ON:1;
....................       };
....................    };
.................... 
....................       struct {
....................          unsigned int :7;
....................          unsigned int TMR4ON:1;
....................       };
....................    };
.................... } T4CON;
.................... #byte T4CON = 0x294
.................... 
.................... struct  {
....................    union {
....................       struct {
....................          unsigned int MODE:5;
....................          unsigned int CKSYNC:1;
....................          unsigned int CKPOL:1;
....................          unsigned int PSYNC:1;
....................       };
.................... 
....................       struct {
....................          unsigned int T4MODE:5;
....................          unsigned int T4CKSYNC:1;
....................          unsigned int T4CKPOL:1;
....................          unsigned int T4PSYNC:1;
....................       };
....................    };
.................... } T4HLT;
.................... #byte T4HLT = 0x295
.................... 
.................... #byte T4RST = 0x297
.................... 
.................... #byte T6TMR = 0x298
.................... 
.................... #byte T6PR = 0x299
.................... 
.................... struct  {
....................    union {
....................       struct {
....................          unsigned int OUTPS:4;
....................          unsigned int CKPS:3;
....................          unsigned int ON:1;
....................       };
.................... 
....................    union {
....................       struct {
....................          unsigned int T6OUTPS:4;
....................          unsigned int T6CKPS:3;
....................          unsigned int T6ON:1;
....................       };
....................    };
.................... 
....................       struct {
....................          unsigned int :7;
....................          unsigned int TMR6ON:1;
....................       };
....................    };
.................... } T6CON;
.................... #byte T6CON = 0x29A
.................... 
.................... struct  {
....................    union {
....................       struct {
....................          unsigned int MODE:5;
....................          unsigned int CKSYNC:1;
....................          unsigned int CKPOL:1;
....................          unsigned int PSYNC:1;
....................       };
.................... 
....................       struct {
....................          unsigned int T6MODE:5;
....................          unsigned int T6CKSYNC:1;
....................          unsigned int T6CKPOL:1;
....................          unsigned int T6PSYNC:1;
....................       };
....................    };
.................... } T6HLT;
.................... #byte T6HLT = 0x29B
.................... 
.................... #byte T6RST = 0x29D
.................... 
.................... #word CCPR1 = 0x30C
.................... 
.................... struct  {
....................    union {
....................       struct {
....................          unsigned int MODE:4;
....................          unsigned int FMT:1;
....................          unsigned int OUT:1;
....................          unsigned int OE:1;
....................          unsigned int EN:1;
....................       };
.................... 
....................    union {
....................       struct {
....................          unsigned int CCP1MODE:4;
....................          unsigned int CCP1FMT:1;
....................          unsigned int CCP1OUT:1;
....................          unsigned int CCP1OE:1;
....................          unsigned int CCP1EN:1;
....................       };
....................    };
.................... 
....................       struct {
....................          unsigned int :6;
....................          unsigned int P1M:2;
....................       };
....................    };
.................... } CCP1CON;
.................... #byte CCP1CON = 0x30E
.................... 
.................... 
.................... struct  {
....................    union {
....................       struct {
....................          unsigned int CTS:8;
....................       };
.................... 
....................       struct {
....................          unsigned int CCP1CTS:8;
....................       };
....................    };
.................... } CCP1CAP;
.................... #byte CCP1CAP = 0x30F
.................... 
.................... #word CCPR2 = 0x310
.................... 
.................... struct  {
....................    union {
....................       struct {
....................          unsigned int MODE:4;
....................          unsigned int FMT:1;
....................          unsigned int OUT:1;
....................          unsigned int OE:1;
....................          unsigned int EN:1;
....................       };
.................... 
....................    union {
....................       struct {
....................          unsigned int CCP2MODE:4;
....................          unsigned int CCP2FMT:1;
....................          unsigned int CCP2OUT:1;
....................          unsigned int CCP2OE:1;
....................          unsigned int CCP2EN:1;
....................       };
....................    };
.................... 
....................       struct {
....................          unsigned int :6;
....................          unsigned int P2M:2;
....................       };
....................    };
.................... } CCP2CON;
.................... #byte CCP2CON = 0x312
.................... 
.................... 
.................... struct  {
....................    union {
....................       struct {
....................          unsigned int CTS:8;
....................       };
.................... 
....................       struct {
....................          unsigned int CCP2CTS:8;
....................       };
....................    };
.................... } CCP2CAP;
.................... #byte CCP2CAP = 0x313
.................... 
.................... #word CCPR3 = 0x314
.................... 
.................... struct  {
....................    union {
....................       struct {
....................          unsigned int MODE:4;
....................          unsigned int FMT:1;
....................          unsigned int OUT:1;
....................          unsigned int OE:1;
....................          unsigned int EN:1;
....................       };
.................... 
....................    union {
....................       struct {
....................          unsigned int CCP3MODE:4;
....................          unsigned int CCP3FMT:1;
....................          unsigned int CCP3OUT:1;
....................          unsigned int CCP3OE:1;
....................          unsigned int CCP3EN:1;
....................       };
....................    };
.................... 
....................       struct {
....................          unsigned int :6;
....................          unsigned int P3M:2;
....................       };
....................    };
.................... } CCP3CON;
.................... #byte CCP3CON = 0x316
.................... 
.................... 
.................... struct  {
....................    union {
....................       struct {
....................          unsigned int CTS:8;
....................       };
.................... 
....................       struct {
....................          unsigned int CCP3CTS:8;
....................       };
....................    };
.................... } CCP3CAP;
.................... #byte CCP3CAP = 0x317
.................... 
.................... #word CCPR4 = 0x318
.................... 
.................... struct  {
....................    union {
....................       struct {
....................          unsigned int MODE:4;
....................          unsigned int FMT:1;
....................          unsigned int OUT:1;
....................          unsigned int OE:1;
....................          unsigned int EN:1;
....................       };
.................... 
....................    union {
....................       struct {
....................          unsigned int CCP4MODE:4;
....................          unsigned int CCP4FMT:1;
....................          unsigned int CCP4OUT:1;
....................          unsigned int CCP4OE:1;
....................          unsigned int CCP4EN:1;
....................       };
....................    };
.................... 
....................       struct {
....................          unsigned int :6;
....................          unsigned int P4M:2;
....................       };
....................    };
.................... } CCP4CON;
.................... #byte CCP4CON = 0x31A
.................... 
.................... 
.................... struct  {
....................    union {
....................       struct {
....................          unsigned int CTS:8;
....................       };
.................... 
....................       struct {
....................          unsigned int CCP4CTS:8;
....................       };
....................    };
.................... } CCP4CAP;
.................... #byte CCP4CAP = 0x31B
.................... 
.................... #word CCPR5 = 0x31C
.................... 
.................... struct  {
....................    union {
....................       struct {
....................          unsigned int MODE:4;
....................          unsigned int FMT:1;
....................          unsigned int OUT:1;
....................          unsigned int OE:1;
....................          unsigned int EN:1;
....................       };
.................... 
....................    union {
....................       struct {
....................          unsigned int CCP5MODE:4;
....................          unsigned int CCP5FMT:1;
....................          unsigned int CCP5OUT:1;
....................          unsigned int CCP5OE:1;
....................          unsigned int CCP5EN:1;
....................       };
....................    };
.................... 
....................       struct {
....................          unsigned int :6;
....................          unsigned int P5M:2;
....................       };
....................    };
.................... } CCP5CON;
.................... #byte CCP5CON = 0x31E
.................... 
.................... struct  {
....................    union {
....................       struct {
....................          unsigned int :6;
....................          unsigned int DC:2;
....................       };
.................... 
....................    union {
....................       struct {
....................          unsigned int :6;
....................          unsigned int PWM6DC:2;
....................       };
....................    };
.................... 
....................       struct {
....................          unsigned int :6;
....................          unsigned int PWMPW:2;
....................       };
....................    };
.................... } PWM6DC;
.................... #byte PWM6DC = 0x38C
.................... 
.................... struct  {
....................    union {
....................       struct {
....................          unsigned int DC2:8;
....................       };
.................... 
....................    union {
....................       struct {
....................          unsigned int PWM6DC2:8;
....................       };
....................    };
.................... 
....................       struct {
....................          unsigned int PWMPW2:8;
....................       };
....................    };
.................... } PWM6DCH;
.................... #byte PWM6DCH = 0x38D
.................... 
.................... struct  {
....................    union {
....................       struct {
....................          unsigned int :4;
....................          unsigned int POL:1;
....................          unsigned int OUT:1;
....................          unsigned int OE:1;
....................          unsigned int EN:1;
....................       };
.................... 
....................       struct {
....................          unsigned int :4;
....................          unsigned int PWM6POL:1;
....................          unsigned int PWM6OUT:1;
....................          unsigned int PWM6OE:1;
....................          unsigned int PWM6EN:1;
....................       };
....................    };
.................... } PWM6CON;
.................... #byte PWM6CON = 0x38E
.................... 
.................... struct  {
....................    union {
....................       struct {
....................          unsigned int LADR:8;
....................       };
.................... 
....................       struct {
....................          unsigned int SCANLADR:8;
....................       };
....................    };
.................... } SCANLADR;
.................... #byte SCANLADR = 0x40C
.................... 
.................... struct  {
....................    union {
....................       struct {
....................          unsigned int LADR8:2;
....................          unsigned int LADR1:6;
....................       };
.................... 
....................       struct {
....................          unsigned int SCANLADR8:2;
....................          unsigned int SCANLADR1:6;
....................       };
....................    };
.................... } SCANLADRH;
.................... #byte SCANLADRH = 0x40D
.................... 
.................... struct  {
....................    union {
....................       struct {
....................          unsigned int HADR:8;
....................       };
.................... 
....................       struct {
....................          unsigned int SCANHADR:8;
....................       };
....................    };
.................... } SCANHADR;
.................... #byte SCANHADR = 0x40E
.................... 
.................... struct  {
....................    union {
....................       struct {
....................          unsigned int HADR8:2;
....................          unsigned int HADR1:6;
....................       };
.................... 
....................       struct {
....................          unsigned int SCANHADR8:2;
....................          unsigned int SCANHADR1:6;
....................       };
....................    };
.................... } SCANHADRH;
.................... #byte SCANHADRH = 0x40F
.................... 
.................... struct  {
....................    union {
....................       struct {
....................          unsigned int MODE:2;
....................          unsigned int :1;
....................          unsigned int INTM:1;
....................          unsigned int INVALID:1;
....................          unsigned int BUSY:1;
....................          unsigned int SCANGO:1;
....................          unsigned int EN:1;
....................       };
.................... 
....................    union {
....................       struct {
....................          unsigned int SCANMODE:2;
....................          unsigned int :1;
....................          unsigned int SCANINTM:1;
....................          unsigned int SCANINVALID:1;
....................          unsigned int SCANBUSY:1;
....................          unsigned int :1;
....................          unsigned int SCANEN:1;
....................       };
....................    };
.................... 
....................       struct {
....................          unsigned int :4;
....................          unsigned int DABORT:1;
....................       };
....................    };
.................... } SCANCON0;
.................... #byte SCANCON0 = 0x410
.................... 
.................... #byte SCANTRIG = 0x411
.................... 
.................... struct  {
....................    unsigned int DATA:8;
.................... } CRCDAT;
.................... #byte CRCDAT = 0x416
.................... 
.................... struct  {
....................    unsigned int DATA8:2;
....................    unsigned int DATA1:6;
.................... } CRCDATH;
.................... #byte CRCDATH = 0x417
.................... 
.................... struct  {
....................    unsigned int ACC:8;
.................... } CRCACC;
.................... #byte CRCACC = 0x418
.................... 
.................... struct  {
....................    unsigned int ACC8:2;
....................    unsigned int ACC1:6;
.................... } CRCACCH;
.................... #byte CRCACCH = 0x419
.................... 
.................... struct  {
....................    unsigned int SHFT:8;
.................... } CRCSHIFT;
.................... #byte CRCSHIFT = 0x41A
.................... 
.................... struct  {
....................    unsigned int SHFT8:2;
....................    unsigned int SHFT1:6;
.................... } CRCSHIFTH;
.................... #byte CRCSHIFTH = 0x41B
.................... 
.................... struct  {
....................    unsigned int :1;
....................    unsigned int X1:7;
.................... } CRCXOR;
.................... #byte CRCXOR = 0x41C
.................... 
.................... struct  {
....................    unsigned int X8:2;
....................    unsigned int X1:6;
.................... } CRCXORH;
.................... #byte CRCXORH = 0x41D
.................... 
.................... struct  {
....................    union {
....................       struct {
....................          unsigned int FULL:1;
....................          unsigned int SHIFTM:1;
....................          unsigned int :2;
....................          unsigned int ACCM:1;
....................          unsigned int BUSY:1;
....................          unsigned int CRCGO:1;
....................          unsigned int EN:1;
....................       };
.................... 
....................       struct {
....................          unsigned int :7;
....................          unsigned int CRCEN:1;
....................       };
....................    };
.................... } CRCCON0;
.................... #byte CRCCON0 = 0x41E
.................... 
.................... struct  {
....................    unsigned int PLEN:4;
....................    unsigned int DLEN:4;
.................... } CRCCON1;
.................... #byte CRCCON1 = 0x41F
.................... 
.................... struct  {
....................    union {
....................       struct {
....................          unsigned int TMR:8;
....................       };
.................... 
....................       struct {
....................          unsigned int SMT1TMR:8;
....................       };
....................    };
.................... } SMT1TMR;
.................... #byte SMT1TMR = 0x48C
.................... 
.................... struct  {
....................    union {
....................       struct {
....................          unsigned int TMR8:2;
....................          unsigned int TMR1:6;
....................       };
.................... 
....................       struct {
....................          unsigned int SMT1TMR8:2;
....................          unsigned int SMT1TMR1:6;
....................       };
....................    };
.................... } SMT1TMRH;
.................... #byte SMT1TMRH = 0x48D
.................... 
.................... struct  {
....................    union {
....................       struct {
....................          unsigned int TMR16:4;
....................          unsigned int TMR2:4;
....................       };
.................... 
....................       struct {
....................          unsigned int SMT1TMR16:4;
....................          unsigned int SMT1TMR2:4;
....................       };
....................    };
.................... } SMT1TMRU;
.................... #byte SMT1TMRU = 0x48E
.................... 
.................... struct  {
....................    union {
....................       struct {
....................          unsigned int CPR:8;
....................       };
.................... 
....................       struct {
....................          unsigned int SMT1CPR:8;
....................       };
....................    };
.................... } SMT1CPR;
.................... #byte SMT1CPR = 0x48F
.................... 
.................... struct  {
....................    union {
....................       struct {
....................          unsigned int CPR8:2;
....................          unsigned int CPR1:6;
....................       };
.................... 
....................       struct {
....................          unsigned int SMT1CPR8:2;
....................          unsigned int SMT1CPR1:6;
....................       };
....................    };
.................... } SMT1CPRH;
.................... #byte SMT1CPRH = 0x490
.................... 
.................... struct  {
....................    union {
....................       struct {
....................          unsigned int CPR16:4;
....................          unsigned int CPR2:4;
....................       };
.................... 
....................       struct {
....................          unsigned int SMT1CPR16:4;
....................          unsigned int SMT1CPR2:4;
....................       };
....................    };
.................... } SMT1CPRU;
.................... #byte SMT1CPRU = 0x491
.................... 
.................... struct  {
....................    union {
....................       struct {
....................          unsigned int CPW:8;
....................       };
.................... 
....................       struct {
....................          unsigned int SMT1CPW:8;
....................       };
....................    };
.................... } SMT1CPW;
.................... #byte SMT1CPW = 0x492
.................... 
.................... struct  {
....................    union {
....................       struct {
....................          unsigned int CPW8:2;
....................          unsigned int CPW1:6;
....................       };
.................... 
....................       struct {
....................          unsigned int SMT1CPW8:2;
....................          unsigned int SMT1CPW1:6;
....................       };
....................    };
.................... } SMT1CPWH;
.................... #byte SMT1CPWH = 0x493
.................... 
.................... struct  {
....................    union {
....................       struct {
....................          unsigned int CPW16:4;
....................          unsigned int CPW2:4;
....................       };
.................... 
....................       struct {
....................          unsigned int SMT1CPW16:4;
....................          unsigned int SMT1CPW2:4;
....................       };
....................    };
.................... } SMT1CPWU;
.................... #byte SMT1CPWU = 0x494
.................... 
.................... struct  {
....................    union {
....................       struct {
....................          unsigned int PR:8;
....................       };
.................... 
....................       struct {
....................          unsigned int SMT1PR:8;
....................       };
....................    };
.................... } SMT1PR;
.................... #byte SMT1PR = 0x495
.................... 
.................... struct  {
....................    union {
....................       struct {
....................          unsigned int PR8:2;
....................          unsigned int PR1:6;
....................       };
.................... 
....................       struct {
....................          unsigned int SMT1PR8:2;
....................          unsigned int SMT1PR1:6;
....................       };
....................    };
.................... } SMT1PRH;
.................... #byte SMT1PRH = 0x496
.................... 
.................... struct  {
....................    union {
....................       struct {
....................          unsigned int PR16:4;
....................          unsigned int PR2:4;
....................       };
.................... 
....................       struct {
....................          unsigned int SMT1PR16:4;
....................          unsigned int SMT1PR2:4;
....................       };
....................    };
.................... } SMT1PRU;
.................... #byte SMT1PRU = 0x497
.................... 
.................... struct  {
....................    union {
....................       struct {
....................          unsigned int PS:2;
....................          unsigned int CPOL:1;
....................          unsigned int SPOL:1;
....................          unsigned int WPOL:1;
....................          unsigned int STP:1;
....................          unsigned int :1;
....................          unsigned int EN:1;
....................       };
.................... 
....................       struct {
....................          unsigned int SMT1PS:2;
....................          unsigned int SMT1CPOL:1;
....................          unsigned int SMT1SPOL:1;
....................          unsigned int SMT1WOL:1;
....................          unsigned int SMT1STP:1;
....................          unsigned int :1;
....................          unsigned int SMT1EN:1;
....................       };
....................    };
.................... } SMT1CON0;
.................... #byte SMT1CON0 = 0x498
.................... 
.................... struct  {
....................    union {
....................       struct {
....................          unsigned int MODE:4;
....................          unsigned int :2;
....................          unsigned int REPEAT:1;
....................          unsigned int GO:1;
....................       };
.................... 
....................       struct {
....................          unsigned int :6;
....................          unsigned int SMT1REPEAT:1;
....................          unsigned int SMT1GO:1;
....................       };
....................    };
.................... } SMT1CON1;
.................... #byte SMT1CON1 = 0x499
.................... 
.................... struct  {
....................    union {
....................       struct {
....................          unsigned int AS:1;
....................          unsigned int WS:1;
....................          unsigned int TS:1;
....................          unsigned int :2;
....................          unsigned int RST:1;
....................          unsigned int CPWUP:1;
....................          unsigned int CPRUP:1;
....................       };
.................... 
....................    union {
....................       struct {
....................          unsigned int SMT1AS:1;
....................          unsigned int SMT1WS:1;
....................          unsigned int SMT1TS:1;
....................          unsigned int :2;
....................          unsigned int SMT1RESET:1;
....................          unsigned int SMT1CPWUP:1;
....................          unsigned int SMT1CPRUP:1;
....................       };
....................    };
.................... 
....................       struct {
....................          unsigned int :5;
....................          unsigned int SMT1RST:1;
....................       };
....................    };
.................... } SMT1STAT;
.................... #byte SMT1STAT = 0x49A
.................... 
.................... #byte SMT1CLK = 0x49B
.................... 
.................... #byte SMT1SIG = 0x49C
.................... 
.................... #byte SMT1WIN = 0x49D
.................... 
.................... struct  {
....................    union {
....................       struct {
....................          unsigned int TMR:8;
....................       };
.................... 
....................       struct {
....................          unsigned int SMT2TMR:8;
....................       };
....................    };
.................... } SMT2TMR;
.................... #byte SMT2TMR = 0x50C
.................... 
.................... struct  {
....................    union {
....................       struct {
....................          unsigned int TMR8:2;
....................          unsigned int TMR1:6;
....................       };
.................... 
....................       struct {
....................          unsigned int SMT2TMR8:2;
....................          unsigned int SMT2TMR1:6;
....................       };
....................    };
.................... } SMT2TMRH;
.................... #byte SMT2TMRH = 0x50D
.................... 
.................... struct  {
....................    union {
....................       struct {
....................          unsigned int TMR16:4;
....................          unsigned int TMR2:4;
....................       };
.................... 
....................       struct {
....................          unsigned int SMT2TMR16:4;
....................          unsigned int SMT2TMR2:4;
....................       };
....................    };
.................... } SMT2TMRU;
.................... #byte SMT2TMRU = 0x50E
.................... 
.................... struct  {
....................    union {
....................       struct {
....................          unsigned int CPR:8;
....................       };
.................... 
....................       struct {
....................          unsigned int SMT2CPR:8;
....................       };
....................    };
.................... } SMT2CPR;
.................... #byte SMT2CPR = 0x50F
.................... 
.................... struct  {
....................    union {
....................       struct {
....................          unsigned int CPR8:2;
....................          unsigned int CPR1:6;
....................       };
.................... 
....................       struct {
....................          unsigned int SMT2CPR8:2;
....................          unsigned int SMT2CPR1:6;
....................       };
....................    };
.................... } SMT2CPRH;
.................... #byte SMT2CPRH = 0x510
.................... 
.................... struct  {
....................    union {
....................       struct {
....................          unsigned int CPR16:4;
....................          unsigned int CPR2:4;
....................       };
.................... 
....................       struct {
....................          unsigned int SMT2CPR16:4;
....................          unsigned int SMT2CPR2:4;
....................       };
....................    };
.................... } SMT2CPRU;
.................... #byte SMT2CPRU = 0x511
.................... 
.................... struct  {
....................    union {
....................       struct {
....................          unsigned int CPW:8;
....................       };
.................... 
....................       struct {
....................          unsigned int SMT2CPW:8;
....................       };
....................    };
.................... } SMT2CPW;
.................... #byte SMT2CPW = 0x512
.................... 
.................... struct  {
....................    union {
....................       struct {
....................          unsigned int CPW8:2;
....................          unsigned int CPW1:6;
....................       };
.................... 
....................       struct {
....................          unsigned int SMT2CPW8:2;
....................          unsigned int SMT2CPW1:6;
....................       };
....................    };
.................... } SMT2CPWH;
.................... #byte SMT2CPWH = 0x513
.................... 
.................... struct  {
....................    union {
....................       struct {
....................          unsigned int CPW16:4;
....................          unsigned int CPW2:4;
....................       };
.................... 
....................       struct {
....................          unsigned int SMT2CPW16:4;
....................          unsigned int SMT2CPW2:4;
....................       };
....................    };
.................... } SMT2CPWU;
.................... #byte SMT2CPWU = 0x514
.................... 
.................... struct  {
....................    union {
....................       struct {
....................          unsigned int PR:8;
....................       };
.................... 
....................       struct {
....................          unsigned int SMT2PR:8;
....................       };
....................    };
.................... } SMT2PR;
.................... #byte SMT2PR = 0x515
.................... 
.................... struct  {
....................    union {
....................       struct {
....................          unsigned int PR8:2;
....................          unsigned int PR1:6;
....................       };
.................... 
....................       struct {
....................          unsigned int SMT2PR8:2;
....................          unsigned int SMT2PR1:6;
....................       };
....................    };
.................... } SMT2PRH;
.................... #byte SMT2PRH = 0x516
.................... 
.................... struct  {
....................    union {
....................       struct {
....................          unsigned int PR16:4;
....................          unsigned int PR2:4;
....................       };
.................... 
....................       struct {
....................          unsigned int SMT2PR16:4;
....................          unsigned int SMT2PR2:4;
....................       };
....................    };
.................... } SMT2PRU;
.................... #byte SMT2PRU = 0x517
.................... 
.................... struct  {
....................    union {
....................       struct {
....................          unsigned int PS:2;
....................          unsigned int CPOL:1;
....................          unsigned int SPOL:1;
....................          unsigned int WPOL:1;
....................          unsigned int STP:1;
....................          unsigned int :1;
....................          unsigned int EN:1;
....................       };
.................... 
....................       struct {
....................          unsigned int SMT2PS:2;
....................          unsigned int SMT2CPOL:1;
....................          unsigned int SMT2SPOL:1;
....................          unsigned int SMT2WOL:1;
....................          unsigned int SMT2STP:1;
....................          unsigned int :1;
....................          unsigned int SMT2EN:1;
....................       };
....................    };
.................... } SMT2CON0;
.................... #byte SMT2CON0 = 0x518
.................... 
.................... struct  {
....................    union {
....................       struct {
....................          unsigned int MODE:4;
....................          unsigned int :2;
....................          unsigned int REPEAT:1;
....................          unsigned int GO:1;
....................       };
.................... 
....................       struct {
....................          unsigned int :6;
....................          unsigned int SMT2REPEAT:1;
....................          unsigned int SMT2GO:1;
....................       };
....................    };
.................... } SMT2CON1;
.................... #byte SMT2CON1 = 0x519
.................... 
.................... struct  {
....................    union {
....................       struct {
....................          unsigned int AS:1;
....................          unsigned int WS:1;
....................          unsigned int TS:1;
....................          unsigned int :2;
....................          unsigned int RST:1;
....................          unsigned int CPWUP:1;
....................          unsigned int CPRUP:1;
....................       };
.................... 
....................    union {
....................       struct {
....................          unsigned int SMT2AS:1;
....................          unsigned int SMT2WS:1;
....................          unsigned int SMT2TS:1;
....................          unsigned int :2;
....................          unsigned int SMT2RESET:1;
....................          unsigned int SMT2CPWUP:1;
....................          unsigned int SMT2CPRUP:1;
....................       };
....................    };
.................... 
....................       struct {
....................          unsigned int :5;
....................          unsigned int SMT2RST:1;
....................       };
....................    };
.................... } SMT2STAT;
.................... #byte SMT2STAT = 0x51A
.................... 
.................... #byte SMT2CLK = 0x51B
.................... 
.................... #byte SMT2SIG = 0x51C
.................... 
.................... #byte SMT2WIN = 0x51D
.................... 
.................... struct  {
....................    unsigned int NCO1ACC:8;
.................... } NCO1ACC;
.................... #byte NCO1ACC = 0x58C
.................... 
.................... struct  {
....................    unsigned int NCO1ACC8:2;
....................    unsigned int NCO1ACC1:6;
.................... } NCO1ACCH;
.................... #byte NCO1ACCH = 0x58D
.................... 
.................... struct  {
....................    unsigned int NCO1ACC16:4;
....................    unsigned int NCO1ACC2:4;
.................... } NCO1ACCU;
.................... #byte NCO1ACCU = 0x58E
.................... 
.................... struct  {
....................    unsigned int NCO1INC:8;
.................... } NCO1INC;
.................... #byte NCO1INC = 0x58F
.................... 
.................... struct  {
....................    unsigned int NCO1INC8:2;
....................    unsigned int NCO1INC1:6;
.................... } NCO1INCH;
.................... #byte NCO1INCH = 0x590
.................... 
.................... struct  {
....................    unsigned int NCO1INC16:4;
....................    unsigned int NCO1INC2:4;
.................... } NCO1INCU;
.................... #byte NCO1INCU = 0x591
.................... 
.................... struct  {
....................    unsigned int N1PFM:1;
....................    unsigned int :3;
....................    unsigned int N1POL:1;
....................    unsigned int N1OUT:1;
....................    unsigned int N1OE:1;
....................    unsigned int N1EN:1;
.................... } NCO1CON;
.................... #byte NCO1CON = 0x592
.................... 
.................... struct  {
....................    unsigned int N1CKS:4;
....................    unsigned int :1;
....................    unsigned int N1PWS:3;
.................... } NCO1CLK;
.................... #byte NCO1CLK = 0x593
.................... 
.................... struct  {
....................    union {
....................       struct {
....................          unsigned int CS:1;
....................       };
.................... 
....................       struct {
....................          unsigned int CWG1CS:1;
....................       };
....................    };
.................... } CWG1CLKCON;
.................... #byte CWG1CLKCON = 0x60C
.................... 
.................... #byte CWG1ISM = 0x60D
.................... 
.................... #byte CWG1DBR = 0x60E
.................... 
.................... #byte CWG1DBF = 0x60F
.................... 
.................... struct  {
....................    union {
....................       struct {
....................          unsigned int MODE:3;
....................          unsigned int :3;
....................          unsigned int LD:1;
....................          unsigned int EN:1;
....................       };
.................... 
....................    union {
....................       struct {
....................          unsigned int CWG1MODE:3;
....................          unsigned int :3;
....................          unsigned int CWG1LD:1;
....................          unsigned int G1EN:1;
....................       };
....................    };
.................... 
....................       struct {
....................          unsigned int :7;
....................          unsigned int CWG1EN:1;
....................       };
....................    };
.................... } CWG1CON0;
.................... #byte CWG1CON0 = 0x610
.................... 
.................... struct  {
....................    union {
....................       struct {
....................          unsigned int POLA:1;
....................          unsigned int POLB:1;
....................          unsigned int POLC:1;
....................          unsigned int POLD:1;
....................          unsigned int :1;
....................          unsigned int IN:1;
....................       };
.................... 
....................       struct {
....................          unsigned int CWG1POLA:1;
....................          unsigned int CWG1POLB:1;
....................          unsigned int CWG1POLC:1;
....................          unsigned int CWG1POLD:1;
....................          unsigned int :1;
....................          unsigned int CWG1IN:1;
....................       };
....................    };
.................... } CWG1CON1;
.................... #byte CWG1CON1 = 0x611
.................... 
.................... struct  {
....................    union {
....................       struct {
....................          unsigned int :2;
....................          unsigned int LSAC:2;
....................          unsigned int LSBD:2;
....................          unsigned int REN:1;
....................          unsigned int SHUTDOWN:1;
....................       };
.................... 
....................       struct {
....................          unsigned int :2;
....................          unsigned int CWG1LSAC:2;
....................          unsigned int CWG1LSBD:2;
....................          unsigned int CWG1REN:1;
....................          unsigned int CWG1SHUTDOWN:1;
....................       };
....................    };
.................... } CWG1AS0;
.................... #byte CWG1AS0 = 0x612
.................... 
.................... struct  {
....................    unsigned int AS0E:1;
....................    unsigned int AS1E:1;
....................    unsigned int AS2E:1;
....................    unsigned int AS3E:1;
....................    unsigned int AS4E:1;
....................    unsigned int AS5E:1;
....................    unsigned int AS6E:1;
.................... } CWG1AS1;
.................... #byte CWG1AS1 = 0x613
.................... 
.................... struct  {
....................    union {
....................       struct {
....................          unsigned int STRA:1;
....................          unsigned int STRB:1;
....................          unsigned int STRC:1;
....................          unsigned int STRD:1;
....................          unsigned int OVRA:1;
....................          unsigned int OVRB:1;
....................          unsigned int OVRC:1;
....................          unsigned int OVRD:1;
....................       };
.................... 
....................       struct {
....................          unsigned int CWG1STRA:1;
....................          unsigned int CWG1STRB:1;
....................          unsigned int CWG1STRC:1;
....................          unsigned int CWG1STRD:1;
....................          unsigned int CWG1OVRA:1;
....................          unsigned int CWG1OVRB:1;
....................          unsigned int CWG1OVRC:1;
....................          unsigned int CWG1OVRD:1;
....................       };
....................    };
.................... } CWG1STR;
.................... #byte CWG1STR = 0x614
.................... 
.................... struct  {
....................    union {
....................       struct {
....................          unsigned int CS:1;
....................       };
.................... 
....................       struct {
....................          unsigned int CWG2CS:1;
....................       };
....................    };
.................... } CWG2CLKCON;
.................... #byte CWG2CLKCON = 0x616
.................... 
.................... #byte CWG2ISM = 0x617
.................... 
.................... #byte CWG2DBR = 0x618
.................... 
.................... #byte CWG2DBF = 0x619
.................... 
.................... struct  {
....................    union {
....................       struct {
....................          unsigned int MODE:3;
....................          unsigned int :3;
....................          unsigned int LD:1;
....................          unsigned int EN:1;
....................       };
.................... 
....................    union {
....................       struct {
....................          unsigned int CWG2MODE:3;
....................          unsigned int :3;
....................          unsigned int CWG2LD:1;
....................          unsigned int G2EN:1;
....................       };
....................    };
.................... 
....................       struct {
....................          unsigned int :7;
....................          unsigned int CWG2EN:1;
....................       };
....................    };
.................... } CWG2CON0;
.................... #byte CWG2CON0 = 0x61A
.................... 
.................... struct  {
....................    union {
....................       struct {
....................          unsigned int POLA:1;
....................          unsigned int POLB:1;
....................          unsigned int POLC:1;
....................          unsigned int POLD:1;
....................          unsigned int :1;
....................          unsigned int IN:1;
....................       };
.................... 
....................       struct {
....................          unsigned int CWG2POLA:1;
....................          unsigned int CWG2POLB:1;
....................          unsigned int CWG2POLC:1;
....................          unsigned int CWG2POLD:1;
....................          unsigned int :1;
....................          unsigned int CWG2IN:1;
....................       };
....................    };
.................... } CWG2CON1;
.................... #byte CWG2CON1 = 0x61B
.................... 
.................... struct  {
....................    union {
....................       struct {
....................          unsigned int :2;
....................          unsigned int LSAC:2;
....................          unsigned int LSBD:2;
....................          unsigned int REN:1;
....................          unsigned int SHUTDOWN:1;
....................       };
.................... 
....................       struct {
....................          unsigned int :2;
....................          unsigned int CWG2LSAC:2;
....................          unsigned int CWG2LSBD:2;
....................          unsigned int CWG2REN:1;
....................          unsigned int CWG2SHUTDOWN:1;
....................       };
....................    };
.................... } CWG2AS0;
.................... #byte CWG2AS0 = 0x61C
.................... 
.................... struct  {
....................    unsigned int AS0E:1;
....................    unsigned int AS1E:1;
....................    unsigned int AS2E:1;
....................    unsigned int AS3E:1;
....................    unsigned int AS4E:1;
....................    unsigned int AS5E:1;
....................    unsigned int AS6E:1;
.................... } CWG2AS1;
.................... #byte CWG2AS1 = 0x61D
.................... 
.................... struct  {
....................    union {
....................       struct {
....................          unsigned int STRA:1;
....................          unsigned int STRB:1;
....................          unsigned int STRC:1;
....................          unsigned int STRD:1;
....................          unsigned int OVRA:1;
....................          unsigned int OVRB:1;
....................          unsigned int OVRC:1;
....................          unsigned int OVRD:1;
....................       };
.................... 
....................       struct {
....................          unsigned int CWG2STRA:1;
....................          unsigned int CWG2STRB:1;
....................          unsigned int CWG2STRC:1;
....................          unsigned int CWG2STRD:1;
....................          unsigned int CWG2OVRA:1;
....................          unsigned int CWG2OVRB:1;
....................          unsigned int CWG2OVRC:1;
....................          unsigned int CWG2OVRD:1;
....................       };
....................    };
.................... } CWG2STR;
.................... #byte CWG2STR = 0x61E
.................... 
.................... struct  {
....................    unsigned int INTF:1;
....................    unsigned int :3;
....................    unsigned int IOCIF:1;
....................    unsigned int TMR0IF:1;
.................... } PIR0;
.................... #byte PIR0 = 0x70C
.................... 
.................... struct  {
....................    unsigned int ADIF:1;
....................    unsigned int ADTIF:1;
....................    unsigned int :4;
....................    unsigned int CSWIF:1;
....................    unsigned int OSFIF:1;
.................... } PIR1;
.................... #byte PIR1 = 0x70D
.................... 
.................... struct  {
....................    unsigned int C1IF:1;
....................    unsigned int C2IF:1;
....................    unsigned int :4;
....................    unsigned int ZCDIF:1;
.................... } PIR2;
.................... #byte PIR2 = 0x70E
.................... 
.................... struct  {
....................    unsigned int SSP1IF:1;
....................    unsigned int BCL1IF:1;
....................    unsigned int SSP2IF:1;
....................    unsigned int BCL2IF:1;
....................    unsigned int TXIF:1;
....................    unsigned int RCIF:1;
.................... } PIR3;
.................... #byte PIR3 = 0x70F
.................... 
.................... struct  {
....................    unsigned int TMR1IF:1;
....................    unsigned int TMR2IF:1;
....................    unsigned int TMR3IF:1;
....................    unsigned int TMR4IF:1;
....................    unsigned int TMR5IF:1;
....................    unsigned int TMR6IF:1;
.................... } PIR4;
.................... #byte PIR4 = 0x710
.................... 
.................... struct  {
....................    unsigned int TMR1GIF:1;
....................    unsigned int TMR3GIF:1;
....................    unsigned int TMR5GIF:1;
....................    unsigned int :1;
....................    unsigned int CLC1IF:1;
....................    unsigned int CLC2IF:1;
....................    unsigned int CLC3IF:1;
....................    unsigned int CLC4IF:1;
.................... } PIR5;
.................... #byte PIR5 = 0x711
.................... 
.................... struct  {
....................    unsigned int CCP1IF:1;
....................    unsigned int CCP2IF:1;
....................    unsigned int CCP3IF:1;
....................    unsigned int CCP4IF:1;
....................    unsigned int CCP5IF:1;
.................... } PIR6;
.................... #byte PIR6 = 0x712
.................... 
.................... struct  {
....................    unsigned int INTE:1;
....................    unsigned int :3;
....................    unsigned int IOCIE:1;
....................    unsigned int TMR0IE:1;
.................... } PIE0;
.................... #byte PIE0 = 0x716
.................... 
.................... struct  {
....................    unsigned int ADIE:1;
....................    unsigned int ADTIE:1;
....................    unsigned int :4;
....................    unsigned int CSWIE:1;
....................    unsigned int OSFIE:1;
.................... } PIE1;
.................... #byte PIE1 = 0x717
.................... 
.................... struct  {
....................    unsigned int C1IE:1;
....................    unsigned int C2IE:1;
....................    unsigned int :4;
....................    unsigned int ZCDIE:1;
.................... } PIE2;
.................... #byte PIE2 = 0x718
.................... 
.................... struct  {
....................    unsigned int SSP1IE:1;
....................    unsigned int BCL1IE:1;
....................    unsigned int SSP2IE:1;
....................    unsigned int BCL2IE:1;
....................    unsigned int TXIE:1;
....................    unsigned int RCIE:1;
.................... } PIE3;
.................... #byte PIE3 = 0x719
.................... 
.................... struct  {
....................    unsigned int TMR1IE:1;
....................    unsigned int TMR2IE:1;
....................    unsigned int TMR3IE:1;
....................    unsigned int TMR4IE:1;
....................    unsigned int TMR5IE:1;
....................    unsigned int TMR6IE:1;
.................... } PIE4;
.................... #byte PIE4 = 0x71A
.................... 
.................... struct  {
....................    unsigned int TMR1GIE:1;
....................    unsigned int TMR3GIE:1;
....................    unsigned int TMR5GIE:1;
....................    unsigned int :1;
....................    unsigned int CLC1IE:1;
....................    unsigned int CLC2IE:1;
....................    unsigned int CLC3IE:1;
....................    unsigned int CLC4IE:1;
.................... } PIE5;
.................... #byte PIE5 = 0x71B
.................... 
.................... struct  {
....................    unsigned int CCP1IE:1;
....................    unsigned int CCP2IE:1;
....................    unsigned int CCP3IE:1;
....................    unsigned int CCP4IE:1;
....................    unsigned int CCP5IE:1;
.................... } PIE6;
.................... #byte PIE6 = 0x71C
.................... 
.................... struct  {
....................    unsigned int IOCMD:1;
....................    unsigned int CLKRMD:1;
....................    unsigned int NVMMD:1;
....................    unsigned int SCANMD:1;
....................    unsigned int CRCMD:1;
....................    unsigned int :1;
....................    unsigned int FVRMD:1;
....................    unsigned int SYSCMD:1;
.................... } PMD0;
.................... #byte PMD0 = 0x796
.................... 
.................... struct  {
....................    union {
....................       struct {
....................          unsigned int TMR0MD:1;
....................          unsigned int TMR1MD:1;
....................          unsigned int TMR2MD:1;
....................          unsigned int TMR3MD:1;
....................          unsigned int TMR4MD:1;
....................          unsigned int TMR5MD:1;
....................          unsigned int TMR6MD:1;
....................          unsigned int NCOMD:1;
....................       };
.................... 
....................       struct {
....................          unsigned int :7;
....................          unsigned int NCO1MD:1;
....................       };
....................    };
.................... } PMD1;
.................... #byte PMD1 = 0x797
.................... 
.................... struct  {
....................    unsigned int ZCDMD:1;
....................    unsigned int CMP1MD:1;
....................    unsigned int CMP2MD:1;
....................    unsigned int :2;
....................    unsigned int ADCMD:1;
....................    unsigned int DACMD:1;
.................... } PMD2;
.................... #byte PMD2 = 0x798
.................... 
.................... struct  {
....................    unsigned int CCP1MD:1;
....................    unsigned int CCP2MD:1;
....................    unsigned int CCP3MD:1;
....................    unsigned int CCP4MD:1;
....................    unsigned int CCP5MD:1;
....................    unsigned int PWM6MD:1;
....................    unsigned int PWM7MD:1;
.................... } PMD3;
.................... #byte PMD3 = 0x799
.................... 
.................... struct  {
....................    unsigned int CWG1MD:1;
....................    unsigned int CWG2MD:1;
....................    unsigned int CWG3MD:1;
....................    unsigned int :1;
....................    unsigned int MSSP1MD:1;
....................    unsigned int MSSP2MD:1;
....................    unsigned int UART1MD:1;
.................... } PMD4;
.................... #byte PMD4 = 0x79A
.................... 
.................... struct  {
....................    unsigned int DSMMD:1;
....................    unsigned int CLC1MD:1;
....................    unsigned int CLC2MD:1;
....................    unsigned int CLC3MD:1;
....................    unsigned int CLC4MD:1;
....................    unsigned int :1;
....................    unsigned int SMT1MD:1;
....................    unsigned int SMT2MD:1;
.................... } PMD5;
.................... #byte PMD5 = 0x79B
.................... 
.................... struct  {
....................    union {
....................       struct {
....................          unsigned int SEN:1;
....................          unsigned int WDTPS:5;
....................       };
.................... 
....................    union {
....................       struct {
....................          unsigned int SWDTEN:1;
....................       };
....................    };
.................... 
....................       struct {
....................          unsigned int WDTSEN:1;
....................       };
....................    };
.................... } WDTCON0;
.................... #byte WDTCON0 = 0x80C
.................... 
.................... struct  {
....................    union {
....................       struct {
....................          unsigned int WINDOW:3;
....................          unsigned int :1;
....................          unsigned int WDTCS:3;
....................       };
.................... 
....................       struct {
....................          unsigned int WDTWINDOW:3;
....................       };
....................    };
.................... } WDTCON1;
.................... #byte WDTCON1 = 0x80D
.................... 
.................... struct  {
....................    union {
....................       struct {
....................          unsigned int PSCNT:8;
....................       };
.................... 
....................       struct {
....................          unsigned int WDTPSCNT:8;
....................       };
....................    };
.................... } WDTPS;
.................... #byte WDTPS = 0x80E
.................... 
.................... struct  {
....................    union {
....................       struct {
....................          unsigned int PSCNT8:2;
....................          unsigned int PSCNT1:6;
....................       };
.................... 
....................       struct {
....................          unsigned int WDTPSCNT8:2;
....................          unsigned int WDTPSCNT1:6;
....................       };
....................    };
.................... } WDTPSH;
.................... #byte WDTPSH = 0x80F
.................... 
.................... struct  {
....................    union {
....................       struct {
....................          unsigned int PSCNT16:2;
....................          unsigned int STATE:1;
....................          unsigned int WDTTMR:5;
....................       };
.................... 
....................       struct {
....................          unsigned int WDTPSCNT16:2;
....................          unsigned int WDTSTATE:1;
....................       };
....................    };
.................... } WDTTMR;
.................... #byte WDTTMR = 0x810
.................... 
.................... struct  {
....................    unsigned int BORRDY:1;
....................    unsigned int :6;
....................    unsigned int SBOREN:1;
.................... } BORCON;
.................... #byte BORCON = 0x811
.................... 
.................... struct  {
....................    unsigned int :1;
....................    unsigned int VREGPM:1;
.................... } VREGCON;
.................... #byte VREGCON = 0x812
.................... 
.................... struct  {
....................    unsigned int BOR:1;
....................    unsigned int POR:1;
....................    unsigned int RI:1;
....................    unsigned int RMCLR:1;
....................    unsigned int RWDT:1;
....................    unsigned int WDTWV:1;
....................    unsigned int STKUNF:1;
....................    unsigned int STKOVF:1;
.................... } PCON0;
.................... #byte PCON0 = 0x813
.................... 
.................... struct  {
....................    unsigned int CCDS:2;
....................    unsigned int :5;
....................    unsigned int CCDEN:1;
.................... } CCDCON;
.................... #byte CCDCON = 0x814
.................... 
.................... struct  {
....................    unsigned int NVMADR:8;
.................... } NVMADR;
.................... #byte NVMADR = 0x81A
.................... 
.................... struct  {
....................    unsigned int NVMADR8:2;
....................    unsigned int NVMADR1:5;
.................... } NVMADRH;
.................... #byte NVMADRH = 0x81B
.................... 
.................... struct  {
....................    unsigned int NVMDAT:8;
.................... } NVMDAT;
.................... #byte NVMDAT = 0x81C
.................... 
.................... struct  {
....................    unsigned int NVMDAT8:2;
....................    unsigned int NVMDAT1:4;
.................... } NVMDATH;
.................... #byte NVMDATH = 0x81D
.................... 
.................... struct  {
....................    unsigned int RD:1;
....................    unsigned int WR:1;
....................    unsigned int WREN:1;
....................    unsigned int WRERR:1;
....................    unsigned int FREE:1;
....................    unsigned int LWLO:1;
....................    unsigned int NVMREGS:1;
.................... } NVMCON1;
.................... #byte NVMCON1 = 0x81E
.................... 
.................... #byte NVMCON2 = 0x81F
.................... 
.................... struct  {
....................    unsigned int DOZE:3;
....................    unsigned int :1;
....................    unsigned int DOE:1;
....................    unsigned int ROI:1;
....................    unsigned int DOZEN:1;
....................    unsigned int IDLEN:1;
.................... } CPUDOZE;
.................... #byte CPUDOZE = 0x88C
.................... 
.................... struct  {
....................    unsigned int NDIV:4;
....................    unsigned int NOSC:3;
.................... } OSCCON1;
.................... #byte OSCCON1 = 0x88D
.................... 
.................... struct  {
....................    unsigned int CDIV:4;
....................    unsigned int COSC:3;
.................... } OSCCON2;
.................... #byte OSCCON2 = 0x88E
.................... 
.................... struct  {
....................    unsigned int :3;
....................    unsigned int NOSCR:1;
....................    unsigned int ORDY:1;
....................    unsigned int :1;
....................    unsigned int SOSCPWR:1;
....................    unsigned int CSWHOLD:1;
.................... } OSCCON3;
.................... #byte OSCCON3 = 0x88F
.................... 
.................... struct  {
....................    unsigned int PLLR:1;
....................    unsigned int :1;
....................    unsigned int ADOR:1;
....................    unsigned int SOR:1;
....................    unsigned int LFOR:1;
....................    unsigned int MFOR:1;
....................    unsigned int HFOR:1;
....................    unsigned int EXTOR:1;
.................... } OSCSTAT;
.................... #byte OSCSTAT = 0x890
.................... 
.................... struct  {
....................    unsigned int :2;
....................    unsigned int ADOEN:1;
....................    unsigned int SOSCEN:1;
....................    unsigned int LFOEN:1;
....................    unsigned int MFOEN:1;
....................    unsigned int HFOEN:1;
....................    unsigned int EXTOEN:1;
.................... } OSCEN;
.................... #byte OSCEN = 0x891
.................... 
.................... #byte OSCTUNE = 0x892
.................... 
.................... #byte OSCFRQ = 0x893
.................... 
.................... struct  {
....................    unsigned int CLKRDIV:3;
....................    unsigned int CLKRDC:2;
....................    unsigned int :2;
....................    unsigned int CLKREN:1;
.................... } CLKRCON;
.................... #byte CLKRCON = 0x895
.................... 
.................... #byte MDSRC = 0x899
.................... 
.................... #word MDCAR = 0x89A
.................... 
.................... struct  {
....................    unsigned int ADFVR:2;
....................    unsigned int CDAFVR:2;
....................    unsigned int TSRNG:1;
....................    unsigned int TSEN:1;
....................    unsigned int FVRRDY:1;
....................    unsigned int FVREN:1;
.................... } FVRCON;
.................... #byte FVRCON = 0x90C
.................... 
.................... struct  {
....................    union {
....................       struct {
....................          unsigned int NSS:1;
....................          unsigned int :1;
....................          unsigned int PSS:2;
....................          unsigned int OE2:1;
....................          unsigned int OE1:1;
....................          unsigned int :1;
....................          unsigned int EN:1;
....................       };
.................... 
....................       struct {
....................          unsigned int DAC1NSS:1;
....................          unsigned int :1;
....................          unsigned int DAC1PSS:2;
....................          unsigned int DAC1OE2:1;
....................          unsigned int DAC1OE1:1;
....................          unsigned int :1;
....................          unsigned int DAC1EN:1;
....................       };
....................    };
.................... } DAC1CON0;
.................... #byte DAC1CON0 = 0x90E
.................... 
.................... #byte DAC1CON1 = 0x90F
.................... 
.................... struct  {
....................    union {
....................       struct {
....................          unsigned int MC1OUT:1;
....................          unsigned int MC2OUT:1;
....................       };
.................... 
....................       struct {
....................          unsigned int C1OUT:1;
....................          unsigned int C2OUT:1;
....................       };
....................    };
.................... } CMOUT;
.................... #byte CMOUT = 0x98F
.................... 
.................... struct  {
....................    union {
....................       struct {
....................          unsigned int SYNC:1;
....................          unsigned int HYS:1;
....................          unsigned int Reserved:1;
....................          unsigned int ZLF:1;
....................          unsigned int POL:1;
....................          unsigned int OE:1;
....................          unsigned int OUT:1;
....................          unsigned int ON:1;
....................       };
.................... 
....................       struct {
....................          unsigned int C1SYNC:1;
....................          unsigned int C1HYS:1;
....................          unsigned int C1SP:1;
....................          unsigned int C1ZLF:1;
....................          unsigned int C1POL:1;
....................          unsigned int C1OE:1;
....................          unsigned int C1OUT:1;
....................          unsigned int C1ON:1;
....................       };
....................    };
.................... } CM1CON0;
.................... #byte CM1CON0 = 0x990
.................... 
.................... struct  {
....................    union {
....................       struct {
....................          unsigned int INTN:1;
....................          unsigned int INTP:1;
....................       };
.................... 
....................       struct {
....................          unsigned int C1INTN:1;
....................          unsigned int C1INTP:1;
....................       };
....................    };
.................... } CM1CON1;
.................... #byte CM1CON1 = 0x991
.................... 
.................... #byte CM1NSEL = 0x992
.................... 
.................... #byte CM1PSEL = 0x993
.................... 
.................... struct  {
....................    union {
....................       struct {
....................          unsigned int SYNC:1;
....................          unsigned int HYS:1;
....................          unsigned int Reserved:1;
....................          unsigned int ZLF:1;
....................          unsigned int POL:1;
....................          unsigned int OE:1;
....................          unsigned int OUT:1;
....................          unsigned int ON:1;
....................       };
.................... 
....................       struct {
....................          unsigned int C2SYNC:1;
....................          unsigned int C2HYS:1;
....................          unsigned int C2SP:1;
....................          unsigned int C2ZLF:1;
....................          unsigned int C2POL:1;
....................          unsigned int C2OE:1;
....................          unsigned int C2OUT:1;
....................          unsigned int C2ON:1;
....................       };
....................    };
.................... } CM2CON0;
.................... #byte CM2CON0 = 0x994
.................... 
.................... struct  {
....................    union {
....................       struct {
....................          unsigned int INTN:1;
....................          unsigned int INTP:1;
....................       };
.................... 
....................       struct {
....................          unsigned int C2INTN:1;
....................          unsigned int C2INTP:1;
....................       };
....................    };
.................... } CM2CON1;
.................... #byte CM2CON1 = 0x995
.................... 
.................... #byte CM2NSEL = 0x996
.................... 
.................... #byte CM2PSEL = 0x997
.................... 
.................... struct  {
....................    unsigned int MLC1OUT:1;
....................    unsigned int MLC2OUT:1;
....................    unsigned int MLC3OUT:1;
....................    unsigned int MLC4OUT:1;
.................... } CLCDATA;
.................... #byte CLCDATA = 0x1E0F
.................... 
.................... struct  {
....................    union {
....................       struct {
....................          unsigned int LC1MODE:3;
....................          unsigned int LC1INTN:1;
....................          unsigned int LC1INTP:1;
....................          unsigned int LC1OUT:1;
....................          unsigned int LC1OE:1;
....................          unsigned int LC1EN:1;
....................       };
.................... 
....................       struct {
....................          unsigned int MODE:3;
....................          unsigned int INTN:1;
....................          unsigned int INTP:1;
....................          unsigned int OUT:1;
....................          unsigned int OE:1;
....................          unsigned int EN:1;
....................       };
....................    };
.................... } CLC1CON;
.................... #byte CLC1CON = 0x1E10
.................... 
.................... struct  {
....................    union {
....................       struct {
....................          unsigned int LC1G1POL:1;
....................          unsigned int LC1G2POL:1;
....................          unsigned int LC1G3POL:1;
....................          unsigned int LC1G4POL:1;
....................          unsigned int :3;
....................          unsigned int LC1POL:1;
....................       };
.................... 
....................       struct {
....................          unsigned int G1POL:1;
....................          unsigned int G2POL:1;
....................          unsigned int G3POL:1;
....................          unsigned int G4POL:1;
....................          unsigned int :3;
....................          unsigned int POL:1;
....................       };
....................    };
.................... } CLC1POL;
.................... #byte CLC1POL = 0x1E11
.................... 
.................... struct  {
....................    union {
....................       struct {
....................          unsigned int LC1D1S:8;
....................       };
.................... 
....................       struct {
....................          unsigned int D1S:8;
....................       };
....................    };
.................... } CLC1SEL0;
.................... #byte CLC1SEL0 = 0x1E12
.................... 
.................... struct  {
....................    union {
....................       struct {
....................          unsigned int LC1D2S:8;
....................       };
.................... 
....................       struct {
....................          unsigned int D2S:8;
....................       };
....................    };
.................... } CLC1SEL1;
.................... #byte CLC1SEL1 = 0x1E13
.................... 
.................... struct  {
....................    union {
....................       struct {
....................          unsigned int LC1D3S:8;
....................       };
.................... 
....................       struct {
....................          unsigned int D3S:8;
....................       };
....................    };
.................... } CLC1SEL2;
.................... #byte CLC1SEL2 = 0x1E14
.................... 
.................... struct  {
....................    union {
....................       struct {
....................          unsigned int LC1D4S:8;
....................       };
.................... 
....................       struct {
....................          unsigned int D4S:8;
....................       };
....................    };
.................... } CLC1SEL3;
.................... #byte CLC1SEL3 = 0x1E15
.................... 
.................... struct  {
....................    union {
....................       struct {
....................          unsigned int LC1G1D1N:1;
....................          unsigned int LC1G1D1T:1;
....................          unsigned int LC1G1D2N:1;
....................          unsigned int LC1G1D2T:1;
....................          unsigned int LC1G1D3N:1;
....................          unsigned int LC1G1D3T:1;
....................          unsigned int LC1G1D4N:1;
....................          unsigned int LC1G1D4T:1;
....................       };
.................... 
....................       struct {
....................          unsigned int D1N:1;
....................          unsigned int D1T:1;
....................          unsigned int D2N:1;
....................          unsigned int D2T:1;
....................          unsigned int D3N:1;
....................          unsigned int D3T:1;
....................          unsigned int D4N:1;
....................          unsigned int D4T:1;
....................       };
....................    };
.................... } CLC1GLS0;
.................... #byte CLC1GLS0 = 0x1E16
.................... 
.................... struct  {
....................    union {
....................       struct {
....................          unsigned int LC1G2D1N:1;
....................          unsigned int LC1G2D1T:1;
....................          unsigned int LC1G2D2N:1;
....................          unsigned int LC1G2D2T:1;
....................          unsigned int LC1G2D3N:1;
....................          unsigned int LC1G2D3T:1;
....................          unsigned int LC1G2D4N:1;
....................          unsigned int LC1G2D4T:1;
....................       };
.................... 
....................       struct {
....................          unsigned int D1N:1;
....................          unsigned int D1T:1;
....................          unsigned int D2N:1;
....................          unsigned int D2T:1;
....................          unsigned int D3N:1;
....................          unsigned int D3T:1;
....................          unsigned int D4N:1;
....................          unsigned int D4T:1;
....................       };
....................    };
.................... } CLC1GLS1;
.................... #byte CLC1GLS1 = 0x1E17
.................... 
.................... struct  {
....................    union {
....................       struct {
....................          unsigned int LC1G3D1N:1;
....................          unsigned int LC1G3D1T:1;
....................          unsigned int LC1G3D2N:1;
....................          unsigned int LC1G3D2T:1;
....................          unsigned int LC1G3D3N:1;
....................          unsigned int LC1G3D3T:1;
....................          unsigned int LC1G3D4N:1;
....................          unsigned int LC1G3D4T:1;
....................       };
.................... 
....................       struct {
....................          unsigned int D1N:1;
....................          unsigned int D1T:1;
....................          unsigned int D2N:1;
....................          unsigned int D2T:1;
....................          unsigned int D3N:1;
....................          unsigned int D3T:1;
....................          unsigned int D4N:1;
....................          unsigned int D4T:1;
....................       };
....................    };
.................... } CLC1GLS2;
.................... #byte CLC1GLS2 = 0x1E18
.................... 
.................... struct  {
....................    union {
....................       struct {
....................          unsigned int LC1G4D1N:1;
....................          unsigned int LC1G4D1T:1;
....................          unsigned int LC1G4D2N:1;
....................          unsigned int LC1G4D2T:1;
....................          unsigned int LC1G4D3N:1;
....................          unsigned int LC1G4D3T:1;
....................          unsigned int LC1G4D4N:1;
....................          unsigned int LC1G4D4T:1;
....................       };
.................... 
....................       struct {
....................          unsigned int G4D1N:1;
....................          unsigned int G4D1T:1;
....................          unsigned int G4D2N:1;
....................          unsigned int G4D2T:1;
....................          unsigned int G4D3N:1;
....................          unsigned int G4D3T:1;
....................          unsigned int G4D4N:1;
....................          unsigned int G4D4T:1;
....................       };
....................    };
.................... } CLC1GLS3;
.................... #byte CLC1GLS3 = 0x1E19
.................... 
.................... struct  {
....................    union {
....................       struct {
....................          unsigned int LC2MODE:3;
....................          unsigned int LC2INTN:1;
....................          unsigned int LC2INTP:1;
....................          unsigned int LC2OUT:1;
....................          unsigned int LC2OE:1;
....................          unsigned int LC2EN:1;
....................       };
.................... 
....................       struct {
....................          unsigned int MODE:3;
....................          unsigned int INTN:1;
....................          unsigned int INTP:1;
....................          unsigned int OUT:1;
....................          unsigned int OE:1;
....................          unsigned int EN:1;
....................       };
....................    };
.................... } CLC2CON;
.................... #byte CLC2CON = 0x1E1A
.................... 
.................... struct  {
....................    union {
....................       struct {
....................          unsigned int LC2G1POL:1;
....................          unsigned int LC2G2POL:1;
....................          unsigned int LC2G3POL:1;
....................          unsigned int LC2G4POL:1;
....................          unsigned int :3;
....................          unsigned int LC2POL:1;
....................       };
.................... 
....................       struct {
....................          unsigned int G1POL:1;
....................          unsigned int G2POL:1;
....................          unsigned int G3POL:1;
....................          unsigned int G4POL:1;
....................          unsigned int :3;
....................          unsigned int POL:1;
....................       };
....................    };
.................... } CLC2POL;
.................... #byte CLC2POL = 0x1E1B
.................... 
.................... struct  {
....................    union {
....................       struct {
....................          unsigned int LC2D1S:8;
....................       };
.................... 
....................       struct {
....................          unsigned int D1S:8;
....................       };
....................    };
.................... } CLC2SEL0;
.................... #byte CLC2SEL0 = 0x1E1C
.................... 
.................... struct  {
....................    union {
....................       struct {
....................          unsigned int LC2D2S:8;
....................       };
.................... 
....................       struct {
....................          unsigned int D2S:8;
....................       };
....................    };
.................... } CLC2SEL1;
.................... #byte CLC2SEL1 = 0x1E1D
.................... 
.................... struct  {
....................    union {
....................       struct {
....................          unsigned int LC2D3S:8;
....................       };
.................... 
....................       struct {
....................          unsigned int D3S:8;
....................       };
....................    };
.................... } CLC2SEL2;
.................... #byte CLC2SEL2 = 0x1E1E
.................... 
.................... struct  {
....................    union {
....................       struct {
....................          unsigned int LC2D4S:8;
....................       };
.................... 
....................       struct {
....................          unsigned int D4S:8;
....................       };
....................    };
.................... } CLC2SEL3;
.................... #byte CLC2SEL3 = 0x1E1F
.................... 
.................... struct  {
....................    union {
....................       struct {
....................          unsigned int LC2G1D1N:1;
....................          unsigned int LC2G1D1T:1;
....................          unsigned int LC2G1D2N:1;
....................          unsigned int LC2G1D2T:1;
....................          unsigned int LC2G1D3N:1;
....................          unsigned int LC2G1D3T:1;
....................          unsigned int LC2G1D4N:1;
....................          unsigned int LC2G1D4T:1;
....................       };
.................... 
....................       struct {
....................          unsigned int D1N:1;
....................          unsigned int D1T:1;
....................          unsigned int D2N:1;
....................          unsigned int D2T:1;
....................          unsigned int D3N:1;
....................          unsigned int D3T:1;
....................          unsigned int D4N:1;
....................          unsigned int D4T:1;
....................       };
....................    };
.................... } CLC2GLS0;
.................... #byte CLC2GLS0 = 0x1E20
.................... 
.................... struct  {
....................    union {
....................       struct {
....................          unsigned int LC2G2D1N:1;
....................          unsigned int LC2G2D1T:1;
....................          unsigned int LC2G2D2N:1;
....................          unsigned int LC2G2D2T:1;
....................          unsigned int LC2G2D3N:1;
....................          unsigned int LC2G2D3T:1;
....................          unsigned int LC2G2D4N:1;
....................          unsigned int LC2G2D4T:1;
....................       };
.................... 
....................       struct {
....................          unsigned int D1N:1;
....................          unsigned int D1T:1;
....................          unsigned int D2N:1;
....................          unsigned int D2T:1;
....................          unsigned int D3N:1;
....................          unsigned int D3T:1;
....................          unsigned int D4N:1;
....................          unsigned int D4T:1;
....................       };
....................    };
.................... } CLC2GLS1;
.................... #byte CLC2GLS1 = 0x1E21
.................... 
.................... struct  {
....................    union {
....................       struct {
....................          unsigned int LC2G3D1N:1;
....................          unsigned int LC2G3D1T:1;
....................          unsigned int LC2G3D2N:1;
....................          unsigned int LC2G3D2T:1;
....................          unsigned int LC2G3D3N:1;
....................          unsigned int LC2G3D3T:1;
....................          unsigned int LC2G3D4N:1;
....................          unsigned int LC2G3D4T:1;
....................       };
.................... 
....................       struct {
....................          unsigned int D1N:1;
....................          unsigned int D1T:1;
....................          unsigned int D2N:1;
....................          unsigned int D2T:1;
....................          unsigned int D3N:1;
....................          unsigned int D3T:1;
....................          unsigned int D4N:1;
....................          unsigned int D4T:1;
....................       };
....................    };
.................... } CLC2GLS2;
.................... #byte CLC2GLS2 = 0x1E22
.................... 
.................... struct  {
....................    union {
....................       struct {
....................          unsigned int LC2G4D1N:1;
....................          unsigned int LC2G4D1T:1;
....................          unsigned int LC2G4D2N:1;
....................          unsigned int LC2G4D2T:1;
....................          unsigned int LC2G4D3N:1;
....................          unsigned int LC2G4D3T:1;
....................          unsigned int LC2G4D4N:1;
....................          unsigned int LC2G4D4T:1;
....................       };
.................... 
....................       struct {
....................          unsigned int G4D1N:1;
....................          unsigned int G4D1T:1;
....................          unsigned int G4D2N:1;
....................          unsigned int G4D2T:1;
....................          unsigned int G4D3N:1;
....................          unsigned int G4D3T:1;
....................          unsigned int G4D4N:1;
....................          unsigned int G4D4T:1;
....................       };
....................    };
.................... } CLC2GLS3;
.................... #byte CLC2GLS3 = 0x1E23
.................... 
.................... struct  {
....................    union {
....................       struct {
....................          unsigned int LC3MODE:3;
....................          unsigned int LC3INTN:1;
....................          unsigned int LC3INTP:1;
....................          unsigned int LC3OUT:1;
....................          unsigned int LC3OE:1;
....................          unsigned int LC3EN:1;
....................       };
.................... 
....................       struct {
....................          unsigned int MODE:3;
....................          unsigned int INTN:1;
....................          unsigned int INTP:1;
....................          unsigned int OUT:1;
....................          unsigned int OE:1;
....................          unsigned int EN:1;
....................       };
....................    };
.................... } CLC3CON;
.................... #byte CLC3CON = 0x1E24
.................... 
.................... struct  {
....................    union {
....................       struct {
....................          unsigned int LC3G1POL:1;
....................          unsigned int LC3G2POL:1;
....................          unsigned int LC3G3POL:1;
....................          unsigned int LC3G4POL:1;
....................          unsigned int :3;
....................          unsigned int LC3POL:1;
....................       };
.................... 
....................       struct {
....................          unsigned int G1POL:1;
....................          unsigned int G2POL:1;
....................          unsigned int G3POL:1;
....................          unsigned int G4POL:1;
....................          unsigned int :3;
....................          unsigned int POL:1;
....................       };
....................    };
.................... } CLC3POL;
.................... #byte CLC3POL = 0x1E25
.................... 
.................... struct  {
....................    union {
....................       struct {
....................          unsigned int LC3D1S:8;
....................       };
.................... 
....................       struct {
....................          unsigned int D1S:8;
....................       };
....................    };
.................... } CLC3SEL0;
.................... #byte CLC3SEL0 = 0x1E26
.................... 
.................... struct  {
....................    union {
....................       struct {
....................          unsigned int LC3D2S:8;
....................       };
.................... 
....................       struct {
....................          unsigned int D2S:8;
....................       };
....................    };
.................... } CLC3SEL1;
.................... #byte CLC3SEL1 = 0x1E27
.................... 
.................... struct  {
....................    union {
....................       struct {
....................          unsigned int LC3D3S:8;
....................       };
.................... 
....................       struct {
....................          unsigned int D3S:8;
....................       };
....................    };
.................... } CLC3SEL2;
.................... #byte CLC3SEL2 = 0x1E28
.................... 
.................... struct  {
....................    union {
....................       struct {
....................          unsigned int LC3D4S:8;
....................       };
.................... 
....................       struct {
....................          unsigned int D4S:8;
....................       };
....................    };
.................... } CLC3SEL3;
.................... #byte CLC3SEL3 = 0x1E29
.................... 
.................... struct  {
....................    union {
....................       struct {
....................          unsigned int LC3G1D1N:1;
....................          unsigned int LC3G1D1T:1;
....................          unsigned int LC3G1D2N:1;
....................          unsigned int LC3G1D2T:1;
....................          unsigned int LC3G1D3N:1;
....................          unsigned int LC3G1D3T:1;
....................          unsigned int LC3G1D4N:1;
....................          unsigned int LC3G1D4T:1;
....................       };
.................... 
....................       struct {
....................          unsigned int D1N:1;
....................          unsigned int D1T:1;
....................          unsigned int D2N:1;
....................          unsigned int D2T:1;
....................          unsigned int D3N:1;
....................          unsigned int D3T:1;
....................          unsigned int D4N:1;
....................          unsigned int D4T:1;
....................       };
....................    };
.................... } CLC3GLS0;
.................... #byte CLC3GLS0 = 0x1E2A
.................... 
.................... struct  {
....................    union {
....................       struct {
....................          unsigned int LC3G2D1N:1;
....................          unsigned int LC3G2D1T:1;
....................          unsigned int LC3G2D2N:1;
....................          unsigned int LC3G2D2T:1;
....................          unsigned int LC3G2D3N:1;
....................          unsigned int LC3G2D3T:1;
....................          unsigned int LC3G2D4N:1;
....................          unsigned int LC3G2D4T:1;
....................       };
.................... 
....................       struct {
....................          unsigned int D1N:1;
....................          unsigned int D1T:1;
....................          unsigned int D2N:1;
....................          unsigned int D2T:1;
....................          unsigned int D3N:1;
....................          unsigned int D3T:1;
....................          unsigned int D4N:1;
....................          unsigned int D4T:1;
....................       };
....................    };
.................... } CLC3GLS1;
.................... #byte CLC3GLS1 = 0x1E2B
.................... 
.................... struct  {
....................    union {
....................       struct {
....................          unsigned int LC3G3D1N:1;
....................          unsigned int LC3G3D1T:1;
....................          unsigned int LC3G3D2N:1;
....................          unsigned int LC3G3D2T:1;
....................          unsigned int LC3G3D3N:1;
....................          unsigned int LC3G3D3T:1;
....................          unsigned int LC3G3D4N:1;
....................          unsigned int LC3G3D4T:1;
....................       };
.................... 
....................       struct {
....................          unsigned int D1N:1;
....................          unsigned int D1T:1;
....................          unsigned int D2N:1;
....................          unsigned int D2T:1;
....................          unsigned int D3N:1;
....................          unsigned int D3T:1;
....................          unsigned int D4N:1;
....................          unsigned int D4T:1;
....................       };
....................    };
.................... } CLC3GLS2;
.................... #byte CLC3GLS2 = 0x1E2C
.................... 
.................... struct  {
....................    union {
....................       struct {
....................          unsigned int LC3G4D1N:1;
....................          unsigned int LC3G4D1T:1;
....................          unsigned int LC3G4D2N:1;
....................          unsigned int LC3G4D2T:1;
....................          unsigned int LC3G4D3N:1;
....................          unsigned int LC3G4D3T:1;
....................          unsigned int LC3G4D4N:1;
....................          unsigned int LC3G4D4T:1;
....................       };
.................... 
....................       struct {
....................          unsigned int G4D1N:1;
....................          unsigned int G4D1T:1;
....................          unsigned int G4D2N:1;
....................          unsigned int G4D2T:1;
....................          unsigned int G4D3N:1;
....................          unsigned int G4D3T:1;
....................          unsigned int G4D4N:1;
....................          unsigned int G4D4T:1;
....................       };
....................    };
.................... } CLC3GLS3;
.................... #byte CLC3GLS3 = 0x1E2D
.................... 
.................... struct  {
....................    union {
....................       struct {
....................          unsigned int LC4MODE:3;
....................          unsigned int LC4INTN:1;
....................          unsigned int LC4INTP:1;
....................          unsigned int LC4OUT:1;
....................          unsigned int LC4OE:1;
....................          unsigned int LC4EN:1;
....................       };
.................... 
....................       struct {
....................          unsigned int MODE:3;
....................          unsigned int INTN:1;
....................          unsigned int INTP:1;
....................          unsigned int OUT:1;
....................          unsigned int OE:1;
....................          unsigned int EN:1;
....................       };
....................    };
.................... } CLC4CON;
.................... #byte CLC4CON = 0x1E2E
.................... 
.................... struct  {
....................    union {
....................       struct {
....................          unsigned int LC4G1POL:1;
....................          unsigned int LC4G2POL:1;
....................          unsigned int LC4G3POL:1;
....................          unsigned int LC4G4POL:1;
....................          unsigned int :3;
....................          unsigned int LC4POL:1;
....................       };
.................... 
....................       struct {
....................          unsigned int G1POL:1;
....................          unsigned int G2POL:1;
....................          unsigned int G3POL:1;
....................          unsigned int G4POL:1;
....................          unsigned int :3;
....................          unsigned int POL:1;
....................       };
....................    };
.................... } CLC4POL;
.................... #byte CLC4POL = 0x1E2F
.................... 
.................... struct  {
....................    union {
....................       struct {
....................          unsigned int LC4D1S:8;
....................       };
.................... 
....................       struct {
....................          unsigned int D1S:8;
....................       };
....................    };
.................... } CLC4SEL0;
.................... #byte CLC4SEL0 = 0x1E30
.................... 
.................... struct  {
....................    union {
....................       struct {
....................          unsigned int LC4D2S:8;
....................       };
.................... 
....................       struct {
....................          unsigned int D2S:8;
....................       };
....................    };
.................... } CLC4SEL1;
.................... #byte CLC4SEL1 = 0x1E31
.................... 
.................... struct  {
....................    union {
....................       struct {
....................          unsigned int LC4D3S:8;
....................       };
.................... 
....................       struct {
....................          unsigned int D3S:8;
....................       };
....................    };
.................... } CLC4SEL2;
.................... #byte CLC4SEL2 = 0x1E32
.................... 
.................... struct  {
....................    union {
....................       struct {
....................          unsigned int LC4D4S:8;
....................       };
.................... 
....................       struct {
....................          unsigned int D4S:8;
....................       };
....................    };
.................... } CLC4SEL3;
.................... #byte CLC4SEL3 = 0x1E33
.................... 
.................... struct  {
....................    union {
....................       struct {
....................          unsigned int LC4G1D1N:1;
....................          unsigned int LC4G1D1T:1;
....................          unsigned int LC4G1D2N:1;
....................          unsigned int LC4G1D2T:1;
....................          unsigned int LC4G1D3N:1;
....................          unsigned int LC4G1D3T:1;
....................          unsigned int LC4G1D4N:1;
....................          unsigned int LC4G1D4T:1;
....................       };
.................... 
....................       struct {
....................          unsigned int D1N:1;
....................          unsigned int D1T:1;
....................          unsigned int D2N:1;
....................          unsigned int D2T:1;
....................          unsigned int D3N:1;
....................          unsigned int D3T:1;
....................          unsigned int D4N:1;
....................          unsigned int D4T:1;
....................       };
....................    };
.................... } CLC4GLS0;
.................... #byte CLC4GLS0 = 0x1E34
.................... 
.................... struct  {
....................    union {
....................       struct {
....................          unsigned int LC4G2D1N:1;
....................          unsigned int LC4G2D1T:1;
....................          unsigned int LC4G2D2N:1;
....................          unsigned int LC4G2D2T:1;
....................          unsigned int LC4G2D3N:1;
....................          unsigned int LC4G2D3T:1;
....................          unsigned int LC4G2D4N:1;
....................          unsigned int LC4G2D4T:1;
....................       };
.................... 
....................       struct {
....................          unsigned int D1N:1;
....................          unsigned int D1T:1;
....................          unsigned int D2N:1;
....................          unsigned int D2T:1;
....................          unsigned int D3N:1;
....................          unsigned int D3T:1;
....................          unsigned int D4N:1;
....................          unsigned int D4T:1;
....................       };
....................    };
.................... } CLC4GLS1;
.................... #byte CLC4GLS1 = 0x1E35
.................... 
.................... struct  {
....................    union {
....................       struct {
....................          unsigned int LC4G3D1N:1;
....................          unsigned int LC4G3D1T:1;
....................          unsigned int LC4G3D2N:1;
....................          unsigned int LC4G3D2T:1;
....................          unsigned int LC4G3D3N:1;
....................          unsigned int LC4G3D3T:1;
....................          unsigned int LC4G3D4N:1;
....................          unsigned int LC4G3D4T:1;
....................       };
.................... 
....................       struct {
....................          unsigned int D1N:1;
....................          unsigned int D1T:1;
....................          unsigned int D2N:1;
....................          unsigned int D2T:1;
....................          unsigned int D3N:1;
....................          unsigned int D3T:1;
....................          unsigned int D4N:1;
....................          unsigned int D4T:1;
....................       };
....................    };
.................... } CLC4GLS2;
.................... #byte CLC4GLS2 = 0x1E36
.................... 
.................... struct  {
....................    union {
....................       struct {
....................          unsigned int LC4G4D1N:1;
....................          unsigned int LC4G4D1T:1;
....................          unsigned int LC4G4D2N:1;
....................          unsigned int LC4G4D2T:1;
....................          unsigned int LC4G4D3N:1;
....................          unsigned int LC4G4D3T:1;
....................          unsigned int LC4G4D4N:1;
....................          unsigned int LC4G4D4T:1;
....................       };
.................... 
....................       struct {
....................          unsigned int G4D1N:1;
....................          unsigned int G4D1T:1;
....................          unsigned int G4D2N:1;
....................          unsigned int G4D2T:1;
....................          unsigned int G4D3N:1;
....................          unsigned int G4D3T:1;
....................          unsigned int G4D4N:1;
....................          unsigned int G4D4T:1;
....................       };
....................    };
.................... } CLC4GLS3;
.................... #byte CLC4GLS3 = 0x1E37
.................... 
.................... struct  {
....................    unsigned int PPSLOCKED:1;
.................... } PPSLOCK;
.................... #byte PPSLOCK = 0x1E8F
.................... 
.................... #byte INTPPS = 0x1E90
.................... 
.................... #byte T0CKIPPS = 0x1E91
.................... 
.................... #byte T1CKIPPS = 0x1E92
.................... 
.................... #byte T1GPPS = 0x1E93
.................... 
.................... #byte T3CKIPPS = 0x1E94
.................... 
.................... #byte T3GPPS = 0x1E95
.................... 
.................... #byte T5CKIPPS = 0x1E96
.................... 
.................... #byte T5GPPS = 0x1E97
.................... 
.................... #byte CCP1PPS = 0x1EA1
.................... 
.................... #byte CCP2PPS = 0x1EA2
.................... 
.................... #byte CCP3PPS = 0x1EA3
.................... 
.................... #byte CCP4PPS = 0x1EA4
.................... 
.................... #byte SMT1WINPPS = 0x1EA9
.................... 
.................... #byte SMT1SIGPPS = 0x1EAA
.................... 
.................... #byte SMT2WINPPS = 0x1EAB
.................... 
.................... #byte SMT2SIGPPS = 0x1EAC
.................... 
.................... #byte CWG1PPS = 0x1EB1
.................... 
.................... #byte CWG2PPS = 0x1EB2
.................... 
.................... #byte CLCIN0PPS = 0x1EBB
.................... 
.................... #byte CLCIN1PPS = 0x1EBC
.................... 
.................... #byte CLCIN2PPS = 0x1EBD
.................... 
.................... #byte CLCIN3PPS = 0x1EBE
.................... 
.................... #byte ADCACTPPS = 0x1EC3
.................... 
.................... #byte SSP1CLKPPS = 0x1EC5
.................... 
.................... #byte SSP1DATPPS = 0x1EC6
.................... 
.................... #byte SSP1SSPPS = 0x1EC7
.................... 
.................... #byte SSP2CLKPPS = 0x1EC8
.................... 
.................... #byte SSP2DATPPS = 0x1EC9
.................... 
.................... #byte SSP2SSPPS = 0x1ECA
.................... 
.................... #byte RXPPS = 0x1ECB
.................... 
.................... #byte TXPPS = 0x1ECC
.................... 
.................... #byte RA0PPS = 0x1F10
.................... 
.................... #byte RA1PPS = 0x1F11
.................... 
.................... #byte RA2PPS = 0x1F12
.................... 
.................... #byte RA3PPS = 0x1F13
.................... 
.................... #byte RA4PPS = 0x1F14
.................... 
.................... #byte RA5PPS = 0x1F15
.................... 
.................... #byte RA6PPS = 0x1F16
.................... 
.................... #byte RA7PPS = 0x1F17
.................... 
.................... #byte RB0PPS = 0x1F18
.................... 
.................... #byte RB1PPS = 0x1F19
.................... 
.................... #byte RB2PPS = 0x1F1A
.................... 
.................... #byte RB3PPS = 0x1F1B
.................... 
.................... #byte RB4PPS = 0x1F1C
.................... 
.................... #byte RB5PPS = 0x1F1D
.................... 
.................... #byte RB6PPS = 0x1F1E
.................... 
.................... #byte RB7PPS = 0x1F1F
.................... 
.................... #byte RC0PPS = 0x1F20
.................... 
.................... #byte RC2PPS = 0x1F22
.................... 
.................... #byte RC3PPS = 0x1F23
.................... 
.................... #byte RC4PPS = 0x1F24
.................... 
.................... #byte RC5PPS = 0x1F25
.................... 
.................... #byte RC6PPS = 0x1F26
.................... 
.................... #byte RC7PPS = 0x1F27
.................... 
.................... struct  {
....................    unsigned int ANSA:8;
.................... } ANSELA;
.................... #byte ANSELA = 0x1F38
.................... 
.................... struct  {
....................    unsigned int WPUA:8;
.................... } WPUA;
.................... #byte WPUA = 0x1F39
.................... 
.................... struct  {
....................    unsigned int ODCA:8;
.................... } ODCONA;
.................... #byte ODCONA = 0x1F3A
.................... 
.................... struct  {
....................    unsigned int SLRA:8;
.................... } SLRCONA;
.................... #byte SLRCONA = 0x1F3B
.................... 
.................... struct  {
....................    unsigned int INLVLA:8;
.................... } INLVLA;
.................... #byte INLVLA = 0x1F3C
.................... 
.................... struct  {
....................    unsigned int IOCAP:8;
.................... } IOCAP;
.................... #byte IOCAP = 0x1F3D
.................... 
.................... struct  {
....................    unsigned int IOCAN:8;
.................... } IOCAN;
.................... #byte IOCAN = 0x1F3E
.................... 
.................... struct  {
....................    unsigned int IOCAF:8;
.................... } IOCAF;
.................... #byte IOCAF = 0x1F3F
.................... 
.................... struct  {
....................    unsigned int CCDNA:8;
.................... } CCDNA;
.................... #byte CCDNA = 0x1F40
.................... 
.................... struct  {
....................    unsigned int CCDPA:8;
.................... } CCDPA;
.................... #byte CCDPA = 0x1F41
.................... 
.................... struct  {
....................    unsigned int ANSB:8;
.................... } ANSELB;
.................... #byte ANSELB = 0x1F43
.................... 
.................... struct  {
....................    unsigned int WPUB:8;
.................... } WPUB;
.................... #byte WPUB = 0x1F44
.................... 
.................... struct  {
....................    unsigned int ODCB:8;
.................... } ODCONB;
.................... #byte ODCONB = 0x1F45
.................... 
.................... struct  {
....................    unsigned int SLRB:8;
.................... } SLRCONB;
.................... #byte SLRCONB = 0x1F46
.................... 
.................... struct  {
....................    unsigned int INLVLB:8;
.................... } INLVLB;
.................... #byte INLVLB = 0x1F47
.................... 
.................... struct  {
....................    unsigned int IOCBP:8;
.................... } IOCBP;
.................... #byte IOCBP = 0x1F48
.................... 
.................... struct  {
....................    unsigned int IOCBN:8;
.................... } IOCBN;
.................... #byte IOCBN = 0x1F49
.................... 
.................... struct  {
....................    unsigned int IOCBF:8;
.................... } IOCBF;
.................... #byte IOCBF = 0x1F4A
.................... 
.................... struct  {
....................    unsigned int CCDNB:8;
.................... } CCDNB;
.................... #byte CCDNB = 0x1F4B
.................... 
.................... struct  {
....................    unsigned int CCDPB:8;
.................... } CCDPB;
.................... #byte CCDPB = 0x1F4C
.................... 
.................... struct  {
....................    unsigned int ANSC:8;
.................... } ANSELC;
.................... #byte ANSELC = 0x1F4E
.................... 
.................... struct  {
....................    unsigned int WPUC:8;
.................... } WPUC;
.................... #byte WPUC = 0x1F4F
.................... 
.................... struct  {
....................    unsigned int ODCC:8;
.................... } ODCONC;
.................... #byte ODCONC = 0x1F50
.................... 
.................... struct  {
....................    unsigned int SLRC:8;
.................... } SLRCONC;
.................... #byte SLRCONC = 0x1F51
.................... 
.................... struct  {
....................    unsigned int INLVLC:8;
.................... } INLVLC;
.................... #byte INLVLC = 0x1F52
.................... 
.................... struct  {
....................    unsigned int IOCCP:8;
.................... } IOCCP;
.................... #byte IOCCP = 0x1F53
.................... 
.................... struct  {
....................    unsigned int IOCCN:8;
.................... } IOCCN;
.................... #byte IOCCN = 0x1F54
.................... 
.................... struct  {
....................    unsigned int IOCCF:8;
.................... } IOCCF;
.................... #byte IOCCF = 0x1F55
.................... 
.................... struct  {
....................    unsigned int CCDNC:8;
.................... } CCDNC;
.................... #byte CCDNC = 0x1F56
.................... 
.................... struct  {
....................    unsigned int CCDPC:8;
.................... } CCDPC;
.................... #byte CCDPC = 0x1F57
.................... 
.................... #byte WPUE = 0x1F65
.................... 
.................... #byte INLVLE = 0x1F68
.................... 
.................... struct  {
....................    unsigned int :3;
....................    unsigned int IOCEP3:1;
.................... } IOCEP;
.................... #byte IOCEP = 0x1F69
.................... 
.................... struct  {
....................    unsigned int :3;
....................    unsigned int IOCEN3:1;
.................... } IOCEN;
.................... #byte IOCEN = 0x1F6A
.................... 
.................... struct  {
....................    unsigned int :3;
....................    unsigned int IOCEF3:1;
.................... } IOCEF;
.................... #byte IOCEF = 0x1F6B
.................... 
.................... struct  {
....................    unsigned int C_SHAD:1;
....................    unsigned int DC_SHAD:1;
....................    unsigned int Z_SHAD:1;
.................... } STATUS_SHAD;
.................... #byte STATUS_SHAD = 0x1FE4
.................... 
.................... #byte WREG_SHAD = 0x1FE5
.................... 
.................... #byte BSR_SHAD = 0x1FE6
.................... 
.................... #byte PCLATH_SHAD = 0x1FE7
.................... 
.................... #byte FSR0L_SHAD = 0x1FE8
.................... 
.................... #byte FSR0H_SHAD = 0x1FE9
.................... 
.................... #byte FSR1L_SHAD = 0x1FEA
.................... 
.................... #byte FSR1H_SHAD = 0x1FEB
.................... 
.................... #byte STKPTR = 0x1FED
.................... 
.................... #word TOS = 0x1FEE
.................... 
.................... 
.................... #device ADC=10
.................... 
.................... #fuses RSTOSC_HFINTRC_32MHZ
.................... //#fuses RSTOSC_HFINTRC
.................... //#fuses RSTOSC_HFINTRC_1MHZ
.................... #fuses NOEXTOSC,NOCLKOUT,NOCKS,NOFCMEN
.................... #fuses MCLR,PUT,NOLPBOR,NOBROWNOUT,BORV24,NOPPS1WAY,NOSTVREN,NODEBUG
.................... #fuses WDTSW,NOWDT,WDTWIN_100%,WDTCLK_LFINTRC
.................... #fuses NOWRT,NOSCANE,NOLVP, NOPROTECT,NOCPD
.................... #fuses ZCDDIS
.................... //#fuses NOZCDDIS
.................... #use delay(clock=32M)
*
009D:  MOVLW  20
009E:  MOVWF  05
009F:  MOVLW  91
00A0:  MOVWF  04
00A1:  MOVF   00,W
00A2:  BTFSC  03.2
00A3:  GOTO   0B1
00A4:  MOVLW  0A
00A5:  MOVWF  78
00A6:  CLRF   77
00A7:  DECFSZ 77,F
00A8:  GOTO   0A7
00A9:  DECFSZ 78,F
00AA:  GOTO   0A6
00AB:  MOVLW  5F
00AC:  MOVWF  77
00AD:  DECFSZ 77,F
00AE:  GOTO   0AD
00AF:  DECFSZ 00,F
00B0:  GOTO   0A4
00B1:  RETURN
.................... //#use delay(internal=32MHz)
.................... 
.................... //directivas
.................... //!#use rs232(baud=9600,parity=N,stop=1,bits=8, UART1)// ,STREAM=SERIAL) 
.................... #use     rs232(baud=9600,parity=N,xmit=PIN_C6,rcv=PIN_C7,bits=8)
.................... #use     i2c(Master,slow,sda=PIN_C3,scl=PIN_C4)
.................... //!#define  PCF       112  // Puede ser 112  64 (PCF8574T=64, PCF8574A=112, PCF8574=64)
.................... //!#include "LCD_i2c.c"
.................... 
.................... 
.................... #define  TC_CLK    PIN_B6   //SCK B6
.................... #define  TC_CS     PIN_B7   //CS B7
.................... #define  TC_DATA   PIN_B5   //SO B5
.................... #include "MAX6675_Y.c"
.................... //!#define TC_DATA   PIN_A0 
.................... //!#define TC_CS     PIN_A1 
.................... //!#define TC_CLK    PIN_A2 
.................... 
.................... int1 MAX66_error; 
.................... 
.................... void MAX66_init(void){ 
....................    output_low(TC_CLK); 
*
0146:  BCF    12.6
0147:  BCF    17.6
....................    //output_low(TC_DATA); 
....................    output_high(TC_CS); 
0148:  BCF    12.7
0149:  BSF    17.7
014A:  RETURN
.................... }
.................... 
.................... int16 read_Termopar(void){
....................    //int8 i;
....................    int16 data;
....................    output_low(TC_CS);   
*
04D0:  BCF    12.7
04D1:  BCF    17.7
....................    delay_us(1);
04D2:  MOVLW  02
04D3:  MOVWF  77
04D4:  DECFSZ 77,F
04D5:  GOTO   4D4
04D6:  NOP
....................    for (int i=0;i<16;i++){
04D7:  MOVLB  01
04D8:  CLRF   66
04D9:  MOVF   66,W
04DA:  SUBLW  0F
04DB:  BTFSS  03.0
04DC:  GOTO   4F9
....................       shift_left(&data,2,input(TC_DATA));
04DD:  MOVLB  00
04DE:  BSF    12.5
04DF:  BTFSC  0D.5
04E0:  GOTO   4E3
04E1:  BCF    03.0
04E2:  GOTO   4E4
04E3:  BSF    03.0
04E4:  MOVLB  01
04E5:  RLF    64,F
04E6:  RLF    65,F
....................       output_high(TC_CLK);
04E7:  MOVLB  00
04E8:  BCF    12.6
04E9:  BSF    17.6
....................       delay_us(1);
04EA:  MOVLW  02
04EB:  MOVWF  77
04EC:  DECFSZ 77,F
04ED:  GOTO   4EC
04EE:  NOP
....................       output_low(TC_CLK); 
04EF:  BCF    12.6
04F0:  BCF    17.6
....................       delay_us(1);
04F1:  MOVLW  02
04F2:  MOVWF  77
04F3:  DECFSZ 77,F
04F4:  GOTO   4F3
04F5:  NOP
04F6:  MOVLB  01
04F7:  INCF   66,F
04F8:  GOTO   4D9
....................    }
....................    MAX66_error = bit_test(data,2);
04F9:  MOVLB  00
04FA:  BCF    28.0
04FB:  MOVLB  01
04FC:  BTFSS  64.2
04FD:  GOTO   501
04FE:  MOVLB  00
04FF:  BSF    28.0
0500:  MOVLB  01
....................    delay_us(50);
0501:  MOVLW  85
0502:  MOVWF  77
0503:  DECFSZ 77,F
0504:  GOTO   503
....................    output_high(TC_CS);
0505:  MOVLB  00
0506:  BCF    12.7
0507:  BSF    17.7
....................    data = (0x0FFF & (data>>3)); 
0508:  MOVLB  01
0509:  RRF    65,W
050A:  MOVWF  7A
050B:  RRF    64,W
050C:  MOVWF  79
050D:  RRF    7A,F
050E:  RRF    79,F
050F:  RRF    7A,F
0510:  RRF    79,F
0511:  MOVLW  1F
0512:  ANDWF  7A,F
0513:  MOVF   79,W
0514:  MOVWF  64
0515:  MOVF   7A,W
0516:  ANDLW  0F
0517:  MOVWF  65
....................    return(data); 
0518:  MOVF   64,W
0519:  MOVWF  78
051A:  MOVF   65,W
051B:  MOVWF  79
.................... } 
.................... 
.................... float MAX66_readC(void){
....................    int16 x;
....................    MAX66_init();
*
04CB:  CALL   146
....................    //delay_ms(200); //la hoja de datos recomienda 0.22 Seg
....................    //delay_ms(100);
....................    delay_us(50);
04CC:  MOVLW  85
04CD:  MOVWF  77
04CE:  DECFSZ 77,F
04CF:  GOTO   4CE
....................    x = read_Termopar();
*
051C:  MOVF   79,W
051D:  MOVWF  61
051E:  MOVF   78,W
051F:  MOVWF  60
....................    //x >>= 3;
....................    //x &= 0x0FFF;
....................    //x = (0x0FFF & (x>>3)); 
....................    return((float)x/4.0);
0520:  MOVF   61,W
0521:  MOVWF  65
0522:  MOVF   60,W
0523:  MOVWF  64
*
0540:  MOVF   7A,W
0541:  MOVWF  67
0542:  MOVF   79,W
0543:  MOVWF  66
0544:  MOVF   78,W
0545:  MOVWF  65
0546:  MOVF   77,W
0547:  MOVWF  64
0548:  MOVF   67,W
0549:  MOVLB  02
054A:  MOVWF  2F
054B:  MOVLB  01
054C:  MOVF   66,W
054D:  MOVLB  02
054E:  MOVWF  2E
054F:  MOVLB  01
0550:  MOVF   65,W
0551:  MOVLB  02
0552:  MOVWF  2D
0553:  MOVLB  01
0554:  MOVF   64,W
0555:  MOVLB  02
0556:  MOVWF  2C
0557:  CLRF   33
0558:  CLRF   32
0559:  CLRF   31
055A:  MOVLW  81
055B:  MOVWF  30
055C:  MOVLB  00
055D:  CALL   330
055E:  MOVLP  08
055F:  GOTO   0B3 (RETURN)
....................    //return(((float)x-44)/2.021142857); 
....................    //return (float)x*0.25;
.................... }
.................... float MAX66_readF(void){
....................    int16 x;
....................    MAX66_init();
....................    //delay_ms(200); //la hoja de datos recomienda 0.22 Seg
....................    //delay_ms(100);
....................    delay_us(50);
....................    x = read_Termopar();
.................... //!   x=(0x0FFF & (x>>4)); 
.................... //!   x >>= 3;   
....................    return(  (((float)x/4.0)*(9/5))+32   );
.................... }
.................... 
.................... //#include "max6675.c"
.................... 
.................... //////////////////////////////Salidas
.................... #define triac        PIN_A0   //resistencia
.................... #define rele         PIN_A1   //Selenoide
.................... #define ventilador   PIN_A2   //Ventilador
.................... #define buzzer       PIN_A3   //buzer
.................... 
.................... //////////////////////////////Salidas LATS
.................... #define triacl       LATA.LATA0   //resistencia
.................... #define relel        LATA.LATA1   //Selenoide
.................... #define ventiladorl  LATA.LATA2   //Ventilador
.................... #define buzzerl      LATA.LATA3   //buzer
.................... 
.................... //////////////////////////////Entradas
.................... #define cruce        PIN_B0      //in
.................... #define anular       PIN_B1
.................... #define selector     PIN_B2
.................... #define sube         PIN_B3
.................... #define baja         PIN_B4
.................... //////////////////////////////Entradas PORT
.................... #define crucep       PORTB.RB0   //in
.................... #define anularp      PORTB.RB1
.................... #define selectorp    PORTB.RB2
.................... #define subep        PORTB.RB3
.................... #define bajap        PORTB.RB4
.................... 
.................... 
....................    #define LCD_DB4   PIN_C0
....................    #define LCD_DB5   PIN_C1 
....................    #define LCD_DB6   PIN_C2 
....................    #define LCD_DB7   PIN_C3 
....................    #define LCD_RS    PIN_A4 
....................    #define LCD_E     PIN_A5
....................    #include "lcd20x4.c"
.................... //Flex_LCD420.c
.................... 
.................... /*#include <stdarg.h>
.................... static char _lcd_buffer_[40+1];*/
.................... 
.................... // These pins are for my Microchip PicDem2-Plus board, 
.................... // which I used to test this driver. 
.................... // An external 20x4 LCD is connected to these pins. 
.................... // Change these pins to match your own board's connections. 
.................... 
.................... 
.................... 
.................... 
.................... // To prove that the driver can be used with random 
.................... // pins, I also tested it with these pins: 
.................... #ifndef LCD_DB4
.................... #define LCD_DB4   PIN_D4
.................... #endif
.................... 
.................... #ifndef LCD_DB5
.................... #define LCD_DB5   PIN_B1
.................... #endif
.................... 
.................... #ifndef LCD_DB6
.................... #define LCD_DB6   PIN_C5 
.................... #endif
.................... 
.................... #ifndef LCD_DB7
.................... #define LCD_DB7   PIN_B5
.................... #endif
.................... 
.................... #ifndef LCD_RS
.................... #define LCD_RS    PIN_E2 
.................... #endif
.................... 
.................... #ifndef LCD_E
.................... #define LCD_E     PIN_D6 
.................... #endif
.................... 
.................... //!#ifndef LCD_RW
.................... //!#define LCD_RW    PIN_B2 
.................... //!#endif
.................... 
.................... 
....................  
.................... 
.................... // If you want only a 6-pin interface to your LCD, then 
.................... // connect the R/W pin on the LCD to ground, and comment 
.................... // out the following line.  Doing so will save one PIC 
.................... // pin, but at the cost of losing the ability to read from 
.................... // the LCD.  It also makes the write time a little longer 
.................... // because a static delay must be used, instead of polling 
.................... // the LCD's busy bit.  Normally a 6-pin interface is only 
.................... // used if you are running out of PIC pins, and you need 
.................... // to use as few as possible for the LCD.
.................... 
.................... 
....................      
.................... 
.................... 
.................... // These are the line addresses for most 4x20 LCDs. 
.................... #define LCD_LINE_1_ADDRESS 0x00 
.................... #define LCD_LINE_2_ADDRESS 0x40 
.................... #define LCD_LINE_3_ADDRESS 0x14 
.................... #define LCD_LINE_4_ADDRESS 0x54 
.................... 
.................... // These are the line addresses for LCD's which use 
.................... // the Hitachi HD66712U controller chip. 
.................... /* 
.................... #define LCD_LINE_1_ADDRESS 0x00 
.................... #define LCD_LINE_2_ADDRESS 0x20 
.................... #define LCD_LINE_3_ADDRESS 0x40 
.................... #define LCD_LINE_4_ADDRESS 0x60 
.................... */ 
.................... 
.................... 
.................... //======================================== 
.................... 
.................... #define lcd_type 2   // 0=5x7, 1=5x10, 2=2 lines(or more) 
.................... 
.................... int8 lcd_line; 
.................... 
.................... int8 const LCD_INIT_STRING[4] = 
.................... { 
....................  0x20 | (lcd_type << 2),  // Set mode: 4-bit, 2+ lines, 5x8 dots 
....................  0xc,                     // Display on 
....................  1,                       // Clear display 
....................  6                        // Increment cursor 
....................  }; 
....................                               
.................... 
.................... //------------------------------------- 
.................... void lcd_send_nibble(int8 nibble) 
.................... { 
.................... // Note:  !! converts an integer expression 
.................... // to a boolean (1 or 0). 
....................  output_bit(LCD_DB4, !!(nibble & 1)); 
*
00B2:  MOVLB  01
00B3:  BTFSC  65.0
00B4:  GOTO   0B9
00B5:  MOVLB  00
00B6:  BCF    18.0
00B7:  GOTO   0BB
00B8:  MOVLB  01
00B9:  MOVLB  00
00BA:  BSF    18.0
00BB:  BCF    13.0
....................  output_bit(LCD_DB5, !!(nibble & 2));  
00BC:  MOVLB  01
00BD:  BTFSC  65.1
00BE:  GOTO   0C3
00BF:  MOVLB  00
00C0:  BCF    18.1
00C1:  GOTO   0C5
00C2:  MOVLB  01
00C3:  MOVLB  00
00C4:  BSF    18.1
00C5:  BCF    13.1
....................  output_bit(LCD_DB6, !!(nibble & 4));    
00C6:  MOVLB  01
00C7:  BTFSC  65.2
00C8:  GOTO   0CD
00C9:  MOVLB  00
00CA:  BCF    18.2
00CB:  GOTO   0CF
00CC:  MOVLB  01
00CD:  MOVLB  00
00CE:  BSF    18.2
00CF:  BCF    13.2
....................  output_bit(LCD_DB7, !!(nibble & 8));    
00D0:  MOVLB  01
00D1:  BTFSC  65.3
00D2:  GOTO   0D7
00D3:  MOVLB  00
00D4:  BCF    18.3
00D5:  GOTO   0D9
00D6:  MOVLB  01
00D7:  MOVLB  00
00D8:  BSF    18.3
00D9:  BCF    13.3
.................... 
....................  delay_cycles(1); 
00DA:  NOP
....................  output_high(LCD_E); 
00DB:  BCF    11.5
00DC:  BSF    16.5
....................  delay_us(2); 
00DD:  MOVLW  05
00DE:  MOVWF  77
00DF:  DECFSZ 77,F
00E0:  GOTO   0DF
....................  output_low(LCD_E); 
00E1:  BCF    11.5
00E2:  BCF    16.5
00E3:  RETURN
.................... } 
.................... 
.................... //---------------------------------------- 
.................... // Send a byte to the LCD. 
.................... void lcd_send_byte(int8 address, int8 n) 
.................... { 
....................    output_low(LCD_RS); 
*
0113:  MOVLB  00
0114:  BCF    11.4
0115:  BCF    16.4
....................    
....................    delay_us(60);  
0116:  MOVLW  9F
0117:  MOVWF  77
0118:  DECFSZ 77,F
0119:  GOTO   118
011A:  GOTO   11B
....................    
....................    if(address) 
011B:  MOVLB  01
011C:  MOVF   62,F
011D:  BTFSC  03.2
011E:  GOTO   124
....................       output_high(LCD_RS); 
011F:  MOVLB  00
0120:  BCF    11.4
0121:  BSF    16.4
0122:  GOTO   127
0123:  MOVLB  01
....................    else 
....................       output_low(LCD_RS); 
0124:  MOVLB  00
0125:  BCF    11.4
0126:  BCF    16.4
....................          
....................     delay_cycles(1); 
0127:  NOP
....................    
....................     delay_cycles(1); 
0128:  NOP
.................... 
....................    
....................    output_low(LCD_E); 
0129:  BCF    11.5
012A:  BCF    16.5
....................    
....................    lcd_send_nibble(n >> 4); 
012B:  MOVLB  01
012C:  SWAPF  63,W
012D:  MOVWF  64
012E:  MOVLW  0F
012F:  ANDWF  64,F
0130:  MOVF   64,W
0131:  MOVWF  65
0132:  MOVLB  00
0133:  CALL   0B2
....................    lcd_send_nibble(n & 0xf); 
0134:  MOVLB  01
0135:  MOVF   63,W
0136:  ANDLW  0F
0137:  MOVWF  64
0138:  MOVWF  65
0139:  MOVLB  00
013A:  CALL   0B2
.................... } 
.................... //---------------------------- 
.................... 
.................... void lcd_init(void) 
.................... { 
....................    int8 i; 
.................... 
....................    lcd_line = 1; 
*
00E4:  MOVLW  01
00E5:  MOVWF  29
.................... 
....................    output_low(LCD_RS); 
00E6:  BCF    11.4
00E7:  BCF    16.4
.................... 
.................... 
....................    output_low(LCD_E); 
00E8:  BCF    11.5
00E9:  BCF    16.5
.................... 
....................    // Some LCDs require 15 ms minimum delay after 
....................    // power-up.  Others require 30 ms.  I'm going 
....................    // to set it to 35 ms, so it should work with 
....................    // all of them. 
....................    delay_ms(35);          
00EA:  MOVLW  23
00EB:  MOVLB  01
00EC:  MOVWF  61
00ED:  MOVLB  00
00EE:  CALL   09D
.................... 
....................    for(i=0 ;i < 3; i++) 
00EF:  MOVLB  01
00F0:  CLRF   60
00F1:  MOVF   60,W
00F2:  SUBLW  02
00F3:  BTFSS  03.0
00F4:  GOTO   101
....................    { 
....................       lcd_send_nibble(0x03); 
00F5:  MOVLW  03
00F6:  MOVWF  65
00F7:  MOVLB  00
00F8:  CALL   0B2
....................       delay_ms(5); 
00F9:  MOVLW  05
00FA:  MOVLB  01
00FB:  MOVWF  61
00FC:  MOVLB  00
00FD:  CALL   09D
00FE:  MOVLB  01
00FF:  INCF   60,F
0100:  GOTO   0F1
....................    } 
.................... 
....................    lcd_send_nibble(0x02); 
0101:  MOVLW  02
0102:  MOVWF  65
0103:  MOVLB  00
0104:  CALL   0B2
.................... 
....................    for(i=0; i < sizeof(LCD_INIT_STRING); i++) 
0105:  MOVLB  01
0106:  CLRF   60
0107:  MOVF   60,W
0108:  SUBLW  03
0109:  BTFSS  03.0
010A:  GOTO   143
....................    { 
....................       lcd_send_byte(0, LCD_INIT_STRING[i]); 
010B:  MOVF   60,W
010C:  MOVLB  00
010D:  CALL   054
010E:  MOVLB  01
010F:  MOVWF  61
0110:  CLRF   62
0111:  MOVF   61,W
0112:  MOVWF  63
....................     
....................       // If the R/W signal is not used, then 
....................       // the busy bit can't be polled.  One of 
....................       // the init commands takes longer than 
....................       // the hard-coded delay of 50 us, so in 
....................       // that case, lets just do a 5 ms delay 
....................       // after all four of them. 
....................        
....................          delay_ms(5); 
*
013B:  MOVLW  05
013C:  MOVLB  01
013D:  MOVWF  61
013E:  MOVLB  00
013F:  CALL   09D
0140:  MOVLB  01
0141:  INCF   60,F
0142:  GOTO   107
....................  
....................    } 
0143:  MOVLP  08
0144:  MOVLB  00
0145:  GOTO   044 (RETURN)
.................... 
.................... } 
.................... 
.................... //---------------------------- 
.................... 
.................... void lcd_gotoxy(int8 x, int8 y) 
.................... { 
.................... int8 address; 
.................... 
.................... 
.................... switch(y) 
....................   { 
....................    case 1: 
....................      address = LCD_LINE_1_ADDRESS; 
....................      break; 
.................... 
....................    case 2: 
....................      address = LCD_LINE_2_ADDRESS; 
....................      break; 
.................... 
....................    case 3: 
....................      address = LCD_LINE_3_ADDRESS; 
....................      break; 
.................... 
....................    case 4: 
....................      address = LCD_LINE_4_ADDRESS; 
....................      break; 
.................... 
....................    default: 
....................      address = LCD_LINE_1_ADDRESS; 
....................      break; 
....................       
....................   } 
.................... 
.................... address += x-1; 
.................... lcd_send_byte(0, 0x80 | address); 
.................... } 
.................... 
.................... //----------------------------- 
.................... void lcd_putc(char c) 
.................... { 
....................  switch(c) 
....................    { 
....................     case '\f': 
....................       lcd_send_byte(0,1); 
....................       lcd_line = 1; 
....................       delay_ms(2); 
....................       break; 
....................     
....................     case '\n': 
....................        lcd_gotoxy(1, ++lcd_line); 
....................        break; 
....................     
....................     case '\b': 
....................        lcd_send_byte(0,0x10); 
....................        break; 
....................     
....................     default: 
....................        lcd_send_byte(1,c); 
....................        break; 
....................    } 
.................... }
.................... 
.................... //----------------------------- 
.................... void lcd_puts(unsigned char *dato){
....................    while (*dato){
....................       
....................       switch(*dato)
....................       {
....................          case '\f':
....................             lcd_send_byte(0,1);
....................             lcd_line = 1; 
....................             delay_ms(2);
....................             break;
....................          case '\n':
....................             lcd_gotoxy(1, ++lcd_line); 
....................             break;
....................          case '\b': 
....................             lcd_send_byte(0,0x10); 
....................             break;
....................          default:
....................             lcd_send_byte(1,*dato);
....................             break;
....................       }
....................       
....................       //lcd_send_byte(1,*dato);    // Envio el dato al LCD
....................       dato++;             // Incrementa el buffer de dato
....................     }
.................... }
.................... 
.................... /*void lcd_printf(char *str, ...){
....................    
....................    va_list args;
....................    va_start(args,str);
....................    vsnprintf(_lcd_buffer_, 40+1, str, args);
....................    va_end(args);
....................    lcd_puts(_lcd_buffer_);
....................    
.................... }*/
.................... 
....................    
.................... //!   #define LCD_ENABLE_PIN  PIN_A5                                    ////
.................... //!   #define LCD_RS_PIN      PIN_A4                                    ////
.................... //!   //#define LCD_RW_PIN      PIN_A6    //NO usar                       ////
.................... //!   #define LCD_DATA4       PIN_C0                                    ////
.................... //!   #define LCD_DATA5       PIN_C1                                    ////
.................... //!   #define LCD_DATA6       PIN_C2                                    ////
.................... //!   #define LCD_DATA7       PIN_C3
.................... //!   #include "lcd.c"
.................... 
.................... 
.................... #include <stdint.h>
.................... ///////////////////////////////////////////////////////////////////////////
.................... ////                                                                   ////
.................... ////                           stdint.h                                ////
.................... ////                                                                   ////
.................... //// Standard integer definitions.                                     ////
.................... ////                                                                   ////
.................... ///////////////////////////////////////////////////////////////////////////
.................... ////        (C) Copyright 1996,2008 Custom Computer Services           ////
.................... //// This source code may only be used by licensed users of the CCS C  ////
.................... //// compiler.  This source code may only be distributed to other      ////
.................... //// licensed users of the CCS C compiler.  No other use, reproduction ////
.................... //// or distribution is permitted without written permission.          ////
.................... //// Derivative programs created using this software in object code    ////
.................... //// form are not restricted in any way.                               ////
.................... ///////////////////////////////////////////////////////////////////////////
.................... 
.................... #ifndef _STDINT
.................... 
.................... #define _STDINT
.................... 
.................... //////////// exact width
.................... 
.................... typedef signed int8 int8_t;
.................... typedef unsigned int8 uint8_t;
.................... typedef signed int16 int16_t;
.................... typedef unsigned int16 uint16_t;
.................... typedef signed int32 int32_t;
.................... typedef unsigned int32 uint32_t;
.................... 
.................... #if defined(__PCD__)
.................... //typedef signed int24 int24_t;
.................... //typedef unsigned int24 uint24_t;
.................... typedef signed int64 int64_t;
.................... typedef unsigned int64 uint64_t;
.................... #endif
.................... 
.................... #define INT8_MAX  (127)
.................... #define INT8_MIN  (-128)
.................... #define UINT8_MAX (255)
.................... 
.................... #define INT16_MAX  (32767)
.................... #define INT16_MIN  (-32768)
.................... #define UINT16_MAX (65535)
.................... 
.................... #define INT32_MAX  (2147483647)
.................... #define INT32_MIN  (-2147483648)
.................... #define UINT32_MAX (4294967295)
.................... 
.................... #if defined(__PCD__)
.................... //#define INT24_MAX  (8388607)
.................... //#define INT24_MIN  (-8388608)
.................... //#define UINT24_MAX (16777215)
.................... 
.................... #define INT64_MAX  (9223372036854775807)
.................... #define INT64_MIN  (-9223372036854775808)
.................... #define UINT64_MAX (18446744073709551615)
.................... #endif
.................... 
.................... ///////// minimum width
.................... 
.................... typedef signed int8 int_least8_t;
.................... typedef unsigned int8 uint_least8_t;
.................... typedef signed int16 int_least16_t;
.................... typedef unsigned int16 uint_least16_t;
.................... typedef signed int32 int_least32_t;
.................... typedef unsigned int32 uint_least32_t;
.................... 
.................... #if defined(__PCD__)
.................... //typedef signed int24 int_least24_t;
.................... //typedef unsigned int24 uint_least24_t;
.................... typedef signed int64 int_least64_t;
.................... typedef unsigned int64 uint_least64_t;
.................... #endif
.................... 
.................... #define INT_LEAST8_MAX  (127)
.................... #define INT_LEAST8_MIN  (-128)
.................... #define UINT_LEAST8_MAX (255)
.................... 
.................... #define INT_LEAST16_MAX  (32767)
.................... #define INT_LEAST16_MIN  (-32768)
.................... #define UINT_LEAST16_MAX (65535)
.................... 
.................... #define INT_LEAST32_MAX  (2147483647)
.................... #define INT_LEAST32_MIN  (-2147483648)
.................... #define UINT_LEAST32_MAX (4294967295)
.................... 
.................... #if defined(__PCD__)
.................... //#define INT_LEAST24_MAX  (8388607)
.................... //#define INT_LEAST24_MIN  (-8388608)
.................... //#define UINT_LEAST24_MAX (16777215)
.................... 
.................... #define INT_LEAST64_MAX  (9223372036854775807)
.................... #define INT_LEAST64_MIN  (-9223372036854775808)
.................... #define UINT_LEAST64_MAX (18446744073709551615)
.................... #endif
.................... 
.................... ///////// fastest width
.................... 
.................... #if defined(__PCD__)
.................... typedef signed int16 int_fast8_t;
.................... typedef unsigned int16 uint_fast8_t;
.................... #define INT_FAST8_MAX  (32767)
.................... #define INT_FAST8_MIN  (-32768)
.................... #define UINT_FAST8_MAX (65535)
.................... typedef signed int16 int_fast16_t;
.................... typedef unsigned int16 uint_fast16_t;
.................... //typedef signed int24 int_fast24_t;
.................... //typedef unsigned int24 uint_fast24_t;
.................... typedef signed int64 int_fast64_t;
.................... typedef unsigned int64 uint_fast64_t;
.................... #else
.................... typedef signed int8 int_fast8_t;
.................... typedef unsigned int8 uint_fast8_t;
.................... #define INT_FAST8_MAX  (127)
.................... #define INT_FAST8_MIN  (-128)
.................... #define UINT_FAST8_MAX (255)
.................... typedef signed int16 int_fast16_t;
.................... typedef unsigned int16 uint_fast16_t;
.................... #endif
.................... 
.................... typedef signed int32 int_fast32_t;
.................... typedef unsigned int32 uint_fast32_t;
.................... 
.................... #define INT_FAST16_MAX  (32767)
.................... #define INT_FAST16_MIN  (-32768)
.................... #define UINT_FAST16_MAX (65535)
.................... 
.................... #define INT_FAST32_MAX  (2147483647)
.................... #define INT_FAST32_MIN  (-2147483648)
.................... #define UINT_FAST32_MAX (4294967295)
.................... 
.................... #if defined(__PCD__)
.................... //#define INT_FAST24_MAX  (8388607)
.................... //#define INT_FAST24_MIN  (-8388608)
.................... //#define UINT_FAST24_MAX (16777215)
.................... 
.................... #define INT_FAST64_MAX  (9223372036854775807)
.................... #define INT_FAST64_MIN  (-9223372036854775808)
.................... #define UINT_FAST64_MAX (18446744073709551615)
.................... #endif
.................... 
.................... //////////// big enough to hold pointers (OPTIONAL)
.................... 
.................... #if defined(__PCD__)
....................    typedef unsigned int32 uintptr_t;
....................    typedef signed int32 intptr_t;
.................... #else
....................    typedef unsigned int16 uintptr_t;
....................    typedef signed int16 intptr_t;
.................... #endif
.................... 
.................... #define INT8_C(val) ((int8_t)val)
.................... #define UINT8_C(val) ((uint8_t)val)
.................... #define INT16_C(val) ((int16_t)val)
.................... #define UINT16_C(val) ((uint16_t)val)
.................... #define INT32_C(val) ((int32_t)val)
.................... #define UINT32_C(val) ((uint32_t)val)
.................... 
.................... #if defined(__PCD__)
.................... #define INT64_C(val) ((int64_t)val)
.................... #define UINT64_C(val) ((uint64_t)val)
.................... #endif
.................... 
.................... /// TODO:
.................... /// INTPTRN_MIN INTPTRN_MAX UINTPTRN_MAX
.................... 
.................... 
.................... /////////// greatest width (OPTIONAL)
.................... 
.................... #ifdef __PCD__
....................    typedef signed int64 intmax_t;
....................    typedef unsigned int64 uintmax_t;
....................    
....................    #define INTMAXN_MAX  (9223372036854775807)
....................    #define INTMAXN_MIN  (-9223372036854775808)
....................    #define UINTMAXN_MAX (18446744073709551615)
....................    
....................    #define INTMAX_C(value) ((signed int64)val)
....................    #define UINTMAX_C(value) ((unsigned int64)val)
.................... #else
....................    typedef signed int32 intmax_t;
....................    typedef unsigned int32 uintmax_t;
....................    
....................    #define INTMAXN_MAX  (2147483647)
....................    #define INTMAXN_MIN  (-2147483648)
....................    #define UINTMAXN_MAX (4294967295)
....................    
....................    #define INTMAX_C(value) ((signed int32)val)
....................    #define UINTMAX_C(value) ((unsigned int32)val)
.................... #endif
.................... 
.................... 
.................... #endif
.................... 
.................... 
.................... #include <stdbool.h>
.................... ///////////////////////////////////////////////////////////////////////////
.................... ////                                                                   ////
.................... ////                          stdbool.h                                ////
.................... ////                                                                   ////
.................... //// Standard boolean definitions                                      ////
.................... ////                                                                   ////
.................... ///////////////////////////////////////////////////////////////////////////
.................... ////        (C) Copyright 1996,2012 Custom Computer Services           ////
.................... //// This source code may only be used by licensed users of the CCS C  ////
.................... //// compiler.  This source code may only be distributed to other      ////
.................... //// licensed users of the CCS C compiler.  No other use, reproduction ////
.................... //// or distribution is permitted without written permission.          ////
.................... //// Derivative programs created using this software in object code    ////
.................... //// form are not restricted in any way.                               ////
.................... ///////////////////////////////////////////////////////////////////////////
.................... 
.................... #ifndef __STDBOOL_H__
.................... #define __STDBOOL_H__
.................... 
.................... #if !getenv("CASE")
....................    // remove TRUE and FALSE added by CCS's device .h file, only if
....................    // compiler has case sensitivty off.
.................... 
....................    #if defined(TRUE)
....................       #undef TRUE
....................    #endif
....................    
....................    #if defined(FALSE)
....................       #undef FALSE
....................    #endif
.................... #endif
.................... 
.................... typedef int1   bool;
.................... #define true   1
.................... #define false  0
.................... #define __bool_true_false_are_defined  1
.................... 
.................... #endif
.................... 
.................... 
.................... float temp;
.................... //bool flag =0;
.................... uint16_t timer = 0;
.................... char buffer[50];
.................... 
.................... #include "interrupciones.c"
.................... #INT_EXT
.................... void  EXT_isr(void) 
.................... {
....................    set_timer5(timer);
*
0059:  MOVLB  04
005A:  CLRF   18
005B:  MOVLB  00
005C:  MOVF   2F,W
005D:  MOVLB  04
005E:  MOVWF  19
005F:  MOVLB  00
0060:  MOVF   2E,W
0061:  MOVLB  04
0062:  MOVWF  18
0063:  NOP
....................    //output_bit(triac,0);
....................    //output_toggle(triac);
....................    if (timer > 65530){
0064:  MOVLB  00
0065:  MOVF   2F,W
0066:  SUBLW  FE
0067:  BTFSC  03.0
0068:  GOTO   073
0069:  XORLW  FF
006A:  BTFSS  03.2
006B:  GOTO   070
006C:  MOVF   2E,W
006D:  SUBLW  FA
006E:  BTFSC  03.0
006F:  GOTO   073
....................       output_bit(triac,1);
0070:  BSF    16.0
0071:  BCF    11.0
....................    }else{
0072:  GOTO   075
....................       output_bit(triac,0);
0073:  BCF    16.0
0074:  BCF    11.0
....................    }
.................... }
.................... 
0075:  MOVLB  0E
0076:  BCF    0C.0
0077:  MOVLB  00
0078:  MOVLP  00
0079:  MOVLB  00
007A:  GOTO   037
.................... #INT_TIMER5
.................... void  TIMER5_isr(void) 
.................... {
....................    //set_timer5(0);
....................    //output_bit(triac,1);
....................    //output_toggle(triac);
....................    
....................    if (timer <= 150){
007B:  MOVF   2F,F
007C:  BTFSS  03.2
007D:  GOTO   085
007E:  MOVF   2E,W
007F:  SUBLW  96
0080:  BTFSS  03.0
0081:  GOTO   085
....................       output_bit(triac,0);
0082:  BCF    16.0
0083:  BCF    11.0
....................    }else{
0084:  GOTO   087
....................       output_bit(triac,1);
0085:  BSF    16.0
0086:  BCF    11.0
....................    }
.................... 
0087:  MOVLB  0E
0088:  BCF    10.4
0089:  MOVLB  00
008A:  MOVLP  00
008B:  MOVLB  00
008C:  GOTO   037
.................... }
.................... 
.................... 
.................... float map(float x, float in_min, float in_max, float out_min, float out_max) {
....................   return (x - in_min) * (out_max - out_min) / (in_max - in_min) + out_min;
*
03FC:  BSF    03.1
03FD:  MOVLB  01
03FE:  MOVF   67,W
03FF:  MOVLB  02
0400:  MOVWF  2F
0401:  MOVLB  01
0402:  MOVF   66,W
0403:  MOVLB  02
0404:  MOVWF  2E
0405:  MOVLB  01
0406:  MOVF   65,W
0407:  MOVLB  02
0408:  MOVWF  2D
0409:  MOVLB  01
040A:  MOVF   64,W
040B:  MOVLB  02
040C:  MOVWF  2C
040D:  MOVLB  01
040E:  MOVF   6B,W
040F:  MOVLB  02
0410:  MOVWF  33
0411:  MOVLB  01
0412:  MOVF   6A,W
0413:  MOVLB  02
0414:  MOVWF  32
0415:  MOVLB  01
0416:  MOVF   69,W
0417:  MOVLB  02
0418:  MOVWF  31
0419:  MOVLB  01
041A:  MOVF   68,W
041B:  MOVLB  02
041C:  MOVWF  30
041D:  MOVLB  00
041E:  CALL   172
041F:  MOVF   7A,W
0420:  MOVLB  02
0421:  MOVWF  2B
0422:  MOVF   79,W
0423:  MOVWF  2A
0424:  MOVF   78,W
0425:  MOVWF  29
0426:  MOVF   77,W
0427:  MOVWF  28
0428:  BSF    03.1
0429:  MOVF   27,W
042A:  MOVWF  2F
042B:  MOVF   26,W
042C:  MOVWF  2E
042D:  MOVF   25,W
042E:  MOVWF  2D
042F:  MOVF   24,W
0430:  MOVWF  2C
0431:  MOVF   23,W
0432:  MOVWF  33
0433:  MOVF   22,W
0434:  MOVWF  32
0435:  MOVF   21,W
0436:  MOVWF  31
0437:  MOVF   20,W
0438:  MOVWF  30
0439:  MOVLB  00
043A:  CALL   172
043B:  MOVLB  02
043C:  MOVF   2B,W
043D:  MOVWF  2F
043E:  MOVF   2A,W
043F:  MOVWF  2E
0440:  MOVF   29,W
0441:  MOVWF  2D
0442:  MOVF   28,W
0443:  MOVWF  2C
0444:  MOVF   7A,W
0445:  MOVWF  33
0446:  MOVF   79,W
0447:  MOVWF  32
0448:  MOVF   78,W
0449:  MOVWF  31
044A:  MOVF   77,W
044B:  MOVWF  30
044C:  MOVLB  00
044D:  CALL   2B9
044E:  MOVF   7A,W
044F:  MOVLB  02
0450:  MOVWF  2B
0451:  MOVF   79,W
0452:  MOVWF  2A
0453:  MOVF   78,W
0454:  MOVWF  29
0455:  MOVF   77,W
0456:  MOVWF  28
0457:  BSF    03.1
0458:  MOVLB  01
0459:  MOVF   6F,W
045A:  MOVLB  02
045B:  MOVWF  2F
045C:  MOVLB  01
045D:  MOVF   6E,W
045E:  MOVLB  02
045F:  MOVWF  2E
0460:  MOVLB  01
0461:  MOVF   6D,W
0462:  MOVLB  02
0463:  MOVWF  2D
0464:  MOVLB  01
0465:  MOVF   6C,W
0466:  MOVLB  02
0467:  MOVWF  2C
0468:  MOVLB  01
0469:  MOVF   6B,W
046A:  MOVLB  02
046B:  MOVWF  33
046C:  MOVLB  01
046D:  MOVF   6A,W
046E:  MOVLB  02
046F:  MOVWF  32
0470:  MOVLB  01
0471:  MOVF   69,W
0472:  MOVLB  02
0473:  MOVWF  31
0474:  MOVLB  01
0475:  MOVF   68,W
0476:  MOVLB  02
0477:  MOVWF  30
0478:  MOVLB  00
0479:  CALL   172
047A:  MOVLB  02
047B:  MOVF   2B,W
047C:  MOVWF  2F
047D:  MOVF   2A,W
047E:  MOVWF  2E
047F:  MOVF   29,W
0480:  MOVWF  2D
0481:  MOVF   28,W
0482:  MOVWF  2C
0483:  MOVF   7A,W
0484:  MOVWF  33
0485:  MOVF   79,W
0486:  MOVWF  32
0487:  MOVF   78,W
0488:  MOVWF  31
0489:  MOVF   77,W
048A:  MOVWF  30
048B:  MOVLB  00
048C:  CALL   330
048D:  MOVF   7A,W
048E:  MOVLB  02
048F:  MOVWF  2B
0490:  MOVF   79,W
0491:  MOVWF  2A
0492:  MOVF   78,W
0493:  MOVWF  29
0494:  MOVF   77,W
0495:  MOVWF  28
0496:  BCF    03.1
0497:  MOVF   2B,W
0498:  MOVWF  2F
0499:  MOVF   2A,W
049A:  MOVWF  2E
049B:  MOVF   29,W
049C:  MOVWF  2D
049D:  MOVF   28,W
049E:  MOVWF  2C
049F:  MOVF   23,W
04A0:  MOVWF  33
04A1:  MOVF   22,W
04A2:  MOVWF  32
04A3:  MOVF   21,W
04A4:  MOVWF  31
04A5:  MOVF   20,W
04A6:  MOVWF  30
04A7:  MOVLB  00
04A8:  CALL   172
04A9:  RETURN
.................... }
.................... 
.................... #include "pid.c"
.................... 
.................... float    valor;                                    //lectura de temperatura
.................... uint16_t control;                                  //valor del PWM
.................... float    a,b,c;                                    //constantes del PID
.................... float    temp_limit;                               //temperatura a alcanzar
.................... float    rT,eT,iT,dT,yT,uT,iT0,eT0,iT_1,eT_1;      //variables de ecuaciones            
.................... float    limC_Max,limC_Min;                        //lmites mximo y mnimo de control.
.................... 
.................... 
.................... //----------------inicializacin variables PID
.................... void pid_init(){
....................    limC_Min=0.0;
....................    limC_Max=300.0;
....................    iT_1=0.0;
....................    eT_1=0.0;
....................    a=0.1243;                     //constantes del PID 
....................    b=0.0062;
....................    c=0.6215;
....................    temp_limit=100.0;          //Temperatura a alcanzar 
.................... }
.................... 
.................... 
.................... void main()
*
0800:  BCF    13.6
0801:  BSF    18.6
0802:  CLRF   2F
0803:  CLRF   2E
0804:  MOVLB  01
0805:  CLRF   59
0806:  CLRF   58
0807:  MOVLB  3E
0808:  CLRF   38
0809:  CLRF   43
080A:  CLRF   4E
080B:  MOVLB  13
080C:  CLRF   11
080D:  CLRF   12
080E:  CLRF   13
080F:  CLRF   10
0810:  CLRF   15
0811:  CLRF   16
0812:  CLRF   17
0813:  CLRF   14
.................... {
....................    setup_adc(NO_ANALOGS);
0814:  MOVLW  08
0815:  MOVLB  01
0816:  MOVWF  15
0817:  CLRF   16
0818:  CLRF   18
0819:  MOVLW  FF
081A:  MOVWF  1D
081B:  MOVLB  02
081C:  CLRF   0D
081D:  MOVLW  84
081E:  MOVLB  01
081F:  MOVWF  13
....................    setup_adc_ports(NO_ANALOGS);
0820:  MOVLW  00
0821:  MOVWF  1A
0822:  MOVLB  3E
0823:  MOVWF  38
0824:  MOVWF  43
0825:  MOVWF  4E
....................    setup_comparator(NC_NC_NC_NC);
0826:  MOVLB  13
0827:  CLRF   11
0828:  MOVLW  07
0829:  MOVWF  12
082A:  MOVWF  13
082B:  CLRF   10
082C:  CLRF   15
082D:  MOVWF  16
082E:  MOVWF  17
082F:  CLRF   14
....................    setup_timer_5(T5_FOSC | T5_SYNC | T5_DIV_BY_4);      //528 us overflow, 8.4 ms interrupt
0830:  MOVLW  02
0831:  MOVLB  04
0832:  MOVWF  1D
0833:  MOVLW  23
0834:  MOVWF  1A
0835:  CLRF   1B
0836:  CLRF   1C
....................    set_timer5(0);
0837:  CLRF   18
0838:  CLRF   19
0839:  CLRF   18
083A:  NOP
....................    
....................    //CCS_dentro_de_MPLABX
.................... 
....................    
....................    TRISB = 0b00000001;
083B:  MOVLW  01
083C:  MOVLB  00
083D:  MOVWF  12
....................    TRISA = 0b00110000;
083E:  MOVLW  30
083F:  MOVWF  11
....................    output_a(0);
0840:  CLRF   11
0841:  CLRF   16
....................    
....................    
....................    lcd_init();
0842:  MOVLP  00
0843:  GOTO   0E4
0844:  MOVLP  08
....................    MAX66_init();
0845:  MOVLP  00
0846:  CALL   146
0847:  MOVLP  08
.................... /*
....................    lcd_putc("\f   Bienvenido\n  Iniciando...");
.................... 
....................    delay_ms(3000);
....................    lcd_putc("\fCalentador Plus\n Programa V3.0");
....................    */
....................    //ext_int_edge(L_TO_H);
....................    //ext_int_edge(H_TO_L);
....................    enable_interrupts(INT_EXT);
0848:  MOVLB  0E
0849:  BSF    16.0
....................    enable_interrupts(INT_TIMER5);
084A:  BSF    1A.4
....................    enable_interrupts(GLOBAL);   
084B:  MOVLW  C0
084C:  IORWF  0B,F
....................    enable_interrupts(PERIPH);
084D:  BSF    0B.6
....................    
....................    
....................    TRISC.TRISC6 = 0; //TC_CLK    PIN_C6   //SCK B6
084E:  MOVLB  00
084F:  BCF    13.6
....................    TRISC.TRISC2 = 0; //TC_CS     PIN_C2   //CS B7
0850:  BCF    13.2
....................    TRISC.TRISC7 = 1; //TC_DATA   PIN_C7   //SO B5
0851:  BSF    13.7
....................    //MAX66_init(); 
....................    
....................    timer = 65531;
0852:  MOVLW  FF
0853:  MOVWF  2F
0854:  MOVLW  FB
0855:  MOVWF  2E
....................    
....................    while(TRUE)
....................    {
....................       
....................       for(signed int16 i= 0; i<=1023; i++){
0856:  MOVLB  01
0857:  CLRF   5B
0858:  CLRF   5A
0859:  BTFSC  5B.7
085A:  GOTO   05F
085B:  MOVF   5B,W
085C:  SUBLW  03
085D:  BTFSS  03.0
085E:  GOTO   0B0
....................          //output_toggle(buzzer);
....................          timer = (int16)map(i, 0, 1023, 0,65535);
085F:  MOVF   5B,W
0860:  MOVWF  61
0861:  MOVF   5A,W
0862:  MOVWF  60
0863:  MOVLP  00
0864:  MOVLB  00
0865:  CALL   14B
0866:  MOVLP  08
0867:  MOVF   7A,W
0868:  MOVLB  01
0869:  MOVWF  63
086A:  MOVF   79,W
086B:  MOVWF  62
086C:  MOVF   78,W
086D:  MOVWF  61
086E:  MOVF   77,W
086F:  MOVWF  60
0870:  MOVF   63,W
0871:  MOVWF  67
0872:  MOVF   62,W
0873:  MOVWF  66
0874:  MOVF   61,W
0875:  MOVWF  65
0876:  MOVF   60,W
0877:  MOVWF  64
0878:  CLRF   6B
0879:  CLRF   6A
087A:  CLRF   69
087B:  CLRF   68
087C:  CLRF   6F
087D:  MOVLW  C0
087E:  MOVWF  6E
087F:  MOVLW  7F
0880:  MOVWF  6D
0881:  MOVLW  88
0882:  MOVWF  6C
0883:  MOVLB  02
0884:  CLRF   23
0885:  CLRF   22
0886:  CLRF   21
0887:  CLRF   20
0888:  CLRF   27
0889:  MOVLW  FF
088A:  MOVWF  26
088B:  MOVLW  7F
088C:  MOVWF  25
088D:  MOVLW  8E
088E:  MOVWF  24
088F:  MOVLP  00
0890:  MOVLB  00
0891:  CALL   3FC
0892:  MOVLP  08
0893:  MOVF   7A,W
0894:  MOVLB  01
0895:  MOVWF  63
0896:  MOVF   79,W
0897:  MOVWF  62
0898:  MOVF   78,W
0899:  MOVWF  61
089A:  MOVF   77,W
089B:  MOVWF  60
089C:  MOVLP  00
089D:  MOVLB  00
089E:  CALL   4AA
089F:  MOVLP  08
08A0:  MOVF   79,W
08A1:  MOVWF  2F
08A2:  MOVF   78,W
08A3:  MOVWF  2E
....................          delay_ms(5);
08A4:  MOVLW  05
08A5:  MOVLB  01
08A6:  MOVWF  61
08A7:  MOVLP  00
08A8:  MOVLB  00
08A9:  CALL   09D
08AA:  MOVLP  08
08AB:  MOVLB  01
08AC:  INCF   5A,F
08AD:  BTFSC  03.2
08AE:  INCF   5B,F
08AF:  GOTO   059
....................       }
....................       temp = MAX66_readC();
08B0:  MOVLP  00
08B1:  MOVLB  00
08B2:  GOTO   4CB
08B3:  MOVLP  08
08B4:  MOVF   7A,W
08B5:  MOVWF  2D
08B6:  MOVF   79,W
08B7:  MOVWF  2C
08B8:  MOVF   78,W
08B9:  MOVWF  2B
08BA:  MOVF   77,W
08BB:  MOVWF  2A
....................       sprintf(buffer,"\fLa temperatura es:\n   %3.2f%cC",temp,223);
08BC:  MOVLW  20
08BD:  MOVLB  01
08BE:  MOVWF  59
08BF:  MOVLW  10
08C0:  MOVWF  58
08C1:  MOVLW  8D
08C2:  MOVLB  10
08C3:  MOVWF  1A
08C4:  MOVLW  00
08C5:  MOVWF  1B
08C6:  BCF    03.0
08C7:  MOVLW  17
08C8:  MOVLB  01
08C9:  MOVWF  60
08CA:  MOVLP  00
08CB:  MOVLB  00
08CC:  GOTO   56F
08CD:  MOVLP  08
08CE:  MOVLW  02
08CF:  MOVWF  04
08D0:  MOVF   2D,W
08D1:  MOVLB  01
08D2:  MOVWF  63
08D3:  MOVLB  00
08D4:  MOVF   2C,W
08D5:  MOVLB  01
08D6:  MOVWF  62
08D7:  MOVLB  00
08D8:  MOVF   2B,W
08D9:  MOVLB  01
08DA:  MOVWF  61
08DB:  MOVLB  00
08DC:  MOVF   2A,W
08DD:  MOVLB  01
08DE:  MOVWF  60
08DF:  MOVLW  02
08E0:  MOVWF  64
08E1:  MOVLP  00
08E2:  MOVLB  00
08E3:  GOTO   619
08E4:  MOVLP  08
08E5:  MOVLW  DF
08E6:  MOVLB  02
08E7:  MOVWF  20
08E8:  MOVLP  00
08E9:  MOVLB  00
08EA:  CALL   560
08EB:  MOVLP  08
08EC:  MOVLW  43
08ED:  MOVLB  02
08EE:  MOVWF  20
08EF:  MOVLP  00
08F0:  MOVLB  00
08F1:  CALL   560
08F2:  MOVLP  08
....................      // lcd_puts(buffer);
....................       for(signed int16 i= 1023; i>= 0; i--){
08F3:  MOVLW  03
08F4:  MOVLB  01
08F5:  MOVWF  5D
08F6:  MOVLW  FF
08F7:  MOVWF  5C
08F8:  BTFSC  5D.7
08F9:  GOTO   14C
....................          //output_toggle(buzzer);
....................          timer = (int16)map(i, 0, 1023, 0,65535);
08FA:  MOVF   5D,W
08FB:  MOVWF  61
08FC:  MOVF   5C,W
08FD:  MOVWF  60
08FE:  MOVLP  00
08FF:  MOVLB  00
0900:  CALL   14B
0901:  MOVLP  08
0902:  MOVF   7A,W
0903:  MOVLB  01
0904:  MOVWF  63
0905:  MOVF   79,W
0906:  MOVWF  62
0907:  MOVF   78,W
0908:  MOVWF  61
0909:  MOVF   77,W
090A:  MOVWF  60
090B:  MOVF   63,W
090C:  MOVWF  67
090D:  MOVF   62,W
090E:  MOVWF  66
090F:  MOVF   61,W
0910:  MOVWF  65
0911:  MOVF   60,W
0912:  MOVWF  64
0913:  CLRF   6B
0914:  CLRF   6A
0915:  CLRF   69
0916:  CLRF   68
0917:  CLRF   6F
0918:  MOVLW  C0
0919:  MOVWF  6E
091A:  MOVLW  7F
091B:  MOVWF  6D
091C:  MOVLW  88
091D:  MOVWF  6C
091E:  MOVLB  02
091F:  CLRF   23
0920:  CLRF   22
0921:  CLRF   21
0922:  CLRF   20
0923:  CLRF   27
0924:  MOVLW  FF
0925:  MOVWF  26
0926:  MOVLW  7F
0927:  MOVWF  25
0928:  MOVLW  8E
0929:  MOVWF  24
092A:  MOVLP  00
092B:  MOVLB  00
092C:  CALL   3FC
092D:  MOVLP  08
092E:  MOVF   7A,W
092F:  MOVLB  01
0930:  MOVWF  63
0931:  MOVF   79,W
0932:  MOVWF  62
0933:  MOVF   78,W
0934:  MOVWF  61
0935:  MOVF   77,W
0936:  MOVWF  60
0937:  MOVLP  00
0938:  MOVLB  00
0939:  CALL   4AA
093A:  MOVLP  08
093B:  MOVF   79,W
093C:  MOVWF  2F
093D:  MOVF   78,W
093E:  MOVWF  2E
....................          delay_ms(5);
093F:  MOVLW  05
0940:  MOVLB  01
0941:  MOVWF  61
0942:  MOVLP  00
0943:  MOVLB  00
0944:  CALL   09D
0945:  MOVLP  08
0946:  MOVLB  01
0947:  MOVF   5C,W
0948:  BTFSC  03.2
0949:  DECF   5D,F
094A:  DECF   5C,F
094B:  GOTO   0F8
....................       }
094C:  GOTO   057
....................       
....................       
....................       //timer = (int16)map(adc, 0, 1023, 0,65535);
....................       
....................       //temp = MAX66_readC();
....................       //temp = do_everything();
....................       //printf("El Termopar lee:   %f C\n",temp  );
....................       
....................       //delay_ms(50);
.................... 
....................       //TODO: User Code
....................    }
.................... 
.................... }
094D:  SLEEP

Configuration Fuses:
   Word  1: 178C   NOEXTOSC RSTOSC_HFINTRC_32MHZ NOCLKOUT NOCKS NOFCMEN
   Word  2: 273D   MCLR PUT NOLPBOR NOBROWNOUT BORV24 ZCDDIS NOPPS1WAY NOSTVREN NODEBUG
   Word  3: 069F   WDTSW NOWDT WDTWIN_100% WDTCLK_LFINTRC
   Word  4: 0FFF   NOWRT NOSCANE NOLVP
   Word  5: 3FFF   NOPROTECT NOCPD
