

Microchip MPLAB XC8 Assembler V2.32 build 20210201212658 
                                                                                               Tue Mar 16 15:31:26 2021

Microchip MPLAB XC8 C Compiler v2.32 (Free license) build 20210201212658 Og1 
     1                           	processor	16LF18855
     2                           	pagewidth 120
     3                           	opt	flic
     4                           	psect	stringtext1,global,class=STRCODE,delta=2,noexec
     5                           	psect	stringtext2,global,class=STRCODE,delta=2,noexec
     6                           	psect	nvBANK0,global,class=BANK0,space=1,delta=1,noexec
     7                           	psect	stringtext3,global,class=STRCODE,delta=2,noexec
     8                           	psect	stringtext4,global,class=STRCODE,delta=2,noexec
     9                           	psect	stringtext5,global,class=STRCODE,delta=2,noexec
    10                           	psect	cinit,global,class=CODE,merge=1,delta=2
    11                           	psect	bssBANK0,global,class=BANK0,space=1,delta=1,noexec
    12                           	psect	clrtext,global,class=CODE,delta=2
    13                           	psect	cstackCOMMON,global,class=COMMON,space=1,delta=1,noexec
    14                           	psect	cstackBANK0,global,class=BANK0,space=1,delta=1,noexec
    15                           	psect	maintext,global,class=CODE,merge=1,split=1,delta=2
    16                           	psect	text1,local,class=CODE,merge=1,delta=2,group=1
    17                           	psect	text2,local,class=CODE,merge=1,delta=2
    18                           	psect	text3,local,class=CODE,merge=1,delta=2
    19                           	psect	text4,local,class=CODE,merge=1,delta=2,group=2
    20                           	psect	text5,local,class=CODE,merge=1,delta=2,group=2
    21                           	psect	text6,local,class=CODE,merge=1,delta=2,group=2
    22                           	psect	text7,local,class=CODE,merge=1,delta=2
    23                           	psect	text8,local,class=CODE,merge=1,delta=2
    24                           	psect	text9,local,class=CODE,merge=1,delta=2
    25                           	psect	text10,local,class=CODE,merge=1,delta=2
    26                           	psect	text11,local,class=CODE,merge=1,delta=2
    27                           	psect	text12,local,class=CODE,merge=1,delta=2
    28                           	psect	text13,local,class=CODE,merge=1,delta=2
    29                           	psect	text14,local,class=CODE,merge=1,delta=2
    30                           	psect	text15,local,class=CODE,merge=1,delta=2
    31                           	psect	text16,local,class=CODE,merge=1,delta=2
    32                           	psect	text17,local,class=CODE,merge=1,delta=2
    33                           	psect	text18,local,class=CODE,merge=1,delta=2
    34                           	psect	text19,local,class=CODE,merge=1,inline,delta=2
    35                           	psect	text20,local,class=CODE,merge=1,delta=2
    36                           	psect	text21,local,class=CODE,merge=1,delta=2
    37                           	psect	text22,local,class=CODE,merge=1,delta=2
    38                           	psect	text23,local,class=CODE,merge=1,inline,delta=2
    39                           	psect	text24,local,class=CODE,merge=1,inline,delta=2
    40                           	psect	text25,local,class=CODE,merge=1,delta=2
    41                           	psect	text26,local,class=CODE,merge=1,delta=2
    42                           	psect	text27,local,class=CODE,merge=1,delta=2
    43                           	psect	text28,local,class=CODE,merge=1,delta=2
    44                           	psect	text29,local,class=CODE,merge=1,delta=2
    45                           	psect	text30,local,class=CODE,merge=1,delta=2
    46                           	psect	text31,local,class=CODE,merge=1,delta=2
    47                           	psect	text32,local,class=CODE,merge=1,delta=2
    48                           	psect	text33,local,class=CODE,merge=1,delta=2
    49                           	psect	text34,local,class=CODE,merge=1,delta=2
    50                           	psect	text35,local,class=CODE,merge=1,delta=2
    51                           	psect	text36,local,class=CODE,merge=1,delta=2
    52                           	psect	text37,local,class=CODE,merge=1,delta=2
    53                           	psect	text38,local,class=CODE,merge=1,delta=2
    54                           	psect	text39,local,class=CODE,merge=1,delta=2
    55                           	psect	text40,local,class=CODE,merge=1,delta=2
    56                           	psect	text41,local,class=CODE,merge=1,inline,delta=2
    57                           	psect	text42,local,class=CODE,merge=1,inline,delta=2
    58                           	psect	text43,local,class=CODE,merge=1,inline,delta=2
    59                           	psect	text44,local,class=CODE,merge=1,inline,delta=2
    60                           	psect	text45,local,class=CODE,merge=1,inline,delta=2
    61                           	psect	text46,local,class=CODE,merge=1,inline,delta=2
    62                           	psect	text47,local,class=CODE,merge=1,inline,delta=2
    63                           	psect	text48,local,class=CODE,merge=1,delta=2
    64                           	psect	text49,local,class=CODE,merge=1,delta=2
    65                           	psect	text50,local,class=CODE,merge=1,delta=2
    66                           	psect	text51,local,class=CODE,merge=1,delta=2
    67                           	psect	text52,local,class=CODE,merge=1,delta=2
    68                           	psect	text53,local,class=CODE,merge=1,delta=2
    69                           	psect	text54,local,class=CODE,merge=1,delta=2
    70                           	psect	text55,local,class=CODE,merge=1,delta=2
    71                           	psect	text56,local,class=CODE,merge=1,delta=2
    72                           	psect	text57,local,class=CODE,merge=1,delta=2
    73                           	psect	text58,local,class=CODE,merge=1,inline,delta=2
    74                           	psect	text59,local,class=CODE,merge=1,inline,delta=2
    75                           	psect	text60,local,class=CODE,merge=1,inline,delta=2
    76                           	psect	text61,local,class=CODE,merge=1,delta=2
    77                           	psect	text62,local,class=CODE,merge=1,inline,delta=2
    78                           	psect	text63,local,class=CODE,merge=1,inline,delta=2
    79                           	psect	text64,local,class=CODE,merge=1,inline,delta=2
    80                           	psect	config,global,abs,ovrld,class=CONFIG,space=4,delta=2,noexec
    81                           	dabs	1,0x7E,2
    82  0000                     
    83                           ; Version 2.30
    84                           ; Generated 15/09/2020 GMT
    85                           ; 
    86                           ; Copyright © 2020, Microchip Technology Inc. and its subsidiaries ("Microchip")
    87                           ; All rights reserved.
    88                           ; 
    89                           ; This software is developed by Microchip Technology Inc. and its subsidiaries ("Microch
      +                          ip").
    90                           ; 
    91                           ; Redistribution and use in source and binary forms, with or without modification, are
    92                           ; permitted provided that the following conditions are met:
    93                           ; 
    94                           ;     1. Redistributions of source code must retain the above copyright notice, this lis
      +                          t of
    95                           ;        conditions and the following disclaimer.
    96                           ; 
    97                           ;     2. Redistributions in binary form must reproduce the above copyright notice, this 
      +                          list
    98                           ;        of conditions and the following disclaimer in the documentation and/or other
    99                           ;        materials provided with the distribution. Publication is not required when
   100                           ;        this file is used in an embedded application.
   101                           ; 
   102                           ;     3. Microchip's name may not be used to endorse or promote products derived from th
      +                          is
   103                           ;        software without specific prior written permission.
   104                           ; 
   105                           ; THIS SOFTWARE IS PROVIDED BY MICROCHIP "AS IS" AND ANY EXPRESS OR IMPLIED WARRANTIES,
   106                           ; INCLUDING, BUT NOT LIMITED TO, THE IMPLIED WARRANTIES OF MERCHANTABILITY AND FITNESS F
      +                          OR
   107                           ; PURPOSE ARE DISCLAIMED.  IN NO EVENT SHALL MICROCHIP BE LIABLE FOR ANY DIRECT, INDIREC
      +                          T,
   108                           ; INCIDENTAL, SPECIAL, EXEMPLARY, OR CONSEQUENTIAL DAMAGES (INCLUDING BUT NOT LIMITED TO
   109                           ; PROCUREMENT OF SUBSTITUTE GOODS OR SERVICES; LOSS OF USE, DATA OR PROFITS; OR BUSINESS
   110                           ; INTERRUPTION) HOWSOEVER CAUSED AND ON ANY THEORY OF LIABILITY, WHETHER IN CONTRACT, ST
      +                          RICT
   111                           ; LIABILITY, OR TORT (INCLUDING NEGLIGENCE OR OTHERWISE) ARISING IN ANY WAY OUT OF THE U
      +                          SE OF
   112                           ; THIS SOFTWARE, EVEN IF ADVISED OF THE POSSIBILITY OF SUCH DAMAGE.
   113                           ; 
   114                           ; 
   115                           ; Code-generator required, PIC16LF18855 Definitions
   116                           ; 
   117                           ; SFR Addresses
   118  0000                     	;# 
   119  0001                     	;# 
   120  0002                     	;# 
   121  0003                     	;# 
   122  0004                     	;# 
   123  0005                     	;# 
   124  0006                     	;# 
   125  0007                     	;# 
   126  0008                     	;# 
   127  0009                     	;# 
   128  000A                     	;# 
   129  000B                     	;# 
   130  000C                     	;# 
   131  000D                     	;# 
   132  000E                     	;# 
   133  0010                     	;# 
   134  0011                     	;# 
   135  0012                     	;# 
   136  0013                     	;# 
   137  0016                     	;# 
   138  0017                     	;# 
   139  0018                     	;# 
   140  001C                     	;# 
   141  001C                     	;# 
   142  001D                     	;# 
   143  001D                     	;# 
   144  001E                     	;# 
   145  001F                     	;# 
   146  008C                     	;# 
   147  008C                     	;# 
   148  008D                     	;# 
   149  008E                     	;# 
   150  008E                     	;# 
   151  008F                     	;# 
   152  0090                     	;# 
   153  0090                     	;# 
   154  0091                     	;# 
   155  0093                     	;# 
   156  0094                     	;# 
   157  0095                     	;# 
   158  0096                     	;# 
   159  0097                     	;# 
   160  0098                     	;# 
   161  0099                     	;# 
   162  009A                     	;# 
   163  009B                     	;# 
   164  009C                     	;# 
   165  009D                     	;# 
   166  009E                     	;# 
   167  010C                     	;# 
   168  010D                     	;# 
   169  010E                     	;# 
   170  010E                     	;# 
   171  010F                     	;# 
   172  0110                     	;# 
   173  0110                     	;# 
   174  0111                     	;# 
   175  0112                     	;# 
   176  0112                     	;# 
   177  0113                     	;# 
   178  0114                     	;# 
   179  0114                     	;# 
   180  0115                     	;# 
   181  0116                     	;# 
   182  0116                     	;# 
   183  0117                     	;# 
   184  0119                     	;# 
   185  0119                     	;# 
   186  0119                     	;# 
   187  011A                     	;# 
   188  011A                     	;# 
   189  011A                     	;# 
   190  011B                     	;# 
   191  011B                     	;# 
   192  011B                     	;# 
   193  011B                     	;# 
   194  011B                     	;# 
   195  011C                     	;# 
   196  011C                     	;# 
   197  011C                     	;# 
   198  011D                     	;# 
   199  011D                     	;# 
   200  011D                     	;# 
   201  011E                     	;# 
   202  011E                     	;# 
   203  011E                     	;# 
   204  011F                     	;# 
   205  011F                     	;# 
   206  011F                     	;# 
   207  011F                     	;# 
   208  011F                     	;# 
   209  018C                     	;# 
   210  018D                     	;# 
   211  018E                     	;# 
   212  018F                     	;# 
   213  0190                     	;# 
   214  0191                     	;# 
   215  0192                     	;# 
   216  0196                     	;# 
   217  0197                     	;# 
   218  0198                     	;# 
   219  0199                     	;# 
   220  019A                     	;# 
   221  019B                     	;# 
   222  019C                     	;# 
   223  020C                     	;# 
   224  020C                     	;# 
   225  020D                     	;# 
   226  020E                     	;# 
   227  020F                     	;# 
   228  020F                     	;# 
   229  0210                     	;# 
   230  0210                     	;# 
   231  0211                     	;# 
   232  0211                     	;# 
   233  0212                     	;# 
   234  0212                     	;# 
   235  0213                     	;# 
   236  0214                     	;# 
   237  0215                     	;# 
   238  0215                     	;# 
   239  0216                     	;# 
   240  0216                     	;# 
   241  0217                     	;# 
   242  0217                     	;# 
   243  0218                     	;# 
   244  0218                     	;# 
   245  0219                     	;# 
   246  021A                     	;# 
   247  021B                     	;# 
   248  021B                     	;# 
   249  021C                     	;# 
   250  021C                     	;# 
   251  021D                     	;# 
   252  021D                     	;# 
   253  021E                     	;# 
   254  021F                     	;# 
   255  028C                     	;# 
   256  028C                     	;# 
   257  028D                     	;# 
   258  028D                     	;# 
   259  028E                     	;# 
   260  028F                     	;# 
   261  0290                     	;# 
   262  0290                     	;# 
   263  0291                     	;# 
   264  0292                     	;# 
   265  0292                     	;# 
   266  0293                     	;# 
   267  0293                     	;# 
   268  0294                     	;# 
   269  0295                     	;# 
   270  0296                     	;# 
   271  0296                     	;# 
   272  0297                     	;# 
   273  0298                     	;# 
   274  0298                     	;# 
   275  0299                     	;# 
   276  0299                     	;# 
   277  029A                     	;# 
   278  029B                     	;# 
   279  029C                     	;# 
   280  029C                     	;# 
   281  029D                     	;# 
   282  030C                     	;# 
   283  030C                     	;# 
   284  030D                     	;# 
   285  030E                     	;# 
   286  030F                     	;# 
   287  0310                     	;# 
   288  0310                     	;# 
   289  0311                     	;# 
   290  0312                     	;# 
   291  0313                     	;# 
   292  0314                     	;# 
   293  0314                     	;# 
   294  0315                     	;# 
   295  0316                     	;# 
   296  0317                     	;# 
   297  0318                     	;# 
   298  0318                     	;# 
   299  0319                     	;# 
   300  031A                     	;# 
   301  031B                     	;# 
   302  031C                     	;# 
   303  031C                     	;# 
   304  031D                     	;# 
   305  031E                     	;# 
   306  031F                     	;# 
   307  038C                     	;# 
   308  038C                     	;# 
   309  038D                     	;# 
   310  038E                     	;# 
   311  0390                     	;# 
   312  0390                     	;# 
   313  0391                     	;# 
   314  0392                     	;# 
   315  040C                     	;# 
   316  040D                     	;# 
   317  040E                     	;# 
   318  040F                     	;# 
   319  0410                     	;# 
   320  0411                     	;# 
   321  0416                     	;# 
   322  0416                     	;# 
   323  0417                     	;# 
   324  0418                     	;# 
   325  0418                     	;# 
   326  0419                     	;# 
   327  041A                     	;# 
   328  041A                     	;# 
   329  041B                     	;# 
   330  041C                     	;# 
   331  041C                     	;# 
   332  041D                     	;# 
   333  041E                     	;# 
   334  041F                     	;# 
   335  048C                     	;# 
   336  048C                     	;# 
   337  048D                     	;# 
   338  048E                     	;# 
   339  048F                     	;# 
   340  048F                     	;# 
   341  0490                     	;# 
   342  0491                     	;# 
   343  0492                     	;# 
   344  0492                     	;# 
   345  0493                     	;# 
   346  0494                     	;# 
   347  0495                     	;# 
   348  0495                     	;# 
   349  0496                     	;# 
   350  0497                     	;# 
   351  0498                     	;# 
   352  0499                     	;# 
   353  049A                     	;# 
   354  049B                     	;# 
   355  049C                     	;# 
   356  049D                     	;# 
   357  050C                     	;# 
   358  050C                     	;# 
   359  050D                     	;# 
   360  050E                     	;# 
   361  050F                     	;# 
   362  050F                     	;# 
   363  0510                     	;# 
   364  0511                     	;# 
   365  0512                     	;# 
   366  0512                     	;# 
   367  0513                     	;# 
   368  0514                     	;# 
   369  0515                     	;# 
   370  0515                     	;# 
   371  0516                     	;# 
   372  0517                     	;# 
   373  0518                     	;# 
   374  0519                     	;# 
   375  051A                     	;# 
   376  051B                     	;# 
   377  051C                     	;# 
   378  051D                     	;# 
   379  058C                     	;# 
   380  058C                     	;# 
   381  058D                     	;# 
   382  058E                     	;# 
   383  058F                     	;# 
   384  058F                     	;# 
   385  0590                     	;# 
   386  0591                     	;# 
   387  0592                     	;# 
   388  0593                     	;# 
   389  060C                     	;# 
   390  060D                     	;# 
   391  060E                     	;# 
   392  060F                     	;# 
   393  0610                     	;# 
   394  0611                     	;# 
   395  0612                     	;# 
   396  0613                     	;# 
   397  0614                     	;# 
   398  0616                     	;# 
   399  0617                     	;# 
   400  0618                     	;# 
   401  0619                     	;# 
   402  061A                     	;# 
   403  061B                     	;# 
   404  061C                     	;# 
   405  061D                     	;# 
   406  061E                     	;# 
   407  068C                     	;# 
   408  068D                     	;# 
   409  068E                     	;# 
   410  068F                     	;# 
   411  0690                     	;# 
   412  0691                     	;# 
   413  0692                     	;# 
   414  0693                     	;# 
   415  0694                     	;# 
   416  070C                     	;# 
   417  070D                     	;# 
   418  070E                     	;# 
   419  070F                     	;# 
   420  0710                     	;# 
   421  0711                     	;# 
   422  0712                     	;# 
   423  0713                     	;# 
   424  0714                     	;# 
   425  0716                     	;# 
   426  0717                     	;# 
   427  0718                     	;# 
   428  0719                     	;# 
   429  071A                     	;# 
   430  071B                     	;# 
   431  071C                     	;# 
   432  071D                     	;# 
   433  071E                     	;# 
   434  0796                     	;# 
   435  0797                     	;# 
   436  0798                     	;# 
   437  0799                     	;# 
   438  079A                     	;# 
   439  079B                     	;# 
   440  080C                     	;# 
   441  080D                     	;# 
   442  080E                     	;# 
   443  080F                     	;# 
   444  0810                     	;# 
   445  0811                     	;# 
   446  0813                     	;# 
   447  0814                     	;# 
   448  081A                     	;# 
   449  081B                     	;# 
   450  081C                     	;# 
   451  081D                     	;# 
   452  081E                     	;# 
   453  081F                     	;# 
   454  088C                     	;# 
   455  088D                     	;# 
   456  088E                     	;# 
   457  088F                     	;# 
   458  0890                     	;# 
   459  0891                     	;# 
   460  0892                     	;# 
   461  0893                     	;# 
   462  0895                     	;# 
   463  0896                     	;# 
   464  0897                     	;# 
   465  0898                     	;# 
   466  0899                     	;# 
   467  089A                     	;# 
   468  089B                     	;# 
   469  090C                     	;# 
   470  090E                     	;# 
   471  090F                     	;# 
   472  091F                     	;# 
   473  091F                     	;# 
   474  098F                     	;# 
   475  098F                     	;# 
   476  0990                     	;# 
   477  0991                     	;# 
   478  0992                     	;# 
   479  0993                     	;# 
   480  0994                     	;# 
   481  0995                     	;# 
   482  0996                     	;# 
   483  0997                     	;# 
   484  0E0F                     	;# 
   485  0E10                     	;# 
   486  0E11                     	;# 
   487  0E12                     	;# 
   488  0E13                     	;# 
   489  0E14                     	;# 
   490  0E15                     	;# 
   491  0E16                     	;# 
   492  0E17                     	;# 
   493  0E18                     	;# 
   494  0E19                     	;# 
   495  0E1A                     	;# 
   496  0E1B                     	;# 
   497  0E1C                     	;# 
   498  0E1D                     	;# 
   499  0E1E                     	;# 
   500  0E1F                     	;# 
   501  0E20                     	;# 
   502  0E21                     	;# 
   503  0E22                     	;# 
   504  0E23                     	;# 
   505  0E24                     	;# 
   506  0E25                     	;# 
   507  0E26                     	;# 
   508  0E27                     	;# 
   509  0E28                     	;# 
   510  0E29                     	;# 
   511  0E2A                     	;# 
   512  0E2B                     	;# 
   513  0E2C                     	;# 
   514  0E2D                     	;# 
   515  0E2E                     	;# 
   516  0E2F                     	;# 
   517  0E30                     	;# 
   518  0E31                     	;# 
   519  0E32                     	;# 
   520  0E33                     	;# 
   521  0E34                     	;# 
   522  0E35                     	;# 
   523  0E36                     	;# 
   524  0E37                     	;# 
   525  0E8F                     	;# 
   526  0E90                     	;# 
   527  0E91                     	;# 
   528  0E92                     	;# 
   529  0E93                     	;# 
   530  0E94                     	;# 
   531  0E95                     	;# 
   532  0E96                     	;# 
   533  0E97                     	;# 
   534  0E9C                     	;# 
   535  0E9D                     	;# 
   536  0E9E                     	;# 
   537  0EA1                     	;# 
   538  0EA2                     	;# 
   539  0EA3                     	;# 
   540  0EA4                     	;# 
   541  0EA5                     	;# 
   542  0EA9                     	;# 
   543  0EAA                     	;# 
   544  0EAB                     	;# 
   545  0EAC                     	;# 
   546  0EB1                     	;# 
   547  0EB2                     	;# 
   548  0EB3                     	;# 
   549  0EB8                     	;# 
   550  0EB9                     	;# 
   551  0EBA                     	;# 
   552  0EBB                     	;# 
   553  0EBC                     	;# 
   554  0EBD                     	;# 
   555  0EBE                     	;# 
   556  0EC3                     	;# 
   557  0EC5                     	;# 
   558  0EC6                     	;# 
   559  0EC7                     	;# 
   560  0EC8                     	;# 
   561  0EC9                     	;# 
   562  0ECA                     	;# 
   563  0ECB                     	;# 
   564  0ECC                     	;# 
   565  0F10                     	;# 
   566  0F11                     	;# 
   567  0F12                     	;# 
   568  0F13                     	;# 
   569  0F14                     	;# 
   570  0F15                     	;# 
   571  0F16                     	;# 
   572  0F17                     	;# 
   573  0F18                     	;# 
   574  0F19                     	;# 
   575  0F1A                     	;# 
   576  0F1B                     	;# 
   577  0F1C                     	;# 
   578  0F1D                     	;# 
   579  0F1E                     	;# 
   580  0F1F                     	;# 
   581  0F20                     	;# 
   582  0F21                     	;# 
   583  0F22                     	;# 
   584  0F23                     	;# 
   585  0F24                     	;# 
   586  0F25                     	;# 
   587  0F26                     	;# 
   588  0F27                     	;# 
   589  0F38                     	;# 
   590  0F39                     	;# 
   591  0F3A                     	;# 
   592  0F3B                     	;# 
   593  0F3C                     	;# 
   594  0F3D                     	;# 
   595  0F3E                     	;# 
   596  0F3F                     	;# 
   597  0F40                     	;# 
   598  0F41                     	;# 
   599  0F43                     	;# 
   600  0F44                     	;# 
   601  0F45                     	;# 
   602  0F46                     	;# 
   603  0F47                     	;# 
   604  0F48                     	;# 
   605  0F49                     	;# 
   606  0F4A                     	;# 
   607  0F4B                     	;# 
   608  0F4C                     	;# 
   609  0F4E                     	;# 
   610  0F4F                     	;# 
   611  0F50                     	;# 
   612  0F51                     	;# 
   613  0F52                     	;# 
   614  0F53                     	;# 
   615  0F54                     	;# 
   616  0F55                     	;# 
   617  0F56                     	;# 
   618  0F57                     	;# 
   619  0F65                     	;# 
   620  0F68                     	;# 
   621  0F69                     	;# 
   622  0F6A                     	;# 
   623  0F6B                     	;# 
   624  0FE4                     	;# 
   625  0FE5                     	;# 
   626  0FE6                     	;# 
   627  0FE7                     	;# 
   628  0FE8                     	;# 
   629  0FE9                     	;# 
   630  0FEA                     	;# 
   631  0FEB                     	;# 
   632  0FED                     	;# 
   633  0FEE                     	;# 
   634  0FEF                     	;# 
   635  0000                     	;# 
   636  0001                     	;# 
   637  0002                     	;# 
   638  0003                     	;# 
   639  0004                     	;# 
   640  0005                     	;# 
   641  0006                     	;# 
   642  0007                     	;# 
   643  0008                     	;# 
   644  0009                     	;# 
   645  000A                     	;# 
   646  000B                     	;# 
   647  000C                     	;# 
   648  000D                     	;# 
   649  000E                     	;# 
   650  0010                     	;# 
   651  0011                     	;# 
   652  0012                     	;# 
   653  0013                     	;# 
   654  0016                     	;# 
   655  0017                     	;# 
   656  0018                     	;# 
   657  001C                     	;# 
   658  001C                     	;# 
   659  001D                     	;# 
   660  001D                     	;# 
   661  001E                     	;# 
   662  001F                     	;# 
   663  008C                     	;# 
   664  008C                     	;# 
   665  008D                     	;# 
   666  008E                     	;# 
   667  008E                     	;# 
   668  008F                     	;# 
   669  0090                     	;# 
   670  0090                     	;# 
   671  0091                     	;# 
   672  0093                     	;# 
   673  0094                     	;# 
   674  0095                     	;# 
   675  0096                     	;# 
   676  0097                     	;# 
   677  0098                     	;# 
   678  0099                     	;# 
   679  009A                     	;# 
   680  009B                     	;# 
   681  009C                     	;# 
   682  009D                     	;# 
   683  009E                     	;# 
   684  010C                     	;# 
   685  010D                     	;# 
   686  010E                     	;# 
   687  010E                     	;# 
   688  010F                     	;# 
   689  0110                     	;# 
   690  0110                     	;# 
   691  0111                     	;# 
   692  0112                     	;# 
   693  0112                     	;# 
   694  0113                     	;# 
   695  0114                     	;# 
   696  0114                     	;# 
   697  0115                     	;# 
   698  0116                     	;# 
   699  0116                     	;# 
   700  0117                     	;# 
   701  0119                     	;# 
   702  0119                     	;# 
   703  0119                     	;# 
   704  011A                     	;# 
   705  011A                     	;# 
   706  011A                     	;# 
   707  011B                     	;# 
   708  011B                     	;# 
   709  011B                     	;# 
   710  011B                     	;# 
   711  011B                     	;# 
   712  011C                     	;# 
   713  011C                     	;# 
   714  011C                     	;# 
   715  011D                     	;# 
   716  011D                     	;# 
   717  011D                     	;# 
   718  011E                     	;# 
   719  011E                     	;# 
   720  011E                     	;# 
   721  011F                     	;# 
   722  011F                     	;# 
   723  011F                     	;# 
   724  011F                     	;# 
   725  011F                     	;# 
   726  018C                     	;# 
   727  018D                     	;# 
   728  018E                     	;# 
   729  018F                     	;# 
   730  0190                     	;# 
   731  0191                     	;# 
   732  0192                     	;# 
   733  0196                     	;# 
   734  0197                     	;# 
   735  0198                     	;# 
   736  0199                     	;# 
   737  019A                     	;# 
   738  019B                     	;# 
   739  019C                     	;# 
   740  020C                     	;# 
   741  020C                     	;# 
   742  020D                     	;# 
   743  020E                     	;# 
   744  020F                     	;# 
   745  020F                     	;# 
   746  0210                     	;# 
   747  0210                     	;# 
   748  0211                     	;# 
   749  0211                     	;# 
   750  0212                     	;# 
   751  0212                     	;# 
   752  0213                     	;# 
   753  0214                     	;# 
   754  0215                     	;# 
   755  0215                     	;# 
   756  0216                     	;# 
   757  0216                     	;# 
   758  0217                     	;# 
   759  0217                     	;# 
   760  0218                     	;# 
   761  0218                     	;# 
   762  0219                     	;# 
   763  021A                     	;# 
   764  021B                     	;# 
   765  021B                     	;# 
   766  021C                     	;# 
   767  021C                     	;# 
   768  021D                     	;# 
   769  021D                     	;# 
   770  021E                     	;# 
   771  021F                     	;# 
   772  028C                     	;# 
   773  028C                     	;# 
   774  028D                     	;# 
   775  028D                     	;# 
   776  028E                     	;# 
   777  028F                     	;# 
   778  0290                     	;# 
   779  0290                     	;# 
   780  0291                     	;# 
   781  0292                     	;# 
   782  0292                     	;# 
   783  0293                     	;# 
   784  0293                     	;# 
   785  0294                     	;# 
   786  0295                     	;# 
   787  0296                     	;# 
   788  0296                     	;# 
   789  0297                     	;# 
   790  0298                     	;# 
   791  0298                     	;# 
   792  0299                     	;# 
   793  0299                     	;# 
   794  029A                     	;# 
   795  029B                     	;# 
   796  029C                     	;# 
   797  029C                     	;# 
   798  029D                     	;# 
   799  030C                     	;# 
   800  030C                     	;# 
   801  030D                     	;# 
   802  030E                     	;# 
   803  030F                     	;# 
   804  0310                     	;# 
   805  0310                     	;# 
   806  0311                     	;# 
   807  0312                     	;# 
   808  0313                     	;# 
   809  0314                     	;# 
   810  0314                     	;# 
   811  0315                     	;# 
   812  0316                     	;# 
   813  0317                     	;# 
   814  0318                     	;# 
   815  0318                     	;# 
   816  0319                     	;# 
   817  031A                     	;# 
   818  031B                     	;# 
   819  031C                     	;# 
   820  031C                     	;# 
   821  031D                     	;# 
   822  031E                     	;# 
   823  031F                     	;# 
   824  038C                     	;# 
   825  038C                     	;# 
   826  038D                     	;# 
   827  038E                     	;# 
   828  0390                     	;# 
   829  0390                     	;# 
   830  0391                     	;# 
   831  0392                     	;# 
   832  040C                     	;# 
   833  040D                     	;# 
   834  040E                     	;# 
   835  040F                     	;# 
   836  0410                     	;# 
   837  0411                     	;# 
   838  0416                     	;# 
   839  0416                     	;# 
   840  0417                     	;# 
   841  0418                     	;# 
   842  0418                     	;# 
   843  0419                     	;# 
   844  041A                     	;# 
   845  041A                     	;# 
   846  041B                     	;# 
   847  041C                     	;# 
   848  041C                     	;# 
   849  041D                     	;# 
   850  041E                     	;# 
   851  041F                     	;# 
   852  048C                     	;# 
   853  048C                     	;# 
   854  048D                     	;# 
   855  048E                     	;# 
   856  048F                     	;# 
   857  048F                     	;# 
   858  0490                     	;# 
   859  0491                     	;# 
   860  0492                     	;# 
   861  0492                     	;# 
   862  0493                     	;# 
   863  0494                     	;# 
   864  0495                     	;# 
   865  0495                     	;# 
   866  0496                     	;# 
   867  0497                     	;# 
   868  0498                     	;# 
   869  0499                     	;# 
   870  049A                     	;# 
   871  049B                     	;# 
   872  049C                     	;# 
   873  049D                     	;# 
   874  050C                     	;# 
   875  050C                     	;# 
   876  050D                     	;# 
   877  050E                     	;# 
   878  050F                     	;# 
   879  050F                     	;# 
   880  0510                     	;# 
   881  0511                     	;# 
   882  0512                     	;# 
   883  0512                     	;# 
   884  0513                     	;# 
   885  0514                     	;# 
   886  0515                     	;# 
   887  0515                     	;# 
   888  0516                     	;# 
   889  0517                     	;# 
   890  0518                     	;# 
   891  0519                     	;# 
   892  051A                     	;# 
   893  051B                     	;# 
   894  051C                     	;# 
   895  051D                     	;# 
   896  058C                     	;# 
   897  058C                     	;# 
   898  058D                     	;# 
   899  058E                     	;# 
   900  058F                     	;# 
   901  058F                     	;# 
   902  0590                     	;# 
   903  0591                     	;# 
   904  0592                     	;# 
   905  0593                     	;# 
   906  060C                     	;# 
   907  060D                     	;# 
   908  060E                     	;# 
   909  060F                     	;# 
   910  0610                     	;# 
   911  0611                     	;# 
   912  0612                     	;# 
   913  0613                     	;# 
   914  0614                     	;# 
   915  0616                     	;# 
   916  0617                     	;# 
   917  0618                     	;# 
   918  0619                     	;# 
   919  061A                     	;# 
   920  061B                     	;# 
   921  061C                     	;# 
   922  061D                     	;# 
   923  061E                     	;# 
   924  068C                     	;# 
   925  068D                     	;# 
   926  068E                     	;# 
   927  068F                     	;# 
   928  0690                     	;# 
   929  0691                     	;# 
   930  0692                     	;# 
   931  0693                     	;# 
   932  0694                     	;# 
   933  070C                     	;# 
   934  070D                     	;# 
   935  070E                     	;# 
   936  070F                     	;# 
   937  0710                     	;# 
   938  0711                     	;# 
   939  0712                     	;# 
   940  0713                     	;# 
   941  0714                     	;# 
   942  0716                     	;# 
   943  0717                     	;# 
   944  0718                     	;# 
   945  0719                     	;# 
   946  071A                     	;# 
   947  071B                     	;# 
   948  071C                     	;# 
   949  071D                     	;# 
   950  071E                     	;# 
   951  0796                     	;# 
   952  0797                     	;# 
   953  0798                     	;# 
   954  0799                     	;# 
   955  079A                     	;# 
   956  079B                     	;# 
   957  080C                     	;# 
   958  080D                     	;# 
   959  080E                     	;# 
   960  080F                     	;# 
   961  0810                     	;# 
   962  0811                     	;# 
   963  0813                     	;# 
   964  0814                     	;# 
   965  081A                     	;# 
   966  081B                     	;# 
   967  081C                     	;# 
   968  081D                     	;# 
   969  081E                     	;# 
   970  081F                     	;# 
   971  088C                     	;# 
   972  088D                     	;# 
   973  088E                     	;# 
   974  088F                     	;# 
   975  0890                     	;# 
   976  0891                     	;# 
   977  0892                     	;# 
   978  0893                     	;# 
   979  0895                     	;# 
   980  0896                     	;# 
   981  0897                     	;# 
   982  0898                     	;# 
   983  0899                     	;# 
   984  089A                     	;# 
   985  089B                     	;# 
   986  090C                     	;# 
   987  090E                     	;# 
   988  090F                     	;# 
   989  091F                     	;# 
   990  091F                     	;# 
   991  098F                     	;# 
   992  098F                     	;# 
   993  0990                     	;# 
   994  0991                     	;# 
   995  0992                     	;# 
   996  0993                     	;# 
   997  0994                     	;# 
   998  0995                     	;# 
   999  0996                     	;# 
  1000  0997                     	;# 
  1001  0E0F                     	;# 
  1002  0E10                     	;# 
  1003  0E11                     	;# 
  1004  0E12                     	;# 
  1005  0E13                     	;# 
  1006  0E14                     	;# 
  1007  0E15                     	;# 
  1008  0E16                     	;# 
  1009  0E17                     	;# 
  1010  0E18                     	;# 
  1011  0E19                     	;# 
  1012  0E1A                     	;# 
  1013  0E1B                     	;# 
  1014  0E1C                     	;# 
  1015  0E1D                     	;# 
  1016  0E1E                     	;# 
  1017  0E1F                     	;# 
  1018  0E20                     	;# 
  1019  0E21                     	;# 
  1020  0E22                     	;# 
  1021  0E23                     	;# 
  1022  0E24                     	;# 
  1023  0E25                     	;# 
  1024  0E26                     	;# 
  1025  0E27                     	;# 
  1026  0E28                     	;# 
  1027  0E29                     	;# 
  1028  0E2A                     	;# 
  1029  0E2B                     	;# 
  1030  0E2C                     	;# 
  1031  0E2D                     	;# 
  1032  0E2E                     	;# 
  1033  0E2F                     	;# 
  1034  0E30                     	;# 
  1035  0E31                     	;# 
  1036  0E32                     	;# 
  1037  0E33                     	;# 
  1038  0E34                     	;# 
  1039  0E35                     	;# 
  1040  0E36                     	;# 
  1041  0E37                     	;# 
  1042  0E8F                     	;# 
  1043  0E90                     	;# 
  1044  0E91                     	;# 
  1045  0E92                     	;# 
  1046  0E93                     	;# 
  1047  0E94                     	;# 
  1048  0E95                     	;# 
  1049  0E96                     	;# 
  1050  0E97                     	;# 
  1051  0E9C                     	;# 
  1052  0E9D                     	;# 
  1053  0E9E                     	;# 
  1054  0EA1                     	;# 
  1055  0EA2                     	;# 
  1056  0EA3                     	;# 
  1057  0EA4                     	;# 
  1058  0EA5                     	;# 
  1059  0EA9                     	;# 
  1060  0EAA                     	;# 
  1061  0EAB                     	;# 
  1062  0EAC                     	;# 
  1063  0EB1                     	;# 
  1064  0EB2                     	;# 
  1065  0EB3                     	;# 
  1066  0EB8                     	;# 
  1067  0EB9                     	;# 
  1068  0EBA                     	;# 
  1069  0EBB                     	;# 
  1070  0EBC                     	;# 
  1071  0EBD                     	;# 
  1072  0EBE                     	;# 
  1073  0EC3                     	;# 
  1074  0EC5                     	;# 
  1075  0EC6                     	;# 
  1076  0EC7                     	;# 
  1077  0EC8                     	;# 
  1078  0EC9                     	;# 
  1079  0ECA                     	;# 
  1080  0ECB                     	;# 
  1081  0ECC                     	;# 
  1082  0F10                     	;# 
  1083  0F11                     	;# 
  1084  0F12                     	;# 
  1085  0F13                     	;# 
  1086  0F14                     	;# 
  1087  0F15                     	;# 
  1088  0F16                     	;# 
  1089  0F17                     	;# 
  1090  0F18                     	;# 
  1091  0F19                     	;# 
  1092  0F1A                     	;# 
  1093  0F1B                     	;# 
  1094  0F1C                     	;# 
  1095  0F1D                     	;# 
  1096  0F1E                     	;# 
  1097  0F1F                     	;# 
  1098  0F20                     	;# 
  1099  0F21                     	;# 
  1100  0F22                     	;# 
  1101  0F23                     	;# 
  1102  0F24                     	;# 
  1103  0F25                     	;# 
  1104  0F26                     	;# 
  1105  0F27                     	;# 
  1106  0F38                     	;# 
  1107  0F39                     	;# 
  1108  0F3A                     	;# 
  1109  0F3B                     	;# 
  1110  0F3C                     	;# 
  1111  0F3D                     	;# 
  1112  0F3E                     	;# 
  1113  0F3F                     	;# 
  1114  0F40                     	;# 
  1115  0F41                     	;# 
  1116  0F43                     	;# 
  1117  0F44                     	;# 
  1118  0F45                     	;# 
  1119  0F46                     	;# 
  1120  0F47                     	;# 
  1121  0F48                     	;# 
  1122  0F49                     	;# 
  1123  0F4A                     	;# 
  1124  0F4B                     	;# 
  1125  0F4C                     	;# 
  1126  0F4E                     	;# 
  1127  0F4F                     	;# 
  1128  0F50                     	;# 
  1129  0F51                     	;# 
  1130  0F52                     	;# 
  1131  0F53                     	;# 
  1132  0F54                     	;# 
  1133  0F55                     	;# 
  1134  0F56                     	;# 
  1135  0F57                     	;# 
  1136  0F65                     	;# 
  1137  0F68                     	;# 
  1138  0F69                     	;# 
  1139  0F6A                     	;# 
  1140  0F6B                     	;# 
  1141  0FE4                     	;# 
  1142  0FE5                     	;# 
  1143  0FE6                     	;# 
  1144  0FE7                     	;# 
  1145  0FE8                     	;# 
  1146  0FE9                     	;# 
  1147  0FEA                     	;# 
  1148  0FEB                     	;# 
  1149  0FED                     	;# 
  1150  0FEE                     	;# 
  1151  0FEF                     	;# 
  1152  0000                     	;# 
  1153  0001                     	;# 
  1154  0002                     	;# 
  1155  0003                     	;# 
  1156  0004                     	;# 
  1157  0005                     	;# 
  1158  0006                     	;# 
  1159  0007                     	;# 
  1160  0008                     	;# 
  1161  0009                     	;# 
  1162  000A                     	;# 
  1163  000B                     	;# 
  1164  000C                     	;# 
  1165  000D                     	;# 
  1166  000E                     	;# 
  1167  0010                     	;# 
  1168  0011                     	;# 
  1169  0012                     	;# 
  1170  0013                     	;# 
  1171  0016                     	;# 
  1172  0017                     	;# 
  1173  0018                     	;# 
  1174  001C                     	;# 
  1175  001C                     	;# 
  1176  001D                     	;# 
  1177  001D                     	;# 
  1178  001E                     	;# 
  1179  001F                     	;# 
  1180  008C                     	;# 
  1181  008C                     	;# 
  1182  008D                     	;# 
  1183  008E                     	;# 
  1184  008E                     	;# 
  1185  008F                     	;# 
  1186  0090                     	;# 
  1187  0090                     	;# 
  1188  0091                     	;# 
  1189  0093                     	;# 
  1190  0094                     	;# 
  1191  0095                     	;# 
  1192  0096                     	;# 
  1193  0097                     	;# 
  1194  0098                     	;# 
  1195  0099                     	;# 
  1196  009A                     	;# 
  1197  009B                     	;# 
  1198  009C                     	;# 
  1199  009D                     	;# 
  1200  009E                     	;# 
  1201  010C                     	;# 
  1202  010D                     	;# 
  1203  010E                     	;# 
  1204  010E                     	;# 
  1205  010F                     	;# 
  1206  0110                     	;# 
  1207  0110                     	;# 
  1208  0111                     	;# 
  1209  0112                     	;# 
  1210  0112                     	;# 
  1211  0113                     	;# 
  1212  0114                     	;# 
  1213  0114                     	;# 
  1214  0115                     	;# 
  1215  0116                     	;# 
  1216  0116                     	;# 
  1217  0117                     	;# 
  1218  0119                     	;# 
  1219  0119                     	;# 
  1220  0119                     	;# 
  1221  011A                     	;# 
  1222  011A                     	;# 
  1223  011A                     	;# 
  1224  011B                     	;# 
  1225  011B                     	;# 
  1226  011B                     	;# 
  1227  011B                     	;# 
  1228  011B                     	;# 
  1229  011C                     	;# 
  1230  011C                     	;# 
  1231  011C                     	;# 
  1232  011D                     	;# 
  1233  011D                     	;# 
  1234  011D                     	;# 
  1235  011E                     	;# 
  1236  011E                     	;# 
  1237  011E                     	;# 
  1238  011F                     	;# 
  1239  011F                     	;# 
  1240  011F                     	;# 
  1241  011F                     	;# 
  1242  011F                     	;# 
  1243  018C                     	;# 
  1244  018D                     	;# 
  1245  018E                     	;# 
  1246  018F                     	;# 
  1247  0190                     	;# 
  1248  0191                     	;# 
  1249  0192                     	;# 
  1250  0196                     	;# 
  1251  0197                     	;# 
  1252  0198                     	;# 
  1253  0199                     	;# 
  1254  019A                     	;# 
  1255  019B                     	;# 
  1256  019C                     	;# 
  1257  020C                     	;# 
  1258  020C                     	;# 
  1259  020D                     	;# 
  1260  020E                     	;# 
  1261  020F                     	;# 
  1262  020F                     	;# 
  1263  0210                     	;# 
  1264  0210                     	;# 
  1265  0211                     	;# 
  1266  0211                     	;# 
  1267  0212                     	;# 
  1268  0212                     	;# 
  1269  0213                     	;# 
  1270  0214                     	;# 
  1271  0215                     	;# 
  1272  0215                     	;# 
  1273  0216                     	;# 
  1274  0216                     	;# 
  1275  0217                     	;# 
  1276  0217                     	;# 
  1277  0218                     	;# 
  1278  0218                     	;# 
  1279  0219                     	;# 
  1280  021A                     	;# 
  1281  021B                     	;# 
  1282  021B                     	;# 
  1283  021C                     	;# 
  1284  021C                     	;# 
  1285  021D                     	;# 
  1286  021D                     	;# 
  1287  021E                     	;# 
  1288  021F                     	;# 
  1289  028C                     	;# 
  1290  028C                     	;# 
  1291  028D                     	;# 
  1292  028D                     	;# 
  1293  028E                     	;# 
  1294  028F                     	;# 
  1295  0290                     	;# 
  1296  0290                     	;# 
  1297  0291                     	;# 
  1298  0292                     	;# 
  1299  0292                     	;# 
  1300  0293                     	;# 
  1301  0293                     	;# 
  1302  0294                     	;# 
  1303  0295                     	;# 
  1304  0296                     	;# 
  1305  0296                     	;# 
  1306  0297                     	;# 
  1307  0298                     	;# 
  1308  0298                     	;# 
  1309  0299                     	;# 
  1310  0299                     	;# 
  1311  029A                     	;# 
  1312  029B                     	;# 
  1313  029C                     	;# 
  1314  029C                     	;# 
  1315  029D                     	;# 
  1316  030C                     	;# 
  1317  030C                     	;# 
  1318  030D                     	;# 
  1319  030E                     	;# 
  1320  030F                     	;# 
  1321  0310                     	;# 
  1322  0310                     	;# 
  1323  0311                     	;# 
  1324  0312                     	;# 
  1325  0313                     	;# 
  1326  0314                     	;# 
  1327  0314                     	;# 
  1328  0315                     	;# 
  1329  0316                     	;# 
  1330  0317                     	;# 
  1331  0318                     	;# 
  1332  0318                     	;# 
  1333  0319                     	;# 
  1334  031A                     	;# 
  1335  031B                     	;# 
  1336  031C                     	;# 
  1337  031C                     	;# 
  1338  031D                     	;# 
  1339  031E                     	;# 
  1340  031F                     	;# 
  1341  038C                     	;# 
  1342  038C                     	;# 
  1343  038D                     	;# 
  1344  038E                     	;# 
  1345  0390                     	;# 
  1346  0390                     	;# 
  1347  0391                     	;# 
  1348  0392                     	;# 
  1349  040C                     	;# 
  1350  040D                     	;# 
  1351  040E                     	;# 
  1352  040F                     	;# 
  1353  0410                     	;# 
  1354  0411                     	;# 
  1355  0416                     	;# 
  1356  0416                     	;# 
  1357  0417                     	;# 
  1358  0418                     	;# 
  1359  0418                     	;# 
  1360  0419                     	;# 
  1361  041A                     	;# 
  1362  041A                     	;# 
  1363  041B                     	;# 
  1364  041C                     	;# 
  1365  041C                     	;# 
  1366  041D                     	;# 
  1367  041E                     	;# 
  1368  041F                     	;# 
  1369  048C                     	;# 
  1370  048C                     	;# 
  1371  048D                     	;# 
  1372  048E                     	;# 
  1373  048F                     	;# 
  1374  048F                     	;# 
  1375  0490                     	;# 
  1376  0491                     	;# 
  1377  0492                     	;# 
  1378  0492                     	;# 
  1379  0493                     	;# 
  1380  0494                     	;# 
  1381  0495                     	;# 
  1382  0495                     	;# 
  1383  0496                     	;# 
  1384  0497                     	;# 
  1385  0498                     	;# 
  1386  0499                     	;# 
  1387  049A                     	;# 
  1388  049B                     	;# 
  1389  049C                     	;# 
  1390  049D                     	;# 
  1391  050C                     	;# 
  1392  050C                     	;# 
  1393  050D                     	;# 
  1394  050E                     	;# 
  1395  050F                     	;# 
  1396  050F                     	;# 
  1397  0510                     	;# 
  1398  0511                     	;# 
  1399  0512                     	;# 
  1400  0512                     	;# 
  1401  0513                     	;# 
  1402  0514                     	;# 
  1403  0515                     	;# 
  1404  0515                     	;# 
  1405  0516                     	;# 
  1406  0517                     	;# 
  1407  0518                     	;# 
  1408  0519                     	;# 
  1409  051A                     	;# 
  1410  051B                     	;# 
  1411  051C                     	;# 
  1412  051D                     	;# 
  1413  058C                     	;# 
  1414  058C                     	;# 
  1415  058D                     	;# 
  1416  058E                     	;# 
  1417  058F                     	;# 
  1418  058F                     	;# 
  1419  0590                     	;# 
  1420  0591                     	;# 
  1421  0592                     	;# 
  1422  0593                     	;# 
  1423  060C                     	;# 
  1424  060D                     	;# 
  1425  060E                     	;# 
  1426  060F                     	;# 
  1427  0610                     	;# 
  1428  0611                     	;# 
  1429  0612                     	;# 
  1430  0613                     	;# 
  1431  0614                     	;# 
  1432  0616                     	;# 
  1433  0617                     	;# 
  1434  0618                     	;# 
  1435  0619                     	;# 
  1436  061A                     	;# 
  1437  061B                     	;# 
  1438  061C                     	;# 
  1439  061D                     	;# 
  1440  061E                     	;# 
  1441  068C                     	;# 
  1442  068D                     	;# 
  1443  068E                     	;# 
  1444  068F                     	;# 
  1445  0690                     	;# 
  1446  0691                     	;# 
  1447  0692                     	;# 
  1448  0693                     	;# 
  1449  0694                     	;# 
  1450  070C                     	;# 
  1451  070D                     	;# 
  1452  070E                     	;# 
  1453  070F                     	;# 
  1454  0710                     	;# 
  1455  0711                     	;# 
  1456  0712                     	;# 
  1457  0713                     	;# 
  1458  0714                     	;# 
  1459  0716                     	;# 
  1460  0717                     	;# 
  1461  0718                     	;# 
  1462  0719                     	;# 
  1463  071A                     	;# 
  1464  071B                     	;# 
  1465  071C                     	;# 
  1466  071D                     	;# 
  1467  071E                     	;# 
  1468  0796                     	;# 
  1469  0797                     	;# 
  1470  0798                     	;# 
  1471  0799                     	;# 
  1472  079A                     	;# 
  1473  079B                     	;# 
  1474  080C                     	;# 
  1475  080D                     	;# 
  1476  080E                     	;# 
  1477  080F                     	;# 
  1478  0810                     	;# 
  1479  0811                     	;# 
  1480  0813                     	;# 
  1481  0814                     	;# 
  1482  081A                     	;# 
  1483  081B                     	;# 
  1484  081C                     	;# 
  1485  081D                     	;# 
  1486  081E                     	;# 
  1487  081F                     	;# 
  1488  088C                     	;# 
  1489  088D                     	;# 
  1490  088E                     	;# 
  1491  088F                     	;# 
  1492  0890                     	;# 
  1493  0891                     	;# 
  1494  0892                     	;# 
  1495  0893                     	;# 
  1496  0895                     	;# 
  1497  0896                     	;# 
  1498  0897                     	;# 
  1499  0898                     	;# 
  1500  0899                     	;# 
  1501  089A                     	;# 
  1502  089B                     	;# 
  1503  090C                     	;# 
  1504  090E                     	;# 
  1505  090F                     	;# 
  1506  091F                     	;# 
  1507  091F                     	;# 
  1508  098F                     	;# 
  1509  098F                     	;# 
  1510  0990                     	;# 
  1511  0991                     	;# 
  1512  0992                     	;# 
  1513  0993                     	;# 
  1514  0994                     	;# 
  1515  0995                     	;# 
  1516  0996                     	;# 
  1517  0997                     	;# 
  1518  0E0F                     	;# 
  1519  0E10                     	;# 
  1520  0E11                     	;# 
  1521  0E12                     	;# 
  1522  0E13                     	;# 
  1523  0E14                     	;# 
  1524  0E15                     	;# 
  1525  0E16                     	;# 
  1526  0E17                     	;# 
  1527  0E18                     	;# 
  1528  0E19                     	;# 
  1529  0E1A                     	;# 
  1530  0E1B                     	;# 
  1531  0E1C                     	;# 
  1532  0E1D                     	;# 
  1533  0E1E                     	;# 
  1534  0E1F                     	;# 
  1535  0E20                     	;# 
  1536  0E21                     	;# 
  1537  0E22                     	;# 
  1538  0E23                     	;# 
  1539  0E24                     	;# 
  1540  0E25                     	;# 
  1541  0E26                     	;# 
  1542  0E27                     	;# 
  1543  0E28                     	;# 
  1544  0E29                     	;# 
  1545  0E2A                     	;# 
  1546  0E2B                     	;# 
  1547  0E2C                     	;# 
  1548  0E2D                     	;# 
  1549  0E2E                     	;# 
  1550  0E2F                     	;# 
  1551  0E30                     	;# 
  1552  0E31                     	;# 
  1553  0E32                     	;# 
  1554  0E33                     	;# 
  1555  0E34                     	;# 
  1556  0E35                     	;# 
  1557  0E36                     	;# 
  1558  0E37                     	;# 
  1559  0E8F                     	;# 
  1560  0E90                     	;# 
  1561  0E91                     	;# 
  1562  0E92                     	;# 
  1563  0E93                     	;# 
  1564  0E94                     	;# 
  1565  0E95                     	;# 
  1566  0E96                     	;# 
  1567  0E97                     	;# 
  1568  0E9C                     	;# 
  1569  0E9D                     	;# 
  1570  0E9E                     	;# 
  1571  0EA1                     	;# 
  1572  0EA2                     	;# 
  1573  0EA3                     	;# 
  1574  0EA4                     	;# 
  1575  0EA5                     	;# 
  1576  0EA9                     	;# 
  1577  0EAA                     	;# 
  1578  0EAB                     	;# 
  1579  0EAC                     	;# 
  1580  0EB1                     	;# 
  1581  0EB2                     	;# 
  1582  0EB3                     	;# 
  1583  0EB8                     	;# 
  1584  0EB9                     	;# 
  1585  0EBA                     	;# 
  1586  0EBB                     	;# 
  1587  0EBC                     	;# 
  1588  0EBD                     	;# 
  1589  0EBE                     	;# 
  1590  0EC3                     	;# 
  1591  0EC5                     	;# 
  1592  0EC6                     	;# 
  1593  0EC7                     	;# 
  1594  0EC8                     	;# 
  1595  0EC9                     	;# 
  1596  0ECA                     	;# 
  1597  0ECB                     	;# 
  1598  0ECC                     	;# 
  1599  0F10                     	;# 
  1600  0F11                     	;# 
  1601  0F12                     	;# 
  1602  0F13                     	;# 
  1603  0F14                     	;# 
  1604  0F15                     	;# 
  1605  0F16                     	;# 
  1606  0F17                     	;# 
  1607  0F18                     	;# 
  1608  0F19                     	;# 
  1609  0F1A                     	;# 
  1610  0F1B                     	;# 
  1611  0F1C                     	;# 
  1612  0F1D                     	;# 
  1613  0F1E                     	;# 
  1614  0F1F                     	;# 
  1615  0F20                     	;# 
  1616  0F21                     	;# 
  1617  0F22                     	;# 
  1618  0F23                     	;# 
  1619  0F24                     	;# 
  1620  0F25                     	;# 
  1621  0F26                     	;# 
  1622  0F27                     	;# 
  1623  0F38                     	;# 
  1624  0F39                     	;# 
  1625  0F3A                     	;# 
  1626  0F3B                     	;# 
  1627  0F3C                     	;# 
  1628  0F3D                     	;# 
  1629  0F3E                     	;# 
  1630  0F3F                     	;# 
  1631  0F40                     	;# 
  1632  0F41                     	;# 
  1633  0F43                     	;# 
  1634  0F44                     	;# 
  1635  0F45                     	;# 
  1636  0F46                     	;# 
  1637  0F47                     	;# 
  1638  0F48                     	;# 
  1639  0F49                     	;# 
  1640  0F4A                     	;# 
  1641  0F4B                     	;# 
  1642  0F4C                     	;# 
  1643  0F4E                     	;# 
  1644  0F4F                     	;# 
  1645  0F50                     	;# 
  1646  0F51                     	;# 
  1647  0F52                     	;# 
  1648  0F53                     	;# 
  1649  0F54                     	;# 
  1650  0F55                     	;# 
  1651  0F56                     	;# 
  1652  0F57                     	;# 
  1653  0F65                     	;# 
  1654  0F68                     	;# 
  1655  0F69                     	;# 
  1656  0F6A                     	;# 
  1657  0F6B                     	;# 
  1658  0FE4                     	;# 
  1659  0FE5                     	;# 
  1660  0FE6                     	;# 
  1661  0FE7                     	;# 
  1662  0FE8                     	;# 
  1663  0FE9                     	;# 
  1664  0FEA                     	;# 
  1665  0FEB                     	;# 
  1666  0FED                     	;# 
  1667  0FEE                     	;# 
  1668  0FEF                     	;# 
  1669  0000                     	;# 
  1670  0001                     	;# 
  1671  0002                     	;# 
  1672  0003                     	;# 
  1673  0004                     	;# 
  1674  0005                     	;# 
  1675  0006                     	;# 
  1676  0007                     	;# 
  1677  0008                     	;# 
  1678  0009                     	;# 
  1679  000A                     	;# 
  1680  000B                     	;# 
  1681  000C                     	;# 
  1682  000D                     	;# 
  1683  000E                     	;# 
  1684  0010                     	;# 
  1685  0011                     	;# 
  1686  0012                     	;# 
  1687  0013                     	;# 
  1688  0016                     	;# 
  1689  0017                     	;# 
  1690  0018                     	;# 
  1691  001C                     	;# 
  1692  001C                     	;# 
  1693  001D                     	;# 
  1694  001D                     	;# 
  1695  001E                     	;# 
  1696  001F                     	;# 
  1697  008C                     	;# 
  1698  008C                     	;# 
  1699  008D                     	;# 
  1700  008E                     	;# 
  1701  008E                     	;# 
  1702  008F                     	;# 
  1703  0090                     	;# 
  1704  0090                     	;# 
  1705  0091                     	;# 
  1706  0093                     	;# 
  1707  0094                     	;# 
  1708  0095                     	;# 
  1709  0096                     	;# 
  1710  0097                     	;# 
  1711  0098                     	;# 
  1712  0099                     	;# 
  1713  009A                     	;# 
  1714  009B                     	;# 
  1715  009C                     	;# 
  1716  009D                     	;# 
  1717  009E                     	;# 
  1718  010C                     	;# 
  1719  010D                     	;# 
  1720  010E                     	;# 
  1721  010E                     	;# 
  1722  010F                     	;# 
  1723  0110                     	;# 
  1724  0110                     	;# 
  1725  0111                     	;# 
  1726  0112                     	;# 
  1727  0112                     	;# 
  1728  0113                     	;# 
  1729  0114                     	;# 
  1730  0114                     	;# 
  1731  0115                     	;# 
  1732  0116                     	;# 
  1733  0116                     	;# 
  1734  0117                     	;# 
  1735  0119                     	;# 
  1736  0119                     	;# 
  1737  0119                     	;# 
  1738  011A                     	;# 
  1739  011A                     	;# 
  1740  011A                     	;# 
  1741  011B                     	;# 
  1742  011B                     	;# 
  1743  011B                     	;# 
  1744  011B                     	;# 
  1745  011B                     	;# 
  1746  011C                     	;# 
  1747  011C                     	;# 
  1748  011C                     	;# 
  1749  011D                     	;# 
  1750  011D                     	;# 
  1751  011D                     	;# 
  1752  011E                     	;# 
  1753  011E                     	;# 
  1754  011E                     	;# 
  1755  011F                     	;# 
  1756  011F                     	;# 
  1757  011F                     	;# 
  1758  011F                     	;# 
  1759  011F                     	;# 
  1760  018C                     	;# 
  1761  018D                     	;# 
  1762  018E                     	;# 
  1763  018F                     	;# 
  1764  0190                     	;# 
  1765  0191                     	;# 
  1766  0192                     	;# 
  1767  0196                     	;# 
  1768  0197                     	;# 
  1769  0198                     	;# 
  1770  0199                     	;# 
  1771  019A                     	;# 
  1772  019B                     	;# 
  1773  019C                     	;# 
  1774  020C                     	;# 
  1775  020C                     	;# 
  1776  020D                     	;# 
  1777  020E                     	;# 
  1778  020F                     	;# 
  1779  020F                     	;# 
  1780  0210                     	;# 
  1781  0210                     	;# 
  1782  0211                     	;# 
  1783  0211                     	;# 
  1784  0212                     	;# 
  1785  0212                     	;# 
  1786  0213                     	;# 
  1787  0214                     	;# 
  1788  0215                     	;# 
  1789  0215                     	;# 
  1790  0216                     	;# 
  1791  0216                     	;# 
  1792  0217                     	;# 
  1793  0217                     	;# 
  1794  0218                     	;# 
  1795  0218                     	;# 
  1796  0219                     	;# 
  1797  021A                     	;# 
  1798  021B                     	;# 
  1799  021B                     	;# 
  1800  021C                     	;# 
  1801  021C                     	;# 
  1802  021D                     	;# 
  1803  021D                     	;# 
  1804  021E                     	;# 
  1805  021F                     	;# 
  1806  028C                     	;# 
  1807  028C                     	;# 
  1808  028D                     	;# 
  1809  028D                     	;# 
  1810  028E                     	;# 
  1811  028F                     	;# 
  1812  0290                     	;# 
  1813  0290                     	;# 
  1814  0291                     	;# 
  1815  0292                     	;# 
  1816  0292                     	;# 
  1817  0293                     	;# 
  1818  0293                     	;# 
  1819  0294                     	;# 
  1820  0295                     	;# 
  1821  0296                     	;# 
  1822  0296                     	;# 
  1823  0297                     	;# 
  1824  0298                     	;# 
  1825  0298                     	;# 
  1826  0299                     	;# 
  1827  0299                     	;# 
  1828  029A                     	;# 
  1829  029B                     	;# 
  1830  029C                     	;# 
  1831  029C                     	;# 
  1832  029D                     	;# 
  1833  030C                     	;# 
  1834  030C                     	;# 
  1835  030D                     	;# 
  1836  030E                     	;# 
  1837  030F                     	;# 
  1838  0310                     	;# 
  1839  0310                     	;# 
  1840  0311                     	;# 
  1841  0312                     	;# 
  1842  0313                     	;# 
  1843  0314                     	;# 
  1844  0314                     	;# 
  1845  0315                     	;# 
  1846  0316                     	;# 
  1847  0317                     	;# 
  1848  0318                     	;# 
  1849  0318                     	;# 
  1850  0319                     	;# 
  1851  031A                     	;# 
  1852  031B                     	;# 
  1853  031C                     	;# 
  1854  031C                     	;# 
  1855  031D                     	;# 
  1856  031E                     	;# 
  1857  031F                     	;# 
  1858  038C                     	;# 
  1859  038C                     	;# 
  1860  038D                     	;# 
  1861  038E                     	;# 
  1862  0390                     	;# 
  1863  0390                     	;# 
  1864  0391                     	;# 
  1865  0392                     	;# 
  1866  040C                     	;# 
  1867  040D                     	;# 
  1868  040E                     	;# 
  1869  040F                     	;# 
  1870  0410                     	;# 
  1871  0411                     	;# 
  1872  0416                     	;# 
  1873  0416                     	;# 
  1874  0417                     	;# 
  1875  0418                     	;# 
  1876  0418                     	;# 
  1877  0419                     	;# 
  1878  041A                     	;# 
  1879  041A                     	;# 
  1880  041B                     	;# 
  1881  041C                     	;# 
  1882  041C                     	;# 
  1883  041D                     	;# 
  1884  041E                     	;# 
  1885  041F                     	;# 
  1886  048C                     	;# 
  1887  048C                     	;# 
  1888  048D                     	;# 
  1889  048E                     	;# 
  1890  048F                     	;# 
  1891  048F                     	;# 
  1892  0490                     	;# 
  1893  0491                     	;# 
  1894  0492                     	;# 
  1895  0492                     	;# 
  1896  0493                     	;# 
  1897  0494                     	;# 
  1898  0495                     	;# 
  1899  0495                     	;# 
  1900  0496                     	;# 
  1901  0497                     	;# 
  1902  0498                     	;# 
  1903  0499                     	;# 
  1904  049A                     	;# 
  1905  049B                     	;# 
  1906  049C                     	;# 
  1907  049D                     	;# 
  1908  050C                     	;# 
  1909  050C                     	;# 
  1910  050D                     	;# 
  1911  050E                     	;# 
  1912  050F                     	;# 
  1913  050F                     	;# 
  1914  0510                     	;# 
  1915  0511                     	;# 
  1916  0512                     	;# 
  1917  0512                     	;# 
  1918  0513                     	;# 
  1919  0514                     	;# 
  1920  0515                     	;# 
  1921  0515                     	;# 
  1922  0516                     	;# 
  1923  0517                     	;# 
  1924  0518                     	;# 
  1925  0519                     	;# 
  1926  051A                     	;# 
  1927  051B                     	;# 
  1928  051C                     	;# 
  1929  051D                     	;# 
  1930  058C                     	;# 
  1931  058C                     	;# 
  1932  058D                     	;# 
  1933  058E                     	;# 
  1934  058F                     	;# 
  1935  058F                     	;# 
  1936  0590                     	;# 
  1937  0591                     	;# 
  1938  0592                     	;# 
  1939  0593                     	;# 
  1940  060C                     	;# 
  1941  060D                     	;# 
  1942  060E                     	;# 
  1943  060F                     	;# 
  1944  0610                     	;# 
  1945  0611                     	;# 
  1946  0612                     	;# 
  1947  0613                     	;# 
  1948  0614                     	;# 
  1949  0616                     	;# 
  1950  0617                     	;# 
  1951  0618                     	;# 
  1952  0619                     	;# 
  1953  061A                     	;# 
  1954  061B                     	;# 
  1955  061C                     	;# 
  1956  061D                     	;# 
  1957  061E                     	;# 
  1958  068C                     	;# 
  1959  068D                     	;# 
  1960  068E                     	;# 
  1961  068F                     	;# 
  1962  0690                     	;# 
  1963  0691                     	;# 
  1964  0692                     	;# 
  1965  0693                     	;# 
  1966  0694                     	;# 
  1967  070C                     	;# 
  1968  070D                     	;# 
  1969  070E                     	;# 
  1970  070F                     	;# 
  1971  0710                     	;# 
  1972  0711                     	;# 
  1973  0712                     	;# 
  1974  0713                     	;# 
  1975  0714                     	;# 
  1976  0716                     	;# 
  1977  0717                     	;# 
  1978  0718                     	;# 
  1979  0719                     	;# 
  1980  071A                     	;# 
  1981  071B                     	;# 
  1982  071C                     	;# 
  1983  071D                     	;# 
  1984  071E                     	;# 
  1985  0796                     	;# 
  1986  0797                     	;# 
  1987  0798                     	;# 
  1988  0799                     	;# 
  1989  079A                     	;# 
  1990  079B                     	;# 
  1991  080C                     	;# 
  1992  080D                     	;# 
  1993  080E                     	;# 
  1994  080F                     	;# 
  1995  0810                     	;# 
  1996  0811                     	;# 
  1997  0813                     	;# 
  1998  0814                     	;# 
  1999  081A                     	;# 
  2000  081B                     	;# 
  2001  081C                     	;# 
  2002  081D                     	;# 
  2003  081E                     	;# 
  2004  081F                     	;# 
  2005  088C                     	;# 
  2006  088D                     	;# 
  2007  088E                     	;# 
  2008  088F                     	;# 
  2009  0890                     	;# 
  2010  0891                     	;# 
  2011  0892                     	;# 
  2012  0893                     	;# 
  2013  0895                     	;# 
  2014  0896                     	;# 
  2015  0897                     	;# 
  2016  0898                     	;# 
  2017  0899                     	;# 
  2018  089A                     	;# 
  2019  089B                     	;# 
  2020  090C                     	;# 
  2021  090E                     	;# 
  2022  090F                     	;# 
  2023  091F                     	;# 
  2024  091F                     	;# 
  2025  098F                     	;# 
  2026  098F                     	;# 
  2027  0990                     	;# 
  2028  0991                     	;# 
  2029  0992                     	;# 
  2030  0993                     	;# 
  2031  0994                     	;# 
  2032  0995                     	;# 
  2033  0996                     	;# 
  2034  0997                     	;# 
  2035  0E0F                     	;# 
  2036  0E10                     	;# 
  2037  0E11                     	;# 
  2038  0E12                     	;# 
  2039  0E13                     	;# 
  2040  0E14                     	;# 
  2041  0E15                     	;# 
  2042  0E16                     	;# 
  2043  0E17                     	;# 
  2044  0E18                     	;# 
  2045  0E19                     	;# 
  2046  0E1A                     	;# 
  2047  0E1B                     	;# 
  2048  0E1C                     	;# 
  2049  0E1D                     	;# 
  2050  0E1E                     	;# 
  2051  0E1F                     	;# 
  2052  0E20                     	;# 
  2053  0E21                     	;# 
  2054  0E22                     	;# 
  2055  0E23                     	;# 
  2056  0E24                     	;# 
  2057  0E25                     	;# 
  2058  0E26                     	;# 
  2059  0E27                     	;# 
  2060  0E28                     	;# 
  2061  0E29                     	;# 
  2062  0E2A                     	;# 
  2063  0E2B                     	;# 
  2064  0E2C                     	;# 
  2065  0E2D                     	;# 
  2066  0E2E                     	;# 
  2067  0E2F                     	;# 
  2068  0E30                     	;# 
  2069  0E31                     	;# 
  2070  0E32                     	;# 
  2071  0E33                     	;# 
  2072  0E34                     	;# 
  2073  0E35                     	;# 
  2074  0E36                     	;# 
  2075  0E37                     	;# 
  2076  0E8F                     	;# 
  2077  0E90                     	;# 
  2078  0E91                     	;# 
  2079  0E92                     	;# 
  2080  0E93                     	;# 
  2081  0E94                     	;# 
  2082  0E95                     	;# 
  2083  0E96                     	;# 
  2084  0E97                     	;# 
  2085  0E9C                     	;# 
  2086  0E9D                     	;# 
  2087  0E9E                     	;# 
  2088  0EA1                     	;# 
  2089  0EA2                     	;# 
  2090  0EA3                     	;# 
  2091  0EA4                     	;# 
  2092  0EA5                     	;# 
  2093  0EA9                     	;# 
  2094  0EAA                     	;# 
  2095  0EAB                     	;# 
  2096  0EAC                     	;# 
  2097  0EB1                     	;# 
  2098  0EB2                     	;# 
  2099  0EB3                     	;# 
  2100  0EB8                     	;# 
  2101  0EB9                     	;# 
  2102  0EBA                     	;# 
  2103  0EBB                     	;# 
  2104  0EBC                     	;# 
  2105  0EBD                     	;# 
  2106  0EBE                     	;# 
  2107  0EC3                     	;# 
  2108  0EC5                     	;# 
  2109  0EC6                     	;# 
  2110  0EC7                     	;# 
  2111  0EC8                     	;# 
  2112  0EC9                     	;# 
  2113  0ECA                     	;# 
  2114  0ECB                     	;# 
  2115  0ECC                     	;# 
  2116  0F10                     	;# 
  2117  0F11                     	;# 
  2118  0F12                     	;# 
  2119  0F13                     	;# 
  2120  0F14                     	;# 
  2121  0F15                     	;# 
  2122  0F16                     	;# 
  2123  0F17                     	;# 
  2124  0F18                     	;# 
  2125  0F19                     	;# 
  2126  0F1A                     	;# 
  2127  0F1B                     	;# 
  2128  0F1C                     	;# 
  2129  0F1D                     	;# 
  2130  0F1E                     	;# 
  2131  0F1F                     	;# 
  2132  0F20                     	;# 
  2133  0F21                     	;# 
  2134  0F22                     	;# 
  2135  0F23                     	;# 
  2136  0F24                     	;# 
  2137  0F25                     	;# 
  2138  0F26                     	;# 
  2139  0F27                     	;# 
  2140  0F38                     	;# 
  2141  0F39                     	;# 
  2142  0F3A                     	;# 
  2143  0F3B                     	;# 
  2144  0F3C                     	;# 
  2145  0F3D                     	;# 
  2146  0F3E                     	;# 
  2147  0F3F                     	;# 
  2148  0F40                     	;# 
  2149  0F41                     	;# 
  2150  0F43                     	;# 
  2151  0F44                     	;# 
  2152  0F45                     	;# 
  2153  0F46                     	;# 
  2154  0F47                     	;# 
  2155  0F48                     	;# 
  2156  0F49                     	;# 
  2157  0F4A                     	;# 
  2158  0F4B                     	;# 
  2159  0F4C                     	;# 
  2160  0F4E                     	;# 
  2161  0F4F                     	;# 
  2162  0F50                     	;# 
  2163  0F51                     	;# 
  2164  0F52                     	;# 
  2165  0F53                     	;# 
  2166  0F54                     	;# 
  2167  0F55                     	;# 
  2168  0F56                     	;# 
  2169  0F57                     	;# 
  2170  0F65                     	;# 
  2171  0F68                     	;# 
  2172  0F69                     	;# 
  2173  0F6A                     	;# 
  2174  0F6B                     	;# 
  2175  0FE4                     	;# 
  2176  0FE5                     	;# 
  2177  0FE6                     	;# 
  2178  0FE7                     	;# 
  2179  0FE8                     	;# 
  2180  0FE9                     	;# 
  2181  0FEA                     	;# 
  2182  0FEB                     	;# 
  2183  0FED                     	;# 
  2184  0FEE                     	;# 
  2185  0FEF                     	;# 
  2186  0000                     	;# 
  2187  0001                     	;# 
  2188  0002                     	;# 
  2189  0003                     	;# 
  2190  0004                     	;# 
  2191  0005                     	;# 
  2192  0006                     	;# 
  2193  0007                     	;# 
  2194  0008                     	;# 
  2195  0009                     	;# 
  2196  000A                     	;# 
  2197  000B                     	;# 
  2198  000C                     	;# 
  2199  000D                     	;# 
  2200  000E                     	;# 
  2201  0010                     	;# 
  2202  0011                     	;# 
  2203  0012                     	;# 
  2204  0013                     	;# 
  2205  0016                     	;# 
  2206  0017                     	;# 
  2207  0018                     	;# 
  2208  001C                     	;# 
  2209  001C                     	;# 
  2210  001D                     	;# 
  2211  001D                     	;# 
  2212  001E                     	;# 
  2213  001F                     	;# 
  2214  008C                     	;# 
  2215  008C                     	;# 
  2216  008D                     	;# 
  2217  008E                     	;# 
  2218  008E                     	;# 
  2219  008F                     	;# 
  2220  0090                     	;# 
  2221  0090                     	;# 
  2222  0091                     	;# 
  2223  0093                     	;# 
  2224  0094                     	;# 
  2225  0095                     	;# 
  2226  0096                     	;# 
  2227  0097                     	;# 
  2228  0098                     	;# 
  2229  0099                     	;# 
  2230  009A                     	;# 
  2231  009B                     	;# 
  2232  009C                     	;# 
  2233  009D                     	;# 
  2234  009E                     	;# 
  2235  010C                     	;# 
  2236  010D                     	;# 
  2237  010E                     	;# 
  2238  010E                     	;# 
  2239  010F                     	;# 
  2240  0110                     	;# 
  2241  0110                     	;# 
  2242  0111                     	;# 
  2243  0112                     	;# 
  2244  0112                     	;# 
  2245  0113                     	;# 
  2246  0114                     	;# 
  2247  0114                     	;# 
  2248  0115                     	;# 
  2249  0116                     	;# 
  2250  0116                     	;# 
  2251  0117                     	;# 
  2252  0119                     	;# 
  2253  0119                     	;# 
  2254  0119                     	;# 
  2255  011A                     	;# 
  2256  011A                     	;# 
  2257  011A                     	;# 
  2258  011B                     	;# 
  2259  011B                     	;# 
  2260  011B                     	;# 
  2261  011B                     	;# 
  2262  011B                     	;# 
  2263  011C                     	;# 
  2264  011C                     	;# 
  2265  011C                     	;# 
  2266  011D                     	;# 
  2267  011D                     	;# 
  2268  011D                     	;# 
  2269  011E                     	;# 
  2270  011E                     	;# 
  2271  011E                     	;# 
  2272  011F                     	;# 
  2273  011F                     	;# 
  2274  011F                     	;# 
  2275  011F                     	;# 
  2276  011F                     	;# 
  2277  018C                     	;# 
  2278  018D                     	;# 
  2279  018E                     	;# 
  2280  018F                     	;# 
  2281  0190                     	;# 
  2282  0191                     	;# 
  2283  0192                     	;# 
  2284  0196                     	;# 
  2285  0197                     	;# 
  2286  0198                     	;# 
  2287  0199                     	;# 
  2288  019A                     	;# 
  2289  019B                     	;# 
  2290  019C                     	;# 
  2291  020C                     	;# 
  2292  020C                     	;# 
  2293  020D                     	;# 
  2294  020E                     	;# 
  2295  020F                     	;# 
  2296  020F                     	;# 
  2297  0210                     	;# 
  2298  0210                     	;# 
  2299  0211                     	;# 
  2300  0211                     	;# 
  2301  0212                     	;# 
  2302  0212                     	;# 
  2303  0213                     	;# 
  2304  0214                     	;# 
  2305  0215                     	;# 
  2306  0215                     	;# 
  2307  0216                     	;# 
  2308  0216                     	;# 
  2309  0217                     	;# 
  2310  0217                     	;# 
  2311  0218                     	;# 
  2312  0218                     	;# 
  2313  0219                     	;# 
  2314  021A                     	;# 
  2315  021B                     	;# 
  2316  021B                     	;# 
  2317  021C                     	;# 
  2318  021C                     	;# 
  2319  021D                     	;# 
  2320  021D                     	;# 
  2321  021E                     	;# 
  2322  021F                     	;# 
  2323  028C                     	;# 
  2324  028C                     	;# 
  2325  028D                     	;# 
  2326  028D                     	;# 
  2327  028E                     	;# 
  2328  028F                     	;# 
  2329  0290                     	;# 
  2330  0290                     	;# 
  2331  0291                     	;# 
  2332  0292                     	;# 
  2333  0292                     	;# 
  2334  0293                     	;# 
  2335  0293                     	;# 
  2336  0294                     	;# 
  2337  0295                     	;# 
  2338  0296                     	;# 
  2339  0296                     	;# 
  2340  0297                     	;# 
  2341  0298                     	;# 
  2342  0298                     	;# 
  2343  0299                     	;# 
  2344  0299                     	;# 
  2345  029A                     	;# 
  2346  029B                     	;# 
  2347  029C                     	;# 
  2348  029C                     	;# 
  2349  029D                     	;# 
  2350  030C                     	;# 
  2351  030C                     	;# 
  2352  030D                     	;# 
  2353  030E                     	;# 
  2354  030F                     	;# 
  2355  0310                     	;# 
  2356  0310                     	;# 
  2357  0311                     	;# 
  2358  0312                     	;# 
  2359  0313                     	;# 
  2360  0314                     	;# 
  2361  0314                     	;# 
  2362  0315                     	;# 
  2363  0316                     	;# 
  2364  0317                     	;# 
  2365  0318                     	;# 
  2366  0318                     	;# 
  2367  0319                     	;# 
  2368  031A                     	;# 
  2369  031B                     	;# 
  2370  031C                     	;# 
  2371  031C                     	;# 
  2372  031D                     	;# 
  2373  031E                     	;# 
  2374  031F                     	;# 
  2375  038C                     	;# 
  2376  038C                     	;# 
  2377  038D                     	;# 
  2378  038E                     	;# 
  2379  0390                     	;# 
  2380  0390                     	;# 
  2381  0391                     	;# 
  2382  0392                     	;# 
  2383  040C                     	;# 
  2384  040D                     	;# 
  2385  040E                     	;# 
  2386  040F                     	;# 
  2387  0410                     	;# 
  2388  0411                     	;# 
  2389  0416                     	;# 
  2390  0416                     	;# 
  2391  0417                     	;# 
  2392  0418                     	;# 
  2393  0418                     	;# 
  2394  0419                     	;# 
  2395  041A                     	;# 
  2396  041A                     	;# 
  2397  041B                     	;# 
  2398  041C                     	;# 
  2399  041C                     	;# 
  2400  041D                     	;# 
  2401  041E                     	;# 
  2402  041F                     	;# 
  2403  048C                     	;# 
  2404  048C                     	;# 
  2405  048D                     	;# 
  2406  048E                     	;# 
  2407  048F                     	;# 
  2408  048F                     	;# 
  2409  0490                     	;# 
  2410  0491                     	;# 
  2411  0492                     	;# 
  2412  0492                     	;# 
  2413  0493                     	;# 
  2414  0494                     	;# 
  2415  0495                     	;# 
  2416  0495                     	;# 
  2417  0496                     	;# 
  2418  0497                     	;# 
  2419  0498                     	;# 
  2420  0499                     	;# 
  2421  049A                     	;# 
  2422  049B                     	;# 
  2423  049C                     	;# 
  2424  049D                     	;# 
  2425  050C                     	;# 
  2426  050C                     	;# 
  2427  050D                     	;# 
  2428  050E                     	;# 
  2429  050F                     	;# 
  2430  050F                     	;# 
  2431  0510                     	;# 
  2432  0511                     	;# 
  2433  0512                     	;# 
  2434  0512                     	;# 
  2435  0513                     	;# 
  2436  0514                     	;# 
  2437  0515                     	;# 
  2438  0515                     	;# 
  2439  0516                     	;# 
  2440  0517                     	;# 
  2441  0518                     	;# 
  2442  0519                     	;# 
  2443  051A                     	;# 
  2444  051B                     	;# 
  2445  051C                     	;# 
  2446  051D                     	;# 
  2447  058C                     	;# 
  2448  058C                     	;# 
  2449  058D                     	;# 
  2450  058E                     	;# 
  2451  058F                     	;# 
  2452  058F                     	;# 
  2453  0590                     	;# 
  2454  0591                     	;# 
  2455  0592                     	;# 
  2456  0593                     	;# 
  2457  060C                     	;# 
  2458  060D                     	;# 
  2459  060E                     	;# 
  2460  060F                     	;# 
  2461  0610                     	;# 
  2462  0611                     	;# 
  2463  0612                     	;# 
  2464  0613                     	;# 
  2465  0614                     	;# 
  2466  0616                     	;# 
  2467  0617                     	;# 
  2468  0618                     	;# 
  2469  0619                     	;# 
  2470  061A                     	;# 
  2471  061B                     	;# 
  2472  061C                     	;# 
  2473  061D                     	;# 
  2474  061E                     	;# 
  2475  068C                     	;# 
  2476  068D                     	;# 
  2477  068E                     	;# 
  2478  068F                     	;# 
  2479  0690                     	;# 
  2480  0691                     	;# 
  2481  0692                     	;# 
  2482  0693                     	;# 
  2483  0694                     	;# 
  2484  070C                     	;# 
  2485  070D                     	;# 
  2486  070E                     	;# 
  2487  070F                     	;# 
  2488  0710                     	;# 
  2489  0711                     	;# 
  2490  0712                     	;# 
  2491  0713                     	;# 
  2492  0714                     	;# 
  2493  0716                     	;# 
  2494  0717                     	;# 
  2495  0718                     	;# 
  2496  0719                     	;# 
  2497  071A                     	;# 
  2498  071B                     	;# 
  2499  071C                     	;# 
  2500  071D                     	;# 
  2501  071E                     	;# 
  2502  0796                     	;# 
  2503  0797                     	;# 
  2504  0798                     	;# 
  2505  0799                     	;# 
  2506  079A                     	;# 
  2507  079B                     	;# 
  2508  080C                     	;# 
  2509  080D                     	;# 
  2510  080E                     	;# 
  2511  080F                     	;# 
  2512  0810                     	;# 
  2513  0811                     	;# 
  2514  0813                     	;# 
  2515  0814                     	;# 
  2516  081A                     	;# 
  2517  081B                     	;# 
  2518  081C                     	;# 
  2519  081D                     	;# 
  2520  081E                     	;# 
  2521  081F                     	;# 
  2522  088C                     	;# 
  2523  088D                     	;# 
  2524  088E                     	;# 
  2525  088F                     	;# 
  2526  0890                     	;# 
  2527  0891                     	;# 
  2528  0892                     	;# 
  2529  0893                     	;# 
  2530  0895                     	;# 
  2531  0896                     	;# 
  2532  0897                     	;# 
  2533  0898                     	;# 
  2534  0899                     	;# 
  2535  089A                     	;# 
  2536  089B                     	;# 
  2537  090C                     	;# 
  2538  090E                     	;# 
  2539  090F                     	;# 
  2540  091F                     	;# 
  2541  091F                     	;# 
  2542  098F                     	;# 
  2543  098F                     	;# 
  2544  0990                     	;# 
  2545  0991                     	;# 
  2546  0992                     	;# 
  2547  0993                     	;# 
  2548  0994                     	;# 
  2549  0995                     	;# 
  2550  0996                     	;# 
  2551  0997                     	;# 
  2552  0E0F                     	;# 
  2553  0E10                     	;# 
  2554  0E11                     	;# 
  2555  0E12                     	;# 
  2556  0E13                     	;# 
  2557  0E14                     	;# 
  2558  0E15                     	;# 
  2559  0E16                     	;# 
  2560  0E17                     	;# 
  2561  0E18                     	;# 
  2562  0E19                     	;# 
  2563  0E1A                     	;# 
  2564  0E1B                     	;# 
  2565  0E1C                     	;# 
  2566  0E1D                     	;# 
  2567  0E1E                     	;# 
  2568  0E1F                     	;# 
  2569  0E20                     	;# 
  2570  0E21                     	;# 
  2571  0E22                     	;# 
  2572  0E23                     	;# 
  2573  0E24                     	;# 
  2574  0E25                     	;# 
  2575  0E26                     	;# 
  2576  0E27                     	;# 
  2577  0E28                     	;# 
  2578  0E29                     	;# 
  2579  0E2A                     	;# 
  2580  0E2B                     	;# 
  2581  0E2C                     	;# 
  2582  0E2D                     	;# 
  2583  0E2E                     	;# 
  2584  0E2F                     	;# 
  2585  0E30                     	;# 
  2586  0E31                     	;# 
  2587  0E32                     	;# 
  2588  0E33                     	;# 
  2589  0E34                     	;# 
  2590  0E35                     	;# 
  2591  0E36                     	;# 
  2592  0E37                     	;# 
  2593  0E8F                     	;# 
  2594  0E90                     	;# 
  2595  0E91                     	;# 
  2596  0E92                     	;# 
  2597  0E93                     	;# 
  2598  0E94                     	;# 
  2599  0E95                     	;# 
  2600  0E96                     	;# 
  2601  0E97                     	;# 
  2602  0E9C                     	;# 
  2603  0E9D                     	;# 
  2604  0E9E                     	;# 
  2605  0EA1                     	;# 
  2606  0EA2                     	;# 
  2607  0EA3                     	;# 
  2608  0EA4                     	;# 
  2609  0EA5                     	;# 
  2610  0EA9                     	;# 
  2611  0EAA                     	;# 
  2612  0EAB                     	;# 
  2613  0EAC                     	;# 
  2614  0EB1                     	;# 
  2615  0EB2                     	;# 
  2616  0EB3                     	;# 
  2617  0EB8                     	;# 
  2618  0EB9                     	;# 
  2619  0EBA                     	;# 
  2620  0EBB                     	;# 
  2621  0EBC                     	;# 
  2622  0EBD                     	;# 
  2623  0EBE                     	;# 
  2624  0EC3                     	;# 
  2625  0EC5                     	;# 
  2626  0EC6                     	;# 
  2627  0EC7                     	;# 
  2628  0EC8                     	;# 
  2629  0EC9                     	;# 
  2630  0ECA                     	;# 
  2631  0ECB                     	;# 
  2632  0ECC                     	;# 
  2633  0F10                     	;# 
  2634  0F11                     	;# 
  2635  0F12                     	;# 
  2636  0F13                     	;# 
  2637  0F14                     	;# 
  2638  0F15                     	;# 
  2639  0F16                     	;# 
  2640  0F17                     	;# 
  2641  0F18                     	;# 
  2642  0F19                     	;# 
  2643  0F1A                     	;# 
  2644  0F1B                     	;# 
  2645  0F1C                     	;# 
  2646  0F1D                     	;# 
  2647  0F1E                     	;# 
  2648  0F1F                     	;# 
  2649  0F20                     	;# 
  2650  0F21                     	;# 
  2651  0F22                     	;# 
  2652  0F23                     	;# 
  2653  0F24                     	;# 
  2654  0F25                     	;# 
  2655  0F26                     	;# 
  2656  0F27                     	;# 
  2657  0F38                     	;# 
  2658  0F39                     	;# 
  2659  0F3A                     	;# 
  2660  0F3B                     	;# 
  2661  0F3C                     	;# 
  2662  0F3D                     	;# 
  2663  0F3E                     	;# 
  2664  0F3F                     	;# 
  2665  0F40                     	;# 
  2666  0F41                     	;# 
  2667  0F43                     	;# 
  2668  0F44                     	;# 
  2669  0F45                     	;# 
  2670  0F46                     	;# 
  2671  0F47                     	;# 
  2672  0F48                     	;# 
  2673  0F49                     	;# 
  2674  0F4A                     	;# 
  2675  0F4B                     	;# 
  2676  0F4C                     	;# 
  2677  0F4E                     	;# 
  2678  0F4F                     	;# 
  2679  0F50                     	;# 
  2680  0F51                     	;# 
  2681  0F52                     	;# 
  2682  0F53                     	;# 
  2683  0F54                     	;# 
  2684  0F55                     	;# 
  2685  0F56                     	;# 
  2686  0F57                     	;# 
  2687  0F65                     	;# 
  2688  0F68                     	;# 
  2689  0F69                     	;# 
  2690  0F6A                     	;# 
  2691  0F6B                     	;# 
  2692  0FE4                     	;# 
  2693  0FE5                     	;# 
  2694  0FE6                     	;# 
  2695  0FE7                     	;# 
  2696  0FE8                     	;# 
  2697  0FE9                     	;# 
  2698  0FEA                     	;# 
  2699  0FEB                     	;# 
  2700  0FED                     	;# 
  2701  0FEE                     	;# 
  2702  0FEF                     	;# 
  2703  0000                     	;# 
  2704  0001                     	;# 
  2705  0002                     	;# 
  2706  0003                     	;# 
  2707  0004                     	;# 
  2708  0005                     	;# 
  2709  0006                     	;# 
  2710  0007                     	;# 
  2711  0008                     	;# 
  2712  0009                     	;# 
  2713  000A                     	;# 
  2714  000B                     	;# 
  2715  000C                     	;# 
  2716  000D                     	;# 
  2717  000E                     	;# 
  2718  0010                     	;# 
  2719  0011                     	;# 
  2720  0012                     	;# 
  2721  0013                     	;# 
  2722  0016                     	;# 
  2723  0017                     	;# 
  2724  0018                     	;# 
  2725  001C                     	;# 
  2726  001C                     	;# 
  2727  001D                     	;# 
  2728  001D                     	;# 
  2729  001E                     	;# 
  2730  001F                     	;# 
  2731  008C                     	;# 
  2732  008C                     	;# 
  2733  008D                     	;# 
  2734  008E                     	;# 
  2735  008E                     	;# 
  2736  008F                     	;# 
  2737  0090                     	;# 
  2738  0090                     	;# 
  2739  0091                     	;# 
  2740  0093                     	;# 
  2741  0094                     	;# 
  2742  0095                     	;# 
  2743  0096                     	;# 
  2744  0097                     	;# 
  2745  0098                     	;# 
  2746  0099                     	;# 
  2747  009A                     	;# 
  2748  009B                     	;# 
  2749  009C                     	;# 
  2750  009D                     	;# 
  2751  009E                     	;# 
  2752  010C                     	;# 
  2753  010D                     	;# 
  2754  010E                     	;# 
  2755  010E                     	;# 
  2756  010F                     	;# 
  2757  0110                     	;# 
  2758  0110                     	;# 
  2759  0111                     	;# 
  2760  0112                     	;# 
  2761  0112                     	;# 
  2762  0113                     	;# 
  2763  0114                     	;# 
  2764  0114                     	;# 
  2765  0115                     	;# 
  2766  0116                     	;# 
  2767  0116                     	;# 
  2768  0117                     	;# 
  2769  0119                     	;# 
  2770  0119                     	;# 
  2771  0119                     	;# 
  2772  011A                     	;# 
  2773  011A                     	;# 
  2774  011A                     	;# 
  2775  011B                     	;# 
  2776  011B                     	;# 
  2777  011B                     	;# 
  2778  011B                     	;# 
  2779  011B                     	;# 
  2780  011C                     	;# 
  2781  011C                     	;# 
  2782  011C                     	;# 
  2783  011D                     	;# 
  2784  011D                     	;# 
  2785  011D                     	;# 
  2786  011E                     	;# 
  2787  011E                     	;# 
  2788  011E                     	;# 
  2789  011F                     	;# 
  2790  011F                     	;# 
  2791  011F                     	;# 
  2792  011F                     	;# 
  2793  011F                     	;# 
  2794  018C                     	;# 
  2795  018D                     	;# 
  2796  018E                     	;# 
  2797  018F                     	;# 
  2798  0190                     	;# 
  2799  0191                     	;# 
  2800  0192                     	;# 
  2801  0196                     	;# 
  2802  0197                     	;# 
  2803  0198                     	;# 
  2804  0199                     	;# 
  2805  019A                     	;# 
  2806  019B                     	;# 
  2807  019C                     	;# 
  2808  020C                     	;# 
  2809  020C                     	;# 
  2810  020D                     	;# 
  2811  020E                     	;# 
  2812  020F                     	;# 
  2813  020F                     	;# 
  2814  0210                     	;# 
  2815  0210                     	;# 
  2816  0211                     	;# 
  2817  0211                     	;# 
  2818  0212                     	;# 
  2819  0212                     	;# 
  2820  0213                     	;# 
  2821  0214                     	;# 
  2822  0215                     	;# 
  2823  0215                     	;# 
  2824  0216                     	;# 
  2825  0216                     	;# 
  2826  0217                     	;# 
  2827  0217                     	;# 
  2828  0218                     	;# 
  2829  0218                     	;# 
  2830  0219                     	;# 
  2831  021A                     	;# 
  2832  021B                     	;# 
  2833  021B                     	;# 
  2834  021C                     	;# 
  2835  021C                     	;# 
  2836  021D                     	;# 
  2837  021D                     	;# 
  2838  021E                     	;# 
  2839  021F                     	;# 
  2840  028C                     	;# 
  2841  028C                     	;# 
  2842  028D                     	;# 
  2843  028D                     	;# 
  2844  028E                     	;# 
  2845  028F                     	;# 
  2846  0290                     	;# 
  2847  0290                     	;# 
  2848  0291                     	;# 
  2849  0292                     	;# 
  2850  0292                     	;# 
  2851  0293                     	;# 
  2852  0293                     	;# 
  2853  0294                     	;# 
  2854  0295                     	;# 
  2855  0296                     	;# 
  2856  0296                     	;# 
  2857  0297                     	;# 
  2858  0298                     	;# 
  2859  0298                     	;# 
  2860  0299                     	;# 
  2861  0299                     	;# 
  2862  029A                     	;# 
  2863  029B                     	;# 
  2864  029C                     	;# 
  2865  029C                     	;# 
  2866  029D                     	;# 
  2867  030C                     	;# 
  2868  030C                     	;# 
  2869  030D                     	;# 
  2870  030E                     	;# 
  2871  030F                     	;# 
  2872  0310                     	;# 
  2873  0310                     	;# 
  2874  0311                     	;# 
  2875  0312                     	;# 
  2876  0313                     	;# 
  2877  0314                     	;# 
  2878  0314                     	;# 
  2879  0315                     	;# 
  2880  0316                     	;# 
  2881  0317                     	;# 
  2882  0318                     	;# 
  2883  0318                     	;# 
  2884  0319                     	;# 
  2885  031A                     	;# 
  2886  031B                     	;# 
  2887  031C                     	;# 
  2888  031C                     	;# 
  2889  031D                     	;# 
  2890  031E                     	;# 
  2891  031F                     	;# 
  2892  038C                     	;# 
  2893  038C                     	;# 
  2894  038D                     	;# 
  2895  038E                     	;# 
  2896  0390                     	;# 
  2897  0390                     	;# 
  2898  0391                     	;# 
  2899  0392                     	;# 
  2900  040C                     	;# 
  2901  040D                     	;# 
  2902  040E                     	;# 
  2903  040F                     	;# 
  2904  0410                     	;# 
  2905  0411                     	;# 
  2906  0416                     	;# 
  2907  0416                     	;# 
  2908  0417                     	;# 
  2909  0418                     	;# 
  2910  0418                     	;# 
  2911  0419                     	;# 
  2912  041A                     	;# 
  2913  041A                     	;# 
  2914  041B                     	;# 
  2915  041C                     	;# 
  2916  041C                     	;# 
  2917  041D                     	;# 
  2918  041E                     	;# 
  2919  041F                     	;# 
  2920  048C                     	;# 
  2921  048C                     	;# 
  2922  048D                     	;# 
  2923  048E                     	;# 
  2924  048F                     	;# 
  2925  048F                     	;# 
  2926  0490                     	;# 
  2927  0491                     	;# 
  2928  0492                     	;# 
  2929  0492                     	;# 
  2930  0493                     	;# 
  2931  0494                     	;# 
  2932  0495                     	;# 
  2933  0495                     	;# 
  2934  0496                     	;# 
  2935  0497                     	;# 
  2936  0498                     	;# 
  2937  0499                     	;# 
  2938  049A                     	;# 
  2939  049B                     	;# 
  2940  049C                     	;# 
  2941  049D                     	;# 
  2942  050C                     	;# 
  2943  050C                     	;# 
  2944  050D                     	;# 
  2945  050E                     	;# 
  2946  050F                     	;# 
  2947  050F                     	;# 
  2948  0510                     	;# 
  2949  0511                     	;# 
  2950  0512                     	;# 
  2951  0512                     	;# 
  2952  0513                     	;# 
  2953  0514                     	;# 
  2954  0515                     	;# 
  2955  0515                     	;# 
  2956  0516                     	;# 
  2957  0517                     	;# 
  2958  0518                     	;# 
  2959  0519                     	;# 
  2960  051A                     	;# 
  2961  051B                     	;# 
  2962  051C                     	;# 
  2963  051D                     	;# 
  2964  058C                     	;# 
  2965  058C                     	;# 
  2966  058D                     	;# 
  2967  058E                     	;# 
  2968  058F                     	;# 
  2969  058F                     	;# 
  2970  0590                     	;# 
  2971  0591                     	;# 
  2972  0592                     	;# 
  2973  0593                     	;# 
  2974  060C                     	;# 
  2975  060D                     	;# 
  2976  060E                     	;# 
  2977  060F                     	;# 
  2978  0610                     	;# 
  2979  0611                     	;# 
  2980  0612                     	;# 
  2981  0613                     	;# 
  2982  0614                     	;# 
  2983  0616                     	;# 
  2984  0617                     	;# 
  2985  0618                     	;# 
  2986  0619                     	;# 
  2987  061A                     	;# 
  2988  061B                     	;# 
  2989  061C                     	;# 
  2990  061D                     	;# 
  2991  061E                     	;# 
  2992  068C                     	;# 
  2993  068D                     	;# 
  2994  068E                     	;# 
  2995  068F                     	;# 
  2996  0690                     	;# 
  2997  0691                     	;# 
  2998  0692                     	;# 
  2999  0693                     	;# 
  3000  0694                     	;# 
  3001  070C                     	;# 
  3002  070D                     	;# 
  3003  070E                     	;# 
  3004  070F                     	;# 
  3005  0710                     	;# 
  3006  0711                     	;# 
  3007  0712                     	;# 
  3008  0713                     	;# 
  3009  0714                     	;# 
  3010  0716                     	;# 
  3011  0717                     	;# 
  3012  0718                     	;# 
  3013  0719                     	;# 
  3014  071A                     	;# 
  3015  071B                     	;# 
  3016  071C                     	;# 
  3017  071D                     	;# 
  3018  071E                     	;# 
  3019  0796                     	;# 
  3020  0797                     	;# 
  3021  0798                     	;# 
  3022  0799                     	;# 
  3023  079A                     	;# 
  3024  079B                     	;# 
  3025  080C                     	;# 
  3026  080D                     	;# 
  3027  080E                     	;# 
  3028  080F                     	;# 
  3029  0810                     	;# 
  3030  0811                     	;# 
  3031  0813                     	;# 
  3032  0814                     	;# 
  3033  081A                     	;# 
  3034  081B                     	;# 
  3035  081C                     	;# 
  3036  081D                     	;# 
  3037  081E                     	;# 
  3038  081F                     	;# 
  3039  088C                     	;# 
  3040  088D                     	;# 
  3041  088E                     	;# 
  3042  088F                     	;# 
  3043  0890                     	;# 
  3044  0891                     	;# 
  3045  0892                     	;# 
  3046  0893                     	;# 
  3047  0895                     	;# 
  3048  0896                     	;# 
  3049  0897                     	;# 
  3050  0898                     	;# 
  3051  0899                     	;# 
  3052  089A                     	;# 
  3053  089B                     	;# 
  3054  090C                     	;# 
  3055  090E                     	;# 
  3056  090F                     	;# 
  3057  091F                     	;# 
  3058  091F                     	;# 
  3059  098F                     	;# 
  3060  098F                     	;# 
  3061  0990                     	;# 
  3062  0991                     	;# 
  3063  0992                     	;# 
  3064  0993                     	;# 
  3065  0994                     	;# 
  3066  0995                     	;# 
  3067  0996                     	;# 
  3068  0997                     	;# 
  3069  0E0F                     	;# 
  3070  0E10                     	;# 
  3071  0E11                     	;# 
  3072  0E12                     	;# 
  3073  0E13                     	;# 
  3074  0E14                     	;# 
  3075  0E15                     	;# 
  3076  0E16                     	;# 
  3077  0E17                     	;# 
  3078  0E18                     	;# 
  3079  0E19                     	;# 
  3080  0E1A                     	;# 
  3081  0E1B                     	;# 
  3082  0E1C                     	;# 
  3083  0E1D                     	;# 
  3084  0E1E                     	;# 
  3085  0E1F                     	;# 
  3086  0E20                     	;# 
  3087  0E21                     	;# 
  3088  0E22                     	;# 
  3089  0E23                     	;# 
  3090  0E24                     	;# 
  3091  0E25                     	;# 
  3092  0E26                     	;# 
  3093  0E27                     	;# 
  3094  0E28                     	;# 
  3095  0E29                     	;# 
  3096  0E2A                     	;# 
  3097  0E2B                     	;# 
  3098  0E2C                     	;# 
  3099  0E2D                     	;# 
  3100  0E2E                     	;# 
  3101  0E2F                     	;# 
  3102  0E30                     	;# 
  3103  0E31                     	;# 
  3104  0E32                     	;# 
  3105  0E33                     	;# 
  3106  0E34                     	;# 
  3107  0E35                     	;# 
  3108  0E36                     	;# 
  3109  0E37                     	;# 
  3110  0E8F                     	;# 
  3111  0E90                     	;# 
  3112  0E91                     	;# 
  3113  0E92                     	;# 
  3114  0E93                     	;# 
  3115  0E94                     	;# 
  3116  0E95                     	;# 
  3117  0E96                     	;# 
  3118  0E97                     	;# 
  3119  0E9C                     	;# 
  3120  0E9D                     	;# 
  3121  0E9E                     	;# 
  3122  0EA1                     	;# 
  3123  0EA2                     	;# 
  3124  0EA3                     	;# 
  3125  0EA4                     	;# 
  3126  0EA5                     	;# 
  3127  0EA9                     	;# 
  3128  0EAA                     	;# 
  3129  0EAB                     	;# 
  3130  0EAC                     	;# 
  3131  0EB1                     	;# 
  3132  0EB2                     	;# 
  3133  0EB3                     	;# 
  3134  0EB8                     	;# 
  3135  0EB9                     	;# 
  3136  0EBA                     	;# 
  3137  0EBB                     	;# 
  3138  0EBC                     	;# 
  3139  0EBD                     	;# 
  3140  0EBE                     	;# 
  3141  0EC3                     	;# 
  3142  0EC5                     	;# 
  3143  0EC6                     	;# 
  3144  0EC7                     	;# 
  3145  0EC8                     	;# 
  3146  0EC9                     	;# 
  3147  0ECA                     	;# 
  3148  0ECB                     	;# 
  3149  0ECC                     	;# 
  3150  0F10                     	;# 
  3151  0F11                     	;# 
  3152  0F12                     	;# 
  3153  0F13                     	;# 
  3154  0F14                     	;# 
  3155  0F15                     	;# 
  3156  0F16                     	;# 
  3157  0F17                     	;# 
  3158  0F18                     	;# 
  3159  0F19                     	;# 
  3160  0F1A                     	;# 
  3161  0F1B                     	;# 
  3162  0F1C                     	;# 
  3163  0F1D                     	;# 
  3164  0F1E                     	;# 
  3165  0F1F                     	;# 
  3166  0F20                     	;# 
  3167  0F21                     	;# 
  3168  0F22                     	;# 
  3169  0F23                     	;# 
  3170  0F24                     	;# 
  3171  0F25                     	;# 
  3172  0F26                     	;# 
  3173  0F27                     	;# 
  3174  0F38                     	;# 
  3175  0F39                     	;# 
  3176  0F3A                     	;# 
  3177  0F3B                     	;# 
  3178  0F3C                     	;# 
  3179  0F3D                     	;# 
  3180  0F3E                     	;# 
  3181  0F3F                     	;# 
  3182  0F40                     	;# 
  3183  0F41                     	;# 
  3184  0F43                     	;# 
  3185  0F44                     	;# 
  3186  0F45                     	;# 
  3187  0F46                     	;# 
  3188  0F47                     	;# 
  3189  0F48                     	;# 
  3190  0F49                     	;# 
  3191  0F4A                     	;# 
  3192  0F4B                     	;# 
  3193  0F4C                     	;# 
  3194  0F4E                     	;# 
  3195  0F4F                     	;# 
  3196  0F50                     	;# 
  3197  0F51                     	;# 
  3198  0F52                     	;# 
  3199  0F53                     	;# 
  3200  0F54                     	;# 
  3201  0F55                     	;# 
  3202  0F56                     	;# 
  3203  0F57                     	;# 
  3204  0F65                     	;# 
  3205  0F68                     	;# 
  3206  0F69                     	;# 
  3207  0F6A                     	;# 
  3208  0F6B                     	;# 
  3209  0FE4                     	;# 
  3210  0FE5                     	;# 
  3211  0FE6                     	;# 
  3212  0FE7                     	;# 
  3213  0FE8                     	;# 
  3214  0FE9                     	;# 
  3215  0FEA                     	;# 
  3216  0FEB                     	;# 
  3217  0FED                     	;# 
  3218  0FEE                     	;# 
  3219  0FEF                     	;# 
  3220                           
  3221 ;; Function _EUSART_DefaultFramingErrorHandler is unused but had its address taken
  3222  0000                     
  3223 ;; Function _EUSART_DefaultOverrunErrorHandler is unused but had its address taken
  3224  0000                     
  3225 ;; Function _EUSART_DefaultErrorHandler is unused but had its address taken
  3226  0000                     
  3227                           	psect	stringtext1
  3228  0823                     __pstringtext1:
  3229  0823                     _i2c1_fsmStateTable:
  3230  0823  34B2               	retlw	low _I2C1_DO_IDLE
  3231  0824  3402               	retlw	high _I2C1_DO_IDLE
  3232  0825  3425               	retlw	low _I2C1_DO_SEND_ADR_READ
  3233  0826  3403               	retlw	high _I2C1_DO_SEND_ADR_READ
  3234  0827  3415               	retlw	low _I2C1_DO_SEND_ADR_WRITE
  3235  0828  3403               	retlw	high _I2C1_DO_SEND_ADR_WRITE
  3236  0829  347D               	retlw	low _I2C1_DO_TX
  3237  082A  3406               	retlw	high _I2C1_DO_TX
  3238  082B  3437               	retlw	low _I2C1_DO_RX
  3239  082C  3406               	retlw	high _I2C1_DO_RX
  3240  082D  340E               	retlw	low _I2C1_DO_RCEN
  3241  082E  3403               	retlw	high _I2C1_DO_RCEN
  3242  082F  34F3               	retlw	low _I2C1_DO_TX_EMPTY
  3243  0830  3404               	retlw	high _I2C1_DO_TX_EMPTY
  3244  0831  34B7               	retlw	low _I2C1_DO_SEND_RESTART_READ
  3245  0832  3402               	retlw	high _I2C1_DO_SEND_RESTART_READ
  3246  0833  34BC               	retlw	low _I2C1_DO_SEND_RESTART_WRITE
  3247  0834  3402               	retlw	high _I2C1_DO_SEND_RESTART_WRITE
  3248  0835  34C1               	retlw	low _I2C1_DO_SEND_RESTART
  3249  0836  3402               	retlw	high _I2C1_DO_SEND_RESTART
  3250  0837  34C6               	retlw	low _I2C1_DO_SEND_STOP
  3251  0838  3402               	retlw	high _I2C1_DO_SEND_STOP
  3252  0839  34CB               	retlw	low _I2C1_DO_RX_ACK
  3253  083A  3402               	retlw	high _I2C1_DO_RX_ACK
  3254  083B  34D0               	retlw	low _I2C1_DO_RX_NACK_STOP
  3255  083C  3402               	retlw	high _I2C1_DO_RX_NACK_STOP
  3256  083D  34D5               	retlw	low _I2C1_DO_RX_NACK_RESTART
  3257  083E  3402               	retlw	high _I2C1_DO_RX_NACK_RESTART
  3258  083F  34DA               	retlw	low _I2C1_DO_RESET
  3259  0840  3402               	retlw	high _I2C1_DO_RESET
  3260  0841  34C7               	retlw	low _I2C1_DO_ADDRESS_NACK
  3261  0842  3404               	retlw	high _I2C1_DO_ADDRESS_NACK
  3262  0843                     __end_of_i2c1_fsmStateTable:
  3263                           
  3264                           	psect	stringtext2
  3265  085D                     __pstringtext2:
  3266  085D                     _dpowers:
  3267  085D  3401               	retlw	1
  3268  085E  3400               	retlw	0
  3269  085F  340A               	retlw	10
  3270  0860  3400               	retlw	0
  3271  0861  3464               	retlw	100
  3272  0862  3400               	retlw	0
  3273  0863  34E8               	retlw	232
  3274  0864  3403               	retlw	3
  3275  0865  3410               	retlw	16
  3276  0866  3427               	retlw	39
  3277  0867                     __end_of_dpowers:
  3278                           
  3279                           	psect	nvBANK0
  3280  0054                     __pnvBANK0:
  3281  0054                     _EUSART_ErrorHandler:
  3282  0054                     	ds	2
  3283  0056                     _EUSART_OverrunErrorHandler:
  3284  0056                     	ds	2
  3285  0058                     _EUSART_FramingErrorHandler:
  3286  0058                     	ds	2
  3287  0013                     _TRISC	set	19
  3288  0012                     _TRISB	set	18
  3289  0011                     _TRISA	set	17
  3290  0018                     _LATC	set	24
  3291  0017                     _LATB	set	23
  3292  0016                     _LATA	set	22
  3293  011A                     _TX1REG	set	282
  3294  0119                     _RC1REG	set	281
  3295  011D                     _RC1STAbits	set	285
  3296  011E                     _TX1STAbits	set	286
  3297  011C                     _SP1BRGH	set	284
  3298  011B                     _SP1BRGL	set	283
  3299  011E                     _TX1STA	set	286
  3300  011D                     _RC1STA	set	285
  3301  011F                     _BAUD1CON	set	287
  3302  018F                     _SSP1STATbits	set	399
  3303  0191                     _SSP1CON2bits	set	401
  3304  018C                     _SSP1BUF	set	396
  3305  0190                     _SSP1CON1bits	set	400
  3306  018D                     _SSP1ADD	set	397
  3307  0191                     _SSP1CON2	set	401
  3308  0190                     _SSP1CON1	set	400
  3309  018F                     _SSP1STAT	set	399
  3310  0719                     _PIE3bits	set	1817
  3311  070F                     _PIR3bits	set	1807
  3312  079B                     _PMD5	set	1947
  3313  079A                     _PMD4	set	1946
  3314  0799                     _PMD3	set	1945
  3315  0798                     _PMD2	set	1944
  3316  0797                     _PMD1	set	1943
  3317  0796                     _PMD0	set	1942
  3318  0892                     _OSCTUNE	set	2194
  3319  0893                     _OSCFRQ	set	2195
  3320  0891                     _OSCEN	set	2193
  3321  088F                     _OSCCON3	set	2191
  3322  088D                     _OSCCON1	set	2189
  3323  0EC6                     _SSP1DATPPS	set	3782
  3324  0EC5                     _SSP1CLKPPS	set	3781
  3325  0ECB                     _RXPPS	set	3787
  3326  0F24                     _RC4PPS	set	3876
  3327  0F23                     _RC3PPS	set	3875
  3328  0F20                     _RC0PPS	set	3872
  3329  0F68                     _INLVLE	set	3944
  3330  0F52                     _INLVLC	set	3922
  3331  0F47                     _INLVLB	set	3911
  3332  0F3C                     _INLVLA	set	3900
  3333  0F51                     _SLRCONC	set	3921
  3334  0F46                     _SLRCONB	set	3910
  3335  0F3B                     _SLRCONA	set	3899
  3336  0F50                     _ODCONC	set	3920
  3337  0F45                     _ODCONB	set	3909
  3338  0F3A                     _ODCONA	set	3898
  3339  0F4F                     _WPUC	set	3919
  3340  0F39                     _WPUA	set	3897
  3341  0F44                     _WPUB	set	3908
  3342  0F65                     _WPUE	set	3941
  3343  0F38                     _ANSELA	set	3896
  3344  0F43                     _ANSELB	set	3907
  3345  0F4E                     _ANSELC	set	3918
  3346                           
  3347                           	psect	stringtext3
  3348  0800                     __pstringtext3:
  3349  0800                     STR_2:
  3350  0800  3453               	retlw	83	;'S'
  3351  0801  3465               	retlw	101	;'e'
  3352  0802  346E               	retlw	110	;'n'
  3353  0803  3473               	retlw	115	;'s'
  3354  0804  346F               	retlw	111	;'o'
  3355  0805  3472               	retlw	114	;'r'
  3356  0806  3420               	retlw	32	;' '
  3357  0807  3464               	retlw	100	;'d'
  3358  0808  3465               	retlw	101	;'e'
  3359  0809  3420               	retlw	32	;' '
  3360  080A  3474               	retlw	116	;'t'
  3361  080B  3465               	retlw	101	;'e'
  3362  080C  346D               	retlw	109	;'m'
  3363  080D  3470               	retlw	112	;'p'
  3364  080E  3465               	retlw	101	;'e'
  3365  080F  3472               	retlw	114	;'r'
  3366  0810  3461               	retlw	97	;'a'
  3367  0811  3474               	retlw	116	;'t'
  3368  0812  3475               	retlw	117	;'u'
  3369  0813  3472               	retlw	114	;'r'
  3370  0814  3461               	retlw	97	;'a'
  3371  0815  3420               	retlw	32	;' '
  3372  0816  344D               	retlw	77	;'M'
  3373  0817  3443               	retlw	67	;'C'
  3374  0818  3443               	retlw	67	;'C'
  3375  0819  340A               	retlw	10
  3376  081A  3420               	retlw	32	;' '
  3377  081B  3425               	retlw	37	;'%'
  3378  081C  3464               	retlw	100	;'d'
  3379  081D  342E               	retlw	46	;'.'
  3380  081E  3425               	retlw	37	;'%'
  3381  081F  3464               	retlw	100	;'d'
  3382  0820  340A               	retlw	10
  3383  0821  340A               	retlw	10
  3384  0822  3400               	retlw	0
  3385                           
  3386                           	psect	stringtext4
  3387  0843                     __pstringtext4:
  3388  0843                     STR_1:
  3389  0843  340D               	retlw	13
  3390  0844  340A               	retlw	10
  3391  0845  344D               	retlw	77	;'M'
  3392  0846  346F               	retlw	111	;'o'
  3393  0847  3464               	retlw	100	;'d'
  3394  0848  3475               	retlw	117	;'u'
  3395  0849  346C               	retlw	108	;'l'
  3396  084A  346F               	retlw	111	;'o'
  3397  084B  3420               	retlw	32	;' '
  3398  084C  3469               	retlw	105	;'i'
  3399  084D  3432               	retlw	50	;'2'
  3400  084E  3463               	retlw	99	;'c'
  3401  084F  3420               	retlw	32	;' '
  3402  0850  3475               	retlw	117	;'u'
  3403  0851  3473               	retlw	115	;'s'
  3404  0852  3461               	retlw	97	;'a'
  3405  0853  346E               	retlw	110	;'n'
  3406  0854  3464               	retlw	100	;'d'
  3407  0855  346F               	retlw	111	;'o'
  3408  0856  3420               	retlw	32	;' '
  3409  0857  344D               	retlw	77	;'M'
  3410  0858  3443               	retlw	67	;'C'
  3411  0859  3443               	retlw	67	;'C'
  3412  085A  340A               	retlw	10
  3413  085B  340A               	retlw	10
  3414  085C  3400               	retlw	0
  3415                           
  3416                           	psect	stringtext5
  3417  0000                     __pstringtext5:
  3418                           
  3419                           	psect	cinit
  3420  07F5                     start_initialization:	
  3421                           ; #config settings
  3422                           
  3423  07F5                     __initialization:
  3424                           
  3425                           ; Clear objects allocated to BANK0
  3426  07F5  3020               	movlw	low __pbssBANK0
  3427  07F6  0084               	movwf	4
  3428  07F7  3000               	movlw	high __pbssBANK0
  3429  07F8  0085               	movwf	5
  3430  07F9  301E               	movlw	30
  3431  07FA  3183  2308  3187   	fcall	clear_ram0
  3432  07FD                     end_of_initialization:	
  3433                           ;End of C runtime variable initialization code
  3434                           
  3435  07FD                     __end_of__initialization:
  3436  07FD  0020               	movlb	0
  3437  07FE  3186  2ED2         	ljmp	_main	;jump to C main() function
  3438                           
  3439                           	psect	bssBANK0
  3440  0020                     __pbssBANK0:
  3441  0020                     _I2C1_Status:
  3442  0020                     	ds	29
  3443  003D                     _eusartRxLastError:
  3444  003D                     	ds	1
  3445                           
  3446                           	psect	clrtext
  3447  0308                     clear_ram0:	
  3448                           ;	Called with FSR0 containing the base address, and
  3449                           ;	WREG with the size to clear
  3450                           
  3451  0308  0064               	clrwdt	;clear the watchdog before getting into this loop
  3452  0309                     clrloop0:
  3453  0309  0180               	clrf	0	;clear RAM location pointed to by FSR
  3454  030A  3101               	addfsr 0,1
  3455  030B  0B89               	decfsz	9,f	;Have we reached the end of clearing yet?
  3456  030C  2B09               	goto	clrloop0	;have we reached the end yet?
  3457  030D  3400               	retlw	0	;all done for this memory range, return
  3458                           
  3459                           	psect	cstackCOMMON
  3460  0070                     __pcstackCOMMON:
  3461  0070                     ?_I2C1_Open:
  3462  0070                     ??_I2C1_Open:	
  3463                           ; 1 bytes @ 0x0
  3464                           
  3465  0070                     ?_I2C1_SetBuffer:	
  3466                           ; 1 bytes @ 0x0
  3467                           
  3468  0070                     ?_I2C1_MasterWrite:	
  3469                           ; 1 bytes @ 0x0
  3470                           
  3471  0070                     ?_I2C1_Close:	
  3472                           ; 1 bytes @ 0x0
  3473                           
  3474  0070                     ??_I2C1_Close:	
  3475                           ; 1 bytes @ 0x0
  3476                           
  3477  0070                     ?_PMD_Initialize:	
  3478                           ; 1 bytes @ 0x0
  3479                           
  3480  0070                     ??_PMD_Initialize:	
  3481                           ; 1 bytes @ 0x0
  3482                           
  3483  0070                     ?_I2C1_Initialize:	
  3484                           ; 1 bytes @ 0x0
  3485                           
  3486  0070                     ??_I2C1_Initialize:	
  3487                           ; 1 bytes @ 0x0
  3488                           
  3489  0070                     ?_PIN_MANAGER_Initialize:	
  3490                           ; 1 bytes @ 0x0
  3491                           
  3492  0070                     ??_PIN_MANAGER_Initialize:	
  3493                           ; 1 bytes @ 0x0
  3494                           
  3495  0070                     ?_OSCILLATOR_Initialize:	
  3496                           ; 1 bytes @ 0x0
  3497                           
  3498  0070                     ??_OSCILLATOR_Initialize:	
  3499                           ; 1 bytes @ 0x0
  3500                           
  3501  0070                     ?_EUSART_Initialize:	
  3502                           ; 1 bytes @ 0x0
  3503                           
  3504  0070                     ?_EUSART_SetFramingErrorHandler:	
  3505                           ; 1 bytes @ 0x0
  3506                           
  3507  0070                     ?_EUSART_SetOverrunErrorHandler:	
  3508                           ; 1 bytes @ 0x0
  3509                           
  3510  0070                     ?_EUSART_SetErrorHandler:	
  3511                           ; 1 bytes @ 0x0
  3512                           
  3513  0070                     ?_I2C1_DO_IDLE:	
  3514                           ; 1 bytes @ 0x0
  3515                           
  3516  0070                     ??_I2C1_DO_IDLE:	
  3517                           ; 1 bytes @ 0x0
  3518                           
  3519  0070                     ?_I2C1_DO_SEND_ADR_READ:	
  3520                           ; 1 bytes @ 0x0
  3521                           
  3522  0070                     ??_I2C1_DO_SEND_ADR_READ:	
  3523                           ; 1 bytes @ 0x0
  3524                           
  3525  0070                     ?_I2C1_DO_SEND_ADR_WRITE:	
  3526                           ; 1 bytes @ 0x0
  3527                           
  3528  0070                     ?_I2C1_DO_TX:	
  3529                           ; 1 bytes @ 0x0
  3530                           
  3531  0070                     ?_I2C1_DO_RX:	
  3532                           ; 1 bytes @ 0x0
  3533                           
  3534  0070                     ?_I2C1_DO_RCEN:	
  3535                           ; 1 bytes @ 0x0
  3536                           
  3537  0070                     ??_I2C1_DO_RCEN:	
  3538                           ; 1 bytes @ 0x0
  3539                           
  3540  0070                     ?_I2C1_DO_TX_EMPTY:	
  3541                           ; 1 bytes @ 0x0
  3542                           
  3543  0070                     ?_I2C1_DO_SEND_RESTART_READ:	
  3544                           ; 1 bytes @ 0x0
  3545                           
  3546  0070                     ??_I2C1_DO_SEND_RESTART_READ:	
  3547                           ; 1 bytes @ 0x0
  3548                           
  3549  0070                     ?_I2C1_DO_SEND_RESTART_WRITE:	
  3550                           ; 1 bytes @ 0x0
  3551                           
  3552  0070                     ??_I2C1_DO_SEND_RESTART_WRITE:	
  3553                           ; 1 bytes @ 0x0
  3554                           
  3555  0070                     ?_I2C1_DO_SEND_RESTART:	
  3556                           ; 1 bytes @ 0x0
  3557                           
  3558  0070                     ??_I2C1_DO_SEND_RESTART:	
  3559                           ; 1 bytes @ 0x0
  3560                           
  3561  0070                     ?_I2C1_DO_SEND_STOP:	
  3562                           ; 1 bytes @ 0x0
  3563                           
  3564  0070                     ??_I2C1_DO_SEND_STOP:	
  3565                           ; 1 bytes @ 0x0
  3566                           
  3567  0070                     ?_I2C1_DO_RX_ACK:	
  3568                           ; 1 bytes @ 0x0
  3569                           
  3570  0070                     ??_I2C1_DO_RX_ACK:	
  3571                           ; 1 bytes @ 0x0
  3572                           
  3573  0070                     ?_I2C1_DO_RX_NACK_STOP:	
  3574                           ; 1 bytes @ 0x0
  3575                           
  3576  0070                     ??_I2C1_DO_RX_NACK_STOP:	
  3577                           ; 1 bytes @ 0x0
  3578                           
  3579  0070                     ?_I2C1_DO_RX_NACK_RESTART:	
  3580                           ; 1 bytes @ 0x0
  3581                           
  3582  0070                     ??_I2C1_DO_RX_NACK_RESTART:	
  3583                           ; 1 bytes @ 0x0
  3584                           
  3585  0070                     ?_I2C1_DO_RESET:	
  3586                           ; 1 bytes @ 0x0
  3587                           
  3588  0070                     ??_I2C1_DO_RESET:	
  3589                           ; 1 bytes @ 0x0
  3590                           
  3591  0070                     ?_I2C1_DO_ADDRESS_NACK:	
  3592                           ; 1 bytes @ 0x0
  3593                           
  3594  0070                     ?_I2C1_MasterClearIrq:	
  3595                           ; 1 bytes @ 0x0
  3596                           
  3597  0070                     ??_I2C1_MasterClearIrq:	
  3598                           ; 1 bytes @ 0x0
  3599                           
  3600  0070                     ?_I2C1_MasterOpen:	
  3601                           ; 1 bytes @ 0x0
  3602                           
  3603  0070                     ??_I2C1_MasterOpen:	
  3604                           ; 1 bytes @ 0x0
  3605                           
  3606  0070                     ?_I2C1_MasterDisableIrq:	
  3607                           ; 1 bytes @ 0x0
  3608                           
  3609  0070                     ??_I2C1_MasterDisableIrq:	
  3610                           ; 1 bytes @ 0x0
  3611                           
  3612  0070                     ?_I2C1_MasterClose:	
  3613                           ; 1 bytes @ 0x0
  3614                           
  3615  0070                     ??_I2C1_MasterClose:	
  3616                           ; 1 bytes @ 0x0
  3617                           
  3618  0070                     ?_I2C1_MasterStart:	
  3619                           ; 1 bytes @ 0x0
  3620                           
  3621  0070                     ??_I2C1_MasterStart:	
  3622                           ; 1 bytes @ 0x0
  3623                           
  3624  0070                     ?_I2C1_Poller:	
  3625                           ; 1 bytes @ 0x0
  3626                           
  3627  0070                     ?_I2C1_SetCallback:	
  3628                           ; 1 bytes @ 0x0
  3629                           
  3630  0070                     ?_I2C1_MasterWaitForEvent:	
  3631                           ; 1 bytes @ 0x0
  3632                           
  3633  0070                     ??_I2C1_MasterWaitForEvent:	
  3634                           ; 1 bytes @ 0x0
  3635                           
  3636  0070                     ?_I2C1_MasterFsm:	
  3637                           ; 1 bytes @ 0x0
  3638                           
  3639  0070                     ?_I2C1_MasterIsNack:	
  3640                           ; 1 bytes @ 0x0
  3641                           
  3642  0070                     ??_I2C1_MasterIsNack:	
  3643                           ; 1 bytes @ 0x0
  3644                           
  3645  0070                     ?_I2C1_MasterSendTxData:	
  3646                           ; 1 bytes @ 0x0
  3647                           
  3648  0070                     ??_I2C1_MasterSendTxData:	
  3649                           ; 1 bytes @ 0x0
  3650                           
  3651  0070                     ?_I2C1_MasterGetRxData:	
  3652                           ; 1 bytes @ 0x0
  3653                           
  3654  0070                     ??_I2C1_MasterGetRxData:	
  3655                           ; 1 bytes @ 0x0
  3656                           
  3657  0070                     ?_I2C1_MasterSendAck:	
  3658                           ; 1 bytes @ 0x0
  3659                           
  3660  0070                     ??_I2C1_MasterSendAck:	
  3661                           ; 1 bytes @ 0x0
  3662                           
  3663  0070                     ?_I2C1_MasterStartRx:	
  3664                           ; 1 bytes @ 0x0
  3665                           
  3666  0070                     ??_I2C1_MasterStartRx:	
  3667                           ; 1 bytes @ 0x0
  3668                           
  3669  0070                     ?_I2C1_MasterSetIrq:	
  3670                           ; 1 bytes @ 0x0
  3671                           
  3672  0070                     ??_I2C1_MasterSetIrq:	
  3673                           ; 1 bytes @ 0x0
  3674                           
  3675  0070                     ?_I2C1_MasterEnableRestart:	
  3676                           ; 1 bytes @ 0x0
  3677                           
  3678  0070                     ??_I2C1_MasterEnableRestart:	
  3679                           ; 1 bytes @ 0x0
  3680                           
  3681  0070                     ?_I2C1_MasterStop:	
  3682                           ; 1 bytes @ 0x0
  3683                           
  3684  0070                     ??_I2C1_MasterStop:	
  3685                           ; 1 bytes @ 0x0
  3686                           
  3687  0070                     ?_I2C1_MasterSendNack:	
  3688                           ; 1 bytes @ 0x0
  3689                           
  3690  0070                     ??_I2C1_MasterSendNack:	
  3691                           ; 1 bytes @ 0x0
  3692                           
  3693  0070                     ?_SYSTEM_Initialize:	
  3694                           ; 1 bytes @ 0x0
  3695                           
  3696  0070                     ?_EUSART_Write:	
  3697                           ; 1 bytes @ 0x0
  3698                           
  3699  0070                     ??_EUSART_Write:	
  3700                           ; 1 bytes @ 0x0
  3701                           
  3702  0070                     ?_putch:	
  3703                           ; 1 bytes @ 0x0
  3704                           
  3705  0070                     ?_I2C1_MasterOperation:	
  3706                           ; 1 bytes @ 0x0
  3707                           
  3708  0070                     ?_main:	
  3709                           ; 1 bytes @ 0x0
  3710                           
  3711  0070                     ?___wmul:	
  3712                           ; 1 bytes @ 0x0
  3713                           
  3714  0070                     ?___lwdiv:	
  3715                           ; 2 bytes @ 0x0
  3716                           
  3717  0070                     EUSART_Write@txData:	
  3718                           ; 2 bytes @ 0x0
  3719                           
  3720  0070                     I2C1_MasterSendTxData@data:	
  3721                           ; 1 bytes @ 0x0
  3722                           
  3723  0070                     EUSART_SetFramingErrorHandler@interruptHandler:	
  3724                           ; 1 bytes @ 0x0
  3725                           
  3726  0070                     EUSART_SetOverrunErrorHandler@interruptHandler:	
  3727                           ; 2 bytes @ 0x0
  3728                           
  3729  0070                     EUSART_SetErrorHandler@interruptHandler:	
  3730                           ; 2 bytes @ 0x0
  3731                           
  3732  0070                     I2C1_SetBuffer@bufferSize:	
  3733                           ; 2 bytes @ 0x0
  3734                           
  3735  0070                     I2C1_SetCallback@cb:	
  3736                           ; 2 bytes @ 0x0
  3737                           
  3738  0070                     ___wmul@multiplier:	
  3739                           ; 2 bytes @ 0x0
  3740                           
  3741  0070                     ___lwdiv@divisor:	
  3742                           ; 2 bytes @ 0x0
  3743                           
  3744                           
  3745                           ; 2 bytes @ 0x0
  3746  0070                     	ds	1
  3747  0071                     ??_I2C1_DO_SEND_ADR_WRITE:
  3748  0071                     ??_putch:	
  3749                           ; 1 bytes @ 0x1
  3750                           
  3751  0071                     putch@txData:	
  3752                           ; 1 bytes @ 0x1
  3753                           
  3754  0071                     I2C1_Open@address:	
  3755                           ; 1 bytes @ 0x1
  3756                           
  3757  0071                     I2C1_Close@returnValue:	
  3758                           ; 1 bytes @ 0x1
  3759                           
  3760                           
  3761                           ; 1 bytes @ 0x1
  3762  0071                     	ds	1
  3763  0072                     ??_I2C1_SetBuffer:
  3764  0072                     ??_EUSART_Initialize:	
  3765                           ; 1 bytes @ 0x2
  3766                           
  3767  0072                     ??_EUSART_SetFramingErrorHandler:	
  3768                           ; 1 bytes @ 0x2
  3769                           
  3770  0072                     ??_EUSART_SetOverrunErrorHandler:	
  3771                           ; 1 bytes @ 0x2
  3772                           
  3773  0072                     ??_EUSART_SetErrorHandler:	
  3774                           ; 1 bytes @ 0x2
  3775                           
  3776  0072                     ??_SYSTEM_Initialize:	
  3777                           ; 1 bytes @ 0x2
  3778                           
  3779  0072                     I2C1_Open@returnValue:	
  3780                           ; 1 bytes @ 0x2
  3781                           
  3782  0072                     I2C1_SetCallback@ptr:	
  3783                           ; 1 bytes @ 0x2
  3784                           
  3785  0072                     ___wmul@multiplicand:	
  3786                           ; 1 bytes @ 0x2
  3787                           
  3788  0072                     ___lwdiv@dividend:	
  3789                           ; 2 bytes @ 0x2
  3790                           
  3791                           
  3792                           ; 2 bytes @ 0x2
  3793  0072                     	ds	1
  3794  0073                     ??_I2C1_SetCallback:
  3795  0073                     I2C1_SetBuffer@buffer:	
  3796                           ; 1 bytes @ 0x3
  3797                           
  3798                           
  3799                           ; 1 bytes @ 0x3
  3800  0073                     	ds	1
  3801  0074                     ??___wmul:
  3802  0074                     ??___lwdiv:	
  3803                           ; 1 bytes @ 0x4
  3804                           
  3805  0074                     I2C1_SetCallback@idx:	
  3806                           ; 1 bytes @ 0x4
  3807                           
  3808  0074                     ___wmul@product:	
  3809                           ; 1 bytes @ 0x4
  3810                           
  3811                           
  3812                           ; 2 bytes @ 0x4
  3813  0074                     	ds	1
  3814  0075                     ?_I2C1_SetDataCompleteCallback:
  3815  0075                     ?_I2C1_SetAddressNackCallback:	
  3816                           ; 1 bytes @ 0x5
  3817                           
  3818  0075                     I2C1_SetDataCompleteCallback@cb:	
  3819                           ; 1 bytes @ 0x5
  3820                           
  3821  0075                     I2C1_SetAddressNackCallback@cb:	
  3822                           ; 2 bytes @ 0x5
  3823                           
  3824  0075                     ___lwdiv@quotient:	
  3825                           ; 2 bytes @ 0x5
  3826                           
  3827                           
  3828                           ; 2 bytes @ 0x5
  3829  0075                     	ds	2
  3830  0077                     I2C1_SetDataCompleteCallback@ptr:
  3831  0077                     I2C1_SetAddressNackCallback@ptr:	
  3832                           ; 1 bytes @ 0x7
  3833                           
  3834  0077                     ___lwdiv@counter:	
  3835                           ; 1 bytes @ 0x7
  3836                           
  3837                           
  3838                           ; 1 bytes @ 0x7
  3839  0077                     	ds	1
  3840  0078                     ??_I2C1_SetDataCompleteCallback:
  3841  0078                     ??_I2C1_SetAddressNackCallback:	
  3842                           ; 1 bytes @ 0x8
  3843                           
  3844  0078                     ?___lwmod:	
  3845                           ; 1 bytes @ 0x8
  3846                           
  3847  0078                     ___lwmod@divisor:	
  3848                           ; 2 bytes @ 0x8
  3849                           
  3850                           
  3851                           ; 2 bytes @ 0x8
  3852  0078                     	ds	1
  3853  0079                     ?_rd1RegCompleteHandler:
  3854  0079                     ?_rd2RegCompleteHandler:	
  3855                           ; 1 bytes @ 0x9
  3856                           
  3857  0079                     ?_wr1RegCompleteHandler:	
  3858                           ; 1 bytes @ 0x9
  3859                           
  3860  0079                     ?_wr2RegCompleteHandler:	
  3861                           ; 1 bytes @ 0x9
  3862                           
  3863  0079                     ?_rdBlkRegCompleteHandler:	
  3864                           ; 1 bytes @ 0x9
  3865                           
  3866  0079                     ?_I2C1_CallbackReturnStop:	
  3867                           ; 1 bytes @ 0x9
  3868                           
  3869  0079                     ?_I2C1_CallbackReturnReset:	
  3870                           ; 1 bytes @ 0x9
  3871                           
  3872  0079                     rd1RegCompleteHandler@ptr:	
  3873                           ; 1 bytes @ 0x9
  3874                           
  3875  0079                     rd2RegCompleteHandler@ptr:	
  3876                           ; 1 bytes @ 0x9
  3877                           
  3878  0079                     wr1RegCompleteHandler@ptr:	
  3879                           ; 1 bytes @ 0x9
  3880                           
  3881  0079                     wr2RegCompleteHandler@ptr:	
  3882                           ; 1 bytes @ 0x9
  3883                           
  3884  0079                     rdBlkRegCompleteHandler@ptr:	
  3885                           ; 1 bytes @ 0x9
  3886                           
  3887  0079                     I2C1_CallbackReturnStop@funPtr:	
  3888                           ; 1 bytes @ 0x9
  3889                           
  3890  0079                     I2C1_CallbackReturnReset@funPtr:	
  3891                           ; 1 bytes @ 0x9
  3892                           
  3893                           
  3894                           ; 1 bytes @ 0x9
  3895  0079                     	ds	1
  3896  007A                     ??_rd1RegCompleteHandler:
  3897  007A                     ??_rd2RegCompleteHandler:	
  3898                           ; 1 bytes @ 0xA
  3899                           
  3900  007A                     ??_wr1RegCompleteHandler:	
  3901                           ; 1 bytes @ 0xA
  3902                           
  3903  007A                     ??_wr2RegCompleteHandler:	
  3904                           ; 1 bytes @ 0xA
  3905                           
  3906  007A                     ??_rdBlkRegCompleteHandler:	
  3907                           ; 1 bytes @ 0xA
  3908                           
  3909  007A                     ??_I2C1_DO_TX:	
  3910                           ; 1 bytes @ 0xA
  3911                           
  3912  007A                     ??_I2C1_DO_RX:	
  3913                           ; 1 bytes @ 0xA
  3914                           
  3915  007A                     ??_I2C1_DO_TX_EMPTY:	
  3916                           ; 1 bytes @ 0xA
  3917                           
  3918  007A                     ??_I2C1_DO_ADDRESS_NACK:	
  3919                           ; 1 bytes @ 0xA
  3920                           
  3921  007A                     ??_I2C1_CallbackReturnStop:	
  3922                           ; 1 bytes @ 0xA
  3923                           
  3924  007A                     ??_I2C1_CallbackReturnReset:	
  3925                           ; 1 bytes @ 0xA
  3926                           
  3927  007A                     ___lwmod@dividend:	
  3928                           ; 1 bytes @ 0xA
  3929                           
  3930                           
  3931                           ; 2 bytes @ 0xA
  3932  007A                     	ds	2
  3933  007C                     ??___lwmod:
  3934                           
  3935                           ; 1 bytes @ 0xC
  3936  007C                     	ds	1
  3937  007D                     ??_I2C1_Poller:
  3938  007D                     ??_I2C1_MasterOperation:	
  3939                           ; 1 bytes @ 0xD
  3940                           
  3941  007D                     ___lwmod@counter:	
  3942                           ; 1 bytes @ 0xD
  3943                           
  3944                           
  3945                           ; 1 bytes @ 0xD
  3946  007D                     	ds	1
  3947  007E                     ??_I2C1_MasterWrite:
  3948                           
  3949                           	psect	cstackBANK0
  3950  003E                     __pcstackBANK0:	
  3951                           ; 1 bytes @ 0xE
  3952                           
  3953  003E                     ??_I2C1_MasterFsm:
  3954  003E                     ?_printf:	
  3955                           ; 1 bytes @ 0x0
  3956                           
  3957  003E                     printf@f:	
  3958                           ; 2 bytes @ 0x0
  3959                           
  3960                           
  3961                           ; 2 bytes @ 0x0
  3962  003E                     	ds	3
  3963  0041                     I2C1_MasterOperation@read:
  3964                           
  3965                           ; 1 bytes @ 0x3
  3966  0041                     	ds	1
  3967  0042                     I2C1_MasterOperation@returnValue:
  3968                           
  3969                           ; 1 bytes @ 0x4
  3970  0042                     	ds	1
  3971  0043                     ?_I2C1_Read1ByteRegister:
  3972  0043                     I2C1_Read1ByteRegister@reg:	
  3973                           ; 1 bytes @ 0x5
  3974                           
  3975                           
  3976                           ; 1 bytes @ 0x5
  3977  0043                     	ds	1
  3978  0044                     ??_printf:
  3979  0044                     ??_I2C1_Read1ByteRegister:	
  3980                           ; 1 bytes @ 0x6
  3981                           
  3982                           
  3983                           ; 1 bytes @ 0x6
  3984  0044                     	ds	1
  3985  0045                     I2C1_Read1ByteRegister@address:
  3986                           
  3987                           ; 1 bytes @ 0x7
  3988  0045                     	ds	1
  3989  0046                     I2C1_Read1ByteRegister@returnValue:
  3990                           
  3991                           ; 1 bytes @ 0x8
  3992  0046                     	ds	2
  3993  0048                     printf@ap:
  3994                           
  3995                           ; 1 bytes @ 0xA
  3996  0048                     	ds	1
  3997  0049                     printf@flag:
  3998                           
  3999                           ; 1 bytes @ 0xB
  4000  0049                     	ds	1
  4001  004A                     printf@prec:
  4002                           
  4003                           ; 1 bytes @ 0xC
  4004  004A                     	ds	1
  4005  004B                     printf@val:
  4006                           
  4007                           ; 2 bytes @ 0xD
  4008  004B                     	ds	2
  4009  004D                     printf@c:
  4010                           
  4011                           ; 1 bytes @ 0xF
  4012  004D                     	ds	1
  4013  004E                     ??_main:
  4014                           
  4015                           ; 1 bytes @ 0x10
  4016  004E                     	ds	4
  4017  0052                     main@r1:
  4018                           
  4019                           ; 1 bytes @ 0x14
  4020  0052                     	ds	1
  4021  0053                     main@r2:
  4022                           
  4023                           ; 1 bytes @ 0x15
  4024  0053                     	ds	1
  4025                           
  4026                           	psect	maintext
  4027  06D2                     __pmaintext:	
  4028 ;;
  4029 ;;Main: autosize = 0, tempsize = 4, incstack = 0, save=0
  4030 ;;
  4031 ;; *************** function _main *****************
  4032 ;; Defined at:
  4033 ;;		line 55 in file "main.c"
  4034 ;; Parameters:    Size  Location     Type
  4035 ;;		None
  4036 ;; Auto vars:     Size  Location     Type
  4037 ;;  r2              1   21[BANK0 ] unsigned char 
  4038 ;;  r1              1   20[BANK0 ] unsigned char 
  4039 ;; Return value:  Size  Location     Type
  4040 ;;                  1    wreg      void 
  4041 ;; Registers used:
  4042 ;;		wreg, fsr0l, fsr0h, fsr1l, fsr1h, status,2, status,0, pclath, cstack
  4043 ;; Tracked objects:
  4044 ;;		On entry : B1F/0
  4045 ;;		On exit  : 0/0
  4046 ;;		Unchanged: 0/0
  4047 ;; Data sizes:     COMMON   BANK0   BANK1   BANK2   BANK3   BANK4   BANK5   BANK6   BANK7   BANK8   BANK9  BANK10  BANK1
      +1  BANK12
  4048 ;;      Params:         0       0       0       0       0       0       0       0       0       0       0       0       
      +0       0
  4049 ;;      Locals:         0       2       0       0       0       0       0       0       0       0       0       0       
      +0       0
  4050 ;;      Temps:          0       4       0       0       0       0       0       0       0       0       0       0       
      +0       0
  4051 ;;      Totals:         0       6       0       0       0       0       0       0       0       0       0       0       
      +0       0
  4052 ;;Total ram usage:        6 bytes
  4053 ;; Hardware stack levels required when called: 9
  4054 ;; This function calls:
  4055 ;;		_I2C1_Read1ByteRegister
  4056 ;;		_SYSTEM_Initialize
  4057 ;;		___wmul
  4058 ;;		_printf
  4059 ;; This function is called by:
  4060 ;;		Startup code after reset
  4061 ;; This function uses a non-reentrant model
  4062 ;;
  4063                           
  4064                           
  4065                           ;psect for function _main
  4066  06D2                     _main:
  4067  06D2                     l2986:	
  4068                           ;incstack = 0
  4069                           ; Regs used in _main: [wreg-fsr1h+status,2+status,0+pclath+cstack]
  4070                           
  4071  06D2  0020               	movlb	0	; select bank0
  4072  06D3  01D3               	clrf	main@r2
  4073  06D4                     l2988:
  4074                           
  4075                           ;main.c: 60:     SYSTEM_Initialize();
  4076  06D4  3183  238E  3186   	fcall	_SYSTEM_Initialize
  4077  06D7                     l2990:
  4078                           
  4079                           ;main.c: 79:     printf("\r\nModulo i2c usando MCC\n\n");
  4080  06D7  3043               	movlw	low (STR_1| (0+32768))
  4081  06D8  0020               	movlb	0	; select bank0
  4082  06D9  00BE               	movwf	printf@f
  4083  06DA  3088               	movlw	high (STR_1| (0+32768))
  4084  06DB  00BF               	movwf	printf@f+1
  4085  06DC  3187  272B  3186   	fcall	_printf
  4086  06DF                     l2992:
  4087                           
  4088                           ;main.c: 81:     {;main.c: 83:         r1 = I2C1_Read1ByteRegister(0b0111000,0);
  4089  06DF  0020               	movlb	0	; select bank0
  4090  06E0  01C3               	clrf	I2C1_Read1ByteRegister@reg
  4091  06E1  3038               	movlw	56
  4092  06E2  3185  258B  3186   	fcall	_I2C1_Read1ByteRegister
  4093  06E5  0020               	movlb	0	; select bank0
  4094  06E6  00CE               	movwf	??_main
  4095  06E7  084E               	movf	??_main,w
  4096  06E8  00D2               	movwf	main@r1
  4097  06E9                     l2994:
  4098                           
  4099                           ;main.c: 84:         r2 = I2C1_Read1ByteRegister(0b0111000,2);
  4100  06E9  3002               	movlw	2
  4101  06EA  00CE               	movwf	??_main
  4102  06EB  084E               	movf	??_main,w
  4103  06EC  00C3               	movwf	I2C1_Read1ByteRegister@reg
  4104  06ED  3038               	movlw	56
  4105  06EE  3185  258B  3186   	fcall	_I2C1_Read1ByteRegister
  4106  06F1  0020               	movlb	0	; select bank0
  4107  06F2  00CF               	movwf	??_main+1
  4108  06F3  084F               	movf	??_main+1,w
  4109  06F4  00D3               	movwf	main@r2
  4110  06F5                     l2996:
  4111                           
  4112                           ;main.c: 85:         r2 >>= 6;
  4113  06F5  0ED3               	swapf	main@r2,f
  4114  06F6  0CD3               	rrf	main@r2,f
  4115  06F7  0CD3               	rrf	main@r2,f
  4116  06F8  3003               	movlw	3
  4117  06F9  05D3               	andwf	main@r2,f
  4118  06FA                     l2998:
  4119                           
  4120                           ;main.c: 86:         printf("Sensor de temperatura MCC\n %d.%d\n\n",r1,r2*25);
  4121  06FA  3000               	movlw	low (STR_2| (0+32768))
  4122  06FB  00BE               	movwf	printf@f
  4123  06FC  3088               	movlw	high (STR_2| (0+32768))
  4124  06FD  00BF               	movwf	printf@f+1
  4125  06FE  0852               	movf	main@r1,w
  4126  06FF  00CE               	movwf	??_main
  4127  0700  01CF               	clrf	??_main+1
  4128  0701  084E               	movf	??_main,w
  4129  0702  00C0               	movwf	?_printf+2
  4130  0703  084F               	movf	??_main+1,w
  4131  0704  00C1               	movwf	?_printf+3
  4132  0705  0853               	movf	main@r2,w
  4133  0706  00D0               	movwf	??_main+2
  4134  0707  01D1               	clrf	??_main+3
  4135  0708  0850               	movf	??_main+2,w
  4136  0709  00F0               	movwf	___wmul@multiplier
  4137  070A  0851               	movf	??_main+3,w
  4138  070B  00F1               	movwf	___wmul@multiplier+1
  4139  070C  3019               	movlw	25
  4140  070D  00F2               	movwf	___wmul@multiplicand
  4141  070E  3000               	movlw	0
  4142  070F  00F3               	movwf	___wmul@multiplicand+1
  4143  0710  3184  2435  3186   	fcall	___wmul
  4144  0713  0871               	movf	?___wmul+1,w
  4145  0714  0020               	movlb	0	; select bank0
  4146  0715  00C3               	movwf	?_printf+5
  4147  0716  0870               	movf	?___wmul,w
  4148  0717  00C2               	movwf	?_printf+4
  4149  0718  3187  272B  3186   	fcall	_printf
  4150  071B                     l3000:
  4151                           
  4152                           ;main.c: 87:         _delay((unsigned long)((500)*(8000000/4000.0)));
  4153  071B  3006               	movlw	6
  4154  071C  0020               	movlb	0	; select bank0
  4155  071D  00CF               	movwf	??_main+1
  4156  071E  3013               	movlw	19
  4157  071F  00CE               	movwf	??_main
  4158  0720  30AD               	movlw	173
  4159  0721                     u1157:
  4160  0721  0B89               	decfsz	9,f
  4161  0722  2F21               	goto	u1157
  4162  0723  0BCE               	decfsz	??_main,f
  4163  0724  2F21               	goto	u1157
  4164  0725  0BCF               	decfsz	??_main+1,f
  4165  0726  2F21               	goto	u1157
  4166  0727  3200               	nop2
  4167  0728  2EDF               	goto	l2992
  4168  0729  3180  2802         	ljmp	start
  4169  072B                     __end_of_main:
  4170                           
  4171                           	psect	text1
  4172  072B                     __ptext1:	
  4173 ;; *************** function _printf *****************
  4174 ;; Defined at:
  4175 ;;		line 477 in file "C:\Program Files\Microchip\xc8\v2.32\pic\sources\c90\common\doprnt.c"
  4176 ;; Parameters:    Size  Location     Type
  4177 ;;  f               2    0[BANK0 ] PTR const unsigned char 
  4178 ;;		 -> STR_2(35), STR_1(26), 
  4179 ;; Auto vars:     Size  Location     Type
  4180 ;;  tmpval          4    0        struct .
  4181 ;;  val             2   13[BANK0 ] unsigned int 
  4182 ;;  cp              2    0        PTR const unsigned char 
  4183 ;;  len             2    0        unsigned int 
  4184 ;;  c               1   15[BANK0 ] unsigned char 
  4185 ;;  prec            1   12[BANK0 ] char 
  4186 ;;  flag            1   11[BANK0 ] unsigned char 
  4187 ;;  ap              1   10[BANK0 ] PTR void [1]
  4188 ;;		 -> ?_printf(2), 
  4189 ;; Return value:  Size  Location     Type
  4190 ;;                  2    0[BANK0 ] int 
  4191 ;; Registers used:
  4192 ;;		wreg, fsr0l, fsr0h, fsr1l, fsr1h, status,2, status,0, pclath, cstack
  4193 ;; Tracked objects:
  4194 ;;		On entry : 0/0
  4195 ;;		On exit  : 0/0
  4196 ;;		Unchanged: 0/0
  4197 ;; Data sizes:     COMMON   BANK0   BANK1   BANK2   BANK3   BANK4   BANK5   BANK6   BANK7   BANK8   BANK9  BANK10  BANK1
      +1  BANK12
  4198 ;;      Params:         0       6       0       0       0       0       0       0       0       0       0       0       
      +0       0
  4199 ;;      Locals:         0       6       0       0       0       0       0       0       0       0       0       0       
      +0       0
  4200 ;;      Temps:          0       4       0       0       0       0       0       0       0       0       0       0       
      +0       0
  4201 ;;      Totals:         0      16       0       0       0       0       0       0       0       0       0       0       
      +0       0
  4202 ;;Total ram usage:       16 bytes
  4203 ;; Hardware stack levels used: 1
  4204 ;; Hardware stack levels required when called: 2
  4205 ;; This function calls:
  4206 ;;		___lwdiv
  4207 ;;		___lwmod
  4208 ;;		_putch
  4209 ;; This function is called by:
  4210 ;;		_main
  4211 ;; This function uses a non-reentrant model
  4212 ;;
  4213                           
  4214                           
  4215                           ;psect for function _printf
  4216  072B                     _printf:
  4217  072B                     l2798:	
  4218                           ;incstack = 0
  4219                           ; Regs used in _printf: [wreg-fsr1h+status,2+status,0+pclath+cstack]
  4220                           
  4221                           
  4222                           ;C:\Program Files\Microchip\xc8\v2.32\pic\sources\c90\common\doprnt.c: 477: printf(const
      +                           char * f, ...);C:\Program Files\Microchip\xc8\v2.32\pic\sources\c90\common\doprnt.c: 47
      +                          8: {;C:\Program Files\Microchip\xc8\v2.32\pic\sources\c90\common\doprnt.c: 479:  va_list
      +                           ap;;C:\Program Files\Microchip\xc8\v2.32\pic\sources\c90\common\doprnt.c: 512:  char c;
      +                          ;C:\Program Files\Microchip\xc8\v2.32\pic\sources\c90\common\doprnt.c: 521:  signed char
      +                           prec;;C:\Program Files\Microchip\xc8\v2.32\pic\sources\c90\common\doprnt.c: 525:  unsig
      +                          ned char flag;
  4223  072B  3040               	movlw	(low ((?_printf| 0+2)))& (0+255)
  4224  072C  0020               	movlb	0	; select bank0
  4225  072D  00C4               	movwf	??_printf
  4226  072E  0844               	movf	??_printf,w
  4227  072F  00C8               	movwf	printf@ap
  4228                           
  4229                           ;C:\Program Files\Microchip\xc8\v2.32\pic\sources\c90\common\doprnt.c: 553:  while((c = 
      +                          *f++)) {
  4230  0730  2FDF               	goto	l2844
  4231  0731                     l2800:
  4232                           
  4233                           ;C:\Program Files\Microchip\xc8\v2.32\pic\sources\c90\common\doprnt.c: 555:   if(c != '%
      +                          ')
  4234  0731  3025               	movlw	37
  4235  0732  064D               	xorwf	printf@c,w
  4236  0733  1903               	btfsc	3,2
  4237  0734  2F36               	goto	u911
  4238  0735  2F37               	goto	u910
  4239  0736                     u911:
  4240  0736  2F3C               	goto	l2804
  4241  0737                     u910:
  4242  0737                     l2802:
  4243                           
  4244                           ;C:\Program Files\Microchip\xc8\v2.32\pic\sources\c90\common\doprnt.c: 557:   {;C:\Progr
      +                          am Files\Microchip\xc8\v2.32\pic\sources\c90\common\doprnt.c: 558:    (putch(c) );
  4245  0737  084D               	movf	printf@c,w
  4246  0738  3183  2302  3187   	fcall	_putch
  4247                           
  4248                           ;C:\Program Files\Microchip\xc8\v2.32\pic\sources\c90\common\doprnt.c: 559:    continue;
  4249  073B  2FDF               	goto	l2844
  4250  073C                     l2804:
  4251                           
  4252                           ;C:\Program Files\Microchip\xc8\v2.32\pic\sources\c90\common\doprnt.c: 565:   flag = 0;
  4253  073C  01C9               	clrf	printf@flag
  4254  073D                     l2808:	
  4255                           ;C:\Program Files\Microchip\xc8\v2.32\pic\sources\c90\common\doprnt.c: 661:   switch(c =
      +                           *f++) {
  4256                           
  4257  073D  083F               	movf	printf@f+1,w
  4258  073E  00C5               	movwf	??_printf+1
  4259  073F  083E               	movf	printf@f,w
  4260  0740  00C4               	movwf	??_printf
  4261  0741  0ABE               	incf	printf@f,f
  4262  0742  1903               	skipnz
  4263  0743  0ABF               	incf	printf@f+1,f
  4264  0744  0844               	movf	??_printf,w
  4265  0745  0084               	movwf	4
  4266  0746  0845               	movf	??_printf+1,w
  4267  0747  0085               	movwf	5
  4268  0748  0800               	movf	0,w	;code access
  4269  0749  00CD               	movwf	printf@c
  4270  074A  00C6               	movwf	??_printf+2
  4271  074B  01C7               	clrf	??_printf+3
  4272                           
  4273                           ; Switch on 2 bytes has been partitioned into a top level switch of size 1, and 1 sub-sw
      +                          itches
  4274                           ; Switch size 1, requested type "simple"
  4275                           ; Number of cases is 1, Range of values is 0 to 0
  4276                           ; switch strategies available:
  4277                           ; Name         Instructions Cycles
  4278                           ; simple_byte            4     3 (average)
  4279                           ; direct_byte            8     6 (fixed)
  4280                           ; jumptable            260     6 (fixed)
  4281                           ;	Chosen strategy is simple_byte
  4282  074C  0847               	movf	??_printf+3,w
  4283  074D  3A00               	xorlw	0	; case 0
  4284  074E  1903               	skipnz
  4285  074F  2F51               	goto	l3102
  4286  0750  2FDF               	goto	l2844
  4287  0751                     l3102:
  4288                           
  4289                           ; Switch size 1, requested type "simple"
  4290                           ; Number of cases is 3, Range of values is 0 to 105
  4291                           ; switch strategies available:
  4292                           ; Name         Instructions Cycles
  4293                           ; simple_byte           10     6 (average)
  4294                           ; direct_byte          218     6 (fixed)
  4295                           ; jumptable            260     6 (fixed)
  4296                           ;	Chosen strategy is simple_byte
  4297  0751  0846               	movf	??_printf+2,w
  4298  0752  3A00               	xorlw	0	; case 0
  4299  0753  1903               	skipnz
  4300  0754  2FF4               	goto	l830
  4301  0755  3A64               	xorlw	100	; case 100
  4302  0756  1903               	skipnz
  4303  0757  2F5C               	goto	l2810
  4304  0758  3A0D               	xorlw	13	; case 105
  4305  0759  1903               	skipnz
  4306  075A  2F5C               	goto	l2810
  4307  075B  2FDF               	goto	l2844
  4308  075C                     l2810:
  4309                           
  4310                           ;C:\Program Files\Microchip\xc8\v2.32\pic\sources\c90\common\doprnt.c: 1279:   {;C:\Prog
      +                          ram Files\Microchip\xc8\v2.32\pic\sources\c90\common\doprnt.c: 1285:     val = (unsigned
      +                           int)(*(int *)__va_arg((*(int **)ap), (int)0));
  4311  075C  0848               	movf	printf@ap,w
  4312  075D  0086               	movwf	6
  4313  075E  0187               	clrf	7
  4314  075F  3F40               	moviw [0]fsr1
  4315  0760  00CB               	movwf	printf@val
  4316  0761  3F41               	moviw [1]fsr1
  4317  0762  00CC               	movwf	printf@val+1
  4318  0763                     l2812:
  4319  0763  3002               	movlw	2
  4320  0764  00C4               	movwf	??_printf
  4321  0765  0844               	movf	??_printf,w
  4322  0766  07C8               	addwf	printf@ap,f
  4323  0767                     l2814:
  4324                           
  4325                           ;C:\Program Files\Microchip\xc8\v2.32\pic\sources\c90\common\doprnt.c: 1287:    if((int)
      +                          val < 0) {
  4326  0767  1FCC               	btfss	printf@val+1,7
  4327  0768  2F6A               	goto	u921
  4328  0769  2F6B               	goto	u920
  4329  076A                     u921:
  4330  076A  2F74               	goto	l2820
  4331  076B                     u920:
  4332  076B                     l2816:
  4333                           
  4334                           ;C:\Program Files\Microchip\xc8\v2.32\pic\sources\c90\common\doprnt.c: 1288:     flag |=
      +                           0x03;
  4335  076B  3003               	movlw	3
  4336  076C  00C4               	movwf	??_printf
  4337  076D  0844               	movf	??_printf,w
  4338  076E  04C9               	iorwf	printf@flag,f
  4339  076F                     l2818:
  4340                           
  4341                           ;C:\Program Files\Microchip\xc8\v2.32\pic\sources\c90\common\doprnt.c: 1289:     val = -
      +                          val;
  4342  076F  09CB               	comf	printf@val,f
  4343  0770  09CC               	comf	printf@val+1,f
  4344  0771  0ACB               	incf	printf@val,f
  4345  0772  1903               	skipnz
  4346  0773  0ACC               	incf	printf@val+1,f
  4347  0774                     l2820:
  4348                           
  4349                           ;C:\Program Files\Microchip\xc8\v2.32\pic\sources\c90\common\doprnt.c: 1292:   };C:\Prog
      +                          ram Files\Microchip\xc8\v2.32\pic\sources\c90\common\doprnt.c: 1331:    for(c = 1 ; c !=
      +                           sizeof dpowers/sizeof dpowers[0] ; c++)
  4350  0774  01CD               	clrf	printf@c
  4351  0775  0ACD               	incf	printf@c,f
  4352  0776                     l2826:
  4353                           
  4354                           ;C:\Program Files\Microchip\xc8\v2.32\pic\sources\c90\common\doprnt.c: 1332:     if(val 
      +                          < dpowers[c])
  4355  0776  084D               	movf	printf@c,w
  4356  0777  00C4               	movwf	??_printf
  4357  0778  01C5               	clrf	??_printf+1
  4358  0779  35C4               	lslf	??_printf,f
  4359  077A  0DC5               	rlf	??_printf+1,f
  4360  077B  305D               	movlw	low (_dpowers| (0+32768))
  4361  077C  0744               	addwf	??_printf,w
  4362  077D  0084               	movwf	4
  4363  077E  3088               	movlw	high (_dpowers| (0+32768))
  4364  077F  3D45               	addwfc	??_printf+1,w
  4365  0780  0085               	movwf	5
  4366  0781  3F00               	moviw [0]fsr0
  4367  0782  00C6               	movwf	??_printf+2
  4368  0783  3F01               	moviw [1]fsr0
  4369  0784  00C7               	movwf	??_printf+3
  4370  0785  0847               	movf	??_printf+3,w
  4371  0786  024C               	subwf	printf@val+1,w
  4372  0787  1D03               	skipz
  4373  0788  2F8B               	goto	u935
  4374  0789  0846               	movf	??_printf+2,w
  4375  078A  024B               	subwf	printf@val,w
  4376  078B                     u935:
  4377  078B  1803               	skipnc
  4378  078C  2F8E               	goto	u931
  4379  078D  2F8F               	goto	u930
  4380  078E                     u931:
  4381  078E  2F90               	goto	l2830
  4382  078F                     u930:
  4383  078F  2F9A               	goto	l2832
  4384  0790                     l2830:
  4385  0790  3001               	movlw	1
  4386  0791  00C4               	movwf	??_printf
  4387  0792  0844               	movf	??_printf,w
  4388  0793  07CD               	addwf	printf@c,f
  4389  0794  3005               	movlw	5
  4390  0795  064D               	xorwf	printf@c,w
  4391  0796  1D03               	btfss	3,2
  4392  0797  2F99               	goto	u941
  4393  0798  2F9A               	goto	u940
  4394  0799                     u941:
  4395  0799  2F76               	goto	l2826
  4396  079A                     u940:
  4397  079A                     l2832:
  4398                           
  4399                           ;C:\Program Files\Microchip\xc8\v2.32\pic\sources\c90\common\doprnt.c: 1448:   {;C:\Prog
      +                          ram Files\Microchip\xc8\v2.32\pic\sources\c90\common\doprnt.c: 1464:    if(flag & 0x03)
  4400  079A  0849               	movf	printf@flag,w
  4401  079B  3903               	andlw	3
  4402  079C  1903               	btfsc	3,2
  4403  079D  2F9F               	goto	u951
  4404  079E  2FA0               	goto	u950
  4405  079F                     u951:
  4406  079F  2FA4               	goto	l2836
  4407  07A0                     u950:
  4408  07A0                     l2834:
  4409                           
  4410                           ;C:\Program Files\Microchip\xc8\v2.32\pic\sources\c90\common\doprnt.c: 1465:     (putch(
      +                          '-') );
  4411  07A0  302D               	movlw	45
  4412  07A1  3183  2302  3187   	fcall	_putch
  4413  07A4                     l2836:
  4414                           
  4415                           ;C:\Program Files\Microchip\xc8\v2.32\pic\sources\c90\common\doprnt.c: 1495:   };C:\Prog
      +                          ram Files\Microchip\xc8\v2.32\pic\sources\c90\common\doprnt.c: 1498:   prec = c;
  4416  07A4  0020               	movlb	0	; select bank0
  4417  07A5  084D               	movf	printf@c,w
  4418  07A6  00C4               	movwf	??_printf
  4419  07A7  0844               	movf	??_printf,w
  4420  07A8  00CA               	movwf	printf@prec
  4421                           
  4422                           ;C:\Program Files\Microchip\xc8\v2.32\pic\sources\c90\common\doprnt.c: 1500:   while(pre
      +                          c--) {
  4423  07A9  2FD5               	goto	l2842
  4424  07AA                     l2838:
  4425                           
  4426                           ;C:\Program Files\Microchip\xc8\v2.32\pic\sources\c90\common\doprnt.c: 1504:    {;C:\Pro
      +                          gram Files\Microchip\xc8\v2.32\pic\sources\c90\common\doprnt.c: 1515:     c = (val / dpo
      +                          wers[(unsigned char)prec]) % 10 + '0';
  4427  07AA  300A               	movlw	10
  4428  07AB  00F8               	movwf	___lwmod@divisor
  4429  07AC  3000               	movlw	0
  4430  07AD  00F9               	movwf	___lwmod@divisor+1
  4431  07AE  084A               	movf	printf@prec,w
  4432  07AF  00C4               	movwf	??_printf
  4433  07B0  01C5               	clrf	??_printf+1
  4434  07B1  35C4               	lslf	??_printf,f
  4435  07B2  0DC5               	rlf	??_printf+1,f
  4436  07B3  305D               	movlw	low (_dpowers| (0+32768))
  4437  07B4  0744               	addwf	??_printf,w
  4438  07B5  0084               	movwf	4
  4439  07B6  3088               	movlw	high (_dpowers| (0+32768))
  4440  07B7  3D45               	addwfc	??_printf+1,w
  4441  07B8  0085               	movwf	5
  4442  07B9  3F00               	moviw [0]fsr0
  4443  07BA  00F0               	movwf	___lwdiv@divisor
  4444  07BB  3F01               	moviw [1]fsr0
  4445  07BC  00F1               	movwf	___lwdiv@divisor+1
  4446  07BD  084C               	movf	printf@val+1,w
  4447  07BE  00F3               	movwf	___lwdiv@dividend+1
  4448  07BF  084B               	movf	printf@val,w
  4449  07C0  00F2               	movwf	___lwdiv@dividend
  4450  07C1  3185  25FB  3187   	fcall	___lwdiv
  4451  07C4  0871               	movf	?___lwdiv+1,w
  4452  07C5  00FB               	movwf	___lwmod@dividend+1
  4453  07C6  0870               	movf	?___lwdiv,w
  4454  07C7  00FA               	movwf	___lwmod@dividend
  4455  07C8  3185  2522  3187   	fcall	___lwmod
  4456  07CB  0878               	movf	?___lwmod,w
  4457  07CC  3E30               	addlw	48
  4458  07CD  0020               	movlb	0	; select bank0
  4459  07CE  00C6               	movwf	??_printf+2
  4460  07CF  0846               	movf	??_printf+2,w
  4461  07D0  00CD               	movwf	printf@c
  4462  07D1                     l2840:
  4463                           
  4464                           ;C:\Program Files\Microchip\xc8\v2.32\pic\sources\c90\common\doprnt.c: 1549:    };C:\Pro
      +                          gram Files\Microchip\xc8\v2.32\pic\sources\c90\common\doprnt.c: 1550:    (putch(c) );
  4465  07D1  084D               	movf	printf@c,w
  4466  07D2  3183  2302  3187   	fcall	_putch
  4467  07D5                     l2842:
  4468                           
  4469                           ;C:\Program Files\Microchip\xc8\v2.32\pic\sources\c90\common\doprnt.c: 1500:   while(pre
      +                          c--) {
  4470  07D5  30FF               	movlw	255
  4471  07D6  0020               	movlb	0	; select bank0
  4472  07D7  00C4               	movwf	??_printf
  4473  07D8  0844               	movf	??_printf,w
  4474  07D9  07CA               	addwf	printf@prec,f
  4475  07DA  0A4A               	incf	printf@prec,w
  4476  07DB  1D03               	btfss	3,2
  4477  07DC  2FDE               	goto	u961
  4478  07DD  2FDF               	goto	u960
  4479  07DE                     u961:
  4480  07DE  2FAA               	goto	l2838
  4481  07DF                     u960:
  4482  07DF                     l2844:
  4483                           
  4484                           ;C:\Program Files\Microchip\xc8\v2.32\pic\sources\c90\common\doprnt.c: 553:  while((c = 
      +                          *f++)) {
  4485  07DF  0020               	movlb	0	; select bank0
  4486  07E0  083F               	movf	printf@f+1,w
  4487  07E1  00C5               	movwf	??_printf+1
  4488  07E2  083E               	movf	printf@f,w
  4489  07E3  00C4               	movwf	??_printf
  4490  07E4  0ABE               	incf	printf@f,f
  4491  07E5  1903               	skipnz
  4492  07E6  0ABF               	incf	printf@f+1,f
  4493  07E7  0844               	movf	??_printf,w
  4494  07E8  0084               	movwf	4
  4495  07E9  0845               	movf	??_printf+1,w
  4496  07EA  0085               	movwf	5
  4497  07EB  0800               	movf	0,w	;code access
  4498  07EC  00C6               	movwf	??_printf+2
  4499  07ED  0846               	movf	??_printf+2,w
  4500  07EE  00CD               	movwf	printf@c
  4501  07EF  084D               	movf	printf@c,w
  4502  07F0  1D03               	btfss	3,2
  4503  07F1  2FF3               	goto	u971
  4504  07F2  2FF4               	goto	u970
  4505  07F3                     u971:
  4506  07F3  2F31               	goto	l2800
  4507  07F4                     u970:
  4508  07F4                     l830:
  4509  07F4  0008               	return
  4510  07F5                     __end_of_printf:
  4511                           
  4512                           	psect	text2
  4513  0302                     __ptext2:	
  4514 ;; *************** function _putch *****************
  4515 ;; Defined at:
  4516 ;;		line 146 in file "mcc_generated_files/eusart.c"
  4517 ;; Parameters:    Size  Location     Type
  4518 ;;  txData          1    wreg     unsigned char 
  4519 ;; Auto vars:     Size  Location     Type
  4520 ;;  txData          1    1[COMMON] unsigned char 
  4521 ;; Return value:  Size  Location     Type
  4522 ;;                  1    wreg      void 
  4523 ;; Registers used:
  4524 ;;		wreg, status,2, status,0, pclath, cstack
  4525 ;; Tracked objects:
  4526 ;;		On entry : 0/0
  4527 ;;		On exit  : 0/0
  4528 ;;		Unchanged: 0/0
  4529 ;; Data sizes:     COMMON   BANK0   BANK1   BANK2   BANK3   BANK4   BANK5   BANK6   BANK7   BANK8   BANK9  BANK10  BANK1
      +1  BANK12
  4530 ;;      Params:         0       0       0       0       0       0       0       0       0       0       0       0       
      +0       0
  4531 ;;      Locals:         1       0       0       0       0       0       0       0       0       0       0       0       
      +0       0
  4532 ;;      Temps:          0       0       0       0       0       0       0       0       0       0       0       0       
      +0       0
  4533 ;;      Totals:         1       0       0       0       0       0       0       0       0       0       0       0       
      +0       0
  4534 ;;Total ram usage:        1 bytes
  4535 ;; Hardware stack levels used: 1
  4536 ;; Hardware stack levels required when called: 1
  4537 ;; This function calls:
  4538 ;;		_EUSART_Write
  4539 ;; This function is called by:
  4540 ;;		_printf
  4541 ;; This function uses a non-reentrant model
  4542 ;;
  4543                           
  4544                           
  4545                           ;psect for function _putch
  4546  0302                     _putch:
  4547                           
  4548                           ;incstack = 0
  4549                           ; Regs used in _putch: [wreg+status,2+status,0+pclath+cstack]
  4550                           ;putch@txData stored from wreg
  4551  0302  00F1               	movwf	putch@txData
  4552  0303                     l2708:
  4553                           
  4554                           ;mcc_generated_files/eusart.c: 146: void putch(char txData);mcc_generated_files/eusart.c
      +                          : 147: {;mcc_generated_files/eusart.c: 148:     EUSART_Write(txData);
  4555  0303  0871               	movf	putch@txData,w
  4556  0304  3183  2340  3183   	fcall	_EUSART_Write
  4557  0307                     l219:
  4558  0307  0008               	return
  4559  0308                     __end_of_putch:
  4560                           
  4561                           	psect	text3
  4562  0340                     __ptext3:	
  4563 ;; *************** function _EUSART_Write *****************
  4564 ;; Defined at:
  4565 ;;		line 132 in file "mcc_generated_files/eusart.c"
  4566 ;; Parameters:    Size  Location     Type
  4567 ;;  txData          1    wreg     unsigned char 
  4568 ;; Auto vars:     Size  Location     Type
  4569 ;;  txData          1    0[COMMON] unsigned char 
  4570 ;; Return value:  Size  Location     Type
  4571 ;;                  1    wreg      void 
  4572 ;; Registers used:
  4573 ;;		wreg
  4574 ;; Tracked objects:
  4575 ;;		On entry : 0/0
  4576 ;;		On exit  : 0/0
  4577 ;;		Unchanged: 0/0
  4578 ;; Data sizes:     COMMON   BANK0   BANK1   BANK2   BANK3   BANK4   BANK5   BANK6   BANK7   BANK8   BANK9  BANK10  BANK1
      +1  BANK12
  4579 ;;      Params:         0       0       0       0       0       0       0       0       0       0       0       0       
      +0       0
  4580 ;;      Locals:         1       0       0       0       0       0       0       0       0       0       0       0       
      +0       0
  4581 ;;      Temps:          0       0       0       0       0       0       0       0       0       0       0       0       
      +0       0
  4582 ;;      Totals:         1       0       0       0       0       0       0       0       0       0       0       0       
      +0       0
  4583 ;;Total ram usage:        1 bytes
  4584 ;; Hardware stack levels used: 1
  4585 ;; This function calls:
  4586 ;;		Nothing
  4587 ;; This function is called by:
  4588 ;;		_putch
  4589 ;; This function uses a non-reentrant model
  4590 ;;
  4591                           
  4592                           
  4593                           ;psect for function _EUSART_Write
  4594  0340                     _EUSART_Write:
  4595                           
  4596                           ;incstack = 0
  4597                           ; Regs used in _EUSART_Write: [wreg]
  4598                           ;EUSART_Write@txData stored from wreg
  4599  0340  00F0               	movwf	EUSART_Write@txData
  4600  0341                     l2544:
  4601  0341                     l210:	
  4602                           ;mcc_generated_files/eusart.c: 135:     {;mcc_generated_files/eusart.c: 136:     }
  4603                           
  4604                           
  4605                           ;mcc_generated_files/eusart.c: 134:     while(0 == PIR3bits.TXIF)
  4606  0341  002E               	movlb	14	; select bank14
  4607  0342  1E0F               	btfss	15,4	;volatile
  4608  0343  2B45               	goto	u681
  4609  0344  2B46               	goto	u680
  4610  0345                     u681:
  4611  0345  2B41               	goto	l210
  4612  0346                     u680:
  4613  0346                     l2546:
  4614                           
  4615                           ;mcc_generated_files/eusart.c: 138:     TX1REG = txData;
  4616  0346  0870               	movf	EUSART_Write@txData,w
  4617  0347  0022               	movlb	2	; select bank2
  4618  0348  009A               	movwf	26	;volatile
  4619  0349                     l213:
  4620  0349  0008               	return
  4621  034A                     __end_of_EUSART_Write:
  4622                           
  4623                           	psect	text4
  4624  0522                     __ptext4:	
  4625 ;; *************** function ___lwmod *****************
  4626 ;; Defined at:
  4627 ;;		line 5 in file "C:\Program Files\Microchip\xc8\v2.32\pic\sources\c90\common\lwmod.c"
  4628 ;; Parameters:    Size  Location     Type
  4629 ;;  divisor         2    8[COMMON] unsigned int 
  4630 ;;  dividend        2   10[COMMON] unsigned int 
  4631 ;; Auto vars:     Size  Location     Type
  4632 ;;  counter         1   13[COMMON] unsigned char 
  4633 ;; Return value:  Size  Location     Type
  4634 ;;                  2    8[COMMON] unsigned int 
  4635 ;; Registers used:
  4636 ;;		wreg, status,2, status,0
  4637 ;; Tracked objects:
  4638 ;;		On entry : 0/0
  4639 ;;		On exit  : 0/0
  4640 ;;		Unchanged: 0/0
  4641 ;; Data sizes:     COMMON   BANK0   BANK1   BANK2   BANK3   BANK4   BANK5   BANK6   BANK7   BANK8   BANK9  BANK10  BANK1
      +1  BANK12
  4642 ;;      Params:         4       0       0       0       0       0       0       0       0       0       0       0       
      +0       0
  4643 ;;      Locals:         1       0       0       0       0       0       0       0       0       0       0       0       
      +0       0
  4644 ;;      Temps:          1       0       0       0       0       0       0       0       0       0       0       0       
      +0       0
  4645 ;;      Totals:         6       0       0       0       0       0       0       0       0       0       0       0       
      +0       0
  4646 ;;Total ram usage:        6 bytes
  4647 ;; Hardware stack levels used: 1
  4648 ;; This function calls:
  4649 ;;		Nothing
  4650 ;; This function is called by:
  4651 ;;		_printf
  4652 ;; This function uses a non-reentrant model
  4653 ;;
  4654                           
  4655                           
  4656                           ;psect for function ___lwmod
  4657  0522                     ___lwmod:
  4658  0522                     l2736:	
  4659                           ;incstack = 0
  4660                           ; Regs used in ___lwmod: [wreg+status,2+status,0]
  4661                           
  4662  0522  0878               	movf	___lwmod@divisor,w
  4663  0523  0479               	iorwf	___lwmod@divisor+1,w
  4664  0524  1903               	btfsc	3,2
  4665  0525  2D27               	goto	u811
  4666  0526  2D28               	goto	u810
  4667  0527                     u811:
  4668  0527  2D51               	goto	l2754
  4669  0528                     u810:
  4670  0528                     l2738:
  4671  0528  01FD               	clrf	___lwmod@counter
  4672  0529  0AFD               	incf	___lwmod@counter,f
  4673  052A  2D34               	goto	l2744
  4674  052B                     l2740:
  4675  052B  3001               	movlw	1
  4676  052C                     u825:
  4677  052C  35F8               	lslf	___lwmod@divisor,f
  4678  052D  0DF9               	rlf	___lwmod@divisor+1,f
  4679  052E  0B89               	decfsz	9,f
  4680  052F  2D2C               	goto	u825
  4681  0530                     l2742:
  4682  0530  3001               	movlw	1
  4683  0531  00FC               	movwf	??___lwmod
  4684  0532  087C               	movf	??___lwmod,w
  4685  0533  07FD               	addwf	___lwmod@counter,f
  4686  0534                     l2744:
  4687  0534  1FF9               	btfss	___lwmod@divisor+1,7
  4688  0535  2D37               	goto	u831
  4689  0536  2D38               	goto	u830
  4690  0537                     u831:
  4691  0537  2D2B               	goto	l2740
  4692  0538                     u830:
  4693  0538                     l2746:
  4694  0538  0879               	movf	___lwmod@divisor+1,w
  4695  0539  027B               	subwf	___lwmod@dividend+1,w
  4696  053A  1D03               	skipz
  4697  053B  2D3E               	goto	u845
  4698  053C  0878               	movf	___lwmod@divisor,w
  4699  053D  027A               	subwf	___lwmod@dividend,w
  4700  053E                     u845:
  4701  053E  1C03               	skipc
  4702  053F  2D41               	goto	u841
  4703  0540  2D42               	goto	u840
  4704  0541                     u841:
  4705  0541  2D46               	goto	l2750
  4706  0542                     u840:
  4707  0542                     l2748:
  4708  0542  0878               	movf	___lwmod@divisor,w
  4709  0543  02FA               	subwf	___lwmod@dividend,f
  4710  0544  0879               	movf	___lwmod@divisor+1,w
  4711  0545  3BFB               	subwfb	___lwmod@dividend+1,f
  4712  0546                     l2750:
  4713  0546  3001               	movlw	1
  4714  0547                     u855:
  4715  0547  36F9               	lsrf	___lwmod@divisor+1,f
  4716  0548  0CF8               	rrf	___lwmod@divisor,f
  4717  0549  0B89               	decfsz	9,f
  4718  054A  2D47               	goto	u855
  4719  054B                     l2752:
  4720  054B  3001               	movlw	1
  4721  054C  02FD               	subwf	___lwmod@counter,f
  4722  054D  1D03               	btfss	3,2
  4723  054E  2D50               	goto	u861
  4724  054F  2D51               	goto	u860
  4725  0550                     u861:
  4726  0550  2D38               	goto	l2746
  4727  0551                     u860:
  4728  0551                     l2754:
  4729  0551  087B               	movf	___lwmod@dividend+1,w
  4730  0552  00F9               	movwf	?___lwmod+1
  4731  0553  087A               	movf	___lwmod@dividend,w
  4732  0554  00F8               	movwf	?___lwmod
  4733  0555                     l1116:
  4734  0555  0008               	return
  4735  0556                     __end_of___lwmod:
  4736                           
  4737                           	psect	text5
  4738  05FB                     __ptext5:	
  4739 ;; *************** function ___lwdiv *****************
  4740 ;; Defined at:
  4741 ;;		line 5 in file "C:\Program Files\Microchip\xc8\v2.32\pic\sources\c90\common\lwdiv.c"
  4742 ;; Parameters:    Size  Location     Type
  4743 ;;  divisor         2    0[COMMON] unsigned int 
  4744 ;;  dividend        2    2[COMMON] unsigned int 
  4745 ;; Auto vars:     Size  Location     Type
  4746 ;;  quotient        2    5[COMMON] unsigned int 
  4747 ;;  counter         1    7[COMMON] unsigned char 
  4748 ;; Return value:  Size  Location     Type
  4749 ;;                  2    0[COMMON] unsigned int 
  4750 ;; Registers used:
  4751 ;;		wreg, status,2, status,0
  4752 ;; Tracked objects:
  4753 ;;		On entry : 0/0
  4754 ;;		On exit  : 0/0
  4755 ;;		Unchanged: 0/0
  4756 ;; Data sizes:     COMMON   BANK0   BANK1   BANK2   BANK3   BANK4   BANK5   BANK6   BANK7   BANK8   BANK9  BANK10  BANK1
      +1  BANK12
  4757 ;;      Params:         4       0       0       0       0       0       0       0       0       0       0       0       
      +0       0
  4758 ;;      Locals:         3       0       0       0       0       0       0       0       0       0       0       0       
      +0       0
  4759 ;;      Temps:          1       0       0       0       0       0       0       0       0       0       0       0       
      +0       0
  4760 ;;      Totals:         8       0       0       0       0       0       0       0       0       0       0       0       
      +0       0
  4761 ;;Total ram usage:        8 bytes
  4762 ;; Hardware stack levels used: 1
  4763 ;; This function calls:
  4764 ;;		Nothing
  4765 ;; This function is called by:
  4766 ;;		_printf
  4767 ;; This function uses a non-reentrant model
  4768 ;;
  4769                           
  4770                           
  4771                           ;psect for function ___lwdiv
  4772  05FB                     ___lwdiv:
  4773  05FB                     l2710:	
  4774                           ;incstack = 0
  4775                           ; Regs used in ___lwdiv: [wreg+status,2+status,0]
  4776                           
  4777  05FB  01F5               	clrf	___lwdiv@quotient
  4778  05FC  01F6               	clrf	___lwdiv@quotient+1
  4779  05FD                     l2712:
  4780  05FD  0870               	movf	___lwdiv@divisor,w
  4781  05FE  0471               	iorwf	___lwdiv@divisor+1,w
  4782  05FF  1903               	btfsc	3,2
  4783  0600  2E02               	goto	u741
  4784  0601  2E03               	goto	u740
  4785  0602                     u741:
  4786  0602  2E32               	goto	l2732
  4787  0603                     u740:
  4788  0603                     l2714:
  4789  0603  01F7               	clrf	___lwdiv@counter
  4790  0604  0AF7               	incf	___lwdiv@counter,f
  4791  0605  2E0F               	goto	l2720
  4792  0606                     l2716:
  4793  0606  3001               	movlw	1
  4794  0607                     u755:
  4795  0607  35F0               	lslf	___lwdiv@divisor,f
  4796  0608  0DF1               	rlf	___lwdiv@divisor+1,f
  4797  0609  0B89               	decfsz	9,f
  4798  060A  2E07               	goto	u755
  4799  060B                     l2718:
  4800  060B  3001               	movlw	1
  4801  060C  00F4               	movwf	??___lwdiv
  4802  060D  0874               	movf	??___lwdiv,w
  4803  060E  07F7               	addwf	___lwdiv@counter,f
  4804  060F                     l2720:
  4805  060F  1FF1               	btfss	___lwdiv@divisor+1,7
  4806  0610  2E12               	goto	u761
  4807  0611  2E13               	goto	u760
  4808  0612                     u761:
  4809  0612  2E06               	goto	l2716
  4810  0613                     u760:
  4811  0613                     l2722:
  4812  0613  3001               	movlw	1
  4813  0614                     u775:
  4814  0614  35F5               	lslf	___lwdiv@quotient,f
  4815  0615  0DF6               	rlf	___lwdiv@quotient+1,f
  4816  0616  0B89               	decfsz	9,f
  4817  0617  2E14               	goto	u775
  4818  0618  0871               	movf	___lwdiv@divisor+1,w
  4819  0619  0273               	subwf	___lwdiv@dividend+1,w
  4820  061A  1D03               	skipz
  4821  061B  2E1E               	goto	u785
  4822  061C  0870               	movf	___lwdiv@divisor,w
  4823  061D  0272               	subwf	___lwdiv@dividend,w
  4824  061E                     u785:
  4825  061E  1C03               	skipc
  4826  061F  2E21               	goto	u781
  4827  0620  2E22               	goto	u780
  4828  0621                     u781:
  4829  0621  2E27               	goto	l2728
  4830  0622                     u780:
  4831  0622                     l2724:
  4832  0622  0870               	movf	___lwdiv@divisor,w
  4833  0623  02F2               	subwf	___lwdiv@dividend,f
  4834  0624  0871               	movf	___lwdiv@divisor+1,w
  4835  0625  3BF3               	subwfb	___lwdiv@dividend+1,f
  4836  0626                     l2726:
  4837  0626  1475               	bsf	___lwdiv@quotient,0
  4838  0627                     l2728:
  4839  0627  3001               	movlw	1
  4840  0628                     u795:
  4841  0628  36F1               	lsrf	___lwdiv@divisor+1,f
  4842  0629  0CF0               	rrf	___lwdiv@divisor,f
  4843  062A  0B89               	decfsz	9,f
  4844  062B  2E28               	goto	u795
  4845  062C                     l2730:
  4846  062C  3001               	movlw	1
  4847  062D  02F7               	subwf	___lwdiv@counter,f
  4848  062E  1D03               	btfss	3,2
  4849  062F  2E31               	goto	u801
  4850  0630  2E32               	goto	u800
  4851  0631                     u801:
  4852  0631  2E13               	goto	l2722
  4853  0632                     u800:
  4854  0632                     l2732:
  4855  0632  0876               	movf	___lwdiv@quotient+1,w
  4856  0633  00F1               	movwf	?___lwdiv+1
  4857  0634  0875               	movf	___lwdiv@quotient,w
  4858  0635  00F0               	movwf	?___lwdiv
  4859  0636                     l1106:
  4860  0636  0008               	return
  4861  0637                     __end_of___lwdiv:
  4862                           
  4863                           	psect	text6
  4864  0435                     __ptext6:	
  4865 ;; *************** function ___wmul *****************
  4866 ;; Defined at:
  4867 ;;		line 15 in file "C:\Program Files\Microchip\xc8\v2.32\pic\sources\c90\common\Umul16.c"
  4868 ;; Parameters:    Size  Location     Type
  4869 ;;  multiplier      2    0[COMMON] unsigned int 
  4870 ;;  multiplicand    2    2[COMMON] unsigned int 
  4871 ;; Auto vars:     Size  Location     Type
  4872 ;;  product         2    4[COMMON] unsigned int 
  4873 ;; Return value:  Size  Location     Type
  4874 ;;                  2    0[COMMON] unsigned int 
  4875 ;; Registers used:
  4876 ;;		wreg, status,2, status,0
  4877 ;; Tracked objects:
  4878 ;;		On entry : 0/0
  4879 ;;		On exit  : 0/0
  4880 ;;		Unchanged: 0/0
  4881 ;; Data sizes:     COMMON   BANK0   BANK1   BANK2   BANK3   BANK4   BANK5   BANK6   BANK7   BANK8   BANK9  BANK10  BANK1
      +1  BANK12
  4882 ;;      Params:         4       0       0       0       0       0       0       0       0       0       0       0       
      +0       0
  4883 ;;      Locals:         2       0       0       0       0       0       0       0       0       0       0       0       
      +0       0
  4884 ;;      Temps:          0       0       0       0       0       0       0       0       0       0       0       0       
      +0       0
  4885 ;;      Totals:         6       0       0       0       0       0       0       0       0       0       0       0       
      +0       0
  4886 ;;Total ram usage:        6 bytes
  4887 ;; Hardware stack levels used: 1
  4888 ;; This function calls:
  4889 ;;		Nothing
  4890 ;; This function is called by:
  4891 ;;		_main
  4892 ;; This function uses a non-reentrant model
  4893 ;;
  4894                           
  4895                           
  4896                           ;psect for function ___wmul
  4897  0435                     ___wmul:
  4898  0435                     l2850:	
  4899                           ;incstack = 0
  4900                           ; Regs used in ___wmul: [wreg+status,2+status,0]
  4901                           
  4902  0435  01F4               	clrf	___wmul@product
  4903  0436  01F5               	clrf	___wmul@product+1
  4904  0437                     l2852:
  4905  0437  1C70               	btfss	___wmul@multiplier,0
  4906  0438  2C3A               	goto	u981
  4907  0439  2C3B               	goto	u980
  4908  043A                     u981:
  4909  043A  2C3F               	goto	l834
  4910  043B                     u980:
  4911  043B                     l2854:
  4912  043B  0872               	movf	___wmul@multiplicand,w
  4913  043C  07F4               	addwf	___wmul@product,f
  4914  043D  0873               	movf	___wmul@multiplicand+1,w
  4915  043E  3DF5               	addwfc	___wmul@product+1,f
  4916  043F                     l834:
  4917  043F  3001               	movlw	1
  4918  0440                     u995:
  4919  0440  35F2               	lslf	___wmul@multiplicand,f
  4920  0441  0DF3               	rlf	___wmul@multiplicand+1,f
  4921  0442  0B89               	decfsz	9,f
  4922  0443  2C40               	goto	u995
  4923  0444                     l2856:
  4924  0444  3001               	movlw	1
  4925  0445                     u1005:
  4926  0445  36F1               	lsrf	___wmul@multiplier+1,f
  4927  0446  0CF0               	rrf	___wmul@multiplier,f
  4928  0447  0B89               	decfsz	9,f
  4929  0448  2C45               	goto	u1005
  4930  0449                     l2858:
  4931  0449  0870               	movf	___wmul@multiplier,w
  4932  044A  0471               	iorwf	___wmul@multiplier+1,w
  4933  044B  1D03               	btfss	3,2
  4934  044C  2C4E               	goto	u1011
  4935  044D  2C4F               	goto	u1010
  4936  044E                     u1011:
  4937  044E  2C37               	goto	l2852
  4938  044F                     u1010:
  4939  044F                     l2860:
  4940  044F  0875               	movf	___wmul@product+1,w
  4941  0450  00F1               	movwf	?___wmul+1
  4942  0451  0874               	movf	___wmul@product,w
  4943  0452  00F0               	movwf	?___wmul
  4944  0453                     l836:
  4945  0453  0008               	return
  4946  0454                     __end_of___wmul:
  4947                           
  4948                           	psect	text7
  4949  038E                     __ptext7:	
  4950 ;; *************** function _SYSTEM_Initialize *****************
  4951 ;; Defined at:
  4952 ;;		line 50 in file "mcc_generated_files/mcc.c"
  4953 ;; Parameters:    Size  Location     Type
  4954 ;;		None
  4955 ;; Auto vars:     Size  Location     Type
  4956 ;;		None
  4957 ;; Return value:  Size  Location     Type
  4958 ;;                  1    wreg      void 
  4959 ;; Registers used:
  4960 ;;		wreg, status,2, status,0, pclath, cstack
  4961 ;; Tracked objects:
  4962 ;;		On entry : 0/0
  4963 ;;		On exit  : 0/0
  4964 ;;		Unchanged: 0/0
  4965 ;; Data sizes:     COMMON   BANK0   BANK1   BANK2   BANK3   BANK4   BANK5   BANK6   BANK7   BANK8   BANK9  BANK10  BANK1
      +1  BANK12
  4966 ;;      Params:         0       0       0       0       0       0       0       0       0       0       0       0       
      +0       0
  4967 ;;      Locals:         0       0       0       0       0       0       0       0       0       0       0       0       
      +0       0
  4968 ;;      Temps:          0       0       0       0       0       0       0       0       0       0       0       0       
      +0       0
  4969 ;;      Totals:         0       0       0       0       0       0       0       0       0       0       0       0       
      +0       0
  4970 ;;Total ram usage:        0 bytes
  4971 ;; Hardware stack levels used: 1
  4972 ;; Hardware stack levels required when called: 2
  4973 ;; This function calls:
  4974 ;;		_EUSART_Initialize
  4975 ;;		_I2C1_Initialize
  4976 ;;		_OSCILLATOR_Initialize
  4977 ;;		_PIN_MANAGER_Initialize
  4978 ;;		_PMD_Initialize
  4979 ;; This function is called by:
  4980 ;;		_main
  4981 ;; This function uses a non-reentrant model
  4982 ;;
  4983                           
  4984                           
  4985                           ;psect for function _SYSTEM_Initialize
  4986  038E                     _SYSTEM_Initialize:
  4987  038E                     l2776:	
  4988                           ;incstack = 0
  4989                           ; Regs used in _SYSTEM_Initialize: [wreg+status,2+status,0+pclath+cstack]
  4990                           
  4991                           
  4992                           ;mcc_generated_files/mcc.c: 52:     PMD_Initialize();
  4993  038E  3183  231D  3183   	fcall	_PMD_Initialize
  4994  0391                     l2778:
  4995                           
  4996                           ;mcc_generated_files/mcc.c: 53:     I2C1_Initialize();
  4997  0391  3183  232E  3183   	fcall	_I2C1_Initialize
  4998  0394                     l2780:
  4999                           
  5000                           ;mcc_generated_files/mcc.c: 54:     PIN_MANAGER_Initialize();
  5001  0394  3185  2556  3183   	fcall	_PIN_MANAGER_Initialize
  5002  0397                     l2782:
  5003                           
  5004                           ;mcc_generated_files/mcc.c: 55:     OSCILLATOR_Initialize();
  5005  0397  3183  2337  3183   	fcall	_OSCILLATOR_Initialize
  5006  039A                     l2784:
  5007                           
  5008                           ;mcc_generated_files/mcc.c: 56:     EUSART_Initialize();
  5009  039A  3184  2454  3183   	fcall	_EUSART_Initialize
  5010  039D                     l137:
  5011  039D  0008               	return
  5012  039E                     __end_of_SYSTEM_Initialize:
  5013                           
  5014                           	psect	text8
  5015  031D                     __ptext8:	
  5016 ;; *************** function _PMD_Initialize *****************
  5017 ;; Defined at:
  5018 ;;		line 73 in file "mcc_generated_files/mcc.c"
  5019 ;; Parameters:    Size  Location     Type
  5020 ;;		None
  5021 ;; Auto vars:     Size  Location     Type
  5022 ;;		None
  5023 ;; Return value:  Size  Location     Type
  5024 ;;                  1    wreg      void 
  5025 ;; Registers used:
  5026 ;;		status,2
  5027 ;; Tracked objects:
  5028 ;;		On entry : 0/0
  5029 ;;		On exit  : 0/0
  5030 ;;		Unchanged: 0/0
  5031 ;; Data sizes:     COMMON   BANK0   BANK1   BANK2   BANK3   BANK4   BANK5   BANK6   BANK7   BANK8   BANK9  BANK10  BANK1
      +1  BANK12
  5032 ;;      Params:         0       0       0       0       0       0       0       0       0       0       0       0       
      +0       0
  5033 ;;      Locals:         0       0       0       0       0       0       0       0       0       0       0       0       
      +0       0
  5034 ;;      Temps:          0       0       0       0       0       0       0       0       0       0       0       0       
      +0       0
  5035 ;;      Totals:         0       0       0       0       0       0       0       0       0       0       0       0       
      +0       0
  5036 ;;Total ram usage:        0 bytes
  5037 ;; Hardware stack levels used: 1
  5038 ;; This function calls:
  5039 ;;		Nothing
  5040 ;; This function is called by:
  5041 ;;		_SYSTEM_Initialize
  5042 ;; This function uses a non-reentrant model
  5043 ;;
  5044                           
  5045                           
  5046                           ;psect for function _PMD_Initialize
  5047  031D                     _PMD_Initialize:
  5048  031D                     l2640:	
  5049                           ;incstack = 0
  5050                           ; Regs used in _PMD_Initialize: [status,2]
  5051                           
  5052                           
  5053                           ;mcc_generated_files/mcc.c: 76:     PMD0 = 0x00;
  5054  031D  002F               	movlb	15	; select bank15
  5055  031E  0196               	clrf	22	;volatile
  5056                           
  5057                           ;mcc_generated_files/mcc.c: 78:     PMD1 = 0x00;
  5058  031F  0197               	clrf	23	;volatile
  5059                           
  5060                           ;mcc_generated_files/mcc.c: 80:     PMD2 = 0x00;
  5061  0320  0198               	clrf	24	;volatile
  5062                           
  5063                           ;mcc_generated_files/mcc.c: 82:     PMD3 = 0x00;
  5064  0321  0199               	clrf	25	;volatile
  5065                           
  5066                           ;mcc_generated_files/mcc.c: 84:     PMD4 = 0x00;
  5067  0322  019A               	clrf	26	;volatile
  5068                           
  5069                           ;mcc_generated_files/mcc.c: 86:     PMD5 = 0x00;
  5070  0323  019B               	clrf	27	;volatile
  5071  0324                     l143:
  5072  0324  0008               	return
  5073  0325                     __end_of_PMD_Initialize:
  5074                           
  5075                           	psect	text9
  5076  0556                     __ptext9:	
  5077 ;; *************** function _PIN_MANAGER_Initialize *****************
  5078 ;; Defined at:
  5079 ;;		line 55 in file "mcc_generated_files/pin_manager.c"
  5080 ;; Parameters:    Size  Location     Type
  5081 ;;		None
  5082 ;; Auto vars:     Size  Location     Type
  5083 ;;		None
  5084 ;; Return value:  Size  Location     Type
  5085 ;;                  1    wreg      void 
  5086 ;; Registers used:
  5087 ;;		wreg, status,2
  5088 ;; Tracked objects:
  5089 ;;		On entry : 0/0
  5090 ;;		On exit  : 0/0
  5091 ;;		Unchanged: 0/0
  5092 ;; Data sizes:     COMMON   BANK0   BANK1   BANK2   BANK3   BANK4   BANK5   BANK6   BANK7   BANK8   BANK9  BANK10  BANK1
      +1  BANK12
  5093 ;;      Params:         0       0       0       0       0       0       0       0       0       0       0       0       
      +0       0
  5094 ;;      Locals:         0       0       0       0       0       0       0       0       0       0       0       0       
      +0       0
  5095 ;;      Temps:          0       0       0       0       0       0       0       0       0       0       0       0       
      +0       0
  5096 ;;      Totals:         0       0       0       0       0       0       0       0       0       0       0       0       
      +0       0
  5097 ;;Total ram usage:        0 bytes
  5098 ;; Hardware stack levels used: 1
  5099 ;; This function calls:
  5100 ;;		Nothing
  5101 ;; This function is called by:
  5102 ;;		_SYSTEM_Initialize
  5103 ;; This function uses a non-reentrant model
  5104 ;;
  5105                           
  5106                           
  5107                           ;psect for function _PIN_MANAGER_Initialize
  5108  0556                     _PIN_MANAGER_Initialize:
  5109  0556                     l2650:	
  5110                           ;incstack = 0
  5111                           ; Regs used in _PIN_MANAGER_Initialize: [wreg+status,2]
  5112                           
  5113                           
  5114                           ;mcc_generated_files/pin_manager.c: 60:     LATA = 0x00;
  5115  0556  0020               	movlb	0	; select bank0
  5116  0557  0196               	clrf	22	;volatile
  5117                           
  5118                           ;mcc_generated_files/pin_manager.c: 61:     LATB = 0x00;
  5119  0558  0197               	clrf	23	;volatile
  5120                           
  5121                           ;mcc_generated_files/pin_manager.c: 62:     LATC = 0x00;
  5122  0559  0198               	clrf	24	;volatile
  5123  055A                     l2652:
  5124                           
  5125                           ;mcc_generated_files/pin_manager.c: 67:     TRISA = 0xF0;
  5126  055A  30F0               	movlw	240
  5127  055B  0091               	movwf	17	;volatile
  5128  055C                     l2654:
  5129                           
  5130                           ;mcc_generated_files/pin_manager.c: 68:     TRISB = 0xFF;
  5131  055C  30FF               	movlw	255
  5132  055D  0092               	movwf	18	;volatile
  5133  055E                     l2656:
  5134                           
  5135                           ;mcc_generated_files/pin_manager.c: 69:     TRISC = 0xFE;
  5136  055E  30FE               	movlw	254
  5137  055F  0093               	movwf	19	;volatile
  5138  0560                     l2658:
  5139                           
  5140                           ;mcc_generated_files/pin_manager.c: 74:     ANSELC = 0xE4;
  5141  0560  30E4               	movlw	228
  5142  0561  003E               	movlb	30	; select bank30
  5143  0562  00CE               	movwf	78	;volatile
  5144  0563                     l2660:
  5145                           
  5146                           ;mcc_generated_files/pin_manager.c: 75:     ANSELB = 0xFF;
  5147  0563  30FF               	movlw	255
  5148  0564  00C3               	movwf	67	;volatile
  5149  0565                     l2662:
  5150                           
  5151                           ;mcc_generated_files/pin_manager.c: 76:     ANSELA = 0xC0;
  5152  0565  30C0               	movlw	192
  5153  0566  00B8               	movwf	56	;volatile
  5154                           
  5155                           ;mcc_generated_files/pin_manager.c: 81:     WPUE = 0x00;
  5156  0567  01E5               	clrf	101	;volatile
  5157                           
  5158                           ;mcc_generated_files/pin_manager.c: 82:     WPUB = 0x00;
  5159  0568  01C4               	clrf	68	;volatile
  5160                           
  5161                           ;mcc_generated_files/pin_manager.c: 83:     WPUA = 0x00;
  5162  0569  01B9               	clrf	57	;volatile
  5163                           
  5164                           ;mcc_generated_files/pin_manager.c: 84:     WPUC = 0x00;
  5165  056A  01CF               	clrf	79	;volatile
  5166                           
  5167                           ;mcc_generated_files/pin_manager.c: 89:     ODCONA = 0x00;
  5168  056B  01BA               	clrf	58	;volatile
  5169                           
  5170                           ;mcc_generated_files/pin_manager.c: 90:     ODCONB = 0x00;
  5171  056C  01C5               	clrf	69	;volatile
  5172                           
  5173                           ;mcc_generated_files/pin_manager.c: 91:     ODCONC = 0x00;
  5174  056D  01D0               	clrf	80	;volatile
  5175  056E                     l2664:
  5176                           
  5177                           ;mcc_generated_files/pin_manager.c: 96:     SLRCONA = 0xFF;
  5178  056E  30FF               	movlw	255
  5179  056F  00BB               	movwf	59	;volatile
  5180  0570                     l2666:
  5181                           
  5182                           ;mcc_generated_files/pin_manager.c: 97:     SLRCONB = 0xFF;
  5183  0570  30FF               	movlw	255
  5184  0571  00C6               	movwf	70	;volatile
  5185  0572                     l2668:
  5186                           
  5187                           ;mcc_generated_files/pin_manager.c: 98:     SLRCONC = 0xFF;
  5188  0572  30FF               	movlw	255
  5189  0573  00D1               	movwf	81	;volatile
  5190  0574                     l2670:
  5191                           
  5192                           ;mcc_generated_files/pin_manager.c: 103:     INLVLA = 0xFF;
  5193  0574  30FF               	movlw	255
  5194  0575  00BC               	movwf	60	;volatile
  5195  0576                     l2672:
  5196                           
  5197                           ;mcc_generated_files/pin_manager.c: 104:     INLVLB = 0xFF;
  5198  0576  30FF               	movlw	255
  5199  0577  00C7               	movwf	71	;volatile
  5200  0578                     l2674:
  5201                           
  5202                           ;mcc_generated_files/pin_manager.c: 105:     INLVLC = 0xFF;
  5203  0578  30FF               	movlw	255
  5204  0579  00D2               	movwf	82	;volatile
  5205                           
  5206                           ;mcc_generated_files/pin_manager.c: 106:     INLVLE = 0x00;
  5207  057A  01E8               	clrf	104	;volatile
  5208  057B                     l2676:
  5209                           
  5210                           ;mcc_generated_files/pin_manager.c: 115:     RC0PPS = 0x10;
  5211  057B  3010               	movlw	16
  5212  057C  00A0               	movwf	32	;volatile
  5213  057D                     l2678:
  5214                           
  5215                           ;mcc_generated_files/pin_manager.c: 116:     RXPPS = 0x11;
  5216  057D  3011               	movlw	17
  5217  057E  003D               	movlb	29	; select bank29
  5218  057F  00CB               	movwf	75	;volatile
  5219  0580                     l2680:
  5220                           
  5221                           ;mcc_generated_files/pin_manager.c: 117:     SSP1CLKPPS = 0x14;
  5222  0580  3014               	movlw	20
  5223  0581  00C5               	movwf	69	;volatile
  5224  0582                     l2682:
  5225                           
  5226                           ;mcc_generated_files/pin_manager.c: 118:     RC3PPS = 0x15;
  5227  0582  3015               	movlw	21
  5228  0583  003E               	movlb	30	; select bank30
  5229  0584  00A3               	movwf	35	;volatile
  5230  0585                     l2684:
  5231                           
  5232                           ;mcc_generated_files/pin_manager.c: 119:     RC4PPS = 0x14;
  5233  0585  3014               	movlw	20
  5234  0586  00A4               	movwf	36	;volatile
  5235  0587                     l2686:
  5236                           
  5237                           ;mcc_generated_files/pin_manager.c: 120:     SSP1DATPPS = 0x13;
  5238  0587  3013               	movlw	19
  5239  0588  003D               	movlb	29	; select bank29
  5240  0589  00C6               	movwf	70	;volatile
  5241  058A                     l298:
  5242  058A  0008               	return
  5243  058B                     __end_of_PIN_MANAGER_Initialize:
  5244                           
  5245                           	psect	text10
  5246  0337                     __ptext10:	
  5247 ;; *************** function _OSCILLATOR_Initialize *****************
  5248 ;; Defined at:
  5249 ;;		line 59 in file "mcc_generated_files/mcc.c"
  5250 ;; Parameters:    Size  Location     Type
  5251 ;;		None
  5252 ;; Auto vars:     Size  Location     Type
  5253 ;;		None
  5254 ;; Return value:  Size  Location     Type
  5255 ;;                  1    wreg      void 
  5256 ;; Registers used:
  5257 ;;		wreg, status,2
  5258 ;; Tracked objects:
  5259 ;;		On entry : 0/0
  5260 ;;		On exit  : 0/0
  5261 ;;		Unchanged: 0/0
  5262 ;; Data sizes:     COMMON   BANK0   BANK1   BANK2   BANK3   BANK4   BANK5   BANK6   BANK7   BANK8   BANK9  BANK10  BANK1
      +1  BANK12
  5263 ;;      Params:         0       0       0       0       0       0       0       0       0       0       0       0       
      +0       0
  5264 ;;      Locals:         0       0       0       0       0       0       0       0       0       0       0       0       
      +0       0
  5265 ;;      Temps:          0       0       0       0       0       0       0       0       0       0       0       0       
      +0       0
  5266 ;;      Totals:         0       0       0       0       0       0       0       0       0       0       0       0       
      +0       0
  5267 ;;Total ram usage:        0 bytes
  5268 ;; Hardware stack levels used: 1
  5269 ;; This function calls:
  5270 ;;		Nothing
  5271 ;; This function is called by:
  5272 ;;		_SYSTEM_Initialize
  5273 ;; This function uses a non-reentrant model
  5274 ;;
  5275                           
  5276                           
  5277                           ;psect for function _OSCILLATOR_Initialize
  5278  0337                     _OSCILLATOR_Initialize:
  5279  0337                     l2688:	
  5280                           ;incstack = 0
  5281                           ; Regs used in _OSCILLATOR_Initialize: [wreg+status,2]
  5282                           
  5283                           
  5284                           ;mcc_generated_files/mcc.c: 62:     OSCCON1 = 0x60;
  5285  0337  3060               	movlw	96
  5286  0338  0031               	movlb	17	; select bank17
  5287  0339  008D               	movwf	13	;volatile
  5288  033A                     l2690:
  5289                           
  5290                           ;mcc_generated_files/mcc.c: 64:     OSCCON3 = 0x00;
  5291  033A  018F               	clrf	15	;volatile
  5292  033B                     l2692:
  5293                           
  5294                           ;mcc_generated_files/mcc.c: 66:     OSCEN = 0x00;
  5295  033B  0191               	clrf	17	;volatile
  5296                           
  5297                           ;mcc_generated_files/mcc.c: 68:     OSCFRQ = 0x03;
  5298  033C  3003               	movlw	3
  5299  033D  0093               	movwf	19	;volatile
  5300  033E                     l2694:
  5301                           
  5302                           ;mcc_generated_files/mcc.c: 70:     OSCTUNE = 0x00;
  5303  033E  0192               	clrf	18	;volatile
  5304  033F                     l140:
  5305  033F  0008               	return
  5306  0340                     __end_of_OSCILLATOR_Initialize:
  5307                           
  5308                           	psect	text11
  5309  032E                     __ptext11:	
  5310 ;; *************** function _I2C1_Initialize *****************
  5311 ;; Defined at:
  5312 ;;		line 167 in file "mcc_generated_files/i2c1_master.c"
  5313 ;; Parameters:    Size  Location     Type
  5314 ;;		None
  5315 ;; Auto vars:     Size  Location     Type
  5316 ;;		None
  5317 ;; Return value:  Size  Location     Type
  5318 ;;                  1    wreg      void 
  5319 ;; Registers used:
  5320 ;;		wreg, status,2
  5321 ;; Tracked objects:
  5322 ;;		On entry : 0/0
  5323 ;;		On exit  : 0/0
  5324 ;;		Unchanged: 0/0
  5325 ;; Data sizes:     COMMON   BANK0   BANK1   BANK2   BANK3   BANK4   BANK5   BANK6   BANK7   BANK8   BANK9  BANK10  BANK1
      +1  BANK12
  5326 ;;      Params:         0       0       0       0       0       0       0       0       0       0       0       0       
      +0       0
  5327 ;;      Locals:         0       0       0       0       0       0       0       0       0       0       0       0       
      +0       0
  5328 ;;      Temps:          0       0       0       0       0       0       0       0       0       0       0       0       
      +0       0
  5329 ;;      Totals:         0       0       0       0       0       0       0       0       0       0       0       0       
      +0       0
  5330 ;;Total ram usage:        0 bytes
  5331 ;; Hardware stack levels used: 1
  5332 ;; This function calls:
  5333 ;;		Nothing
  5334 ;; This function is called by:
  5335 ;;		_SYSTEM_Initialize
  5336 ;; This function uses a non-reentrant model
  5337 ;;
  5338                           
  5339                           
  5340                           ;psect for function _I2C1_Initialize
  5341  032E                     _I2C1_Initialize:
  5342  032E                     l2642:	
  5343                           ;incstack = 0
  5344                           ; Regs used in _I2C1_Initialize: [wreg+status,2]
  5345                           
  5346                           
  5347                           ;mcc_generated_files/i2c1_master.c: 169:     SSP1STAT = 0x00;
  5348  032E  0023               	movlb	3	; select bank3
  5349  032F  018F               	clrf	15	;volatile
  5350  0330                     l2644:
  5351                           
  5352                           ;mcc_generated_files/i2c1_master.c: 170:     SSP1CON1 = 0x18;
  5353  0330  3018               	movlw	24
  5354  0331  0090               	movwf	16	;volatile
  5355  0332                     l2646:
  5356                           
  5357                           ;mcc_generated_files/i2c1_master.c: 171:     SSP1CON2 = 0x00;
  5358  0332  0191               	clrf	17	;volatile
  5359                           
  5360                           ;mcc_generated_files/i2c1_master.c: 172:     SSP1ADD = 0x04;
  5361  0333  3004               	movlw	4
  5362  0334  008D               	movwf	13	;volatile
  5363  0335                     l2648:
  5364                           
  5365                           ;mcc_generated_files/i2c1_master.c: 173:     SSP1CON1bits.SSPEN = 0;
  5366  0335  1290               	bcf	16,5	;volatile
  5367  0336                     l406:
  5368  0336  0008               	return
  5369  0337                     __end_of_I2C1_Initialize:
  5370                           
  5371                           	psect	text12
  5372  0454                     __ptext12:	
  5373 ;; *************** function _EUSART_Initialize *****************
  5374 ;; Defined at:
  5375 ;;		line 66 in file "mcc_generated_files/eusart.c"
  5376 ;; Parameters:    Size  Location     Type
  5377 ;;		None
  5378 ;; Auto vars:     Size  Location     Type
  5379 ;;		None
  5380 ;; Return value:  Size  Location     Type
  5381 ;;                  1    wreg      void 
  5382 ;; Registers used:
  5383 ;;		wreg, status,2, status,0, pclath, cstack
  5384 ;; Tracked objects:
  5385 ;;		On entry : 0/0
  5386 ;;		On exit  : 0/0
  5387 ;;		Unchanged: 0/0
  5388 ;; Data sizes:     COMMON   BANK0   BANK1   BANK2   BANK3   BANK4   BANK5   BANK6   BANK7   BANK8   BANK9  BANK10  BANK1
      +1  BANK12
  5389 ;;      Params:         0       0       0       0       0       0       0       0       0       0       0       0       
      +0       0
  5390 ;;      Locals:         0       0       0       0       0       0       0       0       0       0       0       0       
      +0       0
  5391 ;;      Temps:          0       0       0       0       0       0       0       0       0       0       0       0       
      +0       0
  5392 ;;      Totals:         0       0       0       0       0       0       0       0       0       0       0       0       
      +0       0
  5393 ;;Total ram usage:        0 bytes
  5394 ;; Hardware stack levels used: 1
  5395 ;; Hardware stack levels required when called: 1
  5396 ;; This function calls:
  5397 ;;		_EUSART_SetErrorHandler
  5398 ;;		_EUSART_SetFramingErrorHandler
  5399 ;;		_EUSART_SetOverrunErrorHandler
  5400 ;; This function is called by:
  5401 ;;		_SYSTEM_Initialize
  5402 ;; This function uses a non-reentrant model
  5403 ;;
  5404                           
  5405                           
  5406                           ;psect for function _EUSART_Initialize
  5407  0454                     _EUSART_Initialize:
  5408  0454                     l2696:	
  5409                           ;incstack = 0
  5410                           ; Regs used in _EUSART_Initialize: [wreg+status,2+status,0+pclath+cstack]
  5411                           
  5412                           
  5413                           ;mcc_generated_files/eusart.c: 71:     BAUD1CON = 0x08;
  5414  0454  3008               	movlw	8
  5415  0455  0022               	movlb	2	; select bank2
  5416  0456  009F               	movwf	31	;volatile
  5417                           
  5418                           ;mcc_generated_files/eusart.c: 74:     RC1STA = 0x90;
  5419  0457  3090               	movlw	144
  5420  0458  009D               	movwf	29	;volatile
  5421                           
  5422                           ;mcc_generated_files/eusart.c: 77:     TX1STA = 0x24;
  5423  0459  3024               	movlw	36
  5424  045A  009E               	movwf	30	;volatile
  5425                           
  5426                           ;mcc_generated_files/eusart.c: 80:     SP1BRGL = 0xCF;
  5427  045B  30CF               	movlw	207
  5428  045C  009B               	movwf	27	;volatile
  5429  045D                     l2698:
  5430                           
  5431                           ;mcc_generated_files/eusart.c: 83:     SP1BRGH = 0x00;
  5432  045D  019C               	clrf	28	;volatile
  5433  045E                     l2700:
  5434                           
  5435                           ;mcc_generated_files/eusart.c: 86:     EUSART_SetFramingErrorHandler(EUSART_DefaultFrami
      +                          ngErrorHandler);
  5436  045E  3000               	movlw	0
  5437  045F  00F0               	movwf	EUSART_SetFramingErrorHandler@interruptHandler
  5438  0460  3000               	movlw	0
  5439  0461  00F1               	movwf	EUSART_SetFramingErrorHandler@interruptHandler+1
  5440  0462  3182  22F6  3184   	fcall	_EUSART_SetFramingErrorHandler
  5441  0465                     l2702:
  5442                           
  5443                           ;mcc_generated_files/eusart.c: 87:     EUSART_SetOverrunErrorHandler(EUSART_DefaultOverr
      +                          unErrorHandler);
  5444  0465  3000               	movlw	0
  5445  0466  00F0               	movwf	EUSART_SetOverrunErrorHandler@interruptHandler
  5446  0467  3000               	movlw	0
  5447  0468  00F1               	movwf	EUSART_SetOverrunErrorHandler@interruptHandler+1
  5448  0469  3182  22FC  3184   	fcall	_EUSART_SetOverrunErrorHandler
  5449  046C                     l2704:
  5450                           
  5451                           ;mcc_generated_files/eusart.c: 88:     EUSART_SetErrorHandler(EUSART_DefaultErrorHandler
      +                          );
  5452  046C  3000               	movlw	0
  5453  046D  00F0               	movwf	EUSART_SetErrorHandler@interruptHandler
  5454  046E  3000               	movlw	0
  5455  046F  00F1               	movwf	EUSART_SetErrorHandler@interruptHandler+1
  5456  0470  3182  22F0  3184   	fcall	_EUSART_SetErrorHandler
  5457  0473                     l2706:
  5458                           
  5459                           ;mcc_generated_files/eusart.c: 90:     eusartRxLastError.status = 0;
  5460  0473  0020               	movlb	0	; select bank0
  5461  0474  01BD               	clrf	_eusartRxLastError	;volatile
  5462  0475                     l186:
  5463  0475  0008               	return
  5464  0476                     __end_of_EUSART_Initialize:
  5465                           
  5466                           	psect	text13
  5467  02FC                     __ptext13:	
  5468 ;; *************** function _EUSART_SetOverrunErrorHandler *****************
  5469 ;; Defined at:
  5470 ;;		line 170 in file "mcc_generated_files/eusart.c"
  5471 ;; Parameters:    Size  Location     Type
  5472 ;;  interruptHan    2    0[COMMON] PTR FTN()void 
  5473 ;;		 -> EUSART_DefaultOverrunErrorHandler(1), 
  5474 ;; Auto vars:     Size  Location     Type
  5475 ;;		None
  5476 ;; Return value:  Size  Location     Type
  5477 ;;                  1    wreg      void 
  5478 ;; Registers used:
  5479 ;;		wreg
  5480 ;; Tracked objects:
  5481 ;;		On entry : 0/0
  5482 ;;		On exit  : 0/0
  5483 ;;		Unchanged: 0/0
  5484 ;; Data sizes:     COMMON   BANK0   BANK1   BANK2   BANK3   BANK4   BANK5   BANK6   BANK7   BANK8   BANK9  BANK10  BANK1
      +1  BANK12
  5485 ;;      Params:         2       0       0       0       0       0       0       0       0       0       0       0       
      +0       0
  5486 ;;      Locals:         0       0       0       0       0       0       0       0       0       0       0       0       
      +0       0
  5487 ;;      Temps:          0       0       0       0       0       0       0       0       0       0       0       0       
      +0       0
  5488 ;;      Totals:         2       0       0       0       0       0       0       0       0       0       0       0       
      +0       0
  5489 ;;Total ram usage:        2 bytes
  5490 ;; Hardware stack levels used: 1
  5491 ;; This function calls:
  5492 ;;		Nothing
  5493 ;; This function is called by:
  5494 ;;		_EUSART_Initialize
  5495 ;; This function uses a non-reentrant model
  5496 ;;
  5497                           
  5498                           
  5499                           ;psect for function _EUSART_SetOverrunErrorHandler
  5500  02FC                     _EUSART_SetOverrunErrorHandler:
  5501  02FC                     l2540:	
  5502                           ;incstack = 0
  5503                           ; Regs used in _EUSART_SetOverrunErrorHandler: [wreg]
  5504                           
  5505                           
  5506                           ;mcc_generated_files/eusart.c: 171:     EUSART_OverrunErrorHandler = interruptHandler;
  5507  02FC  0871               	movf	EUSART_SetOverrunErrorHandler@interruptHandler+1,w
  5508  02FD  0020               	movlb	0	; select bank0
  5509  02FE  00D7               	movwf	_EUSART_OverrunErrorHandler+1
  5510  02FF  0870               	movf	EUSART_SetOverrunErrorHandler@interruptHandler,w
  5511  0300  00D6               	movwf	_EUSART_OverrunErrorHandler
  5512  0301                     l234:
  5513  0301  0008               	return
  5514  0302                     __end_of_EUSART_SetOverrunErrorHandler:
  5515                           
  5516                           	psect	text14
  5517  02F6                     __ptext14:	
  5518 ;; *************** function _EUSART_SetFramingErrorHandler *****************
  5519 ;; Defined at:
  5520 ;;		line 166 in file "mcc_generated_files/eusart.c"
  5521 ;; Parameters:    Size  Location     Type
  5522 ;;  interruptHan    2    0[COMMON] PTR FTN()void 
  5523 ;;		 -> EUSART_DefaultFramingErrorHandler(1), 
  5524 ;; Auto vars:     Size  Location     Type
  5525 ;;		None
  5526 ;; Return value:  Size  Location     Type
  5527 ;;                  1    wreg      void 
  5528 ;; Registers used:
  5529 ;;		wreg
  5530 ;; Tracked objects:
  5531 ;;		On entry : 0/0
  5532 ;;		On exit  : 0/0
  5533 ;;		Unchanged: 0/0
  5534 ;; Data sizes:     COMMON   BANK0   BANK1   BANK2   BANK3   BANK4   BANK5   BANK6   BANK7   BANK8   BANK9  BANK10  BANK1
      +1  BANK12
  5535 ;;      Params:         2       0       0       0       0       0       0       0       0       0       0       0       
      +0       0
  5536 ;;      Locals:         0       0       0       0       0       0       0       0       0       0       0       0       
      +0       0
  5537 ;;      Temps:          0       0       0       0       0       0       0       0       0       0       0       0       
      +0       0
  5538 ;;      Totals:         2       0       0       0       0       0       0       0       0       0       0       0       
      +0       0
  5539 ;;Total ram usage:        2 bytes
  5540 ;; Hardware stack levels used: 1
  5541 ;; This function calls:
  5542 ;;		Nothing
  5543 ;; This function is called by:
  5544 ;;		_EUSART_Initialize
  5545 ;; This function uses a non-reentrant model
  5546 ;;
  5547                           
  5548                           
  5549                           ;psect for function _EUSART_SetFramingErrorHandler
  5550  02F6                     _EUSART_SetFramingErrorHandler:
  5551  02F6                     l2538:	
  5552                           ;incstack = 0
  5553                           ; Regs used in _EUSART_SetFramingErrorHandler: [wreg]
  5554                           
  5555                           
  5556                           ;mcc_generated_files/eusart.c: 167:     EUSART_FramingErrorHandler = interruptHandler;
  5557  02F6  0871               	movf	EUSART_SetFramingErrorHandler@interruptHandler+1,w
  5558  02F7  0020               	movlb	0	; select bank0
  5559  02F8  00D9               	movwf	_EUSART_FramingErrorHandler+1
  5560  02F9  0870               	movf	EUSART_SetFramingErrorHandler@interruptHandler,w
  5561  02FA  00D8               	movwf	_EUSART_FramingErrorHandler
  5562  02FB                     l231:
  5563  02FB  0008               	return
  5564  02FC                     __end_of_EUSART_SetFramingErrorHandler:
  5565                           
  5566                           	psect	text15
  5567  02F0                     __ptext15:	
  5568 ;; *************** function _EUSART_SetErrorHandler *****************
  5569 ;; Defined at:
  5570 ;;		line 174 in file "mcc_generated_files/eusart.c"
  5571 ;; Parameters:    Size  Location     Type
  5572 ;;  interruptHan    2    0[COMMON] PTR FTN()void 
  5573 ;;		 -> EUSART_DefaultErrorHandler(1), 
  5574 ;; Auto vars:     Size  Location     Type
  5575 ;;		None
  5576 ;; Return value:  Size  Location     Type
  5577 ;;                  1    wreg      void 
  5578 ;; Registers used:
  5579 ;;		wreg
  5580 ;; Tracked objects:
  5581 ;;		On entry : 0/0
  5582 ;;		On exit  : 0/0
  5583 ;;		Unchanged: 0/0
  5584 ;; Data sizes:     COMMON   BANK0   BANK1   BANK2   BANK3   BANK4   BANK5   BANK6   BANK7   BANK8   BANK9  BANK10  BANK1
      +1  BANK12
  5585 ;;      Params:         2       0       0       0       0       0       0       0       0       0       0       0       
      +0       0
  5586 ;;      Locals:         0       0       0       0       0       0       0       0       0       0       0       0       
      +0       0
  5587 ;;      Temps:          0       0       0       0       0       0       0       0       0       0       0       0       
      +0       0
  5588 ;;      Totals:         2       0       0       0       0       0       0       0       0       0       0       0       
      +0       0
  5589 ;;Total ram usage:        2 bytes
  5590 ;; Hardware stack levels used: 1
  5591 ;; This function calls:
  5592 ;;		Nothing
  5593 ;; This function is called by:
  5594 ;;		_EUSART_Initialize
  5595 ;; This function uses a non-reentrant model
  5596 ;;
  5597                           
  5598                           
  5599                           ;psect for function _EUSART_SetErrorHandler
  5600  02F0                     _EUSART_SetErrorHandler:
  5601  02F0                     l2542:	
  5602                           ;incstack = 0
  5603                           ; Regs used in _EUSART_SetErrorHandler: [wreg]
  5604                           
  5605                           
  5606                           ;mcc_generated_files/eusart.c: 175:     EUSART_ErrorHandler = interruptHandler;
  5607  02F0  0871               	movf	EUSART_SetErrorHandler@interruptHandler+1,w
  5608  02F1  0020               	movlb	0	; select bank0
  5609  02F2  00D5               	movwf	_EUSART_ErrorHandler+1
  5610  02F3  0870               	movf	EUSART_SetErrorHandler@interruptHandler,w
  5611  02F4  00D4               	movwf	_EUSART_ErrorHandler
  5612  02F5                     l237:
  5613  02F5  0008               	return
  5614  02F6                     __end_of_EUSART_SetErrorHandler:
  5615                           
  5616                           	psect	text16
  5617  058B                     __ptext16:	
  5618 ;; *************** function _I2C1_Read1ByteRegister *****************
  5619 ;; Defined at:
  5620 ;;		line 63 in file "mcc_generated_files/examples/i2c1_master_example.c"
  5621 ;; Parameters:    Size  Location     Type
  5622 ;;  address         1    wreg     unsigned char 
  5623 ;;  reg             1    5[BANK0 ] unsigned char 
  5624 ;; Auto vars:     Size  Location     Type
  5625 ;;  address         1    7[BANK0 ] unsigned char 
  5626 ;;  returnValue     1    8[BANK0 ] unsigned char 
  5627 ;; Return value:  Size  Location     Type
  5628 ;;                  1    wreg      unsigned char 
  5629 ;; Registers used:
  5630 ;;		wreg, fsr0l, fsr0h, fsr1l, fsr1h, status,2, status,0, pclath, cstack
  5631 ;; Tracked objects:
  5632 ;;		On entry : 0/0
  5633 ;;		On exit  : 0/0
  5634 ;;		Unchanged: 0/0
  5635 ;; Data sizes:     COMMON   BANK0   BANK1   BANK2   BANK3   BANK4   BANK5   BANK6   BANK7   BANK8   BANK9  BANK10  BANK1
      +1  BANK12
  5636 ;;      Params:         0       1       0       0       0       0       0       0       0       0       0       0       
      +0       0
  5637 ;;      Locals:         0       2       0       0       0       0       0       0       0       0       0       0       
      +0       0
  5638 ;;      Temps:          0       1       0       0       0       0       0       0       0       0       0       0       
      +0       0
  5639 ;;      Totals:         0       4       0       0       0       0       0       0       0       0       0       0       
      +0       0
  5640 ;;Total ram usage:        4 bytes
  5641 ;; Hardware stack levels used: 1
  5642 ;; Hardware stack levels required when called: 8
  5643 ;; This function calls:
  5644 ;;		_I2C1_Close
  5645 ;;		_I2C1_MasterWrite
  5646 ;;		_I2C1_Open
  5647 ;;		_I2C1_SetAddressNackCallback
  5648 ;;		_I2C1_SetBuffer
  5649 ;;		_I2C1_SetDataCompleteCallback
  5650 ;; This function is called by:
  5651 ;;		_main
  5652 ;; This function uses a non-reentrant model
  5653 ;;
  5654                           
  5655                           
  5656                           ;psect for function _I2C1_Read1ByteRegister
  5657  058B                     _I2C1_Read1ByteRegister:
  5658                           
  5659                           ;incstack = 0
  5660                           ; Regs used in _I2C1_Read1ByteRegister: [wreg-fsr1h+status,2+status,0+pclath+cstack]
  5661                           ;I2C1_Read1ByteRegister@address stored from wreg
  5662  058B  0020               	movlb	0	; select bank0
  5663  058C  00C5               	movwf	I2C1_Read1ByteRegister@address
  5664  058D                     l2758:
  5665                           
  5666                           ;mcc_generated_files/examples/i2c1_master_example.c: 63: uint8_t I2C1_Read1ByteRegister(
      +                          i2c1_address_t address, uint8_t reg);mcc_generated_files/examples/i2c1_master_example.c:
      +                           64: {;mcc_generated_files/examples/i2c1_master_example.c: 65:     uint8_t returnValue =
      +                           0x00;
  5667  058D  01C6               	clrf	I2C1_Read1ByteRegister@returnValue
  5668  058E                     l2760:	
  5669                           ;mcc_generated_files/examples/i2c1_master_example.c: 67:     while(!I2C1_Open(address));
  5670                           
  5671  058E  0020               	movlb	0	; select bank0
  5672  058F  0845               	movf	I2C1_Read1ByteRegister@address,w
  5673  0590  3185  25C1  3185   	fcall	_I2C1_Open
  5674  0593  3A00               	xorlw	0
  5675  0594  1903               	skipnz
  5676  0595  2D97               	goto	u871
  5677  0596  2D98               	goto	u870
  5678  0597                     u871:
  5679  0597  2D8E               	goto	l2760
  5680  0598                     u870:
  5681  0598                     l2762:
  5682                           
  5683                           ;mcc_generated_files/examples/i2c1_master_example.c: 68:     I2C1_SetDataCompleteCallbac
      +                          k(rd1RegCompleteHandler,&returnValue);
  5684  0598  30AF               	movlw	low _rd1RegCompleteHandler
  5685  0599  00F5               	movwf	I2C1_SetDataCompleteCallback@cb
  5686  059A  3003               	movlw	high _rd1RegCompleteHandler
  5687  059B  00F6               	movwf	I2C1_SetDataCompleteCallback@cb+1
  5688  059C  3046               	movlw	(low (I2C1_Read1ByteRegister@returnValue| 0))& (0+255)
  5689  059D  0020               	movlb	0	; select bank0
  5690  059E  00C4               	movwf	??_I2C1_Read1ByteRegister
  5691  059F  0844               	movf	??_I2C1_Read1ByteRegister,w
  5692  05A0  00F7               	movwf	I2C1_SetDataCompleteCallback@ptr
  5693  05A1  3183  234A  3185   	fcall	_I2C1_SetDataCompleteCallback
  5694  05A4                     l2764:
  5695                           
  5696                           ;mcc_generated_files/examples/i2c1_master_example.c: 69:     I2C1_SetBuffer(&reg,1);
  5697  05A4  3001               	movlw	1
  5698  05A5  00F0               	movwf	I2C1_SetBuffer@bufferSize
  5699  05A6  3000               	movlw	0
  5700  05A7  00F1               	movwf	I2C1_SetBuffer@bufferSize+1
  5701  05A8  3043               	movlw	(low (I2C1_Read1ByteRegister@reg| 0))& (0+255)
  5702  05A9  3183  237E  3185   	fcall	_I2C1_SetBuffer
  5703  05AC                     l2766:
  5704                           
  5705                           ;mcc_generated_files/examples/i2c1_master_example.c: 70:     I2C1_SetAddressNackCallback
      +                          ((0),(0));
  5706  05AC  3000               	movlw	0
  5707  05AD  00F5               	movwf	I2C1_SetAddressNackCallback@cb
  5708  05AE  00F6               	movwf	I2C1_SetAddressNackCallback@cb+1
  5709  05AF  01F7               	clrf	I2C1_SetAddressNackCallback@ptr
  5710  05B0  3183  2371  3185   	fcall	_I2C1_SetAddressNackCallback
  5711  05B3                     l2768:
  5712                           
  5713                           ;mcc_generated_files/examples/i2c1_master_example.c: 71:     I2C1_MasterWrite();
  5714  05B3  3182  22DF  3185   	fcall	_I2C1_MasterWrite
  5715  05B6                     l2770:	
  5716                           ;mcc_generated_files/examples/i2c1_master_example.c: 72:     while(I2C1_BUSY == I2C1_Clo
      +                          se());
  5717                           
  5718  05B6  3183  23FA  3185   	fcall	_I2C1_Close
  5719  05B9  3A01               	xorlw	1
  5720  05BA  1903               	skipnz
  5721  05BB  2DBD               	goto	u881
  5722  05BC  2DBE               	goto	u880
  5723  05BD                     u881:
  5724  05BD  2DB6               	goto	l2770
  5725  05BE                     u880:
  5726  05BE                     l2772:
  5727                           
  5728                           ;mcc_generated_files/examples/i2c1_master_example.c: 74:     return returnValue;
  5729  05BE  0020               	movlb	0	; select bank0
  5730  05BF  0846               	movf	I2C1_Read1ByteRegister@returnValue,w
  5731  05C0                     l33:
  5732  05C0  0008               	return
  5733  05C1                     __end_of_I2C1_Read1ByteRegister:
  5734                           
  5735                           	psect	text17
  5736  0371                     __ptext17:	
  5737 ;; *************** function _I2C1_SetAddressNackCallback *****************
  5738 ;; Defined at:
  5739 ;;		line 283 in file "mcc_generated_files/i2c1_master.c"
  5740 ;; Parameters:    Size  Location     Type
  5741 ;;  cb              2    5[COMMON] PTR FTN(PTR void ,)enum 
  5742 ;;		 -> Absolute function(1), 
  5743 ;;  ptr             1    7[COMMON] PTR void 
  5744 ;;		 -> NULL(0), 
  5745 ;; Auto vars:     Size  Location     Type
  5746 ;;		None
  5747 ;; Return value:  Size  Location     Type
  5748 ;;                  1    wreg      void 
  5749 ;; Registers used:
  5750 ;;		wreg, fsr1l, fsr1h, status,2, status,0, pclath, cstack
  5751 ;; Tracked objects:
  5752 ;;		On entry : 0/0
  5753 ;;		On exit  : 0/0
  5754 ;;		Unchanged: 0/0
  5755 ;; Data sizes:     COMMON   BANK0   BANK1   BANK2   BANK3   BANK4   BANK5   BANK6   BANK7   BANK8   BANK9  BANK10  BANK1
      +1  BANK12
  5756 ;;      Params:         3       0       0       0       0       0       0       0       0       0       0       0       
      +0       0
  5757 ;;      Locals:         0       0       0       0       0       0       0       0       0       0       0       0       
      +0       0
  5758 ;;      Temps:          1       0       0       0       0       0       0       0       0       0       0       0       
      +0       0
  5759 ;;      Totals:         4       0       0       0       0       0       0       0       0       0       0       0       
      +0       0
  5760 ;;Total ram usage:        4 bytes
  5761 ;; Hardware stack levels used: 1
  5762 ;; Hardware stack levels required when called: 1
  5763 ;; This function calls:
  5764 ;;		_I2C1_SetCallback
  5765 ;; This function is called by:
  5766 ;;		_I2C1_Read1ByteRegister
  5767 ;;		_I2C1_Read2ByteRegister
  5768 ;;		_I2C1_Write1ByteRegister
  5769 ;;		_I2C1_Write2ByteRegister
  5770 ;;		_I2C1_WriteNBytes
  5771 ;;		_I2C1_ReadDataBlock
  5772 ;; This function uses a non-reentrant model
  5773 ;;
  5774                           
  5775                           
  5776                           ;psect for function _I2C1_SetAddressNackCallback
  5777  0371                     _I2C1_SetAddressNackCallback:
  5778  0371                     l2616:	
  5779                           ;incstack = 0
  5780                           ; Regs used in _I2C1_SetAddressNackCallback: [wreg+fsr1l+fsr1h+status,2+status,0+pclath+
      +                          cstack]
  5781                           
  5782                           
  5783                           ;mcc_generated_files/i2c1_master.c: 283: void I2C1_SetAddressNackCallback(i2c1_callback_
      +                          t cb, void *ptr);mcc_generated_files/i2c1_master.c: 284: {;mcc_generated_files/i2c1_mast
      +                          er.c: 285:     I2C1_SetCallback(I2C1_ADDR_NACK, cb, ptr);
  5784  0371  0876               	movf	I2C1_SetAddressNackCallback@cb+1,w
  5785  0372  00F1               	movwf	I2C1_SetCallback@cb+1
  5786  0373  0875               	movf	I2C1_SetAddressNackCallback@cb,w
  5787  0374  00F0               	movwf	I2C1_SetCallback@cb
  5788  0375  0877               	movf	I2C1_SetAddressNackCallback@ptr,w
  5789  0376  00F8               	movwf	??_I2C1_SetAddressNackCallback
  5790  0377  0878               	movf	??_I2C1_SetAddressNackCallback,w
  5791  0378  00F2               	movwf	I2C1_SetCallback@ptr
  5792  0379  3002               	movlw	2
  5793  037A  3184  2476  3183   	fcall	_I2C1_SetCallback
  5794  037D                     l442:
  5795  037D  0008               	return
  5796  037E                     __end_of_I2C1_SetAddressNackCallback:
  5797                           
  5798                           	psect	text18
  5799  05C1                     __ptext18:	
  5800 ;; *************** function _I2C1_Open *****************
  5801 ;; Defined at:
  5802 ;;		line 176 in file "mcc_generated_files/i2c1_master.c"
  5803 ;; Parameters:    Size  Location     Type
  5804 ;;  address         1    wreg     unsigned char 
  5805 ;; Auto vars:     Size  Location     Type
  5806 ;;  address         1    1[COMMON] unsigned char 
  5807 ;;  returnValue     1    2[COMMON] enum E93
  5808 ;; Return value:  Size  Location     Type
  5809 ;;                  1    wreg      enum E93
  5810 ;; Registers used:
  5811 ;;		wreg, status,2, status,0, pclath, cstack
  5812 ;; Tracked objects:
  5813 ;;		On entry : 0/0
  5814 ;;		On exit  : 0/0
  5815 ;;		Unchanged: 0/0
  5816 ;; Data sizes:     COMMON   BANK0   BANK1   BANK2   BANK3   BANK4   BANK5   BANK6   BANK7   BANK8   BANK9  BANK10  BANK1
      +1  BANK12
  5817 ;;      Params:         0       0       0       0       0       0       0       0       0       0       0       0       
      +0       0
  5818 ;;      Locals:         2       0       0       0       0       0       0       0       0       0       0       0       
      +0       0
  5819 ;;      Temps:          1       0       0       0       0       0       0       0       0       0       0       0       
      +0       0
  5820 ;;      Totals:         3       0       0       0       0       0       0       0       0       0       0       0       
      +0       0
  5821 ;;Total ram usage:        3 bytes
  5822 ;; Hardware stack levels used: 1
  5823 ;; Hardware stack levels required when called: 1
  5824 ;; This function calls:
  5825 ;;		_I2C1_MasterClearIrq
  5826 ;;		_I2C1_MasterOpen
  5827 ;; This function is called by:
  5828 ;;		_I2C1_Read1ByteRegister
  5829 ;;		_I2C1_Read2ByteRegister
  5830 ;;		_I2C1_Write1ByteRegister
  5831 ;;		_I2C1_Write2ByteRegister
  5832 ;;		_I2C1_WriteNBytes
  5833 ;;		_I2C1_ReadNBytes
  5834 ;;		_I2C1_ReadDataBlock
  5835 ;; This function uses a non-reentrant model
  5836 ;;
  5837                           
  5838                           
  5839                           ;psect for function _I2C1_Open
  5840  05C1                     _I2C1_Open:
  5841                           
  5842                           ;incstack = 0
  5843                           ; Regs used in _I2C1_Open: [wreg+status,2+status,0+pclath+cstack]
  5844                           ;I2C1_Open@address stored from wreg
  5845  05C1  00F1               	movwf	I2C1_Open@address
  5846  05C2                     l2584:
  5847                           
  5848                           ;mcc_generated_files/i2c1_master.c: 176: i2c1_error_t I2C1_Open(i2c1_address_t address);
      +                          mcc_generated_files/i2c1_master.c: 177: {;mcc_generated_files/i2c1_master.c: 178:     i2
      +                          c1_error_t returnValue = I2C1_BUSY;
  5849  05C2  01F2               	clrf	I2C1_Open@returnValue
  5850  05C3  0AF2               	incf	I2C1_Open@returnValue,f
  5851                           
  5852                           ;mcc_generated_files/i2c1_master.c: 180:     if(!I2C1_Status.inUse)
  5853  05C4  0020               	movlb	0	; select bank0
  5854  05C5  193C               	btfsc	_I2C1_Status+28,2
  5855  05C6  2DC8               	goto	u721
  5856  05C7  2DC9               	goto	u720
  5857  05C8                     u721:
  5858  05C8  2DF9               	goto	l409
  5859  05C9                     u720:
  5860  05C9                     l2586:
  5861                           
  5862                           ;mcc_generated_files/i2c1_master.c: 181:     {;mcc_generated_files/i2c1_master.c: 182:  
      +                                 I2C1_Status.address = address;
  5863  05C9  0871               	movf	I2C1_Open@address,w
  5864  05CA  00F0               	movwf	??_I2C1_Open
  5865  05CB  0870               	movf	??_I2C1_Open,w
  5866  05CC  00B6               	movwf	_I2C1_Status+22
  5867  05CD                     l2588:
  5868                           
  5869                           ;mcc_generated_files/i2c1_master.c: 183:         I2C1_Status.busy = 0;
  5870  05CD  10BC               	bcf	_I2C1_Status+28,1
  5871  05CE                     l2590:
  5872                           
  5873                           ;mcc_generated_files/i2c1_master.c: 184:         I2C1_Status.inUse = 1;
  5874  05CE  153C               	bsf	_I2C1_Status+28,2
  5875  05CF                     l2592:
  5876                           
  5877                           ;mcc_generated_files/i2c1_master.c: 185:         I2C1_Status.addressNackCheck = 0;
  5878  05CF  103C               	bcf	_I2C1_Status+28,0
  5879                           
  5880                           ;mcc_generated_files/i2c1_master.c: 186:         I2C1_Status.state = I2C1_RESET;
  5881  05D0  300E               	movlw	14
  5882  05D1  00F0               	movwf	??_I2C1_Open
  5883  05D2  0870               	movf	??_I2C1_Open,w
  5884  05D3  00BA               	movwf	_I2C1_Status+26
  5885                           
  5886                           ;mcc_generated_files/i2c1_master.c: 187:         I2C1_Status.time_out_value = 500;
  5887  05D4  30F4               	movlw	244
  5888  05D5  00B4               	movwf	_I2C1_Status+20
  5889  05D6  3001               	movlw	1
  5890  05D7  00B5               	movwf	_I2C1_Status+21
  5891  05D8                     l2594:
  5892                           
  5893                           ;mcc_generated_files/i2c1_master.c: 188:         I2C1_Status.bufferFree = 1;
  5894  05D8  15BC               	bsf	_I2C1_Status+28,3
  5895                           
  5896                           ;mcc_generated_files/i2c1_master.c: 191:         I2C1_Status.callbackTable[I2C1_DATA_COM
      +                          PLETE]=I2C1_CallbackReturnStop;
  5897  05D9  3086               	movlw	low _I2C1_CallbackReturnStop
  5898  05DA  00A0               	movwf	_I2C1_Status
  5899  05DB  3002               	movlw	high _I2C1_CallbackReturnStop
  5900  05DC  00A1               	movwf	_I2C1_Status+1
  5901  05DD                     l2596:
  5902                           
  5903                           ;mcc_generated_files/i2c1_master.c: 192:         I2C1_Status.callbackPayload[I2C1_DATA_C
      +                          OMPLETE] = (0);
  5904  05DD  01AC               	clrf	low ((_I2C1_Status| 0+12))
  5905  05DE                     l2598:
  5906                           
  5907                           ;mcc_generated_files/i2c1_master.c: 193:         I2C1_Status.callbackTable[I2C1_WRITE_CO
      +                          LLISION]=I2C1_CallbackReturnStop;
  5908  05DE  3086               	movlw	low _I2C1_CallbackReturnStop
  5909  05DF  00A2               	movwf	low ((_I2C1_Status| 0+2))
  5910  05E0  3002               	movlw	high _I2C1_CallbackReturnStop
  5911  05E1  00A3               	movwf	(low ((_I2C1_Status| 0+2))+1)
  5912                           
  5913                           ;mcc_generated_files/i2c1_master.c: 194:         I2C1_Status.callbackPayload[I2C1_WRITE_
      +                          COLLISION] = (0);
  5914  05E2  01AD               	clrf	low ((_I2C1_Status| 0+13))
  5915  05E3                     l2600:
  5916                           
  5917                           ;mcc_generated_files/i2c1_master.c: 195:         I2C1_Status.callbackTable[I2C1_ADDR_NAC
      +                          K]=I2C1_CallbackReturnStop;
  5918  05E3  3086               	movlw	low _I2C1_CallbackReturnStop
  5919  05E4  00A4               	movwf	low ((_I2C1_Status| 0+4))
  5920  05E5  3002               	movlw	high _I2C1_CallbackReturnStop
  5921  05E6  00A5               	movwf	(low ((_I2C1_Status| 0+4))+1)
  5922  05E7                     l2602:
  5923                           
  5924                           ;mcc_generated_files/i2c1_master.c: 196:         I2C1_Status.callbackPayload[I2C1_ADDR_N
      +                          ACK] = (0);
  5925  05E7  01AE               	clrf	low ((_I2C1_Status| 0+14))
  5926                           
  5927                           ;mcc_generated_files/i2c1_master.c: 197:         I2C1_Status.callbackTable[I2C1_DATA_NAC
      +                          K]=I2C1_CallbackReturnStop;
  5928  05E8  3086               	movlw	low _I2C1_CallbackReturnStop
  5929  05E9  00A6               	movwf	low ((_I2C1_Status| 0+6))
  5930  05EA  3002               	movlw	high _I2C1_CallbackReturnStop
  5931  05EB  00A7               	movwf	(low ((_I2C1_Status| 0+6))+1)
  5932  05EC                     l2604:
  5933                           
  5934                           ;mcc_generated_files/i2c1_master.c: 198:         I2C1_Status.callbackPayload[I2C1_DATA_N
      +                          ACK] = (0);
  5935  05EC  01AF               	clrf	low ((_I2C1_Status| 0+15))
  5936  05ED                     l2606:
  5937                           
  5938                           ;mcc_generated_files/i2c1_master.c: 199:         I2C1_Status.callbackTable[I2C1_TIMEOUT]
      +                          =I2C1_CallbackReturnReset;
  5939  05ED  3088               	movlw	low _I2C1_CallbackReturnReset
  5940  05EE  00A8               	movwf	low ((_I2C1_Status| 0+8))
  5941  05EF  3002               	movlw	high _I2C1_CallbackReturnReset
  5942  05F0  00A9               	movwf	(low ((_I2C1_Status| 0+8))+1)
  5943                           
  5944                           ;mcc_generated_files/i2c1_master.c: 200:         I2C1_Status.callbackPayload[I2C1_TIMEOU
      +                          T] = (0);
  5945  05F1  01B0               	clrf	low ((_I2C1_Status| 0+16))
  5946  05F2                     l2608:
  5947                           
  5948                           ;mcc_generated_files/i2c1_master.c: 202:         I2C1_MasterClearIrq();
  5949  05F2  3182  228A  3185   	fcall	_I2C1_MasterClearIrq
  5950  05F5                     l2610:
  5951                           
  5952                           ;mcc_generated_files/i2c1_master.c: 203:         I2C1_MasterOpen();
  5953  05F5  3183  2364  3185   	fcall	_I2C1_MasterOpen
  5954  05F8                     l2612:
  5955                           
  5956                           ;mcc_generated_files/i2c1_master.c: 204:         returnValue = I2C1_NOERR;
  5957  05F8  01F2               	clrf	I2C1_Open@returnValue
  5958  05F9                     l409:	
  5959                           ;mcc_generated_files/i2c1_master.c: 205:     }
  5960                           
  5961                           
  5962                           ;mcc_generated_files/i2c1_master.c: 206:     return returnValue;
  5963  05F9  0872               	movf	I2C1_Open@returnValue,w
  5964  05FA                     l410:
  5965  05FA  0008               	return
  5966  05FB                     __end_of_I2C1_Open:
  5967                           
  5968                           	psect	text19
  5969  0364                     __ptext19:	
  5970 ;; *************** function _I2C1_MasterOpen *****************
  5971 ;; Defined at:
  5972 ;;		line 543 in file "mcc_generated_files/i2c1_master.c"
  5973 ;; Parameters:    Size  Location     Type
  5974 ;;		None
  5975 ;; Auto vars:     Size  Location     Type
  5976 ;;		None
  5977 ;; Return value:  Size  Location     Type
  5978 ;;                  1    wreg      _Bool 
  5979 ;; Registers used:
  5980 ;;		wreg, status,2
  5981 ;; Tracked objects:
  5982 ;;		On entry : 0/0
  5983 ;;		On exit  : 0/0
  5984 ;;		Unchanged: 0/0
  5985 ;; Data sizes:     COMMON   BANK0   BANK1   BANK2   BANK3   BANK4   BANK5   BANK6   BANK7   BANK8   BANK9  BANK10  BANK1
      +1  BANK12
  5986 ;;      Params:         0       0       0       0       0       0       0       0       0       0       0       0       
      +0       0
  5987 ;;      Locals:         0       0       0       0       0       0       0       0       0       0       0       0       
      +0       0
  5988 ;;      Temps:          0       0       0       0       0       0       0       0       0       0       0       0       
      +0       0
  5989 ;;      Totals:         0       0       0       0       0       0       0       0       0       0       0       0       
      +0       0
  5990 ;;Total ram usage:        0 bytes
  5991 ;; Hardware stack levels used: 1
  5992 ;; This function calls:
  5993 ;;		Nothing
  5994 ;; This function is called by:
  5995 ;;		_I2C1_Open
  5996 ;; This function uses a non-reentrant model
  5997 ;;
  5998                           
  5999                           
  6000                           ;psect for function _I2C1_MasterOpen
  6001  0364                     _I2C1_MasterOpen:
  6002  0364                     l2548:	
  6003                           ;incstack = 0
  6004                           ; Regs used in _I2C1_MasterOpen: [wreg+status,2]
  6005                           
  6006                           
  6007                           ;mcc_generated_files/i2c1_master.c: 545:     if(!SSP1CON1bits.SSPEN)
  6008  0364  0023               	movlb	3	; select bank3
  6009  0365  1A90               	btfsc	16,5	;volatile
  6010  0366  2B68               	goto	u691
  6011  0367  2B69               	goto	u690
  6012  0368                     u691:
  6013  0368  2B70               	goto	l575
  6014  0369                     u690:
  6015  0369                     l2550:
  6016                           
  6017                           ;mcc_generated_files/i2c1_master.c: 546:     {;mcc_generated_files/i2c1_master.c: 547:  
      +                                 SSP1STAT = 0x00;
  6018  0369  018F               	clrf	15	;volatile
  6019  036A                     l2552:
  6020                           
  6021                           ;mcc_generated_files/i2c1_master.c: 548:         SSP1CON1 = 0x18;
  6022  036A  3018               	movlw	24
  6023  036B  0090               	movwf	16	;volatile
  6024  036C                     l2554:
  6025                           
  6026                           ;mcc_generated_files/i2c1_master.c: 549:         SSP1CON2 = 0x00;
  6027  036C  0191               	clrf	17	;volatile
  6028                           
  6029                           ;mcc_generated_files/i2c1_master.c: 550:         SSP1ADD = 0x04;
  6030  036D  3004               	movlw	4
  6031  036E  008D               	movwf	13	;volatile
  6032  036F                     l2556:
  6033                           
  6034                           ;mcc_generated_files/i2c1_master.c: 551:         SSP1CON1bits.SSPEN = 1;
  6035  036F  1690               	bsf	16,5	;volatile
  6036  0370                     l575:
  6037  0370  0008               	return
  6038  0371                     __end_of_I2C1_MasterOpen:
  6039                           
  6040                           	psect	text20
  6041  02DF                     __ptext20:	
  6042 ;; *************** function _I2C1_MasterWrite *****************
  6043 ;; Defined at:
  6044 ;;		line 251 in file "mcc_generated_files/i2c1_master.c"
  6045 ;; Parameters:    Size  Location     Type
  6046 ;;		None
  6047 ;; Auto vars:     Size  Location     Type
  6048 ;;		None
  6049 ;; Return value:  Size  Location     Type
  6050 ;;                  1    wreg      enum E93
  6051 ;; Registers used:
  6052 ;;		wreg, fsr0l, fsr0h, fsr1l, fsr1h, status,2, status,0, pclath, cstack
  6053 ;; Tracked objects:
  6054 ;;		On entry : 0/0
  6055 ;;		On exit  : 0/0
  6056 ;;		Unchanged: 0/0
  6057 ;; Data sizes:     COMMON   BANK0   BANK1   BANK2   BANK3   BANK4   BANK5   BANK6   BANK7   BANK8   BANK9  BANK10  BANK1
      +1  BANK12
  6058 ;;      Params:         0       0       0       0       0       0       0       0       0       0       0       0       
      +0       0
  6059 ;;      Locals:         0       0       0       0       0       0       0       0       0       0       0       0       
      +0       0
  6060 ;;      Temps:          0       0       0       0       0       0       0       0       0       0       0       0       
      +0       0
  6061 ;;      Totals:         0       0       0       0       0       0       0       0       0       0       0       0       
      +0       0
  6062 ;;Total ram usage:        0 bytes
  6063 ;; Hardware stack levels used: 1
  6064 ;; Hardware stack levels required when called: 7
  6065 ;; This function calls:
  6066 ;;		_I2C1_MasterOperation
  6067 ;; This function is called by:
  6068 ;;		_I2C1_Read1ByteRegister
  6069 ;;		_I2C1_Read2ByteRegister
  6070 ;;		_I2C1_Write1ByteRegister
  6071 ;;		_I2C1_Write2ByteRegister
  6072 ;;		_I2C1_WriteNBytes
  6073 ;;		_I2C1_ReadDataBlock
  6074 ;; This function uses a non-reentrant model
  6075 ;;
  6076                           
  6077                           
  6078                           ;psect for function _I2C1_MasterWrite
  6079  02DF                     _I2C1_MasterWrite:
  6080  02DF                     l2618:	
  6081                           ;incstack = 0
  6082                           ; Regs used in _I2C1_MasterWrite: [wreg-fsr1h+status,2+status,0+pclath+cstack]
  6083                           
  6084                           
  6085                           ;mcc_generated_files/i2c1_master.c: 253:     return I2C1_MasterOperation(0);;	Return val
      +                          ue of _I2C1_MasterWrite is never used
  6086  02DF  3000               	movlw	0
  6087  02E0  3184  2416  3182   	fcall	_I2C1_MasterOperation
  6088  02E3                     l426:
  6089  02E3  0008               	return
  6090  02E4                     __end_of_I2C1_MasterWrite:
  6091                           
  6092                           	psect	text21
  6093  0416                     __ptext21:	
  6094 ;; *************** function _I2C1_MasterOperation *****************
  6095 ;; Defined at:
  6096 ;;		line 224 in file "mcc_generated_files/i2c1_master.c"
  6097 ;; Parameters:    Size  Location     Type
  6098 ;;  read            1    wreg     _Bool 
  6099 ;; Auto vars:     Size  Location     Type
  6100 ;;  read            1    3[BANK0 ] _Bool 
  6101 ;;  returnValue     1    4[BANK0 ] enum E93
  6102 ;; Return value:  Size  Location     Type
  6103 ;;                  1    wreg      enum E93
  6104 ;; Registers used:
  6105 ;;		wreg, fsr0l, fsr0h, fsr1l, fsr1h, status,2, status,0, pclath, cstack
  6106 ;; Tracked objects:
  6107 ;;		On entry : 0/0
  6108 ;;		On exit  : 0/0
  6109 ;;		Unchanged: 0/0
  6110 ;; Data sizes:     COMMON   BANK0   BANK1   BANK2   BANK3   BANK4   BANK5   BANK6   BANK7   BANK8   BANK9  BANK10  BANK1
      +1  BANK12
  6111 ;;      Params:         0       0       0       0       0       0       0       0       0       0       0       0       
      +0       0
  6112 ;;      Locals:         0       2       0       0       0       0       0       0       0       0       0       0       
      +0       0
  6113 ;;      Temps:          1       0       0       0       0       0       0       0       0       0       0       0       
      +0       0
  6114 ;;      Totals:         1       2       0       0       0       0       0       0       0       0       0       0       
      +0       0
  6115 ;;Total ram usage:        3 bytes
  6116 ;; Hardware stack levels used: 1
  6117 ;; Hardware stack levels required when called: 6
  6118 ;; This function calls:
  6119 ;;		_I2C1_MasterStart
  6120 ;;		_I2C1_Poller
  6121 ;; This function is called by:
  6122 ;;		_I2C1_MasterWrite
  6123 ;;		_I2C1_MasterRead
  6124 ;; This function uses a non-reentrant model
  6125 ;;
  6126                           
  6127                           
  6128                           ;psect for function _I2C1_MasterOperation
  6129  0416                     _I2C1_MasterOperation:
  6130                           
  6131                           ;incstack = 0
  6132                           ; Regs used in _I2C1_MasterOperation: [wreg-fsr1h+status,2+status,0+pclath+cstack]
  6133                           ;I2C1_MasterOperation@read stored from wreg
  6134  0416  0020               	movlb	0	; select bank0
  6135  0417  00C1               	movwf	I2C1_MasterOperation@read
  6136  0418                     l2564:
  6137                           
  6138                           ;mcc_generated_files/i2c1_master.c: 224: i2c1_error_t I2C1_MasterOperation(_Bool read);m
      +                          cc_generated_files/i2c1_master.c: 225: {;mcc_generated_files/i2c1_master.c: 226:     i2c
      +                          1_error_t returnValue = I2C1_BUSY;
  6139  0418  01C2               	clrf	I2C1_MasterOperation@returnValue
  6140  0419  0AC2               	incf	I2C1_MasterOperation@returnValue,f
  6141                           
  6142                           ;mcc_generated_files/i2c1_master.c: 227:     if(!I2C1_Status.busy)
  6143  041A  18BC               	btfsc	_I2C1_Status+28,1
  6144  041B  2C1D               	goto	u701
  6145  041C  2C1E               	goto	u700
  6146  041D                     u701:
  6147  041D  2C32               	goto	l2580
  6148  041E                     u700:
  6149  041E                     l2566:
  6150                           
  6151                           ;mcc_generated_files/i2c1_master.c: 228:     {;mcc_generated_files/i2c1_master.c: 229:  
      +                                 I2C1_Status.busy = 1;
  6152  041E  14BC               	bsf	_I2C1_Status+28,1
  6153  041F                     l2568:
  6154                           
  6155                           ;mcc_generated_files/i2c1_master.c: 230:         returnValue = I2C1_NOERR;
  6156  041F  01C2               	clrf	I2C1_MasterOperation@returnValue
  6157  0420                     l2570:
  6158                           
  6159                           ;mcc_generated_files/i2c1_master.c: 232:         if(read)
  6160  0420  0841               	movf	I2C1_MasterOperation@read,w
  6161  0421  1903               	btfsc	3,2
  6162  0422  2C24               	goto	u711
  6163  0423  2C25               	goto	u710
  6164  0424                     u711:
  6165  0424  2C28               	goto	l2574
  6166  0425                     u710:
  6167  0425                     l2572:
  6168                           
  6169                           ;mcc_generated_files/i2c1_master.c: 233:         {;mcc_generated_files/i2c1_master.c: 23
      +                          4:             I2C1_Status.state = I2C1_SEND_ADR_READ;
  6170  0425  01BA               	clrf	_I2C1_Status+26
  6171  0426  0ABA               	incf	_I2C1_Status+26,f
  6172                           
  6173                           ;mcc_generated_files/i2c1_master.c: 235:         }
  6174  0427  2C2C               	goto	l2576
  6175  0428                     l2574:
  6176                           
  6177                           ;mcc_generated_files/i2c1_master.c: 237:         {;mcc_generated_files/i2c1_master.c: 23
      +                          8:             I2C1_Status.state = I2C1_SEND_ADR_WRITE;
  6178  0428  3002               	movlw	2
  6179  0429  00FD               	movwf	??_I2C1_MasterOperation
  6180  042A  087D               	movf	??_I2C1_MasterOperation,w
  6181  042B  00BA               	movwf	_I2C1_Status+26
  6182  042C                     l2576:
  6183                           
  6184                           ;mcc_generated_files/i2c1_master.c: 240:         I2C1_MasterStart();
  6185  042C  3182  2293  3184   	fcall	_I2C1_MasterStart
  6186  042F                     l2578:
  6187                           
  6188                           ;mcc_generated_files/i2c1_master.c: 241:         I2C1_Poller();
  6189  042F  3183  2357  3184   	fcall	_I2C1_Poller
  6190  0432                     l2580:
  6191                           
  6192                           ;mcc_generated_files/i2c1_master.c: 243:     return returnValue;
  6193  0432  0020               	movlb	0	; select bank0
  6194  0433  0842               	movf	I2C1_MasterOperation@returnValue,w
  6195  0434                     l420:
  6196  0434  0008               	return
  6197  0435                     __end_of_I2C1_MasterOperation:
  6198                           
  6199                           	psect	text22
  6200  0357                     __ptext22:	
  6201 ;; *************** function _I2C1_Poller *****************
  6202 ;; Defined at:
  6203 ;;		line 312 in file "mcc_generated_files/i2c1_master.c"
  6204 ;; Parameters:    Size  Location     Type
  6205 ;;		None
  6206 ;; Auto vars:     Size  Location     Type
  6207 ;;		None
  6208 ;; Return value:  Size  Location     Type
  6209 ;;                  1    wreg      void 
  6210 ;; Registers used:
  6211 ;;		wreg, fsr0l, fsr0h, fsr1l, fsr1h, status,2, status,0, pclath, cstack
  6212 ;; Tracked objects:
  6213 ;;		On entry : 0/0
  6214 ;;		On exit  : 0/0
  6215 ;;		Unchanged: 0/0
  6216 ;; Data sizes:     COMMON   BANK0   BANK1   BANK2   BANK3   BANK4   BANK5   BANK6   BANK7   BANK8   BANK9  BANK10  BANK1
      +1  BANK12
  6217 ;;      Params:         0       0       0       0       0       0       0       0       0       0       0       0       
      +0       0
  6218 ;;      Locals:         0       0       0       0       0       0       0       0       0       0       0       0       
      +0       0
  6219 ;;      Temps:          0       0       0       0       0       0       0       0       0       0       0       0       
      +0       0
  6220 ;;      Totals:         0       0       0       0       0       0       0       0       0       0       0       0       
      +0       0
  6221 ;;Total ram usage:        0 bytes
  6222 ;; Hardware stack levels used: 1
  6223 ;; Hardware stack levels required when called: 5
  6224 ;; This function calls:
  6225 ;;		_I2C1_MasterFsm
  6226 ;;		_I2C1_MasterWaitForEvent
  6227 ;; This function is called by:
  6228 ;;		_I2C1_MasterOperation
  6229 ;; This function uses a non-reentrant model
  6230 ;;
  6231                           
  6232                           
  6233                           ;psect for function _I2C1_Poller
  6234  0357                     _I2C1_Poller:
  6235  0357                     l2530:	
  6236                           ;incstack = 0
  6237                           ; Regs used in _I2C1_Poller: [wreg-fsr1h+status,2+status,0+pclath+cstack]
  6238                           
  6239                           
  6240                           ;mcc_generated_files/i2c1_master.c: 314:     while(I2C1_Status.busy)
  6241  0357  2B5E               	goto	l2536
  6242  0358                     l2532:
  6243                           
  6244                           ;mcc_generated_files/i2c1_master.c: 315:     {;mcc_generated_files/i2c1_master.c: 316:  
      +                                 I2C1_MasterWaitForEvent();
  6245  0358  3182  22EA  3183   	fcall	_I2C1_MasterWaitForEvent
  6246  035B                     l2534:
  6247                           
  6248                           ;mcc_generated_files/i2c1_master.c: 317:         I2C1_MasterFsm();
  6249  035B  3184  249C  3183   	fcall	_I2C1_MasterFsm
  6250  035E                     l2536:
  6251                           
  6252                           ;mcc_generated_files/i2c1_master.c: 314:     while(I2C1_Status.busy)
  6253  035E  0020               	movlb	0	; select bank0
  6254  035F  18BC               	btfsc	_I2C1_Status+28,1
  6255  0360  2B62               	goto	u671
  6256  0361  2B63               	goto	u670
  6257  0362                     u671:
  6258  0362  2B58               	goto	l2532
  6259  0363                     u670:
  6260  0363                     l459:
  6261  0363  0008               	return
  6262  0364                     __end_of_I2C1_Poller:
  6263                           
  6264                           	psect	text23
  6265  02EA                     __ptext23:	
  6266 ;; *************** function _I2C1_MasterWaitForEvent *****************
  6267 ;; Defined at:
  6268 ;;		line 650 in file "mcc_generated_files/i2c1_master.c"
  6269 ;; Parameters:    Size  Location     Type
  6270 ;;		None
  6271 ;; Auto vars:     Size  Location     Type
  6272 ;;		None
  6273 ;; Return value:  Size  Location     Type
  6274 ;;                  1    wreg      void 
  6275 ;; Registers used:
  6276 ;;		None
  6277 ;; Tracked objects:
  6278 ;;		On entry : 0/0
  6279 ;;		On exit  : 0/0
  6280 ;;		Unchanged: 0/0
  6281 ;; Data sizes:     COMMON   BANK0   BANK1   BANK2   BANK3   BANK4   BANK5   BANK6   BANK7   BANK8   BANK9  BANK10  BANK1
      +1  BANK12
  6282 ;;      Params:         0       0       0       0       0       0       0       0       0       0       0       0       
      +0       0
  6283 ;;      Locals:         0       0       0       0       0       0       0       0       0       0       0       0       
      +0       0
  6284 ;;      Temps:          0       0       0       0       0       0       0       0       0       0       0       0       
      +0       0
  6285 ;;      Totals:         0       0       0       0       0       0       0       0       0       0       0       0       
      +0       0
  6286 ;;Total ram usage:        0 bytes
  6287 ;; Hardware stack levels used: 1
  6288 ;; This function calls:
  6289 ;;		Nothing
  6290 ;; This function is called by:
  6291 ;;		_I2C1_Poller
  6292 ;; This function uses a non-reentrant model
  6293 ;;
  6294                           
  6295                           
  6296                           ;psect for function _I2C1_MasterWaitForEvent
  6297  02EA                     _I2C1_MasterWaitForEvent:
  6298  02EA                     l632:	
  6299                           ;incstack = 0
  6300                           ; Regs used in _I2C1_MasterWaitForEvent: []
  6301                           ;mcc_generated_files/i2c1_master.c: 652:     while(1)
  6302                           
  6303                           
  6304                           ;mcc_generated_files/i2c1_master.c: 653:     {;mcc_generated_files/i2c1_master.c: 654:  
      +                                 if(PIR3bits.SSP1IF)
  6305  02EA  002E               	movlb	14	; select bank14
  6306  02EB  1C0F               	btfss	15,0	;volatile
  6307  02EC  2AEE               	goto	u641
  6308  02ED  2AEF               	goto	u640
  6309  02EE                     u641:
  6310  02EE  2AEA               	goto	l632
  6311  02EF                     u640:
  6312  02EF                     l636:
  6313  02EF  0008               	return
  6314  02F0                     __end_of_I2C1_MasterWaitForEvent:
  6315                           
  6316                           	psect	text24
  6317  049C                     __ptext24:	
  6318 ;; *************** function _I2C1_MasterFsm *****************
  6319 ;; Defined at:
  6320 ;;		line 321 in file "mcc_generated_files/i2c1_master.c"
  6321 ;; Parameters:    Size  Location     Type
  6322 ;;		None
  6323 ;; Auto vars:     Size  Location     Type
  6324 ;;		None
  6325 ;; Return value:  Size  Location     Type
  6326 ;;                  1    wreg      void 
  6327 ;; Registers used:
  6328 ;;		wreg, fsr0l, fsr0h, fsr1l, fsr1h, status,2, status,0, pclath, cstack
  6329 ;; Tracked objects:
  6330 ;;		On entry : 0/0
  6331 ;;		On exit  : 0/0
  6332 ;;		Unchanged: 0/0
  6333 ;; Data sizes:     COMMON   BANK0   BANK1   BANK2   BANK3   BANK4   BANK5   BANK6   BANK7   BANK8   BANK9  BANK10  BANK1
      +1  BANK12
  6334 ;;      Params:         0       0       0       0       0       0       0       0       0       0       0       0       
      +0       0
  6335 ;;      Locals:         0       0       0       0       0       0       0       0       0       0       0       0       
      +0       0
  6336 ;;      Temps:          0       3       0       0       0       0       0       0       0       0       0       0       
      +0       0
  6337 ;;      Totals:         0       3       0       0       0       0       0       0       0       0       0       0       
      +0       0
  6338 ;;Total ram usage:        3 bytes
  6339 ;; Hardware stack levels used: 1
  6340 ;; Hardware stack levels required when called: 4
  6341 ;; This function calls:
  6342 ;;		_I2C1_DO_ADDRESS_NACK
  6343 ;;		_I2C1_DO_IDLE
  6344 ;;		_I2C1_DO_RCEN
  6345 ;;		_I2C1_DO_RESET
  6346 ;;		_I2C1_DO_RX
  6347 ;;		_I2C1_DO_RX_ACK
  6348 ;;		_I2C1_DO_RX_NACK_RESTART
  6349 ;;		_I2C1_DO_RX_NACK_STOP
  6350 ;;		_I2C1_DO_SEND_ADR_READ
  6351 ;;		_I2C1_DO_SEND_ADR_WRITE
  6352 ;;		_I2C1_DO_SEND_RESTART
  6353 ;;		_I2C1_DO_SEND_RESTART_READ
  6354 ;;		_I2C1_DO_SEND_RESTART_WRITE
  6355 ;;		_I2C1_DO_SEND_STOP
  6356 ;;		_I2C1_DO_TX
  6357 ;;		_I2C1_DO_TX_EMPTY
  6358 ;;		_I2C1_MasterClearIrq
  6359 ;;		_I2C1_MasterIsNack
  6360 ;; This function is called by:
  6361 ;;		_I2C1_Poller
  6362 ;; This function uses a non-reentrant model
  6363 ;;
  6364                           
  6365                           
  6366                           ;psect for function _I2C1_MasterFsm
  6367  049C                     _I2C1_MasterFsm:
  6368  049C                     l2518:	
  6369                           ;incstack = 0
  6370                           ; Regs used in _I2C1_MasterFsm: [wreg-fsr1h+status,2+status,0+pclath+cstack]
  6371                           
  6372                           
  6373                           ;mcc_generated_files/i2c1_master.c: 323:     I2C1_MasterClearIrq();
  6374  049C  3182  228A  3184   	fcall	_I2C1_MasterClearIrq
  6375  049F                     l2520:
  6376                           
  6377                           ;mcc_generated_files/i2c1_master.c: 325:     if(I2C1_Status.addressNackCheck && I2C1_Mas
      +                          terIsNack())
  6378  049F  0020               	movlb	0	; select bank0
  6379  04A0  1C3C               	btfss	_I2C1_Status+28,0
  6380  04A1  2CA3               	goto	u651
  6381  04A2  2CA4               	goto	u650
  6382  04A3                     u651:
  6383  04A3  2CB1               	goto	l2526
  6384  04A4                     u650:
  6385  04A4                     l2522:
  6386  04A4  3182  22E4  3184   	fcall	_I2C1_MasterIsNack
  6387  04A7  3A00               	xorlw	0
  6388  04A8  1903               	skipnz
  6389  04A9  2CAB               	goto	u661
  6390  04AA  2CAC               	goto	u660
  6391  04AB                     u661:
  6392  04AB  2CB1               	goto	l2526
  6393  04AC                     u660:
  6394  04AC                     l2524:
  6395                           
  6396                           ;mcc_generated_files/i2c1_master.c: 326:     {;mcc_generated_files/i2c1_master.c: 327:  
      +                                 I2C1_Status.state = I2C1_ADDRESS_NACK;
  6397  04AC  300F               	movlw	15
  6398  04AD  0020               	movlb	0	; select bank0
  6399  04AE  00BE               	movwf	??_I2C1_MasterFsm
  6400  04AF  083E               	movf	??_I2C1_MasterFsm,w
  6401  04B0  00BA               	movwf	_I2C1_Status+26
  6402  04B1                     l2526:
  6403                           
  6404                           ;mcc_generated_files/i2c1_master.c: 329:     I2C1_Status.state = i2c1_fsmStateTable[I2C1
      +                          _Status.state]();
  6405  04B1  0020               	movlb	0	; select bank0
  6406  04B2  083A               	movf	_I2C1_Status+26,w
  6407  04B3  00BE               	movwf	??_I2C1_MasterFsm
  6408  04B4  01BF               	clrf	??_I2C1_MasterFsm+1
  6409  04B5  35BE               	lslf	??_I2C1_MasterFsm,f
  6410  04B6  0DBF               	rlf	??_I2C1_MasterFsm+1,f
  6411  04B7  3023               	movlw	low (_i2c1_fsmStateTable| (0+32768))
  6412  04B8  073E               	addwf	??_I2C1_MasterFsm,w
  6413  04B9  0084               	movwf	4
  6414  04BA  3088               	movlw	high (_i2c1_fsmStateTable| (0+32768))
  6415  04BB  3D3F               	addwfc	??_I2C1_MasterFsm+1,w
  6416  04BC  0085               	movwf	5
  6417  04BD  3F01               	moviw [1]fsr0
  6418  04BE  008A               	movwf	10
  6419  04BF  3F00               	moviw [0]fsr0
  6420  04C0  000A               	callw
  6421  04C1  3184               	pagesel	$
  6422  04C2  0020               	movlb	0	; select bank0
  6423  04C3  00C0               	movwf	??_I2C1_MasterFsm+2
  6424  04C4  0840               	movf	??_I2C1_MasterFsm+2,w
  6425  04C5  00BA               	movwf	_I2C1_Status+26
  6426  04C6                     l463:
  6427  04C6  0008               	return
  6428  04C7                     __end_of_I2C1_MasterFsm:
  6429                           
  6430                           	psect	text25
  6431  04C7                     __ptext25:	
  6432 ;; *************** function _I2C1_DO_ADDRESS_NACK *****************
  6433 ;; Defined at:
  6434 ;;		line 500 in file "mcc_generated_files/i2c1_master.c"
  6435 ;; Parameters:    Size  Location     Type
  6436 ;;		None
  6437 ;; Auto vars:     Size  Location     Type
  6438 ;;		None
  6439 ;; Return value:  Size  Location     Type
  6440 ;;                  1    wreg      enum E11681
  6441 ;; Registers used:
  6442 ;;		wreg, fsr0l, fsr0h, fsr1l, fsr1h, status,2, status,0, pclath, cstack
  6443 ;; Tracked objects:
  6444 ;;		On entry : 0/0
  6445 ;;		On exit  : 0/0
  6446 ;;		Unchanged: 0/0
  6447 ;; Data sizes:     COMMON   BANK0   BANK1   BANK2   BANK3   BANK4   BANK5   BANK6   BANK7   BANK8   BANK9  BANK10  BANK1
      +1  BANK12
  6448 ;;      Params:         0       0       0       0       0       0       0       0       0       0       0       0       
      +0       0
  6449 ;;      Locals:         0       0       0       0       0       0       0       0       0       0       0       0       
      +0       0
  6450 ;;      Temps:          3       0       0       0       0       0       0       0       0       0       0       0       
      +0       0
  6451 ;;      Totals:         3       0       0       0       0       0       0       0       0       0       0       0       
      +0       0
  6452 ;;Total ram usage:        3 bytes
  6453 ;; Hardware stack levels used: 1
  6454 ;; Hardware stack levels required when called: 3
  6455 ;; This function calls:
  6456 ;;		Absolute function
  6457 ;;		_I2C1_CallbackReturnReset
  6458 ;;		_I2C1_CallbackReturnStop
  6459 ;;		_I2C1_DO_SEND_RESTART
  6460 ;;		_I2C1_DO_SEND_STOP
  6461 ;;		_rd1RegCompleteHandler
  6462 ;;		_rd2RegCompleteHandler
  6463 ;;		_rdBlkRegCompleteHandler
  6464 ;;		_wr1RegCompleteHandler
  6465 ;;		_wr2RegCompleteHandler
  6466 ;; This function is called by:
  6467 ;;		_I2C1_MasterFsm
  6468 ;; This function uses a non-reentrant model
  6469 ;;
  6470                           
  6471                           
  6472                           ;psect for function _I2C1_DO_ADDRESS_NACK
  6473  04C7                     _I2C1_DO_ADDRESS_NACK:
  6474  04C7                     l2496:	
  6475                           ;incstack = 0
  6476                           ; Regs used in _I2C1_DO_ADDRESS_NACK: [wreg-fsr1h+status,2+status,0+pclath+cstack]
  6477                           
  6478                           
  6479                           ;mcc_generated_files/i2c1_master.c: 502:     I2C1_Status.addressNackCheck = 0;
  6480  04C7  0020               	movlb	0	; select bank0
  6481  04C8  103C               	bcf	_I2C1_Status+28,0
  6482  04C9                     l2498:
  6483                           
  6484                           ;mcc_generated_files/i2c1_master.c: 503:     I2C1_Status.error = I2C1_FAIL;
  6485  04C9  3002               	movlw	2
  6486  04CA  00FA               	movwf	??_I2C1_DO_ADDRESS_NACK
  6487  04CB  087A               	movf	??_I2C1_DO_ADDRESS_NACK,w
  6488  04CC  00BB               	movwf	_I2C1_Status+27
  6489                           
  6490                           ;mcc_generated_files/i2c1_master.c: 504:     switch(I2C1_Status.callbackTable[I2C1_ADDR_
      +                          NACK](I2C1_Status.callbackPayload[I2C1_ADDR_NACK]))
  6491  04CD  2CD6               	goto	l2510
  6492  04CE                     l2500:
  6493                           
  6494                           ;mcc_generated_files/i2c1_master.c: 508:             return I2C1_DO_SEND_RESTART();
  6495  04CE  3182  22C1  3184   	fcall	_I2C1_DO_SEND_RESTART
  6496  04D1  2CF2               	goto	l554
  6497  04D2                     l2504:
  6498                           
  6499                           ;mcc_generated_files/i2c1_master.c: 510:             return I2C1_DO_SEND_STOP();
  6500  04D2  3182  22C6  3184   	fcall	_I2C1_DO_SEND_STOP
  6501  04D5  2CF2               	goto	l554
  6502  04D6                     l2510:
  6503  04D6  082E               	movf	low ((_I2C1_Status| 0+14)),w
  6504  04D7  00FA               	movwf	??_I2C1_DO_ADDRESS_NACK
  6505  04D8  087A               	movf	??_I2C1_DO_ADDRESS_NACK,w
  6506  04D9  00F9               	movwf	I2C1_CallbackReturnReset@funPtr
  6507  04DA  3004               	movlw	4
  6508  04DB  3E20               	addlw	(low (_I2C1_Status| 0))& (0+255)
  6509  04DC  0086               	movwf	6
  6510  04DD  0187               	clrf	7
  6511  04DE  3F41               	moviw [1]fsr1
  6512  04DF  008A               	movwf	10
  6513  04E0  3F40               	moviw [0]fsr1
  6514  04E1  000A               	callw
  6515  04E2  3184               	pagesel	$
  6516  04E3  00FB               	movwf	??_I2C1_DO_ADDRESS_NACK+1
  6517  04E4  01FC               	clrf	??_I2C1_DO_ADDRESS_NACK+2
  6518                           
  6519                           ; Switch on 2 bytes has been partitioned into a top level switch of size 1, and 1 sub-sw
      +                          itches
  6520                           ; Switch size 1, requested type "simple"
  6521                           ; Number of cases is 1, Range of values is 0 to 0
  6522                           ; switch strategies available:
  6523                           ; Name         Instructions Cycles
  6524                           ; simple_byte            4     3 (average)
  6525                           ; direct_byte            8     6 (fixed)
  6526                           ; jumptable            260     6 (fixed)
  6527                           ;	Chosen strategy is simple_byte
  6528  04E5  087C               	movf	??_I2C1_DO_ADDRESS_NACK+2,w
  6529  04E6  3A00               	xorlw	0	; case 0
  6530  04E7  1903               	skipnz
  6531  04E8  2CEA               	goto	l3104
  6532  04E9  2CD2               	goto	l2504
  6533  04EA                     l3104:
  6534                           
  6535                           ; Switch size 1, requested type "simple"
  6536                           ; Number of cases is 2, Range of values is 2 to 3
  6537                           ; switch strategies available:
  6538                           ; Name         Instructions Cycles
  6539                           ; simple_byte            7     4 (average)
  6540                           ; direct_byte           13     9 (fixed)
  6541                           ; jumptable            263     9 (fixed)
  6542                           ;	Chosen strategy is simple_byte
  6543  04EA  087B               	movf	??_I2C1_DO_ADDRESS_NACK+1,w
  6544  04EB  3A02               	xorlw	2	; case 2
  6545  04EC  1903               	skipnz
  6546  04ED  2CCE               	goto	l2500
  6547  04EE  3A01               	xorlw	1	; case 3
  6548  04EF  1903               	skipnz
  6549  04F0  2CCE               	goto	l2500
  6550  04F1  2CD2               	goto	l2504
  6551  04F2                     l554:
  6552  04F2  0008               	return
  6553  04F3                     __end_of_I2C1_DO_ADDRESS_NACK:
  6554                           
  6555                           	psect	text26
  6556  02DA                     __ptext26:	
  6557 ;; *************** function _I2C1_DO_RESET *****************
  6558 ;; Defined at:
  6559 ;;		line 494 in file "mcc_generated_files/i2c1_master.c"
  6560 ;; Parameters:    Size  Location     Type
  6561 ;;		None
  6562 ;; Auto vars:     Size  Location     Type
  6563 ;;		None
  6564 ;; Return value:  Size  Location     Type
  6565 ;;                  1    wreg      enum E11681
  6566 ;; Registers used:
  6567 ;;		wreg, status,2
  6568 ;; Tracked objects:
  6569 ;;		On entry : 0/0
  6570 ;;		On exit  : 0/0
  6571 ;;		Unchanged: 0/0
  6572 ;; Data sizes:     COMMON   BANK0   BANK1   BANK2   BANK3   BANK4   BANK5   BANK6   BANK7   BANK8   BANK9  BANK10  BANK1
      +1  BANK12
  6573 ;;      Params:         0       0       0       0       0       0       0       0       0       0       0       0       
      +0       0
  6574 ;;      Locals:         0       0       0       0       0       0       0       0       0       0       0       0       
      +0       0
  6575 ;;      Temps:          0       0       0       0       0       0       0       0       0       0       0       0       
      +0       0
  6576 ;;      Totals:         0       0       0       0       0       0       0       0       0       0       0       0       
      +0       0
  6577 ;;Total ram usage:        0 bytes
  6578 ;; Hardware stack levels used: 1
  6579 ;; This function calls:
  6580 ;;		Nothing
  6581 ;; This function is called by:
  6582 ;;		_I2C1_MasterFsm
  6583 ;; This function uses a non-reentrant model
  6584 ;;
  6585                           
  6586                           
  6587                           ;psect for function _I2C1_DO_RESET
  6588  02DA                     _I2C1_DO_RESET:
  6589  02DA                     l2488:	
  6590                           ;incstack = 0
  6591                           ; Regs used in _I2C1_DO_RESET: [wreg+status,2]
  6592                           
  6593                           
  6594                           ;mcc_generated_files/i2c1_master.c: 496:     I2C1_Status.busy = 0;
  6595  02DA  0020               	movlb	0	; select bank0
  6596  02DB  10BC               	bcf	_I2C1_Status+28,1
  6597  02DC                     l2490:
  6598                           
  6599                           ;mcc_generated_files/i2c1_master.c: 497:     I2C1_Status.error = I2C1_NOERR;
  6600  02DC  01BB               	clrf	_I2C1_Status+27
  6601  02DD                     l2492:
  6602                           
  6603                           ;mcc_generated_files/i2c1_master.c: 498:     return I2C1_RESET;
  6604  02DD  300E               	movlw	14
  6605  02DE                     l548:
  6606  02DE  0008               	return
  6607  02DF                     __end_of_I2C1_DO_RESET:
  6608                           
  6609                           	psect	text27
  6610  02D5                     __ptext27:	
  6611 ;; *************** function _I2C1_DO_RX_NACK_RESTART *****************
  6612 ;; Defined at:
  6613 ;;		line 488 in file "mcc_generated_files/i2c1_master.c"
  6614 ;; Parameters:    Size  Location     Type
  6615 ;;		None
  6616 ;; Auto vars:     Size  Location     Type
  6617 ;;		None
  6618 ;; Return value:  Size  Location     Type
  6619 ;;                  1    wreg      enum E11681
  6620 ;; Registers used:
  6621 ;;		wreg, status,2, status,0, pclath, cstack
  6622 ;; Tracked objects:
  6623 ;;		On entry : 0/0
  6624 ;;		On exit  : 0/0
  6625 ;;		Unchanged: 0/0
  6626 ;; Data sizes:     COMMON   BANK0   BANK1   BANK2   BANK3   BANK4   BANK5   BANK6   BANK7   BANK8   BANK9  BANK10  BANK1
      +1  BANK12
  6627 ;;      Params:         0       0       0       0       0       0       0       0       0       0       0       0       
      +0       0
  6628 ;;      Locals:         0       0       0       0       0       0       0       0       0       0       0       0       
      +0       0
  6629 ;;      Temps:          0       0       0       0       0       0       0       0       0       0       0       0       
      +0       0
  6630 ;;      Totals:         0       0       0       0       0       0       0       0       0       0       0       0       
      +0       0
  6631 ;;Total ram usage:        0 bytes
  6632 ;; Hardware stack levels used: 1
  6633 ;; Hardware stack levels required when called: 1
  6634 ;; This function calls:
  6635 ;;		_I2C1_MasterSendNack
  6636 ;; This function is called by:
  6637 ;;		_I2C1_DO_RX
  6638 ;;		_I2C1_MasterFsm
  6639 ;; This function uses a non-reentrant model
  6640 ;;
  6641                           
  6642                           
  6643                           ;psect for function _I2C1_DO_RX_NACK_RESTART
  6644  02D5                     _I2C1_DO_RX_NACK_RESTART:
  6645  02D5                     l2330:	
  6646                           ;incstack = 0
  6647                           ; Regs used in _I2C1_DO_RX_NACK_RESTART: [wreg+status,2+status,0+pclath+cstack]
  6648                           
  6649                           
  6650                           ;mcc_generated_files/i2c1_master.c: 490:     I2C1_MasterSendNack();
  6651  02D5  3182  22A5  3182   	fcall	_I2C1_MasterSendNack
  6652  02D8                     l2332:
  6653                           
  6654                           ;mcc_generated_files/i2c1_master.c: 491:     return I2C1_SEND_RESTART;
  6655  02D8  3009               	movlw	9
  6656  02D9                     l545:
  6657  02D9  0008               	return
  6658  02DA                     __end_of_I2C1_DO_RX_NACK_RESTART:
  6659                           
  6660                           	psect	text28
  6661  02D0                     __ptext28:	
  6662 ;; *************** function _I2C1_DO_RX_NACK_STOP *****************
  6663 ;; Defined at:
  6664 ;;		line 482 in file "mcc_generated_files/i2c1_master.c"
  6665 ;; Parameters:    Size  Location     Type
  6666 ;;		None
  6667 ;; Auto vars:     Size  Location     Type
  6668 ;;		None
  6669 ;; Return value:  Size  Location     Type
  6670 ;;                  1    wreg      enum E11681
  6671 ;; Registers used:
  6672 ;;		wreg, status,2, status,0, pclath, cstack
  6673 ;; Tracked objects:
  6674 ;;		On entry : 0/0
  6675 ;;		On exit  : 0/0
  6676 ;;		Unchanged: 0/0
  6677 ;; Data sizes:     COMMON   BANK0   BANK1   BANK2   BANK3   BANK4   BANK5   BANK6   BANK7   BANK8   BANK9  BANK10  BANK1
      +1  BANK12
  6678 ;;      Params:         0       0       0       0       0       0       0       0       0       0       0       0       
      +0       0
  6679 ;;      Locals:         0       0       0       0       0       0       0       0       0       0       0       0       
      +0       0
  6680 ;;      Temps:          0       0       0       0       0       0       0       0       0       0       0       0       
      +0       0
  6681 ;;      Totals:         0       0       0       0       0       0       0       0       0       0       0       0       
      +0       0
  6682 ;;Total ram usage:        0 bytes
  6683 ;; Hardware stack levels used: 1
  6684 ;; Hardware stack levels required when called: 1
  6685 ;; This function calls:
  6686 ;;		_I2C1_MasterSendNack
  6687 ;; This function is called by:
  6688 ;;		_I2C1_DO_RX
  6689 ;;		_I2C1_MasterFsm
  6690 ;; This function uses a non-reentrant model
  6691 ;;
  6692                           
  6693                           
  6694                           ;psect for function _I2C1_DO_RX_NACK_STOP
  6695  02D0                     _I2C1_DO_RX_NACK_STOP:
  6696  02D0                     l2336:	
  6697                           ;incstack = 0
  6698                           ; Regs used in _I2C1_DO_RX_NACK_STOP: [wreg+status,2+status,0+pclath+cstack]
  6699                           
  6700                           
  6701                           ;mcc_generated_files/i2c1_master.c: 484:     I2C1_MasterSendNack();
  6702  02D0  3182  22A5  3182   	fcall	_I2C1_MasterSendNack
  6703  02D3                     l2338:
  6704                           
  6705                           ;mcc_generated_files/i2c1_master.c: 485:     return I2C1_SEND_STOP;
  6706  02D3  300A               	movlw	10
  6707  02D4                     l542:
  6708  02D4  0008               	return
  6709  02D5                     __end_of_I2C1_DO_RX_NACK_STOP:
  6710                           
  6711                           	psect	text29
  6712  02CB                     __ptext29:	
  6713 ;; *************** function _I2C1_DO_RX_ACK *****************
  6714 ;; Defined at:
  6715 ;;		line 475 in file "mcc_generated_files/i2c1_master.c"
  6716 ;; Parameters:    Size  Location     Type
  6717 ;;		None
  6718 ;; Auto vars:     Size  Location     Type
  6719 ;;		None
  6720 ;; Return value:  Size  Location     Type
  6721 ;;                  1    wreg      enum E11681
  6722 ;; Registers used:
  6723 ;;		wreg, status,2, status,0, pclath, cstack
  6724 ;; Tracked objects:
  6725 ;;		On entry : 0/0
  6726 ;;		On exit  : 0/0
  6727 ;;		Unchanged: 0/0
  6728 ;; Data sizes:     COMMON   BANK0   BANK1   BANK2   BANK3   BANK4   BANK5   BANK6   BANK7   BANK8   BANK9  BANK10  BANK1
      +1  BANK12
  6729 ;;      Params:         0       0       0       0       0       0       0       0       0       0       0       0       
      +0       0
  6730 ;;      Locals:         0       0       0       0       0       0       0       0       0       0       0       0       
      +0       0
  6731 ;;      Temps:          0       0       0       0       0       0       0       0       0       0       0       0       
      +0       0
  6732 ;;      Totals:         0       0       0       0       0       0       0       0       0       0       0       0       
      +0       0
  6733 ;;Total ram usage:        0 bytes
  6734 ;; Hardware stack levels used: 1
  6735 ;; Hardware stack levels required when called: 1
  6736 ;; This function calls:
  6737 ;;		_I2C1_MasterSendAck
  6738 ;; This function is called by:
  6739 ;;		_I2C1_MasterFsm
  6740 ;; This function uses a non-reentrant model
  6741 ;;
  6742                           
  6743                           
  6744                           ;psect for function _I2C1_DO_RX_ACK
  6745  02CB                     _I2C1_DO_RX_ACK:
  6746  02CB                     l2482:	
  6747                           ;incstack = 0
  6748                           ; Regs used in _I2C1_DO_RX_ACK: [wreg+status,2+status,0+pclath+cstack]
  6749                           
  6750                           
  6751                           ;mcc_generated_files/i2c1_master.c: 477:     I2C1_MasterSendAck();
  6752  02CB  3182  22A9  3182   	fcall	_I2C1_MasterSendAck
  6753  02CE                     l2484:
  6754                           
  6755                           ;mcc_generated_files/i2c1_master.c: 478:     return I2C1_RCEN;
  6756  02CE  3005               	movlw	5
  6757  02CF                     l539:
  6758  02CF  0008               	return
  6759  02D0                     __end_of_I2C1_DO_RX_ACK:
  6760                           
  6761                           	psect	text30
  6762  02C6                     __ptext30:	
  6763 ;; *************** function _I2C1_DO_SEND_STOP *****************
  6764 ;; Defined at:
  6765 ;;		line 469 in file "mcc_generated_files/i2c1_master.c"
  6766 ;; Parameters:    Size  Location     Type
  6767 ;;		None
  6768 ;; Auto vars:     Size  Location     Type
  6769 ;;		None
  6770 ;; Return value:  Size  Location     Type
  6771 ;;                  1    wreg      enum E11681
  6772 ;; Registers used:
  6773 ;;		wreg, status,2, status,0, pclath, cstack
  6774 ;; Tracked objects:
  6775 ;;		On entry : 0/0
  6776 ;;		On exit  : 0/0
  6777 ;;		Unchanged: 0/0
  6778 ;; Data sizes:     COMMON   BANK0   BANK1   BANK2   BANK3   BANK4   BANK5   BANK6   BANK7   BANK8   BANK9  BANK10  BANK1
      +1  BANK12
  6779 ;;      Params:         0       0       0       0       0       0       0       0       0       0       0       0       
      +0       0
  6780 ;;      Locals:         0       0       0       0       0       0       0       0       0       0       0       0       
      +0       0
  6781 ;;      Temps:          0       0       0       0       0       0       0       0       0       0       0       0       
      +0       0
  6782 ;;      Totals:         0       0       0       0       0       0       0       0       0       0       0       0       
      +0       0
  6783 ;;Total ram usage:        0 bytes
  6784 ;; Hardware stack levels used: 1
  6785 ;; Hardware stack levels required when called: 1
  6786 ;; This function calls:
  6787 ;;		_I2C1_MasterStop
  6788 ;; This function is called by:
  6789 ;;		_I2C1_DO_TX
  6790 ;;		_I2C1_DO_TX_EMPTY
  6791 ;;		_I2C1_DO_ADDRESS_NACK
  6792 ;;		_I2C1_MasterFsm
  6793 ;; This function uses a non-reentrant model
  6794 ;;
  6795                           
  6796                           
  6797                           ;psect for function _I2C1_DO_SEND_STOP
  6798  02C6                     _I2C1_DO_SEND_STOP:
  6799  02C6                     l2318:	
  6800                           ;incstack = 0
  6801                           ; Regs used in _I2C1_DO_SEND_STOP: [wreg+status,2+status,0+pclath+cstack]
  6802                           
  6803                           
  6804                           ;mcc_generated_files/i2c1_master.c: 471:     I2C1_MasterStop();
  6805  02C6  3182  2299  3182   	fcall	_I2C1_MasterStop
  6806  02C9                     l2320:
  6807                           
  6808                           ;mcc_generated_files/i2c1_master.c: 472:     return I2C1_IDLE;
  6809  02C9  3000               	movlw	0
  6810  02CA                     l536:
  6811  02CA  0008               	return
  6812  02CB                     __end_of_I2C1_DO_SEND_STOP:
  6813                           
  6814                           	psect	text31
  6815  02C1                     __ptext31:	
  6816 ;; *************** function _I2C1_DO_SEND_RESTART *****************
  6817 ;; Defined at:
  6818 ;;		line 463 in file "mcc_generated_files/i2c1_master.c"
  6819 ;; Parameters:    Size  Location     Type
  6820 ;;		None
  6821 ;; Auto vars:     Size  Location     Type
  6822 ;;		None
  6823 ;; Return value:  Size  Location     Type
  6824 ;;                  1    wreg      enum E11681
  6825 ;; Registers used:
  6826 ;;		wreg, status,2, status,0, pclath, cstack
  6827 ;; Tracked objects:
  6828 ;;		On entry : 0/0
  6829 ;;		On exit  : 0/0
  6830 ;;		Unchanged: 0/0
  6831 ;; Data sizes:     COMMON   BANK0   BANK1   BANK2   BANK3   BANK4   BANK5   BANK6   BANK7   BANK8   BANK9  BANK10  BANK1
      +1  BANK12
  6832 ;;      Params:         0       0       0       0       0       0       0       0       0       0       0       0       
      +0       0
  6833 ;;      Locals:         0       0       0       0       0       0       0       0       0       0       0       0       
      +0       0
  6834 ;;      Temps:          0       0       0       0       0       0       0       0       0       0       0       0       
      +0       0
  6835 ;;      Totals:         0       0       0       0       0       0       0       0       0       0       0       0       
      +0       0
  6836 ;;Total ram usage:        0 bytes
  6837 ;; Hardware stack levels used: 1
  6838 ;; Hardware stack levels required when called: 1
  6839 ;; This function calls:
  6840 ;;		_I2C1_MasterEnableRestart
  6841 ;; This function is called by:
  6842 ;;		_I2C1_DO_TX_EMPTY
  6843 ;;		_I2C1_DO_ADDRESS_NACK
  6844 ;;		_I2C1_MasterFsm
  6845 ;; This function uses a non-reentrant model
  6846 ;;
  6847                           
  6848                           
  6849                           ;psect for function _I2C1_DO_SEND_RESTART
  6850  02C1                     _I2C1_DO_SEND_RESTART:
  6851  02C1                     l2344:	
  6852                           ;incstack = 0
  6853                           ; Regs used in _I2C1_DO_SEND_RESTART: [wreg+status,2+status,0+pclath+cstack]
  6854                           
  6855                           
  6856                           ;mcc_generated_files/i2c1_master.c: 465:     I2C1_MasterEnableRestart();
  6857  02C1  3182  2296  3182   	fcall	_I2C1_MasterEnableRestart
  6858  02C4                     l2346:
  6859                           
  6860                           ;mcc_generated_files/i2c1_master.c: 466:     return I2C1_SEND_ADR_READ;
  6861  02C4  3001               	movlw	1
  6862  02C5                     l533:
  6863  02C5  0008               	return
  6864  02C6                     __end_of_I2C1_DO_SEND_RESTART:
  6865                           
  6866                           	psect	text32
  6867  02BC                     __ptext32:	
  6868 ;; *************** function _I2C1_DO_SEND_RESTART_WRITE *****************
  6869 ;; Defined at:
  6870 ;;		line 456 in file "mcc_generated_files/i2c1_master.c"
  6871 ;; Parameters:    Size  Location     Type
  6872 ;;		None
  6873 ;; Auto vars:     Size  Location     Type
  6874 ;;		None
  6875 ;; Return value:  Size  Location     Type
  6876 ;;                  1    wreg      enum E11681
  6877 ;; Registers used:
  6878 ;;		wreg, status,2, status,0, pclath, cstack
  6879 ;; Tracked objects:
  6880 ;;		On entry : 0/0
  6881 ;;		On exit  : 0/0
  6882 ;;		Unchanged: 0/0
  6883 ;; Data sizes:     COMMON   BANK0   BANK1   BANK2   BANK3   BANK4   BANK5   BANK6   BANK7   BANK8   BANK9  BANK10  BANK1
      +1  BANK12
  6884 ;;      Params:         0       0       0       0       0       0       0       0       0       0       0       0       
      +0       0
  6885 ;;      Locals:         0       0       0       0       0       0       0       0       0       0       0       0       
      +0       0
  6886 ;;      Temps:          0       0       0       0       0       0       0       0       0       0       0       0       
      +0       0
  6887 ;;      Totals:         0       0       0       0       0       0       0       0       0       0       0       0       
      +0       0
  6888 ;;Total ram usage:        0 bytes
  6889 ;; Hardware stack levels used: 1
  6890 ;; Hardware stack levels required when called: 1
  6891 ;; This function calls:
  6892 ;;		_I2C1_MasterEnableRestart
  6893 ;; This function is called by:
  6894 ;;		_I2C1_DO_TX
  6895 ;;		_I2C1_MasterFsm
  6896 ;; This function uses a non-reentrant model
  6897 ;;
  6898                           
  6899                           
  6900                           ;psect for function _I2C1_DO_SEND_RESTART_WRITE
  6901  02BC                     _I2C1_DO_SEND_RESTART_WRITE:
  6902  02BC                     l2312:	
  6903                           ;incstack = 0
  6904                           ; Regs used in _I2C1_DO_SEND_RESTART_WRITE: [wreg+status,2+status,0+pclath+cstack]
  6905                           
  6906                           
  6907                           ;mcc_generated_files/i2c1_master.c: 458:     I2C1_MasterEnableRestart();
  6908  02BC  3182  2296  3182   	fcall	_I2C1_MasterEnableRestart
  6909  02BF                     l2314:
  6910                           
  6911                           ;mcc_generated_files/i2c1_master.c: 459:     return I2C1_SEND_ADR_WRITE;
  6912  02BF  3002               	movlw	2
  6913  02C0                     l530:
  6914  02C0  0008               	return
  6915  02C1                     __end_of_I2C1_DO_SEND_RESTART_WRITE:
  6916                           
  6917                           	psect	text33
  6918  02B7                     __ptext33:	
  6919 ;; *************** function _I2C1_DO_SEND_RESTART_READ *****************
  6920 ;; Defined at:
  6921 ;;		line 450 in file "mcc_generated_files/i2c1_master.c"
  6922 ;; Parameters:    Size  Location     Type
  6923 ;;		None
  6924 ;; Auto vars:     Size  Location     Type
  6925 ;;		None
  6926 ;; Return value:  Size  Location     Type
  6927 ;;                  1    wreg      enum E11681
  6928 ;; Registers used:
  6929 ;;		wreg, status,2, status,0, pclath, cstack
  6930 ;; Tracked objects:
  6931 ;;		On entry : 0/0
  6932 ;;		On exit  : 0/0
  6933 ;;		Unchanged: 0/0
  6934 ;; Data sizes:     COMMON   BANK0   BANK1   BANK2   BANK3   BANK4   BANK5   BANK6   BANK7   BANK8   BANK9  BANK10  BANK1
      +1  BANK12
  6935 ;;      Params:         0       0       0       0       0       0       0       0       0       0       0       0       
      +0       0
  6936 ;;      Locals:         0       0       0       0       0       0       0       0       0       0       0       0       
      +0       0
  6937 ;;      Temps:          0       0       0       0       0       0       0       0       0       0       0       0       
      +0       0
  6938 ;;      Totals:         0       0       0       0       0       0       0       0       0       0       0       0       
      +0       0
  6939 ;;Total ram usage:        0 bytes
  6940 ;; Hardware stack levels used: 1
  6941 ;; Hardware stack levels required when called: 1
  6942 ;; This function calls:
  6943 ;;		_I2C1_MasterEnableRestart
  6944 ;; This function is called by:
  6945 ;;		_I2C1_DO_TX
  6946 ;;		_I2C1_MasterFsm
  6947 ;; This function uses a non-reentrant model
  6948 ;;
  6949                           
  6950                           
  6951                           ;psect for function _I2C1_DO_SEND_RESTART_READ
  6952  02B7                     _I2C1_DO_SEND_RESTART_READ:
  6953  02B7                     l2306:	
  6954                           ;incstack = 0
  6955                           ; Regs used in _I2C1_DO_SEND_RESTART_READ: [wreg+status,2+status,0+pclath+cstack]
  6956                           
  6957                           
  6958                           ;mcc_generated_files/i2c1_master.c: 452:     I2C1_MasterEnableRestart();
  6959  02B7  3182  2296  3182   	fcall	_I2C1_MasterEnableRestart
  6960  02BA                     l2308:
  6961                           
  6962                           ;mcc_generated_files/i2c1_master.c: 453:     return I2C1_SEND_ADR_READ;
  6963  02BA  3001               	movlw	1
  6964  02BB                     l527:
  6965  02BB  0008               	return
  6966  02BC                     __end_of_I2C1_DO_SEND_RESTART_READ:
  6967                           
  6968                           	psect	text34
  6969  030E                     __ptext34:	
  6970 ;; *************** function _I2C1_DO_RCEN *****************
  6971 ;; Defined at:
  6972 ;;		line 402 in file "mcc_generated_files/i2c1_master.c"
  6973 ;; Parameters:    Size  Location     Type
  6974 ;;		None
  6975 ;; Auto vars:     Size  Location     Type
  6976 ;;		None
  6977 ;; Return value:  Size  Location     Type
  6978 ;;                  1    wreg      enum E11681
  6979 ;; Registers used:
  6980 ;;		wreg, status,2, status,0, pclath, cstack
  6981 ;; Tracked objects:
  6982 ;;		On entry : 0/0
  6983 ;;		On exit  : 0/0
  6984 ;;		Unchanged: 0/0
  6985 ;; Data sizes:     COMMON   BANK0   BANK1   BANK2   BANK3   BANK4   BANK5   BANK6   BANK7   BANK8   BANK9  BANK10  BANK1
      +1  BANK12
  6986 ;;      Params:         0       0       0       0       0       0       0       0       0       0       0       0       
      +0       0
  6987 ;;      Locals:         0       0       0       0       0       0       0       0       0       0       0       0       
      +0       0
  6988 ;;      Temps:          0       0       0       0       0       0       0       0       0       0       0       0       
      +0       0
  6989 ;;      Totals:         0       0       0       0       0       0       0       0       0       0       0       0       
      +0       0
  6990 ;;Total ram usage:        0 bytes
  6991 ;; Hardware stack levels used: 1
  6992 ;; Hardware stack levels required when called: 1
  6993 ;; This function calls:
  6994 ;;		_I2C1_MasterStartRx
  6995 ;; This function is called by:
  6996 ;;		_I2C1_MasterFsm
  6997 ;; This function uses a non-reentrant model
  6998 ;;
  6999                           
  7000                           
  7001                           ;psect for function _I2C1_DO_RCEN
  7002  030E                     _I2C1_DO_RCEN:
  7003  030E                     l2450:	
  7004                           ;incstack = 0
  7005                           ; Regs used in _I2C1_DO_RCEN: [wreg+status,2+status,0+pclath+cstack]
  7006                           
  7007                           
  7008                           ;mcc_generated_files/i2c1_master.c: 404:     I2C1_Status.addressNackCheck = 0;
  7009  030E  0020               	movlb	0	; select bank0
  7010  030F  103C               	bcf	_I2C1_Status+28,0
  7011  0310                     l2452:
  7012                           
  7013                           ;mcc_generated_files/i2c1_master.c: 405:     I2C1_MasterStartRx();
  7014  0310  3182  229C  3183   	fcall	_I2C1_MasterStartRx
  7015  0313                     l2454:
  7016                           
  7017                           ;mcc_generated_files/i2c1_master.c: 406:     return I2C1_RX;
  7018  0313  3004               	movlw	4
  7019  0314                     l503:
  7020  0314  0008               	return
  7021  0315                     __end_of_I2C1_DO_RCEN:
  7022                           
  7023                           	psect	text35
  7024  0637                     __ptext35:	
  7025 ;; *************** function _I2C1_DO_RX *****************
  7026 ;; Defined at:
  7027 ;;		line 378 in file "mcc_generated_files/i2c1_master.c"
  7028 ;; Parameters:    Size  Location     Type
  7029 ;;		None
  7030 ;; Auto vars:     Size  Location     Type
  7031 ;;		None
  7032 ;; Return value:  Size  Location     Type
  7033 ;;                  1    wreg      enum E11681
  7034 ;; Registers used:
  7035 ;;		wreg, fsr0l, fsr0h, fsr1l, fsr1h, status,2, status,0, pclath, cstack
  7036 ;; Tracked objects:
  7037 ;;		On entry : 0/0
  7038 ;;		On exit  : 0/0
  7039 ;;		Unchanged: 0/0
  7040 ;; Data sizes:     COMMON   BANK0   BANK1   BANK2   BANK3   BANK4   BANK5   BANK6   BANK7   BANK8   BANK9  BANK10  BANK1
      +1  BANK12
  7041 ;;      Params:         0       0       0       0       0       0       0       0       0       0       0       0       
      +0       0
  7042 ;;      Locals:         0       0       0       0       0       0       0       0       0       0       0       0       
      +0       0
  7043 ;;      Temps:          3       0       0       0       0       0       0       0       0       0       0       0       
      +0       0
  7044 ;;      Totals:         3       0       0       0       0       0       0       0       0       0       0       0       
      +0       0
  7045 ;;Total ram usage:        3 bytes
  7046 ;; Hardware stack levels used: 1
  7047 ;; Hardware stack levels required when called: 3
  7048 ;; This function calls:
  7049 ;;		Absolute function
  7050 ;;		_I2C1_CallbackReturnReset
  7051 ;;		_I2C1_CallbackReturnStop
  7052 ;;		_I2C1_DO_RX_NACK_RESTART
  7053 ;;		_I2C1_DO_RX_NACK_STOP
  7054 ;;		_I2C1_MasterGetRxData
  7055 ;;		_I2C1_MasterSendAck
  7056 ;;		_rd1RegCompleteHandler
  7057 ;;		_rd2RegCompleteHandler
  7058 ;;		_rdBlkRegCompleteHandler
  7059 ;;		_wr1RegCompleteHandler
  7060 ;;		_wr2RegCompleteHandler
  7061 ;; This function is called by:
  7062 ;;		_I2C1_MasterFsm
  7063 ;; This function uses a non-reentrant model
  7064 ;;
  7065                           
  7066                           
  7067                           ;psect for function _I2C1_DO_RX
  7068  0637                     _I2C1_DO_RX:
  7069  0637                     l2420:	
  7070                           ;incstack = 0
  7071                           ; Regs used in _I2C1_DO_RX: [wreg-fsr1h+status,2+status,0+pclath+cstack]
  7072                           
  7073                           
  7074                           ;mcc_generated_files/i2c1_master.c: 380:     *I2C1_Status.data_ptr++ = I2C1_MasterGetRxD
      +                          ata();
  7075  0637  3182  229F  3186   	fcall	_I2C1_MasterGetRxData
  7076  063A  00FA               	movwf	??_I2C1_DO_RX
  7077  063B  0020               	movlb	0	; select bank0
  7078  063C  0837               	movf	low ((_I2C1_Status| 0+23)),w
  7079  063D  0086               	movwf	6
  7080  063E  0187               	clrf	7
  7081  063F  087A               	movf	??_I2C1_DO_RX,w
  7082  0640  0081               	movwf	1
  7083  0641                     l2422:
  7084  0641  3001               	movlw	1
  7085  0642  00FA               	movwf	??_I2C1_DO_RX
  7086  0643  087A               	movf	??_I2C1_DO_RX,w
  7087  0644  07B7               	addwf	low ((_I2C1_Status| 0+23)),f
  7088  0645                     l2424:
  7089                           
  7090                           ;mcc_generated_files/i2c1_master.c: 381:     if(--I2C1_Status.data_length)
  7091  0645  3001               	movlw	1
  7092  0646  02B8               	subwf	_I2C1_Status+24,f
  7093  0647  3000               	movlw	0
  7094  0648  3BB9               	subwfb	_I2C1_Status+25,f
  7095  0649  0838               	movf	_I2C1_Status+24,w
  7096  064A  0439               	iorwf	_I2C1_Status+25,w
  7097  064B  1903               	btfsc	3,2
  7098  064C  2E4E               	goto	u631
  7099  064D  2E4F               	goto	u630
  7100  064E                     u631:
  7101  064E  2E54               	goto	l491
  7102  064F                     u630:
  7103  064F                     l2426:
  7104                           
  7105                           ;mcc_generated_files/i2c1_master.c: 382:     {;mcc_generated_files/i2c1_master.c: 383:  
      +                                 I2C1_MasterSendAck();
  7106  064F  3182  22A9  3186   	fcall	_I2C1_MasterSendAck
  7107  0652                     l2428:
  7108                           
  7109                           ;mcc_generated_files/i2c1_master.c: 384:         return I2C1_RCEN;
  7110  0652  3005               	movlw	5
  7111  0653  2E7C               	goto	l492
  7112  0654                     l491:	
  7113                           ;mcc_generated_files/i2c1_master.c: 386:     else
  7114                           
  7115                           
  7116                           ;mcc_generated_files/i2c1_master.c: 387:     {;mcc_generated_files/i2c1_master.c: 388:  
      +                                 I2C1_Status.bufferFree = 1;
  7117  0654  15BC               	bsf	_I2C1_Status+28,3
  7118                           
  7119                           ;mcc_generated_files/i2c1_master.c: 389:         switch(I2C1_Status.callbackTable[I2C1_D
      +                          ATA_COMPLETE](I2C1_Status.callbackPayload[I2C1_DATA_COMPLETE]))
  7120  0655  2E5E               	goto	l2444
  7121  0656                     l2434:
  7122                           
  7123                           ;mcc_generated_files/i2c1_master.c: 393:                 return I2C1_DO_RX_NACK_RESTART(
      +                          );
  7124  0656  3182  22D5  3186   	fcall	_I2C1_DO_RX_NACK_RESTART
  7125  0659  2E7C               	goto	l492
  7126  065A                     l2438:
  7127                           
  7128                           ;mcc_generated_files/i2c1_master.c: 397:                 return I2C1_DO_RX_NACK_STOP();
  7129  065A  3182  22D0  3186   	fcall	_I2C1_DO_RX_NACK_STOP
  7130  065D  2E7C               	goto	l492
  7131  065E                     l2444:
  7132  065E  082C               	movf	low ((_I2C1_Status| 0+12)),w
  7133  065F  00FA               	movwf	??_I2C1_DO_RX
  7134  0660  087A               	movf	??_I2C1_DO_RX,w
  7135  0661  00F9               	movwf	I2C1_CallbackReturnReset@funPtr
  7136  0662  0821               	movf	_I2C1_Status+1,w
  7137  0663  008A               	movwf	10
  7138  0664  0820               	movf	_I2C1_Status,w
  7139  0665  000A               	callw
  7140  0666  3186               	pagesel	$
  7141  0667  00FB               	movwf	??_I2C1_DO_RX+1
  7142  0668  01FC               	clrf	??_I2C1_DO_RX+2
  7143                           
  7144                           ; Switch on 2 bytes has been partitioned into a top level switch of size 1, and 1 sub-sw
      +                          itches
  7145                           ; Switch size 1, requested type "simple"
  7146                           ; Number of cases is 1, Range of values is 0 to 0
  7147                           ; switch strategies available:
  7148                           ; Name         Instructions Cycles
  7149                           ; simple_byte            4     3 (average)
  7150                           ; direct_byte            8     6 (fixed)
  7151                           ; jumptable            260     6 (fixed)
  7152                           ;	Chosen strategy is simple_byte
  7153  0669  087C               	movf	??_I2C1_DO_RX+2,w
  7154  066A  3A00               	xorlw	0	; case 0
  7155  066B  1903               	skipnz
  7156  066C  2E6E               	goto	l3106
  7157  066D  2E5A               	goto	l2438
  7158  066E                     l3106:
  7159                           
  7160                           ; Switch size 1, requested type "simple"
  7161                           ; Number of cases is 4, Range of values is 1 to 4
  7162                           ; switch strategies available:
  7163                           ; Name         Instructions Cycles
  7164                           ; simple_byte           13     7 (average)
  7165                           ; direct_byte           17     9 (fixed)
  7166                           ; jumptable            263     9 (fixed)
  7167                           ;	Chosen strategy is simple_byte
  7168  066E  087B               	movf	??_I2C1_DO_RX+1,w
  7169  066F  3A01               	xorlw	1	; case 1
  7170  0670  1903               	skipnz
  7171  0671  2E5A               	goto	l2438
  7172  0672  3A03               	xorlw	3	; case 2
  7173  0673  1903               	skipnz
  7174  0674  2E56               	goto	l2434
  7175  0675  3A01               	xorlw	1	; case 3
  7176  0676  1903               	skipnz
  7177  0677  2E56               	goto	l2434
  7178  0678  3A07               	xorlw	7	; case 4
  7179  0679  1903               	skipnz
  7180  067A  2E5A               	goto	l2438
  7181  067B  2E5A               	goto	l2438
  7182  067C                     l492:
  7183  067C  0008               	return
  7184  067D                     __end_of_I2C1_DO_RX:
  7185                           
  7186                           	psect	text36
  7187  067D                     __ptext36:	
  7188 ;; *************** function _I2C1_DO_TX *****************
  7189 ;; Defined at:
  7190 ;;		line 354 in file "mcc_generated_files/i2c1_master.c"
  7191 ;; Parameters:    Size  Location     Type
  7192 ;;		None
  7193 ;; Auto vars:     Size  Location     Type
  7194 ;;		None
  7195 ;; Return value:  Size  Location     Type
  7196 ;;                  1    wreg      enum E11681
  7197 ;; Registers used:
  7198 ;;		wreg, fsr0l, fsr0h, fsr1l, fsr1h, status,2, status,0, pclath, cstack
  7199 ;; Tracked objects:
  7200 ;;		On entry : 0/0
  7201 ;;		On exit  : 0/0
  7202 ;;		Unchanged: 0/0
  7203 ;; Data sizes:     COMMON   BANK0   BANK1   BANK2   BANK3   BANK4   BANK5   BANK6   BANK7   BANK8   BANK9  BANK10  BANK1
      +1  BANK12
  7204 ;;      Params:         0       0       0       0       0       0       0       0       0       0       0       0       
      +0       0
  7205 ;;      Locals:         0       0       0       0       0       0       0       0       0       0       0       0       
      +0       0
  7206 ;;      Temps:          3       0       0       0       0       0       0       0       0       0       0       0       
      +0       0
  7207 ;;      Totals:         3       0       0       0       0       0       0       0       0       0       0       0       
      +0       0
  7208 ;;Total ram usage:        3 bytes
  7209 ;; Hardware stack levels used: 1
  7210 ;; Hardware stack levels required when called: 3
  7211 ;; This function calls:
  7212 ;;		Absolute function
  7213 ;;		_I2C1_CallbackReturnReset
  7214 ;;		_I2C1_CallbackReturnStop
  7215 ;;		_I2C1_DO_SEND_RESTART_READ
  7216 ;;		_I2C1_DO_SEND_RESTART_WRITE
  7217 ;;		_I2C1_DO_SEND_STOP
  7218 ;;		_I2C1_MasterIsNack
  7219 ;;		_I2C1_MasterSendTxData
  7220 ;;		_rd1RegCompleteHandler
  7221 ;;		_rd2RegCompleteHandler
  7222 ;;		_rdBlkRegCompleteHandler
  7223 ;;		_wr1RegCompleteHandler
  7224 ;;		_wr2RegCompleteHandler
  7225 ;; This function is called by:
  7226 ;;		_I2C1_MasterFsm
  7227 ;; This function uses a non-reentrant model
  7228 ;;
  7229                           
  7230                           
  7231                           ;psect for function _I2C1_DO_TX
  7232  067D                     _I2C1_DO_TX:
  7233  067D                     l2386:	
  7234                           ;incstack = 0
  7235                           ; Regs used in _I2C1_DO_TX: [wreg-fsr1h+status,2+status,0+pclath+cstack]
  7236                           
  7237                           
  7238                           ;mcc_generated_files/i2c1_master.c: 356:     if(I2C1_MasterIsNack())
  7239  067D  3182  22E4  3186   	fcall	_I2C1_MasterIsNack
  7240  0680  3A00               	xorlw	0
  7241  0681  1903               	skipnz
  7242  0682  2E84               	goto	u611
  7243  0683  2E85               	goto	u610
  7244  0684                     u611:
  7245  0684  2EB5               	goto	l475
  7246  0685                     u610:
  7247  0685  2E92               	goto	l2404
  7248  0686                     l2390:
  7249                           
  7250                           ;mcc_generated_files/i2c1_master.c: 361:                 return I2C1_DO_SEND_RESTART_REA
      +                          D();
  7251  0686  3182  22B7  3186   	fcall	_I2C1_DO_SEND_RESTART_READ
  7252  0689  2ED1               	goto	l478
  7253  068A                     l2394:
  7254                           
  7255                           ;mcc_generated_files/i2c1_master.c: 363:                   return I2C1_DO_SEND_RESTART_W
      +                          RITE();
  7256  068A  3182  22BC  3186   	fcall	_I2C1_DO_SEND_RESTART_WRITE
  7257  068D  2ED1               	goto	l478
  7258  068E                     l2398:
  7259                           
  7260                           ;mcc_generated_files/i2c1_master.c: 367:                 return I2C1_DO_SEND_STOP();
  7261  068E  3182  22C6  3186   	fcall	_I2C1_DO_SEND_STOP
  7262  0691  2ED1               	goto	l478
  7263  0692                     l2404:
  7264  0692  0020               	movlb	0	; select bank0
  7265  0693  082F               	movf	low ((_I2C1_Status| 0+15)),w
  7266  0694  00FA               	movwf	??_I2C1_DO_TX
  7267  0695  087A               	movf	??_I2C1_DO_TX,w
  7268  0696  00F9               	movwf	I2C1_CallbackReturnReset@funPtr
  7269  0697  3006               	movlw	6
  7270  0698  3E20               	addlw	(low (_I2C1_Status| 0))& (0+255)
  7271  0699  0086               	movwf	6
  7272  069A  0187               	clrf	7
  7273  069B  3F41               	moviw [1]fsr1
  7274  069C  008A               	movwf	10
  7275  069D  3F40               	moviw [0]fsr1
  7276  069E  000A               	callw
  7277  069F  3186               	pagesel	$
  7278  06A0  00FB               	movwf	??_I2C1_DO_TX+1
  7279  06A1  01FC               	clrf	??_I2C1_DO_TX+2
  7280                           
  7281                           ; Switch on 2 bytes has been partitioned into a top level switch of size 1, and 1 sub-sw
      +                          itches
  7282                           ; Switch size 1, requested type "simple"
  7283                           ; Number of cases is 1, Range of values is 0 to 0
  7284                           ; switch strategies available:
  7285                           ; Name         Instructions Cycles
  7286                           ; simple_byte            4     3 (average)
  7287                           ; direct_byte            8     6 (fixed)
  7288                           ; jumptable            260     6 (fixed)
  7289                           ;	Chosen strategy is simple_byte
  7290  06A2  087C               	movf	??_I2C1_DO_TX+2,w
  7291  06A3  3A00               	xorlw	0	; case 0
  7292  06A4  1903               	skipnz
  7293  06A5  2EA7               	goto	l3108
  7294  06A6  2E8E               	goto	l2398
  7295  06A7                     l3108:
  7296                           
  7297                           ; Switch size 1, requested type "simple"
  7298                           ; Number of cases is 4, Range of values is 1 to 4
  7299                           ; switch strategies available:
  7300                           ; Name         Instructions Cycles
  7301                           ; simple_byte           13     7 (average)
  7302                           ; direct_byte           17     9 (fixed)
  7303                           ; jumptable            263     9 (fixed)
  7304                           ;	Chosen strategy is simple_byte
  7305  06A7  087B               	movf	??_I2C1_DO_TX+1,w
  7306  06A8  3A01               	xorlw	1	; case 1
  7307  06A9  1903               	skipnz
  7308  06AA  2E8E               	goto	l2398
  7309  06AB  3A03               	xorlw	3	; case 2
  7310  06AC  1903               	skipnz
  7311  06AD  2E86               	goto	l2390
  7312  06AE  3A01               	xorlw	1	; case 3
  7313  06AF  1903               	skipnz
  7314  06B0  2E8A               	goto	l2394
  7315  06B1  3A07               	xorlw	7	; case 4
  7316  06B2  1903               	skipnz
  7317  06B3  2E8E               	goto	l2398
  7318  06B4  2E8E               	goto	l2398
  7319  06B5                     l475:	
  7320                           ;mcc_generated_files/i2c1_master.c: 370:     else
  7321                           
  7322                           
  7323                           ;mcc_generated_files/i2c1_master.c: 371:     {;mcc_generated_files/i2c1_master.c: 372:  
      +                                 I2C1_Status.addressNackCheck = 0;
  7324  06B5  0020               	movlb	0	; select bank0
  7325  06B6  103C               	bcf	_I2C1_Status+28,0
  7326  06B7                     l2406:
  7327                           
  7328                           ;mcc_generated_files/i2c1_master.c: 373:         I2C1_MasterSendTxData(*I2C1_Status.data
      +                          _ptr++);
  7329  06B7  3017               	movlw	23
  7330  06B8  3E20               	addlw	(low (_I2C1_Status| 0))& (0+255)
  7331  06B9  0086               	movwf	6
  7332  06BA  0187               	clrf	7
  7333  06BB  3F40               	moviw [0]fsr1
  7334  06BC  0084               	movwf	4
  7335  06BD  0185               	clrf	5
  7336  06BE  0A81               	incf	1,f
  7337  06BF  0800               	movf	0,w
  7338  06C0  3182  22AD  3186   	fcall	_I2C1_MasterSendTxData
  7339  06C3                     l2408:
  7340                           
  7341                           ;mcc_generated_files/i2c1_master.c: 374:         return (--I2C1_Status.data_length)?I2C1
      +                          _TX:I2C1_TX_EMPTY;
  7342  06C3  3001               	movlw	1
  7343  06C4  0020               	movlb	0	; select bank0
  7344  06C5  02B8               	subwf	_I2C1_Status+24,f
  7345  06C6  3000               	movlw	0
  7346  06C7  3BB9               	subwfb	_I2C1_Status+25,f
  7347  06C8  0838               	movf	_I2C1_Status+24,w
  7348  06C9  0439               	iorwf	_I2C1_Status+25,w
  7349  06CA  1D03               	btfss	3,2
  7350  06CB  2ECD               	goto	u621
  7351  06CC  2ECE               	goto	u620
  7352  06CD                     u621:
  7353  06CD  2ED0               	goto	l2412
  7354  06CE                     u620:
  7355  06CE                     l2410:
  7356  06CE  3006               	movlw	6
  7357  06CF  2ED1               	goto	l478
  7358  06D0                     l2412:
  7359  06D0  3003               	movlw	3
  7360  06D1                     l478:
  7361  06D1  0008               	return
  7362  06D2                     __end_of_I2C1_DO_TX:
  7363                           
  7364                           	psect	text37
  7365  0315                     __ptext37:	
  7366 ;; *************** function _I2C1_DO_SEND_ADR_WRITE *****************
  7367 ;; Defined at:
  7368 ;;		line 347 in file "mcc_generated_files/i2c1_master.c"
  7369 ;; Parameters:    Size  Location     Type
  7370 ;;		None
  7371 ;; Auto vars:     Size  Location     Type
  7372 ;;		None
  7373 ;; Return value:  Size  Location     Type
  7374 ;;                  1    wreg      enum E11681
  7375 ;; Registers used:
  7376 ;;		wreg, status,2, status,0, pclath, cstack
  7377 ;; Tracked objects:
  7378 ;;		On entry : 0/0
  7379 ;;		On exit  : 0/0
  7380 ;;		Unchanged: 0/0
  7381 ;; Data sizes:     COMMON   BANK0   BANK1   BANK2   BANK3   BANK4   BANK5   BANK6   BANK7   BANK8   BANK9  BANK10  BANK1
      +1  BANK12
  7382 ;;      Params:         0       0       0       0       0       0       0       0       0       0       0       0       
      +0       0
  7383 ;;      Locals:         0       0       0       0       0       0       0       0       0       0       0       0       
      +0       0
  7384 ;;      Temps:          0       0       0       0       0       0       0       0       0       0       0       0       
      +0       0
  7385 ;;      Totals:         0       0       0       0       0       0       0       0       0       0       0       0       
      +0       0
  7386 ;;Total ram usage:        0 bytes
  7387 ;; Hardware stack levels used: 1
  7388 ;; Hardware stack levels required when called: 1
  7389 ;; This function calls:
  7390 ;;		_I2C1_MasterSendTxData
  7391 ;; This function is called by:
  7392 ;;		_I2C1_MasterFsm
  7393 ;; This function uses a non-reentrant model
  7394 ;;
  7395                           
  7396                           
  7397                           ;psect for function _I2C1_DO_SEND_ADR_WRITE
  7398  0315                     _I2C1_DO_SEND_ADR_WRITE:
  7399  0315                     l2378:	
  7400                           ;incstack = 0
  7401                           ; Regs used in _I2C1_DO_SEND_ADR_WRITE: [wreg+status,2+status,0+pclath+cstack]
  7402                           
  7403                           
  7404                           ;mcc_generated_files/i2c1_master.c: 349:     I2C1_Status.addressNackCheck = 1;
  7405  0315  0020               	movlb	0	; select bank0
  7406  0316  143C               	bsf	_I2C1_Status+28,0
  7407  0317                     l2380:
  7408                           
  7409                           ;mcc_generated_files/i2c1_master.c: 350:     I2C1_MasterSendTxData((uint8_t) (I2C1_Statu
      +                          s.address << 1));
  7410  0317  3536               	lslf	_I2C1_Status+22,w
  7411  0318  3182  22AD  3183   	fcall	_I2C1_MasterSendTxData
  7412  031B                     l2382:
  7413                           
  7414                           ;mcc_generated_files/i2c1_master.c: 351:     return I2C1_TX;
  7415  031B  3003               	movlw	3
  7416  031C                     l472:
  7417  031C  0008               	return
  7418  031D                     __end_of_I2C1_DO_SEND_ADR_WRITE:
  7419                           
  7420                           	psect	text38
  7421  0325                     __ptext38:	
  7422 ;; *************** function _I2C1_DO_SEND_ADR_READ *****************
  7423 ;; Defined at:
  7424 ;;		line 340 in file "mcc_generated_files/i2c1_master.c"
  7425 ;; Parameters:    Size  Location     Type
  7426 ;;		None
  7427 ;; Auto vars:     Size  Location     Type
  7428 ;;		None
  7429 ;; Return value:  Size  Location     Type
  7430 ;;                  1    wreg      enum E11681
  7431 ;; Registers used:
  7432 ;;		wreg, status,2, status,0, pclath, cstack
  7433 ;; Tracked objects:
  7434 ;;		On entry : 0/0
  7435 ;;		On exit  : 0/0
  7436 ;;		Unchanged: 0/0
  7437 ;; Data sizes:     COMMON   BANK0   BANK1   BANK2   BANK3   BANK4   BANK5   BANK6   BANK7   BANK8   BANK9  BANK10  BANK1
      +1  BANK12
  7438 ;;      Params:         0       0       0       0       0       0       0       0       0       0       0       0       
      +0       0
  7439 ;;      Locals:         0       0       0       0       0       0       0       0       0       0       0       0       
      +0       0
  7440 ;;      Temps:          0       0       0       0       0       0       0       0       0       0       0       0       
      +0       0
  7441 ;;      Totals:         0       0       0       0       0       0       0       0       0       0       0       0       
      +0       0
  7442 ;;Total ram usage:        0 bytes
  7443 ;; Hardware stack levels used: 1
  7444 ;; Hardware stack levels required when called: 1
  7445 ;; This function calls:
  7446 ;;		_I2C1_MasterSendTxData
  7447 ;; This function is called by:
  7448 ;;		_I2C1_MasterFsm
  7449 ;; This function uses a non-reentrant model
  7450 ;;
  7451                           
  7452                           
  7453                           ;psect for function _I2C1_DO_SEND_ADR_READ
  7454  0325                     _I2C1_DO_SEND_ADR_READ:
  7455  0325                     l2370:	
  7456                           ;incstack = 0
  7457                           ; Regs used in _I2C1_DO_SEND_ADR_READ: [wreg+status,2+status,0+pclath+cstack]
  7458                           
  7459                           
  7460                           ;mcc_generated_files/i2c1_master.c: 342:     I2C1_Status.addressNackCheck = 1;
  7461  0325  0020               	movlb	0	; select bank0
  7462  0326  143C               	bsf	_I2C1_Status+28,0
  7463  0327                     l2372:
  7464                           
  7465                           ;mcc_generated_files/i2c1_master.c: 343:     I2C1_MasterSendTxData((uint8_t) (I2C1_Statu
      +                          s.address << 1 | 1));
  7466  0327  1403               	setc
  7467  0328  0D36               	rlf	_I2C1_Status+22,w
  7468  0329  3182  22AD  3183   	fcall	_I2C1_MasterSendTxData
  7469  032C                     l2374:
  7470                           
  7471                           ;mcc_generated_files/i2c1_master.c: 344:     return I2C1_RCEN;
  7472  032C  3005               	movlw	5
  7473  032D                     l469:
  7474  032D  0008               	return
  7475  032E                     __end_of_I2C1_DO_SEND_ADR_READ:
  7476                           
  7477                           	psect	text39
  7478  02B2                     __ptext39:	
  7479 ;; *************** function _I2C1_DO_IDLE *****************
  7480 ;; Defined at:
  7481 ;;		line 333 in file "mcc_generated_files/i2c1_master.c"
  7482 ;; Parameters:    Size  Location     Type
  7483 ;;		None
  7484 ;; Auto vars:     Size  Location     Type
  7485 ;;		None
  7486 ;; Return value:  Size  Location     Type
  7487 ;;                  1    wreg      enum E11681
  7488 ;; Registers used:
  7489 ;;		wreg, status,2
  7490 ;; Tracked objects:
  7491 ;;		On entry : 0/0
  7492 ;;		On exit  : 0/0
  7493 ;;		Unchanged: 0/0
  7494 ;; Data sizes:     COMMON   BANK0   BANK1   BANK2   BANK3   BANK4   BANK5   BANK6   BANK7   BANK8   BANK9  BANK10  BANK1
      +1  BANK12
  7495 ;;      Params:         0       0       0       0       0       0       0       0       0       0       0       0       
      +0       0
  7496 ;;      Locals:         0       0       0       0       0       0       0       0       0       0       0       0       
      +0       0
  7497 ;;      Temps:          0       0       0       0       0       0       0       0       0       0       0       0       
      +0       0
  7498 ;;      Totals:         0       0       0       0       0       0       0       0       0       0       0       0       
      +0       0
  7499 ;;Total ram usage:        0 bytes
  7500 ;; Hardware stack levels used: 1
  7501 ;; This function calls:
  7502 ;;		Nothing
  7503 ;; This function is called by:
  7504 ;;		_I2C1_MasterFsm
  7505 ;; This function uses a non-reentrant model
  7506 ;;
  7507                           
  7508                           
  7509                           ;psect for function _I2C1_DO_IDLE
  7510  02B2                     _I2C1_DO_IDLE:
  7511  02B2                     l2362:	
  7512                           ;incstack = 0
  7513                           ; Regs used in _I2C1_DO_IDLE: [wreg+status,2]
  7514                           
  7515                           
  7516                           ;mcc_generated_files/i2c1_master.c: 335:     I2C1_Status.busy = 0;
  7517  02B2  0020               	movlb	0	; select bank0
  7518  02B3  10BC               	bcf	_I2C1_Status+28,1
  7519  02B4                     l2364:
  7520                           
  7521                           ;mcc_generated_files/i2c1_master.c: 336:     I2C1_Status.error = I2C1_NOERR;
  7522  02B4  01BB               	clrf	_I2C1_Status+27
  7523  02B5                     l2366:
  7524                           
  7525                           ;mcc_generated_files/i2c1_master.c: 337:     return I2C1_RESET;
  7526  02B5  300E               	movlw	14
  7527  02B6                     l466:
  7528  02B6  0008               	return
  7529  02B7                     __end_of_I2C1_DO_IDLE:
  7530                           
  7531                           	psect	text40
  7532  04F3                     __ptext40:	
  7533 ;; *************** function _I2C1_DO_TX_EMPTY *****************
  7534 ;; Defined at:
  7535 ;;		line 409 in file "mcc_generated_files/i2c1_master.c"
  7536 ;; Parameters:    Size  Location     Type
  7537 ;;		None
  7538 ;; Auto vars:     Size  Location     Type
  7539 ;;		None
  7540 ;; Return value:  Size  Location     Type
  7541 ;;                  1    wreg      enum E11681
  7542 ;; Registers used:
  7543 ;;		wreg, fsr0l, fsr0h, fsr1l, fsr1h, status,2, status,0, pclath, cstack
  7544 ;; Tracked objects:
  7545 ;;		On entry : 0/0
  7546 ;;		On exit  : 0/0
  7547 ;;		Unchanged: 0/0
  7548 ;; Data sizes:     COMMON   BANK0   BANK1   BANK2   BANK3   BANK4   BANK5   BANK6   BANK7   BANK8   BANK9  BANK10  BANK1
      +1  BANK12
  7549 ;;      Params:         0       0       0       0       0       0       0       0       0       0       0       0       
      +0       0
  7550 ;;      Locals:         0       0       0       0       0       0       0       0       0       0       0       0       
      +0       0
  7551 ;;      Temps:          3       0       0       0       0       0       0       0       0       0       0       0       
      +0       0
  7552 ;;      Totals:         3       0       0       0       0       0       0       0       0       0       0       0       
      +0       0
  7553 ;;Total ram usage:        3 bytes
  7554 ;; Hardware stack levels used: 1
  7555 ;; Hardware stack levels required when called: 3
  7556 ;; This function calls:
  7557 ;;		Absolute function
  7558 ;;		_I2C1_CallbackReturnReset
  7559 ;;		_I2C1_CallbackReturnStop
  7560 ;;		_I2C1_DO_SEND_RESTART
  7561 ;;		_I2C1_DO_SEND_STOP
  7562 ;;		_I2C1_MasterSetIrq
  7563 ;;		_rd1RegCompleteHandler
  7564 ;;		_rd2RegCompleteHandler
  7565 ;;		_rdBlkRegCompleteHandler
  7566 ;;		_wr1RegCompleteHandler
  7567 ;;		_wr2RegCompleteHandler
  7568 ;; This function is called by:
  7569 ;;		_I2C1_MasterFsm
  7570 ;; This function uses a non-reentrant model
  7571 ;;
  7572                           
  7573                           
  7574                           ;psect for function _I2C1_DO_TX_EMPTY
  7575  04F3                     _I2C1_DO_TX_EMPTY:
  7576  04F3                     l2458:	
  7577                           ;incstack = 0
  7578                           ; Regs used in _I2C1_DO_TX_EMPTY: [wreg-fsr1h+status,2+status,0+pclath+cstack]
  7579                           
  7580                           
  7581                           ;mcc_generated_files/i2c1_master.c: 411:     I2C1_Status.bufferFree = 1;
  7582  04F3  0020               	movlb	0	; select bank0
  7583  04F4  15BC               	bsf	_I2C1_Status+28,3
  7584                           
  7585                           ;mcc_generated_files/i2c1_master.c: 412:     switch(I2C1_Status.callbackTable[I2C1_DATA_
      +                          COMPLETE](I2C1_Status.callbackPayload[I2C1_DATA_COMPLETE]))
  7586  04F5  2D03               	goto	l2476
  7587  04F6                     l2460:
  7588                           
  7589                           ;mcc_generated_files/i2c1_master.c: 416:             return I2C1_DO_SEND_RESTART();
  7590  04F6  3182  22C1  3184   	fcall	_I2C1_DO_SEND_RESTART
  7591  04F9  2D21               	goto	l509
  7592  04FA                     l2464:
  7593                           
  7594                           ;mcc_generated_files/i2c1_master.c: 418:             I2C1_MasterSetIrq();
  7595  04FA  3182  22A2  3184   	fcall	_I2C1_MasterSetIrq
  7596  04FD                     l2466:
  7597                           
  7598                           ;mcc_generated_files/i2c1_master.c: 419:             return I2C1_TX;
  7599  04FD  3003               	movlw	3
  7600  04FE  2D21               	goto	l509
  7601  04FF                     l2470:
  7602                           
  7603                           ;mcc_generated_files/i2c1_master.c: 422:             return I2C1_DO_SEND_STOP();
  7604  04FF  3182  22C6  3184   	fcall	_I2C1_DO_SEND_STOP
  7605  0502  2D21               	goto	l509
  7606  0503                     l2476:
  7607  0503  082C               	movf	low ((_I2C1_Status| 0+12)),w
  7608  0504  00FA               	movwf	??_I2C1_DO_TX_EMPTY
  7609  0505  087A               	movf	??_I2C1_DO_TX_EMPTY,w
  7610  0506  00F9               	movwf	I2C1_CallbackReturnReset@funPtr
  7611  0507  0821               	movf	_I2C1_Status+1,w
  7612  0508  008A               	movwf	10
  7613  0509  0820               	movf	_I2C1_Status,w
  7614  050A  000A               	callw
  7615  050B  3184               	pagesel	$
  7616  050C  00FB               	movwf	??_I2C1_DO_TX_EMPTY+1
  7617  050D  01FC               	clrf	??_I2C1_DO_TX_EMPTY+2
  7618                           
  7619                           ; Switch on 2 bytes has been partitioned into a top level switch of size 1, and 1 sub-sw
      +                          itches
  7620                           ; Switch size 1, requested type "simple"
  7621                           ; Number of cases is 1, Range of values is 0 to 0
  7622                           ; switch strategies available:
  7623                           ; Name         Instructions Cycles
  7624                           ; simple_byte            4     3 (average)
  7625                           ; direct_byte            8     6 (fixed)
  7626                           ; jumptable            260     6 (fixed)
  7627                           ;	Chosen strategy is simple_byte
  7628  050E  087C               	movf	??_I2C1_DO_TX_EMPTY+2,w
  7629  050F  3A00               	xorlw	0	; case 0
  7630  0510  1903               	skipnz
  7631  0511  2D13               	goto	l3110
  7632  0512  2CFF               	goto	l2470
  7633  0513                     l3110:
  7634                           
  7635                           ; Switch size 1, requested type "simple"
  7636                           ; Number of cases is 4, Range of values is 1 to 4
  7637                           ; switch strategies available:
  7638                           ; Name         Instructions Cycles
  7639                           ; simple_byte           13     7 (average)
  7640                           ; direct_byte           17     9 (fixed)
  7641                           ; jumptable            263     9 (fixed)
  7642                           ;	Chosen strategy is simple_byte
  7643  0513  087B               	movf	??_I2C1_DO_TX_EMPTY+1,w
  7644  0514  3A01               	xorlw	1	; case 1
  7645  0515  1903               	skipnz
  7646  0516  2CFF               	goto	l2470
  7647  0517  3A03               	xorlw	3	; case 2
  7648  0518  1903               	skipnz
  7649  0519  2CF6               	goto	l2460
  7650  051A  3A01               	xorlw	1	; case 3
  7651  051B  1903               	skipnz
  7652  051C  2CF6               	goto	l2460
  7653  051D  3A07               	xorlw	7	; case 4
  7654  051E  1903               	skipnz
  7655  051F  2CFA               	goto	l2464
  7656  0520  2CFF               	goto	l2470
  7657  0521                     l509:
  7658  0521  0008               	return
  7659  0522                     __end_of_I2C1_DO_TX_EMPTY:
  7660                           
  7661                           	psect	text41
  7662  02A2                     __ptext41:	
  7663 ;; *************** function _I2C1_MasterSetIrq *****************
  7664 ;; Defined at:
  7665 ;;		line 645 in file "mcc_generated_files/i2c1_master.c"
  7666 ;; Parameters:    Size  Location     Type
  7667 ;;		None
  7668 ;; Auto vars:     Size  Location     Type
  7669 ;;		None
  7670 ;; Return value:  Size  Location     Type
  7671 ;;                  1    wreg      void 
  7672 ;; Registers used:
  7673 ;;		None
  7674 ;; Tracked objects:
  7675 ;;		On entry : 0/0
  7676 ;;		On exit  : 0/0
  7677 ;;		Unchanged: 0/0
  7678 ;; Data sizes:     COMMON   BANK0   BANK1   BANK2   BANK3   BANK4   BANK5   BANK6   BANK7   BANK8   BANK9  BANK10  BANK1
      +1  BANK12
  7679 ;;      Params:         0       0       0       0       0       0       0       0       0       0       0       0       
      +0       0
  7680 ;;      Locals:         0       0       0       0       0       0       0       0       0       0       0       0       
      +0       0
  7681 ;;      Temps:          0       0       0       0       0       0       0       0       0       0       0       0       
      +0       0
  7682 ;;      Totals:         0       0       0       0       0       0       0       0       0       0       0       0       
      +0       0
  7683 ;;Total ram usage:        0 bytes
  7684 ;; Hardware stack levels used: 1
  7685 ;; This function calls:
  7686 ;;		Nothing
  7687 ;; This function is called by:
  7688 ;;		_I2C1_DO_TX_EMPTY
  7689 ;; This function uses a non-reentrant model
  7690 ;;
  7691                           
  7692                           
  7693                           ;psect for function _I2C1_MasterSetIrq
  7694  02A2                     _I2C1_MasterSetIrq:
  7695  02A2                     l2350:	
  7696                           ;incstack = 0
  7697                           ; Regs used in _I2C1_MasterSetIrq: []
  7698                           
  7699                           
  7700                           ;mcc_generated_files/i2c1_master.c: 647:     PIR3bits.SSP1IF = 1;
  7701  02A2  002E               	movlb	14	; select bank14
  7702  02A3  140F               	bsf	15,0	;volatile
  7703  02A4                     l629:
  7704  02A4  0008               	return
  7705  02A5                     __end_of_I2C1_MasterSetIrq:
  7706                           
  7707                           	psect	text42
  7708  02E4                     __ptext42:	
  7709 ;; *************** function _I2C1_MasterIsNack *****************
  7710 ;; Defined at:
  7711 ;;		line 598 in file "mcc_generated_files/i2c1_master.c"
  7712 ;; Parameters:    Size  Location     Type
  7713 ;;		None
  7714 ;; Auto vars:     Size  Location     Type
  7715 ;;		None
  7716 ;; Return value:  Size  Location     Type
  7717 ;;                  1    wreg      _Bool 
  7718 ;; Registers used:
  7719 ;;		wreg, status,2, status,0
  7720 ;; Tracked objects:
  7721 ;;		On entry : 0/0
  7722 ;;		On exit  : 0/0
  7723 ;;		Unchanged: 0/0
  7724 ;; Data sizes:     COMMON   BANK0   BANK1   BANK2   BANK3   BANK4   BANK5   BANK6   BANK7   BANK8   BANK9  BANK10  BANK1
      +1  BANK12
  7725 ;;      Params:         0       0       0       0       0       0       0       0       0       0       0       0       
      +0       0
  7726 ;;      Locals:         0       0       0       0       0       0       0       0       0       0       0       0       
      +0       0
  7727 ;;      Temps:          0       0       0       0       0       0       0       0       0       0       0       0       
      +0       0
  7728 ;;      Totals:         0       0       0       0       0       0       0       0       0       0       0       0       
      +0       0
  7729 ;;Total ram usage:        0 bytes
  7730 ;; Hardware stack levels used: 1
  7731 ;; This function calls:
  7732 ;;		Nothing
  7733 ;; This function is called by:
  7734 ;;		_I2C1_MasterFsm
  7735 ;;		_I2C1_DO_TX
  7736 ;; This function uses a non-reentrant model
  7737 ;;
  7738                           
  7739                           
  7740                           ;psect for function _I2C1_MasterIsNack
  7741  02E4                     _I2C1_MasterIsNack:
  7742  02E4                     l2300:	
  7743                           ;incstack = 0
  7744                           ; Regs used in _I2C1_MasterIsNack: [wreg+status,2+status,0]
  7745                           
  7746                           
  7747                           ;mcc_generated_files/i2c1_master.c: 600:     return SSP1CON2bits.ACKSTAT;
  7748  02E4  0023               	movlb	3	; select bank3
  7749  02E5  0E11               	swapf	17,w	;volatile
  7750  02E6  0C89               	rrf	9,f
  7751  02E7  0C89               	rrf	9,f
  7752  02E8  3901               	andlw	1
  7753  02E9                     l602:
  7754  02E9  0008               	return
  7755  02EA                     __end_of_I2C1_MasterIsNack:
  7756                           
  7757                           	psect	text43
  7758  02AD                     __ptext43:	
  7759 ;; *************** function _I2C1_MasterSendTxData *****************
  7760 ;; Defined at:
  7761 ;;		line 568 in file "mcc_generated_files/i2c1_master.c"
  7762 ;; Parameters:    Size  Location     Type
  7763 ;;  data            1    wreg     unsigned char 
  7764 ;; Auto vars:     Size  Location     Type
  7765 ;;  data            1    0[COMMON] unsigned char 
  7766 ;; Return value:  Size  Location     Type
  7767 ;;                  1    wreg      void 
  7768 ;; Registers used:
  7769 ;;		wreg
  7770 ;; Tracked objects:
  7771 ;;		On entry : 0/0
  7772 ;;		On exit  : 0/0
  7773 ;;		Unchanged: 0/0
  7774 ;; Data sizes:     COMMON   BANK0   BANK1   BANK2   BANK3   BANK4   BANK5   BANK6   BANK7   BANK8   BANK9  BANK10  BANK1
      +1  BANK12
  7775 ;;      Params:         0       0       0       0       0       0       0       0       0       0       0       0       
      +0       0
  7776 ;;      Locals:         1       0       0       0       0       0       0       0       0       0       0       0       
      +0       0
  7777 ;;      Temps:          0       0       0       0       0       0       0       0       0       0       0       0       
      +0       0
  7778 ;;      Totals:         1       0       0       0       0       0       0       0       0       0       0       0       
      +0       0
  7779 ;;Total ram usage:        1 bytes
  7780 ;; Hardware stack levels used: 1
  7781 ;; This function calls:
  7782 ;;		Nothing
  7783 ;; This function is called by:
  7784 ;;		_I2C1_DO_SEND_ADR_READ
  7785 ;;		_I2C1_DO_SEND_ADR_WRITE
  7786 ;;		_I2C1_DO_TX
  7787 ;; This function uses a non-reentrant model
  7788 ;;
  7789                           
  7790                           
  7791                           ;psect for function _I2C1_MasterSendTxData
  7792  02AD                     _I2C1_MasterSendTxData:
  7793                           
  7794                           ;incstack = 0
  7795                           ; Regs used in _I2C1_MasterSendTxData: [wreg]
  7796                           ;I2C1_MasterSendTxData@data stored from wreg
  7797  02AD  00F0               	movwf	I2C1_MasterSendTxData@data
  7798  02AE                     l2304:
  7799                           
  7800                           ;mcc_generated_files/i2c1_master.c: 568: static __attribute__((inline)) void I2C1_Master
      +                          SendTxData(uint8_t data);mcc_generated_files/i2c1_master.c: 569: {;mcc_generated_files/i
      +                          2c1_master.c: 570:     SSP1BUF = data;
  7801  02AE  0870               	movf	I2C1_MasterSendTxData@data,w
  7802  02AF  0023               	movlb	3	; select bank3
  7803  02B0  008C               	movwf	12	;volatile
  7804  02B1                     l584:
  7805  02B1  0008               	return
  7806  02B2                     __end_of_I2C1_MasterSendTxData:
  7807                           
  7808                           	psect	text44
  7809  02A9                     __ptext44:	
  7810 ;; *************** function _I2C1_MasterSendAck *****************
  7811 ;; Defined at:
  7812 ;;		line 603 in file "mcc_generated_files/i2c1_master.c"
  7813 ;; Parameters:    Size  Location     Type
  7814 ;;		None
  7815 ;; Auto vars:     Size  Location     Type
  7816 ;;		None
  7817 ;; Return value:  Size  Location     Type
  7818 ;;                  1    wreg      void 
  7819 ;; Registers used:
  7820 ;;		None
  7821 ;; Tracked objects:
  7822 ;;		On entry : 0/0
  7823 ;;		On exit  : 0/0
  7824 ;;		Unchanged: 0/0
  7825 ;; Data sizes:     COMMON   BANK0   BANK1   BANK2   BANK3   BANK4   BANK5   BANK6   BANK7   BANK8   BANK9  BANK10  BANK1
      +1  BANK12
  7826 ;;      Params:         0       0       0       0       0       0       0       0       0       0       0       0       
      +0       0
  7827 ;;      Locals:         0       0       0       0       0       0       0       0       0       0       0       0       
      +0       0
  7828 ;;      Temps:          0       0       0       0       0       0       0       0       0       0       0       0       
      +0       0
  7829 ;;      Totals:         0       0       0       0       0       0       0       0       0       0       0       0       
      +0       0
  7830 ;;Total ram usage:        0 bytes
  7831 ;; Hardware stack levels used: 1
  7832 ;; This function calls:
  7833 ;;		Nothing
  7834 ;; This function is called by:
  7835 ;;		_I2C1_DO_RX
  7836 ;;		_I2C1_DO_RX_ACK
  7837 ;; This function uses a non-reentrant model
  7838 ;;
  7839                           
  7840                           
  7841                           ;psect for function _I2C1_MasterSendAck
  7842  02A9                     _I2C1_MasterSendAck:
  7843  02A9                     l2328:	
  7844                           ;incstack = 0
  7845                           ; Regs used in _I2C1_MasterSendAck: []
  7846                           
  7847                           
  7848                           ;mcc_generated_files/i2c1_master.c: 605:     SSP1CON2bits.ACKDT = 0;
  7849  02A9  0023               	movlb	3	; select bank3
  7850  02AA  1291               	bcf	17,5	;volatile
  7851                           
  7852                           ;mcc_generated_files/i2c1_master.c: 606:     SSP1CON2bits.ACKEN = 1;
  7853  02AB  1611               	bsf	17,4	;volatile
  7854  02AC                     l605:
  7855  02AC  0008               	return
  7856  02AD                     __end_of_I2C1_MasterSendAck:
  7857                           
  7858                           	psect	text45
  7859  029F                     __ptext45:	
  7860 ;; *************** function _I2C1_MasterGetRxData *****************
  7861 ;; Defined at:
  7862 ;;		line 563 in file "mcc_generated_files/i2c1_master.c"
  7863 ;; Parameters:    Size  Location     Type
  7864 ;;		None
  7865 ;; Auto vars:     Size  Location     Type
  7866 ;;		None
  7867 ;; Return value:  Size  Location     Type
  7868 ;;                  1    wreg      unsigned char 
  7869 ;; Registers used:
  7870 ;;		wreg
  7871 ;; Tracked objects:
  7872 ;;		On entry : 0/0
  7873 ;;		On exit  : 0/0
  7874 ;;		Unchanged: 0/0
  7875 ;; Data sizes:     COMMON   BANK0   BANK1   BANK2   BANK3   BANK4   BANK5   BANK6   BANK7   BANK8   BANK9  BANK10  BANK1
      +1  BANK12
  7876 ;;      Params:         0       0       0       0       0       0       0       0       0       0       0       0       
      +0       0
  7877 ;;      Locals:         0       0       0       0       0       0       0       0       0       0       0       0       
      +0       0
  7878 ;;      Temps:          0       0       0       0       0       0       0       0       0       0       0       0       
      +0       0
  7879 ;;      Totals:         0       0       0       0       0       0       0       0       0       0       0       0       
      +0       0
  7880 ;;Total ram usage:        0 bytes
  7881 ;; Hardware stack levels used: 1
  7882 ;; This function calls:
  7883 ;;		Nothing
  7884 ;; This function is called by:
  7885 ;;		_I2C1_DO_RX
  7886 ;; This function uses a non-reentrant model
  7887 ;;
  7888                           
  7889                           
  7890                           ;psect for function _I2C1_MasterGetRxData
  7891  029F                     _I2C1_MasterGetRxData:
  7892  029F                     l2324:	
  7893                           ;incstack = 0
  7894                           ; Regs used in _I2C1_MasterGetRxData: [wreg]
  7895                           
  7896                           
  7897                           ;mcc_generated_files/i2c1_master.c: 565:     return SSP1BUF;
  7898  029F  0023               	movlb	3	; select bank3
  7899  02A0  080C               	movf	12,w	;volatile
  7900  02A1                     l581:
  7901  02A1  0008               	return
  7902  02A2                     __end_of_I2C1_MasterGetRxData:
  7903                           
  7904                           	psect	text46
  7905  02A5                     __ptext46:	
  7906 ;; *************** function _I2C1_MasterSendNack *****************
  7907 ;; Defined at:
  7908 ;;		line 609 in file "mcc_generated_files/i2c1_master.c"
  7909 ;; Parameters:    Size  Location     Type
  7910 ;;		None
  7911 ;; Auto vars:     Size  Location     Type
  7912 ;;		None
  7913 ;; Return value:  Size  Location     Type
  7914 ;;                  1    wreg      void 
  7915 ;; Registers used:
  7916 ;;		None
  7917 ;; Tracked objects:
  7918 ;;		On entry : 0/0
  7919 ;;		On exit  : 0/0
  7920 ;;		Unchanged: 0/0
  7921 ;; Data sizes:     COMMON   BANK0   BANK1   BANK2   BANK3   BANK4   BANK5   BANK6   BANK7   BANK8   BANK9  BANK10  BANK1
      +1  BANK12
  7922 ;;      Params:         0       0       0       0       0       0       0       0       0       0       0       0       
      +0       0
  7923 ;;      Locals:         0       0       0       0       0       0       0       0       0       0       0       0       
      +0       0
  7924 ;;      Temps:          0       0       0       0       0       0       0       0       0       0       0       0       
      +0       0
  7925 ;;      Totals:         0       0       0       0       0       0       0       0       0       0       0       0       
      +0       0
  7926 ;;Total ram usage:        0 bytes
  7927 ;; Hardware stack levels used: 1
  7928 ;; This function calls:
  7929 ;;		Nothing
  7930 ;; This function is called by:
  7931 ;;		_I2C1_DO_RX_NACK_STOP
  7932 ;;		_I2C1_DO_RX_NACK_RESTART
  7933 ;; This function uses a non-reentrant model
  7934 ;;
  7935                           
  7936                           
  7937                           ;psect for function _I2C1_MasterSendNack
  7938  02A5                     _I2C1_MasterSendNack:
  7939  02A5                     l2260:	
  7940                           ;incstack = 0
  7941                           ; Regs used in _I2C1_MasterSendNack: []
  7942                           
  7943                           
  7944                           ;mcc_generated_files/i2c1_master.c: 611:     SSP1CON2bits.ACKDT = 1;
  7945  02A5  0023               	movlb	3	; select bank3
  7946  02A6  1691               	bsf	17,5	;volatile
  7947                           
  7948                           ;mcc_generated_files/i2c1_master.c: 612:     SSP1CON2bits.ACKEN = 1;
  7949  02A7  1611               	bsf	17,4	;volatile
  7950  02A8                     l608:
  7951  02A8  0008               	return
  7952  02A9                     __end_of_I2C1_MasterSendNack:
  7953                           
  7954                           	psect	text47
  7955  029C                     __ptext47:	
  7956 ;; *************** function _I2C1_MasterStartRx *****************
  7957 ;; Defined at:
  7958 ;;		line 583 in file "mcc_generated_files/i2c1_master.c"
  7959 ;; Parameters:    Size  Location     Type
  7960 ;;		None
  7961 ;; Auto vars:     Size  Location     Type
  7962 ;;		None
  7963 ;; Return value:  Size  Location     Type
  7964 ;;                  1    wreg      void 
  7965 ;; Registers used:
  7966 ;;		None
  7967 ;; Tracked objects:
  7968 ;;		On entry : 0/0
  7969 ;;		On exit  : 0/0
  7970 ;;		Unchanged: 0/0
  7971 ;; Data sizes:     COMMON   BANK0   BANK1   BANK2   BANK3   BANK4   BANK5   BANK6   BANK7   BANK8   BANK9  BANK10  BANK1
      +1  BANK12
  7972 ;;      Params:         0       0       0       0       0       0       0       0       0       0       0       0       
      +0       0
  7973 ;;      Locals:         0       0       0       0       0       0       0       0       0       0       0       0       
      +0       0
  7974 ;;      Temps:          0       0       0       0       0       0       0       0       0       0       0       0       
      +0       0
  7975 ;;      Totals:         0       0       0       0       0       0       0       0       0       0       0       0       
      +0       0
  7976 ;;Total ram usage:        0 bytes
  7977 ;; Hardware stack levels used: 1
  7978 ;; This function calls:
  7979 ;;		Nothing
  7980 ;; This function is called by:
  7981 ;;		_I2C1_DO_RCEN
  7982 ;; This function uses a non-reentrant model
  7983 ;;
  7984                           
  7985                           
  7986                           ;psect for function _I2C1_MasterStartRx
  7987  029C                     _I2C1_MasterStartRx:
  7988  029C                     l2342:	
  7989                           ;incstack = 0
  7990                           ; Regs used in _I2C1_MasterStartRx: []
  7991                           
  7992                           
  7993                           ;mcc_generated_files/i2c1_master.c: 585:     SSP1CON2bits.RCEN = 1;
  7994  029C  0023               	movlb	3	; select bank3
  7995  029D  1591               	bsf	17,3	;volatile
  7996  029E                     l593:
  7997  029E  0008               	return
  7998  029F                     __end_of_I2C1_MasterStartRx:
  7999                           
  8000                           	psect	text48
  8001  0288                     __ptext48:	
  8002 ;; *************** function _I2C1_CallbackReturnReset *****************
  8003 ;; Defined at:
  8004 ;;		line 525 in file "mcc_generated_files/i2c1_master.c"
  8005 ;; Parameters:    Size  Location     Type
  8006 ;;  funPtr          1    9[COMMON] PTR void 
  8007 ;;		 -> I2C1_ReadDataBlock@bufferBlock(3), I2C1_Write2ByteRegister@data(2), I2C1_Write1ByteRegister@data(1), I2C1_Read2B
      +yteRegister@returnValue(2), 
  8008 ;;		 -> NULL(0), I2C1_Read1ByteRegister@returnValue(1), 
  8009 ;; Auto vars:     Size  Location     Type
  8010 ;;		None
  8011 ;; Return value:  Size  Location     Type
  8012 ;;                  1    wreg      enum E98
  8013 ;; Registers used:
  8014 ;;		wreg
  8015 ;; Tracked objects:
  8016 ;;		On entry : 0/0
  8017 ;;		On exit  : 0/0
  8018 ;;		Unchanged: 0/0
  8019 ;; Data sizes:     COMMON   BANK0   BANK1   BANK2   BANK3   BANK4   BANK5   BANK6   BANK7   BANK8   BANK9  BANK10  BANK1
      +1  BANK12
  8020 ;;      Params:         1       0       0       0       0       0       0       0       0       0       0       0       
      +0       0
  8021 ;;      Locals:         0       0       0       0       0       0       0       0       0       0       0       0       
      +0       0
  8022 ;;      Temps:          0       0       0       0       0       0       0       0       0       0       0       0       
      +0       0
  8023 ;;      Totals:         1       0       0       0       0       0       0       0       0       0       0       0       
      +0       0
  8024 ;;Total ram usage:        1 bytes
  8025 ;; Hardware stack levels used: 1
  8026 ;; This function calls:
  8027 ;;		Nothing
  8028 ;; This function is called by:
  8029 ;;		_I2C1_Open
  8030 ;;		_I2C1_DO_TX
  8031 ;;		_I2C1_DO_RX
  8032 ;;		_I2C1_DO_TX_EMPTY
  8033 ;;		_I2C1_DO_ADDRESS_NACK
  8034 ;;		_I2C1_DO_RX_EMPTY
  8035 ;; This function uses a non-reentrant model
  8036 ;;
  8037                           
  8038                           
  8039                           ;psect for function _I2C1_CallbackReturnReset
  8040  0288                     _I2C1_CallbackReturnReset:
  8041  0288                     l2356:	
  8042                           ;incstack = 0
  8043                           ; Regs used in _I2C1_CallbackReturnReset: [wreg]
  8044                           
  8045                           
  8046                           ;mcc_generated_files/i2c1_master.c: 525: i2c1_operations_t I2C1_CallbackReturnReset(void
      +                           *funPtr);mcc_generated_files/i2c1_master.c: 526: {;mcc_generated_files/i2c1_master.c: 5
      +                          27:     return I2C1_RESET_LINK;
  8047  0288  3005               	movlw	5
  8048  0289                     l565:
  8049  0289  0008               	return
  8050  028A                     __end_of_I2C1_CallbackReturnReset:
  8051                           
  8052                           	psect	text49
  8053  0286                     __ptext49:	
  8054 ;; *************** function _I2C1_CallbackReturnStop *****************
  8055 ;; Defined at:
  8056 ;;		line 520 in file "mcc_generated_files/i2c1_master.c"
  8057 ;; Parameters:    Size  Location     Type
  8058 ;;  funPtr          1    9[COMMON] PTR void 
  8059 ;;		 -> I2C1_ReadDataBlock@bufferBlock(3), I2C1_Write2ByteRegister@data(2), I2C1_Write1ByteRegister@data(1), I2C1_Read2B
      +yteRegister@returnValue(2), 
  8060 ;;		 -> NULL(0), I2C1_Read1ByteRegister@returnValue(1), 
  8061 ;; Auto vars:     Size  Location     Type
  8062 ;;		None
  8063 ;; Return value:  Size  Location     Type
  8064 ;;                  1    wreg      enum E98
  8065 ;; Registers used:
  8066 ;;		wreg
  8067 ;; Tracked objects:
  8068 ;;		On entry : 0/0
  8069 ;;		On exit  : 0/0
  8070 ;;		Unchanged: 0/0
  8071 ;; Data sizes:     COMMON   BANK0   BANK1   BANK2   BANK3   BANK4   BANK5   BANK6   BANK7   BANK8   BANK9  BANK10  BANK1
      +1  BANK12
  8072 ;;      Params:         1       0       0       0       0       0       0       0       0       0       0       0       
      +0       0
  8073 ;;      Locals:         0       0       0       0       0       0       0       0       0       0       0       0       
      +0       0
  8074 ;;      Temps:          0       0       0       0       0       0       0       0       0       0       0       0       
      +0       0
  8075 ;;      Totals:         1       0       0       0       0       0       0       0       0       0       0       0       
      +0       0
  8076 ;;Total ram usage:        1 bytes
  8077 ;; Hardware stack levels used: 1
  8078 ;; This function calls:
  8079 ;;		Nothing
  8080 ;; This function is called by:
  8081 ;;		_I2C1_Open
  8082 ;;		_I2C1_SetCallback
  8083 ;;		_I2C1_DO_TX
  8084 ;;		_I2C1_DO_RX
  8085 ;;		_I2C1_DO_TX_EMPTY
  8086 ;;		_I2C1_DO_ADDRESS_NACK
  8087 ;;		_I2C1_DO_RX_EMPTY
  8088 ;; This function uses a non-reentrant model
  8089 ;;
  8090                           
  8091                           
  8092                           ;psect for function _I2C1_CallbackReturnStop
  8093  0286                     _I2C1_CallbackReturnStop:
  8094  0286                     l2352:	
  8095                           ;incstack = 0
  8096                           ; Regs used in _I2C1_CallbackReturnStop: [wreg]
  8097                           
  8098                           
  8099                           ;mcc_generated_files/i2c1_master.c: 520: i2c1_operations_t I2C1_CallbackReturnStop(void 
      +                          *funPtr);mcc_generated_files/i2c1_master.c: 521: {;mcc_generated_files/i2c1_master.c: 52
      +                          2:     return I2C1_STOP;
  8100  0286  3001               	movlw	1
  8101  0287                     l562:
  8102  0287  0008               	return
  8103  0288                     __end_of_I2C1_CallbackReturnStop:
  8104                           
  8105                           	psect	text50
  8106  03E2                     __ptext50:	
  8107 ;; *************** function _rdBlkRegCompleteHandler *****************
  8108 ;; Defined at:
  8109 ;;		line 170 in file "mcc_generated_files/examples/i2c1_master_example.c"
  8110 ;; Parameters:    Size  Location     Type
  8111 ;;  ptr             1    9[COMMON] PTR void 
  8112 ;;		 -> I2C1_ReadDataBlock@bufferBlock(3), I2C1_Write2ByteRegister@data(2), I2C1_Write1ByteRegister@data(1), I2C1_Read2B
      +yteRegister@returnValue(2), 
  8113 ;;		 -> NULL(0), I2C1_Read1ByteRegister@returnValue(1), 
  8114 ;; Auto vars:     Size  Location     Type
  8115 ;;		None
  8116 ;; Return value:  Size  Location     Type
  8117 ;;                  1    wreg      enum E98
  8118 ;; Registers used:
  8119 ;;		wreg, fsr1l, fsr1h, status,2, status,0, pclath, cstack
  8120 ;; Tracked objects:
  8121 ;;		On entry : 0/0
  8122 ;;		On exit  : 0/0
  8123 ;;		Unchanged: 0/0
  8124 ;; Data sizes:     COMMON   BANK0   BANK1   BANK2   BANK3   BANK4   BANK5   BANK6   BANK7   BANK8   BANK9  BANK10  BANK1
      +1  BANK12
  8125 ;;      Params:         1       0       0       0       0       0       0       0       0       0       0       0       
      +0       0
  8126 ;;      Locals:         0       0       0       0       0       0       0       0       0       0       0       0       
      +0       0
  8127 ;;      Temps:          0       0       0       0       0       0       0       0       0       0       0       0       
      +0       0
  8128 ;;      Totals:         1       0       0       0       0       0       0       0       0       0       0       0       
      +0       0
  8129 ;;Total ram usage:        1 bytes
  8130 ;; Hardware stack levels used: 1
  8131 ;; Hardware stack levels required when called: 2
  8132 ;; This function calls:
  8133 ;;		_I2C1_SetBuffer
  8134 ;;		_I2C1_SetDataCompleteCallback
  8135 ;; This function is called by:
  8136 ;;		_I2C1_ReadDataBlock
  8137 ;;		_I2C1_DO_TX
  8138 ;;		_I2C1_DO_RX
  8139 ;;		_I2C1_DO_TX_EMPTY
  8140 ;;		_I2C1_DO_ADDRESS_NACK
  8141 ;;		_I2C1_DO_RX_EMPTY
  8142 ;; This function uses a non-reentrant model
  8143 ;;
  8144                           
  8145                           
  8146                           ;psect for function _rdBlkRegCompleteHandler
  8147  03E2                     _rdBlkRegCompleteHandler:
  8148  03E2                     l2294:	
  8149                           ;incstack = 0
  8150                           ; Regs used in _rdBlkRegCompleteHandler: [wreg+fsr1l+fsr1h+status,2+status,0+pclath+csta
      +                          ck]
  8151                           
  8152                           
  8153                           ;mcc_generated_files/examples/i2c1_master_example.c: 170: static i2c1_operations_t rdBlk
      +                          RegCompleteHandler(void *ptr);mcc_generated_files/examples/i2c1_master_example.c: 171: {
      +                          ;mcc_generated_files/examples/i2c1_master_example.c: 172:     I2C1_SetBuffer(((i2c1_buff
      +                          er_t *)ptr)->data,((i2c1_buffer_t*)ptr)->len);
  8154  03E2  0879               	movf	rdBlkRegCompleteHandler@ptr,w
  8155  03E3  0086               	movwf	6
  8156  03E4  0187               	clrf	7
  8157  03E5  3F40               	moviw [0]fsr1
  8158  03E6  00F0               	movwf	I2C1_SetBuffer@bufferSize
  8159  03E7  3F41               	moviw [1]fsr1
  8160  03E8  00F1               	movwf	I2C1_SetBuffer@bufferSize+1
  8161  03E9  0879               	movf	rdBlkRegCompleteHandler@ptr,w
  8162  03EA  3E02               	addlw	2
  8163  03EB  0086               	movwf	6
  8164  03EC  0187               	clrf	7
  8165  03ED  0801               	movf	1,w
  8166  03EE  3183  237E  3183   	fcall	_I2C1_SetBuffer
  8167                           
  8168                           ;mcc_generated_files/examples/i2c1_master_example.c: 173:     I2C1_SetDataCompleteCallba
      +                          ck((0),(0));
  8169  03F1  3000               	movlw	0
  8170  03F2  00F5               	movwf	I2C1_SetDataCompleteCallback@cb
  8171  03F3  00F6               	movwf	I2C1_SetDataCompleteCallback@cb+1
  8172  03F4  01F7               	clrf	I2C1_SetDataCompleteCallback@ptr
  8173  03F5  3183  234A  3183   	fcall	_I2C1_SetDataCompleteCallback
  8174  03F8                     l2296:
  8175                           
  8176                           ;mcc_generated_files/examples/i2c1_master_example.c: 174:     return I2C1_RESTART_READ;
  8177  03F8  3002               	movlw	2
  8178  03F9                     l102:
  8179  03F9  0008               	return
  8180  03FA                     __end_of_rdBlkRegCompleteHandler:
  8181                           
  8182                           	psect	text51
  8183  03D1                     __ptext51:	
  8184 ;; *************** function _wr1RegCompleteHandler *****************
  8185 ;; Defined at:
  8186 ;;		line 156 in file "mcc_generated_files/examples/i2c1_master_example.c"
  8187 ;; Parameters:    Size  Location     Type
  8188 ;;  ptr             1    9[COMMON] PTR void 
  8189 ;;		 -> I2C1_ReadDataBlock@bufferBlock(3), I2C1_Write2ByteRegister@data(2), I2C1_Write1ByteRegister@data(1), I2C1_Read2B
      +yteRegister@returnValue(2), 
  8190 ;;		 -> NULL(0), I2C1_Read1ByteRegister@returnValue(1), 
  8191 ;; Auto vars:     Size  Location     Type
  8192 ;;		None
  8193 ;; Return value:  Size  Location     Type
  8194 ;;                  1    wreg      enum E98
  8195 ;; Registers used:
  8196 ;;		wreg, fsr1l, fsr1h, status,2, status,0, pclath, cstack
  8197 ;; Tracked objects:
  8198 ;;		On entry : 0/0
  8199 ;;		On exit  : 0/0
  8200 ;;		Unchanged: 0/0
  8201 ;; Data sizes:     COMMON   BANK0   BANK1   BANK2   BANK3   BANK4   BANK5   BANK6   BANK7   BANK8   BANK9  BANK10  BANK1
      +1  BANK12
  8202 ;;      Params:         1       0       0       0       0       0       0       0       0       0       0       0       
      +0       0
  8203 ;;      Locals:         0       0       0       0       0       0       0       0       0       0       0       0       
      +0       0
  8204 ;;      Temps:          0       0       0       0       0       0       0       0       0       0       0       0       
      +0       0
  8205 ;;      Totals:         1       0       0       0       0       0       0       0       0       0       0       0       
      +0       0
  8206 ;;Total ram usage:        1 bytes
  8207 ;; Hardware stack levels used: 1
  8208 ;; Hardware stack levels required when called: 2
  8209 ;; This function calls:
  8210 ;;		_I2C1_SetBuffer
  8211 ;;		_I2C1_SetDataCompleteCallback
  8212 ;; This function is called by:
  8213 ;;		_I2C1_Write1ByteRegister
  8214 ;;		_I2C1_DO_TX
  8215 ;;		_I2C1_DO_RX
  8216 ;;		_I2C1_DO_TX_EMPTY
  8217 ;;		_I2C1_DO_ADDRESS_NACK
  8218 ;;		_I2C1_DO_RX_EMPTY
  8219 ;; This function uses a non-reentrant model
  8220 ;;
  8221                           
  8222                           
  8223                           ;psect for function _wr1RegCompleteHandler
  8224  03D1                     _wr1RegCompleteHandler:
  8225  03D1                     l2278:	
  8226                           ;incstack = 0
  8227                           ; Regs used in _wr1RegCompleteHandler: [wreg+fsr1l+fsr1h+status,2+status,0+pclath+cstack
      +                          ]
  8228                           
  8229                           
  8230                           ;mcc_generated_files/examples/i2c1_master_example.c: 156: static i2c1_operations_t wr1Re
      +                          gCompleteHandler(void *ptr);mcc_generated_files/examples/i2c1_master_example.c: 157: {;m
      +                          cc_generated_files/examples/i2c1_master_example.c: 158:     I2C1_SetBuffer(ptr,1);
  8231  03D1  3001               	movlw	1
  8232  03D2  00F0               	movwf	I2C1_SetBuffer@bufferSize
  8233  03D3  3000               	movlw	0
  8234  03D4  00F1               	movwf	I2C1_SetBuffer@bufferSize+1
  8235  03D5  0879               	movf	wr1RegCompleteHandler@ptr,w
  8236  03D6  3183  237E  3183   	fcall	_I2C1_SetBuffer
  8237  03D9                     l2280:
  8238                           
  8239                           ;mcc_generated_files/examples/i2c1_master_example.c: 159:     I2C1_SetDataCompleteCallba
      +                          ck((0),(0));
  8240  03D9  3000               	movlw	0
  8241  03DA  00F5               	movwf	I2C1_SetDataCompleteCallback@cb
  8242  03DB  00F6               	movwf	I2C1_SetDataCompleteCallback@cb+1
  8243  03DC  01F7               	clrf	I2C1_SetDataCompleteCallback@ptr
  8244  03DD  3183  234A  3183   	fcall	_I2C1_SetDataCompleteCallback
  8245  03E0                     l2282:
  8246                           
  8247                           ;mcc_generated_files/examples/i2c1_master_example.c: 160:     return I2C1_CONTINUE;
  8248  03E0  3004               	movlw	4
  8249  03E1                     l96:
  8250  03E1  0008               	return
  8251  03E2                     __end_of_wr1RegCompleteHandler:
  8252                           
  8253                           	psect	text52
  8254  03C0                     __ptext52:	
  8255 ;; *************** function _rd2RegCompleteHandler *****************
  8256 ;; Defined at:
  8257 ;;		line 149 in file "mcc_generated_files/examples/i2c1_master_example.c"
  8258 ;; Parameters:    Size  Location     Type
  8259 ;;  ptr             1    9[COMMON] PTR void 
  8260 ;;		 -> I2C1_ReadDataBlock@bufferBlock(3), I2C1_Write2ByteRegister@data(2), I2C1_Write1ByteRegister@data(1), I2C1_Read2B
      +yteRegister@returnValue(2), 
  8261 ;;		 -> NULL(0), I2C1_Read1ByteRegister@returnValue(1), 
  8262 ;; Auto vars:     Size  Location     Type
  8263 ;;		None
  8264 ;; Return value:  Size  Location     Type
  8265 ;;                  1    wreg      enum E98
  8266 ;; Registers used:
  8267 ;;		wreg, fsr1l, fsr1h, status,2, status,0, pclath, cstack
  8268 ;; Tracked objects:
  8269 ;;		On entry : 0/0
  8270 ;;		On exit  : 0/0
  8271 ;;		Unchanged: 0/0
  8272 ;; Data sizes:     COMMON   BANK0   BANK1   BANK2   BANK3   BANK4   BANK5   BANK6   BANK7   BANK8   BANK9  BANK10  BANK1
      +1  BANK12
  8273 ;;      Params:         1       0       0       0       0       0       0       0       0       0       0       0       
      +0       0
  8274 ;;      Locals:         0       0       0       0       0       0       0       0       0       0       0       0       
      +0       0
  8275 ;;      Temps:          0       0       0       0       0       0       0       0       0       0       0       0       
      +0       0
  8276 ;;      Totals:         1       0       0       0       0       0       0       0       0       0       0       0       
      +0       0
  8277 ;;Total ram usage:        1 bytes
  8278 ;; Hardware stack levels used: 1
  8279 ;; Hardware stack levels required when called: 2
  8280 ;; This function calls:
  8281 ;;		_I2C1_SetBuffer
  8282 ;;		_I2C1_SetDataCompleteCallback
  8283 ;; This function is called by:
  8284 ;;		_I2C1_Read2ByteRegister
  8285 ;;		_I2C1_DO_TX
  8286 ;;		_I2C1_DO_RX
  8287 ;;		_I2C1_DO_TX_EMPTY
  8288 ;;		_I2C1_DO_ADDRESS_NACK
  8289 ;;		_I2C1_DO_RX_EMPTY
  8290 ;; This function uses a non-reentrant model
  8291 ;;
  8292                           
  8293                           
  8294                           ;psect for function _rd2RegCompleteHandler
  8295  03C0                     _rd2RegCompleteHandler:
  8296  03C0                     l2270:	
  8297                           ;incstack = 0
  8298                           ; Regs used in _rd2RegCompleteHandler: [wreg+fsr1l+fsr1h+status,2+status,0+pclath+cstack
      +                          ]
  8299                           
  8300                           
  8301                           ;mcc_generated_files/examples/i2c1_master_example.c: 149: static i2c1_operations_t rd2Re
      +                          gCompleteHandler(void *ptr);mcc_generated_files/examples/i2c1_master_example.c: 150: {;m
      +                          cc_generated_files/examples/i2c1_master_example.c: 151:     I2C1_SetBuffer(ptr,2);
  8302  03C0  3002               	movlw	2
  8303  03C1  00F0               	movwf	I2C1_SetBuffer@bufferSize
  8304  03C2  3000               	movlw	0
  8305  03C3  00F1               	movwf	I2C1_SetBuffer@bufferSize+1
  8306  03C4  0879               	movf	rd2RegCompleteHandler@ptr,w
  8307  03C5  3183  237E  3183   	fcall	_I2C1_SetBuffer
  8308  03C8                     l2272:
  8309                           
  8310                           ;mcc_generated_files/examples/i2c1_master_example.c: 152:     I2C1_SetDataCompleteCallba
      +                          ck((0),(0));
  8311  03C8  3000               	movlw	0
  8312  03C9  00F5               	movwf	I2C1_SetDataCompleteCallback@cb
  8313  03CA  00F6               	movwf	I2C1_SetDataCompleteCallback@cb+1
  8314  03CB  01F7               	clrf	I2C1_SetDataCompleteCallback@ptr
  8315  03CC  3183  234A  3183   	fcall	_I2C1_SetDataCompleteCallback
  8316  03CF                     l2274:
  8317                           
  8318                           ;mcc_generated_files/examples/i2c1_master_example.c: 153:     return I2C1_RESTART_READ;
  8319  03CF  3002               	movlw	2
  8320  03D0                     l93:
  8321  03D0  0008               	return
  8322  03D1                     __end_of_rd2RegCompleteHandler:
  8323                           
  8324                           	psect	text53
  8325  03AF                     __ptext53:	
  8326 ;; *************** function _rd1RegCompleteHandler *****************
  8327 ;; Defined at:
  8328 ;;		line 142 in file "mcc_generated_files/examples/i2c1_master_example.c"
  8329 ;; Parameters:    Size  Location     Type
  8330 ;;  ptr             1    9[COMMON] PTR void 
  8331 ;;		 -> I2C1_ReadDataBlock@bufferBlock(3), I2C1_Write2ByteRegister@data(2), I2C1_Write1ByteRegister@data(1), I2C1_Read2B
      +yteRegister@returnValue(2), 
  8332 ;;		 -> NULL(0), I2C1_Read1ByteRegister@returnValue(1), 
  8333 ;; Auto vars:     Size  Location     Type
  8334 ;;		None
  8335 ;; Return value:  Size  Location     Type
  8336 ;;                  1    wreg      enum E98
  8337 ;; Registers used:
  8338 ;;		wreg, fsr1l, fsr1h, status,2, status,0, pclath, cstack
  8339 ;; Tracked objects:
  8340 ;;		On entry : 0/0
  8341 ;;		On exit  : 0/0
  8342 ;;		Unchanged: 0/0
  8343 ;; Data sizes:     COMMON   BANK0   BANK1   BANK2   BANK3   BANK4   BANK5   BANK6   BANK7   BANK8   BANK9  BANK10  BANK1
      +1  BANK12
  8344 ;;      Params:         1       0       0       0       0       0       0       0       0       0       0       0       
      +0       0
  8345 ;;      Locals:         0       0       0       0       0       0       0       0       0       0       0       0       
      +0       0
  8346 ;;      Temps:          0       0       0       0       0       0       0       0       0       0       0       0       
      +0       0
  8347 ;;      Totals:         1       0       0       0       0       0       0       0       0       0       0       0       
      +0       0
  8348 ;;Total ram usage:        1 bytes
  8349 ;; Hardware stack levels used: 1
  8350 ;; Hardware stack levels required when called: 2
  8351 ;; This function calls:
  8352 ;;		_I2C1_SetBuffer
  8353 ;;		_I2C1_SetDataCompleteCallback
  8354 ;; This function is called by:
  8355 ;;		_I2C1_Read1ByteRegister
  8356 ;;		_I2C1_DO_TX
  8357 ;;		_I2C1_DO_RX
  8358 ;;		_I2C1_DO_TX_EMPTY
  8359 ;;		_I2C1_DO_ADDRESS_NACK
  8360 ;;		_I2C1_DO_RX_EMPTY
  8361 ;; This function uses a non-reentrant model
  8362 ;;
  8363                           
  8364                           
  8365                           ;psect for function _rd1RegCompleteHandler
  8366  03AF                     _rd1RegCompleteHandler:
  8367  03AF                     l2262:	
  8368                           ;incstack = 0
  8369                           ; Regs used in _rd1RegCompleteHandler: [wreg+fsr1l+fsr1h+status,2+status,0+pclath+cstack
      +                          ]
  8370                           
  8371                           
  8372                           ;mcc_generated_files/examples/i2c1_master_example.c: 142: static i2c1_operations_t rd1Re
      +                          gCompleteHandler(void *ptr);mcc_generated_files/examples/i2c1_master_example.c: 143: {;m
      +                          cc_generated_files/examples/i2c1_master_example.c: 144:     I2C1_SetBuffer(ptr,1);
  8373  03AF  3001               	movlw	1
  8374  03B0  00F0               	movwf	I2C1_SetBuffer@bufferSize
  8375  03B1  3000               	movlw	0
  8376  03B2  00F1               	movwf	I2C1_SetBuffer@bufferSize+1
  8377  03B3  0879               	movf	rd1RegCompleteHandler@ptr,w
  8378  03B4  3183  237E  3183   	fcall	_I2C1_SetBuffer
  8379  03B7                     l2264:
  8380                           
  8381                           ;mcc_generated_files/examples/i2c1_master_example.c: 145:     I2C1_SetDataCompleteCallba
      +                          ck((0),(0));
  8382  03B7  3000               	movlw	0
  8383  03B8  00F5               	movwf	I2C1_SetDataCompleteCallback@cb
  8384  03B9  00F6               	movwf	I2C1_SetDataCompleteCallback@cb+1
  8385  03BA  01F7               	clrf	I2C1_SetDataCompleteCallback@ptr
  8386  03BB  3183  234A  3183   	fcall	_I2C1_SetDataCompleteCallback
  8387  03BE                     l2266:
  8388                           
  8389                           ;mcc_generated_files/examples/i2c1_master_example.c: 146:     return I2C1_RESTART_READ;
  8390  03BE  3002               	movlw	2
  8391  03BF                     l90:
  8392  03BF  0008               	return
  8393  03C0                     __end_of_rd1RegCompleteHandler:
  8394                           
  8395                           	psect	text54
  8396  039E                     __ptext54:	
  8397 ;; *************** function _wr2RegCompleteHandler *****************
  8398 ;; Defined at:
  8399 ;;		line 163 in file "mcc_generated_files/examples/i2c1_master_example.c"
  8400 ;; Parameters:    Size  Location     Type
  8401 ;;  ptr             1    9[COMMON] PTR void 
  8402 ;;		 -> I2C1_ReadDataBlock@bufferBlock(3), I2C1_Write2ByteRegister@data(2), I2C1_Write1ByteRegister@data(1), I2C1_Read2B
      +yteRegister@returnValue(2), 
  8403 ;;		 -> NULL(0), I2C1_Read1ByteRegister@returnValue(1), 
  8404 ;; Auto vars:     Size  Location     Type
  8405 ;;		None
  8406 ;; Return value:  Size  Location     Type
  8407 ;;                  1    wreg      enum E98
  8408 ;; Registers used:
  8409 ;;		wreg, fsr1l, fsr1h, status,2, status,0, pclath, cstack
  8410 ;; Tracked objects:
  8411 ;;		On entry : 0/0
  8412 ;;		On exit  : 0/0
  8413 ;;		Unchanged: 0/0
  8414 ;; Data sizes:     COMMON   BANK0   BANK1   BANK2   BANK3   BANK4   BANK5   BANK6   BANK7   BANK8   BANK9  BANK10  BANK1
      +1  BANK12
  8415 ;;      Params:         1       0       0       0       0       0       0       0       0       0       0       0       
      +0       0
  8416 ;;      Locals:         0       0       0       0       0       0       0       0       0       0       0       0       
      +0       0
  8417 ;;      Temps:          0       0       0       0       0       0       0       0       0       0       0       0       
      +0       0
  8418 ;;      Totals:         1       0       0       0       0       0       0       0       0       0       0       0       
      +0       0
  8419 ;;Total ram usage:        1 bytes
  8420 ;; Hardware stack levels used: 1
  8421 ;; Hardware stack levels required when called: 2
  8422 ;; This function calls:
  8423 ;;		_I2C1_SetBuffer
  8424 ;;		_I2C1_SetDataCompleteCallback
  8425 ;; This function is called by:
  8426 ;;		_I2C1_Write2ByteRegister
  8427 ;;		_I2C1_DO_TX
  8428 ;;		_I2C1_DO_RX
  8429 ;;		_I2C1_DO_TX_EMPTY
  8430 ;;		_I2C1_DO_ADDRESS_NACK
  8431 ;;		_I2C1_DO_RX_EMPTY
  8432 ;; This function uses a non-reentrant model
  8433 ;;
  8434                           
  8435                           
  8436                           ;psect for function _wr2RegCompleteHandler
  8437  039E                     _wr2RegCompleteHandler:
  8438  039E                     l2286:	
  8439                           ;incstack = 0
  8440                           ; Regs used in _wr2RegCompleteHandler: [wreg+fsr1l+fsr1h+status,2+status,0+pclath+cstack
      +                          ]
  8441                           
  8442                           
  8443                           ;mcc_generated_files/examples/i2c1_master_example.c: 163: static i2c1_operations_t wr2Re
      +                          gCompleteHandler(void *ptr);mcc_generated_files/examples/i2c1_master_example.c: 164: {;m
      +                          cc_generated_files/examples/i2c1_master_example.c: 165:     I2C1_SetBuffer(ptr,2);
  8444  039E  3002               	movlw	2
  8445  039F  00F0               	movwf	I2C1_SetBuffer@bufferSize
  8446  03A0  3000               	movlw	0
  8447  03A1  00F1               	movwf	I2C1_SetBuffer@bufferSize+1
  8448  03A2  0879               	movf	wr2RegCompleteHandler@ptr,w
  8449  03A3  3183  237E  3183   	fcall	_I2C1_SetBuffer
  8450  03A6                     l2288:
  8451                           
  8452                           ;mcc_generated_files/examples/i2c1_master_example.c: 166:     I2C1_SetDataCompleteCallba
      +                          ck((0),(0));
  8453  03A6  3000               	movlw	0
  8454  03A7  00F5               	movwf	I2C1_SetDataCompleteCallback@cb
  8455  03A8  00F6               	movwf	I2C1_SetDataCompleteCallback@cb+1
  8456  03A9  01F7               	clrf	I2C1_SetDataCompleteCallback@ptr
  8457  03AA  3183  234A  3183   	fcall	_I2C1_SetDataCompleteCallback
  8458  03AD                     l2290:
  8459                           
  8460                           ;mcc_generated_files/examples/i2c1_master_example.c: 167:     return I2C1_CONTINUE;
  8461  03AD  3004               	movlw	4
  8462  03AE                     l99:
  8463  03AE  0008               	return
  8464  03AF                     __end_of_wr2RegCompleteHandler:
  8465                           
  8466                           	psect	text55
  8467  034A                     __ptext55:	
  8468 ;; *************** function _I2C1_SetDataCompleteCallback *****************
  8469 ;; Defined at:
  8470 ;;		line 273 in file "mcc_generated_files/i2c1_master.c"
  8471 ;; Parameters:    Size  Location     Type
  8472 ;;  cb              2    5[COMMON] PTR FTN(PTR void ,)enum 
  8473 ;;		 -> rdBlkRegCompleteHandler(1), wr2RegCompleteHandler(1), wr1RegCompleteHandler(1), rd2RegCompleteHandler(1), 
  8474 ;;		 -> Absolute function(1), rd1RegCompleteHandler(1), 
  8475 ;;  ptr             1    7[COMMON] PTR void 
  8476 ;;		 -> I2C1_ReadDataBlock@bufferBlock(3), I2C1_Write2ByteRegister@data(2), I2C1_Write1ByteRegister@data(1), I2C1_Read2B
      +yteRegister@returnValue(2), 
  8477 ;;		 -> NULL(0), I2C1_Read1ByteRegister@returnValue(1), 
  8478 ;; Auto vars:     Size  Location     Type
  8479 ;;		None
  8480 ;; Return value:  Size  Location     Type
  8481 ;;                  1    wreg      void 
  8482 ;; Registers used:
  8483 ;;		wreg, fsr1l, fsr1h, status,2, status,0, pclath, cstack
  8484 ;; Tracked objects:
  8485 ;;		On entry : 0/0
  8486 ;;		On exit  : 0/0
  8487 ;;		Unchanged: 0/0
  8488 ;; Data sizes:     COMMON   BANK0   BANK1   BANK2   BANK3   BANK4   BANK5   BANK6   BANK7   BANK8   BANK9  BANK10  BANK1
      +1  BANK12
  8489 ;;      Params:         3       0       0       0       0       0       0       0       0       0       0       0       
      +0       0
  8490 ;;      Locals:         0       0       0       0       0       0       0       0       0       0       0       0       
      +0       0
  8491 ;;      Temps:          1       0       0       0       0       0       0       0       0       0       0       0       
      +0       0
  8492 ;;      Totals:         4       0       0       0       0       0       0       0       0       0       0       0       
      +0       0
  8493 ;;Total ram usage:        4 bytes
  8494 ;; Hardware stack levels used: 1
  8495 ;; Hardware stack levels required when called: 1
  8496 ;; This function calls:
  8497 ;;		_I2C1_SetCallback
  8498 ;; This function is called by:
  8499 ;;		_I2C1_Read1ByteRegister
  8500 ;;		_rd1RegCompleteHandler
  8501 ;;		_rd2RegCompleteHandler
  8502 ;;		_wr1RegCompleteHandler
  8503 ;;		_wr2RegCompleteHandler
  8504 ;;		_rdBlkRegCompleteHandler
  8505 ;;		_I2C1_Read2ByteRegister
  8506 ;;		_I2C1_Write1ByteRegister
  8507 ;;		_I2C1_Write2ByteRegister
  8508 ;;		_I2C1_ReadDataBlock
  8509 ;; This function uses a non-reentrant model
  8510 ;;
  8511                           
  8512                           
  8513                           ;psect for function _I2C1_SetDataCompleteCallback
  8514  034A                     _I2C1_SetDataCompleteCallback:
  8515  034A                     l2248:	
  8516                           ;incstack = 0
  8517                           ; Regs used in _I2C1_SetDataCompleteCallback: [wreg+fsr1l+fsr1h+status,2+status,0+pclath
      +                          +cstack]
  8518                           
  8519                           
  8520                           ;mcc_generated_files/i2c1_master.c: 273: void I2C1_SetDataCompleteCallback(i2c1_callback
      +                          _t cb, void *ptr);mcc_generated_files/i2c1_master.c: 274: {;mcc_generated_files/i2c1_mas
      +                          ter.c: 275:     I2C1_SetCallback(I2C1_DATA_COMPLETE, cb, ptr);
  8521  034A  0876               	movf	I2C1_SetDataCompleteCallback@cb+1,w
  8522  034B  00F1               	movwf	I2C1_SetCallback@cb+1
  8523  034C  0875               	movf	I2C1_SetDataCompleteCallback@cb,w
  8524  034D  00F0               	movwf	I2C1_SetCallback@cb
  8525  034E  0877               	movf	I2C1_SetDataCompleteCallback@ptr,w
  8526  034F  00F8               	movwf	??_I2C1_SetDataCompleteCallback
  8527  0350  0878               	movf	??_I2C1_SetDataCompleteCallback,w
  8528  0351  00F2               	movwf	I2C1_SetCallback@ptr
  8529  0352  3000               	movlw	0
  8530  0353  3184  2476  3183   	fcall	_I2C1_SetCallback
  8531  0356                     l436:
  8532  0356  0008               	return
  8533  0357                     __end_of_I2C1_SetDataCompleteCallback:
  8534                           
  8535                           	psect	text56
  8536  0476                     __ptext56:	
  8537 ;; *************** function _I2C1_SetCallback *****************
  8538 ;; Defined at:
  8539 ;;		line 298 in file "mcc_generated_files/i2c1_master.c"
  8540 ;; Parameters:    Size  Location     Type
  8541 ;;  idx             1    wreg     enum E11699
  8542 ;;  cb              2    0[COMMON] PTR FTN(PTR void ,)enum 
  8543 ;;		 -> rdBlkRegCompleteHandler(1), wr2RegCompleteHandler(1), wr1RegCompleteHandler(1), rd2RegCompleteHandler(1), 
  8544 ;;		 -> Absolute function(1), rd1RegCompleteHandler(1), 
  8545 ;;  ptr             1    2[COMMON] PTR void 
  8546 ;;		 -> I2C1_ReadDataBlock@bufferBlock(3), I2C1_Write2ByteRegister@data(2), I2C1_Write1ByteRegister@data(1), I2C1_Read2B
      +yteRegister@returnValue(2), 
  8547 ;;		 -> NULL(0), I2C1_Read1ByteRegister@returnValue(1), 
  8548 ;; Auto vars:     Size  Location     Type
  8549 ;;  idx             1    4[COMMON] enum E11699
  8550 ;; Return value:  Size  Location     Type
  8551 ;;                  1    wreg      void 
  8552 ;; Registers used:
  8553 ;;		wreg, fsr1l, fsr1h, status,2, status,0
  8554 ;; Tracked objects:
  8555 ;;		On entry : 0/0
  8556 ;;		On exit  : 0/0
  8557 ;;		Unchanged: 0/0
  8558 ;; Data sizes:     COMMON   BANK0   BANK1   BANK2   BANK3   BANK4   BANK5   BANK6   BANK7   BANK8   BANK9  BANK10  BANK1
      +1  BANK12
  8559 ;;      Params:         3       0       0       0       0       0       0       0       0       0       0       0       
      +0       0
  8560 ;;      Locals:         1       0       0       0       0       0       0       0       0       0       0       0       
      +0       0
  8561 ;;      Temps:          1       0       0       0       0       0       0       0       0       0       0       0       
      +0       0
  8562 ;;      Totals:         5       0       0       0       0       0       0       0       0       0       0       0       
      +0       0
  8563 ;;Total ram usage:        5 bytes
  8564 ;; Hardware stack levels used: 1
  8565 ;; This function calls:
  8566 ;;		Nothing
  8567 ;; This function is called by:
  8568 ;;		_I2C1_SetDataCompleteCallback
  8569 ;;		_I2C1_SetAddressNackCallback
  8570 ;;		_I2C1_SetWriteCollisionCallback
  8571 ;;		_I2C1_SetDataNackCallback
  8572 ;;		_I2C1_SetTimeoutCallback
  8573 ;; This function uses a non-reentrant model
  8574 ;;
  8575                           
  8576                           
  8577                           ;psect for function _I2C1_SetCallback
  8578  0476                     _I2C1_SetCallback:
  8579                           
  8580                           ;incstack = 0
  8581                           ; Regs used in _I2C1_SetCallback: [wreg+fsr1l+fsr1h+status,2+status,0]
  8582                           ;I2C1_SetCallback@idx stored from wreg
  8583  0476  00F4               	movwf	I2C1_SetCallback@idx
  8584  0477                     l2242:
  8585                           
  8586                           ;mcc_generated_files/i2c1_master.c: 298: static void I2C1_SetCallback(i2c1_callbackIndex
      +                          _t idx, i2c1_callback_t cb, void *ptr);mcc_generated_files/i2c1_master.c: 299: {;mcc_gen
      +                          erated_files/i2c1_master.c: 300:     if(cb)
  8587  0477  0870               	movf	I2C1_SetCallback@cb,w
  8588  0478  0471               	iorwf	I2C1_SetCallback@cb+1,w
  8589  0479  1903               	btfsc	3,2
  8590  047A  2C7C               	goto	u591
  8591  047B  2C7D               	goto	u590
  8592  047C                     u591:
  8593  047C  2C8E               	goto	l2246
  8594  047D                     u590:
  8595  047D                     l2244:
  8596                           
  8597                           ;mcc_generated_files/i2c1_master.c: 301:     {;mcc_generated_files/i2c1_master.c: 302:  
      +                                 I2C1_Status.callbackTable[idx] = cb;
  8598  047D  3574               	lslf	I2C1_SetCallback@idx,w
  8599  047E  3E20               	addlw	(low (_I2C1_Status| 0))& (0+255)
  8600  047F  0086               	movwf	6
  8601  0480  0187               	clrf	7
  8602  0481  0870               	movf	I2C1_SetCallback@cb,w
  8603  0482  3FC0               	movwi [0]fsr1
  8604  0483  0871               	movf	I2C1_SetCallback@cb+1,w
  8605  0484  3FC1               	movwi [1]fsr1
  8606                           
  8607                           ;mcc_generated_files/i2c1_master.c: 303:         I2C1_Status.callbackPayload[idx] = ptr;
  8608  0485  0872               	movf	I2C1_SetCallback@ptr,w
  8609  0486  00F3               	movwf	??_I2C1_SetCallback
  8610  0487  0874               	movf	I2C1_SetCallback@idx,w
  8611  0488  3E2C               	addlw	(low ((_I2C1_Status| 0+12)))& (0+255)
  8612  0489  0086               	movwf	6
  8613  048A  0187               	clrf	7
  8614  048B  0873               	movf	??_I2C1_SetCallback,w
  8615  048C  0081               	movwf	1
  8616                           
  8617                           ;mcc_generated_files/i2c1_master.c: 304:     }
  8618  048D  2C9B               	goto	l453
  8619  048E                     l2246:
  8620                           
  8621                           ;mcc_generated_files/i2c1_master.c: 306:     {;mcc_generated_files/i2c1_master.c: 307:  
      +                                 I2C1_Status.callbackTable[idx] = I2C1_CallbackReturnStop;
  8622  048E  3574               	lslf	I2C1_SetCallback@idx,w
  8623  048F  3E20               	addlw	(low (_I2C1_Status| 0))& (0+255)
  8624  0490  0086               	movwf	6
  8625  0491  0187               	clrf	7
  8626  0492  3086               	movlw	low _I2C1_CallbackReturnStop
  8627  0493  3FC0               	movwi [0]fsr1
  8628  0494  3002               	movlw	high _I2C1_CallbackReturnStop
  8629  0495  3FC1               	movwi [1]fsr1
  8630                           
  8631                           ;mcc_generated_files/i2c1_master.c: 308:         I2C1_Status.callbackPayload[idx] = (0);
  8632  0496  0874               	movf	I2C1_SetCallback@idx,w
  8633  0497  3E2C               	addlw	(low ((_I2C1_Status| 0+12)))& (0+255)
  8634  0498  0086               	movwf	6
  8635  0499  0187               	clrf	7
  8636  049A  0181               	clrf	1
  8637  049B                     l453:
  8638  049B  0008               	return
  8639  049C                     __end_of_I2C1_SetCallback:
  8640                           
  8641                           	psect	text57
  8642  037E                     __ptext57:	
  8643 ;; *************** function _I2C1_SetBuffer *****************
  8644 ;; Defined at:
  8645 ;;		line 263 in file "mcc_generated_files/i2c1_master.c"
  8646 ;; Parameters:    Size  Location     Type
  8647 ;;  buffer          1    wreg     PTR void 
  8648 ;;		 -> I2C1_ReadDataBlock@reg(1), I2C1_ReadDataBlock@bufferBlock(3), I2C1_Write2ByteRegister@reg(1), I2C1_Write2ByteReg
      +ister@data(2), 
  8649 ;;		 -> I2C1_Write1ByteRegister@reg(1), I2C1_Write1ByteRegister@data(1), I2C1_Read2ByteRegister@reg(1), I2C1_Read2ByteRe
      +gister@returnValue(2), 
  8650 ;;		 -> NULL(0), I2C1_Read1ByteRegister@reg(1), I2C1_Read1ByteRegister@returnValue(1), 
  8651 ;;  bufferSize      2    0[COMMON] unsigned int 
  8652 ;; Auto vars:     Size  Location     Type
  8653 ;;  buffer          1    3[COMMON] PTR void 
  8654 ;;		 -> I2C1_ReadDataBlock@reg(1), I2C1_ReadDataBlock@bufferBlock(3), I2C1_Write2ByteRegister@reg(1), I2C1_Write2ByteReg
      +ister@data(2), 
  8655 ;;		 -> I2C1_Write1ByteRegister@reg(1), I2C1_Write1ByteRegister@data(1), I2C1_Read2ByteRegister@reg(1), I2C1_Read2ByteRe
      +gister@returnValue(2), 
  8656 ;;		 -> NULL(0), I2C1_Read1ByteRegister@reg(1), I2C1_Read1ByteRegister@returnValue(1), 
  8657 ;; Return value:  Size  Location     Type
  8658 ;;                  1    wreg      void 
  8659 ;; Registers used:
  8660 ;;		wreg
  8661 ;; Tracked objects:
  8662 ;;		On entry : 0/0
  8663 ;;		On exit  : 0/0
  8664 ;;		Unchanged: 0/0
  8665 ;; Data sizes:     COMMON   BANK0   BANK1   BANK2   BANK3   BANK4   BANK5   BANK6   BANK7   BANK8   BANK9  BANK10  BANK1
      +1  BANK12
  8666 ;;      Params:         2       0       0       0       0       0       0       0       0       0       0       0       
      +0       0
  8667 ;;      Locals:         1       0       0       0       0       0       0       0       0       0       0       0       
      +0       0
  8668 ;;      Temps:          1       0       0       0       0       0       0       0       0       0       0       0       
      +0       0
  8669 ;;      Totals:         4       0       0       0       0       0       0       0       0       0       0       0       
      +0       0
  8670 ;;Total ram usage:        4 bytes
  8671 ;; Hardware stack levels used: 1
  8672 ;; This function calls:
  8673 ;;		Nothing
  8674 ;; This function is called by:
  8675 ;;		_I2C1_Read1ByteRegister
  8676 ;;		_rd1RegCompleteHandler
  8677 ;;		_rd2RegCompleteHandler
  8678 ;;		_wr1RegCompleteHandler
  8679 ;;		_wr2RegCompleteHandler
  8680 ;;		_rdBlkRegCompleteHandler
  8681 ;;		_I2C1_Read2ByteRegister
  8682 ;;		_I2C1_Write1ByteRegister
  8683 ;;		_I2C1_Write2ByteRegister
  8684 ;;		_I2C1_WriteNBytes
  8685 ;;		_I2C1_ReadNBytes
  8686 ;;		_I2C1_ReadDataBlock
  8687 ;; This function uses a non-reentrant model
  8688 ;;
  8689                           
  8690                           
  8691                           ;psect for function _I2C1_SetBuffer
  8692  037E                     _I2C1_SetBuffer:
  8693                           
  8694                           ;incstack = 0
  8695                           ; Regs used in _I2C1_SetBuffer: [wreg]
  8696                           ;I2C1_SetBuffer@buffer stored from wreg
  8697  037E  00F3               	movwf	I2C1_SetBuffer@buffer
  8698  037F                     l2250:
  8699                           
  8700                           ;mcc_generated_files/i2c1_master.c: 263: void I2C1_SetBuffer(void *buffer, size_t buffer
      +                          Size);mcc_generated_files/i2c1_master.c: 264: {;mcc_generated_files/i2c1_master.c: 265: 
      +                              if(I2C1_Status.bufferFree)
  8701  037F  0020               	movlb	0	; select bank0
  8702  0380  1DBC               	btfss	_I2C1_Status+28,3
  8703  0381  2B83               	goto	u601
  8704  0382  2B84               	goto	u600
  8705  0383                     u601:
  8706  0383  2B8D               	goto	l433
  8707  0384                     u600:
  8708  0384                     l2252:
  8709                           
  8710                           ;mcc_generated_files/i2c1_master.c: 266:     {;mcc_generated_files/i2c1_master.c: 267:  
      +                                 I2C1_Status.data_ptr = buffer;
  8711  0384  0873               	movf	I2C1_SetBuffer@buffer,w
  8712  0385  00F2               	movwf	??_I2C1_SetBuffer
  8713  0386  0872               	movf	??_I2C1_SetBuffer,w
  8714  0387  00B7               	movwf	low ((_I2C1_Status| 0+23))
  8715                           
  8716                           ;mcc_generated_files/i2c1_master.c: 268:         I2C1_Status.data_length = bufferSize;
  8717  0388  0871               	movf	I2C1_SetBuffer@bufferSize+1,w
  8718  0389  00B9               	movwf	_I2C1_Status+25
  8719  038A  0870               	movf	I2C1_SetBuffer@bufferSize,w
  8720  038B  00B8               	movwf	_I2C1_Status+24
  8721  038C                     l2254:
  8722                           
  8723                           ;mcc_generated_files/i2c1_master.c: 269:         I2C1_Status.bufferFree = 0;
  8724  038C  11BC               	bcf	_I2C1_Status+28,3
  8725  038D                     l433:
  8726  038D  0008               	return
  8727  038E                     __end_of_I2C1_SetBuffer:
  8728                           
  8729                           	psect	text58
  8730  0299                     __ptext58:	
  8731 ;; *************** function _I2C1_MasterStop *****************
  8732 ;; Defined at:
  8733 ;;		line 593 in file "mcc_generated_files/i2c1_master.c"
  8734 ;; Parameters:    Size  Location     Type
  8735 ;;		None
  8736 ;; Auto vars:     Size  Location     Type
  8737 ;;		None
  8738 ;; Return value:  Size  Location     Type
  8739 ;;                  1    wreg      void 
  8740 ;; Registers used:
  8741 ;;		None
  8742 ;; Tracked objects:
  8743 ;;		On entry : 0/0
  8744 ;;		On exit  : 0/0
  8745 ;;		Unchanged: 0/0
  8746 ;; Data sizes:     COMMON   BANK0   BANK1   BANK2   BANK3   BANK4   BANK5   BANK6   BANK7   BANK8   BANK9  BANK10  BANK1
      +1  BANK12
  8747 ;;      Params:         0       0       0       0       0       0       0       0       0       0       0       0       
      +0       0
  8748 ;;      Locals:         0       0       0       0       0       0       0       0       0       0       0       0       
      +0       0
  8749 ;;      Temps:          0       0       0       0       0       0       0       0       0       0       0       0       
      +0       0
  8750 ;;      Totals:         0       0       0       0       0       0       0       0       0       0       0       0       
      +0       0
  8751 ;;Total ram usage:        0 bytes
  8752 ;; Hardware stack levels used: 1
  8753 ;; This function calls:
  8754 ;;		Nothing
  8755 ;; This function is called by:
  8756 ;;		_I2C1_DO_SEND_STOP
  8757 ;; This function uses a non-reentrant model
  8758 ;;
  8759                           
  8760                           
  8761                           ;psect for function _I2C1_MasterStop
  8762  0299                     _I2C1_MasterStop:
  8763  0299                     l2258:	
  8764                           ;incstack = 0
  8765                           ; Regs used in _I2C1_MasterStop: []
  8766                           
  8767                           
  8768                           ;mcc_generated_files/i2c1_master.c: 595:     SSP1CON2bits.PEN = 1;
  8769  0299  0023               	movlb	3	; select bank3
  8770  029A  1511               	bsf	17,2	;volatile
  8771  029B                     l599:
  8772  029B  0008               	return
  8773  029C                     __end_of_I2C1_MasterStop:
  8774                           
  8775                           	psect	text59
  8776  0296                     __ptext59:	
  8777 ;; *************** function _I2C1_MasterEnableRestart *****************
  8778 ;; Defined at:
  8779 ;;		line 573 in file "mcc_generated_files/i2c1_master.c"
  8780 ;; Parameters:    Size  Location     Type
  8781 ;;		None
  8782 ;; Auto vars:     Size  Location     Type
  8783 ;;		None
  8784 ;; Return value:  Size  Location     Type
  8785 ;;                  1    wreg      void 
  8786 ;; Registers used:
  8787 ;;		None
  8788 ;; Tracked objects:
  8789 ;;		On entry : 0/0
  8790 ;;		On exit  : 0/0
  8791 ;;		Unchanged: 0/0
  8792 ;; Data sizes:     COMMON   BANK0   BANK1   BANK2   BANK3   BANK4   BANK5   BANK6   BANK7   BANK8   BANK9  BANK10  BANK1
      +1  BANK12
  8793 ;;      Params:         0       0       0       0       0       0       0       0       0       0       0       0       
      +0       0
  8794 ;;      Locals:         0       0       0       0       0       0       0       0       0       0       0       0       
      +0       0
  8795 ;;      Temps:          0       0       0       0       0       0       0       0       0       0       0       0       
      +0       0
  8796 ;;      Totals:         0       0       0       0       0       0       0       0       0       0       0       0       
      +0       0
  8797 ;;Total ram usage:        0 bytes
  8798 ;; Hardware stack levels used: 1
  8799 ;; This function calls:
  8800 ;;		Nothing
  8801 ;; This function is called by:
  8802 ;;		_I2C1_DO_SEND_RESTART_READ
  8803 ;;		_I2C1_DO_SEND_RESTART_WRITE
  8804 ;;		_I2C1_DO_SEND_RESTART
  8805 ;;		_I2C1_DO_RX_EMPTY
  8806 ;; This function uses a non-reentrant model
  8807 ;;
  8808                           
  8809                           
  8810                           ;psect for function _I2C1_MasterEnableRestart
  8811  0296                     _I2C1_MasterEnableRestart:
  8812  0296                     l2256:	
  8813                           ;incstack = 0
  8814                           ; Regs used in _I2C1_MasterEnableRestart: []
  8815                           
  8816                           
  8817                           ;mcc_generated_files/i2c1_master.c: 575:     SSP1CON2bits.RSEN = 1;
  8818  0296  0023               	movlb	3	; select bank3
  8819  0297  1491               	bsf	17,1	;volatile
  8820  0298                     l587:
  8821  0298  0008               	return
  8822  0299                     __end_of_I2C1_MasterEnableRestart:
  8823                           
  8824                           	psect	text60
  8825  0293                     __ptext60:	
  8826 ;; *************** function _I2C1_MasterStart *****************
  8827 ;; Defined at:
  8828 ;;		line 588 in file "mcc_generated_files/i2c1_master.c"
  8829 ;; Parameters:    Size  Location     Type
  8830 ;;		None
  8831 ;; Auto vars:     Size  Location     Type
  8832 ;;		None
  8833 ;; Return value:  Size  Location     Type
  8834 ;;                  1    wreg      void 
  8835 ;; Registers used:
  8836 ;;		None
  8837 ;; Tracked objects:
  8838 ;;		On entry : 0/0
  8839 ;;		On exit  : 0/0
  8840 ;;		Unchanged: 0/0
  8841 ;; Data sizes:     COMMON   BANK0   BANK1   BANK2   BANK3   BANK4   BANK5   BANK6   BANK7   BANK8   BANK9  BANK10  BANK1
      +1  BANK12
  8842 ;;      Params:         0       0       0       0       0       0       0       0       0       0       0       0       
      +0       0
  8843 ;;      Locals:         0       0       0       0       0       0       0       0       0       0       0       0       
      +0       0
  8844 ;;      Temps:          0       0       0       0       0       0       0       0       0       0       0       0       
      +0       0
  8845 ;;      Totals:         0       0       0       0       0       0       0       0       0       0       0       0       
      +0       0
  8846 ;;Total ram usage:        0 bytes
  8847 ;; Hardware stack levels used: 1
  8848 ;; This function calls:
  8849 ;;		Nothing
  8850 ;; This function is called by:
  8851 ;;		_I2C1_MasterOperation
  8852 ;; This function uses a non-reentrant model
  8853 ;;
  8854                           
  8855                           
  8856                           ;psect for function _I2C1_MasterStart
  8857  0293                     _I2C1_MasterStart:
  8858  0293                     l2528:	
  8859                           ;incstack = 0
  8860                           ; Regs used in _I2C1_MasterStart: []
  8861                           
  8862                           
  8863                           ;mcc_generated_files/i2c1_master.c: 590:     SSP1CON2bits.SEN = 1;
  8864  0293  0023               	movlb	3	; select bank3
  8865  0294  1411               	bsf	17,0	;volatile
  8866  0295                     l596:
  8867  0295  0008               	return
  8868  0296                     __end_of_I2C1_MasterStart:
  8869                           
  8870                           	psect	text61
  8871  03FA                     __ptext61:	
  8872 ;; *************** function _I2C1_Close *****************
  8873 ;; Defined at:
  8874 ;;		line 209 in file "mcc_generated_files/i2c1_master.c"
  8875 ;; Parameters:    Size  Location     Type
  8876 ;;		None
  8877 ;; Auto vars:     Size  Location     Type
  8878 ;;  returnValue     1    1[COMMON] enum E93
  8879 ;; Return value:  Size  Location     Type
  8880 ;;                  1    wreg      enum E93
  8881 ;; Registers used:
  8882 ;;		wreg, status,2, status,0, pclath, cstack
  8883 ;; Tracked objects:
  8884 ;;		On entry : 0/0
  8885 ;;		On exit  : 0/0
  8886 ;;		Unchanged: 0/0
  8887 ;; Data sizes:     COMMON   BANK0   BANK1   BANK2   BANK3   BANK4   BANK5   BANK6   BANK7   BANK8   BANK9  BANK10  BANK1
      +1  BANK12
  8888 ;;      Params:         0       0       0       0       0       0       0       0       0       0       0       0       
      +0       0
  8889 ;;      Locals:         1       0       0       0       0       0       0       0       0       0       0       0       
      +0       0
  8890 ;;      Temps:          1       0       0       0       0       0       0       0       0       0       0       0       
      +0       0
  8891 ;;      Totals:         2       0       0       0       0       0       0       0       0       0       0       0       
      +0       0
  8892 ;;Total ram usage:        2 bytes
  8893 ;; Hardware stack levels used: 1
  8894 ;; Hardware stack levels required when called: 1
  8895 ;; This function calls:
  8896 ;;		_I2C1_MasterClearIrq
  8897 ;;		_I2C1_MasterClose
  8898 ;;		_I2C1_MasterDisableIrq
  8899 ;; This function is called by:
  8900 ;;		_I2C1_Read1ByteRegister
  8901 ;;		_I2C1_Read2ByteRegister
  8902 ;;		_I2C1_Write1ByteRegister
  8903 ;;		_I2C1_Write2ByteRegister
  8904 ;;		_I2C1_WriteNBytes
  8905 ;;		_I2C1_ReadNBytes
  8906 ;;		_I2C1_ReadDataBlock
  8907 ;; This function uses a non-reentrant model
  8908 ;;
  8909                           
  8910                           
  8911                           ;psect for function _I2C1_Close
  8912  03FA                     _I2C1_Close:
  8913  03FA                     l2622:	
  8914                           ;incstack = 0
  8915                           ; Regs used in _I2C1_Close: [wreg+status,2+status,0+pclath+cstack]
  8916                           
  8917                           
  8918                           ;mcc_generated_files/i2c1_master.c: 211:     i2c1_error_t returnValue = I2C1_BUSY;
  8919  03FA  01F1               	clrf	I2C1_Close@returnValue
  8920  03FB  0AF1               	incf	I2C1_Close@returnValue,f
  8921                           
  8922                           ;mcc_generated_files/i2c1_master.c: 212:     if(!I2C1_Status.busy)
  8923  03FC  0020               	movlb	0	; select bank0
  8924  03FD  18BC               	btfsc	_I2C1_Status+28,1
  8925  03FE  2C00               	goto	u731
  8926  03FF  2C01               	goto	u730
  8927  0400                     u731:
  8928  0400  2C14               	goto	l2636
  8929  0401                     u730:
  8930  0401                     l2624:
  8931                           
  8932                           ;mcc_generated_files/i2c1_master.c: 213:     {;mcc_generated_files/i2c1_master.c: 214:  
      +                                 I2C1_Status.inUse = 0;
  8933  0401  113C               	bcf	_I2C1_Status+28,2
  8934  0402                     l2626:
  8935                           
  8936                           ;mcc_generated_files/i2c1_master.c: 215:         I2C1_Status.address = 0xff;
  8937  0402  30FF               	movlw	255
  8938  0403  00F0               	movwf	??_I2C1_Close
  8939  0404  0870               	movf	??_I2C1_Close,w
  8940  0405  00B6               	movwf	_I2C1_Status+22
  8941  0406                     l2628:
  8942                           
  8943                           ;mcc_generated_files/i2c1_master.c: 216:         I2C1_MasterClearIrq();
  8944  0406  3182  228A  3183   	fcall	_I2C1_MasterClearIrq
  8945  0409                     l2630:
  8946                           
  8947                           ;mcc_generated_files/i2c1_master.c: 217:         I2C1_MasterDisableIrq();
  8948  0409  3182  2290  3183   	fcall	_I2C1_MasterDisableIrq
  8949  040C                     l2632:
  8950                           
  8951                           ;mcc_generated_files/i2c1_master.c: 218:         I2C1_MasterClose();
  8952  040C  3182  228D  3183   	fcall	_I2C1_MasterClose
  8953  040F                     l2634:
  8954                           
  8955                           ;mcc_generated_files/i2c1_master.c: 219:         returnValue = I2C1_Status.error;
  8956  040F  0020               	movlb	0	; select bank0
  8957  0410  083B               	movf	_I2C1_Status+27,w
  8958  0411  00F0               	movwf	??_I2C1_Close
  8959  0412  0870               	movf	??_I2C1_Close,w
  8960  0413  00F1               	movwf	I2C1_Close@returnValue
  8961  0414                     l2636:
  8962                           
  8963                           ;mcc_generated_files/i2c1_master.c: 221:     return returnValue;
  8964  0414  0871               	movf	I2C1_Close@returnValue,w
  8965  0415                     l414:
  8966  0415  0008               	return
  8967  0416                     __end_of_I2C1_Close:
  8968                           
  8969                           	psect	text62
  8970  0290                     __ptext62:	
  8971 ;; *************** function _I2C1_MasterDisableIrq *****************
  8972 ;; Defined at:
  8973 ;;		line 635 in file "mcc_generated_files/i2c1_master.c"
  8974 ;; Parameters:    Size  Location     Type
  8975 ;;		None
  8976 ;; Auto vars:     Size  Location     Type
  8977 ;;		None
  8978 ;; Return value:  Size  Location     Type
  8979 ;;                  1    wreg      void 
  8980 ;; Registers used:
  8981 ;;		None
  8982 ;; Tracked objects:
  8983 ;;		On entry : 0/0
  8984 ;;		On exit  : 0/0
  8985 ;;		Unchanged: 0/0
  8986 ;; Data sizes:     COMMON   BANK0   BANK1   BANK2   BANK3   BANK4   BANK5   BANK6   BANK7   BANK8   BANK9  BANK10  BANK1
      +1  BANK12
  8987 ;;      Params:         0       0       0       0       0       0       0       0       0       0       0       0       
      +0       0
  8988 ;;      Locals:         0       0       0       0       0       0       0       0       0       0       0       0       
      +0       0
  8989 ;;      Temps:          0       0       0       0       0       0       0       0       0       0       0       0       
      +0       0
  8990 ;;      Totals:         0       0       0       0       0       0       0       0       0       0       0       0       
      +0       0
  8991 ;;Total ram usage:        0 bytes
  8992 ;; Hardware stack levels used: 1
  8993 ;; This function calls:
  8994 ;;		Nothing
  8995 ;; This function is called by:
  8996 ;;		_I2C1_Close
  8997 ;;		_I2C1_SetTimeOut
  8998 ;; This function uses a non-reentrant model
  8999 ;;
  9000                           
  9001                           
  9002                           ;psect for function _I2C1_MasterDisableIrq
  9003  0290                     _I2C1_MasterDisableIrq:
  9004  0290                     l2560:	
  9005                           ;incstack = 0
  9006                           ; Regs used in _I2C1_MasterDisableIrq: []
  9007                           
  9008                           
  9009                           ;mcc_generated_files/i2c1_master.c: 637:     PIE3bits.SSP1IE = 0;
  9010  0290  002E               	movlb	14	; select bank14
  9011  0291  1019               	bcf	25,0	;volatile
  9012  0292                     l623:
  9013  0292  0008               	return
  9014  0293                     __end_of_I2C1_MasterDisableIrq:
  9015                           
  9016                           	psect	text63
  9017  028D                     __ptext63:	
  9018 ;; *************** function _I2C1_MasterClose *****************
  9019 ;; Defined at:
  9020 ;;		line 557 in file "mcc_generated_files/i2c1_master.c"
  9021 ;; Parameters:    Size  Location     Type
  9022 ;;		None
  9023 ;; Auto vars:     Size  Location     Type
  9024 ;;		None
  9025 ;; Return value:  Size  Location     Type
  9026 ;;                  1    wreg      void 
  9027 ;; Registers used:
  9028 ;;		None
  9029 ;; Tracked objects:
  9030 ;;		On entry : 0/0
  9031 ;;		On exit  : 0/0
  9032 ;;		Unchanged: 0/0
  9033 ;; Data sizes:     COMMON   BANK0   BANK1   BANK2   BANK3   BANK4   BANK5   BANK6   BANK7   BANK8   BANK9  BANK10  BANK1
      +1  BANK12
  9034 ;;      Params:         0       0       0       0       0       0       0       0       0       0       0       0       
      +0       0
  9035 ;;      Locals:         0       0       0       0       0       0       0       0       0       0       0       0       
      +0       0
  9036 ;;      Temps:          0       0       0       0       0       0       0       0       0       0       0       0       
      +0       0
  9037 ;;      Totals:         0       0       0       0       0       0       0       0       0       0       0       0       
      +0       0
  9038 ;;Total ram usage:        0 bytes
  9039 ;; Hardware stack levels used: 1
  9040 ;; This function calls:
  9041 ;;		Nothing
  9042 ;; This function is called by:
  9043 ;;		_I2C1_Close
  9044 ;; This function uses a non-reentrant model
  9045 ;;
  9046                           
  9047                           
  9048                           ;psect for function _I2C1_MasterClose
  9049  028D                     _I2C1_MasterClose:
  9050  028D                     l2562:	
  9051                           ;incstack = 0
  9052                           ; Regs used in _I2C1_MasterClose: []
  9053                           
  9054                           
  9055                           ;mcc_generated_files/i2c1_master.c: 560:     SSP1CON1bits.SSPEN = 0;
  9056  028D  0023               	movlb	3	; select bank3
  9057  028E  1290               	bcf	16,5	;volatile
  9058  028F                     l578:
  9059  028F  0008               	return
  9060  0290                     __end_of_I2C1_MasterClose:
  9061                           
  9062                           	psect	text64
  9063  028A                     __ptext64:	
  9064 ;; *************** function _I2C1_MasterClearIrq *****************
  9065 ;; Defined at:
  9066 ;;		line 640 in file "mcc_generated_files/i2c1_master.c"
  9067 ;; Parameters:    Size  Location     Type
  9068 ;;		None
  9069 ;; Auto vars:     Size  Location     Type
  9070 ;;		None
  9071 ;; Return value:  Size  Location     Type
  9072 ;;                  1    wreg      void 
  9073 ;; Registers used:
  9074 ;;		None
  9075 ;; Tracked objects:
  9076 ;;		On entry : 0/0
  9077 ;;		On exit  : 0/0
  9078 ;;		Unchanged: 0/0
  9079 ;; Data sizes:     COMMON   BANK0   BANK1   BANK2   BANK3   BANK4   BANK5   BANK6   BANK7   BANK8   BANK9  BANK10  BANK1
      +1  BANK12
  9080 ;;      Params:         0       0       0       0       0       0       0       0       0       0       0       0       
      +0       0
  9081 ;;      Locals:         0       0       0       0       0       0       0       0       0       0       0       0       
      +0       0
  9082 ;;      Temps:          0       0       0       0       0       0       0       0       0       0       0       0       
      +0       0
  9083 ;;      Totals:         0       0       0       0       0       0       0       0       0       0       0       0       
      +0       0
  9084 ;;Total ram usage:        0 bytes
  9085 ;; Hardware stack levels used: 1
  9086 ;; This function calls:
  9087 ;;		Nothing
  9088 ;; This function is called by:
  9089 ;;		_I2C1_Open
  9090 ;;		_I2C1_Close
  9091 ;;		_I2C1_MasterFsm
  9092 ;; This function uses a non-reentrant model
  9093 ;;
  9094                           
  9095                           
  9096                           ;psect for function _I2C1_MasterClearIrq
  9097  028A                     _I2C1_MasterClearIrq:
  9098  028A                     l2360:	
  9099                           ;incstack = 0
  9100                           ; Regs used in _I2C1_MasterClearIrq: []
  9101                           
  9102                           
  9103                           ;mcc_generated_files/i2c1_master.c: 642:     PIR3bits.SSP1IF = 0;
  9104  028A  002E               	movlb	14	; select bank14
  9105  028B  100F               	bcf	15,0	;volatile
  9106  028C                     l626:
  9107  028C  0008               	return
  9108  028D                     __end_of_I2C1_MasterClearIrq:
  9109  007E                     btemp	set	126	;btemp
  9110  007E                     wtemp0	set	126
  9111                           
  9112                           	psect	config
  9113                           
  9114                           ;Config register CONFIG1 @ 0x8007
  9115                           ;	External Oscillator mode selection bits
  9116                           ;	FEXTOSC = OFF, Oscillator not enabled
  9117                           ;	Power-up default value for COSC bits
  9118                           ;	RSTOSC = HFINT1, HFINTOSC (1MHz)
  9119                           ;	Clock Out Enable bit
  9120                           ;	CLKOUTEN = OFF, CLKOUT function is disabled; i/o or oscillator function on OSC2
  9121                           ;	Clock Switch Enable bit
  9122                           ;	CSWEN = ON, Writing to NOSC and NDIV is allowed
  9123                           ;	Fail-Safe Clock Monitor Enable bit
  9124                           ;	FCMEN = ON, FSCM timer enabled
  9125  8007                     	org	32775
  9126  8007  3FEC               	dw	16364
  9127                           
  9128                           ;Config register CONFIG2 @ 0x8008
  9129                           ;	Master Clear Enable bit
  9130                           ;	MCLRE = ON, MCLR pin is Master Clear function
  9131                           ;	Power-up Timer Enable bit
  9132                           ;	PWRTE = OFF, PWRT disabled
  9133                           ;	Low-Power BOR enable bit
  9134                           ;	LPBOREN = OFF, ULPBOR disabled
  9135                           ;	Brown-out reset enable bits
  9136                           ;	BOREN = ON, Brown-out Reset Enabled, SBOREN bit is ignored
  9137                           ;	Brown-out Reset Voltage Selection
  9138                           ;	BORV = LO, Brown-out Reset Voltage (VBOR) set to 1.9V on LF, and 2.45V on F Devices
  9139                           ;	Zero-cross detect disable
  9140                           ;	ZCD = OFF, Zero-cross detect circuit is disabled at POR.
  9141                           ;	Peripheral Pin Select one-way control
  9142                           ;	PPS1WAY = ON, The PPSLOCK bit can be cleared and set only once in software
  9143                           ;	Stack Overflow/Underflow Reset Enable bit
  9144                           ;	STVREN = ON, Stack Overflow or Underflow will cause a reset
  9145                           ;	Background Debugger
  9146                           ;	DEBUG = OFF, Background Debugger disabled
  9147  8008                     	org	32776
  9148  8008  3FFF               	dw	16383
  9149                           
  9150                           ;Config register CONFIG3 @ 0x8009
  9151                           ;	WDT Period Select bits
  9152                           ;	WDTCPS = WDTCPS_31, Divider ratio 1:65536; software control of WDTPS
  9153                           ;	WDT operating mode
  9154                           ;	WDTE = OFF, WDT Disabled, SWDTEN is ignored
  9155                           ;	WDT Window Select bits
  9156                           ;	WDTCWS = WDTCWS_7, window always open (100%); software control; keyed access not requi
      +                          red
  9157                           ;	WDT input clock selector
  9158                           ;	WDTCCS = SC, Software Control
  9159  8009                     	org	32777
  9160  8009  3F9F               	dw	16287
  9161                           
  9162                           ;Config register CONFIG4 @ 0x800A
  9163                           ;	UserNVM self-write protection bits
  9164                           ;	WRT = OFF, Write protection off
  9165                           ;	Scanner Enable bit
  9166                           ;	SCANE = available, Scanner module is available for use
  9167                           ;	Low Voltage Programming Enable bit
  9168                           ;	LVP = ON, Low Voltage programming enabled. MCLR/Vpp pin function is MCLR.
  9169  800A                     	org	32778
  9170  800A  3FFF               	dw	16383
  9171                           
  9172                           ;Config register CONFIG5 @ 0x800B
  9173                           ;	UserNVM Program memory code protection bit
  9174                           ;	CP = OFF, Program Memory code protection disabled
  9175                           ;	DataNVM code protection bit
  9176                           ;	CPD = OFF, Data EEPROM code protection disabled
  9177  800B                     	org	32779
  9178  800B  3FFF               	dw	16383

Data Sizes:
    Strings     61
    Constant    42
    Data        0
    BSS         30
    Persistent  38
    Stack       0

Auto Spaces:
    Space          Size  Autos    Used
    COMMON           14     14      14
    BANK0            80     22      58
    BANK1            80      0       0
    BANK2            80      0       0
    BANK3            80      0       0
    BANK4            80      0       0
    BANK5            80      0       0
    BANK6            80      0       0
    BANK7            80      0       0
    BANK8            80      0       0
    BANK9            80      0       0
    BANK10           80      0       0
    BANK11           80      0       0
    BANK12           48      0       0

Pointer List with Targets:

    I2C1_Read1ByteRegister@returnValue.data	PTR unsigned char  size(1) Largest target is 0

    I2C1_Read2ByteRegister@returnValue.data	PTR unsigned char  size(1) Largest target is 0

    I2C1_Write1ByteRegister@data.data	PTR unsigned char  size(1) Largest target is 0

    I2C1_Write2ByteRegister@data.data	PTR unsigned char  size(1) Largest target is 0

    I2C1_DO_TX$1893$0	PTR void  size(1) Largest target is 4
		 -> I2C1_ReadDataBlock@bufferBlock(COMMON[3]), I2C1_Write2ByteRegister@data(COMMON[2]), I2C1_Write1ByteRegister@data(COMMON[1]), I2C1_Read2ByteRegister@returnValue(COMMON[2]), 
		 -> NULL(NULL[0]), I2C1_Read1ByteRegister@returnValue(BANK0[1]), 

    I2C1_DO_TX$1898	PTR void  size(1) Largest target is 4
		 -> I2C1_ReadDataBlock@bufferBlock(COMMON[3]), I2C1_Write2ByteRegister@data(COMMON[2]), I2C1_Write1ByteRegister@data(COMMON[1]), I2C1_Read2ByteRegister@returnValue(COMMON[2]), 
		 -> NULL(NULL[0]), I2C1_Read1ByteRegister@returnValue(BANK0[1]), 

    I2C1_DO_TX$1893	PTR FTN(PTR void ,)enum E98 size(2) Largest target is 1
		 -> I2C1_CallbackReturnReset(), I2C1_CallbackReturnStop(), rdBlkRegCompleteHandler(), wr2RegCompleteHandler(), 
		 -> wr1RegCompleteHandler(), rd2RegCompleteHandler(), Absolute function(), rd1RegCompleteHandler(), 

    I2C1_MasterFsm$1892	const PTR FTN()enum E11681 size(2) Largest target is 1
		 -> I2C1_DO_ADDRESS_NACK(), I2C1_DO_RESET(), I2C1_DO_RX_NACK_RESTART(), I2C1_DO_RX_NACK_STOP(), 
		 -> I2C1_DO_RX_ACK(), I2C1_DO_SEND_STOP(), I2C1_DO_SEND_RESTART(), I2C1_DO_SEND_RESTART_WRITE(), 
		 -> I2C1_DO_SEND_RESTART_READ(), I2C1_DO_TX_EMPTY(), I2C1_DO_RCEN(), I2C1_DO_RX(), 
		 -> I2C1_DO_TX(), I2C1_DO_SEND_ADR_WRITE(), I2C1_DO_SEND_ADR_READ(), I2C1_DO_IDLE(), 

    I2C1_CallbackReturnStop@funPtr	PTR void  size(1) Largest target is 4
		 -> I2C1_ReadDataBlock@bufferBlock(COMMON[3]), I2C1_Write2ByteRegister@data(COMMON[2]), I2C1_Write1ByteRegister@data(COMMON[1]), I2C1_Read2ByteRegister@returnValue(COMMON[2]), 
		 -> NULL(NULL[0]), I2C1_Read1ByteRegister@returnValue(BANK0[1]), 

    I2C1_CallbackReturnReset@funPtr	PTR void  size(1) Largest target is 4
		 -> I2C1_ReadDataBlock@bufferBlock(COMMON[3]), I2C1_Write2ByteRegister@data(COMMON[2]), I2C1_Write1ByteRegister@data(COMMON[1]), I2C1_Read2ByteRegister@returnValue(COMMON[2]), 
		 -> NULL(NULL[0]), I2C1_Read1ByteRegister@returnValue(BANK0[1]), 

    cb$0	PTR void  size(1) Largest target is 4
		 -> I2C1_ReadDataBlock@bufferBlock(COMMON[3]), I2C1_Write2ByteRegister@data(COMMON[2]), I2C1_Write1ByteRegister@data(COMMON[1]), I2C1_Read2ByteRegister@returnValue(COMMON[2]), 
		 -> NULL(NULL[0]), I2C1_Read1ByteRegister@returnValue(BANK0[1]), 

    Absolute function$0	PTR void  size(1) Largest target is 4
		 -> I2C1_ReadDataBlock@bufferBlock(COMMON[3]), I2C1_Write2ByteRegister@data(COMMON[2]), I2C1_Write1ByteRegister@data(COMMON[1]), I2C1_Read2ByteRegister@returnValue(COMMON[2]), 
		 -> NULL(NULL[0]), I2C1_Read1ByteRegister@returnValue(BANK0[1]), 

    cb$0	PTR void  size(1) Largest target is 4
		 -> I2C1_ReadDataBlock@bufferBlock(COMMON[3]), I2C1_Write2ByteRegister@data(COMMON[2]), I2C1_Write1ByteRegister@data(COMMON[1]), I2C1_Read2ByteRegister@returnValue(COMMON[2]), 
		 -> NULL(NULL[0]), I2C1_Read1ByteRegister@returnValue(BANK0[1]), 

    S484$0$0	PTR void  size(1) Largest target is 4
		 -> I2C1_ReadDataBlock@bufferBlock(COMMON[3]), I2C1_Write2ByteRegister@data(COMMON[2]), I2C1_Write1ByteRegister@data(COMMON[1]), I2C1_Read2ByteRegister@returnValue(COMMON[2]), 
		 -> NULL(NULL[0]), I2C1_Read1ByteRegister@returnValue(BANK0[1]), 

    printf@f	PTR const unsigned char  size(2) Largest target is 35
		 -> STR_2(CODE[35]), STR_1(CODE[26]), 

    printf@ap	PTR void [1] size(1) Largest target is 2
		 -> ?_printf(BANK0[2]), 

    I2C1_SetCallback@ptr	PTR void  size(1) Largest target is 4
		 -> I2C1_ReadDataBlock@bufferBlock(COMMON[3]), I2C1_Write2ByteRegister@data(COMMON[2]), I2C1_Write1ByteRegister@data(COMMON[1]), I2C1_Read2ByteRegister@returnValue(COMMON[2]), 
		 -> NULL(NULL[0]), I2C1_Read1ByteRegister@returnValue(BANK0[1]), 

    I2C1_SetCallback@cb	PTR FTN(PTR void ,)enum E98 size(2) Largest target is 1
		 -> rdBlkRegCompleteHandler(), wr2RegCompleteHandler(), wr1RegCompleteHandler(), rd2RegCompleteHandler(), 
		 -> Absolute function(), rd1RegCompleteHandler(), 

    I2C1_SetAddressNackCallback@ptr	PTR void  size(1) Largest target is 0
		 -> NULL(NULL[0]), 

    I2C1_SetAddressNackCallback@cb	PTR FTN(PTR void ,)enum E98 size(2) Largest target is 1
		 -> Absolute function(), 

    I2C1_SetDataCompleteCallback@ptr	PTR void  size(1) Largest target is 4
		 -> I2C1_ReadDataBlock@bufferBlock(COMMON[3]), I2C1_Write2ByteRegister@data(COMMON[2]), I2C1_Write1ByteRegister@data(COMMON[1]), I2C1_Read2ByteRegister@returnValue(COMMON[2]), 
		 -> NULL(NULL[0]), I2C1_Read1ByteRegister@returnValue(BANK0[1]), 

    I2C1_SetDataCompleteCallback@cb	PTR FTN(PTR void ,)enum E98 size(2) Largest target is 1
		 -> rdBlkRegCompleteHandler(), wr2RegCompleteHandler(), wr1RegCompleteHandler(), rd2RegCompleteHandler(), 
		 -> Absolute function(), rd1RegCompleteHandler(), 

    I2C1_SetBuffer@buffer	PTR void  size(1) Largest target is 4
		 -> I2C1_ReadDataBlock@reg(COMMON[1]), I2C1_ReadDataBlock@bufferBlock(COMMON[3]), I2C1_Write2ByteRegister@reg(COMMON[1]), I2C1_Write2ByteRegister@data(COMMON[2]), 
		 -> I2C1_Write1ByteRegister@reg(COMMON[1]), I2C1_Write1ByteRegister@data(COMMON[1]), I2C1_Read2ByteRegister@reg(COMMON[1]), I2C1_Read2ByteRegister@returnValue(COMMON[2]), 
		 -> NULL(NULL[0]), I2C1_Read1ByteRegister@reg(BANK0[1]), I2C1_Read1ByteRegister@returnValue(BANK0[1]), 

    S484$data_ptr	PTR unsigned char  size(1) Largest target is 4
		 -> I2C1_ReadDataBlock@reg(COMMON[1]), I2C1_ReadDataBlock@bufferBlock(COMMON[3]), I2C1_Write2ByteRegister@reg(COMMON[1]), I2C1_Write2ByteRegister@data(COMMON[2]), 
		 -> I2C1_Write1ByteRegister@reg(COMMON[1]), I2C1_Write1ByteRegister@data(COMMON[1]), I2C1_Read2ByteRegister@reg(COMMON[1]), I2C1_Read2ByteRegister@returnValue(COMMON[2]), 
		 -> NULL(NULL[0]), I2C1_Read1ByteRegister@reg(BANK0[1]), I2C1_Read1ByteRegister@returnValue(BANK0[1]), 

    I2C1_Status.data_ptr	PTR unsigned char  size(1) Largest target is 4
		 -> I2C1_ReadDataBlock@reg(COMMON[1]), I2C1_ReadDataBlock@bufferBlock(COMMON[3]), I2C1_Write2ByteRegister@reg(COMMON[1]), I2C1_Write2ByteRegister@data(COMMON[2]), 
		 -> I2C1_Write1ByteRegister@reg(COMMON[1]), I2C1_Write1ByteRegister@data(COMMON[1]), I2C1_Read2ByteRegister@reg(COMMON[1]), I2C1_Read2ByteRegister@returnValue(COMMON[2]), 
		 -> NULL(NULL[0]), I2C1_Read1ByteRegister@reg(BANK0[1]), I2C1_Read1ByteRegister@returnValue(BANK0[1]), 

    S484$callbackPayload	PTR void [6] size(1) Largest target is 4
		 -> I2C1_ReadDataBlock@bufferBlock(COMMON[3]), I2C1_Write2ByteRegister@data(COMMON[2]), I2C1_Write1ByteRegister@data(COMMON[1]), I2C1_Read2ByteRegister@returnValue(COMMON[2]), 
		 -> NULL(NULL[0]), I2C1_Read1ByteRegister@returnValue(BANK0[1]), 

    I2C1_Status.callbackPayload	PTR void [6] size(1) Largest target is 4
		 -> I2C1_ReadDataBlock@bufferBlock(COMMON[3]), I2C1_Write2ByteRegister@data(COMMON[2]), I2C1_Write1ByteRegister@data(COMMON[1]), I2C1_Read2ByteRegister@returnValue(COMMON[2]), 
		 -> NULL(NULL[0]), I2C1_Read1ByteRegister@returnValue(BANK0[1]), 

    S484$callbackTable	PTR FTN(PTR void ,)enum E98[6] size(2) Largest target is 1
		 -> I2C1_CallbackReturnReset(), I2C1_CallbackReturnStop(), rdBlkRegCompleteHandler(), wr2RegCompleteHandler(), 
		 -> wr1RegCompleteHandler(), rd2RegCompleteHandler(), Absolute function(), rd1RegCompleteHandler(), 

    I2C1_Status.callbackTable	PTR FTN(PTR void ,)enum E98[6] size(2) Largest target is 1
		 -> I2C1_CallbackReturnReset(), I2C1_CallbackReturnStop(), rdBlkRegCompleteHandler(), wr2RegCompleteHandler(), 
		 -> wr1RegCompleteHandler(), rd2RegCompleteHandler(), Absolute function(), rd1RegCompleteHandler(), 

    i2c1_fsmStateTable	const PTR FTN()enum E11681[16] size(2) Largest target is 1
		 -> I2C1_DO_ADDRESS_NACK(), I2C1_DO_RESET(), I2C1_DO_RX_NACK_RESTART(), I2C1_DO_RX_NACK_STOP(), 
		 -> I2C1_DO_RX_ACK(), I2C1_DO_SEND_STOP(), I2C1_DO_SEND_RESTART(), I2C1_DO_SEND_RESTART_WRITE(), 
		 -> I2C1_DO_SEND_RESTART_READ(), I2C1_DO_TX_EMPTY(), I2C1_DO_RCEN(), I2C1_DO_RX(), 
		 -> I2C1_DO_TX(), I2C1_DO_SEND_ADR_WRITE(), I2C1_DO_SEND_ADR_READ(), I2C1_DO_IDLE(), 

    EUSART_SetErrorHandler@interruptHandler	PTR FTN()void  size(2) Largest target is 1
		 -> EUSART_DefaultErrorHandler(), 

    EUSART_ErrorHandler	PTR FTN()void  size(2) Largest target is 1
		 -> EUSART_DefaultErrorHandler(), Absolute function(), 

    EUSART_SetOverrunErrorHandler@interruptHandler	PTR FTN()void  size(2) Largest target is 1
		 -> EUSART_DefaultOverrunErrorHandler(), 

    EUSART_OverrunErrorHandler	PTR FTN()void  size(2) Largest target is 1
		 -> EUSART_DefaultOverrunErrorHandler(), Absolute function(), 

    EUSART_SetFramingErrorHandler@interruptHandler	PTR FTN()void  size(2) Largest target is 1
		 -> EUSART_DefaultFramingErrorHandler(), 

    EUSART_FramingErrorHandler	PTR FTN()void  size(2) Largest target is 1
		 -> EUSART_DefaultFramingErrorHandler(), Absolute function(), 

    rdBlkRegCompleteHandler@ptr.data	PTR unsigned char  size(1) Largest target is 0

    rdBlkRegCompleteHandler@ptr	PTR void  size(1) Largest target is 4
		 -> I2C1_ReadDataBlock@bufferBlock(COMMON[3]), I2C1_Write2ByteRegister@data(COMMON[2]), I2C1_Write1ByteRegister@data(COMMON[1]), I2C1_Read2ByteRegister@returnValue(COMMON[2]), 
		 -> NULL(NULL[0]), I2C1_Read1ByteRegister@returnValue(BANK0[1]), 

    wr2RegCompleteHandler@ptr	PTR void  size(1) Largest target is 4
		 -> I2C1_ReadDataBlock@bufferBlock(COMMON[3]), I2C1_Write2ByteRegister@data(COMMON[2]), I2C1_Write1ByteRegister@data(COMMON[1]), I2C1_Read2ByteRegister@returnValue(COMMON[2]), 
		 -> NULL(NULL[0]), I2C1_Read1ByteRegister@returnValue(BANK0[1]), 

    wr1RegCompleteHandler@ptr	PTR void  size(1) Largest target is 4
		 -> I2C1_ReadDataBlock@bufferBlock(COMMON[3]), I2C1_Write2ByteRegister@data(COMMON[2]), I2C1_Write1ByteRegister@data(COMMON[1]), I2C1_Read2ByteRegister@returnValue(COMMON[2]), 
		 -> NULL(NULL[0]), I2C1_Read1ByteRegister@returnValue(BANK0[1]), 

    rd2RegCompleteHandler@ptr	PTR void  size(1) Largest target is 4
		 -> I2C1_ReadDataBlock@bufferBlock(COMMON[3]), I2C1_Write2ByteRegister@data(COMMON[2]), I2C1_Write1ByteRegister@data(COMMON[1]), I2C1_Read2ByteRegister@returnValue(COMMON[2]), 
		 -> NULL(NULL[0]), I2C1_Read1ByteRegister@returnValue(BANK0[1]), 

    rd1RegCompleteHandler@ptr	PTR void  size(1) Largest target is 4
		 -> I2C1_ReadDataBlock@bufferBlock(COMMON[3]), I2C1_Write2ByteRegister@data(COMMON[2]), I2C1_Write1ByteRegister@data(COMMON[1]), I2C1_Read2ByteRegister@returnValue(COMMON[2]), 
		 -> NULL(NULL[0]), I2C1_Read1ByteRegister@returnValue(BANK0[1]), 

    S94$data	PTR unsigned char  size(1) Largest target is 0

    bufferBlock.data	PTR unsigned char  size(1) Largest target is 0


Critical Paths under _main in COMMON

    _printf->___lwmod
    _putch->_EUSART_Write
    ___lwmod->___lwdiv
    _EUSART_Initialize->_EUSART_SetErrorHandler
    _EUSART_Initialize->_EUSART_SetFramingErrorHandler
    _EUSART_Initialize->_EUSART_SetOverrunErrorHandler
    _I2C1_SetAddressNackCallback->_I2C1_SetCallback
    _I2C1_MasterWrite->_I2C1_MasterOperation
    _I2C1_MasterFsm->_I2C1_DO_ADDRESS_NACK
    _I2C1_MasterFsm->_I2C1_DO_RX
    _I2C1_MasterFsm->_I2C1_DO_TX
    _I2C1_MasterFsm->_I2C1_DO_TX_EMPTY
    _I2C1_DO_TX_EMPTY->_I2C1_CallbackReturnReset
    _I2C1_DO_TX_EMPTY->_I2C1_CallbackReturnStop
    _I2C1_DO_TX_EMPTY->_rd1RegCompleteHandler
    _I2C1_DO_TX_EMPTY->_rd2RegCompleteHandler
    _I2C1_DO_TX_EMPTY->_rdBlkRegCompleteHandler
    _I2C1_DO_TX_EMPTY->_wr1RegCompleteHandler
    _I2C1_DO_TX_EMPTY->_wr2RegCompleteHandler
    _I2C1_DO_TX->_I2C1_CallbackReturnReset
    _I2C1_DO_TX->_I2C1_CallbackReturnStop
    _I2C1_DO_TX->_rd1RegCompleteHandler
    _I2C1_DO_TX->_rd2RegCompleteHandler
    _I2C1_DO_TX->_rdBlkRegCompleteHandler
    _I2C1_DO_TX->_wr1RegCompleteHandler
    _I2C1_DO_TX->_wr2RegCompleteHandler
    _I2C1_DO_SEND_ADR_WRITE->_I2C1_MasterSendTxData
    _I2C1_DO_RX->_I2C1_CallbackReturnReset
    _I2C1_DO_RX->_I2C1_CallbackReturnStop
    _I2C1_DO_RX->_rd1RegCompleteHandler
    _I2C1_DO_RX->_rd2RegCompleteHandler
    _I2C1_DO_RX->_rdBlkRegCompleteHandler
    _I2C1_DO_RX->_wr1RegCompleteHandler
    _I2C1_DO_RX->_wr2RegCompleteHandler
    _I2C1_DO_ADDRESS_NACK->_I2C1_CallbackReturnReset
    _I2C1_DO_ADDRESS_NACK->_I2C1_CallbackReturnStop
    _I2C1_DO_ADDRESS_NACK->_rd1RegCompleteHandler
    _I2C1_DO_ADDRESS_NACK->_rd2RegCompleteHandler
    _I2C1_DO_ADDRESS_NACK->_rdBlkRegCompleteHandler
    _I2C1_DO_ADDRESS_NACK->_wr1RegCompleteHandler
    _I2C1_DO_ADDRESS_NACK->_wr2RegCompleteHandler
    _wr2RegCompleteHandler->_I2C1_SetDataCompleteCallback
    _wr1RegCompleteHandler->_I2C1_SetDataCompleteCallback
    _rdBlkRegCompleteHandler->_I2C1_SetDataCompleteCallback
    _rd2RegCompleteHandler->_I2C1_SetDataCompleteCallback
    _rd1RegCompleteHandler->_I2C1_SetDataCompleteCallback
    _I2C1_SetDataCompleteCallback->_I2C1_SetCallback

Critical Paths under _main in BANK0

    _main->_printf
    _I2C1_MasterWrite->_I2C1_MasterOperation
    _I2C1_Poller->_I2C1_MasterFsm

Critical Paths under _main in BANK1

    None.

Critical Paths under _main in BANK2

    None.

Critical Paths under _main in BANK3

    None.

Critical Paths under _main in BANK4

    None.

Critical Paths under _main in BANK5

    None.

Critical Paths under _main in BANK6

    None.

Critical Paths under _main in BANK7

    None.

Critical Paths under _main in BANK8

    None.

Critical Paths under _main in BANK9

    None.

Critical Paths under _main in BANK10

    None.

Critical Paths under _main in BANK11

    None.

Critical Paths under _main in BANK12

    None.

Call Graph Tables:

 ---------------------------------------------------------------------------------
 (Depth) Function   	        Calls       Base Space   Used Autos Params    Refs
 ---------------------------------------------------------------------------------
 (0) _main                                                 6     6      0   87013
                                             16 BANK0      6     6      0
             _I2C1_Read1ByteRegister
                  _SYSTEM_Initialize
                             ___wmul
                             _printf
 ---------------------------------------------------------------------------------
 (1) _printf                                              24    18      6    1207
                                              0 BANK0     16    10      6
                            ___lwdiv
                            ___lwmod
                             ___wmul (ARG)
                              _putch
 ---------------------------------------------------------------------------------
 (2) _putch                                                1     1      0      44
                                              1 COMMON     1     1      0
                       _EUSART_Write
 ---------------------------------------------------------------------------------
 (3) _EUSART_Write                                         1     1      0      22
                                              0 COMMON     1     1      0
 ---------------------------------------------------------------------------------
 (2) ___lwmod                                              6     2      4     311
                                              8 COMMON     6     2      4
                            ___lwdiv (ARG)
 ---------------------------------------------------------------------------------
 (2) ___lwdiv                                              8     4      4     314
                                              0 COMMON     8     4      4
 ---------------------------------------------------------------------------------
 (1) ___wmul                                               6     2      4    1144
                                              0 COMMON     6     2      4
 ---------------------------------------------------------------------------------
 (1) _SYSTEM_Initialize                                    0     0      0     294
                  _EUSART_Initialize
                    _I2C1_Initialize
              _OSCILLATOR_Initialize
             _PIN_MANAGER_Initialize
                     _PMD_Initialize
 ---------------------------------------------------------------------------------
 (2) _PMD_Initialize                                       0     0      0       0
 ---------------------------------------------------------------------------------
 (2) _PIN_MANAGER_Initialize                               0     0      0       0
 ---------------------------------------------------------------------------------
 (2) _OSCILLATOR_Initialize                                0     0      0       0
 ---------------------------------------------------------------------------------
 (2) _I2C1_Initialize                                      0     0      0       0
 ---------------------------------------------------------------------------------
 (2) _EUSART_Initialize                                    0     0      0     294
             _EUSART_SetErrorHandler
      _EUSART_SetFramingErrorHandler
      _EUSART_SetOverrunErrorHandler
 ---------------------------------------------------------------------------------
 (3) _EUSART_SetOverrunErrorHandler                        2     0      2      98
                                              0 COMMON     2     0      2
 ---------------------------------------------------------------------------------
 (3) _EUSART_SetFramingErrorHandler                        2     0      2      98
                                              0 COMMON     2     0      2
 ---------------------------------------------------------------------------------
 (3) _EUSART_SetErrorHandler                               2     0      2      98
                                              0 COMMON     2     0      2
 ---------------------------------------------------------------------------------
 (1) _I2C1_Read1ByteRegister                               4     3      1   84319
                                              5 BANK0      4     3      1
                         _I2C1_Close
                   _I2C1_MasterWrite
                          _I2C1_Open
        _I2C1_SetAddressNackCallback
                     _I2C1_SetBuffer
       _I2C1_SetDataCompleteCallback
 ---------------------------------------------------------------------------------
 (2) _I2C1_SetAddressNackCallback                          4     1      3    1870
                                              5 COMMON     4     1      3
                   _I2C1_SetCallback
 ---------------------------------------------------------------------------------
 (2) _I2C1_Open                                            3     3      0      46
                                              0 COMMON     3     3      0
                _I2C1_MasterClearIrq
                    _I2C1_MasterOpen
 ---------------------------------------------------------------------------------
 (3) _I2C1_MasterOpen                                      0     0      0       0
 ---------------------------------------------------------------------------------
 (2) _I2C1_MasterWrite                                     0     0      0   78300
               _I2C1_MasterOperation
 ---------------------------------------------------------------------------------
 (3) _I2C1_MasterOperation                                 3     3      0   78300
                                             13 COMMON     1     1      0
                                              3 BANK0      2     2      0
                   _I2C1_MasterStart
                        _I2C1_Poller
 ---------------------------------------------------------------------------------
 (4) _I2C1_Poller                                          0     0      0   78254
                     _I2C1_MasterFsm
            _I2C1_MasterWaitForEvent
 ---------------------------------------------------------------------------------
 (5) _I2C1_MasterWaitForEvent                              0     0      0       0
 ---------------------------------------------------------------------------------
 (5) _I2C1_MasterFsm                                       3     3      0   78254
                                              0 BANK0      3     3      0
               _I2C1_DO_ADDRESS_NACK *
                       _I2C1_DO_IDLE *
                       _I2C1_DO_RCEN *
                      _I2C1_DO_RESET *
                         _I2C1_DO_RX *
                     _I2C1_DO_RX_ACK *
            _I2C1_DO_RX_NACK_RESTART *
               _I2C1_DO_RX_NACK_STOP *
              _I2C1_DO_SEND_ADR_READ *
             _I2C1_DO_SEND_ADR_WRITE *
               _I2C1_DO_SEND_RESTART *
          _I2C1_DO_SEND_RESTART_READ *
         _I2C1_DO_SEND_RESTART_WRITE *
                  _I2C1_DO_SEND_STOP *
                         _I2C1_DO_TX *
                   _I2C1_DO_TX_EMPTY *
                _I2C1_MasterClearIrq
                  _I2C1_MasterIsNack
 ---------------------------------------------------------------------------------
 (6) _I2C1_DO_TX_EMPTY                                     3     3      0   19547
                                             10 COMMON     3     3      0
                   Absolute function *
           _I2C1_CallbackReturnReset *
            _I2C1_CallbackReturnStop *
               _I2C1_DO_SEND_RESTART
                  _I2C1_DO_SEND_STOP
                  _I2C1_MasterSetIrq
              _rd1RegCompleteHandler *
              _rd2RegCompleteHandler *
            _rdBlkRegCompleteHandler *
              _wr1RegCompleteHandler *
              _wr2RegCompleteHandler *
 ---------------------------------------------------------------------------------
 (7) _I2C1_MasterSetIrq                                    0     0      0       0
 ---------------------------------------------------------------------------------
 (6) _I2C1_DO_TX                                           3     3      0   19569
                                             10 COMMON     3     3      0
                   Absolute function *
           _I2C1_CallbackReturnReset *
            _I2C1_CallbackReturnStop *
          _I2C1_DO_SEND_RESTART_READ
         _I2C1_DO_SEND_RESTART_WRITE
                  _I2C1_DO_SEND_STOP
                  _I2C1_MasterIsNack
              _I2C1_MasterSendTxData
              _rd1RegCompleteHandler *
              _rd2RegCompleteHandler *
            _rdBlkRegCompleteHandler *
              _wr1RegCompleteHandler *
              _wr2RegCompleteHandler *
 ---------------------------------------------------------------------------------
 (6) _I2C1_MasterIsNack                                    0     0      0       0
 ---------------------------------------------------------------------------------
 (7) _I2C1_DO_SEND_RESTART_WRITE                           0     0      0       0
           _I2C1_MasterEnableRestart
 ---------------------------------------------------------------------------------
 (7) _I2C1_DO_SEND_RESTART_READ                            0     0      0       0
           _I2C1_MasterEnableRestart
 ---------------------------------------------------------------------------------
 (6) _I2C1_DO_SEND_ADR_WRITE                               0     0      0      22
              _I2C1_MasterSendTxData
 ---------------------------------------------------------------------------------
 (6) _I2C1_DO_SEND_ADR_READ                                0     0      0      22
              _I2C1_MasterSendTxData
 ---------------------------------------------------------------------------------
 (7) _I2C1_MasterSendTxData                                1     1      0      22
                                              0 COMMON     1     1      0
 ---------------------------------------------------------------------------------
 (6) _I2C1_DO_RX_ACK                                       0     0      0       0
                 _I2C1_MasterSendAck
 ---------------------------------------------------------------------------------
 (6) _I2C1_DO_RX                                           3     3      0   19547
                                             10 COMMON     3     3      0
                   Absolute function *
           _I2C1_CallbackReturnReset *
            _I2C1_CallbackReturnStop *
            _I2C1_DO_RX_NACK_RESTART
               _I2C1_DO_RX_NACK_STOP
               _I2C1_MasterGetRxData
                 _I2C1_MasterSendAck
              _rd1RegCompleteHandler *
              _rd2RegCompleteHandler *
            _rdBlkRegCompleteHandler *
              _wr1RegCompleteHandler *
              _wr2RegCompleteHandler *
 ---------------------------------------------------------------------------------
 (7) _I2C1_MasterSendAck                                   0     0      0       0
 ---------------------------------------------------------------------------------
 (7) _I2C1_MasterGetRxData                                 0     0      0       0
 ---------------------------------------------------------------------------------
 (6) _I2C1_DO_RX_NACK_STOP                                 0     0      0       0
                _I2C1_MasterSendNack
 ---------------------------------------------------------------------------------
 (6) _I2C1_DO_RX_NACK_RESTART                              0     0      0       0
                _I2C1_MasterSendNack
 ---------------------------------------------------------------------------------
 (7) _I2C1_MasterSendNack                                  0     0      0       0
 ---------------------------------------------------------------------------------
 (6) _I2C1_DO_RESET                                        0     0      0       0
 ---------------------------------------------------------------------------------
 (6) _I2C1_DO_RCEN                                         0     0      0       0
                 _I2C1_MasterStartRx
 ---------------------------------------------------------------------------------
 (7) _I2C1_MasterStartRx                                   0     0      0       0
 ---------------------------------------------------------------------------------
 (6) _I2C1_DO_IDLE                                         0     0      0       0
 ---------------------------------------------------------------------------------
 (6) _I2C1_DO_ADDRESS_NACK                                 3     3      0   19547
                                             10 COMMON     3     3      0
                   Absolute function *
           _I2C1_CallbackReturnReset *
            _I2C1_CallbackReturnStop *
               _I2C1_DO_SEND_RESTART
                  _I2C1_DO_SEND_STOP
              _rd1RegCompleteHandler *
              _rd2RegCompleteHandler *
            _rdBlkRegCompleteHandler *
              _wr1RegCompleteHandler *
              _wr2RegCompleteHandler *
 ---------------------------------------------------------------------------------
 (7) _wr2RegCompleteHandler                                1     0      1    3852
                                              9 COMMON     1     0      1
                     _I2C1_SetBuffer
       _I2C1_SetDataCompleteCallback
 ---------------------------------------------------------------------------------
 (7) _wr1RegCompleteHandler                                1     0      1    3852
                                              9 COMMON     1     0      1
                     _I2C1_SetBuffer
       _I2C1_SetDataCompleteCallback
 ---------------------------------------------------------------------------------
 (7) _rdBlkRegCompleteHandler                              1     0      1    3874
                                              9 COMMON     1     0      1
                     _I2C1_SetBuffer
       _I2C1_SetDataCompleteCallback
 ---------------------------------------------------------------------------------
 (7) _rd2RegCompleteHandler                                1     0      1    3852
                                              9 COMMON     1     0      1
                     _I2C1_SetBuffer
       _I2C1_SetDataCompleteCallback
 ---------------------------------------------------------------------------------
 (7) _rd1RegCompleteHandler                                1     0      1    3852
                                              9 COMMON     1     0      1
                     _I2C1_SetBuffer
       _I2C1_SetDataCompleteCallback
 ---------------------------------------------------------------------------------
 (2) _I2C1_SetDataCompleteCallback                         4     1      3    2478
                                              5 COMMON     4     1      3
                   _I2C1_SetCallback
 ---------------------------------------------------------------------------------
 (3) _I2C1_SetCallback                                     5     2      3     914
                                              0 COMMON     5     2      3
 ---------------------------------------------------------------------------------
 (2) _I2C1_SetBuffer                                       4     2      2    1352
                                              0 COMMON     4     2      2
 ---------------------------------------------------------------------------------
 (7) _I2C1_DO_SEND_STOP                                    0     0      0       0
                    _I2C1_MasterStop
 ---------------------------------------------------------------------------------
 (8) _I2C1_MasterStop                                      0     0      0       0
 ---------------------------------------------------------------------------------
 (7) _I2C1_DO_SEND_RESTART                                 0     0      0       0
           _I2C1_MasterEnableRestart
 ---------------------------------------------------------------------------------
 (8) _I2C1_MasterEnableRestart                             0     0      0       0
 ---------------------------------------------------------------------------------
 (7) _I2C1_CallbackReturnStop                              1     0      1       0
                                              9 COMMON     1     0      1
 ---------------------------------------------------------------------------------
 (7) _I2C1_CallbackReturnReset                             1     0      1     265
                                              9 COMMON     1     0      1
 ---------------------------------------------------------------------------------
 (7) Absolute function(Fake)                               1     0      1       0
 ---------------------------------------------------------------------------------
 (4) _I2C1_MasterStart                                     0     0      0       0
 ---------------------------------------------------------------------------------
 (2) _I2C1_Close                                           2     2      0      24
                                              0 COMMON     2     2      0
                _I2C1_MasterClearIrq
                   _I2C1_MasterClose
              _I2C1_MasterDisableIrq
 ---------------------------------------------------------------------------------
 (3) _I2C1_MasterDisableIrq                                0     0      0       0
 ---------------------------------------------------------------------------------
 (3) _I2C1_MasterClose                                     0     0      0       0
 ---------------------------------------------------------------------------------
 (3) _I2C1_MasterClearIrq                                  0     0      0       0
 ---------------------------------------------------------------------------------
 Estimated maximum stack depth 8
 ---------------------------------------------------------------------------------

 Call Graph Graphs:

 _main (ROOT)
   _I2C1_Read1ByteRegister
     _I2C1_Close
       _I2C1_MasterClearIrq
       _I2C1_MasterClose
       _I2C1_MasterDisableIrq
     _I2C1_MasterWrite
       _I2C1_MasterOperation
         _I2C1_MasterStart
         _I2C1_Poller
           _I2C1_MasterFsm
             _I2C1_DO_ADDRESS_NACK *
               Absolute function(Fake) *
               _I2C1_CallbackReturnReset *
               _I2C1_CallbackReturnStop *
               _I2C1_DO_SEND_RESTART *
                 _I2C1_MasterEnableRestart
               _I2C1_DO_SEND_STOP *
                 _I2C1_MasterStop
               _rd1RegCompleteHandler *
                 _I2C1_SetBuffer
                 _I2C1_SetDataCompleteCallback
                   _I2C1_SetCallback
               _rd2RegCompleteHandler *
                 _I2C1_SetBuffer
                 _I2C1_SetDataCompleteCallback
               _rdBlkRegCompleteHandler *
                 _I2C1_SetBuffer
                 _I2C1_SetDataCompleteCallback
               _wr1RegCompleteHandler *
                 _I2C1_SetBuffer
                 _I2C1_SetDataCompleteCallback
               _wr2RegCompleteHandler *
                 _I2C1_SetBuffer
                 _I2C1_SetDataCompleteCallback
             _I2C1_DO_IDLE *
             _I2C1_DO_RCEN *
               _I2C1_MasterStartRx
             _I2C1_DO_RESET *
             _I2C1_DO_RX *
               Absolute function(Fake) *
               _I2C1_CallbackReturnReset *
               _I2C1_CallbackReturnStop *
               _I2C1_DO_RX_NACK_RESTART *
                 _I2C1_MasterSendNack
               _I2C1_DO_RX_NACK_STOP *
                 _I2C1_MasterSendNack
               _I2C1_MasterGetRxData *
               _I2C1_MasterSendAck *
               _rd1RegCompleteHandler *
               _rd2RegCompleteHandler *
               _rdBlkRegCompleteHandler *
               _wr1RegCompleteHandler *
               _wr2RegCompleteHandler *
             _I2C1_DO_RX_ACK *
               _I2C1_MasterSendAck
             _I2C1_DO_RX_NACK_RESTART *
             _I2C1_DO_RX_NACK_STOP *
             _I2C1_DO_SEND_ADR_READ *
               _I2C1_MasterSendTxData
             _I2C1_DO_SEND_ADR_WRITE *
               _I2C1_MasterSendTxData
             _I2C1_DO_SEND_RESTART *
             _I2C1_DO_SEND_RESTART_READ *
               _I2C1_MasterEnableRestart
             _I2C1_DO_SEND_RESTART_WRITE *
               _I2C1_MasterEnableRestart
             _I2C1_DO_SEND_STOP *
             _I2C1_DO_TX *
               Absolute function(Fake) *
               _I2C1_CallbackReturnReset *
               _I2C1_CallbackReturnStop *
               _I2C1_DO_SEND_RESTART_READ *
               _I2C1_DO_SEND_RESTART_WRITE *
               _I2C1_DO_SEND_STOP *
               _I2C1_MasterIsNack *
               _I2C1_MasterSendTxData *
               _rd1RegCompleteHandler *
               _rd2RegCompleteHandler *
               _rdBlkRegCompleteHandler *
               _wr1RegCompleteHandler *
               _wr2RegCompleteHandler *
             _I2C1_DO_TX_EMPTY *
               Absolute function(Fake) *
               _I2C1_CallbackReturnReset *
               _I2C1_CallbackReturnStop *
               _I2C1_DO_SEND_RESTART *
               _I2C1_DO_SEND_STOP *
               _I2C1_MasterSetIrq *
               _rd1RegCompleteHandler *
               _rd2RegCompleteHandler *
               _rdBlkRegCompleteHandler *
               _wr1RegCompleteHandler *
               _wr2RegCompleteHandler *
             _I2C1_MasterClearIrq *
             _I2C1_MasterIsNack *
           _I2C1_MasterWaitForEvent
     _I2C1_Open
       _I2C1_MasterClearIrq
       _I2C1_MasterOpen
     _I2C1_SetAddressNackCallback
       _I2C1_SetCallback
     _I2C1_SetBuffer
     _I2C1_SetDataCompleteCallback
   _SYSTEM_Initialize
     _EUSART_Initialize
       _EUSART_SetErrorHandler
       _EUSART_SetFramingErrorHandler
       _EUSART_SetOverrunErrorHandler
     _I2C1_Initialize
     _OSCILLATOR_Initialize
     _PIN_MANAGER_Initialize
     _PMD_Initialize
   ___wmul
   _printf
     ___lwdiv
     ___lwmod
       ___lwdiv (ARG)
     ___wmul (ARG)
     _putch (ARG)
       _EUSART_Write

 Address spaces:
Name               Size   Autos  Total    Cost      Usage
BIGRAM             3F0      0       0       0        0.0%
EEDATA             100      0       0       0        0.0%
NULL                 0      0       0       0        0.0%
CODE                 0      0       0       0        0.0%
BITCOMMON            E      0       0       1        0.0%
BITSFR0              0      0       0       1        0.0%
SFR0                 0      0       0       1        0.0%
COMMON               E      E       E       2      100.0%
BITSFR1              0      0       0       2        0.0%
SFR1                 0      0       0       2        0.0%
BITSFR2              0      0       0       3        0.0%
SFR2                 0      0       0       3        0.0%
STACK                0      0       0       3        0.0%
BITBANK0            50      0       0       4        0.0%
BITSFR3              0      0       0       4        0.0%
SFR3                 0      0       0       4        0.0%
BANK0               50     16      3A       5       72.5%
BITSFR4              0      0       0       5        0.0%
SFR4                 0      0       0       5        0.0%
BITBANK1            50      0       0       6        0.0%
BITSFR5              0      0       0       6        0.0%
SFR5                 0      0       0       6        0.0%
BANK1               50      0       0       7        0.0%
BITSFR6              0      0       0       7        0.0%
SFR6                 0      0       0       7        0.0%
BITBANK2            50      0       0       8        0.0%
BITSFR7              0      0       0       8        0.0%
SFR7                 0      0       0       8        0.0%
BANK2               50      0       0       9        0.0%
BITSFR8              0      0       0       9        0.0%
SFR8                 0      0       0       9        0.0%
BITBANK3            50      0       0      10        0.0%
BITSFR9              0      0       0      10        0.0%
SFR9                 0      0       0      10        0.0%
BANK3               50      0       0      11        0.0%
BITSFR10             0      0       0      11        0.0%
SFR10                0      0       0      11        0.0%
BITBANK4            50      0       0      12        0.0%
BITSFR11             0      0       0      12        0.0%
SFR11                0      0       0      12        0.0%
BANK4               50      0       0      13        0.0%
BITSFR12             0      0       0      13        0.0%
SFR12                0      0       0      13        0.0%
BITBANK5            50      0       0      14        0.0%
BITSFR13             0      0       0      14        0.0%
SFR13                0      0       0      14        0.0%
BANK5               50      0       0      15        0.0%
BITSFR14             0      0       0      15        0.0%
SFR14                0      0       0      15        0.0%
BITBANK6            50      0       0      16        0.0%
BITSFR15             0      0       0      16        0.0%
SFR15                0      0       0      16        0.0%
BANK6               50      0       0      17        0.0%
BITSFR16             0      0       0      17        0.0%
SFR16                0      0       0      17        0.0%
BITBANK7            50      0       0      18        0.0%
BITSFR17             0      0       0      18        0.0%
SFR17                0      0       0      18        0.0%
BANK7               50      0       0      19        0.0%
BITSFR18             0      0       0      19        0.0%
SFR18                0      0       0      19        0.0%
BITSFR19             0      0       0      20        0.0%
SFR19                0      0       0      20        0.0%
ABS                  0      0      48      20        0.0%
BITBANK8            50      0       0      21        0.0%
BITSFR20             0      0       0      21        0.0%
SFR20                0      0       0      21        0.0%
BANK8               50      0       0      22        0.0%
BITSFR21             0      0       0      22        0.0%
SFR21                0      0       0      22        0.0%
BITBANK9            50      0       0      23        0.0%
BITSFR22             0      0       0      23        0.0%
SFR22                0      0       0      23        0.0%
BANK9               50      0       0      24        0.0%
BITSFR23             0      0       0      24        0.0%
SFR23                0      0       0      24        0.0%
BITBANK10           50      0       0      25        0.0%
BITSFR24             0      0       0      25        0.0%
SFR24                0      0       0      25        0.0%
BANK10              50      0       0      26        0.0%
BITSFR25             0      0       0      26        0.0%
SFR25                0      0       0      26        0.0%
BITBANK11           50      0       0      27        0.0%
BITSFR26             0      0       0      27        0.0%
SFR26                0      0       0      27        0.0%
BANK11              50      0       0      28        0.0%
BITSFR27             0      0       0      28        0.0%
SFR27                0      0       0      28        0.0%
BITBANK12           30      0       0      29        0.0%
BITSFR28             0      0       0      29        0.0%
SFR28                0      0       0      29        0.0%
BANK12              30      0       0      30        0.0%
BITSFR29             0      0       0      30        0.0%
SFR29                0      0       0      30        0.0%
BITSFR30             0      0       0      31        0.0%
SFR30                0      0       0      31        0.0%
DATA                 0      0      48      31        0.0%
BITSFR31             0      0       0      32        0.0%
SFR31                0      0       0      32        0.0%


Microchip Technology PIC Macro Assembler V2.32 build 20210201212658 
Symbol Table                                                                                   Tue Mar 16 15:31:26 2021

                                           l33 05C0                                             l90 03BF  
                                           l93 03D0                                             l96 03E1  
                                           l99 03AE                            ___wmul@multiplicand 0072  
                                          l102 03F9                                            l210 0341  
                                          l140 033F                                            l213 0349  
                                          l231 02FB                                            l143 0324  
                                          l137 039D                                            l410 05FA  
                                          l234 0301                                            l219 0307  
                                          l420 0434                                            l237 02F5  
                                          l414 0415                                            l406 0336  
                                          l503 0314                                            l433 038D  
                                          l409 05F9                                            l602 02E9  
                                          l530 02C0                                            l426 02E3  
                                          l442 037D                                            l186 0475  
                                          l436 0356                                            l453 049B  
                                          l605 02AC                                            l509 0521  
                                          l533 02C5                                            l542 02D4  
                                          l623 0292                                            l527 02BB  
                                          l463 04C6                                            l608 02A8  
                                          l472 031C                                            l536 02CA  
                                          l632 02EA                                            l545 02D9  
                                          l626 028C                                            l562 0287  
                                          l466 02B6                                            l554 04F2  
                                          l298 058A                                            l475 06B5  
                                          l491 0654                                            l539 02CF  
                                          l459 0363                                            l492 067C  
                                          l548 02DE                                            l636 02EF  
                                          l565 0289                                            l581 02A1  
                                          l629 02A4                                            l469 032D  
                                          l478 06D1                                            l830 07F4  
                                          l575 0370                                            l584 02B1  
                                          l593 029E                                            l578 028F  
                                          l834 043F                                            l587 0298  
                                          l596 0295                                            l836 0453  
                                          l599 029B                                            u600 0384  
                                          u601 0383                                            u610 0685  
                                          u611 0684                                            u620 06CE  
                                          u700 041E                                            u621 06CD  
                                          u701 041D                                            u630 064F  
                                          u710 0425                                            u631 064E  
                                          u711 0424                                            u640 02EF  
                                          u720 05C9                                            u800 0632  
                                          u641 02EE                                            u721 05C8  
                                          u801 0631                                            u730 0401  
                                          u650 04A4                                            u810 0528  
                                          u731 0400                                            u651 04A3  
                                          u811 0527                                            u660 04AC  
                                          u740 0603                                            u661 04AB  
                                          u741 0602                                            u590 047D  
                                          u670 0363                                            u830 0538  
                                          u910 0737                                            u591 047C  
                                          u671 0362                                            u831 0537  
                                          u911 0736                                            u760 0613  
                                          u840 0542                                            u680 0346  
                                          u920 076B                                            u761 0612  
                                          u841 0541                                            u825 052C  
                                          u681 0345                                            u921 076A  
                                          u690 0369                                            u930 078F  
                                          u691 0368                                            u755 0607  
                                          u931 078E                                            u780 0622  
                                          u860 0551                                            u940 079A  
                                          u781 0621                                            u861 0550  
                                          u845 053E                                            u941 0799  
                                          u870 0598                                            u950 07A0  
                                          u871 0597                                            u775 0614  
                                          u855 0547                                            u951 079F  
                                          u935 078B                                            u880 05BE  
                                          u960 07DF                                            u881 05BD  
                                          u785 061E                                            u961 07DE  
                                          u970 07F4                                            u795 0628  
                                          u971 07F3                                            u980 043B  
                                          u981 043A                                            u995 0440  
                        ?_I2C1_MasterOperation 0070                 ?_EUSART_SetFramingErrorHandler 0070  
                      __size_of_PMD_Initialize 0008                                            wreg 0009  
                       ?_I2C1_MasterSendTxData 0070              __size_of_I2C1_MasterEnableRestart 0003  
                         _I2C1_DO_RX_NACK_STOP 02D0                      ?_I2C1_MasterEnableRestart 0070  
                         I2C1_SetBuffer@buffer 0073                                           l1106 0636  
                                         l1116 0555                        ??_rd2RegCompleteHandler 007A  
                                         l3000 071B                                           l2300 02E4  
                                         l3110 0513                                           l3102 0751  
                                         l2304 02AE                                           l2312 02BC  
                                         l2320 02C9                                           l3104 04EA  
                                         l2250 037F                                           l2242 0477  
                                         l2410 06CE                                           l3106 066E  
                                         l2306 02B7                                           l2314 02BF  
                                         l2330 02D5                                           l2252 0384  
                                         l2244 047D                                           l2260 02A5  
                                         l2324 029F                                           l2412 06D0  
                                         l3108 06A7                                           l2404 0692  
                                         l2420 0637                                           l2308 02BA  
                                         l2332 02D8                                           l2500 04CE  
                                         l2254 038C                                           l2246 048E  
                                         l2262 03AF                                           l2270 03C0  
                                         l2342 029C                                           l2350 02A2  
                                         l2406 06B7                                           l2422 0641  
                                         l2318 02C6                                           l2510 04D6  
                                         l2360 028A                                           l2256 0296  
                                         l2248 034A                                           l2264 03B7  
                                         l2272 03C8                                           l2280 03D9  
                                         l2352 0286                                           l2328 02A9  
                                         l2408 06C3                                           l2424 0645  
                                         l2344 02C1                                           l2336 02D0  
                                         l2504 04D2                                           l2520 049F  
                                         l2600 05E3                                           l2258 0299  
                                         l2290 03AD                                           l2266 03BE  
                                         l2274 03CF                                           l2282 03E0  
                                         l2362 02B2                                           l2370 0325  
                                         l2434 0656                                           l2426 064F  
                                         l2450 030E                                           l2346 02C4  
                                         l2338 02D3                                           l2522 04A4  
                                         l2530 0357                                           l2610 05F5  
                                         l2602 05E7                                           l2356 0288  
                                         l2460 04F6                                           l2364 02B4  
                                         l2372 0327                                           l2380 0317  
                                         l2444 065E                                           l2428 0652  
                                         l2452 0310                                           l2524 04AC  
                                         l2532 0358                                           l2612 05F8  
                                         l2604 05EC                                           l2540 02FC  
                                         l2700 045E                                           l2630 0409  
                                         l2622 03FA                                           l2286 039E  
                                         l2278 03D1                                           l2294 03E2  
                                         l2470 04FF                                           l2366 02B5  
                                         l2374 032C                                           l2382 031B  
                                         l2390 0686                                           l2438 065A  
                                         l2454 0313                                           l2526 04B1  
                                         l2518 049C                                           l2534 035B  
                                         l2550 0369                                           l2606 05ED  
                                         l2542 02F0                                           l2702 0465  
                                         l2710 05FB                                           l2560 0290  
                                         l2632 040C                                           l2624 0401  
                                         l2528 0293                                           l2288 03A6  
                                         l2296 03F8                                           l2464 04FA  
                                         l2536 035E                                           l2552 036A  
                                         l2608 05F2                                           l2616 0371  
                                         l2704 046C                                           l2640 031D  
                                         l2720 060F                                           l2712 05FD  
                                         l2544 0341                                           l2800 0731  
                                         l2562 028D                                           l2634 040F  
                                         l2626 0402                                           l2466 04FD  
                                         l2458 04F3                                           l2378 0315  
                                         l2394 068A                                           l2386 067D  
                                         l2482 02CB                                           l2490 02DC  
                                         l2570 0420                                           l2618 02DF  
                                         l2554 036C                                           l2538 02F6  
                                         l2706 0473                                           l2642 032E  
                                         l2650 0556                                           l2730 062C  
                                         l2722 0613                                           l2714 0603  
                                         l2546 0346                                           l2810 075C  
                                         l2802 0737                                           l2628 0406  
                                         l2636 0414                                           l2476 0503  
                                         l2484 02CE                                           l2492 02DD  
                                         l2572 0425                                           l2580 0432  
                                         l2564 0418                                           l2556 036F  
                                         l2548 0364                                           l2644 0330  
                                         l2660 0563                                           l2652 055A  
                                         l2724 0622                                           l2716 0606  
                                         l2732 0632                                           l2740 052B  
                                         l2708 0303                                           l2820 0774  
                                         l2812 0763                                           l2804 073C  
                                         l2398 068E                                           l2574 0428  
                                         l2566 041E                                           l2590 05CE  
                                         l2646 0332                                           l2670 0574  
                                         l2662 0565                                           l2654 055C  
                                         l2726 0626                                           l2718 060B  
                                         l2750 0546                                           l2742 0530  
                                         l2830 0790                                           l2814 0767  
                                         l2488 02DA                                           l2496 04C7  
                                         l2576 042C                                           l2568 041F  
                                         l2592 05CF                                           l2584 05C2  
                                         l2760 058E                                           l2648 0335  
                                         l2680 0580                                           l2672 0576  
                                         l2664 056E                                           l2656 055E  
                                         l2728 0627                                           l2752 054B  
                                         l2744 0534                                           l2736 0522  
                                         l2840 07D1                                           l2832 079A  
                                         l2816 076B                                           l2808 073D  
                                         l2498 04C9                                           l2578 042F  
                                         l2594 05D8                                           l2586 05C9  
                                         l2770 05B6                                           l2762 0598  
                                         l2690 033A                                           l2682 0582  
                                         l2674 0578                                           l2666 0570  
                                         l2658 0560                                           l2850 0435  
                                         l2746 0538                                           l2738 0528  
                                         l2754 0551                                           l2842 07D5  
                                         l2834 07A0                                           l2826 0776  
                                         l2818 076F                                           l2596 05DD  
                                         l2588 05CD                                           l2772 05BE  
                                         l2764 05A4                                           l2692 033B  
                                         l2684 0585                                           l2676 057B  
                                         l2668 0572                                           l2780 0394  
                                         l2860 044F                                           l2852 0437  
                                         l2748 0542                                           l2836 07A4  
                                         l2844 07DF                                           l2598 05DE  
                                         l2766 05AC                                           l2758 058D  
                                         l2694 033E                                           l2686 0587  
                                         l2678 057D                                           l2782 0397  
                                         l2854 043B                                           l2838 07AA  
                                         l2768 05B3                                           l2696 0454  
                                         l2688 0337                                           l2784 039A  
                                         l2776 038E                                           l2856 0444  
                                         l2698 045D                                           l2778 0391  
                                         l2858 0449                                           l2798 072B  
                                         l2990 06D7                                           l2992 06DF  
                                         l2994 06E9                                           l2986 06D2  
                                         l2996 06F5                                           l2988 06D4  
                                         l2998 06FA                                           STR_1 0843  
                                         STR_2 0800                                           u1010 044F  
                                         u1011 044E                                           u1005 0445  
                                         u1157 0721                                           _LATA 0016  
                                         _LATB 0017                                           _LATC 0018  
                                         _PMD0 0796                                           _PMD1 0797  
                                         _PMD2 0798                                           _PMD3 0799  
                                         _PMD4 079A                                           _PMD5 079B  
                                         _WPUA 0F39                                           _WPUB 0F44  
                                         _WPUC 0F4F                                           _WPUE 0F65  
                      ??_wr2RegCompleteHandler 007A                               ??_I2C1_MasterFsm 003E  
             __size_of_I2C1_DO_RX_NACK_RESTART 0005                      ??_I2C1_CallbackReturnStop 007A  
                                         _main 06D2                                           fsr0h 0005  
                                         fsr1h 0007                                           indf0 0000  
                                         fsr0l 0004                                           indf1 0001  
                                         fsr1l 0006                                           btemp 007E  
                                         start 0002                               ??_I2C1_SetBuffer 0072  
             __size_of_rdBlkRegCompleteHandler 0018                  I2C1_CallbackReturnStop@funPtr 0079  
                                ?_EUSART_Write 0070                 __size_of_OSCILLATOR_Initialize 0009  
                __end_of_OSCILLATOR_Initialize 0340                              __end_of_I2C1_Open 05FB  
                                        ?_main 0070                                __end_of___lwdiv 0637  
                              __end_of___lwmod 0556                     __end_of_i2c1_fsmStateTable 0843  
                                        _OSCEN 0891                                          _TRISA 0011  
                                        _TRISB 0012                                          _TRISC 0013  
                       ??_I2C1_MasterGetRxData 0070                                          _RXPPS 0ECB  
                        ?_I2C1_DO_RX_NACK_STOP 0070                     ??_I2C1_CallbackReturnReset 007A  
                            ??_I2C1_MasterOpen 0070                              ??_I2C1_MasterStop 0070  
                            ??_I2C1_Initialize 0070                                __end_of_dpowers 0867  
                                        _putch 0302                                          pclath 000A  
                                        status 0003                    __size_of_I2C1_MasterSendAck 0004  
                                        wtemp0 007E                                   ??_I2C1_DO_RX 007A  
                                 ??_I2C1_DO_TX 007A                         ??_I2C1_DO_ADDRESS_NACK 007A  
                                 ??_I2C1_Close 0070                    __size_of_I2C1_MasterStartRx 0003  
                              __initialization 07F5                                   __end_of_main 072B  
                               ??_EUSART_Write 0070                         ??_I2C1_MasterOperation 007D  
                                       ??_main 004E                  __size_of_I2C1_DO_SEND_RESTART 0005  
                           __end_of_I2C1_DO_RX 067D                             __end_of_I2C1_DO_TX 06D2  
                           __end_of_I2C1_Close 0416              _EUSART_DefaultFramingErrorHandler 0000  
                      ?_I2C1_Read1ByteRegister 0043                     _EUSART_OverrunErrorHandler 0056  
                                       _ANSELA 0F38                                         ?_putch 0070  
                                       _ANSELB 0F43                                         _ANSELC 0F4E  
                                       _RC1REG 0119                                         _RC0PPS 0F20  
                                       _RC1STA 011D                                         _RC3PPS 0F23  
                                       _RC4PPS 0F24                                         _ODCONA 0F3A  
                                       _ODCONB 0F45                                         _ODCONC 0F50  
         __size_of_I2C1_SetAddressNackCallback 000D                                         _INLVLA 0F3C  
                                       _INLVLB 0F47                                         _INLVLC 0F52  
                                       _INLVLE 0F68                                         _OSCFRQ 0893  
                                       _TX1REG 011A                                         _TX1STA 011E  
                            ?_I2C1_MasterClose 0070                        ??_I2C1_MasterDisableIrq 0070  
                            ?_I2C1_MasterStart 0070                              ?_I2C1_MasterWrite 0070  
                     ?_I2C1_MasterWaitForEvent 0070                             ??_I2C1_MasterClose 0070  
                             _I2C1_DO_TX_EMPTY 04F3                             ??_I2C1_MasterStart 0070  
                           ??_I2C1_MasterWrite 007E                                         ___wmul 0435  
                                    ??___lwdiv 0074                                      ??___lwmod 007C  
                 __size_of_I2C1_MasterClearIrq 0003                                         _printf 072B  
                                       main@r1 0052                                         main@r2 0053  
                     ??_I2C1_DO_SEND_ADR_WRITE 0071                              ?_I2C1_SetCallback 0070  
                       ??_I2C1_DO_RX_NACK_STOP 0070                          _I2C1_DO_SEND_ADR_READ 0325  
                               _PMD_Initialize 031D                  ?_I2C1_SetDataCompleteCallback 0075  
                           ??_I2C1_SetCallback 0073                 __end_of_I2C1_Read1ByteRegister 05C1  
                 __size_of_I2C1_MasterSendNack 0004                        _I2C1_DO_RX_NACK_RESTART 02D5  
                            _SYSTEM_Initialize 038E                 I2C1_SetDataCompleteCallback@cb 0075  
                      __end_of__initialization 07FD                I2C1_MasterOperation@returnValue 0042  
                           ?_SYSTEM_Initialize 0070                                  ??_I2C1_Poller 007D  
                      _rdBlkRegCompleteHandler 03E2                                 __pcstackCOMMON 0070  
                          ??_SYSTEM_Initialize 0072               __end_of_I2C1_MasterEnableRestart 0299  
                                __end_of_putch 0308                         __end_of_PMD_Initialize 0325  
                 ??_I2C1_DO_SEND_RESTART_WRITE 0070                        ??_I2C1_MasterSendTxData 0070  
                        __end_of_I2C1_DO_RESET 02DF                ??_EUSART_SetOverrunErrorHandler 0072  
                    __end_of_SYSTEM_Initialize 039E                                        ??_putch 0071  
                                   __pbssBANK0 0020                __end_of_I2C1_MasterWaitForEvent 02F0  
                         __end_of_EUSART_Write 034A                 __size_of_rd2RegCompleteHandler 0011  
                __end_of_rd2RegCompleteHandler 03D1                           I2C1_Open@returnValue 0072  
               __size_of_wr2RegCompleteHandler 0011                  __end_of_wr2RegCompleteHandler 03AF  
                        _rd1RegCompleteHandler 03AF                              _I2C1_DO_SEND_STOP 02C6  
                        _wr1RegCompleteHandler 03D1            __size_of_I2C1_DO_SEND_RESTART_WRITE 0005  
                                   __pmaintext 06D2                       rd1RegCompleteHandler@ptr 0079  
                           ?_I2C1_DO_SEND_STOP 0070                                        ?___wmul 0070  
                              _I2C1_MasterOpen 0364                                _I2C1_MasterStop 0299  
                              _I2C1_Initialize 032E                            __end_of_I2C1_Poller 0364  
                      __size_of_I2C1_DO_RX_ACK 0005                                        ?_printf 003E  
                              ?_PMD_Initialize 0070                         ?_I2C1_DO_SEND_ADR_READ 0070  
                          ??_I2C1_DO_SEND_STOP 0070                __size_of_I2C1_DO_SEND_ADR_WRITE 0008  
                            _I2C1_MasterIsNack 02E4                                        _SP1BRGH 011C  
                                      _SP1BRGL 011B                                        _OSCCON1 088D  
                                      _OSCCON3 088F                                      _I2C1_Open 05C1  
                    ??_I2C1_DO_RX_NACK_RESTART 0070                                        _OSCTUNE 0892  
                            _I2C1_MasterSetIrq 02A2             __size_of_I2C1_DO_SEND_RESTART_READ 0005  
                                      _SSP1ADD 018D                                        _SLRCONA 0F3B  
                                      _SLRCONB 0F46                                        _SLRCONC 0F51  
                                      _SSP1BUF 018C                             ?_I2C1_MasterIsNack 0070  
                   ?_I2C1_DO_SEND_RESTART_READ 0070                       ??_EUSART_SetErrorHandler 0072  
               ??_I2C1_SetDataCompleteCallback 0078                             ?_I2C1_MasterSetIrq 0070  
                           _i2c1_fsmStateTable 0823                            ??_I2C1_MasterIsNack 0070  
                    __end_of_I2C1_DO_SEND_STOP 02CB                      ??_rdBlkRegCompleteHandler 007A  
                           I2C1_SetCallback@cb 0070                            ??_I2C1_MasterSetIrq 0070  
                              __size_of___wmul 001F                                        ___lwdiv 05FB  
                                      ___lwmod 0522                                  ?_I2C1_DO_IDLE 0070  
                                ?_I2C1_DO_RCEN 0070                                        __ptext1 072B  
                                      __ptext2 0302                                        __ptext3 0340  
                                      __ptext4 0522                                        __ptext5 05FB  
                                      __ptext6 0435                                        __ptext7 038E  
                                      __ptext8 031D                                        __ptext9 0556  
                     _I2C1_MasterEnableRestart 0296                                __size_of_printf 00CA  
                    __end_of_I2C1_MasterIsNack 02EA                   ?_I2C1_SetAddressNackCallback 0075  
                                      _dpowers 085D                          _OSCILLATOR_Initialize 0337  
                    __end_of_I2C1_MasterSetIrq 02A5                       __end_of_I2C1_DO_TX_EMPTY 0522  
                     ??_PIN_MANAGER_Initialize 0070                       wr1RegCompleteHandler@ptr 0079  
                                   ?_I2C1_Open 0070                  __size_of_I2C1_MasterGetRxData 0003  
                     ?_I2C1_CallbackReturnStop 0079                     __size_of_SYSTEM_Initialize 0010  
                                      clrloop0 0309              __end_of_I2C1_DO_SEND_RESTART_READ 02BC  
                         end_of_initialization 07FD                     __end_of_I2C1_MasterSendAck 02AD  
                          _I2C1_MasterClearIrq 028A          __end_of_EUSART_SetOverrunErrorHandler 0302  
       __size_of_EUSART_SetOverrunErrorHandler 0006                  _EUSART_SetOverrunErrorHandler 02FC  
                   __end_of_I2C1_MasterStartRx 029F                         ?_rd1RegCompleteHandler 0079  
                       _I2C1_DO_SEND_ADR_WRITE 0315                   __end_of_I2C1_DO_SEND_RESTART 02C6  
                            _EUSART_Initialize 0454                        __end_of_I2C1_MasterOpen 0371  
                       ?_wr1RegCompleteHandler 0079                        __end_of_I2C1_MasterStop 029C  
                      __end_of_I2C1_Initialize 0337              __size_of_I2C1_CallbackReturnReset 0002  
                                  _I2C1_Poller 0357                 __size_of_I2C1_MasterDisableIrq 0003  
                    ?_I2C1_CallbackReturnReset 0079                  __end_of_I2C1_MasterDisableIrq 0293  
                                  _I2C1_Status 0020                  __size_of_I2C1_DO_ADDRESS_NACK 002C  
                           ?_EUSART_Initialize 0070                                        printf@c 004D  
                                      printf@f 003E                        __size_of_I2C1_MasterFsm 002B  
                          _I2C1_MasterSendNack 02A5            __end_of_I2C1_SetAddressNackCallback 037E  
                  _I2C1_SetAddressNackCallback 0371                           ?_I2C1_MasterClearIrq 0070  
                               ??_I2C1_DO_IDLE 0070                                 ??_I2C1_DO_RCEN 0070  
           __end_of_I2C1_DO_SEND_RESTART_WRITE 02C1                     _I2C1_DO_SEND_RESTART_WRITE 02BC  
                    __size_of_I2C1_MasterClose 0003                            ??_EUSART_Initialize 0072  
                      __size_of_I2C1_SetBuffer 0010                __end_of_rdBlkRegCompleteHandler 03FA  
             __size_of_I2C1_MasterWaitForEvent 0006                      __size_of_I2C1_MasterStart 0003  
                    __size_of_I2C1_MasterWrite 0005                  __size_of_I2C1_MasterOperation 001F  
                ??_I2C1_SetAddressNackCallback 0078                      I2C1_Read1ByteRegister@reg 0043  
              I2C1_SetDataCompleteCallback@ptr 0077                          __size_of_EUSART_Write 000A  
               I2C1_CallbackReturnReset@funPtr 0079                           ?_I2C1_MasterSendNack 0070  
              __size_of_EUSART_SetErrorHandler 0006                      __end_of_EUSART_Initialize 0476  
                    __size_of_I2C1_SetCallback 0026                     rdBlkRegCompleteHandler@ptr 0079  
                   __size_of_I2C1_DO_SEND_STOP 0005                          ??_I2C1_MasterClearIrq 0070  
                   _EUSART_DefaultErrorHandler 0000                                 __end_of___wmul 0454  
                               _I2C1_DO_RX_ACK 02CB                                   _EUSART_Write 0340  
                       ?_OSCILLATOR_Initialize 0070                     __size_of_I2C1_MasterIsNack 0006  
              __end_of_I2C1_CallbackReturnStop 0288                                 __end_of_printf 07F5  
               __size_of_I2C1_MasterSendTxData 0005                  __end_of_I2C1_MasterSendTxData 02B2  
                   __size_of_I2C1_MasterSetIrq 0003                            start_initialization 07F5  
                                  ??_I2C1_Open 0070                  __size_of_I2C1_DO_RX_NACK_STOP 0005  
              __size_of_PIN_MANAGER_Initialize 0035                          ??_I2C1_MasterSendNack 0070  
                                  putch@txData 0071                       I2C1_SetBuffer@bufferSize 0070  
                             ?_I2C1_MasterOpen 0070                               ?_I2C1_MasterStop 0070  
                             ?_I2C1_Initialize 0070                 ?_EUSART_SetOverrunErrorHandler 0070  
                   _EUSART_FramingErrorHandler 0058                               ??_PMD_Initialize 0070  
                       __end_of_I2C1_DO_RX_ACK 02D0                                       ??___wmul 0074  
                       _EUSART_SetErrorHandler 02F0                        ??_I2C1_DO_SEND_ADR_READ 0070  
                                     ??_printf 0044                               I2C1_Open@address 0071  
                         _I2C1_DO_SEND_RESTART 02C1                                      ___latbits 0002  
                                __pcstackBANK0 003E                    ??_I2C1_DO_SEND_RESTART_READ 0070  
                         __end_of_I2C1_DO_IDLE 02B7                           __end_of_I2C1_DO_RCEN 0315  
                   __size_of_EUSART_Initialize 0022                  I2C1_SetAddressNackCallback@cb 0075  
                                    __pnvBANK0 0054                          _rd2RegCompleteHandler 03C0  
                             ___lwdiv@dividend 0072                         _PIN_MANAGER_Initialize 0556  
                        _wr2RegCompleteHandler 039E                     ??_I2C1_MasterEnableRestart 0070  
                     rd2RegCompleteHandler@ptr 0079                                 _I2C1_MasterFsm 049C  
                       __size_of_I2C1_DO_RESET 0005                                ?_I2C1_DO_RX_ACK 0070  
                                     ?___lwdiv 0070                                       ?___lwmod 0078  
                      _I2C1_MasterWaitForEvent 02EA                               _I2C1_MasterClose 028D  
                     ??_I2C1_Read1ByteRegister 0044                                 _I2C1_SetBuffer 037E  
                             _I2C1_MasterStart 0293                               _I2C1_MasterWrite 02DF  
                                     _BAUD1CON 011F                          ?_I2C1_DO_SEND_RESTART 0070  
                            ?_I2C1_DO_TX_EMPTY 0070               __end_of_I2C1_CallbackReturnReset 028A  
                             ___lwdiv@quotient 0075                             ??_I2C1_DO_TX_EMPTY 007A  
                      ??_rd1RegCompleteHandler 007A                        ?_I2C1_DO_SEND_ADR_WRITE 0070  
                    I2C1_MasterSendTxData@data 0070                                 __size_of_putch 0006  
                      ??_wr1RegCompleteHandler 007A                               _I2C1_SetCallback 0476  
                               ___wmul@product 0074         EUSART_SetErrorHandler@interruptHandler 0070  
                                   _I2C1_DO_RX 0637                                     _I2C1_DO_TX 067D  
                                    clear_ram0 0308                                       _PIE3bits 0719  
                            _eusartRxLastError 003D                                     _I2C1_Close 03FA  
                                 ?_I2C1_Poller 0070                         __end_of_I2C1_MasterFsm 04C7  
                 __end_of_I2C1_MasterGetRxData 02A2               __size_of_I2C1_CallbackReturnStop 0002  
              ??_EUSART_SetFramingErrorHandler 0072                                       _PIR3bits 070F  
                           _I2C1_MasterSendAck 02A9                      _I2C1_DO_SEND_RESTART_READ 02B7  
                                     _SSP1CON1 0190                                       _SSP1CON2 0191  
            _EUSART_DefaultOverrunErrorHandler 0000                         __end_of_I2C1_SetBuffer 038E  
                                     _SSP1STAT 018F           __end_of_I2C1_SetDataCompleteCallback 0357  
        __size_of_I2C1_SetDataCompleteCallback 000D                   _I2C1_SetDataCompleteCallback 034A  
                           _I2C1_MasterStartRx 029C                    ?_I2C1_DO_SEND_RESTART_WRITE 0070  
                          ?_I2C1_MasterSendAck 0070                              ___wmul@multiplier 0070  
                     ?_I2C1_DO_RX_NACK_RESTART 0070                                     printf@flag 0049  
                                   printf@prec 004A                            ?_I2C1_MasterStartRx 0070  
                 __end_of_I2C1_DO_ADDRESS_NACK 04F3                       wr2RegCompleteHandler@ptr 0079  
               __end_of_I2C1_DO_SEND_ADR_WRITE 031D                                  _I2C1_DO_RESET 02DA  
                        I2C1_Close@returnValue 0071                       ?_rdBlkRegCompleteHandler 0079  
                          I2C1_SetCallback@idx 0074                            I2C1_SetCallback@ptr 0072  
                         ??_I2C1_MasterSendAck 0070                         ?_rd2RegCompleteHandler 0079  
                 __end_of_I2C1_MasterOperation 0435                         ?_wr2RegCompleteHandler 0079  
                         ??_I2C1_MasterStartRx 0070                                ?_I2C1_MasterFsm 0070  
                    ??_I2C1_MasterWaitForEvent 0070                          _I2C1_MasterDisableIrq 0290  
                      ??_OSCILLATOR_Initialize 0070                            _EUSART_ErrorHandler 0054  
                              ?_I2C1_SetBuffer 0070                               __size_of___lwdiv 003C  
                             __size_of___lwmod 0034                __size_of_I2C1_Read1ByteRegister 0036  
            I2C1_Read1ByteRegister@returnValue 0046                         ??_I2C1_DO_SEND_RESTART 0070  
                              ___lwdiv@divisor 0070                                 ?_I2C1_DO_RESET 0070  
                        __size_of_I2C1_DO_IDLE 0005                          __size_of_I2C1_DO_RCEN 0007  
                              ___lwdiv@counter 0077                                       __ptext10 0337  
                                     __ptext11 032E                                       __ptext20 02DF  
                                     __ptext12 0454                                       __ptext21 0416  
                                     __ptext13 02FC                                       __ptext30 02C6  
                                     __ptext22 0357                                       __ptext14 02F6  
                                     __ptext31 02C1                                       __ptext23 02EA  
                                     __ptext15 02F0                                       __ptext40 04F3  
                                     __ptext32 02BC                                       __ptext24 049C  
                                     __ptext16 058B                                       __ptext41 02A2  
                                     __ptext33 02B7                                       __ptext25 04C7  
                                     __ptext17 0371                                       __ptext50 03E2  
                                     __ptext42 02E4                                       __ptext34 030E  
                                     __ptext26 02DA                                       __ptext18 05C1  
                                     __ptext51 03D1                                       __ptext43 02AD  
                                     __ptext35 0637                                       __ptext27 02D5  
                                     __ptext19 0364                                       __ptext60 0293  
                                     __ptext52 03C0                                       __ptext44 02A9  
                                     __ptext36 067D                                       __ptext28 02D0  
                                     __ptext61 03FA                                       __ptext53 03AF  
                                     __ptext45 029F                                       __ptext37 0315  
                                     __ptext29 02CB                                       __ptext62 0290  
                                     __ptext54 039E                                       __ptext46 02A5  
                                     __ptext38 0325                                       __ptext63 028D  
                                     __ptext55 034A                                       __ptext47 029C  
                                     __ptext39 02B2                                       __ptext64 028A  
                                     __ptext56 0476                                       __ptext48 0288  
                                     __ptext57 037E                                       __ptext49 0286  
                                     __ptext58 0299                                       __ptext59 0296  
                                 _SSP1CON1bits 0190                                   _SSP1CON2bits 0191  
                     _I2C1_CallbackReturnReset 0288                                  __size_of_main 0059  
                                  ?_I2C1_DO_RX 0070                                    ?_I2C1_DO_TX 0070  
                  __end_of_I2C1_MasterClearIrq 028D                   __end_of_I2C1_DO_RX_NACK_STOP 02D5  
                                  ?_I2C1_Close 0070                        ?_EUSART_SetErrorHandler 0070  
                                   _RC1STAbits 011D  EUSART_SetOverrunErrorHandler@interruptHandler 0070  
              __end_of_I2C1_DO_RX_NACK_RESTART 02DA                       I2C1_MasterOperation@read 0041  
        __end_of_EUSART_SetFramingErrorHandler 02FC         __size_of_EUSART_SetFramingErrorHandler 0006  
                _EUSART_SetFramingErrorHandler 02F6                                      printf@val 004B  
                                 _SSP1STATbits 018F                 __size_of_I2C1_DO_SEND_ADR_READ 0009  
                __end_of_I2C1_DO_SEND_ADR_READ 032E                                   _I2C1_DO_IDLE 02B2  
                                 _I2C1_DO_RCEN 030E                    __end_of_I2C1_MasterSendNack 02A9  
               I2C1_SetAddressNackCallback@ptr 0077                           _I2C1_MasterGetRxData 029F  
                        _I2C1_MasterSendTxData 02AD                       __end_of_I2C1_MasterClose 0290  
                       _I2C1_Read1ByteRegister 058B                               ___lwmod@dividend 007A  
                      ?_PIN_MANAGER_Initialize 0070                  I2C1_Read1ByteRegister@address 0045  
                     __end_of_I2C1_MasterStart 0296                       __end_of_I2C1_MasterWrite 02E4  
               __end_of_EUSART_SetErrorHandler 02F6                               ??_I2C1_DO_RX_ACK 0070  
                      _I2C1_CallbackReturnStop 0286                           _I2C1_DO_ADDRESS_NACK 04C7  
                       ?_I2C1_MasterDisableIrq 0070                           __size_of_I2C1_Poller 000D  
                                     printf@ap 0048  EUSART_SetFramingErrorHandler@interruptHandler 0070  
                     __size_of_I2C1_MasterOpen 000D                       __size_of_I2C1_MasterStop 0003  
                     __size_of_I2C1_Initialize 0009                                  __pstringtext1 0823  
                                __pstringtext2 085D                                  __pstringtext3 0800  
                                __pstringtext4 0843                                  __pstringtext5 0000  
                     __end_of_I2C1_SetCallback 049C                                     _SSP1DATPPS 0EC6  
                                   _SSP1CLKPPS 0EC5                            __size_of_I2C1_DO_RX 0046  
                          __size_of_I2C1_DO_TX 0055                                ??_I2C1_DO_RESET 0070  
                              ___lwmod@divisor 0078                           _I2C1_MasterOperation 0416  
                              ___lwmod@counter 007D                            __size_of_I2C1_Close 001C  
                        ?_I2C1_MasterGetRxData 0070                                     _TX1STAbits 011E  
                           EUSART_Write@txData 0070                 __end_of_PIN_MANAGER_Initialize 058B  
               __size_of_rd1RegCompleteHandler 0011                  __end_of_rd1RegCompleteHandler 03C0  
                           __size_of_I2C1_Open 003A                 __size_of_wr1RegCompleteHandler 0011  
                __end_of_wr1RegCompleteHandler 03E2                      __size_of_I2C1_DO_TX_EMPTY 002F  
                        ?_I2C1_DO_ADDRESS_NACK 0070  
