

Microchip MPLAB XC8 Assembler V2.35 build 20211206165544 
                                                                                               Sat Feb 05 19:29:29 2022

Microchip MPLAB XC8 C Compiler v2.35 (Free license) build 20211206165544 Og1 
     1                           	processor	16LF18855
     2                           	pagewidth 120
     3                           	opt	flic
     4                           	psect	nvBANK1,global,class=BANK1,space=1,delta=1,noexec
     5                           	psect	stringtext1,global,class=STRCODE,delta=2,noexec
     6                           	psect	stringtext2,global,class=STRCODE,delta=2,noexec
     7                           	psect	stringtext3,global,class=STRCODE,delta=2,noexec
     8                           	psect	cinit,global,class=CODE,merge=1,delta=2
     9                           	psect	bssBANK1,global,class=BANK1,space=1,delta=1,noexec
    10                           	psect	clrtext,global,class=CODE,delta=2
    11                           	psect	cstackCOMMON,global,class=COMMON,space=1,delta=1,noexec
    12                           	psect	cstackBANK0,global,class=BANK0,space=1,delta=1,noexec
    13                           	psect	maintext,global,class=CODE,merge=1,split=1,delta=2
    14                           	psect	text1,local,class=CODE,merge=1,delta=2,group=3
    15                           	psect	text2,local,class=CODE,merge=1,delta=2,group=1
    16                           	psect	text3,local,class=CODE,merge=1,delta=2,group=1
    17                           	psect	text4,local,class=CODE,merge=1,delta=2,group=1
    18                           	psect	text5,local,class=CODE,merge=1,delta=2,group=1
    19                           	psect	text6,local,class=CODE,merge=1,delta=2,group=3
    20                           	psect	text7,local,class=CODE,merge=1,delta=2,group=3
    21                           	psect	text8,local,class=CODE,merge=1,delta=2,group=3
    22                           	psect	text9,local,class=CODE,merge=1,delta=2
    23                           	psect	text10,local,class=CODE,merge=1,delta=2
    24                           	psect	text11,local,class=CODE,merge=1,delta=2,group=3
    25                           	psect	text12,local,class=CODE,merge=1,delta=2,group=2
    26                           	psect	text13,local,class=CODE,merge=1,delta=2,group=2
    27                           	psect	text14,local,class=CODE,merge=1,delta=2
    28                           	psect	text15,local,class=CODE,merge=1,delta=2
    29                           	psect	text16,local,class=CODE,merge=1,delta=2
    30                           	psect	text17,local,class=CODE,merge=1,delta=2
    31                           	psect	text18,local,class=CODE,merge=1,delta=2
    32                           	psect	text19,local,class=CODE,merge=1,delta=2
    33                           	psect	text20,local,class=CODE,merge=1,delta=2
    34                           	psect	text21,local,class=CODE,merge=1,delta=2
    35                           	psect	text22,local,class=CODE,merge=1,delta=2
    36                           	psect	text23,local,class=CODE,merge=1,delta=2
    37                           	psect	idloc,global,abs,ovrld,class=IDLOC,space=5,delta=2,noexec
    38                           	psect	config,global,abs,ovrld,class=CONFIG,space=4,delta=2,noexec
    39                           	dabs	1,0x7E,2
    40  0000                     
    41                           ; Version 2.40
    42                           ; Generated 02/12/2021 GMT
    43                           ; 
    44                           ; Copyright © 2021, Microchip Technology Inc. and its subsidiaries ("Microchip")
    45                           ; All rights reserved.
    46                           ; 
    47                           ; This software is developed by Microchip Technology Inc. and its subsidiaries ("Microch
      +                          ip").
    48                           ; 
    49                           ; Redistribution and use in source and binary forms, with or without modification, are
    50                           ; permitted provided that the following conditions are met:
    51                           ; 
    52                           ;     1. Redistributions of source code must retain the above copyright notice, this lis
      +                          t of
    53                           ;        conditions and the following disclaimer.
    54                           ; 
    55                           ;     2. Redistributions in binary form must reproduce the above copyright notice, this 
      +                          list
    56                           ;        of conditions and the following disclaimer in the documentation and/or other
    57                           ;        materials provided with the distribution. Publication is not required when
    58                           ;        this file is used in an embedded application.
    59                           ; 
    60                           ;     3. Microchip's name may not be used to endorse or promote products derived from th
      +                          is
    61                           ;        software without specific prior written permission.
    62                           ; 
    63                           ; THIS SOFTWARE IS PROVIDED BY MICROCHIP "AS IS" AND ANY EXPRESS OR IMPLIED WARRANTIES,
    64                           ; INCLUDING, BUT NOT LIMITED TO, THE IMPLIED WARRANTIES OF MERCHANTABILITY AND FITNESS F
      +                          OR
    65                           ; PURPOSE ARE DISCLAIMED.  IN NO EVENT SHALL MICROCHIP BE LIABLE FOR ANY DIRECT, INDIREC
      +                          T,
    66                           ; INCIDENTAL, SPECIAL, EXEMPLARY, OR CONSEQUENTIAL DAMAGES (INCLUDING BUT NOT LIMITED TO
    67                           ; PROCUREMENT OF SUBSTITUTE GOODS OR SERVICES; LOSS OF USE, DATA OR PROFITS; OR BUSINESS
    68                           ; INTERRUPTION) HOWSOEVER CAUSED AND ON ANY THEORY OF LIABILITY, WHETHER IN CONTRACT, ST
      +                          RICT
    69                           ; LIABILITY, OR TORT (INCLUDING NEGLIGENCE OR OTHERWISE) ARISING IN ANY WAY OUT OF THE U
      +                          SE OF
    70                           ; THIS SOFTWARE, EVEN IF ADVISED OF THE POSSIBILITY OF SUCH DAMAGE.
    71                           ; 
    72                           ; 
    73                           ; Code-generator required, PIC16LF18855 Definitions
    74                           ; 
    75                           ; SFR Addresses
    76  0000                     	;# 
    77  0001                     	;# 
    78  0002                     	;# 
    79  0003                     	;# 
    80  0004                     	;# 
    81  0005                     	;# 
    82  0006                     	;# 
    83  0007                     	;# 
    84  0008                     	;# 
    85  0009                     	;# 
    86  000A                     	;# 
    87  000B                     	;# 
    88  000C                     	;# 
    89  000D                     	;# 
    90  000E                     	;# 
    91  0010                     	;# 
    92  0011                     	;# 
    93  0012                     	;# 
    94  0013                     	;# 
    95  0016                     	;# 
    96  0017                     	;# 
    97  0018                     	;# 
    98  001C                     	;# 
    99  001C                     	;# 
   100  001D                     	;# 
   101  001D                     	;# 
   102  001E                     	;# 
   103  001F                     	;# 
   104  008C                     	;# 
   105  008C                     	;# 
   106  008D                     	;# 
   107  008E                     	;# 
   108  008E                     	;# 
   109  008F                     	;# 
   110  0090                     	;# 
   111  0090                     	;# 
   112  0091                     	;# 
   113  0093                     	;# 
   114  0094                     	;# 
   115  0095                     	;# 
   116  0096                     	;# 
   117  0097                     	;# 
   118  0098                     	;# 
   119  0099                     	;# 
   120  009A                     	;# 
   121  009B                     	;# 
   122  009C                     	;# 
   123  009D                     	;# 
   124  009E                     	;# 
   125  010C                     	;# 
   126  010D                     	;# 
   127  010E                     	;# 
   128  010E                     	;# 
   129  010F                     	;# 
   130  0110                     	;# 
   131  0110                     	;# 
   132  0111                     	;# 
   133  0112                     	;# 
   134  0112                     	;# 
   135  0113                     	;# 
   136  0114                     	;# 
   137  0114                     	;# 
   138  0115                     	;# 
   139  0116                     	;# 
   140  0116                     	;# 
   141  0117                     	;# 
   142  0119                     	;# 
   143  0119                     	;# 
   144  0119                     	;# 
   145  011A                     	;# 
   146  011A                     	;# 
   147  011A                     	;# 
   148  011B                     	;# 
   149  011B                     	;# 
   150  011B                     	;# 
   151  011B                     	;# 
   152  011B                     	;# 
   153  011C                     	;# 
   154  011C                     	;# 
   155  011C                     	;# 
   156  011D                     	;# 
   157  011D                     	;# 
   158  011D                     	;# 
   159  011E                     	;# 
   160  011E                     	;# 
   161  011E                     	;# 
   162  011F                     	;# 
   163  011F                     	;# 
   164  011F                     	;# 
   165  011F                     	;# 
   166  011F                     	;# 
   167  018C                     	;# 
   168  018D                     	;# 
   169  018E                     	;# 
   170  018F                     	;# 
   171  0190                     	;# 
   172  0191                     	;# 
   173  0192                     	;# 
   174  0196                     	;# 
   175  0197                     	;# 
   176  0198                     	;# 
   177  0199                     	;# 
   178  019A                     	;# 
   179  019B                     	;# 
   180  019C                     	;# 
   181  020C                     	;# 
   182  020C                     	;# 
   183  020D                     	;# 
   184  020E                     	;# 
   185  020F                     	;# 
   186  020F                     	;# 
   187  0210                     	;# 
   188  0210                     	;# 
   189  0211                     	;# 
   190  0211                     	;# 
   191  0212                     	;# 
   192  0212                     	;# 
   193  0213                     	;# 
   194  0214                     	;# 
   195  0215                     	;# 
   196  0215                     	;# 
   197  0216                     	;# 
   198  0216                     	;# 
   199  0217                     	;# 
   200  0217                     	;# 
   201  0218                     	;# 
   202  0218                     	;# 
   203  0219                     	;# 
   204  021A                     	;# 
   205  021B                     	;# 
   206  021B                     	;# 
   207  021C                     	;# 
   208  021C                     	;# 
   209  021D                     	;# 
   210  021D                     	;# 
   211  021E                     	;# 
   212  021F                     	;# 
   213  028C                     	;# 
   214  028C                     	;# 
   215  028D                     	;# 
   216  028D                     	;# 
   217  028E                     	;# 
   218  028F                     	;# 
   219  0290                     	;# 
   220  0290                     	;# 
   221  0291                     	;# 
   222  0292                     	;# 
   223  0292                     	;# 
   224  0293                     	;# 
   225  0293                     	;# 
   226  0294                     	;# 
   227  0295                     	;# 
   228  0296                     	;# 
   229  0296                     	;# 
   230  0297                     	;# 
   231  0298                     	;# 
   232  0298                     	;# 
   233  0299                     	;# 
   234  0299                     	;# 
   235  029A                     	;# 
   236  029B                     	;# 
   237  029C                     	;# 
   238  029C                     	;# 
   239  029D                     	;# 
   240  030C                     	;# 
   241  030C                     	;# 
   242  030D                     	;# 
   243  030E                     	;# 
   244  030F                     	;# 
   245  0310                     	;# 
   246  0310                     	;# 
   247  0311                     	;# 
   248  0312                     	;# 
   249  0313                     	;# 
   250  0314                     	;# 
   251  0314                     	;# 
   252  0315                     	;# 
   253  0316                     	;# 
   254  0317                     	;# 
   255  0318                     	;# 
   256  0318                     	;# 
   257  0319                     	;# 
   258  031A                     	;# 
   259  031B                     	;# 
   260  031C                     	;# 
   261  031C                     	;# 
   262  031D                     	;# 
   263  031E                     	;# 
   264  031F                     	;# 
   265  038C                     	;# 
   266  038C                     	;# 
   267  038D                     	;# 
   268  038E                     	;# 
   269  0390                     	;# 
   270  0390                     	;# 
   271  0391                     	;# 
   272  0392                     	;# 
   273  040C                     	;# 
   274  040D                     	;# 
   275  040E                     	;# 
   276  040F                     	;# 
   277  0410                     	;# 
   278  0411                     	;# 
   279  0416                     	;# 
   280  0416                     	;# 
   281  0417                     	;# 
   282  0418                     	;# 
   283  0418                     	;# 
   284  0419                     	;# 
   285  041A                     	;# 
   286  041A                     	;# 
   287  041B                     	;# 
   288  041C                     	;# 
   289  041C                     	;# 
   290  041D                     	;# 
   291  041E                     	;# 
   292  041F                     	;# 
   293  048C                     	;# 
   294  048C                     	;# 
   295  048D                     	;# 
   296  048E                     	;# 
   297  048F                     	;# 
   298  048F                     	;# 
   299  0490                     	;# 
   300  0491                     	;# 
   301  0492                     	;# 
   302  0492                     	;# 
   303  0493                     	;# 
   304  0494                     	;# 
   305  0495                     	;# 
   306  0495                     	;# 
   307  0496                     	;# 
   308  0497                     	;# 
   309  0498                     	;# 
   310  0499                     	;# 
   311  049A                     	;# 
   312  049B                     	;# 
   313  049C                     	;# 
   314  049D                     	;# 
   315  050C                     	;# 
   316  050C                     	;# 
   317  050D                     	;# 
   318  050E                     	;# 
   319  050F                     	;# 
   320  050F                     	;# 
   321  0510                     	;# 
   322  0511                     	;# 
   323  0512                     	;# 
   324  0512                     	;# 
   325  0513                     	;# 
   326  0514                     	;# 
   327  0515                     	;# 
   328  0515                     	;# 
   329  0516                     	;# 
   330  0517                     	;# 
   331  0518                     	;# 
   332  0519                     	;# 
   333  051A                     	;# 
   334  051B                     	;# 
   335  051C                     	;# 
   336  051D                     	;# 
   337  058C                     	;# 
   338  058C                     	;# 
   339  058D                     	;# 
   340  058E                     	;# 
   341  058F                     	;# 
   342  058F                     	;# 
   343  0590                     	;# 
   344  0591                     	;# 
   345  0592                     	;# 
   346  0593                     	;# 
   347  060C                     	;# 
   348  060D                     	;# 
   349  060E                     	;# 
   350  060F                     	;# 
   351  0610                     	;# 
   352  0611                     	;# 
   353  0612                     	;# 
   354  0613                     	;# 
   355  0614                     	;# 
   356  0616                     	;# 
   357  0617                     	;# 
   358  0618                     	;# 
   359  0619                     	;# 
   360  061A                     	;# 
   361  061B                     	;# 
   362  061C                     	;# 
   363  061D                     	;# 
   364  061E                     	;# 
   365  068C                     	;# 
   366  068D                     	;# 
   367  068E                     	;# 
   368  068F                     	;# 
   369  0690                     	;# 
   370  0691                     	;# 
   371  0692                     	;# 
   372  0693                     	;# 
   373  0694                     	;# 
   374  070C                     	;# 
   375  070D                     	;# 
   376  070E                     	;# 
   377  070F                     	;# 
   378  0710                     	;# 
   379  0711                     	;# 
   380  0712                     	;# 
   381  0713                     	;# 
   382  0714                     	;# 
   383  0716                     	;# 
   384  0717                     	;# 
   385  0718                     	;# 
   386  0719                     	;# 
   387  071A                     	;# 
   388  071B                     	;# 
   389  071C                     	;# 
   390  071D                     	;# 
   391  071E                     	;# 
   392  0796                     	;# 
   393  0797                     	;# 
   394  0798                     	;# 
   395  0799                     	;# 
   396  079A                     	;# 
   397  079B                     	;# 
   398  080C                     	;# 
   399  080D                     	;# 
   400  080E                     	;# 
   401  080F                     	;# 
   402  0810                     	;# 
   403  0811                     	;# 
   404  0813                     	;# 
   405  0814                     	;# 
   406  081A                     	;# 
   407  081B                     	;# 
   408  081C                     	;# 
   409  081D                     	;# 
   410  081E                     	;# 
   411  081F                     	;# 
   412  088C                     	;# 
   413  088D                     	;# 
   414  088E                     	;# 
   415  088F                     	;# 
   416  0890                     	;# 
   417  0891                     	;# 
   418  0892                     	;# 
   419  0893                     	;# 
   420  0895                     	;# 
   421  0896                     	;# 
   422  0897                     	;# 
   423  0898                     	;# 
   424  0899                     	;# 
   425  089A                     	;# 
   426  089B                     	;# 
   427  090C                     	;# 
   428  090E                     	;# 
   429  090F                     	;# 
   430  091F                     	;# 
   431  091F                     	;# 
   432  098F                     	;# 
   433  098F                     	;# 
   434  0990                     	;# 
   435  0991                     	;# 
   436  0992                     	;# 
   437  0993                     	;# 
   438  0994                     	;# 
   439  0995                     	;# 
   440  0996                     	;# 
   441  0997                     	;# 
   442  0E0F                     	;# 
   443  0E10                     	;# 
   444  0E11                     	;# 
   445  0E12                     	;# 
   446  0E13                     	;# 
   447  0E14                     	;# 
   448  0E15                     	;# 
   449  0E16                     	;# 
   450  0E17                     	;# 
   451  0E18                     	;# 
   452  0E19                     	;# 
   453  0E1A                     	;# 
   454  0E1B                     	;# 
   455  0E1C                     	;# 
   456  0E1D                     	;# 
   457  0E1E                     	;# 
   458  0E1F                     	;# 
   459  0E20                     	;# 
   460  0E21                     	;# 
   461  0E22                     	;# 
   462  0E23                     	;# 
   463  0E24                     	;# 
   464  0E25                     	;# 
   465  0E26                     	;# 
   466  0E27                     	;# 
   467  0E28                     	;# 
   468  0E29                     	;# 
   469  0E2A                     	;# 
   470  0E2B                     	;# 
   471  0E2C                     	;# 
   472  0E2D                     	;# 
   473  0E2E                     	;# 
   474  0E2F                     	;# 
   475  0E30                     	;# 
   476  0E31                     	;# 
   477  0E32                     	;# 
   478  0E33                     	;# 
   479  0E34                     	;# 
   480  0E35                     	;# 
   481  0E36                     	;# 
   482  0E37                     	;# 
   483  0E8F                     	;# 
   484  0E90                     	;# 
   485  0E91                     	;# 
   486  0E92                     	;# 
   487  0E93                     	;# 
   488  0E94                     	;# 
   489  0E95                     	;# 
   490  0E96                     	;# 
   491  0E97                     	;# 
   492  0E9C                     	;# 
   493  0E9D                     	;# 
   494  0E9E                     	;# 
   495  0EA1                     	;# 
   496  0EA2                     	;# 
   497  0EA3                     	;# 
   498  0EA4                     	;# 
   499  0EA5                     	;# 
   500  0EA9                     	;# 
   501  0EAA                     	;# 
   502  0EAB                     	;# 
   503  0EAC                     	;# 
   504  0EB1                     	;# 
   505  0EB2                     	;# 
   506  0EB3                     	;# 
   507  0EB8                     	;# 
   508  0EB9                     	;# 
   509  0EBA                     	;# 
   510  0EBB                     	;# 
   511  0EBC                     	;# 
   512  0EBD                     	;# 
   513  0EBE                     	;# 
   514  0EC3                     	;# 
   515  0EC5                     	;# 
   516  0EC6                     	;# 
   517  0EC7                     	;# 
   518  0EC8                     	;# 
   519  0EC9                     	;# 
   520  0ECA                     	;# 
   521  0ECB                     	;# 
   522  0ECC                     	;# 
   523  0F10                     	;# 
   524  0F11                     	;# 
   525  0F12                     	;# 
   526  0F13                     	;# 
   527  0F14                     	;# 
   528  0F15                     	;# 
   529  0F16                     	;# 
   530  0F17                     	;# 
   531  0F18                     	;# 
   532  0F19                     	;# 
   533  0F1A                     	;# 
   534  0F1B                     	;# 
   535  0F1C                     	;# 
   536  0F1D                     	;# 
   537  0F1E                     	;# 
   538  0F1F                     	;# 
   539  0F20                     	;# 
   540  0F21                     	;# 
   541  0F22                     	;# 
   542  0F23                     	;# 
   543  0F24                     	;# 
   544  0F25                     	;# 
   545  0F26                     	;# 
   546  0F27                     	;# 
   547  0F38                     	;# 
   548  0F39                     	;# 
   549  0F3A                     	;# 
   550  0F3B                     	;# 
   551  0F3C                     	;# 
   552  0F3D                     	;# 
   553  0F3E                     	;# 
   554  0F3F                     	;# 
   555  0F40                     	;# 
   556  0F41                     	;# 
   557  0F43                     	;# 
   558  0F44                     	;# 
   559  0F45                     	;# 
   560  0F46                     	;# 
   561  0F47                     	;# 
   562  0F48                     	;# 
   563  0F49                     	;# 
   564  0F4A                     	;# 
   565  0F4B                     	;# 
   566  0F4C                     	;# 
   567  0F4E                     	;# 
   568  0F4F                     	;# 
   569  0F50                     	;# 
   570  0F51                     	;# 
   571  0F52                     	;# 
   572  0F53                     	;# 
   573  0F54                     	;# 
   574  0F55                     	;# 
   575  0F56                     	;# 
   576  0F57                     	;# 
   577  0F65                     	;# 
   578  0F68                     	;# 
   579  0F69                     	;# 
   580  0F6A                     	;# 
   581  0F6B                     	;# 
   582  0FE4                     	;# 
   583  0FE5                     	;# 
   584  0FE6                     	;# 
   585  0FE7                     	;# 
   586  0FE8                     	;# 
   587  0FE9                     	;# 
   588  0FEA                     	;# 
   589  0FEB                     	;# 
   590  0FED                     	;# 
   591  0FEE                     	;# 
   592  0FEF                     	;# 
   593  0000                     	;# 
   594  0001                     	;# 
   595  0002                     	;# 
   596  0003                     	;# 
   597  0004                     	;# 
   598  0005                     	;# 
   599  0006                     	;# 
   600  0007                     	;# 
   601  0008                     	;# 
   602  0009                     	;# 
   603  000A                     	;# 
   604  000B                     	;# 
   605  000C                     	;# 
   606  000D                     	;# 
   607  000E                     	;# 
   608  0010                     	;# 
   609  0011                     	;# 
   610  0012                     	;# 
   611  0013                     	;# 
   612  0016                     	;# 
   613  0017                     	;# 
   614  0018                     	;# 
   615  001C                     	;# 
   616  001C                     	;# 
   617  001D                     	;# 
   618  001D                     	;# 
   619  001E                     	;# 
   620  001F                     	;# 
   621  008C                     	;# 
   622  008C                     	;# 
   623  008D                     	;# 
   624  008E                     	;# 
   625  008E                     	;# 
   626  008F                     	;# 
   627  0090                     	;# 
   628  0090                     	;# 
   629  0091                     	;# 
   630  0093                     	;# 
   631  0094                     	;# 
   632  0095                     	;# 
   633  0096                     	;# 
   634  0097                     	;# 
   635  0098                     	;# 
   636  0099                     	;# 
   637  009A                     	;# 
   638  009B                     	;# 
   639  009C                     	;# 
   640  009D                     	;# 
   641  009E                     	;# 
   642  010C                     	;# 
   643  010D                     	;# 
   644  010E                     	;# 
   645  010E                     	;# 
   646  010F                     	;# 
   647  0110                     	;# 
   648  0110                     	;# 
   649  0111                     	;# 
   650  0112                     	;# 
   651  0112                     	;# 
   652  0113                     	;# 
   653  0114                     	;# 
   654  0114                     	;# 
   655  0115                     	;# 
   656  0116                     	;# 
   657  0116                     	;# 
   658  0117                     	;# 
   659  0119                     	;# 
   660  0119                     	;# 
   661  0119                     	;# 
   662  011A                     	;# 
   663  011A                     	;# 
   664  011A                     	;# 
   665  011B                     	;# 
   666  011B                     	;# 
   667  011B                     	;# 
   668  011B                     	;# 
   669  011B                     	;# 
   670  011C                     	;# 
   671  011C                     	;# 
   672  011C                     	;# 
   673  011D                     	;# 
   674  011D                     	;# 
   675  011D                     	;# 
   676  011E                     	;# 
   677  011E                     	;# 
   678  011E                     	;# 
   679  011F                     	;# 
   680  011F                     	;# 
   681  011F                     	;# 
   682  011F                     	;# 
   683  011F                     	;# 
   684  018C                     	;# 
   685  018D                     	;# 
   686  018E                     	;# 
   687  018F                     	;# 
   688  0190                     	;# 
   689  0191                     	;# 
   690  0192                     	;# 
   691  0196                     	;# 
   692  0197                     	;# 
   693  0198                     	;# 
   694  0199                     	;# 
   695  019A                     	;# 
   696  019B                     	;# 
   697  019C                     	;# 
   698  020C                     	;# 
   699  020C                     	;# 
   700  020D                     	;# 
   701  020E                     	;# 
   702  020F                     	;# 
   703  020F                     	;# 
   704  0210                     	;# 
   705  0210                     	;# 
   706  0211                     	;# 
   707  0211                     	;# 
   708  0212                     	;# 
   709  0212                     	;# 
   710  0213                     	;# 
   711  0214                     	;# 
   712  0215                     	;# 
   713  0215                     	;# 
   714  0216                     	;# 
   715  0216                     	;# 
   716  0217                     	;# 
   717  0217                     	;# 
   718  0218                     	;# 
   719  0218                     	;# 
   720  0219                     	;# 
   721  021A                     	;# 
   722  021B                     	;# 
   723  021B                     	;# 
   724  021C                     	;# 
   725  021C                     	;# 
   726  021D                     	;# 
   727  021D                     	;# 
   728  021E                     	;# 
   729  021F                     	;# 
   730  028C                     	;# 
   731  028C                     	;# 
   732  028D                     	;# 
   733  028D                     	;# 
   734  028E                     	;# 
   735  028F                     	;# 
   736  0290                     	;# 
   737  0290                     	;# 
   738  0291                     	;# 
   739  0292                     	;# 
   740  0292                     	;# 
   741  0293                     	;# 
   742  0293                     	;# 
   743  0294                     	;# 
   744  0295                     	;# 
   745  0296                     	;# 
   746  0296                     	;# 
   747  0297                     	;# 
   748  0298                     	;# 
   749  0298                     	;# 
   750  0299                     	;# 
   751  0299                     	;# 
   752  029A                     	;# 
   753  029B                     	;# 
   754  029C                     	;# 
   755  029C                     	;# 
   756  029D                     	;# 
   757  030C                     	;# 
   758  030C                     	;# 
   759  030D                     	;# 
   760  030E                     	;# 
   761  030F                     	;# 
   762  0310                     	;# 
   763  0310                     	;# 
   764  0311                     	;# 
   765  0312                     	;# 
   766  0313                     	;# 
   767  0314                     	;# 
   768  0314                     	;# 
   769  0315                     	;# 
   770  0316                     	;# 
   771  0317                     	;# 
   772  0318                     	;# 
   773  0318                     	;# 
   774  0319                     	;# 
   775  031A                     	;# 
   776  031B                     	;# 
   777  031C                     	;# 
   778  031C                     	;# 
   779  031D                     	;# 
   780  031E                     	;# 
   781  031F                     	;# 
   782  038C                     	;# 
   783  038C                     	;# 
   784  038D                     	;# 
   785  038E                     	;# 
   786  0390                     	;# 
   787  0390                     	;# 
   788  0391                     	;# 
   789  0392                     	;# 
   790  040C                     	;# 
   791  040D                     	;# 
   792  040E                     	;# 
   793  040F                     	;# 
   794  0410                     	;# 
   795  0411                     	;# 
   796  0416                     	;# 
   797  0416                     	;# 
   798  0417                     	;# 
   799  0418                     	;# 
   800  0418                     	;# 
   801  0419                     	;# 
   802  041A                     	;# 
   803  041A                     	;# 
   804  041B                     	;# 
   805  041C                     	;# 
   806  041C                     	;# 
   807  041D                     	;# 
   808  041E                     	;# 
   809  041F                     	;# 
   810  048C                     	;# 
   811  048C                     	;# 
   812  048D                     	;# 
   813  048E                     	;# 
   814  048F                     	;# 
   815  048F                     	;# 
   816  0490                     	;# 
   817  0491                     	;# 
   818  0492                     	;# 
   819  0492                     	;# 
   820  0493                     	;# 
   821  0494                     	;# 
   822  0495                     	;# 
   823  0495                     	;# 
   824  0496                     	;# 
   825  0497                     	;# 
   826  0498                     	;# 
   827  0499                     	;# 
   828  049A                     	;# 
   829  049B                     	;# 
   830  049C                     	;# 
   831  049D                     	;# 
   832  050C                     	;# 
   833  050C                     	;# 
   834  050D                     	;# 
   835  050E                     	;# 
   836  050F                     	;# 
   837  050F                     	;# 
   838  0510                     	;# 
   839  0511                     	;# 
   840  0512                     	;# 
   841  0512                     	;# 
   842  0513                     	;# 
   843  0514                     	;# 
   844  0515                     	;# 
   845  0515                     	;# 
   846  0516                     	;# 
   847  0517                     	;# 
   848  0518                     	;# 
   849  0519                     	;# 
   850  051A                     	;# 
   851  051B                     	;# 
   852  051C                     	;# 
   853  051D                     	;# 
   854  058C                     	;# 
   855  058C                     	;# 
   856  058D                     	;# 
   857  058E                     	;# 
   858  058F                     	;# 
   859  058F                     	;# 
   860  0590                     	;# 
   861  0591                     	;# 
   862  0592                     	;# 
   863  0593                     	;# 
   864  060C                     	;# 
   865  060D                     	;# 
   866  060E                     	;# 
   867  060F                     	;# 
   868  0610                     	;# 
   869  0611                     	;# 
   870  0612                     	;# 
   871  0613                     	;# 
   872  0614                     	;# 
   873  0616                     	;# 
   874  0617                     	;# 
   875  0618                     	;# 
   876  0619                     	;# 
   877  061A                     	;# 
   878  061B                     	;# 
   879  061C                     	;# 
   880  061D                     	;# 
   881  061E                     	;# 
   882  068C                     	;# 
   883  068D                     	;# 
   884  068E                     	;# 
   885  068F                     	;# 
   886  0690                     	;# 
   887  0691                     	;# 
   888  0692                     	;# 
   889  0693                     	;# 
   890  0694                     	;# 
   891  070C                     	;# 
   892  070D                     	;# 
   893  070E                     	;# 
   894  070F                     	;# 
   895  0710                     	;# 
   896  0711                     	;# 
   897  0712                     	;# 
   898  0713                     	;# 
   899  0714                     	;# 
   900  0716                     	;# 
   901  0717                     	;# 
   902  0718                     	;# 
   903  0719                     	;# 
   904  071A                     	;# 
   905  071B                     	;# 
   906  071C                     	;# 
   907  071D                     	;# 
   908  071E                     	;# 
   909  0796                     	;# 
   910  0797                     	;# 
   911  0798                     	;# 
   912  0799                     	;# 
   913  079A                     	;# 
   914  079B                     	;# 
   915  080C                     	;# 
   916  080D                     	;# 
   917  080E                     	;# 
   918  080F                     	;# 
   919  0810                     	;# 
   920  0811                     	;# 
   921  0813                     	;# 
   922  0814                     	;# 
   923  081A                     	;# 
   924  081B                     	;# 
   925  081C                     	;# 
   926  081D                     	;# 
   927  081E                     	;# 
   928  081F                     	;# 
   929  088C                     	;# 
   930  088D                     	;# 
   931  088E                     	;# 
   932  088F                     	;# 
   933  0890                     	;# 
   934  0891                     	;# 
   935  0892                     	;# 
   936  0893                     	;# 
   937  0895                     	;# 
   938  0896                     	;# 
   939  0897                     	;# 
   940  0898                     	;# 
   941  0899                     	;# 
   942  089A                     	;# 
   943  089B                     	;# 
   944  090C                     	;# 
   945  090E                     	;# 
   946  090F                     	;# 
   947  091F                     	;# 
   948  091F                     	;# 
   949  098F                     	;# 
   950  098F                     	;# 
   951  0990                     	;# 
   952  0991                     	;# 
   953  0992                     	;# 
   954  0993                     	;# 
   955  0994                     	;# 
   956  0995                     	;# 
   957  0996                     	;# 
   958  0997                     	;# 
   959  0E0F                     	;# 
   960  0E10                     	;# 
   961  0E11                     	;# 
   962  0E12                     	;# 
   963  0E13                     	;# 
   964  0E14                     	;# 
   965  0E15                     	;# 
   966  0E16                     	;# 
   967  0E17                     	;# 
   968  0E18                     	;# 
   969  0E19                     	;# 
   970  0E1A                     	;# 
   971  0E1B                     	;# 
   972  0E1C                     	;# 
   973  0E1D                     	;# 
   974  0E1E                     	;# 
   975  0E1F                     	;# 
   976  0E20                     	;# 
   977  0E21                     	;# 
   978  0E22                     	;# 
   979  0E23                     	;# 
   980  0E24                     	;# 
   981  0E25                     	;# 
   982  0E26                     	;# 
   983  0E27                     	;# 
   984  0E28                     	;# 
   985  0E29                     	;# 
   986  0E2A                     	;# 
   987  0E2B                     	;# 
   988  0E2C                     	;# 
   989  0E2D                     	;# 
   990  0E2E                     	;# 
   991  0E2F                     	;# 
   992  0E30                     	;# 
   993  0E31                     	;# 
   994  0E32                     	;# 
   995  0E33                     	;# 
   996  0E34                     	;# 
   997  0E35                     	;# 
   998  0E36                     	;# 
   999  0E37                     	;# 
  1000  0E8F                     	;# 
  1001  0E90                     	;# 
  1002  0E91                     	;# 
  1003  0E92                     	;# 
  1004  0E93                     	;# 
  1005  0E94                     	;# 
  1006  0E95                     	;# 
  1007  0E96                     	;# 
  1008  0E97                     	;# 
  1009  0E9C                     	;# 
  1010  0E9D                     	;# 
  1011  0E9E                     	;# 
  1012  0EA1                     	;# 
  1013  0EA2                     	;# 
  1014  0EA3                     	;# 
  1015  0EA4                     	;# 
  1016  0EA5                     	;# 
  1017  0EA9                     	;# 
  1018  0EAA                     	;# 
  1019  0EAB                     	;# 
  1020  0EAC                     	;# 
  1021  0EB1                     	;# 
  1022  0EB2                     	;# 
  1023  0EB3                     	;# 
  1024  0EB8                     	;# 
  1025  0EB9                     	;# 
  1026  0EBA                     	;# 
  1027  0EBB                     	;# 
  1028  0EBC                     	;# 
  1029  0EBD                     	;# 
  1030  0EBE                     	;# 
  1031  0EC3                     	;# 
  1032  0EC5                     	;# 
  1033  0EC6                     	;# 
  1034  0EC7                     	;# 
  1035  0EC8                     	;# 
  1036  0EC9                     	;# 
  1037  0ECA                     	;# 
  1038  0ECB                     	;# 
  1039  0ECC                     	;# 
  1040  0F10                     	;# 
  1041  0F11                     	;# 
  1042  0F12                     	;# 
  1043  0F13                     	;# 
  1044  0F14                     	;# 
  1045  0F15                     	;# 
  1046  0F16                     	;# 
  1047  0F17                     	;# 
  1048  0F18                     	;# 
  1049  0F19                     	;# 
  1050  0F1A                     	;# 
  1051  0F1B                     	;# 
  1052  0F1C                     	;# 
  1053  0F1D                     	;# 
  1054  0F1E                     	;# 
  1055  0F1F                     	;# 
  1056  0F20                     	;# 
  1057  0F21                     	;# 
  1058  0F22                     	;# 
  1059  0F23                     	;# 
  1060  0F24                     	;# 
  1061  0F25                     	;# 
  1062  0F26                     	;# 
  1063  0F27                     	;# 
  1064  0F38                     	;# 
  1065  0F39                     	;# 
  1066  0F3A                     	;# 
  1067  0F3B                     	;# 
  1068  0F3C                     	;# 
  1069  0F3D                     	;# 
  1070  0F3E                     	;# 
  1071  0F3F                     	;# 
  1072  0F40                     	;# 
  1073  0F41                     	;# 
  1074  0F43                     	;# 
  1075  0F44                     	;# 
  1076  0F45                     	;# 
  1077  0F46                     	;# 
  1078  0F47                     	;# 
  1079  0F48                     	;# 
  1080  0F49                     	;# 
  1081  0F4A                     	;# 
  1082  0F4B                     	;# 
  1083  0F4C                     	;# 
  1084  0F4E                     	;# 
  1085  0F4F                     	;# 
  1086  0F50                     	;# 
  1087  0F51                     	;# 
  1088  0F52                     	;# 
  1089  0F53                     	;# 
  1090  0F54                     	;# 
  1091  0F55                     	;# 
  1092  0F56                     	;# 
  1093  0F57                     	;# 
  1094  0F65                     	;# 
  1095  0F68                     	;# 
  1096  0F69                     	;# 
  1097  0F6A                     	;# 
  1098  0F6B                     	;# 
  1099  0FE4                     	;# 
  1100  0FE5                     	;# 
  1101  0FE6                     	;# 
  1102  0FE7                     	;# 
  1103  0FE8                     	;# 
  1104  0FE9                     	;# 
  1105  0FEA                     	;# 
  1106  0FEB                     	;# 
  1107  0FED                     	;# 
  1108  0FEE                     	;# 
  1109  0FEF                     	;# 
  1110  0000                     	;# 
  1111  0001                     	;# 
  1112  0002                     	;# 
  1113  0003                     	;# 
  1114  0004                     	;# 
  1115  0005                     	;# 
  1116  0006                     	;# 
  1117  0007                     	;# 
  1118  0008                     	;# 
  1119  0009                     	;# 
  1120  000A                     	;# 
  1121  000B                     	;# 
  1122  000C                     	;# 
  1123  000D                     	;# 
  1124  000E                     	;# 
  1125  0010                     	;# 
  1126  0011                     	;# 
  1127  0012                     	;# 
  1128  0013                     	;# 
  1129  0016                     	;# 
  1130  0017                     	;# 
  1131  0018                     	;# 
  1132  001C                     	;# 
  1133  001C                     	;# 
  1134  001D                     	;# 
  1135  001D                     	;# 
  1136  001E                     	;# 
  1137  001F                     	;# 
  1138  008C                     	;# 
  1139  008C                     	;# 
  1140  008D                     	;# 
  1141  008E                     	;# 
  1142  008E                     	;# 
  1143  008F                     	;# 
  1144  0090                     	;# 
  1145  0090                     	;# 
  1146  0091                     	;# 
  1147  0093                     	;# 
  1148  0094                     	;# 
  1149  0095                     	;# 
  1150  0096                     	;# 
  1151  0097                     	;# 
  1152  0098                     	;# 
  1153  0099                     	;# 
  1154  009A                     	;# 
  1155  009B                     	;# 
  1156  009C                     	;# 
  1157  009D                     	;# 
  1158  009E                     	;# 
  1159  010C                     	;# 
  1160  010D                     	;# 
  1161  010E                     	;# 
  1162  010E                     	;# 
  1163  010F                     	;# 
  1164  0110                     	;# 
  1165  0110                     	;# 
  1166  0111                     	;# 
  1167  0112                     	;# 
  1168  0112                     	;# 
  1169  0113                     	;# 
  1170  0114                     	;# 
  1171  0114                     	;# 
  1172  0115                     	;# 
  1173  0116                     	;# 
  1174  0116                     	;# 
  1175  0117                     	;# 
  1176  0119                     	;# 
  1177  0119                     	;# 
  1178  0119                     	;# 
  1179  011A                     	;# 
  1180  011A                     	;# 
  1181  011A                     	;# 
  1182  011B                     	;# 
  1183  011B                     	;# 
  1184  011B                     	;# 
  1185  011B                     	;# 
  1186  011B                     	;# 
  1187  011C                     	;# 
  1188  011C                     	;# 
  1189  011C                     	;# 
  1190  011D                     	;# 
  1191  011D                     	;# 
  1192  011D                     	;# 
  1193  011E                     	;# 
  1194  011E                     	;# 
  1195  011E                     	;# 
  1196  011F                     	;# 
  1197  011F                     	;# 
  1198  011F                     	;# 
  1199  011F                     	;# 
  1200  011F                     	;# 
  1201  018C                     	;# 
  1202  018D                     	;# 
  1203  018E                     	;# 
  1204  018F                     	;# 
  1205  0190                     	;# 
  1206  0191                     	;# 
  1207  0192                     	;# 
  1208  0196                     	;# 
  1209  0197                     	;# 
  1210  0198                     	;# 
  1211  0199                     	;# 
  1212  019A                     	;# 
  1213  019B                     	;# 
  1214  019C                     	;# 
  1215  020C                     	;# 
  1216  020C                     	;# 
  1217  020D                     	;# 
  1218  020E                     	;# 
  1219  020F                     	;# 
  1220  020F                     	;# 
  1221  0210                     	;# 
  1222  0210                     	;# 
  1223  0211                     	;# 
  1224  0211                     	;# 
  1225  0212                     	;# 
  1226  0212                     	;# 
  1227  0213                     	;# 
  1228  0214                     	;# 
  1229  0215                     	;# 
  1230  0215                     	;# 
  1231  0216                     	;# 
  1232  0216                     	;# 
  1233  0217                     	;# 
  1234  0217                     	;# 
  1235  0218                     	;# 
  1236  0218                     	;# 
  1237  0219                     	;# 
  1238  021A                     	;# 
  1239  021B                     	;# 
  1240  021B                     	;# 
  1241  021C                     	;# 
  1242  021C                     	;# 
  1243  021D                     	;# 
  1244  021D                     	;# 
  1245  021E                     	;# 
  1246  021F                     	;# 
  1247  028C                     	;# 
  1248  028C                     	;# 
  1249  028D                     	;# 
  1250  028D                     	;# 
  1251  028E                     	;# 
  1252  028F                     	;# 
  1253  0290                     	;# 
  1254  0290                     	;# 
  1255  0291                     	;# 
  1256  0292                     	;# 
  1257  0292                     	;# 
  1258  0293                     	;# 
  1259  0293                     	;# 
  1260  0294                     	;# 
  1261  0295                     	;# 
  1262  0296                     	;# 
  1263  0296                     	;# 
  1264  0297                     	;# 
  1265  0298                     	;# 
  1266  0298                     	;# 
  1267  0299                     	;# 
  1268  0299                     	;# 
  1269  029A                     	;# 
  1270  029B                     	;# 
  1271  029C                     	;# 
  1272  029C                     	;# 
  1273  029D                     	;# 
  1274  030C                     	;# 
  1275  030C                     	;# 
  1276  030D                     	;# 
  1277  030E                     	;# 
  1278  030F                     	;# 
  1279  0310                     	;# 
  1280  0310                     	;# 
  1281  0311                     	;# 
  1282  0312                     	;# 
  1283  0313                     	;# 
  1284  0314                     	;# 
  1285  0314                     	;# 
  1286  0315                     	;# 
  1287  0316                     	;# 
  1288  0317                     	;# 
  1289  0318                     	;# 
  1290  0318                     	;# 
  1291  0319                     	;# 
  1292  031A                     	;# 
  1293  031B                     	;# 
  1294  031C                     	;# 
  1295  031C                     	;# 
  1296  031D                     	;# 
  1297  031E                     	;# 
  1298  031F                     	;# 
  1299  038C                     	;# 
  1300  038C                     	;# 
  1301  038D                     	;# 
  1302  038E                     	;# 
  1303  0390                     	;# 
  1304  0390                     	;# 
  1305  0391                     	;# 
  1306  0392                     	;# 
  1307  040C                     	;# 
  1308  040D                     	;# 
  1309  040E                     	;# 
  1310  040F                     	;# 
  1311  0410                     	;# 
  1312  0411                     	;# 
  1313  0416                     	;# 
  1314  0416                     	;# 
  1315  0417                     	;# 
  1316  0418                     	;# 
  1317  0418                     	;# 
  1318  0419                     	;# 
  1319  041A                     	;# 
  1320  041A                     	;# 
  1321  041B                     	;# 
  1322  041C                     	;# 
  1323  041C                     	;# 
  1324  041D                     	;# 
  1325  041E                     	;# 
  1326  041F                     	;# 
  1327  048C                     	;# 
  1328  048C                     	;# 
  1329  048D                     	;# 
  1330  048E                     	;# 
  1331  048F                     	;# 
  1332  048F                     	;# 
  1333  0490                     	;# 
  1334  0491                     	;# 
  1335  0492                     	;# 
  1336  0492                     	;# 
  1337  0493                     	;# 
  1338  0494                     	;# 
  1339  0495                     	;# 
  1340  0495                     	;# 
  1341  0496                     	;# 
  1342  0497                     	;# 
  1343  0498                     	;# 
  1344  0499                     	;# 
  1345  049A                     	;# 
  1346  049B                     	;# 
  1347  049C                     	;# 
  1348  049D                     	;# 
  1349  050C                     	;# 
  1350  050C                     	;# 
  1351  050D                     	;# 
  1352  050E                     	;# 
  1353  050F                     	;# 
  1354  050F                     	;# 
  1355  0510                     	;# 
  1356  0511                     	;# 
  1357  0512                     	;# 
  1358  0512                     	;# 
  1359  0513                     	;# 
  1360  0514                     	;# 
  1361  0515                     	;# 
  1362  0515                     	;# 
  1363  0516                     	;# 
  1364  0517                     	;# 
  1365  0518                     	;# 
  1366  0519                     	;# 
  1367  051A                     	;# 
  1368  051B                     	;# 
  1369  051C                     	;# 
  1370  051D                     	;# 
  1371  058C                     	;# 
  1372  058C                     	;# 
  1373  058D                     	;# 
  1374  058E                     	;# 
  1375  058F                     	;# 
  1376  058F                     	;# 
  1377  0590                     	;# 
  1378  0591                     	;# 
  1379  0592                     	;# 
  1380  0593                     	;# 
  1381  060C                     	;# 
  1382  060D                     	;# 
  1383  060E                     	;# 
  1384  060F                     	;# 
  1385  0610                     	;# 
  1386  0611                     	;# 
  1387  0612                     	;# 
  1388  0613                     	;# 
  1389  0614                     	;# 
  1390  0616                     	;# 
  1391  0617                     	;# 
  1392  0618                     	;# 
  1393  0619                     	;# 
  1394  061A                     	;# 
  1395  061B                     	;# 
  1396  061C                     	;# 
  1397  061D                     	;# 
  1398  061E                     	;# 
  1399  068C                     	;# 
  1400  068D                     	;# 
  1401  068E                     	;# 
  1402  068F                     	;# 
  1403  0690                     	;# 
  1404  0691                     	;# 
  1405  0692                     	;# 
  1406  0693                     	;# 
  1407  0694                     	;# 
  1408  070C                     	;# 
  1409  070D                     	;# 
  1410  070E                     	;# 
  1411  070F                     	;# 
  1412  0710                     	;# 
  1413  0711                     	;# 
  1414  0712                     	;# 
  1415  0713                     	;# 
  1416  0714                     	;# 
  1417  0716                     	;# 
  1418  0717                     	;# 
  1419  0718                     	;# 
  1420  0719                     	;# 
  1421  071A                     	;# 
  1422  071B                     	;# 
  1423  071C                     	;# 
  1424  071D                     	;# 
  1425  071E                     	;# 
  1426  0796                     	;# 
  1427  0797                     	;# 
  1428  0798                     	;# 
  1429  0799                     	;# 
  1430  079A                     	;# 
  1431  079B                     	;# 
  1432  080C                     	;# 
  1433  080D                     	;# 
  1434  080E                     	;# 
  1435  080F                     	;# 
  1436  0810                     	;# 
  1437  0811                     	;# 
  1438  0813                     	;# 
  1439  0814                     	;# 
  1440  081A                     	;# 
  1441  081B                     	;# 
  1442  081C                     	;# 
  1443  081D                     	;# 
  1444  081E                     	;# 
  1445  081F                     	;# 
  1446  088C                     	;# 
  1447  088D                     	;# 
  1448  088E                     	;# 
  1449  088F                     	;# 
  1450  0890                     	;# 
  1451  0891                     	;# 
  1452  0892                     	;# 
  1453  0893                     	;# 
  1454  0895                     	;# 
  1455  0896                     	;# 
  1456  0897                     	;# 
  1457  0898                     	;# 
  1458  0899                     	;# 
  1459  089A                     	;# 
  1460  089B                     	;# 
  1461  090C                     	;# 
  1462  090E                     	;# 
  1463  090F                     	;# 
  1464  091F                     	;# 
  1465  091F                     	;# 
  1466  098F                     	;# 
  1467  098F                     	;# 
  1468  0990                     	;# 
  1469  0991                     	;# 
  1470  0992                     	;# 
  1471  0993                     	;# 
  1472  0994                     	;# 
  1473  0995                     	;# 
  1474  0996                     	;# 
  1475  0997                     	;# 
  1476  0E0F                     	;# 
  1477  0E10                     	;# 
  1478  0E11                     	;# 
  1479  0E12                     	;# 
  1480  0E13                     	;# 
  1481  0E14                     	;# 
  1482  0E15                     	;# 
  1483  0E16                     	;# 
  1484  0E17                     	;# 
  1485  0E18                     	;# 
  1486  0E19                     	;# 
  1487  0E1A                     	;# 
  1488  0E1B                     	;# 
  1489  0E1C                     	;# 
  1490  0E1D                     	;# 
  1491  0E1E                     	;# 
  1492  0E1F                     	;# 
  1493  0E20                     	;# 
  1494  0E21                     	;# 
  1495  0E22                     	;# 
  1496  0E23                     	;# 
  1497  0E24                     	;# 
  1498  0E25                     	;# 
  1499  0E26                     	;# 
  1500  0E27                     	;# 
  1501  0E28                     	;# 
  1502  0E29                     	;# 
  1503  0E2A                     	;# 
  1504  0E2B                     	;# 
  1505  0E2C                     	;# 
  1506  0E2D                     	;# 
  1507  0E2E                     	;# 
  1508  0E2F                     	;# 
  1509  0E30                     	;# 
  1510  0E31                     	;# 
  1511  0E32                     	;# 
  1512  0E33                     	;# 
  1513  0E34                     	;# 
  1514  0E35                     	;# 
  1515  0E36                     	;# 
  1516  0E37                     	;# 
  1517  0E8F                     	;# 
  1518  0E90                     	;# 
  1519  0E91                     	;# 
  1520  0E92                     	;# 
  1521  0E93                     	;# 
  1522  0E94                     	;# 
  1523  0E95                     	;# 
  1524  0E96                     	;# 
  1525  0E97                     	;# 
  1526  0E9C                     	;# 
  1527  0E9D                     	;# 
  1528  0E9E                     	;# 
  1529  0EA1                     	;# 
  1530  0EA2                     	;# 
  1531  0EA3                     	;# 
  1532  0EA4                     	;# 
  1533  0EA5                     	;# 
  1534  0EA9                     	;# 
  1535  0EAA                     	;# 
  1536  0EAB                     	;# 
  1537  0EAC                     	;# 
  1538  0EB1                     	;# 
  1539  0EB2                     	;# 
  1540  0EB3                     	;# 
  1541  0EB8                     	;# 
  1542  0EB9                     	;# 
  1543  0EBA                     	;# 
  1544  0EBB                     	;# 
  1545  0EBC                     	;# 
  1546  0EBD                     	;# 
  1547  0EBE                     	;# 
  1548  0EC3                     	;# 
  1549  0EC5                     	;# 
  1550  0EC6                     	;# 
  1551  0EC7                     	;# 
  1552  0EC8                     	;# 
  1553  0EC9                     	;# 
  1554  0ECA                     	;# 
  1555  0ECB                     	;# 
  1556  0ECC                     	;# 
  1557  0F10                     	;# 
  1558  0F11                     	;# 
  1559  0F12                     	;# 
  1560  0F13                     	;# 
  1561  0F14                     	;# 
  1562  0F15                     	;# 
  1563  0F16                     	;# 
  1564  0F17                     	;# 
  1565  0F18                     	;# 
  1566  0F19                     	;# 
  1567  0F1A                     	;# 
  1568  0F1B                     	;# 
  1569  0F1C                     	;# 
  1570  0F1D                     	;# 
  1571  0F1E                     	;# 
  1572  0F1F                     	;# 
  1573  0F20                     	;# 
  1574  0F21                     	;# 
  1575  0F22                     	;# 
  1576  0F23                     	;# 
  1577  0F24                     	;# 
  1578  0F25                     	;# 
  1579  0F26                     	;# 
  1580  0F27                     	;# 
  1581  0F38                     	;# 
  1582  0F39                     	;# 
  1583  0F3A                     	;# 
  1584  0F3B                     	;# 
  1585  0F3C                     	;# 
  1586  0F3D                     	;# 
  1587  0F3E                     	;# 
  1588  0F3F                     	;# 
  1589  0F40                     	;# 
  1590  0F41                     	;# 
  1591  0F43                     	;# 
  1592  0F44                     	;# 
  1593  0F45                     	;# 
  1594  0F46                     	;# 
  1595  0F47                     	;# 
  1596  0F48                     	;# 
  1597  0F49                     	;# 
  1598  0F4A                     	;# 
  1599  0F4B                     	;# 
  1600  0F4C                     	;# 
  1601  0F4E                     	;# 
  1602  0F4F                     	;# 
  1603  0F50                     	;# 
  1604  0F51                     	;# 
  1605  0F52                     	;# 
  1606  0F53                     	;# 
  1607  0F54                     	;# 
  1608  0F55                     	;# 
  1609  0F56                     	;# 
  1610  0F57                     	;# 
  1611  0F65                     	;# 
  1612  0F68                     	;# 
  1613  0F69                     	;# 
  1614  0F6A                     	;# 
  1615  0F6B                     	;# 
  1616  0FE4                     	;# 
  1617  0FE5                     	;# 
  1618  0FE6                     	;# 
  1619  0FE7                     	;# 
  1620  0FE8                     	;# 
  1621  0FE9                     	;# 
  1622  0FEA                     	;# 
  1623  0FEB                     	;# 
  1624  0FED                     	;# 
  1625  0FEE                     	;# 
  1626  0FEF                     	;# 
  1627  0000                     	;# 
  1628  0001                     	;# 
  1629  0002                     	;# 
  1630  0003                     	;# 
  1631  0004                     	;# 
  1632  0005                     	;# 
  1633  0006                     	;# 
  1634  0007                     	;# 
  1635  0008                     	;# 
  1636  0009                     	;# 
  1637  000A                     	;# 
  1638  000B                     	;# 
  1639  000C                     	;# 
  1640  000D                     	;# 
  1641  000E                     	;# 
  1642  0010                     	;# 
  1643  0011                     	;# 
  1644  0012                     	;# 
  1645  0013                     	;# 
  1646  0016                     	;# 
  1647  0017                     	;# 
  1648  0018                     	;# 
  1649  001C                     	;# 
  1650  001C                     	;# 
  1651  001D                     	;# 
  1652  001D                     	;# 
  1653  001E                     	;# 
  1654  001F                     	;# 
  1655  008C                     	;# 
  1656  008C                     	;# 
  1657  008D                     	;# 
  1658  008E                     	;# 
  1659  008E                     	;# 
  1660  008F                     	;# 
  1661  0090                     	;# 
  1662  0090                     	;# 
  1663  0091                     	;# 
  1664  0093                     	;# 
  1665  0094                     	;# 
  1666  0095                     	;# 
  1667  0096                     	;# 
  1668  0097                     	;# 
  1669  0098                     	;# 
  1670  0099                     	;# 
  1671  009A                     	;# 
  1672  009B                     	;# 
  1673  009C                     	;# 
  1674  009D                     	;# 
  1675  009E                     	;# 
  1676  010C                     	;# 
  1677  010D                     	;# 
  1678  010E                     	;# 
  1679  010E                     	;# 
  1680  010F                     	;# 
  1681  0110                     	;# 
  1682  0110                     	;# 
  1683  0111                     	;# 
  1684  0112                     	;# 
  1685  0112                     	;# 
  1686  0113                     	;# 
  1687  0114                     	;# 
  1688  0114                     	;# 
  1689  0115                     	;# 
  1690  0116                     	;# 
  1691  0116                     	;# 
  1692  0117                     	;# 
  1693  0119                     	;# 
  1694  0119                     	;# 
  1695  0119                     	;# 
  1696  011A                     	;# 
  1697  011A                     	;# 
  1698  011A                     	;# 
  1699  011B                     	;# 
  1700  011B                     	;# 
  1701  011B                     	;# 
  1702  011B                     	;# 
  1703  011B                     	;# 
  1704  011C                     	;# 
  1705  011C                     	;# 
  1706  011C                     	;# 
  1707  011D                     	;# 
  1708  011D                     	;# 
  1709  011D                     	;# 
  1710  011E                     	;# 
  1711  011E                     	;# 
  1712  011E                     	;# 
  1713  011F                     	;# 
  1714  011F                     	;# 
  1715  011F                     	;# 
  1716  011F                     	;# 
  1717  011F                     	;# 
  1718  018C                     	;# 
  1719  018D                     	;# 
  1720  018E                     	;# 
  1721  018F                     	;# 
  1722  0190                     	;# 
  1723  0191                     	;# 
  1724  0192                     	;# 
  1725  0196                     	;# 
  1726  0197                     	;# 
  1727  0198                     	;# 
  1728  0199                     	;# 
  1729  019A                     	;# 
  1730  019B                     	;# 
  1731  019C                     	;# 
  1732  020C                     	;# 
  1733  020C                     	;# 
  1734  020D                     	;# 
  1735  020E                     	;# 
  1736  020F                     	;# 
  1737  020F                     	;# 
  1738  0210                     	;# 
  1739  0210                     	;# 
  1740  0211                     	;# 
  1741  0211                     	;# 
  1742  0212                     	;# 
  1743  0212                     	;# 
  1744  0213                     	;# 
  1745  0214                     	;# 
  1746  0215                     	;# 
  1747  0215                     	;# 
  1748  0216                     	;# 
  1749  0216                     	;# 
  1750  0217                     	;# 
  1751  0217                     	;# 
  1752  0218                     	;# 
  1753  0218                     	;# 
  1754  0219                     	;# 
  1755  021A                     	;# 
  1756  021B                     	;# 
  1757  021B                     	;# 
  1758  021C                     	;# 
  1759  021C                     	;# 
  1760  021D                     	;# 
  1761  021D                     	;# 
  1762  021E                     	;# 
  1763  021F                     	;# 
  1764  028C                     	;# 
  1765  028C                     	;# 
  1766  028D                     	;# 
  1767  028D                     	;# 
  1768  028E                     	;# 
  1769  028F                     	;# 
  1770  0290                     	;# 
  1771  0290                     	;# 
  1772  0291                     	;# 
  1773  0292                     	;# 
  1774  0292                     	;# 
  1775  0293                     	;# 
  1776  0293                     	;# 
  1777  0294                     	;# 
  1778  0295                     	;# 
  1779  0296                     	;# 
  1780  0296                     	;# 
  1781  0297                     	;# 
  1782  0298                     	;# 
  1783  0298                     	;# 
  1784  0299                     	;# 
  1785  0299                     	;# 
  1786  029A                     	;# 
  1787  029B                     	;# 
  1788  029C                     	;# 
  1789  029C                     	;# 
  1790  029D                     	;# 
  1791  030C                     	;# 
  1792  030C                     	;# 
  1793  030D                     	;# 
  1794  030E                     	;# 
  1795  030F                     	;# 
  1796  0310                     	;# 
  1797  0310                     	;# 
  1798  0311                     	;# 
  1799  0312                     	;# 
  1800  0313                     	;# 
  1801  0314                     	;# 
  1802  0314                     	;# 
  1803  0315                     	;# 
  1804  0316                     	;# 
  1805  0317                     	;# 
  1806  0318                     	;# 
  1807  0318                     	;# 
  1808  0319                     	;# 
  1809  031A                     	;# 
  1810  031B                     	;# 
  1811  031C                     	;# 
  1812  031C                     	;# 
  1813  031D                     	;# 
  1814  031E                     	;# 
  1815  031F                     	;# 
  1816  038C                     	;# 
  1817  038C                     	;# 
  1818  038D                     	;# 
  1819  038E                     	;# 
  1820  0390                     	;# 
  1821  0390                     	;# 
  1822  0391                     	;# 
  1823  0392                     	;# 
  1824  040C                     	;# 
  1825  040D                     	;# 
  1826  040E                     	;# 
  1827  040F                     	;# 
  1828  0410                     	;# 
  1829  0411                     	;# 
  1830  0416                     	;# 
  1831  0416                     	;# 
  1832  0417                     	;# 
  1833  0418                     	;# 
  1834  0418                     	;# 
  1835  0419                     	;# 
  1836  041A                     	;# 
  1837  041A                     	;# 
  1838  041B                     	;# 
  1839  041C                     	;# 
  1840  041C                     	;# 
  1841  041D                     	;# 
  1842  041E                     	;# 
  1843  041F                     	;# 
  1844  048C                     	;# 
  1845  048C                     	;# 
  1846  048D                     	;# 
  1847  048E                     	;# 
  1848  048F                     	;# 
  1849  048F                     	;# 
  1850  0490                     	;# 
  1851  0491                     	;# 
  1852  0492                     	;# 
  1853  0492                     	;# 
  1854  0493                     	;# 
  1855  0494                     	;# 
  1856  0495                     	;# 
  1857  0495                     	;# 
  1858  0496                     	;# 
  1859  0497                     	;# 
  1860  0498                     	;# 
  1861  0499                     	;# 
  1862  049A                     	;# 
  1863  049B                     	;# 
  1864  049C                     	;# 
  1865  049D                     	;# 
  1866  050C                     	;# 
  1867  050C                     	;# 
  1868  050D                     	;# 
  1869  050E                     	;# 
  1870  050F                     	;# 
  1871  050F                     	;# 
  1872  0510                     	;# 
  1873  0511                     	;# 
  1874  0512                     	;# 
  1875  0512                     	;# 
  1876  0513                     	;# 
  1877  0514                     	;# 
  1878  0515                     	;# 
  1879  0515                     	;# 
  1880  0516                     	;# 
  1881  0517                     	;# 
  1882  0518                     	;# 
  1883  0519                     	;# 
  1884  051A                     	;# 
  1885  051B                     	;# 
  1886  051C                     	;# 
  1887  051D                     	;# 
  1888  058C                     	;# 
  1889  058C                     	;# 
  1890  058D                     	;# 
  1891  058E                     	;# 
  1892  058F                     	;# 
  1893  058F                     	;# 
  1894  0590                     	;# 
  1895  0591                     	;# 
  1896  0592                     	;# 
  1897  0593                     	;# 
  1898  060C                     	;# 
  1899  060D                     	;# 
  1900  060E                     	;# 
  1901  060F                     	;# 
  1902  0610                     	;# 
  1903  0611                     	;# 
  1904  0612                     	;# 
  1905  0613                     	;# 
  1906  0614                     	;# 
  1907  0616                     	;# 
  1908  0617                     	;# 
  1909  0618                     	;# 
  1910  0619                     	;# 
  1911  061A                     	;# 
  1912  061B                     	;# 
  1913  061C                     	;# 
  1914  061D                     	;# 
  1915  061E                     	;# 
  1916  068C                     	;# 
  1917  068D                     	;# 
  1918  068E                     	;# 
  1919  068F                     	;# 
  1920  0690                     	;# 
  1921  0691                     	;# 
  1922  0692                     	;# 
  1923  0693                     	;# 
  1924  0694                     	;# 
  1925  070C                     	;# 
  1926  070D                     	;# 
  1927  070E                     	;# 
  1928  070F                     	;# 
  1929  0710                     	;# 
  1930  0711                     	;# 
  1931  0712                     	;# 
  1932  0713                     	;# 
  1933  0714                     	;# 
  1934  0716                     	;# 
  1935  0717                     	;# 
  1936  0718                     	;# 
  1937  0719                     	;# 
  1938  071A                     	;# 
  1939  071B                     	;# 
  1940  071C                     	;# 
  1941  071D                     	;# 
  1942  071E                     	;# 
  1943  0796                     	;# 
  1944  0797                     	;# 
  1945  0798                     	;# 
  1946  0799                     	;# 
  1947  079A                     	;# 
  1948  079B                     	;# 
  1949  080C                     	;# 
  1950  080D                     	;# 
  1951  080E                     	;# 
  1952  080F                     	;# 
  1953  0810                     	;# 
  1954  0811                     	;# 
  1955  0813                     	;# 
  1956  0814                     	;# 
  1957  081A                     	;# 
  1958  081B                     	;# 
  1959  081C                     	;# 
  1960  081D                     	;# 
  1961  081E                     	;# 
  1962  081F                     	;# 
  1963  088C                     	;# 
  1964  088D                     	;# 
  1965  088E                     	;# 
  1966  088F                     	;# 
  1967  0890                     	;# 
  1968  0891                     	;# 
  1969  0892                     	;# 
  1970  0893                     	;# 
  1971  0895                     	;# 
  1972  0896                     	;# 
  1973  0897                     	;# 
  1974  0898                     	;# 
  1975  0899                     	;# 
  1976  089A                     	;# 
  1977  089B                     	;# 
  1978  090C                     	;# 
  1979  090E                     	;# 
  1980  090F                     	;# 
  1981  091F                     	;# 
  1982  091F                     	;# 
  1983  098F                     	;# 
  1984  098F                     	;# 
  1985  0990                     	;# 
  1986  0991                     	;# 
  1987  0992                     	;# 
  1988  0993                     	;# 
  1989  0994                     	;# 
  1990  0995                     	;# 
  1991  0996                     	;# 
  1992  0997                     	;# 
  1993  0E0F                     	;# 
  1994  0E10                     	;# 
  1995  0E11                     	;# 
  1996  0E12                     	;# 
  1997  0E13                     	;# 
  1998  0E14                     	;# 
  1999  0E15                     	;# 
  2000  0E16                     	;# 
  2001  0E17                     	;# 
  2002  0E18                     	;# 
  2003  0E19                     	;# 
  2004  0E1A                     	;# 
  2005  0E1B                     	;# 
  2006  0E1C                     	;# 
  2007  0E1D                     	;# 
  2008  0E1E                     	;# 
  2009  0E1F                     	;# 
  2010  0E20                     	;# 
  2011  0E21                     	;# 
  2012  0E22                     	;# 
  2013  0E23                     	;# 
  2014  0E24                     	;# 
  2015  0E25                     	;# 
  2016  0E26                     	;# 
  2017  0E27                     	;# 
  2018  0E28                     	;# 
  2019  0E29                     	;# 
  2020  0E2A                     	;# 
  2021  0E2B                     	;# 
  2022  0E2C                     	;# 
  2023  0E2D                     	;# 
  2024  0E2E                     	;# 
  2025  0E2F                     	;# 
  2026  0E30                     	;# 
  2027  0E31                     	;# 
  2028  0E32                     	;# 
  2029  0E33                     	;# 
  2030  0E34                     	;# 
  2031  0E35                     	;# 
  2032  0E36                     	;# 
  2033  0E37                     	;# 
  2034  0E8F                     	;# 
  2035  0E90                     	;# 
  2036  0E91                     	;# 
  2037  0E92                     	;# 
  2038  0E93                     	;# 
  2039  0E94                     	;# 
  2040  0E95                     	;# 
  2041  0E96                     	;# 
  2042  0E97                     	;# 
  2043  0E9C                     	;# 
  2044  0E9D                     	;# 
  2045  0E9E                     	;# 
  2046  0EA1                     	;# 
  2047  0EA2                     	;# 
  2048  0EA3                     	;# 
  2049  0EA4                     	;# 
  2050  0EA5                     	;# 
  2051  0EA9                     	;# 
  2052  0EAA                     	;# 
  2053  0EAB                     	;# 
  2054  0EAC                     	;# 
  2055  0EB1                     	;# 
  2056  0EB2                     	;# 
  2057  0EB3                     	;# 
  2058  0EB8                     	;# 
  2059  0EB9                     	;# 
  2060  0EBA                     	;# 
  2061  0EBB                     	;# 
  2062  0EBC                     	;# 
  2063  0EBD                     	;# 
  2064  0EBE                     	;# 
  2065  0EC3                     	;# 
  2066  0EC5                     	;# 
  2067  0EC6                     	;# 
  2068  0EC7                     	;# 
  2069  0EC8                     	;# 
  2070  0EC9                     	;# 
  2071  0ECA                     	;# 
  2072  0ECB                     	;# 
  2073  0ECC                     	;# 
  2074  0F10                     	;# 
  2075  0F11                     	;# 
  2076  0F12                     	;# 
  2077  0F13                     	;# 
  2078  0F14                     	;# 
  2079  0F15                     	;# 
  2080  0F16                     	;# 
  2081  0F17                     	;# 
  2082  0F18                     	;# 
  2083  0F19                     	;# 
  2084  0F1A                     	;# 
  2085  0F1B                     	;# 
  2086  0F1C                     	;# 
  2087  0F1D                     	;# 
  2088  0F1E                     	;# 
  2089  0F1F                     	;# 
  2090  0F20                     	;# 
  2091  0F21                     	;# 
  2092  0F22                     	;# 
  2093  0F23                     	;# 
  2094  0F24                     	;# 
  2095  0F25                     	;# 
  2096  0F26                     	;# 
  2097  0F27                     	;# 
  2098  0F38                     	;# 
  2099  0F39                     	;# 
  2100  0F3A                     	;# 
  2101  0F3B                     	;# 
  2102  0F3C                     	;# 
  2103  0F3D                     	;# 
  2104  0F3E                     	;# 
  2105  0F3F                     	;# 
  2106  0F40                     	;# 
  2107  0F41                     	;# 
  2108  0F43                     	;# 
  2109  0F44                     	;# 
  2110  0F45                     	;# 
  2111  0F46                     	;# 
  2112  0F47                     	;# 
  2113  0F48                     	;# 
  2114  0F49                     	;# 
  2115  0F4A                     	;# 
  2116  0F4B                     	;# 
  2117  0F4C                     	;# 
  2118  0F4E                     	;# 
  2119  0F4F                     	;# 
  2120  0F50                     	;# 
  2121  0F51                     	;# 
  2122  0F52                     	;# 
  2123  0F53                     	;# 
  2124  0F54                     	;# 
  2125  0F55                     	;# 
  2126  0F56                     	;# 
  2127  0F57                     	;# 
  2128  0F65                     	;# 
  2129  0F68                     	;# 
  2130  0F69                     	;# 
  2131  0F6A                     	;# 
  2132  0F6B                     	;# 
  2133  0FE4                     	;# 
  2134  0FE5                     	;# 
  2135  0FE6                     	;# 
  2136  0FE7                     	;# 
  2137  0FE8                     	;# 
  2138  0FE9                     	;# 
  2139  0FEA                     	;# 
  2140  0FEB                     	;# 
  2141  0FED                     	;# 
  2142  0FEE                     	;# 
  2143  0FEF                     	;# 
  2144  0000                     	;# 
  2145  0001                     	;# 
  2146  0002                     	;# 
  2147  0003                     	;# 
  2148  0004                     	;# 
  2149  0005                     	;# 
  2150  0006                     	;# 
  2151  0007                     	;# 
  2152  0008                     	;# 
  2153  0009                     	;# 
  2154  000A                     	;# 
  2155  000B                     	;# 
  2156  000C                     	;# 
  2157  000D                     	;# 
  2158  000E                     	;# 
  2159  0010                     	;# 
  2160  0011                     	;# 
  2161  0012                     	;# 
  2162  0013                     	;# 
  2163  0016                     	;# 
  2164  0017                     	;# 
  2165  0018                     	;# 
  2166  001C                     	;# 
  2167  001C                     	;# 
  2168  001D                     	;# 
  2169  001D                     	;# 
  2170  001E                     	;# 
  2171  001F                     	;# 
  2172  008C                     	;# 
  2173  008C                     	;# 
  2174  008D                     	;# 
  2175  008E                     	;# 
  2176  008E                     	;# 
  2177  008F                     	;# 
  2178  0090                     	;# 
  2179  0090                     	;# 
  2180  0091                     	;# 
  2181  0093                     	;# 
  2182  0094                     	;# 
  2183  0095                     	;# 
  2184  0096                     	;# 
  2185  0097                     	;# 
  2186  0098                     	;# 
  2187  0099                     	;# 
  2188  009A                     	;# 
  2189  009B                     	;# 
  2190  009C                     	;# 
  2191  009D                     	;# 
  2192  009E                     	;# 
  2193  010C                     	;# 
  2194  010D                     	;# 
  2195  010E                     	;# 
  2196  010E                     	;# 
  2197  010F                     	;# 
  2198  0110                     	;# 
  2199  0110                     	;# 
  2200  0111                     	;# 
  2201  0112                     	;# 
  2202  0112                     	;# 
  2203  0113                     	;# 
  2204  0114                     	;# 
  2205  0114                     	;# 
  2206  0115                     	;# 
  2207  0116                     	;# 
  2208  0116                     	;# 
  2209  0117                     	;# 
  2210  0119                     	;# 
  2211  0119                     	;# 
  2212  0119                     	;# 
  2213  011A                     	;# 
  2214  011A                     	;# 
  2215  011A                     	;# 
  2216  011B                     	;# 
  2217  011B                     	;# 
  2218  011B                     	;# 
  2219  011B                     	;# 
  2220  011B                     	;# 
  2221  011C                     	;# 
  2222  011C                     	;# 
  2223  011C                     	;# 
  2224  011D                     	;# 
  2225  011D                     	;# 
  2226  011D                     	;# 
  2227  011E                     	;# 
  2228  011E                     	;# 
  2229  011E                     	;# 
  2230  011F                     	;# 
  2231  011F                     	;# 
  2232  011F                     	;# 
  2233  011F                     	;# 
  2234  011F                     	;# 
  2235  018C                     	;# 
  2236  018D                     	;# 
  2237  018E                     	;# 
  2238  018F                     	;# 
  2239  0190                     	;# 
  2240  0191                     	;# 
  2241  0192                     	;# 
  2242  0196                     	;# 
  2243  0197                     	;# 
  2244  0198                     	;# 
  2245  0199                     	;# 
  2246  019A                     	;# 
  2247  019B                     	;# 
  2248  019C                     	;# 
  2249  020C                     	;# 
  2250  020C                     	;# 
  2251  020D                     	;# 
  2252  020E                     	;# 
  2253  020F                     	;# 
  2254  020F                     	;# 
  2255  0210                     	;# 
  2256  0210                     	;# 
  2257  0211                     	;# 
  2258  0211                     	;# 
  2259  0212                     	;# 
  2260  0212                     	;# 
  2261  0213                     	;# 
  2262  0214                     	;# 
  2263  0215                     	;# 
  2264  0215                     	;# 
  2265  0216                     	;# 
  2266  0216                     	;# 
  2267  0217                     	;# 
  2268  0217                     	;# 
  2269  0218                     	;# 
  2270  0218                     	;# 
  2271  0219                     	;# 
  2272  021A                     	;# 
  2273  021B                     	;# 
  2274  021B                     	;# 
  2275  021C                     	;# 
  2276  021C                     	;# 
  2277  021D                     	;# 
  2278  021D                     	;# 
  2279  021E                     	;# 
  2280  021F                     	;# 
  2281  028C                     	;# 
  2282  028C                     	;# 
  2283  028D                     	;# 
  2284  028D                     	;# 
  2285  028E                     	;# 
  2286  028F                     	;# 
  2287  0290                     	;# 
  2288  0290                     	;# 
  2289  0291                     	;# 
  2290  0292                     	;# 
  2291  0292                     	;# 
  2292  0293                     	;# 
  2293  0293                     	;# 
  2294  0294                     	;# 
  2295  0295                     	;# 
  2296  0296                     	;# 
  2297  0296                     	;# 
  2298  0297                     	;# 
  2299  0298                     	;# 
  2300  0298                     	;# 
  2301  0299                     	;# 
  2302  0299                     	;# 
  2303  029A                     	;# 
  2304  029B                     	;# 
  2305  029C                     	;# 
  2306  029C                     	;# 
  2307  029D                     	;# 
  2308  030C                     	;# 
  2309  030C                     	;# 
  2310  030D                     	;# 
  2311  030E                     	;# 
  2312  030F                     	;# 
  2313  0310                     	;# 
  2314  0310                     	;# 
  2315  0311                     	;# 
  2316  0312                     	;# 
  2317  0313                     	;# 
  2318  0314                     	;# 
  2319  0314                     	;# 
  2320  0315                     	;# 
  2321  0316                     	;# 
  2322  0317                     	;# 
  2323  0318                     	;# 
  2324  0318                     	;# 
  2325  0319                     	;# 
  2326  031A                     	;# 
  2327  031B                     	;# 
  2328  031C                     	;# 
  2329  031C                     	;# 
  2330  031D                     	;# 
  2331  031E                     	;# 
  2332  031F                     	;# 
  2333  038C                     	;# 
  2334  038C                     	;# 
  2335  038D                     	;# 
  2336  038E                     	;# 
  2337  0390                     	;# 
  2338  0390                     	;# 
  2339  0391                     	;# 
  2340  0392                     	;# 
  2341  040C                     	;# 
  2342  040D                     	;# 
  2343  040E                     	;# 
  2344  040F                     	;# 
  2345  0410                     	;# 
  2346  0411                     	;# 
  2347  0416                     	;# 
  2348  0416                     	;# 
  2349  0417                     	;# 
  2350  0418                     	;# 
  2351  0418                     	;# 
  2352  0419                     	;# 
  2353  041A                     	;# 
  2354  041A                     	;# 
  2355  041B                     	;# 
  2356  041C                     	;# 
  2357  041C                     	;# 
  2358  041D                     	;# 
  2359  041E                     	;# 
  2360  041F                     	;# 
  2361  048C                     	;# 
  2362  048C                     	;# 
  2363  048D                     	;# 
  2364  048E                     	;# 
  2365  048F                     	;# 
  2366  048F                     	;# 
  2367  0490                     	;# 
  2368  0491                     	;# 
  2369  0492                     	;# 
  2370  0492                     	;# 
  2371  0493                     	;# 
  2372  0494                     	;# 
  2373  0495                     	;# 
  2374  0495                     	;# 
  2375  0496                     	;# 
  2376  0497                     	;# 
  2377  0498                     	;# 
  2378  0499                     	;# 
  2379  049A                     	;# 
  2380  049B                     	;# 
  2381  049C                     	;# 
  2382  049D                     	;# 
  2383  050C                     	;# 
  2384  050C                     	;# 
  2385  050D                     	;# 
  2386  050E                     	;# 
  2387  050F                     	;# 
  2388  050F                     	;# 
  2389  0510                     	;# 
  2390  0511                     	;# 
  2391  0512                     	;# 
  2392  0512                     	;# 
  2393  0513                     	;# 
  2394  0514                     	;# 
  2395  0515                     	;# 
  2396  0515                     	;# 
  2397  0516                     	;# 
  2398  0517                     	;# 
  2399  0518                     	;# 
  2400  0519                     	;# 
  2401  051A                     	;# 
  2402  051B                     	;# 
  2403  051C                     	;# 
  2404  051D                     	;# 
  2405  058C                     	;# 
  2406  058C                     	;# 
  2407  058D                     	;# 
  2408  058E                     	;# 
  2409  058F                     	;# 
  2410  058F                     	;# 
  2411  0590                     	;# 
  2412  0591                     	;# 
  2413  0592                     	;# 
  2414  0593                     	;# 
  2415  060C                     	;# 
  2416  060D                     	;# 
  2417  060E                     	;# 
  2418  060F                     	;# 
  2419  0610                     	;# 
  2420  0611                     	;# 
  2421  0612                     	;# 
  2422  0613                     	;# 
  2423  0614                     	;# 
  2424  0616                     	;# 
  2425  0617                     	;# 
  2426  0618                     	;# 
  2427  0619                     	;# 
  2428  061A                     	;# 
  2429  061B                     	;# 
  2430  061C                     	;# 
  2431  061D                     	;# 
  2432  061E                     	;# 
  2433  068C                     	;# 
  2434  068D                     	;# 
  2435  068E                     	;# 
  2436  068F                     	;# 
  2437  0690                     	;# 
  2438  0691                     	;# 
  2439  0692                     	;# 
  2440  0693                     	;# 
  2441  0694                     	;# 
  2442  070C                     	;# 
  2443  070D                     	;# 
  2444  070E                     	;# 
  2445  070F                     	;# 
  2446  0710                     	;# 
  2447  0711                     	;# 
  2448  0712                     	;# 
  2449  0713                     	;# 
  2450  0714                     	;# 
  2451  0716                     	;# 
  2452  0717                     	;# 
  2453  0718                     	;# 
  2454  0719                     	;# 
  2455  071A                     	;# 
  2456  071B                     	;# 
  2457  071C                     	;# 
  2458  071D                     	;# 
  2459  071E                     	;# 
  2460  0796                     	;# 
  2461  0797                     	;# 
  2462  0798                     	;# 
  2463  0799                     	;# 
  2464  079A                     	;# 
  2465  079B                     	;# 
  2466  080C                     	;# 
  2467  080D                     	;# 
  2468  080E                     	;# 
  2469  080F                     	;# 
  2470  0810                     	;# 
  2471  0811                     	;# 
  2472  0813                     	;# 
  2473  0814                     	;# 
  2474  081A                     	;# 
  2475  081B                     	;# 
  2476  081C                     	;# 
  2477  081D                     	;# 
  2478  081E                     	;# 
  2479  081F                     	;# 
  2480  088C                     	;# 
  2481  088D                     	;# 
  2482  088E                     	;# 
  2483  088F                     	;# 
  2484  0890                     	;# 
  2485  0891                     	;# 
  2486  0892                     	;# 
  2487  0893                     	;# 
  2488  0895                     	;# 
  2489  0896                     	;# 
  2490  0897                     	;# 
  2491  0898                     	;# 
  2492  0899                     	;# 
  2493  089A                     	;# 
  2494  089B                     	;# 
  2495  090C                     	;# 
  2496  090E                     	;# 
  2497  090F                     	;# 
  2498  091F                     	;# 
  2499  091F                     	;# 
  2500  098F                     	;# 
  2501  098F                     	;# 
  2502  0990                     	;# 
  2503  0991                     	;# 
  2504  0992                     	;# 
  2505  0993                     	;# 
  2506  0994                     	;# 
  2507  0995                     	;# 
  2508  0996                     	;# 
  2509  0997                     	;# 
  2510  0E0F                     	;# 
  2511  0E10                     	;# 
  2512  0E11                     	;# 
  2513  0E12                     	;# 
  2514  0E13                     	;# 
  2515  0E14                     	;# 
  2516  0E15                     	;# 
  2517  0E16                     	;# 
  2518  0E17                     	;# 
  2519  0E18                     	;# 
  2520  0E19                     	;# 
  2521  0E1A                     	;# 
  2522  0E1B                     	;# 
  2523  0E1C                     	;# 
  2524  0E1D                     	;# 
  2525  0E1E                     	;# 
  2526  0E1F                     	;# 
  2527  0E20                     	;# 
  2528  0E21                     	;# 
  2529  0E22                     	;# 
  2530  0E23                     	;# 
  2531  0E24                     	;# 
  2532  0E25                     	;# 
  2533  0E26                     	;# 
  2534  0E27                     	;# 
  2535  0E28                     	;# 
  2536  0E29                     	;# 
  2537  0E2A                     	;# 
  2538  0E2B                     	;# 
  2539  0E2C                     	;# 
  2540  0E2D                     	;# 
  2541  0E2E                     	;# 
  2542  0E2F                     	;# 
  2543  0E30                     	;# 
  2544  0E31                     	;# 
  2545  0E32                     	;# 
  2546  0E33                     	;# 
  2547  0E34                     	;# 
  2548  0E35                     	;# 
  2549  0E36                     	;# 
  2550  0E37                     	;# 
  2551  0E8F                     	;# 
  2552  0E90                     	;# 
  2553  0E91                     	;# 
  2554  0E92                     	;# 
  2555  0E93                     	;# 
  2556  0E94                     	;# 
  2557  0E95                     	;# 
  2558  0E96                     	;# 
  2559  0E97                     	;# 
  2560  0E9C                     	;# 
  2561  0E9D                     	;# 
  2562  0E9E                     	;# 
  2563  0EA1                     	;# 
  2564  0EA2                     	;# 
  2565  0EA3                     	;# 
  2566  0EA4                     	;# 
  2567  0EA5                     	;# 
  2568  0EA9                     	;# 
  2569  0EAA                     	;# 
  2570  0EAB                     	;# 
  2571  0EAC                     	;# 
  2572  0EB1                     	;# 
  2573  0EB2                     	;# 
  2574  0EB3                     	;# 
  2575  0EB8                     	;# 
  2576  0EB9                     	;# 
  2577  0EBA                     	;# 
  2578  0EBB                     	;# 
  2579  0EBC                     	;# 
  2580  0EBD                     	;# 
  2581  0EBE                     	;# 
  2582  0EC3                     	;# 
  2583  0EC5                     	;# 
  2584  0EC6                     	;# 
  2585  0EC7                     	;# 
  2586  0EC8                     	;# 
  2587  0EC9                     	;# 
  2588  0ECA                     	;# 
  2589  0ECB                     	;# 
  2590  0ECC                     	;# 
  2591  0F10                     	;# 
  2592  0F11                     	;# 
  2593  0F12                     	;# 
  2594  0F13                     	;# 
  2595  0F14                     	;# 
  2596  0F15                     	;# 
  2597  0F16                     	;# 
  2598  0F17                     	;# 
  2599  0F18                     	;# 
  2600  0F19                     	;# 
  2601  0F1A                     	;# 
  2602  0F1B                     	;# 
  2603  0F1C                     	;# 
  2604  0F1D                     	;# 
  2605  0F1E                     	;# 
  2606  0F1F                     	;# 
  2607  0F20                     	;# 
  2608  0F21                     	;# 
  2609  0F22                     	;# 
  2610  0F23                     	;# 
  2611  0F24                     	;# 
  2612  0F25                     	;# 
  2613  0F26                     	;# 
  2614  0F27                     	;# 
  2615  0F38                     	;# 
  2616  0F39                     	;# 
  2617  0F3A                     	;# 
  2618  0F3B                     	;# 
  2619  0F3C                     	;# 
  2620  0F3D                     	;# 
  2621  0F3E                     	;# 
  2622  0F3F                     	;# 
  2623  0F40                     	;# 
  2624  0F41                     	;# 
  2625  0F43                     	;# 
  2626  0F44                     	;# 
  2627  0F45                     	;# 
  2628  0F46                     	;# 
  2629  0F47                     	;# 
  2630  0F48                     	;# 
  2631  0F49                     	;# 
  2632  0F4A                     	;# 
  2633  0F4B                     	;# 
  2634  0F4C                     	;# 
  2635  0F4E                     	;# 
  2636  0F4F                     	;# 
  2637  0F50                     	;# 
  2638  0F51                     	;# 
  2639  0F52                     	;# 
  2640  0F53                     	;# 
  2641  0F54                     	;# 
  2642  0F55                     	;# 
  2643  0F56                     	;# 
  2644  0F57                     	;# 
  2645  0F65                     	;# 
  2646  0F68                     	;# 
  2647  0F69                     	;# 
  2648  0F6A                     	;# 
  2649  0F6B                     	;# 
  2650  0FE4                     	;# 
  2651  0FE5                     	;# 
  2652  0FE6                     	;# 
  2653  0FE7                     	;# 
  2654  0FE8                     	;# 
  2655  0FE9                     	;# 
  2656  0FEA                     	;# 
  2657  0FEB                     	;# 
  2658  0FED                     	;# 
  2659  0FEE                     	;# 
  2660  0FEF                     	;# 
  2661  0000                     	;# 
  2662  0001                     	;# 
  2663  0002                     	;# 
  2664  0003                     	;# 
  2665  0004                     	;# 
  2666  0005                     	;# 
  2667  0006                     	;# 
  2668  0007                     	;# 
  2669  0008                     	;# 
  2670  0009                     	;# 
  2671  000A                     	;# 
  2672  000B                     	;# 
  2673  000C                     	;# 
  2674  000D                     	;# 
  2675  000E                     	;# 
  2676  0010                     	;# 
  2677  0011                     	;# 
  2678  0012                     	;# 
  2679  0013                     	;# 
  2680  0016                     	;# 
  2681  0017                     	;# 
  2682  0018                     	;# 
  2683  001C                     	;# 
  2684  001C                     	;# 
  2685  001D                     	;# 
  2686  001D                     	;# 
  2687  001E                     	;# 
  2688  001F                     	;# 
  2689  008C                     	;# 
  2690  008C                     	;# 
  2691  008D                     	;# 
  2692  008E                     	;# 
  2693  008E                     	;# 
  2694  008F                     	;# 
  2695  0090                     	;# 
  2696  0090                     	;# 
  2697  0091                     	;# 
  2698  0093                     	;# 
  2699  0094                     	;# 
  2700  0095                     	;# 
  2701  0096                     	;# 
  2702  0097                     	;# 
  2703  0098                     	;# 
  2704  0099                     	;# 
  2705  009A                     	;# 
  2706  009B                     	;# 
  2707  009C                     	;# 
  2708  009D                     	;# 
  2709  009E                     	;# 
  2710  010C                     	;# 
  2711  010D                     	;# 
  2712  010E                     	;# 
  2713  010E                     	;# 
  2714  010F                     	;# 
  2715  0110                     	;# 
  2716  0110                     	;# 
  2717  0111                     	;# 
  2718  0112                     	;# 
  2719  0112                     	;# 
  2720  0113                     	;# 
  2721  0114                     	;# 
  2722  0114                     	;# 
  2723  0115                     	;# 
  2724  0116                     	;# 
  2725  0116                     	;# 
  2726  0117                     	;# 
  2727  0119                     	;# 
  2728  0119                     	;# 
  2729  0119                     	;# 
  2730  011A                     	;# 
  2731  011A                     	;# 
  2732  011A                     	;# 
  2733  011B                     	;# 
  2734  011B                     	;# 
  2735  011B                     	;# 
  2736  011B                     	;# 
  2737  011B                     	;# 
  2738  011C                     	;# 
  2739  011C                     	;# 
  2740  011C                     	;# 
  2741  011D                     	;# 
  2742  011D                     	;# 
  2743  011D                     	;# 
  2744  011E                     	;# 
  2745  011E                     	;# 
  2746  011E                     	;# 
  2747  011F                     	;# 
  2748  011F                     	;# 
  2749  011F                     	;# 
  2750  011F                     	;# 
  2751  011F                     	;# 
  2752  018C                     	;# 
  2753  018D                     	;# 
  2754  018E                     	;# 
  2755  018F                     	;# 
  2756  0190                     	;# 
  2757  0191                     	;# 
  2758  0192                     	;# 
  2759  0196                     	;# 
  2760  0197                     	;# 
  2761  0198                     	;# 
  2762  0199                     	;# 
  2763  019A                     	;# 
  2764  019B                     	;# 
  2765  019C                     	;# 
  2766  020C                     	;# 
  2767  020C                     	;# 
  2768  020D                     	;# 
  2769  020E                     	;# 
  2770  020F                     	;# 
  2771  020F                     	;# 
  2772  0210                     	;# 
  2773  0210                     	;# 
  2774  0211                     	;# 
  2775  0211                     	;# 
  2776  0212                     	;# 
  2777  0212                     	;# 
  2778  0213                     	;# 
  2779  0214                     	;# 
  2780  0215                     	;# 
  2781  0215                     	;# 
  2782  0216                     	;# 
  2783  0216                     	;# 
  2784  0217                     	;# 
  2785  0217                     	;# 
  2786  0218                     	;# 
  2787  0218                     	;# 
  2788  0219                     	;# 
  2789  021A                     	;# 
  2790  021B                     	;# 
  2791  021B                     	;# 
  2792  021C                     	;# 
  2793  021C                     	;# 
  2794  021D                     	;# 
  2795  021D                     	;# 
  2796  021E                     	;# 
  2797  021F                     	;# 
  2798  028C                     	;# 
  2799  028C                     	;# 
  2800  028D                     	;# 
  2801  028D                     	;# 
  2802  028E                     	;# 
  2803  028F                     	;# 
  2804  0290                     	;# 
  2805  0290                     	;# 
  2806  0291                     	;# 
  2807  0292                     	;# 
  2808  0292                     	;# 
  2809  0293                     	;# 
  2810  0293                     	;# 
  2811  0294                     	;# 
  2812  0295                     	;# 
  2813  0296                     	;# 
  2814  0296                     	;# 
  2815  0297                     	;# 
  2816  0298                     	;# 
  2817  0298                     	;# 
  2818  0299                     	;# 
  2819  0299                     	;# 
  2820  029A                     	;# 
  2821  029B                     	;# 
  2822  029C                     	;# 
  2823  029C                     	;# 
  2824  029D                     	;# 
  2825  030C                     	;# 
  2826  030C                     	;# 
  2827  030D                     	;# 
  2828  030E                     	;# 
  2829  030F                     	;# 
  2830  0310                     	;# 
  2831  0310                     	;# 
  2832  0311                     	;# 
  2833  0312                     	;# 
  2834  0313                     	;# 
  2835  0314                     	;# 
  2836  0314                     	;# 
  2837  0315                     	;# 
  2838  0316                     	;# 
  2839  0317                     	;# 
  2840  0318                     	;# 
  2841  0318                     	;# 
  2842  0319                     	;# 
  2843  031A                     	;# 
  2844  031B                     	;# 
  2845  031C                     	;# 
  2846  031C                     	;# 
  2847  031D                     	;# 
  2848  031E                     	;# 
  2849  031F                     	;# 
  2850  038C                     	;# 
  2851  038C                     	;# 
  2852  038D                     	;# 
  2853  038E                     	;# 
  2854  0390                     	;# 
  2855  0390                     	;# 
  2856  0391                     	;# 
  2857  0392                     	;# 
  2858  040C                     	;# 
  2859  040D                     	;# 
  2860  040E                     	;# 
  2861  040F                     	;# 
  2862  0410                     	;# 
  2863  0411                     	;# 
  2864  0416                     	;# 
  2865  0416                     	;# 
  2866  0417                     	;# 
  2867  0418                     	;# 
  2868  0418                     	;# 
  2869  0419                     	;# 
  2870  041A                     	;# 
  2871  041A                     	;# 
  2872  041B                     	;# 
  2873  041C                     	;# 
  2874  041C                     	;# 
  2875  041D                     	;# 
  2876  041E                     	;# 
  2877  041F                     	;# 
  2878  048C                     	;# 
  2879  048C                     	;# 
  2880  048D                     	;# 
  2881  048E                     	;# 
  2882  048F                     	;# 
  2883  048F                     	;# 
  2884  0490                     	;# 
  2885  0491                     	;# 
  2886  0492                     	;# 
  2887  0492                     	;# 
  2888  0493                     	;# 
  2889  0494                     	;# 
  2890  0495                     	;# 
  2891  0495                     	;# 
  2892  0496                     	;# 
  2893  0497                     	;# 
  2894  0498                     	;# 
  2895  0499                     	;# 
  2896  049A                     	;# 
  2897  049B                     	;# 
  2898  049C                     	;# 
  2899  049D                     	;# 
  2900  050C                     	;# 
  2901  050C                     	;# 
  2902  050D                     	;# 
  2903  050E                     	;# 
  2904  050F                     	;# 
  2905  050F                     	;# 
  2906  0510                     	;# 
  2907  0511                     	;# 
  2908  0512                     	;# 
  2909  0512                     	;# 
  2910  0513                     	;# 
  2911  0514                     	;# 
  2912  0515                     	;# 
  2913  0515                     	;# 
  2914  0516                     	;# 
  2915  0517                     	;# 
  2916  0518                     	;# 
  2917  0519                     	;# 
  2918  051A                     	;# 
  2919  051B                     	;# 
  2920  051C                     	;# 
  2921  051D                     	;# 
  2922  058C                     	;# 
  2923  058C                     	;# 
  2924  058D                     	;# 
  2925  058E                     	;# 
  2926  058F                     	;# 
  2927  058F                     	;# 
  2928  0590                     	;# 
  2929  0591                     	;# 
  2930  0592                     	;# 
  2931  0593                     	;# 
  2932  060C                     	;# 
  2933  060D                     	;# 
  2934  060E                     	;# 
  2935  060F                     	;# 
  2936  0610                     	;# 
  2937  0611                     	;# 
  2938  0612                     	;# 
  2939  0613                     	;# 
  2940  0614                     	;# 
  2941  0616                     	;# 
  2942  0617                     	;# 
  2943  0618                     	;# 
  2944  0619                     	;# 
  2945  061A                     	;# 
  2946  061B                     	;# 
  2947  061C                     	;# 
  2948  061D                     	;# 
  2949  061E                     	;# 
  2950  068C                     	;# 
  2951  068D                     	;# 
  2952  068E                     	;# 
  2953  068F                     	;# 
  2954  0690                     	;# 
  2955  0691                     	;# 
  2956  0692                     	;# 
  2957  0693                     	;# 
  2958  0694                     	;# 
  2959  070C                     	;# 
  2960  070D                     	;# 
  2961  070E                     	;# 
  2962  070F                     	;# 
  2963  0710                     	;# 
  2964  0711                     	;# 
  2965  0712                     	;# 
  2966  0713                     	;# 
  2967  0714                     	;# 
  2968  0716                     	;# 
  2969  0717                     	;# 
  2970  0718                     	;# 
  2971  0719                     	;# 
  2972  071A                     	;# 
  2973  071B                     	;# 
  2974  071C                     	;# 
  2975  071D                     	;# 
  2976  071E                     	;# 
  2977  0796                     	;# 
  2978  0797                     	;# 
  2979  0798                     	;# 
  2980  0799                     	;# 
  2981  079A                     	;# 
  2982  079B                     	;# 
  2983  080C                     	;# 
  2984  080D                     	;# 
  2985  080E                     	;# 
  2986  080F                     	;# 
  2987  0810                     	;# 
  2988  0811                     	;# 
  2989  0813                     	;# 
  2990  0814                     	;# 
  2991  081A                     	;# 
  2992  081B                     	;# 
  2993  081C                     	;# 
  2994  081D                     	;# 
  2995  081E                     	;# 
  2996  081F                     	;# 
  2997  088C                     	;# 
  2998  088D                     	;# 
  2999  088E                     	;# 
  3000  088F                     	;# 
  3001  0890                     	;# 
  3002  0891                     	;# 
  3003  0892                     	;# 
  3004  0893                     	;# 
  3005  0895                     	;# 
  3006  0896                     	;# 
  3007  0897                     	;# 
  3008  0898                     	;# 
  3009  0899                     	;# 
  3010  089A                     	;# 
  3011  089B                     	;# 
  3012  090C                     	;# 
  3013  090E                     	;# 
  3014  090F                     	;# 
  3015  091F                     	;# 
  3016  091F                     	;# 
  3017  098F                     	;# 
  3018  098F                     	;# 
  3019  0990                     	;# 
  3020  0991                     	;# 
  3021  0992                     	;# 
  3022  0993                     	;# 
  3023  0994                     	;# 
  3024  0995                     	;# 
  3025  0996                     	;# 
  3026  0997                     	;# 
  3027  0E0F                     	;# 
  3028  0E10                     	;# 
  3029  0E11                     	;# 
  3030  0E12                     	;# 
  3031  0E13                     	;# 
  3032  0E14                     	;# 
  3033  0E15                     	;# 
  3034  0E16                     	;# 
  3035  0E17                     	;# 
  3036  0E18                     	;# 
  3037  0E19                     	;# 
  3038  0E1A                     	;# 
  3039  0E1B                     	;# 
  3040  0E1C                     	;# 
  3041  0E1D                     	;# 
  3042  0E1E                     	;# 
  3043  0E1F                     	;# 
  3044  0E20                     	;# 
  3045  0E21                     	;# 
  3046  0E22                     	;# 
  3047  0E23                     	;# 
  3048  0E24                     	;# 
  3049  0E25                     	;# 
  3050  0E26                     	;# 
  3051  0E27                     	;# 
  3052  0E28                     	;# 
  3053  0E29                     	;# 
  3054  0E2A                     	;# 
  3055  0E2B                     	;# 
  3056  0E2C                     	;# 
  3057  0E2D                     	;# 
  3058  0E2E                     	;# 
  3059  0E2F                     	;# 
  3060  0E30                     	;# 
  3061  0E31                     	;# 
  3062  0E32                     	;# 
  3063  0E33                     	;# 
  3064  0E34                     	;# 
  3065  0E35                     	;# 
  3066  0E36                     	;# 
  3067  0E37                     	;# 
  3068  0E8F                     	;# 
  3069  0E90                     	;# 
  3070  0E91                     	;# 
  3071  0E92                     	;# 
  3072  0E93                     	;# 
  3073  0E94                     	;# 
  3074  0E95                     	;# 
  3075  0E96                     	;# 
  3076  0E97                     	;# 
  3077  0E9C                     	;# 
  3078  0E9D                     	;# 
  3079  0E9E                     	;# 
  3080  0EA1                     	;# 
  3081  0EA2                     	;# 
  3082  0EA3                     	;# 
  3083  0EA4                     	;# 
  3084  0EA5                     	;# 
  3085  0EA9                     	;# 
  3086  0EAA                     	;# 
  3087  0EAB                     	;# 
  3088  0EAC                     	;# 
  3089  0EB1                     	;# 
  3090  0EB2                     	;# 
  3091  0EB3                     	;# 
  3092  0EB8                     	;# 
  3093  0EB9                     	;# 
  3094  0EBA                     	;# 
  3095  0EBB                     	;# 
  3096  0EBC                     	;# 
  3097  0EBD                     	;# 
  3098  0EBE                     	;# 
  3099  0EC3                     	;# 
  3100  0EC5                     	;# 
  3101  0EC6                     	;# 
  3102  0EC7                     	;# 
  3103  0EC8                     	;# 
  3104  0EC9                     	;# 
  3105  0ECA                     	;# 
  3106  0ECB                     	;# 
  3107  0ECC                     	;# 
  3108  0F10                     	;# 
  3109  0F11                     	;# 
  3110  0F12                     	;# 
  3111  0F13                     	;# 
  3112  0F14                     	;# 
  3113  0F15                     	;# 
  3114  0F16                     	;# 
  3115  0F17                     	;# 
  3116  0F18                     	;# 
  3117  0F19                     	;# 
  3118  0F1A                     	;# 
  3119  0F1B                     	;# 
  3120  0F1C                     	;# 
  3121  0F1D                     	;# 
  3122  0F1E                     	;# 
  3123  0F1F                     	;# 
  3124  0F20                     	;# 
  3125  0F21                     	;# 
  3126  0F22                     	;# 
  3127  0F23                     	;# 
  3128  0F24                     	;# 
  3129  0F25                     	;# 
  3130  0F26                     	;# 
  3131  0F27                     	;# 
  3132  0F38                     	;# 
  3133  0F39                     	;# 
  3134  0F3A                     	;# 
  3135  0F3B                     	;# 
  3136  0F3C                     	;# 
  3137  0F3D                     	;# 
  3138  0F3E                     	;# 
  3139  0F3F                     	;# 
  3140  0F40                     	;# 
  3141  0F41                     	;# 
  3142  0F43                     	;# 
  3143  0F44                     	;# 
  3144  0F45                     	;# 
  3145  0F46                     	;# 
  3146  0F47                     	;# 
  3147  0F48                     	;# 
  3148  0F49                     	;# 
  3149  0F4A                     	;# 
  3150  0F4B                     	;# 
  3151  0F4C                     	;# 
  3152  0F4E                     	;# 
  3153  0F4F                     	;# 
  3154  0F50                     	;# 
  3155  0F51                     	;# 
  3156  0F52                     	;# 
  3157  0F53                     	;# 
  3158  0F54                     	;# 
  3159  0F55                     	;# 
  3160  0F56                     	;# 
  3161  0F57                     	;# 
  3162  0F65                     	;# 
  3163  0F68                     	;# 
  3164  0F69                     	;# 
  3165  0F6A                     	;# 
  3166  0F6B                     	;# 
  3167  0FE4                     	;# 
  3168  0FE5                     	;# 
  3169  0FE6                     	;# 
  3170  0FE7                     	;# 
  3171  0FE8                     	;# 
  3172  0FE9                     	;# 
  3173  0FEA                     	;# 
  3174  0FEB                     	;# 
  3175  0FED                     	;# 
  3176  0FEE                     	;# 
  3177  0FEF                     	;# 
  3178                           
  3179 ;; Function _EUSART_DefaultFramingErrorHandler is unused but had its address taken
  3180  0000                     
  3181 ;; Function _EUSART_DefaultOverrunErrorHandler is unused but had its address taken
  3182  0000                     
  3183 ;; Function _EUSART_DefaultErrorHandler is unused but had its address taken
  3184  0000                     
  3185                           	psect	nvBANK1
  3186  00C9                     __pnvBANK1:
  3187  00C9                     _EUSART_ErrorHandler:
  3188  00C9                     	ds	2
  3189  00CB                     _EUSART_OverrunErrorHandler:
  3190  00CB                     	ds	2
  3191  00CD                     _EUSART_FramingErrorHandler:
  3192  00CD                     	ds	2
  3193  0016                     _LATAbits	set	22
  3194  0013                     _TRISC	set	19
  3195  0012                     _TRISB	set	18
  3196  0011                     _TRISA	set	17
  3197  0018                     _LATC	set	24
  3198  0017                     _LATB	set	23
  3199  0016                     _LATA	set	22
  3200  0094                     _ADCON1bits	set	148
  3201  008E                     _ADPREVL	set	142
  3202  008F                     _ADPREVH	set	143
  3203  0097                     _ADSTATbits	set	151
  3204  0090                     _ADACCL	set	144
  3205  0091                     _ADACCH	set	145
  3206  0095                     _ADCON2bits	set	149
  3207  0096                     _ADCON3bits	set	150
  3208  008C                     _ADRESL	set	140
  3209  008D                     _ADRESH	set	141
  3210  0093                     _ADCON0bits	set	147
  3211  009D                     _ADACQ	set	157
  3212  0093                     _ADCON0	set	147
  3213  0098                     _ADCLK	set	152
  3214  0099                     _ADACT	set	153
  3215  009A                     _ADREF	set	154
  3216  0097                     _ADSTAT	set	151
  3217  0096                     _ADCON3	set	150
  3218  0095                     _ADCON2	set	149
  3219  0094                     _ADCON1	set	148
  3220  009C                     _ADPRE	set	156
  3221  009B                     _ADCAP	set	155
  3222  009E                     _ADPCH	set	158
  3223  011A                     _TX1REG	set	282
  3224  0119                     _RC1REG	set	281
  3225  011D                     _RC1STAbits	set	285
  3226  011E                     _TX1STAbits	set	286
  3227  011C                     _SP1BRGH	set	284
  3228  011B                     _SP1BRGL	set	283
  3229  011E                     _TX1STA	set	286
  3230  011D                     _RC1STA	set	285
  3231  011F                     _BAUD1CON	set	287
  3232  0116                     _ADERRL	set	278
  3233  0117                     _ADERRH	set	279
  3234  0114                     _ADFLTRL	set	276
  3235  0115                     _ADFLTRH	set	277
  3236  010C                     _ADCNT	set	268
  3237  010D                     _ADRPT	set	269
  3238  0113                     _ADSTPTH	set	275
  3239  0112                     _ADSTPTL	set	274
  3240  0111                     _ADUTHH	set	273
  3241  0110                     _ADUTHL	set	272
  3242  010F                     _ADLTHH	set	271
  3243  010E                     _ADLTHL	set	270
  3244  070F                     _PIR3bits	set	1807
  3245  079B                     _PMD5	set	1947
  3246  079A                     _PMD4	set	1946
  3247  0799                     _PMD3	set	1945
  3248  0798                     _PMD2	set	1944
  3249  0797                     _PMD1	set	1943
  3250  0796                     _PMD0	set	1942
  3251  0892                     _OSCTUNE	set	2194
  3252  0893                     _OSCFRQ	set	2195
  3253  0891                     _OSCEN	set	2193
  3254  088F                     _OSCCON3	set	2191
  3255  088D                     _OSCCON1	set	2189
  3256  0ECB                     _RXPPS	set	3787
  3257  0F20                     _RC0PPS	set	3872
  3258  0F68                     _INLVLE	set	3944
  3259  0F52                     _INLVLC	set	3922
  3260  0F47                     _INLVLB	set	3911
  3261  0F3C                     _INLVLA	set	3900
  3262  0F51                     _SLRCONC	set	3921
  3263  0F46                     _SLRCONB	set	3910
  3264  0F3B                     _SLRCONA	set	3899
  3265  0F50                     _ODCONC	set	3920
  3266  0F45                     _ODCONB	set	3909
  3267  0F3A                     _ODCONA	set	3898
  3268  0F4F                     _WPUC	set	3919
  3269  0F39                     _WPUA	set	3897
  3270  0F44                     _WPUB	set	3908
  3271  0F65                     _WPUE	set	3941
  3272  0F38                     _ANSELA	set	3896
  3273  0F43                     _ANSELB	set	3907
  3274  0F4E                     _ANSELC	set	3918
  3275                           
  3276                           	psect	stringtext1
  3277  0800                     __pstringtext1:
  3278  0800                     STR_2:
  3279  0800  3456               	retlw	86	;'V'
  3280  0801  3461               	retlw	97	;'a'
  3281  0802  346C               	retlw	108	;'l'
  3282  0803  346F               	retlw	111	;'o'
  3283  0804  3472               	retlw	114	;'r'
  3284  0805  3420               	retlw	32	;' '
  3285  0806  3441               	retlw	65	;'A'
  3286  0807  3444               	retlw	68	;'D'
  3287  0808  3443               	retlw	67	;'C'
  3288  0809  3443               	retlw	67	;'C'
  3289  080A  343A               	retlw	58	;':'
  3290  080B  3420               	retlw	32	;' '
  3291  080C  3425               	retlw	37	;'%'
  3292  080D  3469               	retlw	105	;'i'
  3293  080E  340A               	retlw	10
  3294  080F  340D               	retlw	13
  3295  0810  3400               	retlw	0
  3296                           
  3297                           	psect	stringtext2
  3298  0811                     __pstringtext2:
  3299  0811                     STR_1:
  3300  0811  3456               	retlw	86	;'V'
  3301  0812  3461               	retlw	97	;'a'
  3302  0813  346C               	retlw	108	;'l'
  3303  0814  346F               	retlw	111	;'o'
  3304  0815  3472               	retlw	114	;'r'
  3305  0816  3420               	retlw	32	;' '
  3306  0817  3441               	retlw	65	;'A'
  3307  0818  3444               	retlw	68	;'D'
  3308  0819  3443               	retlw	67	;'C'
  3309  081A  3443               	retlw	67	;'C'
  3310  081B  3400               	retlw	0
  3311                           
  3312                           	psect	stringtext3
  3313  0000                     __pstringtext3:
  3314                           
  3315                           	psect	cinit
  3316  07F5                     start_initialization:	
  3317                           ; #config settings
  3318                           
  3319  07F5                     __initialization:
  3320                           
  3321                           ; Clear objects allocated to BANK1
  3322  07F5  30A0               	movlw	low __pbssBANK1
  3323  07F6  0084               	movwf	4
  3324  07F7  3000               	movlw	high __pbssBANK1
  3325  07F8  0085               	movwf	5
  3326  07F9  3029               	movlw	41
  3327  07FA  3181  21AA  3187   	fcall	clear_ram0
  3328  07FD                     end_of_initialization:	
  3329                           ;End of C runtime variable initialization code
  3330                           
  3331  07FD                     __end_of__initialization:
  3332  07FD  0020               	movlb	0
  3333  07FE  3182  2AC6         	ljmp	_main	;jump to C main() function
  3334                           
  3335                           	psect	bssBANK1
  3336  00A0                     __pbssBANK1:
  3337  00A0                     _nout:
  3338  00A0                     	ds	2
  3339  00A2                     _width:
  3340  00A2                     	ds	2
  3341  00A4                     _prec:
  3342  00A4                     	ds	2
  3343  00A6                     _flags:
  3344  00A6                     	ds	2
  3345  00A8                     _eusartRxLastError:
  3346  00A8                     	ds	1
  3347  00A9                     _dbuf:
  3348  00A9                     	ds	32
  3349                           
  3350                           	psect	clrtext
  3351  01AA                     clear_ram0:	
  3352                           ;	Called with FSR0 containing the base address, and
  3353                           ;	WREG with the size to clear
  3354                           
  3355  01AA  0064               	clrwdt	;clear the watchdog before getting into this loop
  3356  01AB                     clrloop0:
  3357  01AB  0180               	clrf	0	;clear RAM location pointed to by FSR
  3358  01AC  3101               	addfsr 0,1
  3359  01AD  0B89               	decfsz	9,f	;Have we reached the end of clearing yet?
  3360  01AE  29AB               	goto	clrloop0	;have we reached the end yet?
  3361  01AF  3400               	retlw	0	;all done for this memory range, return
  3362                           
  3363                           	psect	cstackCOMMON
  3364  0070                     __pcstackCOMMON:
  3365  0070                     ?_PMD_Initialize:
  3366  0070                     ??_PMD_Initialize:	
  3367                           ; 1 bytes @ 0x0
  3368                           
  3369  0070                     ?_OSCILLATOR_Initialize:	
  3370                           ; 1 bytes @ 0x0
  3371                           
  3372  0070                     ??_OSCILLATOR_Initialize:	
  3373                           ; 1 bytes @ 0x0
  3374                           
  3375  0070                     ?_EUSART_Initialize:	
  3376                           ; 1 bytes @ 0x0
  3377                           
  3378  0070                     ?_EUSART_SetFramingErrorHandler:	
  3379                           ; 1 bytes @ 0x0
  3380                           
  3381  0070                     ?_EUSART_SetOverrunErrorHandler:	
  3382                           ; 1 bytes @ 0x0
  3383                           
  3384  0070                     ?_EUSART_SetErrorHandler:	
  3385                           ; 1 bytes @ 0x0
  3386                           
  3387  0070                     ?_PIN_MANAGER_Initialize:	
  3388                           ; 1 bytes @ 0x0
  3389                           
  3390  0070                     ??_PIN_MANAGER_Initialize:	
  3391                           ; 1 bytes @ 0x0
  3392                           
  3393  0070                     ?_ADCC_Initialize:	
  3394                           ; 1 bytes @ 0x0
  3395                           
  3396  0070                     ??_ADCC_Initialize:	
  3397                           ; 1 bytes @ 0x0
  3398                           
  3399  0070                     ?_SYSTEM_Initialize:	
  3400                           ; 1 bytes @ 0x0
  3401                           
  3402  0070                     ?_EUSART_Write:	
  3403                           ; 1 bytes @ 0x0
  3404                           
  3405  0070                     ??_EUSART_Write:	
  3406                           ; 1 bytes @ 0x0
  3407                           
  3408  0070                     ?_putch:	
  3409                           ; 1 bytes @ 0x0
  3410                           
  3411  0070                     ?_main:	
  3412                           ; 1 bytes @ 0x0
  3413                           
  3414  0070                     ??___aodiv:	
  3415                           ; 1 bytes @ 0x0
  3416                           
  3417  0070                     ??___aomod:	
  3418                           ; 1 bytes @ 0x0
  3419                           
  3420  0070                     ?_strlen:	
  3421                           ; 1 bytes @ 0x0
  3422                           
  3423  0070                     ?_ADCC_GetSingleConversion:	
  3424                           ; 2 bytes @ 0x0
  3425                           
  3426  0070                     EUSART_Write@txData:	
  3427                           ; 2 bytes @ 0x0
  3428                           
  3429  0070                     EUSART_SetFramingErrorHandler@interruptHandler:	
  3430                           ; 1 bytes @ 0x0
  3431                           
  3432  0070                     EUSART_SetOverrunErrorHandler@interruptHandler:	
  3433                           ; 2 bytes @ 0x0
  3434                           
  3435  0070                     EUSART_SetErrorHandler@interruptHandler:	
  3436                           ; 2 bytes @ 0x0
  3437                           
  3438                           
  3439                           ; 2 bytes @ 0x0
  3440  0070                     	ds	1
  3441  0071                     ??_putch:
  3442  0071                     putch@txData:	
  3443                           ; 1 bytes @ 0x1
  3444                           
  3445  0071                     ___aodiv@counter:	
  3446                           ; 1 bytes @ 0x1
  3447                           
  3448  0071                     ___aomod@counter:	
  3449                           ; 1 bytes @ 0x1
  3450                           
  3451                           
  3452                           ; 1 bytes @ 0x1
  3453  0071                     	ds	1
  3454  0072                     ??_EUSART_Initialize:
  3455  0072                     ??_EUSART_SetFramingErrorHandler:	
  3456                           ; 1 bytes @ 0x2
  3457                           
  3458  0072                     ??_EUSART_SetOverrunErrorHandler:	
  3459                           ; 1 bytes @ 0x2
  3460                           
  3461  0072                     ??_EUSART_SetErrorHandler:	
  3462                           ; 1 bytes @ 0x2
  3463                           
  3464  0072                     ??_strlen:	
  3465                           ; 1 bytes @ 0x2
  3466                           
  3467  0072                     ??_ADCC_GetSingleConversion:	
  3468                           ; 1 bytes @ 0x2
  3469                           
  3470  0072                     ??_SYSTEM_Initialize:	
  3471                           ; 1 bytes @ 0x2
  3472                           
  3473  0072                     ?_fputc:	
  3474                           ; 1 bytes @ 0x2
  3475                           
  3476  0072                     ADCC_GetSingleConversion@channel:	
  3477                           ; 2 bytes @ 0x2
  3478                           
  3479  0072                     ___aodiv@sign:	
  3480                           ; 1 bytes @ 0x2
  3481                           
  3482  0072                     ___aomod@sign:	
  3483                           ; 1 bytes @ 0x2
  3484                           
  3485  0072                     fputc@c:	
  3486                           ; 1 bytes @ 0x2
  3487                           
  3488                           
  3489                           ; 2 bytes @ 0x2
  3490  0072                     	ds	1
  3491  0073                     ?_abs:
  3492  0073                     strlen@a:	
  3493                           ; 2 bytes @ 0x3
  3494                           
  3495  0073                     abs@a:	
  3496                           ; 1 bytes @ 0x3
  3497                           
  3498  0073                     ___aodiv@quotient:	
  3499                           ; 2 bytes @ 0x3
  3500                           
  3501                           
  3502                           ; 8 bytes @ 0x3
  3503  0073                     	ds	1
  3504  0074                     fputc@fp:
  3505  0074                     strlen@s:	
  3506                           ; 1 bytes @ 0x4
  3507                           
  3508                           
  3509                           ; 1 bytes @ 0x4
  3510  0074                     	ds	1
  3511  0075                     ??_fputc:
  3512  0075                     ??_abs:	
  3513                           ; 1 bytes @ 0x5
  3514                           
  3515                           
  3516                           ; 1 bytes @ 0x5
  3517  0075                     	ds	5
  3518  007A                     ?_fputs:
  3519  007A                     fputs@fp:	
  3520                           ; 2 bytes @ 0xA
  3521                           
  3522                           
  3523                           ; 1 bytes @ 0xA
  3524  007A                     	ds	1
  3525  007B                     ??_fputs:
  3526                           
  3527                           ; 1 bytes @ 0xB
  3528  007B                     	ds	3
  3529                           
  3530                           	psect	cstackBANK0
  3531  0020                     __pcstackBANK0:
  3532  0020                     ?___aodiv:
  3533  0020                     ?___aomod:	
  3534                           ; 8 bytes @ 0x0
  3535                           
  3536  0020                     fputs@c:	
  3537                           ; 8 bytes @ 0x0
  3538                           
  3539  0020                     ___aodiv@divisor:	
  3540                           ; 1 bytes @ 0x0
  3541                           
  3542  0020                     ___aomod@divisor:	
  3543                           ; 8 bytes @ 0x0
  3544                           
  3545                           
  3546                           ; 8 bytes @ 0x0
  3547  0020                     	ds	1
  3548  0021                     fputs@i:
  3549                           
  3550                           ; 2 bytes @ 0x1
  3551  0021                     	ds	2
  3552  0023                     fputs@s:
  3553                           
  3554                           ; 1 bytes @ 0x3
  3555  0023                     	ds	1
  3556  0024                     ?_pad:
  3557  0024                     pad@buf:	
  3558                           ; 2 bytes @ 0x4
  3559                           
  3560                           
  3561                           ; 1 bytes @ 0x4
  3562  0024                     	ds	1
  3563  0025                     pad@p:
  3564                           
  3565                           ; 2 bytes @ 0x5
  3566  0025                     	ds	2
  3567  0027                     ??_pad:
  3568                           
  3569                           ; 1 bytes @ 0x7
  3570  0027                     	ds	1
  3571  0028                     pad@i:
  3572  0028                     ___aodiv@dividend:	
  3573                           ; 2 bytes @ 0x8
  3574                           
  3575  0028                     ___aomod@dividend:	
  3576                           ; 8 bytes @ 0x8
  3577                           
  3578                           
  3579                           ; 8 bytes @ 0x8
  3580  0028                     	ds	2
  3581  002A                     pad@w:
  3582                           
  3583                           ; 2 bytes @ 0xA
  3584  002A                     	ds	2
  3585  002C                     pad@fp:
  3586                           
  3587                           ; 1 bytes @ 0xC
  3588  002C                     	ds	4
  3589  0030                     ?_dtoa:
  3590  0030                     dtoa@d:	
  3591                           ; 2 bytes @ 0x10
  3592                           
  3593                           
  3594                           ; 8 bytes @ 0x10
  3595  0030                     	ds	8
  3596  0038                     ??_dtoa:
  3597                           
  3598                           ; 1 bytes @ 0x18
  3599  0038                     	ds	3
  3600  003B                     _dtoa$1073:
  3601                           
  3602                           ; 2 bytes @ 0x1B
  3603  003B                     	ds	2
  3604  003D                     dtoa@p:
  3605                           
  3606                           ; 2 bytes @ 0x1D
  3607  003D                     	ds	2
  3608  003F                     dtoa@fp:
  3609                           
  3610                           ; 1 bytes @ 0x1F
  3611  003F                     	ds	1
  3612  0040                     dtoa@w:
  3613                           
  3614                           ; 2 bytes @ 0x20
  3615  0040                     	ds	2
  3616  0042                     dtoa@s:
  3617                           
  3618                           ; 2 bytes @ 0x22
  3619  0042                     	ds	2
  3620  0044                     dtoa@n:
  3621                           
  3622                           ; 8 bytes @ 0x24
  3623  0044                     	ds	8
  3624  004C                     dtoa@i:
  3625                           
  3626                           ; 2 bytes @ 0x2C
  3627  004C                     	ds	2
  3628  004E                     ?_vfpfcnvrt:
  3629  004E                     vfpfcnvrt@fmt:	
  3630                           ; 2 bytes @ 0x2E
  3631                           
  3632                           
  3633                           ; 1 bytes @ 0x2E
  3634  004E                     	ds	1
  3635  004F                     vfpfcnvrt@ap:
  3636                           
  3637                           ; 1 bytes @ 0x2F
  3638  004F                     	ds	1
  3639  0050                     ??_vfpfcnvrt:
  3640                           
  3641                           ; 1 bytes @ 0x30
  3642  0050                     	ds	5
  3643  0055                     vfpfcnvrt@ll:
  3644                           
  3645                           ; 8 bytes @ 0x35
  3646  0055                     	ds	8
  3647  005D                     vfpfcnvrt@fp:
  3648                           
  3649                           ; 1 bytes @ 0x3D
  3650  005D                     	ds	1
  3651  005E                     ?_vfprintf:
  3652  005E                     vfprintf@fmt:	
  3653                           ; 2 bytes @ 0x3E
  3654                           
  3655                           
  3656                           ; 2 bytes @ 0x3E
  3657  005E                     	ds	2
  3658  0060                     vfprintf@ap:
  3659                           
  3660                           ; 1 bytes @ 0x40
  3661  0060                     	ds	1
  3662  0061                     ??_vfprintf:
  3663                           
  3664                           ; 1 bytes @ 0x41
  3665  0061                     	ds	2
  3666  0063                     vfprintf@fp:
  3667                           
  3668                           ; 1 bytes @ 0x43
  3669  0063                     	ds	1
  3670  0064                     vfprintf@cfmt:
  3671                           
  3672                           ; 2 bytes @ 0x44
  3673  0064                     	ds	2
  3674  0066                     ?_printf:
  3675  0066                     printf@fmt:	
  3676                           ; 2 bytes @ 0x46
  3677                           
  3678                           
  3679                           ; 2 bytes @ 0x46
  3680  0066                     	ds	4
  3681  006A                     ??_printf:
  3682                           
  3683                           ; 1 bytes @ 0x4A
  3684  006A                     	ds	1
  3685  006B                     printf@ap:
  3686                           
  3687                           ; 1 bytes @ 0x4B
  3688  006B                     	ds	1
  3689  006C                     ??_main:
  3690                           
  3691                           ; 1 bytes @ 0x4C
  3692  006C                     	ds	2
  3693  006E                     main@promedio_adcc:
  3694                           
  3695                           ; 2 bytes @ 0x4E
  3696  006E                     	ds	2
  3697                           
  3698                           	psect	maintext
  3699  02C6                     __pmaintext:	
  3700 ;;
  3701 ;;Main: autosize = 0, tempsize = 2, incstack = 0, save=0
  3702 ;;
  3703 ;; *************** function _main *****************
  3704 ;; Defined at:
  3705 ;;		line 8 in file "main.c"
  3706 ;; Parameters:    Size  Location     Type
  3707 ;;		None
  3708 ;; Auto vars:     Size  Location     Type
  3709 ;;  promedio_adc    2   78[BANK0 ] unsigned short 
  3710 ;; Return value:  Size  Location     Type
  3711 ;;                  1    wreg      void 
  3712 ;; Registers used:
  3713 ;;		wreg, fsr0l, fsr0h, fsr1l, fsr1h, status,2, status,0, pclath, cstack
  3714 ;; Tracked objects:
  3715 ;;		On entry : B1F/0
  3716 ;;		On exit  : 0/0
  3717 ;;		Unchanged: 0/0
  3718 ;; Data sizes:     COMMON   BANK0   BANK1   BANK2   BANK3   BANK4   BANK5   BANK6   BANK7   BANK8   BANK9  BANK10  BANK1
      +1  BANK12
  3719 ;;      Params:         0       0       0       0       0       0       0       0       0       0       0       0       
      +0       0
  3720 ;;      Locals:         0       2       0       0       0       0       0       0       0       0       0       0       
      +0       0
  3721 ;;      Temps:          0       2       0       0       0       0       0       0       0       0       0       0       
      +0       0
  3722 ;;      Totals:         0       4       0       0       0       0       0       0       0       0       0       0       
      +0       0
  3723 ;;Total ram usage:        4 bytes
  3724 ;; Hardware stack levels required when called: 9
  3725 ;; This function calls:
  3726 ;;		_ADCC_GetSingleConversion
  3727 ;;		_SYSTEM_Initialize
  3728 ;;		_printf
  3729 ;; This function is called by:
  3730 ;;		Startup code after reset
  3731 ;; This function uses a non-reentrant model
  3732 ;;
  3733                           
  3734  02C6                     _main:	
  3735                           ;psect for function _main
  3736                           
  3737  02C6                     l1951:	
  3738                           ;incstack = 0
  3739                           ; Regs used in _main: [wreg-fsr1h+status,2+status,0+pclath+cstack]
  3740                           
  3741                           
  3742                           ;main.c: 10:     uint16_t promedio_adcc;;main.c: 12:     SYSTEM_Initialize();
  3743  02C6  3181  21CB  3182   	fcall	_SYSTEM_Initialize
  3744  02C9                     l1953:
  3745  02C9  0020               	movlb	0	; select bank0
  3746  02CA  1416               	bsf	22,0	;volatile
  3747  02CB                     l1955:
  3748                           
  3749                           ;main.c: 29:     printf("Valor ADCC");
  3750  02CB  3011               	movlw	low (STR_1| (0+32768))
  3751  02CC  00E6               	movwf	printf@fmt
  3752  02CD  3088               	movlw	high (STR_1| (0+32768))
  3753  02CE  00E7               	movwf	printf@fmt+1
  3754  02CF  3181  21ED  3182   	fcall	_printf
  3755  02D2                     l1957:
  3756                           
  3757                           ;main.c: 31:     {;main.c: 34:         promedio_adcc = ADCC_GetSingleConversion(POT);
  3758  02D2  3004               	movlw	4
  3759  02D3  3181  21DB  3182   	fcall	_ADCC_GetSingleConversion
  3760  02D6  0871               	movf	?_ADCC_GetSingleConversion+1,w
  3761  02D7  0020               	movlb	0	; select bank0
  3762  02D8  00EF               	movwf	main@promedio_adcc+1
  3763  02D9  0870               	movf	?_ADCC_GetSingleConversion,w
  3764  02DA  00EE               	movwf	main@promedio_adcc
  3765  02DB                     l1959:
  3766                           
  3767                           ;main.c: 35:          printf("Valor ADCC: %i\n\r",promedio_adcc);
  3768  02DB  3000               	movlw	low (STR_2| (0+32768))
  3769  02DC  00E6               	movwf	printf@fmt
  3770  02DD  3088               	movlw	high (STR_2| (0+32768))
  3771  02DE  00E7               	movwf	printf@fmt+1
  3772  02DF  086F               	movf	main@promedio_adcc+1,w
  3773  02E0  00E9               	movwf	?_printf+3
  3774  02E1  086E               	movf	main@promedio_adcc,w
  3775  02E2  00E8               	movwf	?_printf+2
  3776  02E3  3181  21ED  3182   	fcall	_printf
  3777  02E6                     l1961:
  3778                           
  3779                           ;main.c: 49:         _delay((unsigned long)((500)*(8000000/4000.0)));
  3780  02E6  3006               	movlw	6
  3781  02E7  0020               	movlb	0	; select bank0
  3782  02E8  00ED               	movwf	??_main+1
  3783  02E9  3013               	movlw	19
  3784  02EA  00EC               	movwf	??_main
  3785  02EB  30AD               	movlw	173
  3786  02EC                     u1177:
  3787  02EC  0B89               	decfsz	9,f
  3788  02ED  2AEC               	goto	u1177
  3789  02EE  0BEC               	decfsz	??_main,f
  3790  02EF  2AEC               	goto	u1177
  3791  02F0  0BED               	decfsz	??_main+1,f
  3792  02F1  2AEC               	goto	u1177
  3793  02F2  3200               	nop2
  3794  02F3  2AD2               	goto	l1957
  3795  02F4  3180  2802         	ljmp	start
  3796  02F6                     __end_of_main:
  3797                           
  3798                           	psect	text1
  3799  01ED                     __ptext1:	
  3800 ;; *************** function _printf *****************
  3801 ;; Defined at:
  3802 ;;		line 5 in file "C:\Program Files\Microchip\xc8\v2.35\pic\sources\c99\common\printf.c"
  3803 ;; Parameters:    Size  Location     Type
  3804 ;;  fmt             2   70[BANK0 ] PTR const unsigned char 
  3805 ;;		 -> STR_2(17), STR_1(11), 
  3806 ;; Auto vars:     Size  Location     Type
  3807 ;;  ret             2    0        int 
  3808 ;;  ap              1   75[BANK0 ] PTR void [1]
  3809 ;;		 -> ?_printf(2), 
  3810 ;; Return value:  Size  Location     Type
  3811 ;;                  2   70[BANK0 ] int 
  3812 ;; Registers used:
  3813 ;;		wreg, fsr0l, fsr0h, fsr1l, fsr1h, status,2, status,0, pclath, cstack
  3814 ;; Tracked objects:
  3815 ;;		On entry : 0/0
  3816 ;;		On exit  : 0/0
  3817 ;;		Unchanged: 0/0
  3818 ;; Data sizes:     COMMON   BANK0   BANK1   BANK2   BANK3   BANK4   BANK5   BANK6   BANK7   BANK8   BANK9  BANK10  BANK1
      +1  BANK12
  3819 ;;      Params:         0       4       0       0       0       0       0       0       0       0       0       0       
      +0       0
  3820 ;;      Locals:         0       1       0       0       0       0       0       0       0       0       0       0       
      +0       0
  3821 ;;      Temps:          0       1       0       0       0       0       0       0       0       0       0       0       
      +0       0
  3822 ;;      Totals:         0       6       0       0       0       0       0       0       0       0       0       0       
      +0       0
  3823 ;;Total ram usage:        6 bytes
  3824 ;; Hardware stack levels used: 1
  3825 ;; Hardware stack levels required when called: 8
  3826 ;; This function calls:
  3827 ;;		_vfprintf
  3828 ;; This function is called by:
  3829 ;;		_main
  3830 ;; This function uses a non-reentrant model
  3831 ;;
  3832                           
  3833  01ED                     _printf:	
  3834                           ;psect for function _printf
  3835                           
  3836  01ED                     l1941:	
  3837                           ;incstack = 0
  3838                           ; Regs used in _printf: [wreg-fsr1h+status,2+status,0+pclath+cstack]
  3839                           
  3840  01ED  3068               	movlw	(low ((?_printf| 0+2)))& (0+255)
  3841  01EE  0020               	movlb	0	; select bank0
  3842  01EF  00EA               	movwf	??_printf
  3843  01F0  086A               	movf	??_printf,w
  3844  01F1  00EB               	movwf	printf@ap
  3845  01F2                     l1943:
  3846  01F2  0867               	movf	printf@fmt+1,w
  3847  01F3  00DF               	movwf	vfprintf@fmt+1
  3848  01F4  0866               	movf	printf@fmt,w
  3849  01F5  00DE               	movwf	vfprintf@fmt
  3850  01F6  306B               	movlw	(low (printf@ap| 0))& (0+255)
  3851  01F7  00EA               	movwf	??_printf
  3852  01F8  086A               	movf	??_printf,w
  3853  01F9  00E0               	movwf	vfprintf@ap
  3854  01FA  3000               	movlw	0
  3855  01FB  3182  22F6  3181   	fcall	_vfprintf
  3856  01FE                     l982:
  3857  01FE  0008               	return
  3858  01FF                     __end_of_printf:
  3859                           
  3860                           	psect	text2
  3861  02F6                     __ptext2:	
  3862 ;; *************** function _vfprintf *****************
  3863 ;; Defined at:
  3864 ;;		line 1390 in file "C:\Program Files\Microchip\xc8\v2.35\pic\sources\c99\common\doprnt.c"
  3865 ;; Parameters:    Size  Location     Type
  3866 ;;  fp              1    wreg     PTR struct _IO_FILE
  3867 ;;		 -> NULL(0), 
  3868 ;;  fmt             2   62[BANK0 ] PTR const unsigned char 
  3869 ;;		 -> STR_2(17), STR_1(11), 
  3870 ;;  ap              1   64[BANK0 ] PTR PTR void 
  3871 ;;		 -> printf@ap(1), 
  3872 ;; Auto vars:     Size  Location     Type
  3873 ;;  fp              1   67[BANK0 ] PTR struct _IO_FILE
  3874 ;;		 -> NULL(0), 
  3875 ;;  cfmt            2   68[BANK0 ] PTR unsigned char 
  3876 ;;		 -> STR_2(17), STR_1(11), 
  3877 ;; Return value:  Size  Location     Type
  3878 ;;                  2   62[BANK0 ] int 
  3879 ;; Registers used:
  3880 ;;		wreg, fsr0l, fsr0h, fsr1l, fsr1h, status,2, status,0, pclath, cstack
  3881 ;; Tracked objects:
  3882 ;;		On entry : 0/0
  3883 ;;		On exit  : 0/0
  3884 ;;		Unchanged: 0/0
  3885 ;; Data sizes:     COMMON   BANK0   BANK1   BANK2   BANK3   BANK4   BANK5   BANK6   BANK7   BANK8   BANK9  BANK10  BANK1
      +1  BANK12
  3886 ;;      Params:         0       3       0       0       0       0       0       0       0       0       0       0       
      +0       0
  3887 ;;      Locals:         0       3       0       0       0       0       0       0       0       0       0       0       
      +0       0
  3888 ;;      Temps:          0       2       0       0       0       0       0       0       0       0       0       0       
      +0       0
  3889 ;;      Totals:         0       8       0       0       0       0       0       0       0       0       0       0       
      +0       0
  3890 ;;Total ram usage:        8 bytes
  3891 ;; Hardware stack levels used: 1
  3892 ;; Hardware stack levels required when called: 7
  3893 ;; This function calls:
  3894 ;;		_vfpfcnvrt
  3895 ;; This function is called by:
  3896 ;;		_printf
  3897 ;; This function uses a non-reentrant model
  3898 ;;
  3899                           
  3900  02F6                     _vfprintf:	
  3901                           ;psect for function _vfprintf
  3902                           
  3903                           
  3904                           ;incstack = 0
  3905                           ; Regs used in _vfprintf: [wreg-fsr1h+status,2+status,0+pclath+cstack]
  3906                           ;vfprintf@fp stored from wreg
  3907  02F6  0020               	movlb	0	; select bank0
  3908  02F7  00E3               	movwf	vfprintf@fp
  3909  02F8                     l1893:
  3910                           
  3911                           ;C:\Program Files\Microchip\xc8\v2.35\pic\sources\c99\common\doprnt.c: 1390: int vfprint
      +                          f(FILE *fp, const char *fmt, va_list ap);C:\Program Files\Microchip\xc8\v2.35\pic\source
      +                          s\c99\common\doprnt.c: 1391: {;C:\Program Files\Microchip\xc8\v2.35\pic\sources\c99\comm
      +                          on\doprnt.c: 1393:     char *cfmt;;C:\Program Files\Microchip\xc8\v2.35\pic\sources\c99\
      +                          common\doprnt.c: 1395:     cfmt = (char *)fmt;
  3912  02F8  085F               	movf	vfprintf@fmt+1,w
  3913  02F9  00E5               	movwf	vfprintf@cfmt+1
  3914  02FA  085E               	movf	vfprintf@fmt,w
  3915  02FB  00E4               	movwf	vfprintf@cfmt
  3916  02FC                     l1895:
  3917                           
  3918                           ;C:\Program Files\Microchip\xc8\v2.35\pic\sources\c99\common\doprnt.c: 1396:     nout = 
      +                          0;
  3919  02FC  0021               	movlb	1	; select bank1
  3920  02FD  01A0               	clrf	_nout^(0+128)
  3921  02FE  01A1               	clrf	(_nout+1)^(0+128)
  3922                           
  3923                           ;C:\Program Files\Microchip\xc8\v2.35\pic\sources\c99\common\doprnt.c: 1397:     while (
      +                          *cfmt) {
  3924  02FF  2B14               	goto	l1899
  3925  0300                     l1897:
  3926                           
  3927                           ;C:\Program Files\Microchip\xc8\v2.35\pic\sources\c99\common\doprnt.c: 1398:         nou
      +                          t += vfpfcnvrt(fp, &cfmt, ap);
  3928  0300  3064               	movlw	(low (vfprintf@cfmt| 0))& (0+255)
  3929  0301  00E1               	movwf	??_vfprintf
  3930  0302  0861               	movf	??_vfprintf,w
  3931  0303  00CE               	movwf	vfpfcnvrt@fmt
  3932  0304  0860               	movf	vfprintf@ap,w
  3933  0305  00E2               	movwf	??_vfprintf+1
  3934  0306  0862               	movf	??_vfprintf+1,w
  3935  0307  00CF               	movwf	vfpfcnvrt@ap
  3936  0308  0863               	movf	vfprintf@fp,w
  3937  0309  3183  23C1  3182   	fcall	_vfpfcnvrt
  3938  030C  0020               	movlb	0	; select bank0
  3939  030D  084E               	movf	?_vfpfcnvrt,w
  3940  030E  0021               	movlb	1	; select bank1
  3941  030F  07A0               	addwf	_nout^(0+128),f
  3942  0310  0020               	movlb	0	; select bank0
  3943  0311  084F               	movf	?_vfpfcnvrt+1,w
  3944  0312  0021               	movlb	1	; select bank1
  3945  0313  3DA1               	addwfc	(_nout+1)^(0+128),f
  3946  0314                     l1899:
  3947                           
  3948                           ;C:\Program Files\Microchip\xc8\v2.35\pic\sources\c99\common\doprnt.c: 1397:     while (
      +                          *cfmt) {
  3949  0314  0020               	movlb	0	; select bank0
  3950  0315  0864               	movf	vfprintf@cfmt,w
  3951  0316  0084               	movwf	4
  3952  0317  0865               	movf	vfprintf@cfmt+1,w
  3953  0318  0085               	movwf	5
  3954  0319  0012               	moviw fsr0++
  3955  031A  1D03               	btfss	3,2
  3956  031B  2B1D               	goto	u1131
  3957  031C  2B1E               	goto	u1130
  3958  031D                     u1131:
  3959  031D  2B00               	goto	l1897
  3960  031E                     u1130:
  3961  031E                     l1901:
  3962                           
  3963                           ;C:\Program Files\Microchip\xc8\v2.35\pic\sources\c99\common\doprnt.c: 1400:     return 
      +                          nout;
  3964  031E  0021               	movlb	1	; select bank1
  3965  031F  0821               	movf	(_nout+1)^(0+128),w
  3966  0320  0020               	movlb	0	; select bank0
  3967  0321  00DF               	movwf	?_vfprintf+1
  3968  0322  0021               	movlb	1	; select bank1
  3969  0323  0820               	movf	_nout^(0+128),w
  3970  0324  0020               	movlb	0	; select bank0
  3971  0325  00DE               	movwf	?_vfprintf
  3972  0326                     l1054:
  3973  0326  0008               	return
  3974  0327                     __end_of_vfprintf:
  3975                           
  3976                           	psect	text3
  3977  03C1                     __ptext3:	
  3978 ;; *************** function _vfpfcnvrt *****************
  3979 ;; Defined at:
  3980 ;;		line 692 in file "C:\Program Files\Microchip\xc8\v2.35\pic\sources\c99\common\doprnt.c"
  3981 ;; Parameters:    Size  Location     Type
  3982 ;;  fp              1    wreg     PTR struct _IO_FILE
  3983 ;;		 -> NULL(0), 
  3984 ;;  fmt             1   46[BANK0 ] PTR PTR unsigned char 
  3985 ;;		 -> vfprintf@cfmt(2), 
  3986 ;;  ap              1   47[BANK0 ] PTR PTR void 
  3987 ;;		 -> printf@ap(1), 
  3988 ;; Auto vars:     Size  Location     Type
  3989 ;;  fp              1   61[BANK0 ] PTR struct _IO_FILE
  3990 ;;		 -> NULL(0), 
  3991 ;;  ll              8   53[BANK0 ] long long 
  3992 ;;  llu             8    0        unsigned long long 
  3993 ;;  f               4    0        unsigned long long 
  3994 ;;  ct              3    0        unsigned char [3]
  3995 ;;  vp              2    0        PTR void 
  3996 ;;  i               2    0        int 
  3997 ;;  done            2    0        int 
  3998 ;;  cp              2    0        PTR unsigned char 
  3999 ;;  c               1    0        unsigned char 
  4000 ;; Return value:  Size  Location     Type
  4001 ;;                  2   46[BANK0 ] int 
  4002 ;; Registers used:
  4003 ;;		wreg, fsr0l, fsr0h, fsr1l, fsr1h, status,2, status,0, pclath, cstack
  4004 ;; Tracked objects:
  4005 ;;		On entry : 0/0
  4006 ;;		On exit  : 0/0
  4007 ;;		Unchanged: 0/0
  4008 ;; Data sizes:     COMMON   BANK0   BANK1   BANK2   BANK3   BANK4   BANK5   BANK6   BANK7   BANK8   BANK9  BANK10  BANK1
      +1  BANK12
  4009 ;;      Params:         0       2       0       0       0       0       0       0       0       0       0       0       
      +0       0
  4010 ;;      Locals:         0       9       0       0       0       0       0       0       0       0       0       0       
      +0       0
  4011 ;;      Temps:          0       5       0       0       0       0       0       0       0       0       0       0       
      +0       0
  4012 ;;      Totals:         0      16       0       0       0       0       0       0       0       0       0       0       
      +0       0
  4013 ;;Total ram usage:       16 bytes
  4014 ;; Hardware stack levels used: 1
  4015 ;; Hardware stack levels required when called: 6
  4016 ;; This function calls:
  4017 ;;		_dtoa
  4018 ;;		_fputc
  4019 ;; This function is called by:
  4020 ;;		_vfprintf
  4021 ;; This function uses a non-reentrant model
  4022 ;;
  4023                           
  4024  03C1                     _vfpfcnvrt:	
  4025                           ;psect for function _vfpfcnvrt
  4026                           
  4027                           
  4028                           ;incstack = 0
  4029                           ; Regs used in _vfpfcnvrt: [wreg-fsr1h+status,2+status,0+pclath+cstack]
  4030                           ;vfpfcnvrt@fp stored from wreg
  4031  03C1  0020               	movlb	0	; select bank0
  4032  03C2  00DD               	movwf	vfpfcnvrt@fp
  4033  03C3                     l1771:
  4034                           
  4035                           ;C:\Program Files\Microchip\xc8\v2.35\pic\sources\c99\common\doprnt.c: 692: static int v
      +                          fpfcnvrt(FILE *fp, char *fmt[], va_list ap);C:\Program Files\Microchip\xc8\v2.35\pic\sou
      +                          rces\c99\common\doprnt.c: 693: {;C:\Program Files\Microchip\xc8\v2.35\pic\sources\c99\co
      +                          mmon\doprnt.c: 694:     char c, *cp, ct[3];;C:\Program Files\Microchip\xc8\v2.35\pic\sou
      +                          rces\c99\common\doprnt.c: 695:     int done, i;;C:\Program Files\Microchip\xc8\v2.35\pic
      +                          \sources\c99\common\doprnt.c: 696:     long long ll;;C:\Program Files\Microchip\xc8\v2.3
      +                          5\pic\sources\c99\common\doprnt.c: 697:     unsigned long long llu;
  4036  03C3  084E               	movf	vfpfcnvrt@fmt,w
  4037  03C4  0086               	movwf	6
  4038  03C5  0187               	clrf	7
  4039  03C6  3F40               	moviw [0]fsr1
  4040  03C7  00D0               	movwf	??_vfpfcnvrt
  4041  03C8  3F41               	moviw [1]fsr1
  4042  03C9  00D1               	movwf	??_vfpfcnvrt+1
  4043  03CA  0850               	movf	??_vfpfcnvrt,w
  4044  03CB  0084               	movwf	4
  4045  03CC  0851               	movf	??_vfpfcnvrt+1,w
  4046  03CD  0085               	movwf	5
  4047  03CE  0012               	moviw fsr0++
  4048  03CF  3A25               	xorlw	37
  4049  03D0  1D03               	btfss	3,2
  4050  03D1  2BD3               	goto	u1091
  4051  03D2  2BD4               	goto	u1090
  4052  03D3                     u1091:
  4053  03D3  2C78               	goto	l1807
  4054  03D4                     u1090:
  4055  03D4                     l1773:
  4056                           
  4057                           ;C:\Program Files\Microchip\xc8\v2.35\pic\sources\c99\common\doprnt.c: 703:         ++*f
      +                          mt;
  4058  03D4  084E               	movf	vfpfcnvrt@fmt,w
  4059  03D5  0086               	movwf	6
  4060  03D6  0187               	clrf	7
  4061  03D7  3001               	movlw	1
  4062  03D8  0781               	addwf	1,f
  4063  03D9  3141               	addfsr 1,1
  4064  03DA  1803               	skipnc
  4065  03DB  0A81               	incf	1,f
  4066  03DC                     l1775:
  4067                           
  4068                           ;C:\Program Files\Microchip\xc8\v2.35\pic\sources\c99\common\doprnt.c: 705:         flag
      +                          s = width = 0;
  4069  03DC  0021               	movlb	1	; select bank1
  4070  03DD  01A2               	clrf	_width^(0+128)
  4071  03DE  01A3               	clrf	(_width+1)^(0+128)
  4072  03DF  01A6               	clrf	_flags^(0+128)
  4073  03E0  01A7               	clrf	(_flags+1)^(0+128)
  4074  03E1                     l1777:
  4075                           
  4076                           ;C:\Program Files\Microchip\xc8\v2.35\pic\sources\c99\common\doprnt.c: 706:         prec
      +                           = -1;
  4077  03E1  30FF               	movlw	255
  4078  03E2  00A4               	movwf	_prec^(0+128)
  4079  03E3  30FF               	movlw	255
  4080  03E4  00A5               	movwf	(_prec^(0+128)+1)
  4081  03E5                     l1779:
  4082                           
  4083                           ;C:\Program Files\Microchip\xc8\v2.35\pic\sources\c99\common\doprnt.c: 847:         if (
      +                          (*fmt[0] == 'd') || (*fmt[0] == 'i')) {
  4084  03E5  0020               	movlb	0	; select bank0
  4085  03E6  084E               	movf	vfpfcnvrt@fmt,w
  4086  03E7  0086               	movwf	6
  4087  03E8  0187               	clrf	7
  4088  03E9  3F40               	moviw [0]fsr1
  4089  03EA  00D0               	movwf	??_vfpfcnvrt
  4090  03EB  3F41               	moviw [1]fsr1
  4091  03EC  00D1               	movwf	??_vfpfcnvrt+1
  4092  03ED  0850               	movf	??_vfpfcnvrt,w
  4093  03EE  0084               	movwf	4
  4094  03EF  0851               	movf	??_vfpfcnvrt+1,w
  4095  03F0  0085               	movwf	5
  4096  03F1  0012               	moviw fsr0++
  4097  03F2  3A64               	xorlw	100
  4098  03F3  1903               	btfsc	3,2
  4099  03F4  2BF6               	goto	u1101
  4100  03F5  2BF7               	goto	u1100
  4101  03F6                     u1101:
  4102  03F6  2C08               	goto	l1783
  4103  03F7                     u1100:
  4104  03F7                     l1781:
  4105  03F7  084E               	movf	vfpfcnvrt@fmt,w
  4106  03F8  0086               	movwf	6
  4107  03F9  0187               	clrf	7
  4108  03FA  3F40               	moviw [0]fsr1
  4109  03FB  00D0               	movwf	??_vfpfcnvrt
  4110  03FC  3F41               	moviw [1]fsr1
  4111  03FD  00D1               	movwf	??_vfpfcnvrt+1
  4112  03FE  0850               	movf	??_vfpfcnvrt,w
  4113  03FF  0084               	movwf	4
  4114  0400  0851               	movf	??_vfpfcnvrt+1,w
  4115  0401  0085               	movwf	5
  4116  0402  0012               	moviw fsr0++
  4117  0403  3A69               	xorlw	105
  4118  0404  1D03               	btfss	3,2
  4119  0405  2C07               	goto	u1111
  4120  0406  2C08               	goto	u1110
  4121  0407                     u1111:
  4122  0407  2C43               	goto	l1791
  4123  0408                     u1110:
  4124  0408                     l1783:
  4125                           
  4126                           ;C:\Program Files\Microchip\xc8\v2.35\pic\sources\c99\common\doprnt.c: 849:             
      +                          ++*fmt;
  4127  0408  084E               	movf	vfpfcnvrt@fmt,w
  4128  0409  0086               	movwf	6
  4129  040A  0187               	clrf	7
  4130  040B  3001               	movlw	1
  4131  040C  0781               	addwf	1,f
  4132  040D  3141               	addfsr 1,1
  4133  040E  1803               	skipnc
  4134  040F  0A81               	incf	1,f
  4135  0410                     l1785:
  4136                           
  4137                           ;C:\Program Files\Microchip\xc8\v2.35\pic\sources\c99\common\doprnt.c: 850:             
      +                          ll = (long long)(*(int *)__va_arg(*(int **)ap, (int)0));
  4138  0410  084F               	movf	vfpfcnvrt@ap,w
  4139  0411  0086               	movwf	6
  4140  0412  0187               	clrf	7
  4141  0413  0801               	movf	1,w
  4142  0414  0084               	movwf	4
  4143  0415  0185               	clrf	5
  4144  0416  3002               	movlw	2
  4145  0417  0781               	addwf	1,f
  4146  0418  3F00               	moviw [0]fsr0
  4147  0419  00D0               	movwf	??_vfpfcnvrt
  4148  041A  3F01               	moviw [1]fsr0
  4149  041B  00D1               	movwf	??_vfpfcnvrt+1
  4150  041C  0850               	movf	??_vfpfcnvrt,w
  4151  041D  00D5               	movwf	vfpfcnvrt@ll
  4152  041E  0851               	movf	??_vfpfcnvrt+1,w
  4153  041F  00D6               	movwf	vfpfcnvrt@ll+1
  4154  0420  0D89               	rlf	9,f
  4155  0421  3B89               	subwfb	9,f
  4156  0422  0989               	comf	9,f
  4157  0423  00D7               	movwf	vfpfcnvrt@ll+2
  4158  0424  00D8               	movwf	vfpfcnvrt@ll+3
  4159  0425  00D9               	movwf	vfpfcnvrt@ll+4
  4160  0426  00DA               	movwf	vfpfcnvrt@ll+5
  4161  0427  00DB               	movwf	vfpfcnvrt@ll+6
  4162  0428  00DC               	movwf	vfpfcnvrt@ll+7
  4163  0429                     l1787:
  4164                           
  4165                           ;C:\Program Files\Microchip\xc8\v2.35\pic\sources\c99\common\doprnt.c: 852:             
      +                          return dtoa(fp, ll);
  4166  0429  0855               	movf	vfpfcnvrt@ll,w
  4167  042A  00B0               	movwf	dtoa@d
  4168  042B  0856               	movf	vfpfcnvrt@ll+1,w
  4169  042C  00B1               	movwf	dtoa@d+1
  4170  042D  0857               	movf	vfpfcnvrt@ll+2,w
  4171  042E  00B2               	movwf	dtoa@d+2
  4172  042F  0858               	movf	vfpfcnvrt@ll+3,w
  4173  0430  00B3               	movwf	dtoa@d+3
  4174  0431  0859               	movf	vfpfcnvrt@ll+4,w
  4175  0432  00B4               	movwf	dtoa@d+4
  4176  0433  085A               	movf	vfpfcnvrt@ll+5,w
  4177  0434  00B5               	movwf	dtoa@d+5
  4178  0435  085B               	movf	vfpfcnvrt@ll+6,w
  4179  0436  00B6               	movwf	dtoa@d+6
  4180  0437  085C               	movf	vfpfcnvrt@ll+7,w
  4181  0438  00B7               	movwf	dtoa@d+7
  4182  0439  085D               	movf	vfpfcnvrt@fp,w
  4183  043A  3186  2687  3183   	fcall	_dtoa
  4184  043D  0020               	movlb	0	; select bank0
  4185  043E  0831               	movf	?_dtoa+1,w
  4186  043F  00CF               	movwf	?_vfpfcnvrt+1
  4187  0440  0830               	movf	?_dtoa,w
  4188  0441  00CE               	movwf	?_vfpfcnvrt
  4189  0442  2C9B               	goto	l1047
  4190  0443                     l1791:
  4191                           
  4192                           ;C:\Program Files\Microchip\xc8\v2.35\pic\sources\c99\common\doprnt.c: 1372:         if 
      +                          ((*fmt)[0] == '%') {
  4193  0443  084E               	movf	vfpfcnvrt@fmt,w
  4194  0444  0086               	movwf	6
  4195  0445  0187               	clrf	7
  4196  0446  3F40               	moviw [0]fsr1
  4197  0447  00D0               	movwf	??_vfpfcnvrt
  4198  0448  3F41               	moviw [1]fsr1
  4199  0449  00D1               	movwf	??_vfpfcnvrt+1
  4200  044A  0850               	movf	??_vfpfcnvrt,w
  4201  044B  0084               	movwf	4
  4202  044C  0851               	movf	??_vfpfcnvrt+1,w
  4203  044D  0085               	movwf	5
  4204  044E  0012               	moviw fsr0++
  4205  044F  3A25               	xorlw	37
  4206  0450  1D03               	btfss	3,2
  4207  0451  2C53               	goto	u1121
  4208  0452  2C54               	goto	u1120
  4209  0453                     u1121:
  4210  0453  2C6D               	goto	l1801
  4211  0454                     u1120:
  4212  0454                     l1793:
  4213                           
  4214                           ;C:\Program Files\Microchip\xc8\v2.35\pic\sources\c99\common\doprnt.c: 1373:            
      +                           ++*fmt;
  4215  0454  084E               	movf	vfpfcnvrt@fmt,w
  4216  0455  0086               	movwf	6
  4217  0456  0187               	clrf	7
  4218  0457  3001               	movlw	1
  4219  0458  0781               	addwf	1,f
  4220  0459  3141               	addfsr 1,1
  4221  045A  1803               	skipnc
  4222  045B  0A81               	incf	1,f
  4223  045C                     l1795:
  4224                           
  4225                           ;C:\Program Files\Microchip\xc8\v2.35\pic\sources\c99\common\doprnt.c: 1374:            
      +                           fputc((int)'%', fp);
  4226  045C  3025               	movlw	37
  4227  045D  00F2               	movwf	fputc@c
  4228  045E  3000               	movlw	0
  4229  045F  00F3               	movwf	fputc@c+1
  4230  0460  085D               	movf	vfpfcnvrt@fp,w
  4231  0461  00D0               	movwf	??_vfpfcnvrt
  4232  0462  0850               	movf	??_vfpfcnvrt,w
  4233  0463  00F4               	movwf	fputc@fp
  4234  0464  3183  2327  3183   	fcall	_fputc
  4235  0467                     l1797:
  4236                           
  4237                           ;C:\Program Files\Microchip\xc8\v2.35\pic\sources\c99\common\doprnt.c: 1375:            
      +                           return 1;
  4238  0467  3001               	movlw	1
  4239  0468  0020               	movlb	0	; select bank0
  4240  0469  00CE               	movwf	?_vfpfcnvrt
  4241  046A  3000               	movlw	0
  4242  046B  00CF               	movwf	?_vfpfcnvrt+1
  4243  046C  2C9B               	goto	l1047
  4244  046D                     l1801:
  4245                           
  4246                           ;C:\Program Files\Microchip\xc8\v2.35\pic\sources\c99\common\doprnt.c: 1379:         ++*
      +                          fmt;
  4247  046D  084E               	movf	vfpfcnvrt@fmt,w
  4248  046E  0086               	movwf	6
  4249  046F  0187               	clrf	7
  4250  0470  3001               	movlw	1
  4251  0471  0781               	addwf	1,f
  4252  0472  3141               	addfsr 1,1
  4253  0473  1803               	skipnc
  4254  0474  0A81               	incf	1,f
  4255  0475                     l1803:
  4256                           
  4257                           ;C:\Program Files\Microchip\xc8\v2.35\pic\sources\c99\common\doprnt.c: 1380:         ret
      +                          urn 0;
  4258  0475  01CE               	clrf	?_vfpfcnvrt
  4259  0476  01CF               	clrf	?_vfpfcnvrt+1
  4260  0477  2C9B               	goto	l1047
  4261  0478                     l1807:
  4262                           
  4263                           ;C:\Program Files\Microchip\xc8\v2.35\pic\sources\c99\common\doprnt.c: 1384:     fputc((
      +                          int)(*fmt)[0], fp);
  4264  0478  084E               	movf	vfpfcnvrt@fmt,w
  4265  0479  0086               	movwf	6
  4266  047A  0187               	clrf	7
  4267  047B  3F40               	moviw [0]fsr1
  4268  047C  00D0               	movwf	??_vfpfcnvrt
  4269  047D  3F41               	moviw [1]fsr1
  4270  047E  00D1               	movwf	??_vfpfcnvrt+1
  4271  047F  0850               	movf	??_vfpfcnvrt,w
  4272  0480  0084               	movwf	4
  4273  0481  0851               	movf	??_vfpfcnvrt+1,w
  4274  0482  0085               	movwf	5
  4275  0483  0800               	movf	0,w	;code access
  4276  0484  00D2               	movwf	??_vfpfcnvrt+2
  4277  0485  01D3               	clrf	??_vfpfcnvrt+3
  4278  0486  0852               	movf	??_vfpfcnvrt+2,w
  4279  0487  00F2               	movwf	fputc@c
  4280  0488  0853               	movf	??_vfpfcnvrt+3,w
  4281  0489  00F3               	movwf	fputc@c+1
  4282  048A  085D               	movf	vfpfcnvrt@fp,w
  4283  048B  00D4               	movwf	??_vfpfcnvrt+4
  4284  048C  0854               	movf	??_vfpfcnvrt+4,w
  4285  048D  00F4               	movwf	fputc@fp
  4286  048E  3183  2327  3183   	fcall	_fputc
  4287  0491                     l1809:
  4288                           
  4289                           ;C:\Program Files\Microchip\xc8\v2.35\pic\sources\c99\common\doprnt.c: 1385:     ++*fmt;
  4290  0491  0020               	movlb	0	; select bank0
  4291  0492  084E               	movf	vfpfcnvrt@fmt,w
  4292  0493  0086               	movwf	6
  4293  0494  0187               	clrf	7
  4294  0495  3001               	movlw	1
  4295  0496  0781               	addwf	1,f
  4296  0497  3141               	addfsr 1,1
  4297  0498  1803               	skipnc
  4298  0499  0A81               	incf	1,f
  4299  049A  2C67               	goto	l1797
  4300  049B                     l1047:
  4301  049B  0008               	return
  4302  049C                     __end_of_vfpfcnvrt:
  4303                           
  4304                           	psect	text4
  4305  0687                     __ptext4:	
  4306 ;; *************** function _dtoa *****************
  4307 ;; Defined at:
  4308 ;;		line 287 in file "C:\Program Files\Microchip\xc8\v2.35\pic\sources\c99\common\doprnt.c"
  4309 ;; Parameters:    Size  Location     Type
  4310 ;;  fp              1    wreg     PTR struct _IO_FILE
  4311 ;;		 -> NULL(0), 
  4312 ;;  d               8   16[BANK0 ] long long 
  4313 ;; Auto vars:     Size  Location     Type
  4314 ;;  fp              1   31[BANK0 ] PTR struct _IO_FILE
  4315 ;;		 -> NULL(0), 
  4316 ;;  n               8   36[BANK0 ] long long 
  4317 ;;  i               2   44[BANK0 ] int 
  4318 ;;  s               2   34[BANK0 ] int 
  4319 ;;  w               2   32[BANK0 ] int 
  4320 ;;  p               2   29[BANK0 ] int 
  4321 ;; Return value:  Size  Location     Type
  4322 ;;                  2   16[BANK0 ] int 
  4323 ;; Registers used:
  4324 ;;		wreg, fsr1l, fsr1h, status,2, status,0, pclath, cstack
  4325 ;; Tracked objects:
  4326 ;;		On entry : 0/0
  4327 ;;		On exit  : 0/0
  4328 ;;		Unchanged: 0/0
  4329 ;; Data sizes:     COMMON   BANK0   BANK1   BANK2   BANK3   BANK4   BANK5   BANK6   BANK7   BANK8   BANK9  BANK10  BANK1
      +1  BANK12
  4330 ;;      Params:         0       8       0       0       0       0       0       0       0       0       0       0       
      +0       0
  4331 ;;      Locals:         0      19       0       0       0       0       0       0       0       0       0       0       
      +0       0
  4332 ;;      Temps:          0       3       0       0       0       0       0       0       0       0       0       0       
      +0       0
  4333 ;;      Totals:         0      30       0       0       0       0       0       0       0       0       0       0       
      +0       0
  4334 ;;Total ram usage:       30 bytes
  4335 ;; Hardware stack levels used: 1
  4336 ;; Hardware stack levels required when called: 5
  4337 ;; This function calls:
  4338 ;;		___aodiv
  4339 ;;		___aomod
  4340 ;;		_abs
  4341 ;;		_pad
  4342 ;; This function is called by:
  4343 ;;		_vfpfcnvrt
  4344 ;; This function uses a non-reentrant model
  4345 ;;
  4346                           
  4347  0687                     _dtoa:	
  4348                           ;psect for function _dtoa
  4349                           
  4350                           
  4351                           ;incstack = 0
  4352                           ; Regs used in _dtoa: [wreg+fsr1l+fsr1h+status,2+status,0+pclath+cstack]
  4353                           ;dtoa@fp stored from wreg
  4354  0687  0020               	movlb	0	; select bank0
  4355  0688  00BF               	movwf	dtoa@fp
  4356  0689                     l1707:
  4357                           
  4358                           ;C:\Program Files\Microchip\xc8\v2.35\pic\sources\c99\common\doprnt.c: 287: static int d
      +                          toa(FILE *fp, long long d);C:\Program Files\Microchip\xc8\v2.35\pic\sources\c99\common\d
      +                          oprnt.c: 288: {;C:\Program Files\Microchip\xc8\v2.35\pic\sources\c99\common\doprnt.c: 28
      +                          9:     int i, p, s, w;;C:\Program Files\Microchip\xc8\v2.35\pic\sources\c99\common\doprn
      +                          t.c: 290:     long long n;;C:\Program Files\Microchip\xc8\v2.35\pic\sources\c99\common\d
      +                          oprnt.c: 293:     n = d;
  4359  0689  0830               	movf	dtoa@d,w
  4360  068A  00C4               	movwf	dtoa@n
  4361  068B  0831               	movf	dtoa@d+1,w
  4362  068C  00C5               	movwf	dtoa@n+1
  4363  068D  0832               	movf	dtoa@d+2,w
  4364  068E  00C6               	movwf	dtoa@n+2
  4365  068F  0833               	movf	dtoa@d+3,w
  4366  0690  00C7               	movwf	dtoa@n+3
  4367  0691  0834               	movf	dtoa@d+4,w
  4368  0692  00C8               	movwf	dtoa@n+4
  4369  0693  0835               	movf	dtoa@d+5,w
  4370  0694  00C9               	movwf	dtoa@n+5
  4371  0695  0836               	movf	dtoa@d+6,w
  4372  0696  00CA               	movwf	dtoa@n+6
  4373  0697  0837               	movf	dtoa@d+7,w
  4374  0698  00CB               	movwf	dtoa@n+7
  4375  0699                     l1709:
  4376                           
  4377                           ;C:\Program Files\Microchip\xc8\v2.35\pic\sources\c99\common\doprnt.c: 294:     s = n < 
      +                          0 ? 1 : 0;
  4378  0699  3044               	movlw	low dtoa@n
  4379  069A  0086               	movwf	6
  4380  069B  3000               	movlw	high dtoa@n
  4381  069C  0087               	movwf	7
  4382  069D  3F47               	moviw [7]fsr1
  4383  069E  00B8               	movwf	??_dtoa
  4384  069F  1BB8               	btfsc	??_dtoa,7
  4385  06A0  2EA2               	goto	u931
  4386  06A1  2EA4               	goto	u930
  4387  06A2                     u931:
  4388  06A2  3001               	movlw	1
  4389  06A3  2EA5               	goto	u940
  4390  06A4                     u930:
  4391  06A4  3000               	movlw	0
  4392  06A5                     u940:
  4393  06A5  0020               	movlb	0	; select bank0
  4394  06A6  00B9               	movwf	??_dtoa+1
  4395  06A7  01BA               	clrf	??_dtoa+2
  4396  06A8  0839               	movf	??_dtoa+1,w
  4397  06A9  00C2               	movwf	dtoa@s
  4398  06AA  083A               	movf	??_dtoa+2,w
  4399  06AB  00C3               	movwf	dtoa@s+1
  4400  06AC                     l1711:
  4401                           
  4402                           ;C:\Program Files\Microchip\xc8\v2.35\pic\sources\c99\common\doprnt.c: 295:     if (s) {
  4403  06AC  0842               	movf	dtoa@s,w
  4404  06AD  0443               	iorwf	dtoa@s+1,w
  4405  06AE  1903               	btfsc	3,2
  4406  06AF  2EB1               	goto	u951
  4407  06B0  2EB2               	goto	u950
  4408  06B1                     u951:
  4409  06B1  2ED0               	goto	l1017
  4410  06B2                     u950:
  4411  06B2                     l1713:
  4412                           
  4413                           ;C:\Program Files\Microchip\xc8\v2.35\pic\sources\c99\common\doprnt.c: 296:         n = 
      +                          -n;
  4414  06B2  09C4               	comf	dtoa@n,f
  4415  06B3  09C5               	comf	dtoa@n+1,f
  4416  06B4  09C6               	comf	dtoa@n+2,f
  4417  06B5  09C7               	comf	dtoa@n+3,f
  4418  06B6  09C8               	comf	dtoa@n+4,f
  4419  06B7  09C9               	comf	dtoa@n+5,f
  4420  06B8  09CA               	comf	dtoa@n+6,f
  4421  06B9  09CB               	comf	dtoa@n+7,f
  4422  06BA  0AC4               	incf	dtoa@n,f
  4423  06BB  1D03               	skipz
  4424  06BC  2ED0               	goto	u96lld
  4425  06BD  0AC5               	incf	dtoa@n+1,f
  4426  06BE  1D03               	skipz
  4427  06BF  2ED0               	goto	u96lld
  4428  06C0  0AC6               	incf	dtoa@n+2,f
  4429  06C1  1D03               	skipz
  4430  06C2  2ED0               	goto	u96lld
  4431  06C3  0AC7               	incf	dtoa@n+3,f
  4432  06C4  1D03               	skipz
  4433  06C5  2ED0               	goto	u96lld
  4434  06C6  0AC8               	incf	dtoa@n+4,f
  4435  06C7  1D03               	skipz
  4436  06C8  2ED0               	goto	u96lld
  4437  06C9  0AC9               	incf	dtoa@n+5,f
  4438  06CA  1D03               	skipz
  4439  06CB  2ED0               	goto	u96lld
  4440  06CC  0ACA               	incf	dtoa@n+6,f
  4441  06CD  1D03               	skipz
  4442  06CE  2ED0               	goto	u96lld
  4443  06CF  0ACB               	incf	dtoa@n+7,f
  4444  06D0                     u96lld:
  4445  06D0                     l1017:	
  4446                           ;C:\Program Files\Microchip\xc8\v2.35\pic\sources\c99\common\doprnt.c: 297:     }
  4447                           
  4448                           
  4449                           ;C:\Program Files\Microchip\xc8\v2.35\pic\sources\c99\common\doprnt.c: 300:     if (!(pr
      +                          ec < 0)) {
  4450  06D0  0021               	movlb	1	; select bank1
  4451  06D1  1BA5               	btfsc	(_prec+1)^(0+128),7
  4452  06D2  2ED4               	goto	u971
  4453  06D3  2ED5               	goto	u970
  4454  06D4                     u971:
  4455  06D4  2ED9               	goto	l1018
  4456  06D5                     u970:
  4457  06D5                     l1715:
  4458                           
  4459                           ;C:\Program Files\Microchip\xc8\v2.35\pic\sources\c99\common\doprnt.c: 301:         flag
      +                          s &= ~(1 << 1);
  4460  06D5  30FD               	movlw	253
  4461  06D6  05A6               	andwf	_flags^(0+128),f
  4462  06D7  30FF               	movlw	255
  4463  06D8  05A7               	andwf	(_flags+1)^(0+128),f
  4464  06D9                     l1018:	
  4465                           ;C:\Program Files\Microchip\xc8\v2.35\pic\sources\c99\common\doprnt.c: 302:     }
  4466                           
  4467                           
  4468                           ;C:\Program Files\Microchip\xc8\v2.35\pic\sources\c99\common\doprnt.c: 303:     p = (0 <
      +                           prec) ? prec : 1;
  4469  06D9  0825               	movf	(_prec+1)^(0+128),w
  4470  06DA  3A80               	xorlw	128
  4471  06DB  0020               	movlb	0	; select bank0
  4472  06DC  00B8               	movwf	??_dtoa
  4473  06DD  3080               	movlw	128
  4474  06DE  0238               	subwf	??_dtoa,w
  4475  06DF  1D03               	skipz
  4476  06E0  2EE4               	goto	u985
  4477  06E1  3001               	movlw	1
  4478  06E2  0021               	movlb	1	; select bank1
  4479  06E3  0224               	subwf	_prec^(0+128),w
  4480  06E4                     u985:
  4481  06E4  1803               	skipnc
  4482  06E5  2EE7               	goto	u981
  4483  06E6  2EE8               	goto	u980
  4484  06E7                     u981:
  4485  06E7  2EEE               	goto	l1719
  4486  06E8                     u980:
  4487  06E8                     l1717:
  4488  06E8  3001               	movlw	1
  4489  06E9  0020               	movlb	0	; select bank0
  4490  06EA  00BD               	movwf	dtoa@p
  4491  06EB  3000               	movlw	0
  4492  06EC  00BE               	movwf	dtoa@p+1
  4493  06ED  2EF6               	goto	l1022
  4494  06EE                     l1719:
  4495  06EE  0021               	movlb	1	; select bank1
  4496  06EF  0825               	movf	(_prec+1)^(0+128),w
  4497  06F0  0020               	movlb	0	; select bank0
  4498  06F1  00BE               	movwf	dtoa@p+1
  4499  06F2  0021               	movlb	1	; select bank1
  4500  06F3  0824               	movf	_prec^(0+128),w
  4501  06F4  0020               	movlb	0	; select bank0
  4502  06F5  00BD               	movwf	dtoa@p
  4503  06F6                     l1022:
  4504                           
  4505                           ;C:\Program Files\Microchip\xc8\v2.35\pic\sources\c99\common\doprnt.c: 304:     w = widt
      +                          h;
  4506  06F6  0021               	movlb	1	; select bank1
  4507  06F7  0823               	movf	(_width+1)^(0+128),w
  4508  06F8  0020               	movlb	0	; select bank0
  4509  06F9  00C1               	movwf	dtoa@w+1
  4510  06FA  0021               	movlb	1	; select bank1
  4511  06FB  0822               	movf	_width^(0+128),w
  4512  06FC  0020               	movlb	0	; select bank0
  4513  06FD  00C0               	movwf	dtoa@w
  4514  06FE                     l1721:
  4515                           
  4516                           ;C:\Program Files\Microchip\xc8\v2.35\pic\sources\c99\common\doprnt.c: 305:     if (s ||
      +                           (flags & (1 << 2))) {
  4517  06FE  0842               	movf	dtoa@s,w
  4518  06FF  0443               	iorwf	dtoa@s+1,w
  4519  0700  1D03               	btfss	3,2
  4520  0701  2F03               	goto	u991
  4521  0702  2F04               	goto	u990
  4522  0703                     u991:
  4523  0703  2F09               	goto	l1725
  4524  0704                     u990:
  4525  0704                     l1723:
  4526  0704  0021               	movlb	1	; select bank1
  4527  0705  1D26               	btfss	_flags^(0+128),2
  4528  0706  2F08               	goto	u1001
  4529  0707  2F09               	goto	u1000
  4530  0708                     u1001:
  4531  0708  2F0E               	goto	l1023
  4532  0709                     u1000:
  4533  0709                     l1725:
  4534                           
  4535                           ;C:\Program Files\Microchip\xc8\v2.35\pic\sources\c99\common\doprnt.c: 306:         --w;
  4536  0709  30FF               	movlw	255
  4537  070A  0020               	movlb	0	; select bank0
  4538  070B  07C0               	addwf	dtoa@w,f
  4539  070C  30FF               	movlw	255
  4540  070D  3DC1               	addwfc	dtoa@w+1,f
  4541  070E                     l1023:	
  4542                           ;C:\Program Files\Microchip\xc8\v2.35\pic\sources\c99\common\doprnt.c: 307:     }
  4543                           
  4544                           
  4545                           ;C:\Program Files\Microchip\xc8\v2.35\pic\sources\c99\common\doprnt.c: 310:     i = size
      +                          of(dbuf) - 1;
  4546  070E  301F               	movlw	31
  4547  070F  0020               	movlb	0	; select bank0
  4548  0710  00CC               	movwf	dtoa@i
  4549  0711  3000               	movlw	0
  4550  0712  00CD               	movwf	dtoa@i+1
  4551  0713                     l1727:
  4552                           
  4553                           ;C:\Program Files\Microchip\xc8\v2.35\pic\sources\c99\common\doprnt.c: 311:     dbuf[i] 
      +                          = '\0';
  4554  0713  0021               	movlb	1	; select bank1
  4555  0714  01C8               	clrf	(_dbuf^(0+128)+31)
  4556                           
  4557                           ;C:\Program Files\Microchip\xc8\v2.35\pic\sources\c99\common\doprnt.c: 312:     while (!
      +                          (i < 1) && (n || (0 < p) || ((0 < w) && (flags & (1 << 1))))) {
  4558  0715  2F7E               	goto	l1026
  4559  0716                     l1729:
  4560                           
  4561                           ;C:\Program Files\Microchip\xc8\v2.35\pic\sources\c99\common\doprnt.c: 313:         --i;
  4562  0716  30FF               	movlw	255
  4563  0717  0020               	movlb	0	; select bank0
  4564  0718  07CC               	addwf	dtoa@i,f
  4565  0719  30FF               	movlw	255
  4566  071A  3DCD               	addwfc	dtoa@i+1,f
  4567  071B                     l1731:
  4568                           
  4569                           ;C:\Program Files\Microchip\xc8\v2.35\pic\sources\c99\common\doprnt.c: 314:         dbuf
      +                          [i] = (char)((int)'0' + abs(n % 10));
  4570  071B  300A               	movlw	10
  4571  071C  00A0               	movwf	___aomod@divisor
  4572  071D  01A1               	clrf	___aomod@divisor+1
  4573  071E  01A2               	clrf	___aomod@divisor+2
  4574  071F  01A3               	clrf	___aomod@divisor+3
  4575  0720  01A4               	clrf	___aomod@divisor+4
  4576  0721  01A5               	clrf	___aomod@divisor+5
  4577  0722  01A6               	clrf	___aomod@divisor+6
  4578  0723  01A7               	clrf	___aomod@divisor+7
  4579  0724  0844               	movf	dtoa@n,w
  4580  0725  00A8               	movwf	___aomod@dividend
  4581  0726  0845               	movf	dtoa@n+1,w
  4582  0727  00A9               	movwf	___aomod@dividend+1
  4583  0728  0846               	movf	dtoa@n+2,w
  4584  0729  00AA               	movwf	___aomod@dividend+2
  4585  072A  0847               	movf	dtoa@n+3,w
  4586  072B  00AB               	movwf	___aomod@dividend+3
  4587  072C  0848               	movf	dtoa@n+4,w
  4588  072D  00AC               	movwf	___aomod@dividend+4
  4589  072E  0849               	movf	dtoa@n+5,w
  4590  072F  00AD               	movwf	___aomod@dividend+5
  4591  0730  084A               	movf	dtoa@n+6,w
  4592  0731  00AE               	movwf	___aomod@dividend+6
  4593  0732  084B               	movf	dtoa@n+7,w
  4594  0733  00AF               	movwf	___aomod@dividend+7
  4595  0734  3184  249C  3186   	fcall	___aomod
  4596  0737  0020               	movlb	0	; select bank0
  4597  0738  0821               	movf	?___aomod+1,w
  4598  0739  00F4               	movwf	abs@a+1
  4599  073A  0820               	movf	?___aomod,w
  4600  073B  00F3               	movwf	abs@a
  4601  073C  3182  2218  3186   	fcall	_abs
  4602  073F  0873               	movf	?_abs,w
  4603  0740  3E30               	addlw	48
  4604  0741  0020               	movlb	0	; select bank0
  4605  0742  00B8               	movwf	??_dtoa
  4606  0743  084C               	movf	dtoa@i,w
  4607  0744  3EA9               	addlw	(low (_dbuf| 0))& (0+255)
  4608  0745  0086               	movwf	6
  4609  0746  0187               	clrf	7
  4610  0747  0838               	movf	??_dtoa,w
  4611  0748  0081               	movwf	1
  4612  0749                     l1733:
  4613                           
  4614                           ;C:\Program Files\Microchip\xc8\v2.35\pic\sources\c99\common\doprnt.c: 315:         --p;
  4615  0749  30FF               	movlw	255
  4616  074A  07BD               	addwf	dtoa@p,f
  4617  074B  30FF               	movlw	255
  4618  074C  3DBE               	addwfc	dtoa@p+1,f
  4619  074D                     l1735:
  4620                           
  4621                           ;C:\Program Files\Microchip\xc8\v2.35\pic\sources\c99\common\doprnt.c: 316:         --w;
  4622  074D  30FF               	movlw	255
  4623  074E  07C0               	addwf	dtoa@w,f
  4624  074F  30FF               	movlw	255
  4625  0750  3DC1               	addwfc	dtoa@w+1,f
  4626  0751                     l1737:
  4627                           
  4628                           ;C:\Program Files\Microchip\xc8\v2.35\pic\sources\c99\common\doprnt.c: 317:         n = 
      +                          n / 10;
  4629  0751  300A               	movlw	10
  4630  0752  00A0               	movwf	___aodiv@divisor
  4631  0753  01A1               	clrf	___aodiv@divisor+1
  4632  0754  01A2               	clrf	___aodiv@divisor+2
  4633  0755  01A3               	clrf	___aodiv@divisor+3
  4634  0756  01A4               	clrf	___aodiv@divisor+4
  4635  0757  01A5               	clrf	___aodiv@divisor+5
  4636  0758  01A6               	clrf	___aodiv@divisor+6
  4637  0759  01A7               	clrf	___aodiv@divisor+7
  4638  075A  0844               	movf	dtoa@n,w
  4639  075B  00A8               	movwf	___aodiv@dividend
  4640  075C  0845               	movf	dtoa@n+1,w
  4641  075D  00A9               	movwf	___aodiv@dividend+1
  4642  075E  0846               	movf	dtoa@n+2,w
  4643  075F  00AA               	movwf	___aodiv@dividend+2
  4644  0760  0847               	movf	dtoa@n+3,w
  4645  0761  00AB               	movwf	___aodiv@dividend+3
  4646  0762  0848               	movf	dtoa@n+4,w
  4647  0763  00AC               	movwf	___aodiv@dividend+4
  4648  0764  0849               	movf	dtoa@n+5,w
  4649  0765  00AD               	movwf	___aodiv@dividend+5
  4650  0766  084A               	movf	dtoa@n+6,w
  4651  0767  00AE               	movwf	___aodiv@dividend+6
  4652  0768  084B               	movf	dtoa@n+7,w
  4653  0769  00AF               	movwf	___aodiv@dividend+7
  4654  076A  3185  2586  3186   	fcall	___aodiv
  4655  076D  0020               	movlb	0	; select bank0
  4656  076E  0820               	movf	?___aodiv,w
  4657  076F  00C4               	movwf	dtoa@n
  4658  0770  0821               	movf	?___aodiv+1,w
  4659  0771  00C5               	movwf	dtoa@n+1
  4660  0772  0822               	movf	?___aodiv+2,w
  4661  0773  00C6               	movwf	dtoa@n+2
  4662  0774  0823               	movf	?___aodiv+3,w
  4663  0775  00C7               	movwf	dtoa@n+3
  4664  0776  0824               	movf	?___aodiv+4,w
  4665  0777  00C8               	movwf	dtoa@n+4
  4666  0778  0825               	movf	?___aodiv+5,w
  4667  0779  00C9               	movwf	dtoa@n+5
  4668  077A  0826               	movf	?___aodiv+6,w
  4669  077B  00CA               	movwf	dtoa@n+6
  4670  077C  0827               	movf	?___aodiv+7,w
  4671  077D  00CB               	movwf	dtoa@n+7
  4672  077E                     l1026:	
  4673                           ;C:\Program Files\Microchip\xc8\v2.35\pic\sources\c99\common\doprnt.c: 318:     }
  4674                           
  4675                           
  4676                           ;C:\Program Files\Microchip\xc8\v2.35\pic\sources\c99\common\doprnt.c: 312:     while (!
      +                          (i < 1) && (n || (0 < p) || ((0 < w) && (flags & (1 << 1))))) {
  4677  077E  0020               	movlb	0	; select bank0
  4678  077F  084D               	movf	dtoa@i+1,w
  4679  0780  3A80               	xorlw	128
  4680  0781  00B8               	movwf	??_dtoa
  4681  0782  3080               	movlw	128
  4682  0783  0238               	subwf	??_dtoa,w
  4683  0784  1D03               	skipz
  4684  0785  2F88               	goto	u1015
  4685  0786  3001               	movlw	1
  4686  0787  024C               	subwf	dtoa@i,w
  4687  0788                     u1015:
  4688  0788  1C03               	skipc
  4689  0789  2F8B               	goto	u1011
  4690  078A  2F8C               	goto	u1010
  4691  078B                     u1011:
  4692  078B  2FB9               	goto	l1747
  4693  078C                     u1010:
  4694  078C                     l1739:
  4695  078C  0020               	movlb	0	; select bank0
  4696  078D  0844               	movf	dtoa@n,w
  4697  078E  0445               	iorwf	dtoa@n+1,w
  4698  078F  0446               	iorwf	dtoa@n+2,w
  4699  0790  0447               	iorwf	dtoa@n+3,w
  4700  0791  0448               	iorwf	dtoa@n+4,w
  4701  0792  0449               	iorwf	dtoa@n+5,w
  4702  0793  044A               	iorwf	dtoa@n+6,w
  4703  0794  044B               	iorwf	dtoa@n+7,w
  4704  0795  1D03               	skipz
  4705  0796  2F98               	goto	u1021
  4706  0797  2F99               	goto	u1020
  4707  0798                     u1021:
  4708  0798  2F16               	goto	l1729
  4709  0799                     u1020:
  4710  0799                     l1741:
  4711  0799  083E               	movf	dtoa@p+1,w
  4712  079A  3A80               	xorlw	128
  4713  079B  00B8               	movwf	??_dtoa
  4714  079C  3080               	movlw	128
  4715  079D  0238               	subwf	??_dtoa,w
  4716  079E  1D03               	skipz
  4717  079F  2FA2               	goto	u1035
  4718  07A0  3001               	movlw	1
  4719  07A1  023D               	subwf	dtoa@p,w
  4720  07A2                     u1035:
  4721  07A2  1803               	skipnc
  4722  07A3  2FA5               	goto	u1031
  4723  07A4  2FA6               	goto	u1030
  4724  07A5                     u1031:
  4725  07A5  2F16               	goto	l1729
  4726  07A6                     u1030:
  4727  07A6                     l1743:
  4728  07A6  0020               	movlb	0	; select bank0
  4729  07A7  0841               	movf	dtoa@w+1,w
  4730  07A8  3A80               	xorlw	128
  4731  07A9  00B8               	movwf	??_dtoa
  4732  07AA  3080               	movlw	128
  4733  07AB  0238               	subwf	??_dtoa,w
  4734  07AC  1D03               	skipz
  4735  07AD  2FB0               	goto	u1045
  4736  07AE  3001               	movlw	1
  4737  07AF  0240               	subwf	dtoa@w,w
  4738  07B0                     u1045:
  4739  07B0  1C03               	skipc
  4740  07B1  2FB3               	goto	u1041
  4741  07B2  2FB4               	goto	u1040
  4742  07B3                     u1041:
  4743  07B3  2FB9               	goto	l1747
  4744  07B4                     u1040:
  4745  07B4                     l1745:
  4746  07B4  0021               	movlb	1	; select bank1
  4747  07B5  18A6               	btfsc	_flags^(0+128),1
  4748  07B6  2FB8               	goto	u1051
  4749  07B7  2FB9               	goto	u1050
  4750  07B8                     u1051:
  4751  07B8  2F16               	goto	l1729
  4752  07B9                     u1050:
  4753  07B9                     l1747:
  4754                           
  4755                           ;C:\Program Files\Microchip\xc8\v2.35\pic\sources\c99\common\doprnt.c: 321:     if (s ||
      +                           (flags & (1 << 2))) {
  4756  07B9  0020               	movlb	0	; select bank0
  4757  07BA  0842               	movf	dtoa@s,w
  4758  07BB  0443               	iorwf	dtoa@s+1,w
  4759  07BC  1D03               	btfss	3,2
  4760  07BD  2FBF               	goto	u1061
  4761  07BE  2FC0               	goto	u1060
  4762  07BF                     u1061:
  4763  07BF  2FC5               	goto	l1751
  4764  07C0                     u1060:
  4765  07C0                     l1749:
  4766  07C0  0021               	movlb	1	; select bank1
  4767  07C1  1D26               	btfss	_flags^(0+128),2
  4768  07C2  2FC4               	goto	u1071
  4769  07C3  2FC5               	goto	u1070
  4770  07C4                     u1071:
  4771  07C4  2FE1               	goto	l1761
  4772  07C5                     u1070:
  4773  07C5                     l1751:
  4774                           
  4775                           ;C:\Program Files\Microchip\xc8\v2.35\pic\sources\c99\common\doprnt.c: 322:         --i;
  4776  07C5  30FF               	movlw	255
  4777  07C6  0020               	movlb	0	; select bank0
  4778  07C7  07CC               	addwf	dtoa@i,f
  4779  07C8  30FF               	movlw	255
  4780  07C9  3DCD               	addwfc	dtoa@i+1,f
  4781  07CA                     l1753:
  4782                           
  4783                           ;C:\Program Files\Microchip\xc8\v2.35\pic\sources\c99\common\doprnt.c: 323:         dbuf
      +                          [i] = s ? '-' : '+';
  4784  07CA  0842               	movf	dtoa@s,w
  4785  07CB  0443               	iorwf	dtoa@s+1,w
  4786  07CC  1D03               	btfss	3,2
  4787  07CD  2FCF               	goto	u1081
  4788  07CE  2FD0               	goto	u1080
  4789  07CF                     u1081:
  4790  07CF  2FD5               	goto	l1757
  4791  07D0                     u1080:
  4792  07D0                     l1755:
  4793  07D0  302B               	movlw	43
  4794  07D1  00BB               	movwf	_dtoa$1073
  4795  07D2  3000               	movlw	0
  4796  07D3  00BC               	movwf	_dtoa$1073+1
  4797  07D4  2FD9               	goto	l1759
  4798  07D5                     l1757:
  4799  07D5  302D               	movlw	45
  4800  07D6  00BB               	movwf	_dtoa$1073
  4801  07D7  3000               	movlw	0
  4802  07D8  00BC               	movwf	_dtoa$1073+1
  4803  07D9                     l1759:
  4804  07D9  083B               	movf	_dtoa$1073,w
  4805  07DA  00B8               	movwf	??_dtoa
  4806  07DB  084C               	movf	dtoa@i,w
  4807  07DC  3EA9               	addlw	(low (_dbuf| 0))& (0+255)
  4808  07DD  0086               	movwf	6
  4809  07DE  0187               	clrf	7
  4810  07DF  0838               	movf	??_dtoa,w
  4811  07E0  0081               	movwf	1
  4812  07E1                     l1761:
  4813                           
  4814                           ;C:\Program Files\Microchip\xc8\v2.35\pic\sources\c99\common\doprnt.c: 327:     return p
      +                          ad(fp, &dbuf[i], w);
  4815  07E1  0020               	movlb	0	; select bank0
  4816  07E2  084C               	movf	dtoa@i,w
  4817  07E3  3EA9               	addlw	(low (_dbuf| 0))& (0+255)
  4818  07E4  00B8               	movwf	??_dtoa
  4819  07E5  0838               	movf	??_dtoa,w
  4820  07E6  00A4               	movwf	pad@buf
  4821  07E7  0841               	movf	dtoa@w+1,w
  4822  07E8  00A6               	movwf	pad@p+1
  4823  07E9  0840               	movf	dtoa@w,w
  4824  07EA  00A5               	movwf	pad@p
  4825  07EB  083F               	movf	dtoa@fp,w
  4826  07EC  3183  2368  3186   	fcall	_pad
  4827  07EF  0020               	movlb	0	; select bank0
  4828  07F0  0825               	movf	?_pad+1,w
  4829  07F1  00B1               	movwf	?_dtoa+1
  4830  07F2  0824               	movf	?_pad,w
  4831  07F3  00B0               	movwf	?_dtoa
  4832  07F4                     l1040:
  4833  07F4  0008               	return
  4834  07F5                     __end_of_dtoa:
  4835                           
  4836                           	psect	text5
  4837  0368                     __ptext5:	
  4838 ;; *************** function _pad *****************
  4839 ;; Defined at:
  4840 ;;		line 72 in file "C:\Program Files\Microchip\xc8\v2.35\pic\sources\c99\common\doprnt.c"
  4841 ;; Parameters:    Size  Location     Type
  4842 ;;  fp              1    wreg     PTR struct _IO_FILE
  4843 ;;		 -> NULL(0), 
  4844 ;;  buf             1    4[BANK0 ] PTR unsigned char 
  4845 ;;		 -> dbuf(32), 
  4846 ;;  p               2    5[BANK0 ] int 
  4847 ;; Auto vars:     Size  Location     Type
  4848 ;;  fp              1   12[BANK0 ] PTR struct _IO_FILE
  4849 ;;		 -> NULL(0), 
  4850 ;;  w               2   10[BANK0 ] int 
  4851 ;;  i               2    8[BANK0 ] int 
  4852 ;; Return value:  Size  Location     Type
  4853 ;;                  2    4[BANK0 ] int 
  4854 ;; Registers used:
  4855 ;;		wreg, fsr1l, fsr1h, status,2, status,0, pclath, cstack
  4856 ;; Tracked objects:
  4857 ;;		On entry : 0/0
  4858 ;;		On exit  : 0/0
  4859 ;;		Unchanged: 0/0
  4860 ;; Data sizes:     COMMON   BANK0   BANK1   BANK2   BANK3   BANK4   BANK5   BANK6   BANK7   BANK8   BANK9  BANK10  BANK1
      +1  BANK12
  4861 ;;      Params:         0       3       0       0       0       0       0       0       0       0       0       0       
      +0       0
  4862 ;;      Locals:         0       5       0       0       0       0       0       0       0       0       0       0       
      +0       0
  4863 ;;      Temps:          0       1       0       0       0       0       0       0       0       0       0       0       
      +0       0
  4864 ;;      Totals:         0       9       0       0       0       0       0       0       0       0       0       0       
      +0       0
  4865 ;;Total ram usage:        9 bytes
  4866 ;; Hardware stack levels used: 1
  4867 ;; Hardware stack levels required when called: 4
  4868 ;; This function calls:
  4869 ;;		_fputc
  4870 ;;		_fputs
  4871 ;;		_strlen
  4872 ;; This function is called by:
  4873 ;;		_dtoa
  4874 ;; This function uses a non-reentrant model
  4875 ;;
  4876                           
  4877  0368                     _pad:	
  4878                           ;psect for function _pad
  4879                           
  4880                           
  4881                           ;incstack = 0
  4882                           ; Regs used in _pad: [wreg+fsr1l+fsr1h+status,2+status,0+pclath+cstack]
  4883                           ;pad@fp stored from wreg
  4884  0368  0020               	movlb	0	; select bank0
  4885  0369  00AC               	movwf	pad@fp
  4886  036A                     l1683:
  4887                           
  4888                           ;C:\Program Files\Microchip\xc8\v2.35\pic\sources\c99\common\doprnt.c: 72: static int pa
      +                          d(FILE *fp, char *buf, int p);C:\Program Files\Microchip\xc8\v2.35\pic\sources\c99\commo
      +                          n\doprnt.c: 73: {;C:\Program Files\Microchip\xc8\v2.35\pic\sources\c99\common\doprnt.c: 
      +                          74:     int i, w;;C:\Program Files\Microchip\xc8\v2.35\pic\sources\c99\common\doprnt.c: 
      +                          77:     if (flags & (1 << 0)) {
  4889  036A  0021               	movlb	1	; select bank1
  4890  036B  1C26               	btfss	_flags^(0+128),0
  4891  036C  2B6E               	goto	u881
  4892  036D  2B6F               	goto	u880
  4893  036E                     u881:
  4894  036E  2B78               	goto	l1687
  4895  036F                     u880:
  4896  036F                     l1685:
  4897                           
  4898                           ;C:\Program Files\Microchip\xc8\v2.35\pic\sources\c99\common\doprnt.c: 78:         fputs
      +                          ((const char *)buf, fp);
  4899  036F  0020               	movlb	0	; select bank0
  4900  0370  082C               	movf	pad@fp,w
  4901  0371  00A7               	movwf	??_pad
  4902  0372  0827               	movf	??_pad,w
  4903  0373  00FA               	movwf	fputs@fp
  4904  0374  0824               	movf	pad@buf,w
  4905  0375  3182  2273  3183   	fcall	_fputs
  4906  0378                     l1687:
  4907                           
  4908                           ;C:\Program Files\Microchip\xc8\v2.35\pic\sources\c99\common\doprnt.c: 82:     w = (p < 
      +                          0) ? 0 : p;
  4909  0378  0020               	movlb	0	; select bank0
  4910  0379  1BA6               	btfsc	pad@p+1,7
  4911  037A  2B7C               	goto	u891
  4912  037B  2B7D               	goto	u890
  4913  037C                     u891:
  4914  037C  2B82               	goto	l1691
  4915  037D                     u890:
  4916  037D                     l1689:
  4917  037D  0826               	movf	pad@p+1,w
  4918  037E  00AB               	movwf	pad@w+1
  4919  037F  0825               	movf	pad@p,w
  4920  0380  00AA               	movwf	pad@w
  4921  0381  2B84               	goto	l1009
  4922  0382                     l1691:
  4923  0382  01AA               	clrf	pad@w
  4924  0383  01AB               	clrf	pad@w+1
  4925  0384                     l1009:
  4926                           
  4927                           ;C:\Program Files\Microchip\xc8\v2.35\pic\sources\c99\common\doprnt.c: 83:     i = 0;
  4928  0384  01A8               	clrf	pad@i
  4929  0385  01A9               	clrf	pad@i+1
  4930                           
  4931                           ;C:\Program Files\Microchip\xc8\v2.35\pic\sources\c99\common\doprnt.c: 84:     while (i 
      +                          < w) {
  4932  0386  2B98               	goto	l1697
  4933  0387                     l1693:
  4934                           
  4935                           ;C:\Program Files\Microchip\xc8\v2.35\pic\sources\c99\common\doprnt.c: 85:         fputc
      +                          (' ', fp);
  4936  0387  3020               	movlw	32
  4937  0388  00F2               	movwf	fputc@c
  4938  0389  3000               	movlw	0
  4939  038A  00F3               	movwf	fputc@c+1
  4940  038B  0020               	movlb	0	; select bank0
  4941  038C  082C               	movf	pad@fp,w
  4942  038D  00A7               	movwf	??_pad
  4943  038E  0827               	movf	??_pad,w
  4944  038F  00F4               	movwf	fputc@fp
  4945  0390  3183  2327  3183   	fcall	_fputc
  4946  0393                     l1695:
  4947                           
  4948                           ;C:\Program Files\Microchip\xc8\v2.35\pic\sources\c99\common\doprnt.c: 86:         ++i;
  4949  0393  3001               	movlw	1
  4950  0394  0020               	movlb	0	; select bank0
  4951  0395  07A8               	addwf	pad@i,f
  4952  0396  3000               	movlw	0
  4953  0397  3DA9               	addwfc	pad@i+1,f
  4954  0398                     l1697:
  4955                           
  4956                           ;C:\Program Files\Microchip\xc8\v2.35\pic\sources\c99\common\doprnt.c: 84:     while (i 
      +                          < w) {
  4957  0398  0829               	movf	pad@i+1,w
  4958  0399  3A80               	xorlw	128
  4959  039A  00A7               	movwf	??_pad
  4960  039B  082B               	movf	pad@w+1,w
  4961  039C  3A80               	xorlw	128
  4962  039D  0227               	subwf	??_pad,w
  4963  039E  1D03               	skipz
  4964  039F  2BA2               	goto	u905
  4965  03A0  082A               	movf	pad@w,w
  4966  03A1  0228               	subwf	pad@i,w
  4967  03A2                     u905:
  4968  03A2  1C03               	skipc
  4969  03A3  2BA5               	goto	u901
  4970  03A4  2BA6               	goto	u900
  4971  03A5                     u901:
  4972  03A5  2B87               	goto	l1693
  4973  03A6                     u900:
  4974  03A6                     l1012:
  4975                           
  4976                           ;C:\Program Files\Microchip\xc8\v2.35\pic\sources\c99\common\doprnt.c: 90:     if (!(fla
      +                          gs & (1 << 0))) {
  4977  03A6  0021               	movlb	1	; select bank1
  4978  03A7  1826               	btfsc	_flags^(0+128),0
  4979  03A8  2BAA               	goto	u911
  4980  03A9  2BAB               	goto	u910
  4981  03AA                     u911:
  4982  03AA  2BB4               	goto	l1013
  4983  03AB                     u910:
  4984  03AB                     l1699:
  4985                           
  4986                           ;C:\Program Files\Microchip\xc8\v2.35\pic\sources\c99\common\doprnt.c: 91:         fputs
      +                          ((const char *)buf, fp);
  4987  03AB  0020               	movlb	0	; select bank0
  4988  03AC  082C               	movf	pad@fp,w
  4989  03AD  00A7               	movwf	??_pad
  4990  03AE  0827               	movf	??_pad,w
  4991  03AF  00FA               	movwf	fputs@fp
  4992  03B0  0824               	movf	pad@buf,w
  4993  03B1  3182  2273  3183   	fcall	_fputs
  4994  03B4                     l1013:	
  4995                           ;C:\Program Files\Microchip\xc8\v2.35\pic\sources\c99\common\doprnt.c: 92:     }
  4996                           
  4997                           
  4998                           ;C:\Program Files\Microchip\xc8\v2.35\pic\sources\c99\common\doprnt.c: 94:     return (i
      +                          nt)(strlen(buf) + (size_t)w);
  4999  03B4  0020               	movlb	0	; select bank0
  5000  03B5  0824               	movf	pad@buf,w
  5001  03B6  3181  21FF  3183   	fcall	_strlen
  5002  03B9  0020               	movlb	0	; select bank0
  5003  03BA  082A               	movf	pad@w,w
  5004  03BB  0770               	addwf	?_strlen,w
  5005  03BC  00A4               	movwf	?_pad
  5006  03BD  082B               	movf	pad@w+1,w
  5007  03BE  3D71               	addwfc	?_strlen+1,w
  5008  03BF  00A5               	movwf	?_pad+1
  5009  03C0                     l1014:
  5010  03C0  0008               	return
  5011  03C1                     __end_of_pad:
  5012                           
  5013                           	psect	text6
  5014  01FF                     __ptext6:	
  5015 ;; *************** function _strlen *****************
  5016 ;; Defined at:
  5017 ;;		line 5 in file "C:\Program Files\Microchip\xc8\v2.35\pic\sources\c99\common\strlen.c"
  5018 ;; Parameters:    Size  Location     Type
  5019 ;;  s               1    wreg     PTR const unsigned char 
  5020 ;;		 -> dbuf(32), 
  5021 ;; Auto vars:     Size  Location     Type
  5022 ;;  s               1    4[COMMON] PTR const unsigned char 
  5023 ;;		 -> dbuf(32), 
  5024 ;;  a               1    3[COMMON] PTR const unsigned char 
  5025 ;;		 -> dbuf(32), 
  5026 ;; Return value:  Size  Location     Type
  5027 ;;                  2    0[COMMON] unsigned int 
  5028 ;; Registers used:
  5029 ;;		wreg, fsr1l, fsr1h, status,2, status,0
  5030 ;; Tracked objects:
  5031 ;;		On entry : 0/0
  5032 ;;		On exit  : 0/0
  5033 ;;		Unchanged: 0/0
  5034 ;; Data sizes:     COMMON   BANK0   BANK1   BANK2   BANK3   BANK4   BANK5   BANK6   BANK7   BANK8   BANK9  BANK10  BANK1
      +1  BANK12
  5035 ;;      Params:         2       0       0       0       0       0       0       0       0       0       0       0       
      +0       0
  5036 ;;      Locals:         2       0       0       0       0       0       0       0       0       0       0       0       
      +0       0
  5037 ;;      Temps:          1       0       0       0       0       0       0       0       0       0       0       0       
      +0       0
  5038 ;;      Totals:         5       0       0       0       0       0       0       0       0       0       0       0       
      +0       0
  5039 ;;Total ram usage:        5 bytes
  5040 ;; Hardware stack levels used: 1
  5041 ;; This function calls:
  5042 ;;		Nothing
  5043 ;; This function is called by:
  5044 ;;		_pad
  5045 ;; This function uses a non-reentrant model
  5046 ;;
  5047                           
  5048  01FF                     _strlen:	
  5049                           ;psect for function _strlen
  5050                           
  5051                           
  5052                           ;incstack = 0
  5053                           ; Regs used in _strlen: [wreg+fsr1l+fsr1h+status,2+status,0]
  5054                           ;strlen@s stored from wreg
  5055  01FF  00F4               	movwf	strlen@s
  5056  0200                     l1605:
  5057  0200  0874               	movf	strlen@s,w
  5058  0201  00F2               	movwf	??_strlen
  5059  0202  0872               	movf	??_strlen,w
  5060  0203  00F3               	movwf	strlen@a
  5061  0204  2A09               	goto	l1609
  5062  0205                     l1607:
  5063  0205  3001               	movlw	1
  5064  0206  00F2               	movwf	??_strlen
  5065  0207  0872               	movf	??_strlen,w
  5066  0208  07F4               	addwf	strlen@s,f
  5067  0209                     l1609:
  5068  0209  0874               	movf	strlen@s,w
  5069  020A  0086               	movwf	6
  5070  020B  0187               	clrf	7
  5071  020C  0801               	movf	1,w
  5072  020D  1D03               	btfss	3,2
  5073  020E  2A10               	goto	u661
  5074  020F  2A11               	goto	u660
  5075  0210                     u661:
  5076  0210  2A05               	goto	l1607
  5077  0211                     u660:
  5078  0211                     l1611:
  5079  0211  0873               	movf	strlen@a,w
  5080  0212  0274               	subwf	strlen@s,w
  5081  0213  00F0               	movwf	?_strlen
  5082  0214  01F1               	clrf	?_strlen+1
  5083  0215  1BF0               	btfsc	?_strlen,7
  5084  0216  03F1               	decf	?_strlen+1,f
  5085  0217                     l1087:
  5086  0217  0008               	return
  5087  0218                     __end_of_strlen:
  5088                           
  5089                           	psect	text7
  5090  0273                     __ptext7:	
  5091 ;; *************** function _fputs *****************
  5092 ;; Defined at:
  5093 ;;		line 8 in file "C:\Program Files\Microchip\xc8\v2.35\pic\sources\c99\common\nf_fputs.c"
  5094 ;; Parameters:    Size  Location     Type
  5095 ;;  s               1    wreg     PTR const unsigned char 
  5096 ;;		 -> dbuf(32), 
  5097 ;;  fp              1   10[COMMON] PTR struct _IO_FILE
  5098 ;;		 -> NULL(0), 
  5099 ;; Auto vars:     Size  Location     Type
  5100 ;;  s               1    3[BANK0 ] PTR const unsigned char 
  5101 ;;		 -> dbuf(32), 
  5102 ;;  i               2    1[BANK0 ] int 
  5103 ;;  c               1    0[BANK0 ] unsigned char 
  5104 ;; Return value:  Size  Location     Type
  5105 ;;                  2   10[COMMON] int 
  5106 ;; Registers used:
  5107 ;;		wreg, fsr1l, fsr1h, status,2, status,0, pclath, cstack
  5108 ;; Tracked objects:
  5109 ;;		On entry : 0/0
  5110 ;;		On exit  : 0/0
  5111 ;;		Unchanged: 0/0
  5112 ;; Data sizes:     COMMON   BANK0   BANK1   BANK2   BANK3   BANK4   BANK5   BANK6   BANK7   BANK8   BANK9  BANK10  BANK1
      +1  BANK12
  5113 ;;      Params:         1       0       0       0       0       0       0       0       0       0       0       0       
      +0       0
  5114 ;;      Locals:         0       4       0       0       0       0       0       0       0       0       0       0       
      +0       0
  5115 ;;      Temps:          3       0       0       0       0       0       0       0       0       0       0       0       
      +0       0
  5116 ;;      Totals:         4       4       0       0       0       0       0       0       0       0       0       0       
      +0       0
  5117 ;;Total ram usage:        8 bytes
  5118 ;; Hardware stack levels used: 1
  5119 ;; Hardware stack levels required when called: 3
  5120 ;; This function calls:
  5121 ;;		_fputc
  5122 ;; This function is called by:
  5123 ;;		_pad
  5124 ;; This function uses a non-reentrant model
  5125 ;;
  5126                           
  5127  0273                     _fputs:	
  5128                           ;psect for function _fputs
  5129                           
  5130                           
  5131                           ;incstack = 0
  5132                           ; Regs used in _fputs: [wreg+fsr1l+fsr1h+status,2+status,0+pclath+cstack]
  5133                           ;fputs@s stored from wreg
  5134  0273  0020               	movlb	0	; select bank0
  5135  0274  00A3               	movwf	fputs@s
  5136  0275                     l1597:
  5137  0275  01A1               	clrf	fputs@i
  5138  0276  01A2               	clrf	fputs@i+1
  5139  0277  2A8B               	goto	l1603
  5140  0278                     l1599:
  5141  0278  0820               	movf	fputs@c,w
  5142  0279  00FB               	movwf	??_fputs
  5143  027A  01FC               	clrf	??_fputs+1
  5144  027B  087B               	movf	??_fputs,w
  5145  027C  00F2               	movwf	fputc@c
  5146  027D  087C               	movf	??_fputs+1,w
  5147  027E  00F3               	movwf	fputc@c+1
  5148  027F  087A               	movf	fputs@fp,w
  5149  0280  00FD               	movwf	??_fputs+2
  5150  0281  087D               	movf	??_fputs+2,w
  5151  0282  00F4               	movwf	fputc@fp
  5152  0283  3183  2327  3182   	fcall	_fputc
  5153  0286                     l1601:
  5154  0286  3001               	movlw	1
  5155  0287  0020               	movlb	0	; select bank0
  5156  0288  07A1               	addwf	fputs@i,f
  5157  0289  3000               	movlw	0
  5158  028A  3DA2               	addwfc	fputs@i+1,f
  5159  028B                     l1603:
  5160  028B  0821               	movf	fputs@i,w
  5161  028C  0723               	addwf	fputs@s,w
  5162  028D  00FB               	movwf	??_fputs
  5163  028E  087B               	movf	??_fputs,w
  5164  028F  0086               	movwf	6
  5165  0290  0187               	clrf	7
  5166  0291  0801               	movf	1,w
  5167  0292  00FC               	movwf	??_fputs+1
  5168  0293  087C               	movf	??_fputs+1,w
  5169  0294  00A0               	movwf	fputs@c
  5170  0295  0820               	movf	fputs@c,w
  5171  0296  1D03               	btfss	3,2
  5172  0297  2A99               	goto	u651
  5173  0298  2A9A               	goto	u650
  5174  0299                     u651:
  5175  0299  2A78               	goto	l1599
  5176  029A                     u650:
  5177  029A                     l1081:
  5178  029A  0008               	return
  5179  029B                     __end_of_fputs:
  5180                           
  5181                           	psect	text8
  5182  0327                     __ptext8:	
  5183 ;; *************** function _fputc *****************
  5184 ;; Defined at:
  5185 ;;		line 8 in file "C:\Program Files\Microchip\xc8\v2.35\pic\sources\c99\common\nf_fputc.c"
  5186 ;; Parameters:    Size  Location     Type
  5187 ;;  c               2    2[COMMON] int 
  5188 ;;  fp              1    4[COMMON] PTR struct _IO_FILE
  5189 ;;		 -> NULL(0), 
  5190 ;; Auto vars:     Size  Location     Type
  5191 ;;		None
  5192 ;; Return value:  Size  Location     Type
  5193 ;;                  2    2[COMMON] int 
  5194 ;; Registers used:
  5195 ;;		wreg, fsr1l, fsr1h, status,2, status,0, pclath, cstack
  5196 ;; Tracked objects:
  5197 ;;		On entry : 0/0
  5198 ;;		On exit  : 0/0
  5199 ;;		Unchanged: 0/0
  5200 ;; Data sizes:     COMMON   BANK0   BANK1   BANK2   BANK3   BANK4   BANK5   BANK6   BANK7   BANK8   BANK9  BANK10  BANK1
      +1  BANK12
  5201 ;;      Params:         3       0       0       0       0       0       0       0       0       0       0       0       
      +0       0
  5202 ;;      Locals:         0       0       0       0       0       0       0       0       0       0       0       0       
      +0       0
  5203 ;;      Temps:          5       0       0       0       0       0       0       0       0       0       0       0       
      +0       0
  5204 ;;      Totals:         8       0       0       0       0       0       0       0       0       0       0       0       
      +0       0
  5205 ;;Total ram usage:        8 bytes
  5206 ;; Hardware stack levels used: 1
  5207 ;; Hardware stack levels required when called: 2
  5208 ;; This function calls:
  5209 ;;		_putch
  5210 ;; This function is called by:
  5211 ;;		_pad
  5212 ;;		_vfpfcnvrt
  5213 ;;		_fputs
  5214 ;; This function uses a non-reentrant model
  5215 ;;
  5216                           
  5217  0327                     _fputc:	
  5218                           ;psect for function _fputc
  5219                           
  5220  0327                     l1583:	
  5221                           ;incstack = 0
  5222                           ; Regs used in _fputc: [wreg+fsr1l+fsr1h+status,2+status,0+pclath+cstack]
  5223                           
  5224  0327  0874               	movf	fputc@fp,w
  5225  0328  1903               	btfsc	3,2
  5226  0329  2B2B               	goto	u611
  5227  032A  2B2C               	goto	u610
  5228  032B                     u611:
  5229  032B  2B31               	goto	l1587
  5230  032C                     u610:
  5231  032C                     l1585:
  5232  032C  0874               	movf	fputc@fp,w
  5233  032D  1D03               	btfss	3,2
  5234  032E  2B30               	goto	u621
  5235  032F  2B31               	goto	u620
  5236  0330                     u621:
  5237  0330  2B36               	goto	l1589
  5238  0331                     u620:
  5239  0331                     l1587:
  5240  0331  0872               	movf	fputc@c,w
  5241  0332  3181  21A4  3183   	fcall	_putch
  5242  0335  2B67               	goto	l1073
  5243  0336                     l1589:
  5244  0336  0874               	movf	fputc@fp,w
  5245  0337  3E08               	addlw	8
  5246  0338  0086               	movwf	6
  5247  0339  0187               	clrf	7
  5248  033A  0016               	moviw fsr1++
  5249  033B  0401               	iorwf	1,w
  5250  033C  1903               	btfsc	3,2
  5251  033D  2B3F               	goto	u631
  5252  033E  2B40               	goto	u630
  5253  033F                     u631:
  5254  033F  2B5E               	goto	l1593
  5255  0340                     u630:
  5256  0340                     l1591:
  5257  0340  0874               	movf	fputc@fp,w
  5258  0341  3E08               	addlw	8
  5259  0342  0086               	movwf	6
  5260  0343  0187               	clrf	7
  5261  0344  3F40               	moviw [0]fsr1
  5262  0345  00F5               	movwf	??_fputc
  5263  0346  3F41               	moviw [1]fsr1
  5264  0347  00F6               	movwf	??_fputc+1
  5265  0348  0874               	movf	fputc@fp,w
  5266  0349  3E02               	addlw	2
  5267  034A  0086               	movwf	6
  5268  034B  0187               	clrf	7
  5269  034C  3F40               	moviw [0]fsr1
  5270  034D  00F7               	movwf	??_fputc+2
  5271  034E  3F41               	moviw [1]fsr1
  5272  034F  00F8               	movwf	??_fputc+3
  5273  0350  0878               	movf	??_fputc+3,w
  5274  0351  3A80               	xorlw	128
  5275  0352  00F9               	movwf	??_fputc+4
  5276  0353  0876               	movf	??_fputc+1,w
  5277  0354  3A80               	xorlw	128
  5278  0355  0279               	subwf	??_fputc+4,w
  5279  0356  1D03               	skipz
  5280  0357  2B5A               	goto	u645
  5281  0358  0875               	movf	??_fputc,w
  5282  0359  0277               	subwf	??_fputc+2,w
  5283  035A                     u645:
  5284  035A  1803               	skipnc
  5285  035B  2B5D               	goto	u641
  5286  035C  2B5E               	goto	u640
  5287  035D                     u641:
  5288  035D  2B67               	goto	l1073
  5289  035E                     u640:
  5290  035E                     l1593:
  5291  035E  0874               	movf	fputc@fp,w
  5292  035F  3E02               	addlw	2
  5293  0360  0086               	movwf	6
  5294  0361  0187               	clrf	7
  5295  0362  3001               	movlw	1
  5296  0363  0781               	addwf	1,f
  5297  0364  3141               	addfsr 1,1
  5298  0365  1803               	skipnc
  5299  0366  0A81               	incf	1,f
  5300  0367                     l1073:
  5301  0367  0008               	return
  5302  0368                     __end_of_fputc:
  5303                           
  5304                           	psect	text9
  5305  01A4                     __ptext9:	
  5306 ;; *************** function _putch *****************
  5307 ;; Defined at:
  5308 ;;		line 146 in file "mcc_generated_files/eusart.c"
  5309 ;; Parameters:    Size  Location     Type
  5310 ;;  txData          1    wreg     unsigned char 
  5311 ;; Auto vars:     Size  Location     Type
  5312 ;;  txData          1    1[COMMON] unsigned char 
  5313 ;; Return value:  Size  Location     Type
  5314 ;;                  1    wreg      void 
  5315 ;; Registers used:
  5316 ;;		wreg, status,2, status,0, pclath, cstack
  5317 ;; Tracked objects:
  5318 ;;		On entry : 0/0
  5319 ;;		On exit  : 0/0
  5320 ;;		Unchanged: 0/0
  5321 ;; Data sizes:     COMMON   BANK0   BANK1   BANK2   BANK3   BANK4   BANK5   BANK6   BANK7   BANK8   BANK9  BANK10  BANK1
      +1  BANK12
  5322 ;;      Params:         0       0       0       0       0       0       0       0       0       0       0       0       
      +0       0
  5323 ;;      Locals:         1       0       0       0       0       0       0       0       0       0       0       0       
      +0       0
  5324 ;;      Temps:          0       0       0       0       0       0       0       0       0       0       0       0       
      +0       0
  5325 ;;      Totals:         1       0       0       0       0       0       0       0       0       0       0       0       
      +0       0
  5326 ;;Total ram usage:        1 bytes
  5327 ;; Hardware stack levels used: 1
  5328 ;; Hardware stack levels required when called: 1
  5329 ;; This function calls:
  5330 ;;		_EUSART_Write
  5331 ;; This function is called by:
  5332 ;;		_fputc
  5333 ;; This function uses a non-reentrant model
  5334 ;;
  5335                           
  5336  01A4                     _putch:	
  5337                           ;psect for function _putch
  5338                           
  5339                           
  5340                           ;incstack = 0
  5341                           ; Regs used in _putch: [wreg+status,2+status,0+pclath+cstack]
  5342                           ;putch@txData stored from wreg
  5343  01A4  00F1               	movwf	putch@txData
  5344  01A5                     l1581:
  5345                           
  5346                           ;mcc_generated_files/eusart.c: 146: void putch(char txData);mcc_generated_files/eusart.c
      +                          : 147: {;mcc_generated_files/eusart.c: 148:     EUSART_Write(txData);
  5347  01A5  0871               	movf	putch@txData,w
  5348  01A6  3181  21C1  3181   	fcall	_EUSART_Write
  5349  01A9                     l329:
  5350  01A9  0008               	return
  5351  01AA                     __end_of_putch:
  5352                           
  5353                           	psect	text10
  5354  01C1                     __ptext10:	
  5355 ;; *************** function _EUSART_Write *****************
  5356 ;; Defined at:
  5357 ;;		line 132 in file "mcc_generated_files/eusart.c"
  5358 ;; Parameters:    Size  Location     Type
  5359 ;;  txData          1    wreg     unsigned char 
  5360 ;; Auto vars:     Size  Location     Type
  5361 ;;  txData          1    0[COMMON] unsigned char 
  5362 ;; Return value:  Size  Location     Type
  5363 ;;                  1    wreg      void 
  5364 ;; Registers used:
  5365 ;;		wreg
  5366 ;; Tracked objects:
  5367 ;;		On entry : 0/0
  5368 ;;		On exit  : 0/0
  5369 ;;		Unchanged: 0/0
  5370 ;; Data sizes:     COMMON   BANK0   BANK1   BANK2   BANK3   BANK4   BANK5   BANK6   BANK7   BANK8   BANK9  BANK10  BANK1
      +1  BANK12
  5371 ;;      Params:         0       0       0       0       0       0       0       0       0       0       0       0       
      +0       0
  5372 ;;      Locals:         1       0       0       0       0       0       0       0       0       0       0       0       
      +0       0
  5373 ;;      Temps:          0       0       0       0       0       0       0       0       0       0       0       0       
      +0       0
  5374 ;;      Totals:         1       0       0       0       0       0       0       0       0       0       0       0       
      +0       0
  5375 ;;Total ram usage:        1 bytes
  5376 ;; Hardware stack levels used: 1
  5377 ;; This function calls:
  5378 ;;		Nothing
  5379 ;; This function is called by:
  5380 ;;		_putch
  5381 ;; This function uses a non-reentrant model
  5382 ;;
  5383                           
  5384  01C1                     _EUSART_Write:	
  5385                           ;psect for function _EUSART_Write
  5386                           
  5387                           
  5388                           ;incstack = 0
  5389                           ; Regs used in _EUSART_Write: [wreg]
  5390                           ;EUSART_Write@txData stored from wreg
  5391  01C1  00F0               	movwf	EUSART_Write@txData
  5392  01C2                     l1577:
  5393  01C2                     l320:	
  5394                           ;mcc_generated_files/eusart.c: 135:     {;mcc_generated_files/eusart.c: 136:     }
  5395                           
  5396                           
  5397                           ;mcc_generated_files/eusart.c: 134:     while(0 == PIR3bits.TXIF)
  5398  01C2  002E               	movlb	14	; select bank14
  5399  01C3  1E0F               	btfss	15,4	;volatile
  5400  01C4  29C6               	goto	u601
  5401  01C5  29C7               	goto	u600
  5402  01C6                     u601:
  5403  01C6  29C2               	goto	l320
  5404  01C7                     u600:
  5405  01C7                     l1579:
  5406                           
  5407                           ;mcc_generated_files/eusart.c: 138:     TX1REG = txData;
  5408  01C7  0870               	movf	EUSART_Write@txData,w
  5409  01C8  0022               	movlb	2	; select bank2
  5410  01C9  009A               	movwf	26	;volatile
  5411  01CA                     l323:
  5412  01CA  0008               	return
  5413  01CB                     __end_of_EUSART_Write:
  5414                           
  5415                           	psect	text11
  5416  0218                     __ptext11:	
  5417 ;; *************** function _abs *****************
  5418 ;; Defined at:
  5419 ;;		line 1 in file "C:\Program Files\Microchip\xc8\v2.35\pic\sources\c99\common\abs.c"
  5420 ;; Parameters:    Size  Location     Type
  5421 ;;  a               2    3[COMMON] int 
  5422 ;; Auto vars:     Size  Location     Type
  5423 ;;		None
  5424 ;; Return value:  Size  Location     Type
  5425 ;;                  2    3[COMMON] int 
  5426 ;; Registers used:
  5427 ;;		wreg, status,2, status,0
  5428 ;; Tracked objects:
  5429 ;;		On entry : 0/0
  5430 ;;		On exit  : 0/0
  5431 ;;		Unchanged: 0/0
  5432 ;; Data sizes:     COMMON   BANK0   BANK1   BANK2   BANK3   BANK4   BANK5   BANK6   BANK7   BANK8   BANK9  BANK10  BANK1
      +1  BANK12
  5433 ;;      Params:         2       0       0       0       0       0       0       0       0       0       0       0       
      +0       0
  5434 ;;      Locals:         0       0       0       0       0       0       0       0       0       0       0       0       
      +0       0
  5435 ;;      Temps:          2       0       0       0       0       0       0       0       0       0       0       0       
      +0       0
  5436 ;;      Totals:         4       0       0       0       0       0       0       0       0       0       0       0       
      +0       0
  5437 ;;Total ram usage:        4 bytes
  5438 ;; Hardware stack levels used: 1
  5439 ;; This function calls:
  5440 ;;		Nothing
  5441 ;; This function is called by:
  5442 ;;		_dtoa
  5443 ;; This function uses a non-reentrant model
  5444 ;;
  5445                           
  5446  0218                     _abs:	
  5447                           ;psect for function _abs
  5448                           
  5449  0218                     l1703:	
  5450                           ;incstack = 0
  5451                           ; Regs used in _abs: [wreg+status,2+status,0]
  5452                           
  5453  0218  0874               	movf	abs@a+1,w
  5454  0219  3A80               	xorlw	128
  5455  021A  00F5               	movwf	??_abs
  5456  021B  3080               	movlw	128
  5457  021C  0275               	subwf	??_abs,w
  5458  021D  1D03               	skipz
  5459  021E  2A21               	goto	u925
  5460  021F  3001               	movlw	1
  5461  0220  0273               	subwf	abs@a,w
  5462  0221                     u925:
  5463  0221  1803               	skipnc
  5464  0222  2A24               	goto	u921
  5465  0223  2A25               	goto	u920
  5466  0224                     u921:
  5467  0224  2A31               	goto	l1058
  5468  0225                     u920:
  5469  0225                     l1705:
  5470  0225  0973               	comf	abs@a,w
  5471  0226  00F5               	movwf	??_abs
  5472  0227  0974               	comf	abs@a+1,w
  5473  0228  00F6               	movwf	??_abs+1
  5474  0229  0AF5               	incf	??_abs,f
  5475  022A  1903               	skipnz
  5476  022B  0AF6               	incf	??_abs+1,f
  5477  022C  0875               	movf	??_abs,w
  5478  022D  00F3               	movwf	?_abs
  5479  022E  0876               	movf	??_abs+1,w
  5480  022F  00F4               	movwf	?_abs+1
  5481  0230  2A31               	goto	l1061
  5482  0231                     l1058:
  5483  0231                     l1061:
  5484  0231  0008               	return
  5485  0232                     __end_of_abs:
  5486                           
  5487                           	psect	text12
  5488  049C                     __ptext12:	
  5489 ;; *************** function ___aomod *****************
  5490 ;; Defined at:
  5491 ;;		line 7 in file "C:\Program Files\Microchip\xc8\v2.35\pic\sources\c99\common\aomod.c"
  5492 ;; Parameters:    Size  Location     Type
  5493 ;;  divisor         8    0[BANK0 ] long long 
  5494 ;;  dividend        8    8[BANK0 ] long long 
  5495 ;; Auto vars:     Size  Location     Type
  5496 ;;  sign            1    2[COMMON] unsigned char 
  5497 ;;  counter         1    1[COMMON] unsigned char 
  5498 ;; Return value:  Size  Location     Type
  5499 ;;                  8    0[BANK0 ] long long 
  5500 ;; Registers used:
  5501 ;;		wreg, fsr1l, fsr1h, status,2, status,0
  5502 ;; Tracked objects:
  5503 ;;		On entry : 0/0
  5504 ;;		On exit  : 0/0
  5505 ;;		Unchanged: 0/0
  5506 ;; Data sizes:     COMMON   BANK0   BANK1   BANK2   BANK3   BANK4   BANK5   BANK6   BANK7   BANK8   BANK9  BANK10  BANK1
      +1  BANK12
  5507 ;;      Params:         0      16       0       0       0       0       0       0       0       0       0       0       
      +0       0
  5508 ;;      Locals:         2       0       0       0       0       0       0       0       0       0       0       0       
      +0       0
  5509 ;;      Temps:          1       0       0       0       0       0       0       0       0       0       0       0       
      +0       0
  5510 ;;      Totals:         3      16       0       0       0       0       0       0       0       0       0       0       
      +0       0
  5511 ;;Total ram usage:       19 bytes
  5512 ;; Hardware stack levels used: 1
  5513 ;; This function calls:
  5514 ;;		Nothing
  5515 ;; This function is called by:
  5516 ;;		_dtoa
  5517 ;; This function uses a non-reentrant model
  5518 ;;
  5519                           
  5520  049C                     ___aomod:	
  5521                           ;psect for function ___aomod
  5522                           
  5523  049C                     l1653:	
  5524                           ;incstack = 0
  5525                           ; Regs used in ___aomod: [wreg+fsr1l+fsr1h+status,2+status,0]
  5526                           
  5527  049C  01F2               	clrf	___aomod@sign
  5528  049D                     l1655:
  5529  049D  3028               	movlw	low ___aomod@dividend
  5530  049E  0086               	movwf	6
  5531  049F  3000               	movlw	high ___aomod@dividend
  5532  04A0  0087               	movwf	7
  5533  04A1  3F47               	moviw [7]fsr1
  5534  04A2  00F0               	movwf	??___aomod
  5535  04A3  1FF0               	btfss	??___aomod,7
  5536  04A4  2CA6               	goto	u781
  5537  04A5  2CA7               	goto	u780
  5538  04A6                     u781:
  5539  04A6  2CC8               	goto	l1659
  5540  04A7                     u780:
  5541  04A7                     l1657:
  5542  04A7  0020               	movlb	0	; select bank0
  5543  04A8  09A8               	comf	___aomod@dividend,f
  5544  04A9  09A9               	comf	___aomod@dividend+1,f
  5545  04AA  09AA               	comf	___aomod@dividend+2,f
  5546  04AB  09AB               	comf	___aomod@dividend+3,f
  5547  04AC  09AC               	comf	___aomod@dividend+4,f
  5548  04AD  09AD               	comf	___aomod@dividend+5,f
  5549  04AE  09AE               	comf	___aomod@dividend+6,f
  5550  04AF  09AF               	comf	___aomod@dividend+7,f
  5551  04B0  0AA8               	incf	___aomod@dividend,f
  5552  04B1  1D03               	skipz
  5553  04B2  2CC6               	goto	u79lld
  5554  04B3  0AA9               	incf	___aomod@dividend+1,f
  5555  04B4  1D03               	skipz
  5556  04B5  2CC6               	goto	u79lld
  5557  04B6  0AAA               	incf	___aomod@dividend+2,f
  5558  04B7  1D03               	skipz
  5559  04B8  2CC6               	goto	u79lld
  5560  04B9  0AAB               	incf	___aomod@dividend+3,f
  5561  04BA  1D03               	skipz
  5562  04BB  2CC6               	goto	u79lld
  5563  04BC  0AAC               	incf	___aomod@dividend+4,f
  5564  04BD  1D03               	skipz
  5565  04BE  2CC6               	goto	u79lld
  5566  04BF  0AAD               	incf	___aomod@dividend+5,f
  5567  04C0  1D03               	skipz
  5568  04C1  2CC6               	goto	u79lld
  5569  04C2  0AAE               	incf	___aomod@dividend+6,f
  5570  04C3  1D03               	skipz
  5571  04C4  2CC6               	goto	u79lld
  5572  04C5  0AAF               	incf	___aomod@dividend+7,f
  5573  04C6                     u79lld:
  5574  04C6  01F2               	clrf	___aomod@sign
  5575  04C7  0AF2               	incf	___aomod@sign,f
  5576  04C8                     l1659:
  5577  04C8  3020               	movlw	low ___aomod@divisor
  5578  04C9  0086               	movwf	6
  5579  04CA  3000               	movlw	high ___aomod@divisor
  5580  04CB  0087               	movwf	7
  5581  04CC  3F47               	moviw [7]fsr1
  5582  04CD  00F0               	movwf	??___aomod
  5583  04CE  1FF0               	btfss	??___aomod,7
  5584  04CF  2CD1               	goto	u801
  5585  04D0  2CD2               	goto	u800
  5586  04D1                     u801:
  5587  04D1  2CF1               	goto	l1663
  5588  04D2                     u800:
  5589  04D2                     l1661:
  5590  04D2  0020               	movlb	0	; select bank0
  5591  04D3  09A0               	comf	___aomod@divisor,f
  5592  04D4  09A1               	comf	___aomod@divisor+1,f
  5593  04D5  09A2               	comf	___aomod@divisor+2,f
  5594  04D6  09A3               	comf	___aomod@divisor+3,f
  5595  04D7  09A4               	comf	___aomod@divisor+4,f
  5596  04D8  09A5               	comf	___aomod@divisor+5,f
  5597  04D9  09A6               	comf	___aomod@divisor+6,f
  5598  04DA  09A7               	comf	___aomod@divisor+7,f
  5599  04DB  0AA0               	incf	___aomod@divisor,f
  5600  04DC  1D03               	skipz
  5601  04DD  2CF1               	goto	u81lld
  5602  04DE  0AA1               	incf	___aomod@divisor+1,f
  5603  04DF  1D03               	skipz
  5604  04E0  2CF1               	goto	u81lld
  5605  04E1  0AA2               	incf	___aomod@divisor+2,f
  5606  04E2  1D03               	skipz
  5607  04E3  2CF1               	goto	u81lld
  5608  04E4  0AA3               	incf	___aomod@divisor+3,f
  5609  04E5  1D03               	skipz
  5610  04E6  2CF1               	goto	u81lld
  5611  04E7  0AA4               	incf	___aomod@divisor+4,f
  5612  04E8  1D03               	skipz
  5613  04E9  2CF1               	goto	u81lld
  5614  04EA  0AA5               	incf	___aomod@divisor+5,f
  5615  04EB  1D03               	skipz
  5616  04EC  2CF1               	goto	u81lld
  5617  04ED  0AA6               	incf	___aomod@divisor+6,f
  5618  04EE  1D03               	skipz
  5619  04EF  2CF1               	goto	u81lld
  5620  04F0  0AA7               	incf	___aomod@divisor+7,f
  5621  04F1                     u81lld:
  5622  04F1                     l1663:
  5623  04F1  0020               	movlb	0	; select bank0
  5624  04F2  0820               	movf	___aomod@divisor,w
  5625  04F3  0421               	iorwf	___aomod@divisor+1,w
  5626  04F4  0422               	iorwf	___aomod@divisor+2,w
  5627  04F5  0423               	iorwf	___aomod@divisor+3,w
  5628  04F6  0424               	iorwf	___aomod@divisor+4,w
  5629  04F7  0425               	iorwf	___aomod@divisor+5,w
  5630  04F8  0426               	iorwf	___aomod@divisor+6,w
  5631  04F9  0427               	iorwf	___aomod@divisor+7,w
  5632  04FA  1903               	skipnz
  5633  04FB  2CFD               	goto	u821
  5634  04FC  2CFE               	goto	u820
  5635  04FD                     u821:
  5636  04FD  2D51               	goto	l1679
  5637  04FE                     u820:
  5638  04FE                     l1665:
  5639  04FE  01F1               	clrf	___aomod@counter
  5640  04FF  0AF1               	incf	___aomod@counter,f
  5641  0500  2D0D               	goto	l1671
  5642  0501                     l1667:
  5643  0501  35A0               	lslf	___aomod@divisor,f
  5644  0502  0DA1               	rlf	___aomod@divisor+1,f
  5645  0503  0DA2               	rlf	___aomod@divisor+2,f
  5646  0504  0DA3               	rlf	___aomod@divisor+3,f
  5647  0505  0DA4               	rlf	___aomod@divisor+4,f
  5648  0506  0DA5               	rlf	___aomod@divisor+5,f
  5649  0507  0DA6               	rlf	___aomod@divisor+6,f
  5650  0508  0DA7               	rlf	___aomod@divisor+7,f
  5651  0509                     l1669:
  5652  0509  3001               	movlw	1
  5653  050A  00F0               	movwf	??___aomod
  5654  050B  0870               	movf	??___aomod,w
  5655  050C  07F1               	addwf	___aomod@counter,f
  5656  050D                     l1671:
  5657  050D  1FA7               	btfss	___aomod@divisor+7,7
  5658  050E  2D10               	goto	u831
  5659  050F  2D11               	goto	u830
  5660  0510                     u831:
  5661  0510  2D01               	goto	l1667
  5662  0511                     u830:
  5663  0511                     l1673:
  5664  0511  0827               	movf	___aomod@divisor+7,w
  5665  0512  022F               	subwf	___aomod@dividend+7,w
  5666  0513  1D03               	skipz
  5667  0514  2D2F               	goto	u845
  5668  0515  0826               	movf	___aomod@divisor+6,w
  5669  0516  022E               	subwf	___aomod@dividend+6,w
  5670  0517  1D03               	skipz
  5671  0518  2D2F               	goto	u845
  5672  0519  0825               	movf	___aomod@divisor+5,w
  5673  051A  022D               	subwf	___aomod@dividend+5,w
  5674  051B  1D03               	skipz
  5675  051C  2D2F               	goto	u845
  5676  051D  0824               	movf	___aomod@divisor+4,w
  5677  051E  022C               	subwf	___aomod@dividend+4,w
  5678  051F  1D03               	skipz
  5679  0520  2D2F               	goto	u845
  5680  0521  0823               	movf	___aomod@divisor+3,w
  5681  0522  022B               	subwf	___aomod@dividend+3,w
  5682  0523  1D03               	skipz
  5683  0524  2D2F               	goto	u845
  5684  0525  0822               	movf	___aomod@divisor+2,w
  5685  0526  022A               	subwf	___aomod@dividend+2,w
  5686  0527  1D03               	skipz
  5687  0528  2D2F               	goto	u845
  5688  0529  0821               	movf	___aomod@divisor+1,w
  5689  052A  0229               	subwf	___aomod@dividend+1,w
  5690  052B  1D03               	skipz
  5691  052C  2D2F               	goto	u845
  5692  052D  0820               	movf	___aomod@divisor,w
  5693  052E  0228               	subwf	___aomod@dividend,w
  5694  052F                     u845:
  5695  052F  1C03               	skipc
  5696  0530  2D32               	goto	u841
  5697  0531  2D33               	goto	u840
  5698  0532                     u841:
  5699  0532  2D43               	goto	l1677
  5700  0533                     u840:
  5701  0533                     l1675:
  5702  0533  0820               	movf	___aomod@divisor,w
  5703  0534  02A8               	subwf	___aomod@dividend,f
  5704  0535  0821               	movf	___aomod@divisor+1,w
  5705  0536  3BA9               	subwfb	___aomod@dividend+1,f
  5706  0537  0822               	movf	___aomod@divisor+2,w
  5707  0538  3BAA               	subwfb	___aomod@dividend+2,f
  5708  0539  0823               	movf	___aomod@divisor+3,w
  5709  053A  3BAB               	subwfb	___aomod@dividend+3,f
  5710  053B  0824               	movf	___aomod@divisor+4,w
  5711  053C  3BAC               	subwfb	___aomod@dividend+4,f
  5712  053D  0825               	movf	___aomod@divisor+5,w
  5713  053E  3BAD               	subwfb	___aomod@dividend+5,f
  5714  053F  0826               	movf	___aomod@divisor+6,w
  5715  0540  3BAE               	subwfb	___aomod@dividend+6,f
  5716  0541  0827               	movf	___aomod@divisor+7,w
  5717  0542  3BAF               	subwfb	___aomod@dividend+7,f
  5718  0543                     l1677:
  5719  0543  36A7               	lsrf	___aomod@divisor+7,f
  5720  0544  0CA6               	rrf	___aomod@divisor+6,f
  5721  0545  0CA5               	rrf	___aomod@divisor+5,f
  5722  0546  0CA4               	rrf	___aomod@divisor+4,f
  5723  0547  0CA3               	rrf	___aomod@divisor+3,f
  5724  0548  0CA2               	rrf	___aomod@divisor+2,f
  5725  0549  0CA1               	rrf	___aomod@divisor+1,f
  5726  054A  0CA0               	rrf	___aomod@divisor,f
  5727  054B  3001               	movlw	1
  5728  054C  02F1               	subwf	___aomod@counter,f
  5729  054D  1D03               	btfss	3,2
  5730  054E  2D50               	goto	u851
  5731  054F  2D51               	goto	u850
  5732  0550                     u851:
  5733  0550  2D11               	goto	l1673
  5734  0551                     u850:
  5735  0551                     l1679:
  5736  0551  0872               	movf	___aomod@sign,w
  5737  0552  1903               	btfsc	3,2
  5738  0553  2D55               	goto	u861
  5739  0554  2D56               	goto	u860
  5740  0555                     u861:
  5741  0555  2D74               	goto	l632
  5742  0556                     u860:
  5743  0556                     l1681:
  5744  0556  09A8               	comf	___aomod@dividend,f
  5745  0557  09A9               	comf	___aomod@dividend+1,f
  5746  0558  09AA               	comf	___aomod@dividend+2,f
  5747  0559  09AB               	comf	___aomod@dividend+3,f
  5748  055A  09AC               	comf	___aomod@dividend+4,f
  5749  055B  09AD               	comf	___aomod@dividend+5,f
  5750  055C  09AE               	comf	___aomod@dividend+6,f
  5751  055D  09AF               	comf	___aomod@dividend+7,f
  5752  055E  0AA8               	incf	___aomod@dividend,f
  5753  055F  1D03               	skipz
  5754  0560  2D74               	goto	u87lld
  5755  0561  0AA9               	incf	___aomod@dividend+1,f
  5756  0562  1D03               	skipz
  5757  0563  2D74               	goto	u87lld
  5758  0564  0AAA               	incf	___aomod@dividend+2,f
  5759  0565  1D03               	skipz
  5760  0566  2D74               	goto	u87lld
  5761  0567  0AAB               	incf	___aomod@dividend+3,f
  5762  0568  1D03               	skipz
  5763  0569  2D74               	goto	u87lld
  5764  056A  0AAC               	incf	___aomod@dividend+4,f
  5765  056B  1D03               	skipz
  5766  056C  2D74               	goto	u87lld
  5767  056D  0AAD               	incf	___aomod@dividend+5,f
  5768  056E  1D03               	skipz
  5769  056F  2D74               	goto	u87lld
  5770  0570  0AAE               	incf	___aomod@dividend+6,f
  5771  0571  1D03               	skipz
  5772  0572  2D74               	goto	u87lld
  5773  0573  0AAF               	incf	___aomod@dividend+7,f
  5774  0574                     u87lld:
  5775  0574                     l632:
  5776  0574  0020               	movlb	0	; select bank0
  5777  0575  0828               	movf	___aomod@dividend,w
  5778  0576  00A0               	movwf	?___aomod
  5779  0577  0829               	movf	___aomod@dividend+1,w
  5780  0578  00A1               	movwf	?___aomod+1
  5781  0579  082A               	movf	___aomod@dividend+2,w
  5782  057A  00A2               	movwf	?___aomod+2
  5783  057B  082B               	movf	___aomod@dividend+3,w
  5784  057C  00A3               	movwf	?___aomod+3
  5785  057D  082C               	movf	___aomod@dividend+4,w
  5786  057E  00A4               	movwf	?___aomod+4
  5787  057F  082D               	movf	___aomod@dividend+5,w
  5788  0580  00A5               	movwf	?___aomod+5
  5789  0581  082E               	movf	___aomod@dividend+6,w
  5790  0582  00A6               	movwf	?___aomod+6
  5791  0583  082F               	movf	___aomod@dividend+7,w
  5792  0584  00A7               	movwf	?___aomod+7
  5793  0585                     l633:
  5794  0585  0008               	return
  5795  0586                     __end_of___aomod:
  5796                           
  5797                           	psect	text13
  5798  0586                     __ptext13:	
  5799 ;; *************** function ___aodiv *****************
  5800 ;; Defined at:
  5801 ;;		line 7 in file "C:\Program Files\Microchip\xc8\v2.35\pic\sources\c99\common\aodiv.c"
  5802 ;; Parameters:    Size  Location     Type
  5803 ;;  divisor         8    0[BANK0 ] long long 
  5804 ;;  dividend        8    8[BANK0 ] long long 
  5805 ;; Auto vars:     Size  Location     Type
  5806 ;;  quotient        8    3[COMMON] long long 
  5807 ;;  sign            1    2[COMMON] unsigned char 
  5808 ;;  counter         1    1[COMMON] unsigned char 
  5809 ;; Return value:  Size  Location     Type
  5810 ;;                  8    0[BANK0 ] long long 
  5811 ;; Registers used:
  5812 ;;		wreg, fsr1l, fsr1h, status,2, status,0
  5813 ;; Tracked objects:
  5814 ;;		On entry : 0/0
  5815 ;;		On exit  : 0/0
  5816 ;;		Unchanged: 0/0
  5817 ;; Data sizes:     COMMON   BANK0   BANK1   BANK2   BANK3   BANK4   BANK5   BANK6   BANK7   BANK8   BANK9  BANK10  BANK1
      +1  BANK12
  5818 ;;      Params:         0      16       0       0       0       0       0       0       0       0       0       0       
      +0       0
  5819 ;;      Locals:        10       0       0       0       0       0       0       0       0       0       0       0       
      +0       0
  5820 ;;      Temps:          1       0       0       0       0       0       0       0       0       0       0       0       
      +0       0
  5821 ;;      Totals:        11      16       0       0       0       0       0       0       0       0       0       0       
      +0       0
  5822 ;;Total ram usage:       27 bytes
  5823 ;; Hardware stack levels used: 1
  5824 ;; This function calls:
  5825 ;;		Nothing
  5826 ;; This function is called by:
  5827 ;;		_dtoa
  5828 ;; This function uses a non-reentrant model
  5829 ;;
  5830                           
  5831  0586                     ___aodiv:	
  5832                           ;psect for function ___aodiv
  5833                           
  5834  0586                     l1615:	
  5835                           ;incstack = 0
  5836                           ; Regs used in ___aodiv: [wreg+fsr1l+fsr1h+status,2+status,0]
  5837                           
  5838  0586  01F2               	clrf	___aodiv@sign
  5839  0587                     l1617:
  5840  0587  3020               	movlw	low ___aodiv@divisor
  5841  0588  0086               	movwf	6
  5842  0589  3000               	movlw	high ___aodiv@divisor
  5843  058A  0087               	movwf	7
  5844  058B  3F47               	moviw [7]fsr1
  5845  058C  00F0               	movwf	??___aodiv
  5846  058D  1FF0               	btfss	??___aodiv,7
  5847  058E  2D90               	goto	u671
  5848  058F  2D91               	goto	u670
  5849  0590                     u671:
  5850  0590  2DB2               	goto	l1621
  5851  0591                     u670:
  5852  0591                     l1619:
  5853  0591  0020               	movlb	0	; select bank0
  5854  0592  09A0               	comf	___aodiv@divisor,f
  5855  0593  09A1               	comf	___aodiv@divisor+1,f
  5856  0594  09A2               	comf	___aodiv@divisor+2,f
  5857  0595  09A3               	comf	___aodiv@divisor+3,f
  5858  0596  09A4               	comf	___aodiv@divisor+4,f
  5859  0597  09A5               	comf	___aodiv@divisor+5,f
  5860  0598  09A6               	comf	___aodiv@divisor+6,f
  5861  0599  09A7               	comf	___aodiv@divisor+7,f
  5862  059A  0AA0               	incf	___aodiv@divisor,f
  5863  059B  1D03               	skipz
  5864  059C  2DB0               	goto	u68lld
  5865  059D  0AA1               	incf	___aodiv@divisor+1,f
  5866  059E  1D03               	skipz
  5867  059F  2DB0               	goto	u68lld
  5868  05A0  0AA2               	incf	___aodiv@divisor+2,f
  5869  05A1  1D03               	skipz
  5870  05A2  2DB0               	goto	u68lld
  5871  05A3  0AA3               	incf	___aodiv@divisor+3,f
  5872  05A4  1D03               	skipz
  5873  05A5  2DB0               	goto	u68lld
  5874  05A6  0AA4               	incf	___aodiv@divisor+4,f
  5875  05A7  1D03               	skipz
  5876  05A8  2DB0               	goto	u68lld
  5877  05A9  0AA5               	incf	___aodiv@divisor+5,f
  5878  05AA  1D03               	skipz
  5879  05AB  2DB0               	goto	u68lld
  5880  05AC  0AA6               	incf	___aodiv@divisor+6,f
  5881  05AD  1D03               	skipz
  5882  05AE  2DB0               	goto	u68lld
  5883  05AF  0AA7               	incf	___aodiv@divisor+7,f
  5884  05B0                     u68lld:
  5885  05B0  01F2               	clrf	___aodiv@sign
  5886  05B1  0AF2               	incf	___aodiv@sign,f
  5887  05B2                     l1621:
  5888  05B2  3028               	movlw	low ___aodiv@dividend
  5889  05B3  0086               	movwf	6
  5890  05B4  3000               	movlw	high ___aodiv@dividend
  5891  05B5  0087               	movwf	7
  5892  05B6  3F47               	moviw [7]fsr1
  5893  05B7  00F0               	movwf	??___aodiv
  5894  05B8  1FF0               	btfss	??___aodiv,7
  5895  05B9  2DBB               	goto	u691
  5896  05BA  2DBC               	goto	u690
  5897  05BB                     u691:
  5898  05BB  2DDF               	goto	l1627
  5899  05BC                     u690:
  5900  05BC                     l1623:
  5901  05BC  0020               	movlb	0	; select bank0
  5902  05BD  09A8               	comf	___aodiv@dividend,f
  5903  05BE  09A9               	comf	___aodiv@dividend+1,f
  5904  05BF  09AA               	comf	___aodiv@dividend+2,f
  5905  05C0  09AB               	comf	___aodiv@dividend+3,f
  5906  05C1  09AC               	comf	___aodiv@dividend+4,f
  5907  05C2  09AD               	comf	___aodiv@dividend+5,f
  5908  05C3  09AE               	comf	___aodiv@dividend+6,f
  5909  05C4  09AF               	comf	___aodiv@dividend+7,f
  5910  05C5  0AA8               	incf	___aodiv@dividend,f
  5911  05C6  1D03               	skipz
  5912  05C7  2DDB               	goto	u70lld
  5913  05C8  0AA9               	incf	___aodiv@dividend+1,f
  5914  05C9  1D03               	skipz
  5915  05CA  2DDB               	goto	u70lld
  5916  05CB  0AAA               	incf	___aodiv@dividend+2,f
  5917  05CC  1D03               	skipz
  5918  05CD  2DDB               	goto	u70lld
  5919  05CE  0AAB               	incf	___aodiv@dividend+3,f
  5920  05CF  1D03               	skipz
  5921  05D0  2DDB               	goto	u70lld
  5922  05D1  0AAC               	incf	___aodiv@dividend+4,f
  5923  05D2  1D03               	skipz
  5924  05D3  2DDB               	goto	u70lld
  5925  05D4  0AAD               	incf	___aodiv@dividend+5,f
  5926  05D5  1D03               	skipz
  5927  05D6  2DDB               	goto	u70lld
  5928  05D7  0AAE               	incf	___aodiv@dividend+6,f
  5929  05D8  1D03               	skipz
  5930  05D9  2DDB               	goto	u70lld
  5931  05DA  0AAF               	incf	___aodiv@dividend+7,f
  5932  05DB                     u70lld:
  5933  05DB                     l1625:
  5934  05DB  3001               	movlw	1
  5935  05DC  00F0               	movwf	??___aodiv
  5936  05DD  0870               	movf	??___aodiv,w
  5937  05DE  06F2               	xorwf	___aodiv@sign,f
  5938  05DF                     l1627:
  5939  05DF  3073               	movlw	low ___aodiv@quotient
  5940  05E0  0086               	movwf	6
  5941  05E1  3000               	movlw	high ___aodiv@quotient
  5942  05E2  0087               	movwf	7
  5943  05E3  3008               	movlw	8
  5944  05E4  00F0               	movwf	??___aodiv
  5945  05E5  3000               	movlw	0
  5946  05E6                     u710:
  5947  05E6  001E               	movwi fsr1++
  5948  05E7  0BF0               	decfsz	??___aodiv,f
  5949  05E8  2DE6               	goto	u710
  5950  05E9                     l1629:
  5951  05E9  0020               	movlb	0	; select bank0
  5952  05EA  0820               	movf	___aodiv@divisor,w
  5953  05EB  0421               	iorwf	___aodiv@divisor+1,w
  5954  05EC  0422               	iorwf	___aodiv@divisor+2,w
  5955  05ED  0423               	iorwf	___aodiv@divisor+3,w
  5956  05EE  0424               	iorwf	___aodiv@divisor+4,w
  5957  05EF  0425               	iorwf	___aodiv@divisor+5,w
  5958  05F0  0426               	iorwf	___aodiv@divisor+6,w
  5959  05F1  0427               	iorwf	___aodiv@divisor+7,w
  5960  05F2  1903               	skipnz
  5961  05F3  2DF5               	goto	u721
  5962  05F4  2DF6               	goto	u720
  5963  05F5                     u721:
  5964  05F5  2E52               	goto	l1649
  5965  05F6                     u720:
  5966  05F6                     l1631:
  5967  05F6  01F1               	clrf	___aodiv@counter
  5968  05F7  0AF1               	incf	___aodiv@counter,f
  5969  05F8  2E05               	goto	l1637
  5970  05F9                     l1633:
  5971  05F9  35A0               	lslf	___aodiv@divisor,f
  5972  05FA  0DA1               	rlf	___aodiv@divisor+1,f
  5973  05FB  0DA2               	rlf	___aodiv@divisor+2,f
  5974  05FC  0DA3               	rlf	___aodiv@divisor+3,f
  5975  05FD  0DA4               	rlf	___aodiv@divisor+4,f
  5976  05FE  0DA5               	rlf	___aodiv@divisor+5,f
  5977  05FF  0DA6               	rlf	___aodiv@divisor+6,f
  5978  0600  0DA7               	rlf	___aodiv@divisor+7,f
  5979  0601                     l1635:
  5980  0601  3001               	movlw	1
  5981  0602  00F0               	movwf	??___aodiv
  5982  0603  0870               	movf	??___aodiv,w
  5983  0604  07F1               	addwf	___aodiv@counter,f
  5984  0605                     l1637:
  5985  0605  1FA7               	btfss	___aodiv@divisor+7,7
  5986  0606  2E08               	goto	u731
  5987  0607  2E09               	goto	u730
  5988  0608                     u731:
  5989  0608  2DF9               	goto	l1633
  5990  0609                     u730:
  5991  0609                     l1639:
  5992  0609  35F3               	lslf	___aodiv@quotient,f
  5993  060A  0DF4               	rlf	___aodiv@quotient+1,f
  5994  060B  0DF5               	rlf	___aodiv@quotient+2,f
  5995  060C  0DF6               	rlf	___aodiv@quotient+3,f
  5996  060D  0DF7               	rlf	___aodiv@quotient+4,f
  5997  060E  0DF8               	rlf	___aodiv@quotient+5,f
  5998  060F  0DF9               	rlf	___aodiv@quotient+6,f
  5999  0610  0DFA               	rlf	___aodiv@quotient+7,f
  6000  0611                     l1641:
  6001  0611  0827               	movf	___aodiv@divisor+7,w
  6002  0612  022F               	subwf	___aodiv@dividend+7,w
  6003  0613  1D03               	skipz
  6004  0614  2E2F               	goto	u745
  6005  0615  0826               	movf	___aodiv@divisor+6,w
  6006  0616  022E               	subwf	___aodiv@dividend+6,w
  6007  0617  1D03               	skipz
  6008  0618  2E2F               	goto	u745
  6009  0619  0825               	movf	___aodiv@divisor+5,w
  6010  061A  022D               	subwf	___aodiv@dividend+5,w
  6011  061B  1D03               	skipz
  6012  061C  2E2F               	goto	u745
  6013  061D  0824               	movf	___aodiv@divisor+4,w
  6014  061E  022C               	subwf	___aodiv@dividend+4,w
  6015  061F  1D03               	skipz
  6016  0620  2E2F               	goto	u745
  6017  0621  0823               	movf	___aodiv@divisor+3,w
  6018  0622  022B               	subwf	___aodiv@dividend+3,w
  6019  0623  1D03               	skipz
  6020  0624  2E2F               	goto	u745
  6021  0625  0822               	movf	___aodiv@divisor+2,w
  6022  0626  022A               	subwf	___aodiv@dividend+2,w
  6023  0627  1D03               	skipz
  6024  0628  2E2F               	goto	u745
  6025  0629  0821               	movf	___aodiv@divisor+1,w
  6026  062A  0229               	subwf	___aodiv@dividend+1,w
  6027  062B  1D03               	skipz
  6028  062C  2E2F               	goto	u745
  6029  062D  0820               	movf	___aodiv@divisor,w
  6030  062E  0228               	subwf	___aodiv@dividend,w
  6031  062F                     u745:
  6032  062F  1C03               	skipc
  6033  0630  2E32               	goto	u741
  6034  0631  2E33               	goto	u740
  6035  0632                     u741:
  6036  0632  2E44               	goto	l1647
  6037  0633                     u740:
  6038  0633                     l1643:
  6039  0633  0820               	movf	___aodiv@divisor,w
  6040  0634  02A8               	subwf	___aodiv@dividend,f
  6041  0635  0821               	movf	___aodiv@divisor+1,w
  6042  0636  3BA9               	subwfb	___aodiv@dividend+1,f
  6043  0637  0822               	movf	___aodiv@divisor+2,w
  6044  0638  3BAA               	subwfb	___aodiv@dividend+2,f
  6045  0639  0823               	movf	___aodiv@divisor+3,w
  6046  063A  3BAB               	subwfb	___aodiv@dividend+3,f
  6047  063B  0824               	movf	___aodiv@divisor+4,w
  6048  063C  3BAC               	subwfb	___aodiv@dividend+4,f
  6049  063D  0825               	movf	___aodiv@divisor+5,w
  6050  063E  3BAD               	subwfb	___aodiv@dividend+5,f
  6051  063F  0826               	movf	___aodiv@divisor+6,w
  6052  0640  3BAE               	subwfb	___aodiv@dividend+6,f
  6053  0641  0827               	movf	___aodiv@divisor+7,w
  6054  0642  3BAF               	subwfb	___aodiv@dividend+7,f
  6055  0643                     l1645:
  6056  0643  1473               	bsf	___aodiv@quotient,0
  6057  0644                     l1647:
  6058  0644  36A7               	lsrf	___aodiv@divisor+7,f
  6059  0645  0CA6               	rrf	___aodiv@divisor+6,f
  6060  0646  0CA5               	rrf	___aodiv@divisor+5,f
  6061  0647  0CA4               	rrf	___aodiv@divisor+4,f
  6062  0648  0CA3               	rrf	___aodiv@divisor+3,f
  6063  0649  0CA2               	rrf	___aodiv@divisor+2,f
  6064  064A  0CA1               	rrf	___aodiv@divisor+1,f
  6065  064B  0CA0               	rrf	___aodiv@divisor,f
  6066  064C  3001               	movlw	1
  6067  064D  02F1               	subwf	___aodiv@counter,f
  6068  064E  1D03               	btfss	3,2
  6069  064F  2E51               	goto	u751
  6070  0650  2E52               	goto	u750
  6071  0651                     u751:
  6072  0651  2E09               	goto	l1639
  6073  0652                     u750:
  6074  0652                     l1649:
  6075  0652  0872               	movf	___aodiv@sign,w
  6076  0653  1903               	btfsc	3,2
  6077  0654  2E56               	goto	u761
  6078  0655  2E57               	goto	u760
  6079  0656                     u761:
  6080  0656  2E75               	goto	l619
  6081  0657                     u760:
  6082  0657                     l1651:
  6083  0657  09F3               	comf	___aodiv@quotient,f
  6084  0658  09F4               	comf	___aodiv@quotient+1,f
  6085  0659  09F5               	comf	___aodiv@quotient+2,f
  6086  065A  09F6               	comf	___aodiv@quotient+3,f
  6087  065B  09F7               	comf	___aodiv@quotient+4,f
  6088  065C  09F8               	comf	___aodiv@quotient+5,f
  6089  065D  09F9               	comf	___aodiv@quotient+6,f
  6090  065E  09FA               	comf	___aodiv@quotient+7,f
  6091  065F  0AF3               	incf	___aodiv@quotient,f
  6092  0660  1D03               	skipz
  6093  0661  2E75               	goto	u77lld
  6094  0662  0AF4               	incf	___aodiv@quotient+1,f
  6095  0663  1D03               	skipz
  6096  0664  2E75               	goto	u77lld
  6097  0665  0AF5               	incf	___aodiv@quotient+2,f
  6098  0666  1D03               	skipz
  6099  0667  2E75               	goto	u77lld
  6100  0668  0AF6               	incf	___aodiv@quotient+3,f
  6101  0669  1D03               	skipz
  6102  066A  2E75               	goto	u77lld
  6103  066B  0AF7               	incf	___aodiv@quotient+4,f
  6104  066C  1D03               	skipz
  6105  066D  2E75               	goto	u77lld
  6106  066E  0AF8               	incf	___aodiv@quotient+5,f
  6107  066F  1D03               	skipz
  6108  0670  2E75               	goto	u77lld
  6109  0671  0AF9               	incf	___aodiv@quotient+6,f
  6110  0672  1D03               	skipz
  6111  0673  2E75               	goto	u77lld
  6112  0674  0AFA               	incf	___aodiv@quotient+7,f
  6113  0675                     u77lld:
  6114  0675                     l619:
  6115  0675  0873               	movf	___aodiv@quotient,w
  6116  0676  0020               	movlb	0	; select bank0
  6117  0677  00A0               	movwf	?___aodiv
  6118  0678  0874               	movf	___aodiv@quotient+1,w
  6119  0679  00A1               	movwf	?___aodiv+1
  6120  067A  0875               	movf	___aodiv@quotient+2,w
  6121  067B  00A2               	movwf	?___aodiv+2
  6122  067C  0876               	movf	___aodiv@quotient+3,w
  6123  067D  00A3               	movwf	?___aodiv+3
  6124  067E  0877               	movf	___aodiv@quotient+4,w
  6125  067F  00A4               	movwf	?___aodiv+4
  6126  0680  0878               	movf	___aodiv@quotient+5,w
  6127  0681  00A5               	movwf	?___aodiv+5
  6128  0682  0879               	movf	___aodiv@quotient+6,w
  6129  0683  00A6               	movwf	?___aodiv+6
  6130  0684  087A               	movf	___aodiv@quotient+7,w
  6131  0685  00A7               	movwf	?___aodiv+7
  6132  0686                     l620:
  6133  0686  0008               	return
  6134  0687                     __end_of___aodiv:
  6135                           
  6136                           	psect	text14
  6137  01CB                     __ptext14:	
  6138 ;; *************** function _SYSTEM_Initialize *****************
  6139 ;; Defined at:
  6140 ;;		line 50 in file "mcc_generated_files/mcc.c"
  6141 ;; Parameters:    Size  Location     Type
  6142 ;;		None
  6143 ;; Auto vars:     Size  Location     Type
  6144 ;;		None
  6145 ;; Return value:  Size  Location     Type
  6146 ;;                  1    wreg      void 
  6147 ;; Registers used:
  6148 ;;		wreg, status,2, status,0, pclath, cstack
  6149 ;; Tracked objects:
  6150 ;;		On entry : 0/0
  6151 ;;		On exit  : 0/0
  6152 ;;		Unchanged: 0/0
  6153 ;; Data sizes:     COMMON   BANK0   BANK1   BANK2   BANK3   BANK4   BANK5   BANK6   BANK7   BANK8   BANK9  BANK10  BANK1
      +1  BANK12
  6154 ;;      Params:         0       0       0       0       0       0       0       0       0       0       0       0       
      +0       0
  6155 ;;      Locals:         0       0       0       0       0       0       0       0       0       0       0       0       
      +0       0
  6156 ;;      Temps:          0       0       0       0       0       0       0       0       0       0       0       0       
      +0       0
  6157 ;;      Totals:         0       0       0       0       0       0       0       0       0       0       0       0       
      +0       0
  6158 ;;Total ram usage:        0 bytes
  6159 ;; Hardware stack levels used: 1
  6160 ;; Hardware stack levels required when called: 2
  6161 ;; This function calls:
  6162 ;;		_ADCC_Initialize
  6163 ;;		_EUSART_Initialize
  6164 ;;		_OSCILLATOR_Initialize
  6165 ;;		_PIN_MANAGER_Initialize
  6166 ;;		_PMD_Initialize
  6167 ;; This function is called by:
  6168 ;;		_main
  6169 ;; This function uses a non-reentrant model
  6170 ;;
  6171                           
  6172  01CB                     _SYSTEM_Initialize:	
  6173                           ;psect for function _SYSTEM_Initialize
  6174                           
  6175  01CB                     l1919:	
  6176                           ;incstack = 0
  6177                           ; Regs used in _SYSTEM_Initialize: [wreg+status,2+status,0+pclath+cstack]
  6178                           
  6179                           
  6180                           ;mcc_generated_files/mcc.c: 52:     PMD_Initialize();
  6181  01CB  3181  21B0  3181   	fcall	_PMD_Initialize
  6182  01CE                     l1921:
  6183                           
  6184                           ;mcc_generated_files/mcc.c: 53:     PIN_MANAGER_Initialize();
  6185  01CE  3182  229B  3181   	fcall	_PIN_MANAGER_Initialize
  6186  01D1                     l1923:
  6187                           
  6188                           ;mcc_generated_files/mcc.c: 54:     OSCILLATOR_Initialize();
  6189  01D1  3181  21B8  3181   	fcall	_OSCILLATOR_Initialize
  6190  01D4                     l1925:
  6191                           
  6192                           ;mcc_generated_files/mcc.c: 55:     ADCC_Initialize();
  6193  01D4  3182  2232  3181   	fcall	_ADCC_Initialize
  6194  01D7                     l1927:
  6195                           
  6196                           ;mcc_generated_files/mcc.c: 56:     EUSART_Initialize();
  6197  01D7  3182  2251  3181   	fcall	_EUSART_Initialize
  6198  01DA                     l247:
  6199  01DA  0008               	return
  6200  01DB                     __end_of_SYSTEM_Initialize:
  6201                           
  6202                           	psect	text15
  6203  01B0                     __ptext15:	
  6204 ;; *************** function _PMD_Initialize *****************
  6205 ;; Defined at:
  6206 ;;		line 73 in file "mcc_generated_files/mcc.c"
  6207 ;; Parameters:    Size  Location     Type
  6208 ;;		None
  6209 ;; Auto vars:     Size  Location     Type
  6210 ;;		None
  6211 ;; Return value:  Size  Location     Type
  6212 ;;                  1    wreg      void 
  6213 ;; Registers used:
  6214 ;;		status,2
  6215 ;; Tracked objects:
  6216 ;;		On entry : 0/0
  6217 ;;		On exit  : 0/0
  6218 ;;		Unchanged: 0/0
  6219 ;; Data sizes:     COMMON   BANK0   BANK1   BANK2   BANK3   BANK4   BANK5   BANK6   BANK7   BANK8   BANK9  BANK10  BANK1
      +1  BANK12
  6220 ;;      Params:         0       0       0       0       0       0       0       0       0       0       0       0       
      +0       0
  6221 ;;      Locals:         0       0       0       0       0       0       0       0       0       0       0       0       
      +0       0
  6222 ;;      Temps:          0       0       0       0       0       0       0       0       0       0       0       0       
      +0       0
  6223 ;;      Totals:         0       0       0       0       0       0       0       0       0       0       0       0       
      +0       0
  6224 ;;Total ram usage:        0 bytes
  6225 ;; Hardware stack levels used: 1
  6226 ;; This function calls:
  6227 ;;		Nothing
  6228 ;; This function is called by:
  6229 ;;		_SYSTEM_Initialize
  6230 ;; This function uses a non-reentrant model
  6231 ;;
  6232                           
  6233  01B0                     _PMD_Initialize:	
  6234                           ;psect for function _PMD_Initialize
  6235                           
  6236  01B0                     l1871:	
  6237                           ;incstack = 0
  6238                           ; Regs used in _PMD_Initialize: [status,2]
  6239                           
  6240                           
  6241                           ;mcc_generated_files/mcc.c: 76:     PMD0 = 0x00;
  6242  01B0  002F               	movlb	15	; select bank15
  6243  01B1  0196               	clrf	22	;volatile
  6244                           
  6245                           ;mcc_generated_files/mcc.c: 78:     PMD1 = 0x00;
  6246  01B2  0197               	clrf	23	;volatile
  6247                           
  6248                           ;mcc_generated_files/mcc.c: 80:     PMD2 = 0x00;
  6249  01B3  0198               	clrf	24	;volatile
  6250                           
  6251                           ;mcc_generated_files/mcc.c: 82:     PMD3 = 0x00;
  6252  01B4  0199               	clrf	25	;volatile
  6253                           
  6254                           ;mcc_generated_files/mcc.c: 84:     PMD4 = 0x00;
  6255  01B5  019A               	clrf	26	;volatile
  6256                           
  6257                           ;mcc_generated_files/mcc.c: 86:     PMD5 = 0x00;
  6258  01B6  019B               	clrf	27	;volatile
  6259  01B7                     l253:
  6260  01B7  0008               	return
  6261  01B8                     __end_of_PMD_Initialize:
  6262                           
  6263                           	psect	text16
  6264  029B                     __ptext16:	
  6265 ;; *************** function _PIN_MANAGER_Initialize *****************
  6266 ;; Defined at:
  6267 ;;		line 55 in file "mcc_generated_files/pin_manager.c"
  6268 ;; Parameters:    Size  Location     Type
  6269 ;;		None
  6270 ;; Auto vars:     Size  Location     Type
  6271 ;;		None
  6272 ;; Return value:  Size  Location     Type
  6273 ;;                  1    wreg      void 
  6274 ;; Registers used:
  6275 ;;		wreg, status,2
  6276 ;; Tracked objects:
  6277 ;;		On entry : 0/0
  6278 ;;		On exit  : 0/0
  6279 ;;		Unchanged: 0/0
  6280 ;; Data sizes:     COMMON   BANK0   BANK1   BANK2   BANK3   BANK4   BANK5   BANK6   BANK7   BANK8   BANK9  BANK10  BANK1
      +1  BANK12
  6281 ;;      Params:         0       0       0       0       0       0       0       0       0       0       0       0       
      +0       0
  6282 ;;      Locals:         0       0       0       0       0       0       0       0       0       0       0       0       
      +0       0
  6283 ;;      Temps:          0       0       0       0       0       0       0       0       0       0       0       0       
      +0       0
  6284 ;;      Totals:         0       0       0       0       0       0       0       0       0       0       0       0       
      +0       0
  6285 ;;Total ram usage:        0 bytes
  6286 ;; Hardware stack levels used: 1
  6287 ;; This function calls:
  6288 ;;		Nothing
  6289 ;; This function is called by:
  6290 ;;		_SYSTEM_Initialize
  6291 ;; This function uses a non-reentrant model
  6292 ;;
  6293                           
  6294  029B                     _PIN_MANAGER_Initialize:	
  6295                           ;psect for function _PIN_MANAGER_Initialize
  6296                           
  6297  029B                     l1815:	
  6298                           ;incstack = 0
  6299                           ; Regs used in _PIN_MANAGER_Initialize: [wreg+status,2]
  6300                           
  6301                           
  6302                           ;mcc_generated_files/pin_manager.c: 60:     LATA = 0x00;
  6303  029B  0020               	movlb	0	; select bank0
  6304  029C  0196               	clrf	22	;volatile
  6305                           
  6306                           ;mcc_generated_files/pin_manager.c: 61:     LATB = 0x00;
  6307  029D  0197               	clrf	23	;volatile
  6308                           
  6309                           ;mcc_generated_files/pin_manager.c: 62:     LATC = 0x00;
  6310  029E  0198               	clrf	24	;volatile
  6311  029F                     l1817:
  6312                           
  6313                           ;mcc_generated_files/pin_manager.c: 67:     TRISA = 0xD0;
  6314  029F  30D0               	movlw	208
  6315  02A0  0091               	movwf	17	;volatile
  6316  02A1                     l1819:
  6317                           
  6318                           ;mcc_generated_files/pin_manager.c: 68:     TRISB = 0xFF;
  6319  02A1  30FF               	movlw	255
  6320  02A2  0092               	movwf	18	;volatile
  6321  02A3                     l1821:
  6322                           
  6323                           ;mcc_generated_files/pin_manager.c: 69:     TRISC = 0xFE;
  6324  02A3  30FE               	movlw	254
  6325  02A4  0093               	movwf	19	;volatile
  6326  02A5                     l1823:
  6327                           
  6328                           ;mcc_generated_files/pin_manager.c: 74:     ANSELC = 0xBD;
  6329  02A5  30BD               	movlw	189
  6330  02A6  003E               	movlb	30	; select bank30
  6331  02A7  00CE               	movwf	78	;volatile
  6332  02A8                     l1825:
  6333                           
  6334                           ;mcc_generated_files/pin_manager.c: 75:     ANSELB = 0xFF;
  6335  02A8  30FF               	movlw	255
  6336  02A9  00C3               	movwf	67	;volatile
  6337  02AA                     l1827:
  6338                           
  6339                           ;mcc_generated_files/pin_manager.c: 76:     ANSELA = 0xD0;
  6340  02AA  30D0               	movlw	208
  6341  02AB  00B8               	movwf	56	;volatile
  6342                           
  6343                           ;mcc_generated_files/pin_manager.c: 81:     WPUE = 0x00;
  6344  02AC  01E5               	clrf	101	;volatile
  6345                           
  6346                           ;mcc_generated_files/pin_manager.c: 82:     WPUB = 0x00;
  6347  02AD  01C4               	clrf	68	;volatile
  6348                           
  6349                           ;mcc_generated_files/pin_manager.c: 83:     WPUA = 0x00;
  6350  02AE  01B9               	clrf	57	;volatile
  6351                           
  6352                           ;mcc_generated_files/pin_manager.c: 84:     WPUC = 0x00;
  6353  02AF  01CF               	clrf	79	;volatile
  6354                           
  6355                           ;mcc_generated_files/pin_manager.c: 89:     ODCONA = 0x00;
  6356  02B0  01BA               	clrf	58	;volatile
  6357                           
  6358                           ;mcc_generated_files/pin_manager.c: 90:     ODCONB = 0x00;
  6359  02B1  01C5               	clrf	69	;volatile
  6360                           
  6361                           ;mcc_generated_files/pin_manager.c: 91:     ODCONC = 0x00;
  6362  02B2  01D0               	clrf	80	;volatile
  6363  02B3                     l1829:
  6364                           
  6365                           ;mcc_generated_files/pin_manager.c: 96:     SLRCONA = 0xFF;
  6366  02B3  30FF               	movlw	255
  6367  02B4  00BB               	movwf	59	;volatile
  6368  02B5                     l1831:
  6369                           
  6370                           ;mcc_generated_files/pin_manager.c: 97:     SLRCONB = 0xFF;
  6371  02B5  30FF               	movlw	255
  6372  02B6  00C6               	movwf	70	;volatile
  6373  02B7                     l1833:
  6374                           
  6375                           ;mcc_generated_files/pin_manager.c: 98:     SLRCONC = 0xFF;
  6376  02B7  30FF               	movlw	255
  6377  02B8  00D1               	movwf	81	;volatile
  6378  02B9                     l1835:
  6379                           
  6380                           ;mcc_generated_files/pin_manager.c: 103:     INLVLA = 0xFF;
  6381  02B9  30FF               	movlw	255
  6382  02BA  00BC               	movwf	60	;volatile
  6383  02BB                     l1837:
  6384                           
  6385                           ;mcc_generated_files/pin_manager.c: 104:     INLVLB = 0xFF;
  6386  02BB  30FF               	movlw	255
  6387  02BC  00C7               	movwf	71	;volatile
  6388  02BD                     l1839:
  6389                           
  6390                           ;mcc_generated_files/pin_manager.c: 105:     INLVLC = 0xFF;
  6391  02BD  30FF               	movlw	255
  6392  02BE  00D2               	movwf	82	;volatile
  6393                           
  6394                           ;mcc_generated_files/pin_manager.c: 106:     INLVLE = 0x00;
  6395  02BF  01E8               	clrf	104	;volatile
  6396  02C0                     l1841:
  6397                           
  6398                           ;mcc_generated_files/pin_manager.c: 115:     RC0PPS = 0x10;
  6399  02C0  3010               	movlw	16
  6400  02C1  00A0               	movwf	32	;volatile
  6401  02C2                     l1843:
  6402                           
  6403                           ;mcc_generated_files/pin_manager.c: 116:     RXPPS = 0x11;
  6404  02C2  3011               	movlw	17
  6405  02C3  003D               	movlb	29	; select bank29
  6406  02C4  00CB               	movwf	75	;volatile
  6407  02C5                     l53:
  6408  02C5  0008               	return
  6409  02C6                     __end_of_PIN_MANAGER_Initialize:
  6410                           
  6411                           	psect	text17
  6412  01B8                     __ptext17:	
  6413 ;; *************** function _OSCILLATOR_Initialize *****************
  6414 ;; Defined at:
  6415 ;;		line 59 in file "mcc_generated_files/mcc.c"
  6416 ;; Parameters:    Size  Location     Type
  6417 ;;		None
  6418 ;; Auto vars:     Size  Location     Type
  6419 ;;		None
  6420 ;; Return value:  Size  Location     Type
  6421 ;;                  1    wreg      void 
  6422 ;; Registers used:
  6423 ;;		wreg, status,2
  6424 ;; Tracked objects:
  6425 ;;		On entry : 0/0
  6426 ;;		On exit  : 0/0
  6427 ;;		Unchanged: 0/0
  6428 ;; Data sizes:     COMMON   BANK0   BANK1   BANK2   BANK3   BANK4   BANK5   BANK6   BANK7   BANK8   BANK9  BANK10  BANK1
      +1  BANK12
  6429 ;;      Params:         0       0       0       0       0       0       0       0       0       0       0       0       
      +0       0
  6430 ;;      Locals:         0       0       0       0       0       0       0       0       0       0       0       0       
      +0       0
  6431 ;;      Temps:          0       0       0       0       0       0       0       0       0       0       0       0       
      +0       0
  6432 ;;      Totals:         0       0       0       0       0       0       0       0       0       0       0       0       
      +0       0
  6433 ;;Total ram usage:        0 bytes
  6434 ;; Hardware stack levels used: 1
  6435 ;; This function calls:
  6436 ;;		Nothing
  6437 ;; This function is called by:
  6438 ;;		_SYSTEM_Initialize
  6439 ;; This function uses a non-reentrant model
  6440 ;;
  6441                           
  6442  01B8                     _OSCILLATOR_Initialize:	
  6443                           ;psect for function _OSCILLATOR_Initialize
  6444                           
  6445  01B8                     l1873:	
  6446                           ;incstack = 0
  6447                           ; Regs used in _OSCILLATOR_Initialize: [wreg+status,2]
  6448                           
  6449                           
  6450                           ;mcc_generated_files/mcc.c: 62:     OSCCON1 = 0x60;
  6451  01B8  3060               	movlw	96
  6452  01B9  0031               	movlb	17	; select bank17
  6453  01BA  008D               	movwf	13	;volatile
  6454  01BB                     l1875:
  6455                           
  6456                           ;mcc_generated_files/mcc.c: 64:     OSCCON3 = 0x00;
  6457  01BB  018F               	clrf	15	;volatile
  6458  01BC                     l1877:
  6459                           
  6460                           ;mcc_generated_files/mcc.c: 66:     OSCEN = 0x00;
  6461  01BC  0191               	clrf	17	;volatile
  6462                           
  6463                           ;mcc_generated_files/mcc.c: 68:     OSCFRQ = 0x03;
  6464  01BD  3003               	movlw	3
  6465  01BE  0093               	movwf	19	;volatile
  6466  01BF                     l1879:
  6467                           
  6468                           ;mcc_generated_files/mcc.c: 70:     OSCTUNE = 0x00;
  6469  01BF  0192               	clrf	18	;volatile
  6470  01C0                     l250:
  6471  01C0  0008               	return
  6472  01C1                     __end_of_OSCILLATOR_Initialize:
  6473                           
  6474                           	psect	text18
  6475  0251                     __ptext18:	
  6476 ;; *************** function _EUSART_Initialize *****************
  6477 ;; Defined at:
  6478 ;;		line 66 in file "mcc_generated_files/eusart.c"
  6479 ;; Parameters:    Size  Location     Type
  6480 ;;		None
  6481 ;; Auto vars:     Size  Location     Type
  6482 ;;		None
  6483 ;; Return value:  Size  Location     Type
  6484 ;;                  1    wreg      void 
  6485 ;; Registers used:
  6486 ;;		wreg, status,2, status,0, pclath, cstack
  6487 ;; Tracked objects:
  6488 ;;		On entry : 0/0
  6489 ;;		On exit  : 0/0
  6490 ;;		Unchanged: 0/0
  6491 ;; Data sizes:     COMMON   BANK0   BANK1   BANK2   BANK3   BANK4   BANK5   BANK6   BANK7   BANK8   BANK9  BANK10  BANK1
      +1  BANK12
  6492 ;;      Params:         0       0       0       0       0       0       0       0       0       0       0       0       
      +0       0
  6493 ;;      Locals:         0       0       0       0       0       0       0       0       0       0       0       0       
      +0       0
  6494 ;;      Temps:          0       0       0       0       0       0       0       0       0       0       0       0       
      +0       0
  6495 ;;      Totals:         0       0       0       0       0       0       0       0       0       0       0       0       
      +0       0
  6496 ;;Total ram usage:        0 bytes
  6497 ;; Hardware stack levels used: 1
  6498 ;; Hardware stack levels required when called: 1
  6499 ;; This function calls:
  6500 ;;		_EUSART_SetErrorHandler
  6501 ;;		_EUSART_SetFramingErrorHandler
  6502 ;;		_EUSART_SetOverrunErrorHandler
  6503 ;; This function is called by:
  6504 ;;		_SYSTEM_Initialize
  6505 ;; This function uses a non-reentrant model
  6506 ;;
  6507                           
  6508  0251                     _EUSART_Initialize:	
  6509                           ;psect for function _EUSART_Initialize
  6510                           
  6511  0251                     l1881:	
  6512                           ;incstack = 0
  6513                           ; Regs used in _EUSART_Initialize: [wreg+status,2+status,0+pclath+cstack]
  6514                           
  6515                           
  6516                           ;mcc_generated_files/eusart.c: 71:     BAUD1CON = 0x08;
  6517  0251  3008               	movlw	8
  6518  0252  0022               	movlb	2	; select bank2
  6519  0253  009F               	movwf	31	;volatile
  6520                           
  6521                           ;mcc_generated_files/eusart.c: 74:     RC1STA = 0x90;
  6522  0254  3090               	movlw	144
  6523  0255  009D               	movwf	29	;volatile
  6524                           
  6525                           ;mcc_generated_files/eusart.c: 77:     TX1STA = 0x24;
  6526  0256  3024               	movlw	36
  6527  0257  009E               	movwf	30	;volatile
  6528                           
  6529                           ;mcc_generated_files/eusart.c: 80:     SP1BRGL = 0xCF;
  6530  0258  30CF               	movlw	207
  6531  0259  009B               	movwf	27	;volatile
  6532  025A                     l1883:
  6533                           
  6534                           ;mcc_generated_files/eusart.c: 83:     SP1BRGH = 0x00;
  6535  025A  019C               	clrf	28	;volatile
  6536  025B                     l1885:
  6537                           
  6538                           ;mcc_generated_files/eusart.c: 86:     EUSART_SetFramingErrorHandler(EUSART_DefaultFrami
      +                          ngErrorHandler);
  6539  025B  3000               	movlw	0
  6540  025C  00F0               	movwf	EUSART_SetFramingErrorHandler@interruptHandler
  6541  025D  3000               	movlw	0
  6542  025E  00F1               	movwf	EUSART_SetFramingErrorHandler@interruptHandler+1
  6543  025F  3181  2198  3182   	fcall	_EUSART_SetFramingErrorHandler
  6544  0262                     l1887:
  6545                           
  6546                           ;mcc_generated_files/eusart.c: 87:     EUSART_SetOverrunErrorHandler(EUSART_DefaultOverr
      +                          unErrorHandler);
  6547  0262  3000               	movlw	0
  6548  0263  00F0               	movwf	EUSART_SetOverrunErrorHandler@interruptHandler
  6549  0264  3000               	movlw	0
  6550  0265  00F1               	movwf	EUSART_SetOverrunErrorHandler@interruptHandler+1
  6551  0266  3181  219E  3182   	fcall	_EUSART_SetOverrunErrorHandler
  6552  0269                     l1889:
  6553                           
  6554                           ;mcc_generated_files/eusart.c: 88:     EUSART_SetErrorHandler(EUSART_DefaultErrorHandler
      +                          );
  6555  0269  3000               	movlw	0
  6556  026A  00F0               	movwf	EUSART_SetErrorHandler@interruptHandler
  6557  026B  3000               	movlw	0
  6558  026C  00F1               	movwf	EUSART_SetErrorHandler@interruptHandler+1
  6559  026D  3181  2192  3182   	fcall	_EUSART_SetErrorHandler
  6560  0270                     l1891:
  6561                           
  6562                           ;mcc_generated_files/eusart.c: 90:     eusartRxLastError.status = 0;
  6563  0270  0021               	movlb	1	; select bank1
  6564  0271  01A8               	clrf	_eusartRxLastError^(0+128)	;volatile
  6565  0272                     l296:
  6566  0272  0008               	return
  6567  0273                     __end_of_EUSART_Initialize:
  6568                           
  6569                           	psect	text19
  6570  019E                     __ptext19:	
  6571 ;; *************** function _EUSART_SetOverrunErrorHandler *****************
  6572 ;; Defined at:
  6573 ;;		line 170 in file "mcc_generated_files/eusart.c"
  6574 ;; Parameters:    Size  Location     Type
  6575 ;;  interruptHan    2    0[COMMON] PTR FTN()void 
  6576 ;;		 -> EUSART_DefaultOverrunErrorHandler(1), 
  6577 ;; Auto vars:     Size  Location     Type
  6578 ;;		None
  6579 ;; Return value:  Size  Location     Type
  6580 ;;                  1    wreg      void 
  6581 ;; Registers used:
  6582 ;;		wreg
  6583 ;; Tracked objects:
  6584 ;;		On entry : 0/0
  6585 ;;		On exit  : 0/0
  6586 ;;		Unchanged: 0/0
  6587 ;; Data sizes:     COMMON   BANK0   BANK1   BANK2   BANK3   BANK4   BANK5   BANK6   BANK7   BANK8   BANK9  BANK10  BANK1
      +1  BANK12
  6588 ;;      Params:         2       0       0       0       0       0       0       0       0       0       0       0       
      +0       0
  6589 ;;      Locals:         0       0       0       0       0       0       0       0       0       0       0       0       
      +0       0
  6590 ;;      Temps:          0       0       0       0       0       0       0       0       0       0       0       0       
      +0       0
  6591 ;;      Totals:         2       0       0       0       0       0       0       0       0       0       0       0       
      +0       0
  6592 ;;Total ram usage:        2 bytes
  6593 ;; Hardware stack levels used: 1
  6594 ;; This function calls:
  6595 ;;		Nothing
  6596 ;; This function is called by:
  6597 ;;		_EUSART_Initialize
  6598 ;; This function uses a non-reentrant model
  6599 ;;
  6600                           
  6601  019E                     _EUSART_SetOverrunErrorHandler:	
  6602                           ;psect for function _EUSART_SetOverrunErrorHandler
  6603                           
  6604  019E                     l1767:	
  6605                           ;incstack = 0
  6606                           ; Regs used in _EUSART_SetOverrunErrorHandler: [wreg]
  6607                           
  6608                           
  6609                           ;mcc_generated_files/eusart.c: 171:     EUSART_OverrunErrorHandler = interruptHandler;
  6610  019E  0871               	movf	EUSART_SetOverrunErrorHandler@interruptHandler+1,w
  6611  019F  0021               	movlb	1	; select bank1
  6612  01A0  00CC               	movwf	(_EUSART_OverrunErrorHandler+1)^(0+128)
  6613  01A1  0870               	movf	EUSART_SetOverrunErrorHandler@interruptHandler,w
  6614  01A2  00CB               	movwf	_EUSART_OverrunErrorHandler^(0+128)
  6615  01A3                     l344:
  6616  01A3  0008               	return
  6617  01A4                     __end_of_EUSART_SetOverrunErrorHandler:
  6618                           
  6619                           	psect	text20
  6620  0198                     __ptext20:	
  6621 ;; *************** function _EUSART_SetFramingErrorHandler *****************
  6622 ;; Defined at:
  6623 ;;		line 166 in file "mcc_generated_files/eusart.c"
  6624 ;; Parameters:    Size  Location     Type
  6625 ;;  interruptHan    2    0[COMMON] PTR FTN()void 
  6626 ;;		 -> EUSART_DefaultFramingErrorHandler(1), 
  6627 ;; Auto vars:     Size  Location     Type
  6628 ;;		None
  6629 ;; Return value:  Size  Location     Type
  6630 ;;                  1    wreg      void 
  6631 ;; Registers used:
  6632 ;;		wreg
  6633 ;; Tracked objects:
  6634 ;;		On entry : 0/0
  6635 ;;		On exit  : 0/0
  6636 ;;		Unchanged: 0/0
  6637 ;; Data sizes:     COMMON   BANK0   BANK1   BANK2   BANK3   BANK4   BANK5   BANK6   BANK7   BANK8   BANK9  BANK10  BANK1
      +1  BANK12
  6638 ;;      Params:         2       0       0       0       0       0       0       0       0       0       0       0       
      +0       0
  6639 ;;      Locals:         0       0       0       0       0       0       0       0       0       0       0       0       
      +0       0
  6640 ;;      Temps:          0       0       0       0       0       0       0       0       0       0       0       0       
      +0       0
  6641 ;;      Totals:         2       0       0       0       0       0       0       0       0       0       0       0       
      +0       0
  6642 ;;Total ram usage:        2 bytes
  6643 ;; Hardware stack levels used: 1
  6644 ;; This function calls:
  6645 ;;		Nothing
  6646 ;; This function is called by:
  6647 ;;		_EUSART_Initialize
  6648 ;; This function uses a non-reentrant model
  6649 ;;
  6650                           
  6651  0198                     _EUSART_SetFramingErrorHandler:	
  6652                           ;psect for function _EUSART_SetFramingErrorHandler
  6653                           
  6654  0198                     l1765:	
  6655                           ;incstack = 0
  6656                           ; Regs used in _EUSART_SetFramingErrorHandler: [wreg]
  6657                           
  6658                           
  6659                           ;mcc_generated_files/eusart.c: 167:     EUSART_FramingErrorHandler = interruptHandler;
  6660  0198  0871               	movf	EUSART_SetFramingErrorHandler@interruptHandler+1,w
  6661  0199  0021               	movlb	1	; select bank1
  6662  019A  00CE               	movwf	(_EUSART_FramingErrorHandler+1)^(0+128)
  6663  019B  0870               	movf	EUSART_SetFramingErrorHandler@interruptHandler,w
  6664  019C  00CD               	movwf	_EUSART_FramingErrorHandler^(0+128)
  6665  019D                     l341:
  6666  019D  0008               	return
  6667  019E                     __end_of_EUSART_SetFramingErrorHandler:
  6668                           
  6669                           	psect	text21
  6670  0192                     __ptext21:	
  6671 ;; *************** function _EUSART_SetErrorHandler *****************
  6672 ;; Defined at:
  6673 ;;		line 174 in file "mcc_generated_files/eusart.c"
  6674 ;; Parameters:    Size  Location     Type
  6675 ;;  interruptHan    2    0[COMMON] PTR FTN()void 
  6676 ;;		 -> EUSART_DefaultErrorHandler(1), 
  6677 ;; Auto vars:     Size  Location     Type
  6678 ;;		None
  6679 ;; Return value:  Size  Location     Type
  6680 ;;                  1    wreg      void 
  6681 ;; Registers used:
  6682 ;;		wreg
  6683 ;; Tracked objects:
  6684 ;;		On entry : 0/0
  6685 ;;		On exit  : 0/0
  6686 ;;		Unchanged: 0/0
  6687 ;; Data sizes:     COMMON   BANK0   BANK1   BANK2   BANK3   BANK4   BANK5   BANK6   BANK7   BANK8   BANK9  BANK10  BANK1
      +1  BANK12
  6688 ;;      Params:         2       0       0       0       0       0       0       0       0       0       0       0       
      +0       0
  6689 ;;      Locals:         0       0       0       0       0       0       0       0       0       0       0       0       
      +0       0
  6690 ;;      Temps:          0       0       0       0       0       0       0       0       0       0       0       0       
      +0       0
  6691 ;;      Totals:         2       0       0       0       0       0       0       0       0       0       0       0       
      +0       0
  6692 ;;Total ram usage:        2 bytes
  6693 ;; Hardware stack levels used: 1
  6694 ;; This function calls:
  6695 ;;		Nothing
  6696 ;; This function is called by:
  6697 ;;		_EUSART_Initialize
  6698 ;; This function uses a non-reentrant model
  6699 ;;
  6700                           
  6701  0192                     _EUSART_SetErrorHandler:	
  6702                           ;psect for function _EUSART_SetErrorHandler
  6703                           
  6704  0192                     l1769:	
  6705                           ;incstack = 0
  6706                           ; Regs used in _EUSART_SetErrorHandler: [wreg]
  6707                           
  6708                           
  6709                           ;mcc_generated_files/eusart.c: 175:     EUSART_ErrorHandler = interruptHandler;
  6710  0192  0871               	movf	EUSART_SetErrorHandler@interruptHandler+1,w
  6711  0193  0021               	movlb	1	; select bank1
  6712  0194  00CA               	movwf	(_EUSART_ErrorHandler+1)^(0+128)
  6713  0195  0870               	movf	EUSART_SetErrorHandler@interruptHandler,w
  6714  0196  00C9               	movwf	_EUSART_ErrorHandler^(0+128)
  6715  0197                     l347:
  6716  0197  0008               	return
  6717  0198                     __end_of_EUSART_SetErrorHandler:
  6718                           
  6719                           	psect	text22
  6720  0232                     __ptext22:	
  6721 ;; *************** function _ADCC_Initialize *****************
  6722 ;; Defined at:
  6723 ;;		line 63 in file "mcc_generated_files/adcc.c"
  6724 ;; Parameters:    Size  Location     Type
  6725 ;;		None
  6726 ;; Auto vars:     Size  Location     Type
  6727 ;;		None
  6728 ;; Return value:  Size  Location     Type
  6729 ;;                  1    wreg      void 
  6730 ;; Registers used:
  6731 ;;		wreg, status,2
  6732 ;; Tracked objects:
  6733 ;;		On entry : 0/0
  6734 ;;		On exit  : 0/0
  6735 ;;		Unchanged: 0/0
  6736 ;; Data sizes:     COMMON   BANK0   BANK1   BANK2   BANK3   BANK4   BANK5   BANK6   BANK7   BANK8   BANK9  BANK10  BANK1
      +1  BANK12
  6737 ;;      Params:         0       0       0       0       0       0       0       0       0       0       0       0       
      +0       0
  6738 ;;      Locals:         0       0       0       0       0       0       0       0       0       0       0       0       
      +0       0
  6739 ;;      Temps:          0       0       0       0       0       0       0       0       0       0       0       0       
      +0       0
  6740 ;;      Totals:         0       0       0       0       0       0       0       0       0       0       0       0       
      +0       0
  6741 ;;Total ram usage:        0 bytes
  6742 ;; Hardware stack levels used: 1
  6743 ;; This function calls:
  6744 ;;		Nothing
  6745 ;; This function is called by:
  6746 ;;		_SYSTEM_Initialize
  6747 ;; This function uses a non-reentrant model
  6748 ;;
  6749                           
  6750  0232                     _ADCC_Initialize:	
  6751                           ;psect for function _ADCC_Initialize
  6752                           
  6753  0232                     l1845:	
  6754                           ;incstack = 0
  6755                           ; Regs used in _ADCC_Initialize: [wreg+status,2]
  6756                           
  6757                           
  6758                           ;mcc_generated_files/adcc.c: 67:     ADLTHL = 0xF4;
  6759  0232  30F4               	movlw	244
  6760  0233  0022               	movlb	2	; select bank2
  6761  0234  008E               	movwf	14	;volatile
  6762                           
  6763                           ;mcc_generated_files/adcc.c: 69:     ADLTHH = 0x01;
  6764  0235  3001               	movlw	1
  6765  0236  008F               	movwf	15	;volatile
  6766                           
  6767                           ;mcc_generated_files/adcc.c: 71:     ADUTHL = 0xE8;
  6768  0237  30E8               	movlw	232
  6769  0238  0090               	movwf	16	;volatile
  6770                           
  6771                           ;mcc_generated_files/adcc.c: 73:     ADUTHH = 0x03;
  6772  0239  3003               	movlw	3
  6773  023A  0091               	movwf	17	;volatile
  6774  023B                     l1847:
  6775                           
  6776                           ;mcc_generated_files/adcc.c: 75:     ADSTPTL = 0x00;
  6777  023B  0192               	clrf	18	;volatile
  6778  023C                     l1849:
  6779                           
  6780                           ;mcc_generated_files/adcc.c: 77:     ADSTPTH = 0x00;
  6781  023C  0193               	clrf	19	;volatile
  6782                           
  6783                           ;mcc_generated_files/adcc.c: 79:     ADRPT = 0x04;
  6784  023D  3004               	movlw	4
  6785  023E  008D               	movwf	13	;volatile
  6786  023F                     l1851:
  6787                           
  6788                           ;mcc_generated_files/adcc.c: 81:     ADPCH = 0x00;
  6789  023F  0021               	movlb	1	; select bank1
  6790  0240  019E               	clrf	30	;volatile
  6791  0241                     l1853:
  6792                           
  6793                           ;mcc_generated_files/adcc.c: 83:     ADCAP = 0x00;
  6794  0241  019B               	clrf	27	;volatile
  6795  0242                     l1855:
  6796                           
  6797                           ;mcc_generated_files/adcc.c: 85:     ADPRE = 0x00;
  6798  0242  019C               	clrf	28	;volatile
  6799  0243                     l1857:
  6800                           
  6801                           ;mcc_generated_files/adcc.c: 87:     ADCON1 = 0x00;
  6802  0243  0194               	clrf	20	;volatile
  6803                           
  6804                           ;mcc_generated_files/adcc.c: 89:     ADCON2 = 0x20;
  6805  0244  3020               	movlw	32
  6806  0245  0095               	movwf	21	;volatile
  6807                           
  6808                           ;mcc_generated_files/adcc.c: 91:     ADCON3 = 0x13;
  6809  0246  3013               	movlw	19
  6810  0247  0096               	movwf	22	;volatile
  6811  0248                     l1859:
  6812                           
  6813                           ;mcc_generated_files/adcc.c: 93:     ADSTAT = 0x00;
  6814  0248  0197               	clrf	23	;volatile
  6815  0249                     l1861:
  6816                           
  6817                           ;mcc_generated_files/adcc.c: 95:     ADREF = 0x00;
  6818  0249  019A               	clrf	26	;volatile
  6819  024A                     l1863:
  6820                           
  6821                           ;mcc_generated_files/adcc.c: 97:     ADACT = 0x00;
  6822  024A  0199               	clrf	25	;volatile
  6823  024B                     l1865:
  6824                           
  6825                           ;mcc_generated_files/adcc.c: 99:     ADCLK = 0x03;
  6826  024B  3003               	movlw	3
  6827  024C  0098               	movwf	24	;volatile
  6828  024D                     l1867:
  6829                           
  6830                           ;mcc_generated_files/adcc.c: 101:     ADCON0 = 0x84;
  6831  024D  3084               	movlw	132
  6832  024E  0093               	movwf	19	;volatile
  6833  024F                     l1869:
  6834                           
  6835                           ;mcc_generated_files/adcc.c: 103:     ADACQ = 0x00;
  6836  024F  019D               	clrf	29	;volatile
  6837  0250                     l131:
  6838  0250  0008               	return
  6839  0251                     __end_of_ADCC_Initialize:
  6840                           
  6841                           	psect	text23
  6842  01DB                     __ptext23:	
  6843 ;; *************** function _ADCC_GetSingleConversion *****************
  6844 ;; Defined at:
  6845 ;;		line 132 in file "mcc_generated_files/adcc.c"
  6846 ;; Parameters:    Size  Location     Type
  6847 ;;  channel         1    wreg     enum E11681
  6848 ;; Auto vars:     Size  Location     Type
  6849 ;;  channel         1    2[COMMON] enum E11681
  6850 ;; Return value:  Size  Location     Type
  6851 ;;                  2    0[COMMON] unsigned short 
  6852 ;; Registers used:
  6853 ;;		wreg
  6854 ;; Tracked objects:
  6855 ;;		On entry : 0/0
  6856 ;;		On exit  : 0/0
  6857 ;;		Unchanged: 0/0
  6858 ;; Data sizes:     COMMON   BANK0   BANK1   BANK2   BANK3   BANK4   BANK5   BANK6   BANK7   BANK8   BANK9  BANK10  BANK1
      +1  BANK12
  6859 ;;      Params:         2       0       0       0       0       0       0       0       0       0       0       0       
      +0       0
  6860 ;;      Locals:         1       0       0       0       0       0       0       0       0       0       0       0       
      +0       0
  6861 ;;      Temps:          0       0       0       0       0       0       0       0       0       0       0       0       
      +0       0
  6862 ;;      Totals:         3       0       0       0       0       0       0       0       0       0       0       0       
      +0       0
  6863 ;;Total ram usage:        3 bytes
  6864 ;; Hardware stack levels used: 1
  6865 ;; This function calls:
  6866 ;;		Nothing
  6867 ;; This function is called by:
  6868 ;;		_main
  6869 ;; This function uses a non-reentrant model
  6870 ;;
  6871                           
  6872  01DB                     _ADCC_GetSingleConversion:	
  6873                           ;psect for function _ADCC_GetSingleConversion
  6874                           
  6875                           
  6876                           ;incstack = 0
  6877                           ; Regs used in _ADCC_GetSingleConversion: [wreg]
  6878                           ;ADCC_GetSingleConversion@channel stored from wreg
  6879  01DB  00F2               	movwf	ADCC_GetSingleConversion@channel
  6880  01DC                     l1905:
  6881                           
  6882                           ;mcc_generated_files/adcc.c: 132: adc_result_t ADCC_GetSingleConversion(adcc_channel_t c
      +                          hannel);mcc_generated_files/adcc.c: 133: {;mcc_generated_files/adcc.c: 135:     ADPCH = 
      +                          channel;
  6883  01DC  0872               	movf	ADCC_GetSingleConversion@channel,w
  6884  01DD  0021               	movlb	1	; select bank1
  6885  01DE  009E               	movwf	30	;volatile
  6886  01DF                     l1907:
  6887                           
  6888                           ;mcc_generated_files/adcc.c: 138:     ADCON0bits.ADON = 1;
  6889  01DF  1793               	bsf	19,7	;volatile
  6890  01E0                     l1909:
  6891                           
  6892                           ;mcc_generated_files/adcc.c: 141:     ADCON0bits.ADCONT = 0;
  6893  01E0  1313               	bcf	19,6	;volatile
  6894  01E1                     l1911:
  6895                           
  6896                           ;mcc_generated_files/adcc.c: 144:     ADCON0bits.ADGO = 1;
  6897  01E1  1413               	bsf	19,0	;volatile
  6898  01E2                     l1913:
  6899                           
  6900                           ;mcc_generated_files/adcc.c: 147:     __nop();
  6901  01E2  0000               	nop
  6902  01E3                     l143:	
  6903                           ;mcc_generated_files/adcc.c: 151:     {;mcc_generated_files/adcc.c: 152:     }
  6904                           
  6905                           
  6906                           ;mcc_generated_files/adcc.c: 150:     while (ADCON0bits.ADGO)
  6907  01E3  0021               	movlb	1	; select bank1
  6908  01E4  1813               	btfsc	19,0	;volatile
  6909  01E5  29E7               	goto	u1141
  6910  01E6  29E8               	goto	u1140
  6911  01E7                     u1141:
  6912  01E7  29E3               	goto	l143
  6913  01E8                     u1140:
  6914  01E8                     l1915:
  6915                           
  6916                           ;mcc_generated_files/adcc.c: 156:     return ((adc_result_t)((ADRESH << 8) + ADRESL));
  6917  01E8  080D               	movf	13,w	;volatile
  6918  01E9  00F1               	movwf	?_ADCC_GetSingleConversion+1
  6919  01EA  080C               	movf	12,w	;volatile
  6920  01EB  00F0               	movwf	?_ADCC_GetSingleConversion
  6921  01EC                     l146:
  6922  01EC  0008               	return
  6923  01ED                     __end_of_ADCC_GetSingleConversion:
  6924  007E                     btemp	set	126	;btemp
  6925  007E                     wtemp0	set	126
  6926                           
  6927                           	psect	idloc
  6928                           
  6929                           ;Config register IDLOC0 @ 0x8000
  6930                           ;	unspecified, using default values
  6931  8000                     	org	32768
  6932  8000  3FFF               	dw	16383
  6933                           
  6934                           ;Config register IDLOC1 @ 0x8001
  6935                           ;	unspecified, using default values
  6936  8001                     	org	32769
  6937  8001  3FFF               	dw	16383
  6938                           
  6939                           ;Config register IDLOC2 @ 0x8002
  6940                           ;	unspecified, using default values
  6941  8002                     	org	32770
  6942  8002  3FFF               	dw	16383
  6943                           
  6944                           ;Config register IDLOC3 @ 0x8003
  6945                           ;	unspecified, using default values
  6946  8003                     	org	32771
  6947  8003  3FFF               	dw	16383
  6948                           
  6949                           	psect	config
  6950                           
  6951                           ;Config register CONFIG1 @ 0x8007
  6952                           ;	External Oscillator mode selection bits
  6953                           ;	FEXTOSC = OFF, Oscillator not enabled
  6954                           ;	Power-up default value for COSC bits
  6955                           ;	RSTOSC = HFINT32, HFINTOSC with OSCFRQ= 32 MHz and CDIV = 1:1
  6956                           ;	Clock Out Enable bit
  6957                           ;	CLKOUTEN = OFF, CLKOUT function is disabled; i/o or oscillator function on OSC2
  6958                           ;	Clock Switch Enable bit
  6959                           ;	CSWEN = ON, Writing to NOSC and NDIV is allowed
  6960                           ;	Fail-Safe Clock Monitor Enable bit
  6961                           ;	FCMEN = ON, FSCM timer enabled
  6962  8007                     	org	32775
  6963  8007  3F8C               	dw	16268
  6964                           
  6965                           ;Config register CONFIG2 @ 0x8008
  6966                           ;	Master Clear Enable bit
  6967                           ;	MCLRE = ON, MCLR pin is Master Clear function
  6968                           ;	Power-up Timer Enable bit
  6969                           ;	PWRTE = OFF, PWRT disabled
  6970                           ;	Low-Power BOR enable bit
  6971                           ;	LPBOREN = OFF, ULPBOR disabled
  6972                           ;	Brown-out reset enable bits
  6973                           ;	BOREN = ON, Brown-out Reset Enabled, SBOREN bit is ignored
  6974                           ;	Brown-out Reset Voltage Selection
  6975                           ;	BORV = LO, Brown-out Reset Voltage (VBOR) set to 1.9V on LF, and 2.45V on F Devices
  6976                           ;	Zero-cross detect disable
  6977                           ;	ZCD = OFF, Zero-cross detect circuit is disabled at POR.
  6978                           ;	Peripheral Pin Select one-way control
  6979                           ;	PPS1WAY = ON, The PPSLOCK bit can be cleared and set only once in software
  6980                           ;	Stack Overflow/Underflow Reset Enable bit
  6981                           ;	STVREN = ON, Stack Overflow or Underflow will cause a reset
  6982                           ;	Background Debugger
  6983                           ;	DEBUG = OFF, Background Debugger disabled
  6984  8008                     	org	32776
  6985  8008  3FFF               	dw	16383
  6986                           
  6987                           ;Config register CONFIG3 @ 0x8009
  6988                           ;	WDT Period Select bits
  6989                           ;	WDTCPS = WDTCPS_31, Divider ratio 1:65536; software control of WDTPS
  6990                           ;	WDT operating mode
  6991                           ;	WDTE = OFF, WDT Disabled, SWDTEN is ignored
  6992                           ;	WDT Window Select bits
  6993                           ;	WDTCWS = WDTCWS_7, window always open (100%); software control; keyed access not requi
      +                          red
  6994                           ;	WDT input clock selector
  6995                           ;	WDTCCS = SC, Software Control
  6996  8009                     	org	32777
  6997  8009  3F9F               	dw	16287
  6998                           
  6999                           ;Config register CONFIG4 @ 0x800A
  7000                           ;	UserNVM self-write protection bits
  7001                           ;	WRT = OFF, Write protection off
  7002                           ;	Scanner Enable bit
  7003                           ;	SCANE = available, Scanner module is available for use
  7004                           ;	Low Voltage Programming Enable bit
  7005                           ;	LVP = ON, Low Voltage programming enabled. MCLR/Vpp pin function is MCLR.
  7006  800A                     	org	32778
  7007  800A  3FFF               	dw	16383
  7008                           
  7009                           ;Config register CONFIG5 @ 0x800B
  7010                           ;	UserNVM Program memory code protection bit
  7011                           ;	CP = OFF, Program Memory code protection disabled
  7012                           ;	DataNVM code protection bit
  7013                           ;	CPD = OFF, Data EEPROM code protection disabled
  7014  800B                     	org	32779
  7015  800B  3FFF               	dw	16383

Data Sizes:
    Strings     28
    Constant    0
    Data        0
    BSS         41
    Persistent  38
    Stack       0

Auto Spaces:
    Space          Size  Autos    Used
    COMMON           14     14      14
    BANK0            80     80      80
    BANK1            80      0      47
    BANK2            80      0       0
    BANK3            80      0       0
    BANK4            80      0       0
    BANK5            80      0       0
    BANK6            80      0       0
    BANK7            80      0       0
    BANK8            80      0       0
    BANK9            80      0       0
    BANK10           80      0       0
    BANK11           80      0       0
    BANK12           48      0       0

Pointer List with Targets:

    strlen@s	PTR const unsigned char  size(1) Largest target is 32
		 -> dbuf(BANK1[32]), 

    strlen@a	PTR const unsigned char  size(1) Largest target is 32
		 -> dbuf(BANK1[32]), 

    fputs@s	PTR const unsigned char  size(1) Largest target is 32
		 -> dbuf(BANK1[32]), 

    fputs@fp	PTR struct _IO_FILE size(1) Largest target is 0
		 -> NULL(NULL[0]), 

    S1004$source	PTR const unsigned char  size(1) Largest target is 0

    fputc@fp...source	PTR const unsigned char  size(1) Largest target is 0

    S1004$buffer	PTR unsigned char  size(1) Largest target is 0

    fputc@fp...buffer	PTR unsigned char  size(1) Largest target is 0

    fputc@fp	PTR struct _IO_FILE size(1) Largest target is 0
		 -> NULL(NULL[0]), 

    vfprintf@ap	PTR PTR void  size(1) Largest target is 1
		 -> printf@ap(BANK0[1]), 

    vfprintf@fp	PTR struct _IO_FILE size(1) Largest target is 0
		 -> NULL(NULL[0]), 

    vfprintf@fmt	PTR const unsigned char  size(2) Largest target is 17
		 -> STR_2(CODE[17]), STR_1(CODE[11]), 

    vfprintf@cfmt	PTR unsigned char  size(2) Largest target is 17
		 -> STR_2(CODE[17]), STR_1(CODE[11]), 

    vfpfcnvrt@fp	PTR struct _IO_FILE size(1) Largest target is 0
		 -> NULL(NULL[0]), 

    vfpfcnvrt@ap	PTR PTR void  size(1) Largest target is 1
		 -> printf@ap(BANK0[1]), 

    vfpfcnvrt@fmt	PTR PTR unsigned char  size(1) Largest target is 2
		 -> vfprintf@cfmt(BANK0[2]), 

    dtoa@fp	PTR struct _IO_FILE size(1) Largest target is 0
		 -> NULL(NULL[0]), 

    pad@fp	PTR struct _IO_FILE size(1) Largest target is 0
		 -> NULL(NULL[0]), 

    pad@buf	PTR unsigned char  size(1) Largest target is 32
		 -> dbuf(BANK1[32]), 

    printf@fmt	PTR const unsigned char  size(2) Largest target is 17
		 -> STR_2(CODE[17]), STR_1(CODE[11]), 

    printf@ap	PTR void [1] size(1) Largest target is 2
		 -> ?_printf(BANK0[2]), 

    EUSART_SetErrorHandler@interruptHandler	PTR FTN()void  size(2) Largest target is 1
		 -> EUSART_DefaultErrorHandler(), 

    EUSART_ErrorHandler	PTR FTN()void  size(2) Largest target is 1
		 -> Absolute function(), EUSART_DefaultErrorHandler(), 

    EUSART_SetOverrunErrorHandler@interruptHandler	PTR FTN()void  size(2) Largest target is 1
		 -> EUSART_DefaultOverrunErrorHandler(), 

    EUSART_OverrunErrorHandler	PTR FTN()void  size(2) Largest target is 1
		 -> Absolute function(), EUSART_DefaultOverrunErrorHandler(), 

    EUSART_SetFramingErrorHandler@interruptHandler	PTR FTN()void  size(2) Largest target is 1
		 -> EUSART_DefaultFramingErrorHandler(), 

    EUSART_FramingErrorHandler	PTR FTN()void  size(2) Largest target is 1
		 -> Absolute function(), EUSART_DefaultFramingErrorHandler(), 


Critical Paths under _main in COMMON

    _pad->_fputs
    _fputs->_fputc
    _fputc->_putch
    _putch->_EUSART_Write
    _abs->___aomod
    _EUSART_Initialize->_EUSART_SetErrorHandler
    _EUSART_Initialize->_EUSART_SetFramingErrorHandler
    _EUSART_Initialize->_EUSART_SetOverrunErrorHandler

Critical Paths under _main in BANK0

    _main->_printf
    _printf->_vfprintf
    _vfprintf->_vfpfcnvrt
    _vfpfcnvrt->_dtoa
    _dtoa->___aodiv
    _dtoa->___aomod
    _pad->_fputs
    _abs->___aomod

Critical Paths under _main in BANK1

    None.

Critical Paths under _main in BANK2

    None.

Critical Paths under _main in BANK3

    None.

Critical Paths under _main in BANK4

    None.

Critical Paths under _main in BANK5

    None.

Critical Paths under _main in BANK6

    None.

Critical Paths under _main in BANK7

    None.

Critical Paths under _main in BANK8

    None.

Critical Paths under _main in BANK9

    None.

Critical Paths under _main in BANK10

    None.

Critical Paths under _main in BANK11

    None.

Critical Paths under _main in BANK12

    None.

Call Graph Tables:

 ---------------------------------------------------------------------------------
 (Depth) Function   	        Calls       Base Space   Used Autos Params    Refs
 ---------------------------------------------------------------------------------
 (0) _main                                                 4     4      0    6351
                                             76 BANK0      4     4      0
           _ADCC_GetSingleConversion
                  _SYSTEM_Initialize
                             _printf
 ---------------------------------------------------------------------------------
 (1) _printf                                               8     4      4    6012
                                             70 BANK0      6     2      4
                           _vfprintf
 ---------------------------------------------------------------------------------
 (2) _vfprintf                                             8     5      3    5806
                                             62 BANK0      8     5      3
                          _vfpfcnvrt
 ---------------------------------------------------------------------------------
 (3) _vfpfcnvrt                                           40    38      2    5478
                                             46 BANK0     16    14      2
                               _dtoa
                              _fputc
 ---------------------------------------------------------------------------------
 (4) _dtoa                                                30    22      8    4133
                                             16 BANK0     30    22      8
                            ___aodiv
                            ___aomod
                                _abs
                                _pad
 ---------------------------------------------------------------------------------
 (5) _pad                                                  9     6      3    2510
                                              4 BANK0      9     6      3
                              _fputc
                              _fputs
                             _strlen
 ---------------------------------------------------------------------------------
 (6) _strlen                                               5     3      2     123
                                              0 COMMON     5     3      2
 ---------------------------------------------------------------------------------
 (6) _fputs                                                8     7      1    1127
                                             10 COMMON     4     3      1
                                              0 BANK0      4     4      0
                              _fputc
 ---------------------------------------------------------------------------------
 (4) _fputc                                                8     5      3     812
                                              2 COMMON     8     5      3
                              _putch
 ---------------------------------------------------------------------------------
 (5) _putch                                                1     1      0      44
                                              1 COMMON     1     1      0
                       _EUSART_Write
 ---------------------------------------------------------------------------------
 (6) _EUSART_Write                                         1     1      0      22
                                              0 COMMON     1     1      0
 ---------------------------------------------------------------------------------
 (5) _abs                                                  4     2      2     142
                                              3 COMMON     4     2      2
                            ___aomod (ARG)
 ---------------------------------------------------------------------------------
 (5) ___aomod                                             19     3     16     448
                                              0 COMMON     3     3      0
                                              0 BANK0     16     0     16
 ---------------------------------------------------------------------------------
 (5) ___aodiv                                             27    11     16     452
                                              0 COMMON    11    11      0
                                              0 BANK0     16     0     16
 ---------------------------------------------------------------------------------
 (1) _SYSTEM_Initialize                                    0     0      0     294
                    _ADCC_Initialize
                  _EUSART_Initialize
              _OSCILLATOR_Initialize
             _PIN_MANAGER_Initialize
                     _PMD_Initialize
 ---------------------------------------------------------------------------------
 (2) _PMD_Initialize                                       0     0      0       0
 ---------------------------------------------------------------------------------
 (2) _PIN_MANAGER_Initialize                               0     0      0       0
 ---------------------------------------------------------------------------------
 (2) _OSCILLATOR_Initialize                                0     0      0       0
 ---------------------------------------------------------------------------------
 (2) _EUSART_Initialize                                    0     0      0     294
             _EUSART_SetErrorHandler
      _EUSART_SetFramingErrorHandler
      _EUSART_SetOverrunErrorHandler
 ---------------------------------------------------------------------------------
 (3) _EUSART_SetOverrunErrorHandler                        2     0      2      98
                                              0 COMMON     2     0      2
 ---------------------------------------------------------------------------------
 (3) _EUSART_SetFramingErrorHandler                        2     0      2      98
                                              0 COMMON     2     0      2
 ---------------------------------------------------------------------------------
 (3) _EUSART_SetErrorHandler                               2     0      2      98
                                              0 COMMON     2     0      2
 ---------------------------------------------------------------------------------
 (2) _ADCC_Initialize                                      0     0      0       0
 ---------------------------------------------------------------------------------
 (1) _ADCC_GetSingleConversion                             3     1      2      22
                                              0 COMMON     3     1      2
 ---------------------------------------------------------------------------------
 Estimated maximum stack depth 6
 ---------------------------------------------------------------------------------

 Call Graph Graphs:

 _main (ROOT)
   _ADCC_GetSingleConversion
   _SYSTEM_Initialize
     _ADCC_Initialize
     _EUSART_Initialize
       _EUSART_SetErrorHandler
       _EUSART_SetFramingErrorHandler
       _EUSART_SetOverrunErrorHandler
     _OSCILLATOR_Initialize
     _PIN_MANAGER_Initialize
     _PMD_Initialize
   _printf
     _vfprintf
       _vfpfcnvrt
         _dtoa
           ___aodiv
           ___aomod
           _abs
             ___aomod (ARG)
           _pad
             _fputc
               _putch
                 _EUSART_Write
             _fputs
               _fputc
             _strlen
         _fputc

 Address spaces:
Name               Size   Autos  Total    Cost      Usage
BIGRAM             3F0      0       0       0        0.0%
EEDATA             100      0       0       0        0.0%
NULL                 0      0       0       0        0.0%
CODE                 0      0       0       0        0.0%
BITCOMMON            E      0       0       1        0.0%
BITSFR0              0      0       0       1        0.0%
SFR0                 0      0       0       1        0.0%
COMMON               E      E       E       2      100.0%
BITSFR1              0      0       0       2        0.0%
SFR1                 0      0       0       2        0.0%
BITSFR2              0      0       0       3        0.0%
SFR2                 0      0       0       3        0.0%
STACK                0      0       0       3        0.0%
BITBANK0            50      0       0       4        0.0%
BITSFR3              0      0       0       4        0.0%
SFR3                 0      0       0       4        0.0%
BANK0               50     50      50       5      100.0%
BITSFR4              0      0       0       5        0.0%
SFR4                 0      0       0       5        0.0%
BITBANK1            50      0       0       6        0.0%
BITSFR5              0      0       0       6        0.0%
SFR5                 0      0       0       6        0.0%
BANK1               50      0      2F       7       58.8%
BITSFR6              0      0       0       7        0.0%
SFR6                 0      0       0       7        0.0%
BITBANK2            50      0       0       8        0.0%
BITSFR7              0      0       0       8        0.0%
SFR7                 0      0       0       8        0.0%
BANK2               50      0       0       9        0.0%
BITSFR8              0      0       0       9        0.0%
SFR8                 0      0       0       9        0.0%
BITBANK3            50      0       0      10        0.0%
BITSFR9              0      0       0      10        0.0%
SFR9                 0      0       0      10        0.0%
BANK3               50      0       0      11        0.0%
BITSFR10             0      0       0      11        0.0%
SFR10                0      0       0      11        0.0%
BITBANK4            50      0       0      12        0.0%
BITSFR11             0      0       0      12        0.0%
SFR11                0      0       0      12        0.0%
BANK4               50      0       0      13        0.0%
BITSFR12             0      0       0      13        0.0%
SFR12                0      0       0      13        0.0%
BITBANK5            50      0       0      14        0.0%
BITSFR13             0      0       0      14        0.0%
SFR13                0      0       0      14        0.0%
BANK5               50      0       0      15        0.0%
BITSFR14             0      0       0      15        0.0%
SFR14                0      0       0      15        0.0%
BITBANK6            50      0       0      16        0.0%
BITSFR15             0      0       0      16        0.0%
SFR15                0      0       0      16        0.0%
BANK6               50      0       0      17        0.0%
BITSFR16             0      0       0      17        0.0%
SFR16                0      0       0      17        0.0%
BITBANK7            50      0       0      18        0.0%
BITSFR17             0      0       0      18        0.0%
SFR17                0      0       0      18        0.0%
BANK7               50      0       0      19        0.0%
BITSFR18             0      0       0      19        0.0%
SFR18                0      0       0      19        0.0%
BITSFR19             0      0       0      20        0.0%
SFR19                0      0       0      20        0.0%
ABS                  0      0      8D      20        0.0%
BITBANK8            50      0       0      21        0.0%
BITSFR20             0      0       0      21        0.0%
SFR20                0      0       0      21        0.0%
BANK8               50      0       0      22        0.0%
BITSFR21             0      0       0      22        0.0%
SFR21                0      0       0      22        0.0%
BITBANK9            50      0       0      23        0.0%
BITSFR22             0      0       0      23        0.0%
SFR22                0      0       0      23        0.0%
BANK9               50      0       0      24        0.0%
BITSFR23             0      0       0      24        0.0%
SFR23                0      0       0      24        0.0%
BITBANK10           50      0       0      25        0.0%
BITSFR24             0      0       0      25        0.0%
SFR24                0      0       0      25        0.0%
BANK10              50      0       0      26        0.0%
BITSFR25             0      0       0      26        0.0%
SFR25                0      0       0      26        0.0%
BITBANK11           50      0       0      27        0.0%
BITSFR26             0      0       0      27        0.0%
SFR26                0      0       0      27        0.0%
BANK11              50      0       0      28        0.0%
BITSFR27             0      0       0      28        0.0%
SFR27                0      0       0      28        0.0%
BITBANK12           30      0       0      29        0.0%
BITSFR28             0      0       0      29        0.0%
SFR28                0      0       0      29        0.0%
BANK12              30      0       0      30        0.0%
BITSFR29             0      0       0      30        0.0%
SFR29                0      0       0      30        0.0%
BITSFR30             0      0       0      31        0.0%
SFR30                0      0       0      31        0.0%
DATA                 0      0      8D      31        0.0%
BITSFR31             0      0       0      32        0.0%
SFR31                0      0       0      32        0.0%


Microchip Technology PIC Macro Assembler V2.35 build 20211206165544 
Symbol Table                                                                                   Sat Feb 05 19:29:29 2022

                                           l53 02C5                                            l131 0250  
                                          l143 01E3                                            l320 01C2  
                                          l146 01EC                                            l250 01C0  
                                          l323 01CA                                            l341 019D  
                                          l253 01B7                                            l247 01DA  
                                          l344 01A3                                            l329 01A9  
                                          l347 0197                                            l620 0686  
                                          l296 0272                                            l632 0574  
                                          l633 0585                                            l619 0675  
                                          l982 01FE                                            u600 01C7  
                                          u601 01C6                                            u610 032C  
                                          u611 032B                                            u620 0331  
                                          u621 0330                                            u710 05E6  
                                          u630 0340                                            u631 033F  
                                          u720 05F6                                            u800 04D2  
                                          u640 035E                                            u721 05F5  
                                          u801 04D1                                            u641 035D  
                                          u730 0609                                            u650 029A  
                                          u731 0608                                            u651 0299  
                                          u740 0633                                            u820 04FE  
                                          u660 0211                                            u900 03A6  
                                          u741 0632                                            u821 04FD  
                                          u645 035A                                            u661 0210  
                                          u901 03A5                                            u750 0652  
                                          u670 0591                                            u830 0511  
                                          u910 03AB                                            u751 0651  
                                          u671 0590                                            u831 0510  
                                          u911 03AA                                            u760 0657  
                                          u840 0533                                            u920 0225  
                                          u761 0656                                            u745 062F  
                                          u841 0532                                            u921 0224  
                                          u905 03A2                                            u690 05BC  
                                          u850 0551                                            u930 06A4  
                                          u691 05BB                                            u851 0550  
                                          u931 06A2                                            u860 0556  
                                          u780 04A7                                            u940 06A5  
                                          u861 0555                                            u845 052F  
                                          u781 04A6                                            u925 0221  
                                          u950 06B2                                            u951 06B1  
                                          u880 036F                                            u881 036E  
                                          u890 037D                                            u970 06D5  
                                          u891 037C                                            u971 06D4  
                                          u980 06E8                                            u981 06E7  
                                          u990 0704                                            u991 0703  
                                          u985 06E4                                            _abs 0218  
                                          _pad 0368                 ?_EUSART_SetFramingErrorHandler 0070  
                                          wreg 0009                                           l1012 03A6  
                                         l1013 03B4                                           l1014 03C0  
                                         l1022 06F6                                           l1023 070E  
                                         l1040 07F4                                           l1009 0384  
                                         l1017 06D0                                           l1026 077E  
                                         l1018 06D9                                           ?_abs 0073  
                                         l1061 0231                                           l1054 0326  
                                         l1047 049B                                           l1073 0367  
                                         l1081 029A                                           l1058 0231  
                                         l1087 0217                                           l1601 0286  
                                         l1603 028B                                           l1611 0211  
                                         l1621 05B2                                           l1605 0200  
                                         l1631 05F6                                           l1623 05BC  
                                         l1615 0586                                           l1703 0218  
                                         l1607 0205                                           l1711 06AC  
                                         l1641 0611                                           l1633 05F9  
                                         l1625 05DB                                           l1617 0587  
                                         l1705 0225                                           l1609 0209  
                                         l1721 06FE                                           l1713 06B2  
                                         l1801 046D                                           l1651 0657  
                                         l1643 0633                                           l1635 0601  
                                         l1627 05DF                                           l1619 0591  
                                         l1731 071B                                           l1723 0704  
                                         l1715 06D5                                           l1707 0689  
                                         l1803 0475                                           l1821 02A3  
                                         l1645 0643                                           l1637 0605  
                                         l1629 05E9                                           l1661 04D2  
                                         l1653 049C                                           l1581 01A5  
                                         l1741 0799                                           l1733 0749  
                                         l1725 0709                                           l1717 06E8  
                                         l1709 0699                                           l1901 031E  
                                         l1911 01E1                                           l1831 02B5  
                                         l1823 02A5                                           l1815 029B  
                                         l1647 0644                                           l1639 0609  
                                         l1671 050D                                           l1663 04F1  
                                         l1655 049D                                           l1591 0340  
                                         l1583 0327                                           l1751 07C5  
                                         l1743 07A6                                           l1735 074D  
                                         l1727 0713                                           l1719 06EE  
                                         l1807 0478                                           l1913 01E2  
                                         l1905 01DC                                           l1841 02C0  
                                         l1833 02B7                                           l1825 02A8  
                                         l1817 029F                                           l1921 01CE  
                                         l1649 0652                                           l1681 0556  
                                         l1673 0511                                           l1665 04FE  
                                         l1657 04A7                                           l1577 01C2  
                                         l1593 035E                                           l1585 032C  
                                         l1753 07CA                                           l1761 07E1  
                                         l1745 07B4                                           l1737 0751  
                                         l1729 0716                                           l1809 0491  
                                         l1915 01E8                                           l1907 01DF  
                                         l1851 023F                                           l1843 02C2  
                                         l1835 02B9                                           l1827 02AA  
                                         l1819 02A1                                           l1923 01D1  
                                         l1675 0533                                           l1667 0501  
                                         l1659 04C8                                           l1579 01C7  
                                         l1587 0331                                           l1691 0382  
                                         l1683 036A                                           l1755 07D0  
                                         l1739 078C                                           l1747 07B9  
                                         l1771 03C3                                           l1909 01E0  
                                         l1861 0249                                           l1853 0241  
                                         l1845 0232                                           l1765 0198  
                                         l1837 02BB                                           l1829 02B3  
                                         l1925 01D4                                           l1677 0543  
                                         l1669 0509                                           l1589 0336  
                                         l1597 0275                                           l1693 0387  
                                         l1685 036F                                           l1757 07D5  
                                         l1749 07C0                                           l1781 03F7  
                                         l1773 03D4                                           l1941 01ED  
                                         l1863 024A                                           l1855 0242  
                                         l1847 023B                                           l1767 019E  
                                         l1839 02BD                                           l1871 01B0  
                                         l1927 01D7                                           l1919 01CB  
                                         l1679 0551                                           l1599 0278  
                                         l1695 0393                                           l1687 0378  
                                         l1759 07D9                                           l1791 0443  
                                         l1783 0408                                           l1775 03DC  
                                         l1943 01F2                                           l1951 02C6  
                                         l1865 024B                                           l1857 0243  
                                         l1849 023C                                           l1769 0192  
                                         l1881 0251                                           l1873 01B8  
                                         l1697 0398                                           l1689 037D  
                                         l1793 0454                                           l1785 0410  
                                         l1777 03E1                                           l1961 02E6  
                                         l1953 02C9                                           l1867 024D  
                                         l1859 0248                                           l1891 0270  
                                         l1883 025A                                           l1875 01BB  
                                         l1699 03AB                                           l1795 045C  
                                         l1787 0429                                           l1779 03E5  
                                         l1955 02CB                                           l1869 024F  
                                         l1885 025B                                           l1877 01BC  
                                         l1797 0467                                           l1893 02F8  
                                         l1957 02D2                                           ?_pad 0024  
                                         l1887 0262                                           l1879 01BF  
                                         l1895 02FC                                           l1959 02DB  
                                         l1889 0269                                           l1897 0300  
                                         l1899 0314                                           STR_1 0811  
                                         STR_2 0800                                           u1000 0709  
                                         u1001 0708                                           u1010 078C  
                                         u1011 078B                                           u1020 0799  
                                         u1100 03F7                                           u1021 0798  
                                         u1101 03F6                                           u1030 07A6  
                                         u1110 0408                                           u1031 07A5  
                                         u1015 0788                                           u1111 0407  
                                         u1040 07B4                                           u1120 0454  
                                         u1041 07B3                                           u1121 0453  
                                         u1050 07B9                                           u1130 031E  
                                         u1051 07B8                                           u1035 07A2  
                                         u1131 031D                                           u1140 01E8  
                                         u1060 07C0                                           u1141 01E7  
                                         u1061 07BF                                           u1045 07B0  
                                         u1070 07C5                                           u1071 07C4  
                                         u1080 07D0                                           u1081 07CF  
                                         u1090 03D4                                           u1091 03D3  
                                         _LATA 0016                                           _LATB 0017  
                                         _LATC 0018                                           u1177 02EC  
                                         _PMD0 0796                                           _PMD1 0797  
                                         _PMD2 0798                                           _PMD3 0799  
                                         _PMD4 079A                                           _PMD5 079B  
                                         _WPUA 0F39                                           _WPUB 0F44  
                                         _WPUC 0F4F                                           _WPUE 0F65  
                                         abs@a 0073                                           _dbuf 00A9  
                                         _main 02C6                                           _dtoa 0687  
                                         _prec 00A4                                           _nout 00A0  
                                         pad@i 0028                                           pad@p 0025  
                                         fsr0h 0005                                           fsr1h 0007  
                                         indf0 0000                                           fsr0l 0004  
                                         indf1 0001                                           fsr1l 0006  
                                         pad@w 002A                                           btemp 007E  
                                         start 0002                                          ??_abs 0075  
                                        ??_pad 0027                                  ?_EUSART_Write 0070  
                __end_of_OSCILLATOR_Initialize 01C1                                __end_of___aodiv 0687  
                                        _ADACQ 009D                                          _ADCAP 009B  
                                        _ADACT 0099                                          ?_main 0070  
                                        ?_dtoa 0030                                          _ADCLK 0098  
                              __end_of___aomod 0586                                          _ADCNT 010C  
                                        _ADPCH 009E                                          _ADREF 009A  
                                        _ADPRE 009C                                          _ADRPT 010D  
                                        _OSCEN 0891                                   vfpfcnvrt@fmt 004E  
                                        _TRISA 0011                                          _TRISB 0012  
                                        _TRISC 0013                                          _RXPPS 0ECB  
                                        u70lld 05DB                                          u81lld 04F1  
                                        u68lld 05B0                                          u77lld 0675  
                                        u87lld 0574                                          u79lld 04C6  
                                        u96lld 06D0                                          _flags 00A6  
                                        _fputc 0327                                          _fputs 0273  
                                        pad@fp 002C                                          _width 00A2  
                                        _putch 01A4                                          dtoa@d 0030  
                                        dtoa@i 004C                                          dtoa@n 0044  
                                        dtoa@p 003D                                          dtoa@s 0042  
                                        dtoa@w 0040                                          status 0003  
                                        wtemp0 007E                                __initialization 07F5  
                                 __end_of_main 02F6                                   __end_of_dtoa 07F5  
                               ??_EUSART_Write 0070                                         ??_main 006C  
                                       ??_dtoa 0038                                         _ADACCH 0091  
                                       _ADACCL 0090              _EUSART_DefaultFramingErrorHandler 0000  
                                       _ADCON0 0093                                         _ADCON1 0094  
                                       _ADCON2 0095                                         _ADCON3 0096  
                   _EUSART_OverrunErrorHandler 00CB                                         _ADERRH 0117  
                                       _ADERRL 0116                                         ?_fputc 0072  
                                       _ADLTHH 010F                                         _ADLTHL 010E  
                                       ?_fputs 007A                                         _ADRESH 008D  
                                       _ADRESL 008C                                         _ADSTAT 0097  
                                       _ADUTHH 0111                                         _ADUTHL 0110  
                                       _ANSELA 0F38                                         ?_putch 0070  
                                       _ANSELB 0F43                                         _ANSELC 0F4E  
                                       _RC1REG 0119                                         _RC0PPS 0F20  
                                       _RC1STA 011D                                         _ODCONA 0F3A  
                                       _ODCONB 0F45                                         _ODCONC 0F50  
                                       _INLVLA 0F3C                                         _INLVLB 0F47  
                                       _INLVLC 0F52                                         _INLVLE 0F68  
                                       _OSCFRQ 0893                                         _TX1REG 011A  
                                       _TX1STA 011E                                   vfprintf@cfmt 0064  
                                    ??___aodiv 0070                                      ??___aomod 0070  
                                       _printf 01ED                                         pad@buf 0024  
                                       dtoa@fp 003F                                         _strlen 01FF  
                              _ADCC_Initialize 0232                                         fputc@c 0072  
                               _PMD_Initialize 01B0                                         fputs@c 0020  
                                       fputs@i 0021                                         fputs@s 0023  
                             __end_of_vfprintf 0327                      ?_ADCC_GetSingleConversion 0070  
                            _SYSTEM_Initialize 01CB                        __end_of__initialization 07FD  
                           ?_SYSTEM_Initialize 0070                                 __pcstackCOMMON 0070  
                          ??_SYSTEM_Initialize 0072                                  __end_of_fputc 0368  
                                __end_of_fputs 029B                                  __end_of_putch 01AA  
                       __end_of_PMD_Initialize 01B8                ??_EUSART_SetOverrunErrorHandler 0072  
                                      ??_fputc 0075                      __end_of_SYSTEM_Initialize 01DB  
                                      ??_fputs 007B                                        ??_putch 0071  
                                   __pbssBANK1 00A0                           __end_of_EUSART_Write 01CB  
                                   __pmaintext 02C6                        __end_of_ADCC_Initialize 0251  
                                      _ADFLTRH 0115                                        _ADFLTRL 0114  
                                      _ADPREVH 008F                                        _ADPREVL 008E  
                                      _ADSTPTH 0113                                        _ADSTPTL 0112  
                                      ?_printf 0066                                ?_PMD_Initialize 0070  
                                      ?_strlen 0070                                        _SP1BRGH 011C  
                                      _SP1BRGL 011B                                        _OSCCON1 088D  
                                      _OSCCON3 088F                                        _OSCTUNE 0892  
                                      _SLRCONA 0F3B                                        _SLRCONB 0F46  
                                      _SLRCONC 0F51                       ??_EUSART_SetErrorHandler 0072  
                                      ___aodiv 0586                                        ___aomod 049C  
                                    ?_vfprintf 005E                                        __ptext1 01ED  
                                      __ptext2 02F6                                        __ptext3 03C1  
                                      __ptext4 0687                                        __ptext5 0368  
                                      __ptext6 01FF                                        __ptext7 0273  
                                      __ptext8 0327                                        __ptext9 01A4  
                        _OSCILLATOR_Initialize 01B8                       ??_PIN_MANAGER_Initialize 0070  
                                      clrloop0 01AB                           end_of_initialization 07FD  
        __end_of_EUSART_SetOverrunErrorHandler 01A4                  _EUSART_SetOverrunErrorHandler 019E  
                                      fputc@fp 0074                                        fputs@fp 007A  
                            _EUSART_Initialize 0251                             ?_EUSART_Initialize 0070  
                            __end_of_vfpfcnvrt 049C                               ?_ADCC_Initialize 0070  
                                   ??_vfprintf 0061               __end_of_ADCC_GetSingleConversion 01ED  
                                      strlen@a 0073                                        strlen@s 0074  
                          ??_EUSART_Initialize 0072                      __end_of_EUSART_Initialize 0273  
                   _EUSART_DefaultErrorHandler 0000                                    vfpfcnvrt@ap 004F  
                                  vfpfcnvrt@fp 005D                                    vfpfcnvrt@ll 0055  
                                 _EUSART_Write 01C1                         ?_OSCILLATOR_Initialize 0070  
                               __end_of_printf 01FF                                 __end_of_strlen 0218  
                          start_initialization 07F5                                    __end_of_abs 0232  
                                  __end_of_pad 03C1                                    putch@txData 0071  
               ?_EUSART_SetOverrunErrorHandler 0070                                    vfprintf@fmt 005E  
                   _EUSART_FramingErrorHandler 00CD                               ??_PMD_Initialize 0070  
                       _EUSART_SetErrorHandler 0192                                       ??_printf 006A  
                                     ??_strlen 0072                       _ADCC_GetSingleConversion 01DB  
                                    ___latbits 0002                                  __pcstackBANK0 0020  
                             ___aodiv@dividend 0028                                      __pnvBANK1 00C9  
                       _PIN_MANAGER_Initialize 029B                                      _dtoa$1073 003B  
              ADCC_GetSingleConversion@channel 0072                                       ?___aodiv 0020  
                                     ?___aomod 0020                               ___aodiv@quotient 0073  
                                     _BAUD1CON 011F                              main@promedio_adcc 006E  
                                     _LATAbits 0016         EUSART_SetErrorHandler@interruptHandler 0070  
                                    clear_ram0 01AA                              _eusartRxLastError 00A8  
              ??_EUSART_SetFramingErrorHandler 0072                                       _PIR3bits 070F  
            _EUSART_DefaultOverrunErrorHandler 0000                                      _vfpfcnvrt 03C1  
                                   _ADCON0bits 0093                                     _ADCON1bits 0094  
                                   _ADCON2bits 0095                                     _ADCON3bits 0096  
                                   _ADSTATbits 0097                                     vfprintf@ap 0060  
                                   vfprintf@fp 0063                        ??_OSCILLATOR_Initialize 0070  
                          _EUSART_ErrorHandler 00C9                                     ?_vfpfcnvrt 004E  
                              ___aodiv@divisor 0020                                ___aodiv@counter 0071  
                                     __ptext10 01C1                                       __ptext11 0218  
                                     __ptext20 0198                                       __ptext12 049C  
                                     __ptext21 0192                                       __ptext13 0586  
                                     __ptext22 0232                                       __ptext14 01CB  
                                     __ptext23 01DB                                       __ptext15 01B0  
                                     __ptext16 029B                                       __ptext17 01B8  
                                     __ptext18 0251                                       __ptext19 019E  
                      ?_EUSART_SetErrorHandler 0070                                     _RC1STAbits 011D  
EUSART_SetOverrunErrorHandler@interruptHandler 0070                     ??_ADCC_GetSingleConversion 0072  
                                     _vfprintf 02F6                                      printf@fmt 0066  
        __end_of_EUSART_SetFramingErrorHandler 019E                  _EUSART_SetFramingErrorHandler 0198  
                             ___aomod@dividend 0028                        ?_PIN_MANAGER_Initialize 0070  
               __end_of_EUSART_SetErrorHandler 0198                                       printf@ap 006B  
EUSART_SetFramingErrorHandler@interruptHandler 0070                                ___aomod@divisor 0020  
                                  ??_vfpfcnvrt 0050                                ___aomod@counter 0071  
                                __pstringtext1 0800                                  __pstringtext2 0811  
                                __pstringtext3 0000                                     _TX1STAbits 011E  
                           EUSART_Write@txData 0070                                   ___aodiv@sign 0072  
               __end_of_PIN_MANAGER_Initialize 02C6                              ??_ADCC_Initialize 0070  
                                 ___aomod@sign 0072  
