

Microchip MPLAB XC8 Assembler V2.32 build 20210201212658 
                                                                                               Thu Jun 23 11:30:58 2022

Microchip MPLAB XC8 C Compiler v2.32 (Free license) build 20210201212658 Og1 
     1                           	processor	18F57Q84
     2                           	fnconf	rparam,??,?,0
     3                           	pagewidth 120
     4                           	opt	flic
     5                           	psect	idataBANK6,global,class=CODE,delta=1,noexec
     6                           	psect	smallconst,global,reloc=2,class=SMALLCONST,delta=1,noexec
     7                           	psect	nvBANK5,global,class=BANK5,space=1,delta=1,lowdata,noexec
     8                           	psect	nvBANK6,global,class=BANK6,space=1,delta=1,lowdata,noexec
     9                           	psect	cinit,global,reloc=2,class=CODE,delta=1
    10                           	psect	bssBANK5,global,class=BANK5,space=1,delta=1,lowdata,noexec
    11                           	psect	bssBANK6,global,class=BANK6,space=1,delta=1,lowdata,noexec
    12                           	psect	dataBANK6,global,class=BANK6,space=1,delta=1,lowdata,noexec
    13                           	psect	cstackBANK5,global,class=BANK5,space=1,delta=1,lowdata,noexec
    14                           	psect	cstackCOMRAM,global,class=COMRAM,space=1,delta=1,lowdata,noexec
    15                           	psect	text0,global,reloc=2,class=CODE,delta=1
    16                           	psect	text1,global,reloc=2,class=CODE,delta=1,group=3
    17                           	psect	text2,global,reloc=2,class=CODE,delta=1,group=3
    18                           	psect	text3,global,reloc=2,class=CODE,delta=1,group=1
    19                           	psect	text4,global,reloc=2,class=CODE,delta=1,group=1
    20                           	psect	text5,global,reloc=2,class=CODE,delta=1,group=3
    21                           	psect	text6,global,reloc=2,class=CODE,delta=1,group=1
    22                           	psect	text7,global,reloc=2,class=CODE,delta=1,group=3
    23                           	psect	text8,global,reloc=2,class=CODE,delta=1,group=3
    24                           	psect	text9,global,reloc=2,class=CODE,delta=1,group=3
    25                           	psect	text10,global,reloc=2,class=CODE,delta=1,group=3
    26                           	psect	text11,global,reloc=2,class=CODE,delta=1,group=3
    27                           	psect	text12,global,reloc=2,class=CODE,delta=1,group=2
    28                           	psect	text13,global,reloc=2,class=CODE,delta=1,group=2
    29                           	psect	text14,global,reloc=2,class=CODE,delta=1,group=2
    30                           	psect	text15,global,reloc=2,class=CODE,delta=1,group=2
    31                           	psect	text16,global,reloc=2,class=CODE,delta=1,group=2
    32                           	psect	text17,global,reloc=2,class=CODE,delta=1,group=2
    33                           	psect	text18,global,reloc=2,class=CODE,delta=1,group=2
    34                           	psect	text19,global,reloc=2,class=CODE,delta=1,group=2
    35                           	psect	text20,global,reloc=2,class=CODE,delta=1,group=2
    36                           	psect	text21,global,reloc=2,class=CODE,delta=1,group=2
    37                           	psect	text22,global,reloc=2,class=CODE,delta=1,group=1
    38                           	psect	text23,global,reloc=2,class=CODE,delta=1,group=1
    39                           	psect	text24,global,reloc=2,class=CODE,delta=1,group=3
    40                           	psect	text25,global,reloc=2,class=CODE,delta=1,group=3
    41                           	psect	text26,global,reloc=2,class=CODE,delta=1,group=3
    42                           	psect	text27,global,reloc=2,class=CODE,delta=1
    43                           	psect	text28,global,reloc=2,class=CODE,delta=1
    44                           	psect	text29,global,reloc=2,class=CODE,delta=1,group=3
    45                           	psect	text30,global,reloc=2,class=CODE,delta=1,group=2
    46                           	psect	text31,global,reloc=2,class=CODE,delta=1,group=2
    47                           	psect	text32,global,reloc=2,class=CODE,delta=1,group=2
    48                           	psect	text33,global,reloc=2,class=CODE,delta=1
    49                           	psect	text34,global,reloc=2,class=CODE,delta=1
    50                           	psect	text35,global,reloc=2,class=CODE,delta=1
    51                           	psect	text36,global,reloc=2,class=CODE,delta=1
    52                           	psect	text37,global,reloc=2,class=CODE,delta=1
    53                           	psect	text38,global,reloc=2,class=CODE,delta=1
    54                           	psect	text39,global,reloc=2,class=CODE,delta=1
    55                           	psect	text40,global,reloc=2,class=CODE,delta=1
    56                           	psect	text41,global,reloc=2,class=CODE,delta=1
    57                           	psect	text42,global,reloc=2,class=CODE,delta=1
    58                           	psect	text43,global,reloc=2,class=CODE,delta=1
    59                           	psect	text44,global,reloc=2,class=CODE,delta=1
    60                           	psect	text45,global,reloc=2,class=CODE,delta=1
    61                           	psect	text46,global,reloc=2,class=CODE,delta=1
    62                           	psect	intsave_regs,global,class=BIGRAM,space=1,delta=1,noexec
    63                           	psect	rparam,global,class=COMRAM,space=1,delta=1,noexec
    64                           	psect	idloc,global,abs,ovrld,class=IDLOC,space=5,delta=1,noexec
    65                           	psect	config,global,abs,ovrld,class=CONFIG,space=4,delta=1,noexec
    66  0000                     
    67                           ; Version 2.40
    68                           ; Generated 08/12/2021 GMT
    69                           ; 
    70                           ; Copyright © 2021, Microchip Technology Inc. and its subsidiaries ("Microchip")
    71                           ; All rights reserved.
    72                           ; 
    73                           ; This software is developed by Microchip Technology Inc. and its subsidiaries ("Microch
      +                          ip").
    74                           ; 
    75                           ; Redistribution and use in source and binary forms, with or without modification, are
    76                           ; permitted provided that the following conditions are met:
    77                           ; 
    78                           ;     1. Redistributions of source code must retain the above copyright notice, this lis
      +                          t of
    79                           ;        conditions and the following disclaimer.
    80                           ; 
    81                           ;     2. Redistributions in binary form must reproduce the above copyright notice, this 
      +                          list
    82                           ;        of conditions and the following disclaimer in the documentation and/or other
    83                           ;        materials provided with the distribution. Publication is not required when
    84                           ;        this file is used in an embedded application.
    85                           ; 
    86                           ;     3. Microchip's name may not be used to endorse or promote products derived from th
      +                          is
    87                           ;        software without specific prior written permission.
    88                           ; 
    89                           ; THIS SOFTWARE IS PROVIDED BY MICROCHIP "AS IS" AND ANY EXPRESS OR IMPLIED WARRANTIES,
    90                           ; INCLUDING, BUT NOT LIMITED TO, THE IMPLIED WARRANTIES OF MERCHANTABILITY AND FITNESS F
      +                          OR
    91                           ; PURPOSE ARE DISCLAIMED.  IN NO EVENT SHALL MICROCHIP BE LIABLE FOR ANY DIRECT, INDIREC
      +                          T,
    92                           ; INCIDENTAL, SPECIAL, EXEMPLARY, OR CONSEQUENTIAL DAMAGES (INCLUDING BUT NOT LIMITED TO
    93                           ; PROCUREMENT OF SUBSTITUTE GOODS OR SERVICES; LOSS OF USE, DATA OR PROFITS; OR BUSINESS
    94                           ; INTERRUPTION) HOWSOEVER CAUSED AND ON ANY THEORY OF LIABILITY, WHETHER IN CONTRACT, ST
      +                          RICT
    95                           ; LIABILITY, OR TORT (INCLUDING NEGLIGENCE OR OTHERWISE) ARISING IN ANY WAY OUT OF THE U
      +                          SE OF
    96                           ; THIS SOFTWARE, EVEN IF ADVISED OF THE POSSIBILITY OF SUCH DAMAGE.
    97                           ; 
    98                           ; 
    99                           ; Code-generator required, PIC18F57Q84 Definitions
   100                           ; 
   101                           ; SFR Addresses
   102  0000                     
   103 ;; Function _rd1RegCompleteHandler is unused but had its address taken
   104  0000                     
   105 ;; Function _rd2RegCompleteHandler is unused but had its address taken
   106  0000                     
   107 ;; Function _wr1RegCompleteHandler is unused but had its address taken
   108  0000                     
   109 ;; Function _wr2RegCompleteHandler is unused but had its address taken
   110  0000                     
   111 ;; Function _rdBlkRegCompleteHandler is unused but had its address taken
   112  0000                     
   113 ;; Function _I2C1_DO_IDLE is unused but had its address taken
   114  0000                     
   115 ;; Function _I2C1_DO_SEND_ADR_READ is unused but had its address taken
   116  0000                     
   117 ;; Function _I2C1_DO_SEND_ADR_WRITE is unused but had its address taken
   118  0000                     
   119 ;; Function _I2C1_DO_TX is unused but had its address taken
   120  0000                     
   121 ;; Function _I2C1_DO_RX is unused but had its address taken
   122  0000                     
   123 ;; Function _I2C1_DO_TX_EMPTY is unused but had its address taken
   124  0000                     
   125 ;; Function _I2C1_DO_RX_EMPTY is unused but had its address taken
   126  0000                     
   127 ;; Function _I2C1_DO_SEND_RESTART_READ is unused but had its address taken
   128  0000                     
   129 ;; Function _I2C1_DO_SEND_RESTART_WRITE is unused but had its address taken
   130  0000                     
   131 ;; Function _I2C1_DO_SEND_RESTART is unused but had its address taken
   132  0000                     
   133 ;; Function _I2C1_DO_SEND_STOP is unused but had its address taken
   134  0000                     
   135 ;; Function _I2C1_DO_RX_ACK is unused but had its address taken
   136  0000                     
   137 ;; Function _I2C1_DO_TX_ACK is unused but had its address taken
   138  0000                     
   139 ;; Function _I2C1_DO_RX_NACK_STOP is unused but had its address taken
   140  0000                     
   141 ;; Function _I2C1_DO_RX_NACK_RESTART is unused but had its address taken
   142  0000                     
   143 ;; Function _I2C1_DO_RESET is unused but had its address taken
   144  0000                     
   145 ;; Function _I2C1_DO_ADDRESS_NACK is unused but had its address taken
   146  0000                     
   147 ;; Function _I2C1_DO_BUS_COLLISION is unused but had its address taken
   148  0000                     
   149 ;; Function _I2C1_DO_BUS_ERROR is unused but had its address taken
   150  0000                     
   151 ;; Function _I2C1_CallbackReturnStop is unused but had its address taken
   152  0000                     
   153 ;; Function _I2C1_CallbackReturnReset is unused but had its address taken
   154  0000                     
   155 ;; Function _UART1_DefaultFramingErrorHandler is unused but had its address taken
   156  0000                     
   157 ;; Function _UART1_DefaultOverrunErrorHandler is unused but had its address taken
   158  0000                     
   159 ;; Function _UART1_DefaultErrorHandler is unused but had its address taken
   160  0000                     
   161 ;; Function _ADC_DefaultADI_ISR is unused but had its address taken
   162  0000                     
   163 ;; Function _ADC_DefaultContext1Threshold_ISR is unused but had its address taken
   164  0000                     
   165 ;; Function _ADC_DefaultActiveClockTuning_ISR is unused but had its address taken
   166  0000                     
   167                           	psect	idataBANK6
   168  006E76                     __pidataBANK6:
   169                           	callstack 0
   170                           
   171                           ;initializer for _mV
   172  006E76  4067               	dw	16487
   173  006E78  3A53               	dw	14931
   174                           
   175                           	psect	smallconst
   176  003700                     __psmallconst:
   177                           	callstack 0
   178  003700  00                 	db	0
   179  003701                     _i2c1_fsmStateTable:
   180                           	callstack 0
   181  003701  00                 	db	0
   182  003702  00                 	db	0
   183  003703  00                 	db	0
   184  003704  00                 	db	0
   185  003705  00                 	db	0
   186  003706  00                 	db	0
   187  003707  00                 	db	0
   188  003708  00                 	db	0
   189  003709  00                 	db	0
   190  00370A  00                 	db	0
   191  00370B  00                 	db	0
   192  00370C  00                 	db	0
   193  00370D  00                 	db	0
   194  00370E  00                 	db	0
   195  00370F  00                 	db	0
   196  003710  00                 	db	0
   197  003711  00                 	db	0
   198  003712  00                 	db	0
   199  003713  00                 	db	0
   200  003714  00                 	db	0
   201  003715  00                 	db	0
   202  003716  00                 	db	0
   203  003717  00                 	db	0
   204  003718  00                 	db	0
   205  003719  00                 	db	0
   206  00371A  00                 	db	0
   207  00371B  00                 	db	0
   208  00371C  00                 	db	0
   209  00371D  00                 	db	0
   210  00371E  00                 	db	0
   211  00371F  00                 	db	0
   212  003720  00                 	db	0
   213  003721  00                 	db	0
   214  003722  00                 	db	0
   215  003723  00                 	db	0
   216  003724  00                 	db	0
   217  003725  00                 	db	0
   218  003726  00                 	db	0
   219  003727  00                 	db	0
   220  003728  00                 	db	0
   221  003729  00                 	db	0
   222  00372A  00                 	db	0
   223  00372B  00                 	db	0
   224  00372C  00                 	db	0
   225  00372D  00                 	db	0
   226  00372E  00                 	db	0
   227  00372F  00                 	db	0
   228  003730  00                 	db	0
   229  003731  00                 	db	0
   230  003732  00                 	db	0
   231  003733  00                 	db	0
   232  003734  00                 	db	0
   233  003735  00                 	db	0
   234  003736  00                 	db	0
   235  003737  00                 	db	0
   236  003738  00                 	db	0
   237  003739  00                 	db	0
   238  00373A                     __end_of_i2c1_fsmStateTable:
   239                           	callstack 0
   240  00373A                     _LCD_INIT_STRING:
   241                           	callstack 0
   242  00373A  28                 	db	40
   243  00373B  0C                 	db	12
   244  00373C  01                 	db	1
   245  00373D  06                 	db	6
   246  00373E                     __end_of_LCD_INIT_STRING:
   247                           	callstack 0
   248  00373E                     STR_1:
   249                           
   250                           ; BSR set to: 3
   251  00373E  63                 	db	99	;'c'
   252  00373F  6F                 	db	111	;'o'
   253  003740  6E                 	db	110	;'n'
   254  003741  74                 	db	116	;'t'
   255  003742  3D                 	db	61	;'='
   256  003743  25                 	db	37
   257  003744  64                 	db	100	;'d'
   258  003745  2C                 	db	44
   259  003746  20                 	db	32
   260  003747  41                 	db	65	;'A'
   261  003748  44                 	db	68	;'D'
   262  003749  43                 	db	67	;'C'
   263  00374A  3D                 	db	61	;'='
   264  00374B  25                 	db	37
   265  00374C  69                 	db	105	;'i'
   266  00374D  0A                 	db	10
   267  00374E  56                 	db	86	;'V'
   268  00374F  3D                 	db	61	;'='
   269  003750  25                 	db	37
   270  003751  66                 	db	102	;'f'
   271  003752  2C                 	db	44
   272  003753  20                 	db	32
   273  003754  54                 	db	84	;'T'
   274  003755  65                 	db	101	;'e'
   275  003756  6D                 	db	109	;'m'
   276  003757  70                 	db	112	;'p'
   277  003758  3D                 	db	61	;'='
   278  003759  25                 	db	37
   279  00375A  66                 	db	102	;'f'
   280  00375B  0A                 	db	10
   281  00375C  0A                 	db	10
   282  00375D  00                 	db	0
   283  00375E                     STR_2:
   284                           
   285                           ; BSR set to: 3
   286  00375E  0C                 	db	12
   287  00375F  63                 	db	99	;'c'
   288  003760  6F                 	db	111	;'o'
   289  003761  6E                 	db	110	;'n'
   290  003762  74                 	db	116	;'t'
   291  003763  3D                 	db	61	;'='
   292  003764  25                 	db	37
   293  003765  64                 	db	100	;'d'
   294  003766  20                 	db	32
   295  003767  41                 	db	65	;'A'
   296  003768  44                 	db	68	;'D'
   297  003769  43                 	db	67	;'C'
   298  00376A  3D                 	db	61	;'='
   299  00376B  25                 	db	37
   300  00376C  69                 	db	105	;'i'
   301  00376D  0A                 	db	10
   302  00376E  00                 	db	0
   303  00376F                     STR_3:
   304                           
   305                           ; BSR set to: 3
   306  00376F  49                 	db	73	;'I'
   307  003770  4E                 	db	78	;'N'
   308  003771  46                 	db	70	;'F'
   309  003772  00                 	db	0
   310  003773                     STR_7:
   311                           
   312                           ; BSR set to: 3
   313  003773  4E                 	db	78	;'N'
   314  003774  41                 	db	65	;'A'
   315  003775  4E                 	db	78	;'N'
   316  003776  00                 	db	0
   317  003777                     STR_4:
   318                           
   319                           ; BSR set to: 3
   320  003777  69                 	db	105	;'i'
   321  003778  6E                 	db	110	;'n'
   322  003779  66                 	db	102	;'f'
   323  00377A  00                 	db	0
   324  00377B                     STR_8:
   325                           
   326                           ; BSR set to: 3
   327  00377B  6E                 	db	110	;'n'
   328  00377C  61                 	db	97	;'a'
   329  00377D  6E                 	db	110	;'n'
   330  00377E  00                 	db	0
   331  00377F                     STR_11:
   332                           
   333                           ; BSR set to: 3
   334  00377F  6C                 	db	108	;'l'
   335  003780  66                 	db	102	;'f'
   336  003781  00                 	db	0
   337  003782  00                 	db	0	; dummy byte at the end
   338  0000                     
   339                           	psect	nvBANK5
   340  0005F2                     __pnvBANK5:
   341                           	callstack 0
   342  0005F2                     _ADC_ActiveClockTuning_ISR:
   343                           	callstack 0
   344  0005F2                     	ds	3
   345  0005F5                     _ADC_Context1Thereshld_ISR:
   346                           	callstack 0
   347  0005F5                     	ds	3
   348  0005F8                     _ADC_ConversionComplete_ISR:
   349                           	callstack 0
   350  0005F8                     	ds	3
   351  0005FB                     _UART1_FramingErrorHandler:
   352                           	callstack 0
   353  0005FB                     	ds	3
   354  0005FE                     _lecturaADC:
   355                           	callstack 0
   356  0005FE                     	ds	2
   357                           
   358                           	psect	nvBANK6
   359  000678                     __pnvBANK6:
   360                           	callstack 0
   361  000678                     _temperatura:
   362                           	callstack 0
   363  000678                     	ds	4
   364  00067C                     _V:
   365                           	callstack 0
   366  00067C                     	ds	4
   367  000680                     _UART1_ErrorHandler:
   368                           	callstack 0
   369  000680                     	ds	3
   370  000683                     _UART1_OverrunErrorHandler:
   371                           	callstack 0
   372  000683                     	ds	3
   373  0000                     _PMD8	set	104
   374  0000                     _PMD7	set	103
   375  0000                     _PMD6	set	102
   376  0000                     _PMD5	set	101
   377  0000                     _PMD4	set	100
   378  0000                     _PMD3	set	99
   379  0000                     _PMD2	set	98
   380  0000                     _PMD1	set	97
   381  0000                     _PMD0	set	96
   382  0000                     _OSCTUNE	set	176
   383  0000                     _OSCFRQ	set	177
   384  0000                     _OSCEN	set	179
   385  0000                     _OSCCON3	set	175
   386  0000                     _OSCCON1	set	173
   387  0000                     _U1TXB	set	675
   388  0000                     _U1RXB	set	673
   389  0000                     _U1ERRIRbits	set	690
   390  0000                     _U1CON0bits	set	683
   391  0000                     _U1ERRIE	set	691
   392  0000                     _U1ERRIR	set	690
   393  0000                     _U1UIR	set	689
   394  0000                     _U1FIFO	set	688
   395  0000                     _U1BRGH	set	687
   396  0000                     _U1BRGL	set	686
   397  0000                     _U1CON2	set	685
   398  0000                     _U1CON1	set	684
   399  0000                     _U1CON0	set	683
   400  0000                     _U1P3H	set	682
   401  0000                     _U1P3L	set	681
   402  0000                     _U1P2H	set	680
   403  0000                     _U1P2L	set	679
   404  0000                     _U1P1H	set	678
   405  0000                     _U1P1L	set	677
   406  0000                     _I2C1SCLPPS	set	625
   407  0000                     _U1RXPPS	set	626
   408  0000                     _RF0PPS	set	553
   409  0000                     _RB2PPS	set	523
   410  0000                     _RB1PPS	set	522
   411  0000                     _I2C1SDAPPS	set	624
   412  0000                     _ADACTPPS	set	617
   413  0000                     _I2C1PIEbits	set	667
   414  0000                     _I2C1PIRbits	set	666
   415  0000                     _I2C1ERRbits	set	663
   416  0000                     _I2C1CON1bits	set	661
   417  0000                     _I2C1TXB	set	651
   418  0000                     _I2C1RXB	set	650
   419  0000                     _I2C1STAT1bits	set	665
   420  0000                     _I2C1CON0bits	set	660
   421  0000                     _I2C1BAUD	set	669
   422  0000                     _I2C1CNTH	set	653
   423  0000                     _I2C1CNTL	set	652
   424  0000                     _I2C1ERR	set	663
   425  0000                     _I2C1PIE	set	667
   426  0000                     _I2C1PIR	set	666
   427  0000                     _I2C1CLK	set	670
   428  0000                     _I2C1CON2	set	662
   429  0000                     _I2C1CON1	set	661
   430  0000                     _I2C1CON0	set	660
   431  0000                     _ADCPbits	set	984
   432  0000                     _ADCON1bits	set	1012
   433  0000                     _ADERRL	set	989
   434  0000                     _ADERRH	set	990
   435  0000                     _ADPREVL	set	1000
   436  0000                     _ADPREVH	set	1001
   437  0000                     _ADFLTRL	set	993
   438  0000                     _ADFLTRH	set	994
   439  0000                     _ADSTATbits	set	1015
   440  0000                     _ADCON2bits	set	1013
   441  0000                     _ADCON3bits	set	1014
   442  0000                     _ADCSEL1bits	set	1020
   443  0000                     _ADCON0bits	set	1011
   444  0000                     _ADCSEL1	set	1020
   445  0000                     _ADREF	set	1016
   446  0000                     _ADSTAT	set	1015
   447  0000                     _ADCON3	set	1014
   448  0000                     _ADCON2	set	1013
   449  0000                     _ADCON1	set	1012
   450  0000                     _ADCON0	set	1011
   451  0000                     _ADPREH	set	1010
   452  0000                     _ADPREL	set	1009
   453  0000                     _ADCAP	set	1008
   454  0000                     _ADACQH	set	1007
   455  0000                     _ADACQL	set	1006
   456  0000                     _ADPCH	set	1004
   457  0000                     _ADRESH	set	1003
   458  0000                     _ADRESL	set	1002
   459  0000                     _ADRPT	set	999
   460  0000                     _ADCNT	set	998
   461  0000                     _ADACCU	set	997
   462  0000                     _ADACCH	set	996
   463  0000                     _ADACCL	set	995
   464  0000                     _ADSTPTH	set	992
   465  0000                     _ADSTPTL	set	991
   466  0000                     _ADUTHH	set	988
   467  0000                     _ADUTHL	set	987
   468  0000                     _ADLTHH	set	986
   469  0000                     _ADLTHL	set	985
   470  0000                     _ADCTX	set	1019
   471  0000                     _ADCP	set	984
   472  0000                     _ADCLK	set	1018
   473  0000                     _ADACT	set	1017
   474  0000                     _INLVLF	set	1068
   475  0000                     _INLVLE	set	1060
   476  0000                     _INLVLD	set	1052
   477  0000                     _INLVLC	set	1044
   478  0000                     _INLVLB	set	1036
   479  0000                     _INLVLA	set	1028
   480  0000                     _SLRCONF	set	1067
   481  0000                     _SLRCONE	set	1059
   482  0000                     _SLRCOND	set	1051
   483  0000                     _SLRCONC	set	1043
   484  0000                     _SLRCONB	set	1035
   485  0000                     _SLRCONA	set	1027
   486  0000                     _ODCOND	set	1050
   487  0000                     _ODCONC	set	1042
   488  0000                     _ODCONB	set	1034
   489  0000                     _ODCONA	set	1026
   490  0000                     _ODCONF	set	1066
   491  0000                     _ODCONE	set	1058
   492  0000                     _WPUC	set	1041
   493  0000                     _WPUA	set	1025
   494  0000                     _WPUB	set	1033
   495  0000                     _WPUE	set	1057
   496  0000                     _WPUF	set	1065
   497  0000                     _WPUD	set	1049
   498  0000                     _ANSELA	set	1024
   499  0000                     _ANSELF	set	1064
   500  0000                     _ANSELE	set	1056
   501  0000                     _ANSELB	set	1032
   502  0000                     _ANSELC	set	1040
   503  0000                     _ANSELD	set	1048
   504  0000                     _LATFbits	set	1219
   505  0000                     _PIR2bits	set	1200
   506  0000                     _PIR1bits	set	1199
   507  0000                     _PIR4bits	set	1202
   508  0000                     _TRISD	set	1225
   509  0000                     _TRISC	set	1224
   510  0000                     _TRISB	set	1223
   511  0000                     _TRISA	set	1222
   512  0000                     _TRISF	set	1227
   513  0000                     _TRISE	set	1226
   514  0000                     _LATC	set	1216
   515  0000                     _LATB	set	1215
   516  0000                     _LATF	set	1219
   517  0000                     _LATA	set	1214
   518  0000                     _LATD	set	1217
   519  0000                     _LATE	set	1218
   520  0000                     _PIR7bits	set	1205
   521  0000                     _PIE7bits	set	1189
   522                           
   523                           ; #config settings
   524                           
   525                           	psect	cinit
   526  006C38                     __pcinit:
   527                           	callstack 0
   528  006C38                     start_initialization:
   529                           	callstack 0
   530  006C38                     __initialization:
   531                           	callstack 0
   532                           
   533                           ; Initialize objects allocated to BANK6 (4 bytes)
   534                           ; load TBLPTR registers with __pidataBANK6
   535  006C38  0E76               	movlw	low __pidataBANK6
   536  006C3A  6EF6               	movwf	tblptrl,c
   537  006C3C  0E6E               	movlw	high __pidataBANK6
   538  006C3E  6EF7               	movwf	tblptrh,c
   539  006C40  0E00               	movlw	low (__pidataBANK6 shr (0+16))
   540  006C42  6EF8               	movwf	tblptru,c
   541  006C44  EE01  F286         	lfsr	0,__pdataBANK6
   542  006C48  EE10 F004          	lfsr	1,4
   543  006C4C                     copy_data0:
   544  006C4C  0009               	tblrd		*+
   545  006C4E  C4F5 F4EE          	movff	tablat,postinc0
   546  006C52  50E5               	movf	postdec1,w,c
   547  006C54  50E1               	movf	fsr1l,w,c
   548  006C56  E1FA               	bnz	copy_data0
   549                           
   550                           ; Clear objects allocated to BANK6 (120 bytes)
   551  006C58  EE01  F200         	lfsr	0,__pbssBANK6
   552  006C5C  0E78               	movlw	120
   553  006C5E                     clear_0:
   554  006C5E  6AEE               	clrf	postinc0,c
   555  006C60  06E8               	decf	wreg,f,c
   556  006C62  E1FD               	bnz	clear_0
   557                           
   558                           ; Clear objects allocated to BANK5 (62 bytes)
   559  006C64  EE01  F1B4         	lfsr	0,__pbssBANK5
   560  006C68  0E3E               	movlw	62
   561  006C6A                     clear_1:
   562  006C6A  6AEE               	clrf	postinc0,c
   563  006C6C  06E8               	decf	wreg,f,c
   564  006C6E  E1FD               	bnz	clear_1
   565  006C70                     end_of_initialization:
   566                           	callstack 0
   567  006C70                     __end_of__initialization:
   568                           	callstack 0
   569  006C70  0100               	movlb	0
   570  006C72  EF83  F02F         	goto	_main	;jump to C main() function
   571                           
   572                           	psect	bssBANK5
   573  0005B4                     __pbssBANK5:
   574                           	callstack 0
   575  0005B4                     _I2C1_Status:
   576                           	callstack 0
   577  0005B4                     	ds	42
   578  0005DE                     floorf@F527:
   579                           	callstack 0
   580  0005DE                     	ds	4
   581  0005E2                     ___fpclassifyf@F465:
   582                           	callstack 0
   583  0005E2                     	ds	4
   584  0005E6                     _nout:
   585                           	callstack 0
   586  0005E6                     	ds	2
   587  0005E8                     _width:
   588                           	callstack 0
   589  0005E8                     	ds	2
   590  0005EA                     _prec:
   591                           	callstack 0
   592  0005EA                     	ds	2
   593  0005EC                     _flags:
   594                           	callstack 0
   595  0005EC                     	ds	2
   596  0005EE                     _g_LcdY:
   597                           	callstack 0
   598  0005EE                     	ds	1
   599  0005EF                     _g_LcdX:
   600                           	callstack 0
   601  0005EF                     	ds	1
   602  0005F0                     _contador:
   603                           	callstack 0
   604  0005F0                     	ds	1
   605  0005F1                     _uart1RxLastError:
   606                           	callstack 0
   607  0005F1                     	ds	1
   608                           
   609                           	psect	bssBANK6
   610  000600                     __pbssBANK6:
   611                           	callstack 0
   612  000600                     _dbuf:
   613                           	callstack 0
   614  000600                     	ds	80
   615  000650                     _buffer:
   616                           	callstack 0
   617  000650                     	ds	40
   618                           
   619                           	psect	dataBANK6
   620  000686                     __pdataBANK6:
   621                           	callstack 0
   622  000686                     _mV:
   623                           	callstack 0
   624  000686                     	ds	4
   625                           
   626                           	psect	cstackBANK5
   627  000560                     __pcstackBANK5:
   628                           	callstack 0
   629  000560                     _efgtoa$2517:
   630                           	callstack 0
   631                           
   632                           ; 2 bytes @ 0x0
   633  000560                     	ds	2
   634  000562                     _efgtoa$2518:
   635                           	callstack 0
   636                           
   637                           ; 2 bytes @ 0x2
   638  000562                     	ds	2
   639  000564                     _efgtoa$2522:
   640                           	callstack 0
   641                           
   642                           ; 2 bytes @ 0x4
   643  000564                     	ds	2
   644  000566                     _efgtoa$2526:
   645                           	callstack 0
   646                           
   647                           ; 2 bytes @ 0x6
   648  000566                     	ds	2
   649  000568                     _efgtoa$2527:
   650                           	callstack 0
   651                           
   652                           ; 2 bytes @ 0x8
   653  000568                     	ds	2
   654  00056A                     _efgtoa$2528:
   655                           	callstack 0
   656                           
   657                           ; 2 bytes @ 0xA
   658  00056A                     	ds	2
   659  00056C                     efgtoa@t:
   660                           	callstack 0
   661                           
   662                           ; 2 bytes @ 0xC
   663  00056C                     	ds	2
   664  00056E                     efgtoa@pp:
   665                           	callstack 0
   666                           
   667                           ; 2 bytes @ 0xE
   668  00056E                     	ds	2
   669  000570                     efgtoa@ne:
   670                           	callstack 0
   671                           
   672                           ; 2 bytes @ 0x10
   673  000570                     	ds	2
   674  000572                     efgtoa@m:
   675                           	callstack 0
   676                           
   677                           ; 2 bytes @ 0x12
   678  000572                     	ds	2
   679  000574                     efgtoa@ou:
   680                           	callstack 0
   681                           
   682                           ; 4 bytes @ 0x14
   683  000574                     	ds	4
   684  000578                     efgtoa@d:
   685                           	callstack 0
   686                           
   687                           ; 2 bytes @ 0x18
   688  000578                     	ds	2
   689  00057A                     efgtoa@sign:
   690                           	callstack 0
   691                           
   692                           ; 2 bytes @ 0x1A
   693  00057A                     	ds	2
   694  00057C                     efgtoa@p:
   695                           	callstack 0
   696                           
   697                           ; 2 bytes @ 0x1C
   698  00057C                     	ds	2
   699  00057E                     efgtoa@w:
   700                           	callstack 0
   701                           
   702                           ; 2 bytes @ 0x1E
   703  00057E                     	ds	2
   704  000580                     efgtoa@nmode:
   705                           	callstack 0
   706                           
   707                           ; 1 bytes @ 0x20
   708  000580                     	ds	1
   709  000581                     efgtoa@mode:
   710                           	callstack 0
   711                           
   712                           ; 1 bytes @ 0x21
   713  000581                     	ds	1
   714  000582                     efgtoa@h:
   715                           	callstack 0
   716                           
   717                           ; 4 bytes @ 0x22
   718  000582                     	ds	4
   719  000586                     efgtoa@l:
   720                           	callstack 0
   721                           
   722                           ; 4 bytes @ 0x26
   723  000586                     	ds	4
   724  00058A                     efgtoa@i:
   725                           	callstack 0
   726                           
   727                           ; 2 bytes @ 0x2A
   728  00058A                     	ds	2
   729  00058C                     efgtoa@g:
   730                           	callstack 0
   731                           
   732                           ; 4 bytes @ 0x2C
   733  00058C                     	ds	4
   734  000590                     efgtoa@e:
   735                           	callstack 0
   736                           
   737                           ; 2 bytes @ 0x30
   738  000590                     	ds	2
   739  000592                     efgtoa@n:
   740                           	callstack 0
   741                           
   742                           ; 2 bytes @ 0x32
   743  000592                     	ds	2
   744  000594                     efgtoa@u:
   745                           	callstack 0
   746                           
   747                           ; 4 bytes @ 0x34
   748  000594                     	ds	4
   749  000598                     ?_vfprintf:
   750                           	callstack 0
   751  000598                     vfprintf@fp:
   752                           	callstack 0
   753                           
   754                           ; 2 bytes @ 0x38
   755  000598                     	ds	2
   756  00059A                     vfprintf@fmt:
   757                           	callstack 0
   758                           
   759                           ; 2 bytes @ 0x3A
   760  00059A                     	ds	2
   761  00059C                     vfprintf@ap:
   762                           	callstack 0
   763                           
   764                           ; 2 bytes @ 0x3C
   765  00059C                     	ds	2
   766  00059E                     ?_printf:
   767                           	callstack 0
   768  00059E                     ?_sprintf:
   769                           	callstack 0
   770  00059E                     sprintf@s:
   771                           	callstack 0
   772  00059E                     printf@fmt:
   773                           	callstack 0
   774                           
   775                           ; 2 bytes @ 0x3E
   776  00059E                     	ds	2
   777  0005A0                     sprintf@fmt:
   778                           	callstack 0
   779                           
   780                           ; 2 bytes @ 0x40
   781  0005A0                     	ds	10
   782  0005AA                     sprintf@ap:
   783                           	callstack 0
   784                           
   785                           ; 2 bytes @ 0x4A
   786  0005AA                     	ds	2
   787  0005AC                     printf@ap:
   788                           	callstack 0
   789  0005AC                     sprintf@f:
   790                           	callstack 0
   791                           
   792                           ; 6 bytes @ 0x4C
   793  0005AC                     	ds	6
   794  0005B2                     ??_main:
   795                           
   796                           ; 1 bytes @ 0x52
   797  0005B2                     	ds	2
   798                           
   799                           	psect	cstackCOMRAM
   800  000501                     __pcstackCOMRAM:
   801                           	callstack 0
   802  000501                     ?_strlen:
   803                           	callstack 0
   804  000501                     ?___fpclassifyf:
   805                           	callstack 0
   806  000501                     ?_isupper:
   807                           	callstack 0
   808  000501                     ?_strncmp:
   809                           	callstack 0
   810  000501                     ?_ADC_GetSingleConversion:
   811                           	callstack 0
   812  000501                     ?___awdiv:
   813                           	callstack 0
   814  000501                     ?___awmod:
   815                           	callstack 0
   816  000501                     ?___fladd:
   817                           	callstack 0
   818  000501                     ?___fldiv:
   819                           	callstack 0
   820  000501                     ?___flneg:
   821                           	callstack 0
   822  000501                     ?___fltol:
   823                           	callstack 0
   824  000501                     ?___xxtofl:
   825                           	callstack 0
   826  000501                     ?___aodiv:
   827                           	callstack 0
   828  000501                     ?___aomod:
   829                           	callstack 0
   830  000501                     UART1_Write@txData:
   831                           	callstack 0
   832  000501                     ___awdiv@dividend:
   833                           	callstack 0
   834  000501                     ___awmod@dividend:
   835                           	callstack 0
   836  000501                     isupper@c:
   837                           	callstack 0
   838  000501                     strcpy@dest:
   839                           	callstack 0
   840  000501                     strlen@s:
   841                           	callstack 0
   842  000501                     strncmp@_l:
   843                           	callstack 0
   844  000501                     UART1_SetFramingErrorHandler@interruptHandler:
   845                           	callstack 0
   846  000501                     UART1_SetOverrunErrorHandler@interruptHandler:
   847                           	callstack 0
   848  000501                     UART1_SetErrorHandler@interruptHandler:
   849                           	callstack 0
   850  000501                     ADC_SetADIInterruptHandler@InterruptHandler:
   851                           	callstack 0
   852  000501                     ADC_SetContext1ThresholdInterruptHandler@InterruptHandler:
   853                           	callstack 0
   854  000501                     ADC_SetActiveClockTuningInterruptHandler@InterruptHandler:
   855                           	callstack 0
   856  000501                     ___fleq@ff1:
   857                           	callstack 0
   858  000501                     ___flneg@f1:
   859                           	callstack 0
   860  000501                     ___fltol@f1:
   861                           	callstack 0
   862  000501                     ___fladd@b:
   863                           	callstack 0
   864  000501                     ___fldiv@b:
   865                           	callstack 0
   866  000501                     ___xxtofl@val:
   867                           	callstack 0
   868  000501                     ___fpclassifyf@x:
   869                           	callstack 0
   870  000501                     ___aodiv@dividend:
   871                           	callstack 0
   872  000501                     ___aomod@dividend:
   873                           	callstack 0
   874                           
   875                           ; 8 bytes @ 0x0
   876  000501                     	ds	1
   877  000502                     putch@txData:
   878                           	callstack 0
   879                           
   880                           ; 1 bytes @ 0x1
   881  000502                     	ds	1
   882  000503                     ??_isupper:
   883  000503                     ??_ADC_GetSingleConversion:
   884  000503                     ___awdiv@divisor:
   885                           	callstack 0
   886  000503                     ___awmod@divisor:
   887                           	callstack 0
   888  000503                     fputc@c:
   889                           	callstack 0
   890  000503                     strcpy@src:
   891                           	callstack 0
   892  000503                     strlen@a:
   893                           	callstack 0
   894  000503                     strncmp@_r:
   895                           	callstack 0
   896                           
   897                           ; 2 bytes @ 0x2
   898  000503                     	ds	1
   899  000504                     
   900                           ; 1 bytes @ 0x3
   901  000504                     	ds	1
   902  000505                     ??___fpclassifyf:
   903  000505                     ??_strcpy:
   904  000505                     ??___fltol:
   905  000505                     ??___xxtofl:
   906  000505                     ADC_GetSingleConversion@channel:
   907                           	callstack 0
   908  000505                     ___awdiv@counter:
   909                           	callstack 0
   910  000505                     ___awmod@counter:
   911                           	callstack 0
   912  000505                     fputc@fp:
   913                           	callstack 0
   914  000505                     strncmp@n:
   915                           	callstack 0
   916  000505                     ___fleq@ff2:
   917                           	callstack 0
   918  000505                     ___fladd@a:
   919                           	callstack 0
   920  000505                     ___fldiv@a:
   921                           	callstack 0
   922                           
   923                           ; 4 bytes @ 0x4
   924  000505                     	ds	1
   925  000506                     ___awdiv@sign:
   926                           	callstack 0
   927  000506                     ___awmod@sign:
   928                           	callstack 0
   929                           
   930                           ; 1 bytes @ 0x5
   931  000506                     	ds	1
   932  000507                     ??_fputc:
   933  000507                     ??_strncmp:
   934  000507                     ?_tolower:
   935                           	callstack 0
   936  000507                     ___awdiv@quotient:
   937                           	callstack 0
   938  000507                     strcpy@s:
   939                           	callstack 0
   940  000507                     tolower@c:
   941                           	callstack 0
   942                           
   943                           ; 2 bytes @ 0x6
   944  000507                     	ds	1
   945  000508                     strncmp@l:
   946                           	callstack 0
   947                           
   948                           ; 2 bytes @ 0x7
   949  000508                     	ds	1
   950  000509                     ??___fladd:
   951  000509                     ??___fldiv:
   952  000509                     ??_tolower:
   953  000509                     ??___fleq:
   954  000509                     ___fltol@sign1:
   955                           	callstack 0
   956  000509                     ___xxtofl@sign:
   957                           	callstack 0
   958  000509                     ___fpclassifyf@e:
   959                           	callstack 0
   960  000509                     strcpy@d:
   961                           	callstack 0
   962  000509                     ___aodiv@divisor:
   963                           	callstack 0
   964  000509                     ___aomod@divisor:
   965                           	callstack 0
   966                           
   967                           ; 8 bytes @ 0x8
   968  000509                     	ds	1
   969  00050A                     ___fltol@exp1:
   970                           	callstack 0
   971  00050A                     ___xxtofl@exp:
   972                           	callstack 0
   973  00050A                     strncmp@r:
   974                           	callstack 0
   975                           
   976                           ; 2 bytes @ 0x9
   977  00050A                     	ds	1
   978  00050B                     ___xxtofl@arg:
   979                           	callstack 0
   980  00050B                     ___fpclassifyf@u:
   981                           	callstack 0
   982                           
   983                           ; 4 bytes @ 0xA
   984  00050B                     	ds	1
   985  00050C                     fputs@s:
   986                           	callstack 0
   987                           
   988                           ; 2 bytes @ 0xB
   989  00050C                     	ds	1
   990  00050D                     ___fladd@signs:
   991                           	callstack 0
   992  00050D                     _tolower$2650:
   993                           	callstack 0
   994  00050D                     ___fldiv@rem:
   995                           	callstack 0
   996                           
   997                           ; 4 bytes @ 0xC
   998  00050D                     	ds	1
   999  00050E                     ___fladd@aexp:
  1000                           	callstack 0
  1001  00050E                     fputs@fp:
  1002                           	callstack 0
  1003                           
  1004                           ; 2 bytes @ 0xD
  1005  00050E                     	ds	1
  1006  00050F                     ?___flmul:
  1007                           	callstack 0
  1008  00050F                     ___fladd@bexp:
  1009                           	callstack 0
  1010  00050F                     ___flmul@b:
  1011                           	callstack 0
  1012                           
  1013                           ; 4 bytes @ 0xE
  1014  00050F                     	ds	1
  1015  000510                     ___fladd@grs:
  1016                           	callstack 0
  1017  000510                     fputs@c:
  1018                           	callstack 0
  1019                           
  1020                           ; 1 bytes @ 0xF
  1021  000510                     	ds	1
  1022  000511                     ___aodiv@counter:
  1023                           	callstack 0
  1024  000511                     ___aomod@counter:
  1025                           	callstack 0
  1026  000511                     ___fldiv@sign:
  1027                           	callstack 0
  1028  000511                     fputs@i:
  1029                           	callstack 0
  1030                           
  1031                           ; 2 bytes @ 0x10
  1032  000511                     	ds	1
  1033  000512                     ___aodiv@sign:
  1034                           	callstack 0
  1035  000512                     ___aomod@sign:
  1036                           	callstack 0
  1037  000512                     ___fldiv@new_exp:
  1038                           	callstack 0
  1039                           
  1040                           ; 2 bytes @ 0x11
  1041  000512                     	ds	1
  1042  000513                     ?_abs:
  1043                           	callstack 0
  1044  000513                     ?_pad:
  1045                           	callstack 0
  1046  000513                     pad@fp:
  1047                           	callstack 0
  1048  000513                     abs@a:
  1049                           	callstack 0
  1050  000513                     ___flmul@a:
  1051                           	callstack 0
  1052  000513                     ___aodiv@quotient:
  1053                           	callstack 0
  1054                           
  1055                           ; 8 bytes @ 0x12
  1056  000513                     	ds	1
  1057  000514                     ___fldiv@grs:
  1058                           	callstack 0
  1059                           
  1060                           ; 4 bytes @ 0x13
  1061  000514                     	ds	1
  1062  000515                     ??_abs:
  1063  000515                     pad@buf:
  1064                           	callstack 0
  1065                           
  1066                           ; 2 bytes @ 0x14
  1067  000515                     	ds	2
  1068  000517                     ??___flmul:
  1069  000517                     pad@p:
  1070                           	callstack 0
  1071                           
  1072                           ; 2 bytes @ 0x16
  1073  000517                     	ds	1
  1074  000518                     ___fldiv@bexp:
  1075                           	callstack 0
  1076                           
  1077                           ; 1 bytes @ 0x17
  1078  000518                     	ds	1
  1079  000519                     ??_pad:
  1080  000519                     ___fldiv@aexp:
  1081                           	callstack 0
  1082                           
  1083                           ; 1 bytes @ 0x18
  1084  000519                     	ds	1
  1085  00051A                     ?_floorf:
  1086                           	callstack 0
  1087  00051A                     pad@i:
  1088                           	callstack 0
  1089  00051A                     floorf@x:
  1090                           	callstack 0
  1091                           
  1092                           ; 4 bytes @ 0x19
  1093  00051A                     	ds	1
  1094  00051B                     ___flmul@sign:
  1095                           	callstack 0
  1096                           
  1097                           ; 1 bytes @ 0x1A
  1098  00051B                     	ds	1
  1099  00051C                     pad@w:
  1100                           	callstack 0
  1101  00051C                     ___flmul@grs:
  1102                           	callstack 0
  1103                           
  1104                           ; 4 bytes @ 0x1B
  1105  00051C                     	ds	2
  1106  00051E                     ??_floorf:
  1107  00051E                     ?_dtoa:
  1108                           	callstack 0
  1109  00051E                     dtoa@fp:
  1110                           	callstack 0
  1111                           
  1112                           ; 2 bytes @ 0x1D
  1113  00051E                     	ds	2
  1114  000520                     ___flmul@aexp:
  1115                           	callstack 0
  1116  000520                     dtoa@d:
  1117                           	callstack 0
  1118                           
  1119                           ; 8 bytes @ 0x1F
  1120  000520                     	ds	1
  1121  000521                     ___flmul@bexp:
  1122                           	callstack 0
  1123                           
  1124                           ; 1 bytes @ 0x20
  1125  000521                     	ds	1
  1126  000522                     ___flmul@prod:
  1127                           	callstack 0
  1128                           
  1129                           ; 4 bytes @ 0x21
  1130  000522                     	ds	2
  1131  000524                     floorf@m:
  1132                           	callstack 0
  1133                           
  1134                           ; 4 bytes @ 0x23
  1135  000524                     	ds	2
  1136  000526                     ___flmul@temp:
  1137                           	callstack 0
  1138                           
  1139                           ; 2 bytes @ 0x25
  1140  000526                     	ds	2
  1141  000528                     ??_dtoa:
  1142  000528                     ?___flsub:
  1143                           	callstack 0
  1144  000528                     floorf@e:
  1145                           	callstack 0
  1146  000528                     ___flge@ff1:
  1147                           	callstack 0
  1148  000528                     ___flsub@b:
  1149                           	callstack 0
  1150                           
  1151                           ; 4 bytes @ 0x27
  1152  000528                     	ds	2
  1153  00052A                     floorf@u:
  1154                           	callstack 0
  1155                           
  1156                           ; 4 bytes @ 0x29
  1157  00052A                     	ds	2
  1158  00052C                     ___flge@ff2:
  1159                           	callstack 0
  1160  00052C                     ___flsub@a:
  1161                           	callstack 0
  1162                           
  1163                           ; 4 bytes @ 0x2B
  1164  00052C                     	ds	4
  1165  000530                     ??___flge:
  1166  000530                     _dtoa$2493:
  1167                           	callstack 0
  1168                           
  1169                           ; 2 bytes @ 0x2F
  1170  000530                     	ds	2
  1171  000532                     dtoa@p:
  1172                           	callstack 0
  1173                           
  1174                           ; 2 bytes @ 0x31
  1175  000532                     	ds	2
  1176  000534                     ?_efgtoa:
  1177                           	callstack 0
  1178  000534                     dtoa@w:
  1179                           	callstack 0
  1180  000534                     efgtoa@fp:
  1181                           	callstack 0
  1182                           
  1183                           ; 2 bytes @ 0x33
  1184  000534                     	ds	2
  1185  000536                     dtoa@s:
  1186                           	callstack 0
  1187  000536                     efgtoa@f:
  1188                           	callstack 0
  1189                           
  1190                           ; 4 bytes @ 0x35
  1191  000536                     	ds	2
  1192  000538                     dtoa@n:
  1193                           	callstack 0
  1194                           
  1195                           ; 8 bytes @ 0x37
  1196  000538                     	ds	2
  1197  00053A                     efgtoa@c:
  1198                           	callstack 0
  1199                           
  1200                           ; 1 bytes @ 0x39
  1201  00053A                     	ds	1
  1202  00053B                     ??_efgtoa:
  1203                           
  1204                           ; 1 bytes @ 0x3A
  1205  00053B                     	ds	5
  1206  000540                     dtoa@i:
  1207                           	callstack 0
  1208                           
  1209                           ; 2 bytes @ 0x3F
  1210  000540                     	ds	2
  1211  000542                     ?_vfpfcnvrt:
  1212                           	callstack 0
  1213  000542                     vfpfcnvrt@fp:
  1214                           	callstack 0
  1215                           
  1216                           ; 2 bytes @ 0x41
  1217  000542                     	ds	2
  1218  000544                     vfpfcnvrt@fmt:
  1219                           	callstack 0
  1220                           
  1221                           ; 2 bytes @ 0x43
  1222  000544                     	ds	2
  1223  000546                     vfpfcnvrt@ap:
  1224                           	callstack 0
  1225                           
  1226                           ; 2 bytes @ 0x45
  1227  000546                     	ds	2
  1228  000548                     ??_vfpfcnvrt:
  1229                           
  1230                           ; 1 bytes @ 0x47
  1231  000548                     	ds	4
  1232  00054C                     vfpfcnvrt@ll:
  1233                           	callstack 0
  1234                           
  1235                           ; 8 bytes @ 0x4B
  1236  00054C                     	ds	8
  1237  000554                     _vfpfcnvrt$2546:
  1238                           	callstack 0
  1239                           
  1240                           ; 2 bytes @ 0x53
  1241  000554                     	ds	2
  1242  000556                     vfpfcnvrt@f:
  1243                           	callstack 0
  1244                           
  1245                           ; 4 bytes @ 0x55
  1246  000556                     	ds	4
  1247  00055A                     vfpfcnvrt@ct:
  1248                           	callstack 0
  1249                           
  1250                           ; 3 bytes @ 0x59
  1251  00055A                     	ds	3
  1252  00055D                     vfpfcnvrt@c:
  1253                           	callstack 0
  1254                           
  1255                           ; 1 bytes @ 0x5C
  1256  00055D                     	ds	1
  1257  00055E                     vfprintf@cfmt:
  1258                           	callstack 0
  1259                           
  1260                           ; 2 bytes @ 0x5D
  1261  00055E                     	ds	2
  1262  000560                     
  1263                           ; 1 bytes @ 0x5F
  1264 ;;
  1265 ;;Main: autosize = 0, tempsize = 2, incstack = 0, save=0
  1266 ;;
  1267 ;; *************** function _main *****************
  1268 ;; Defined at:
  1269 ;;		line 15 in file "main.c"
  1270 ;; Parameters:    Size  Location     Type
  1271 ;;		None
  1272 ;; Auto vars:     Size  Location     Type
  1273 ;;		None
  1274 ;; Return value:  Size  Location     Type
  1275 ;;                  1    wreg      void 
  1276 ;; Registers used:
  1277 ;;		wreg, fsr0l, fsr0h, fsr1l, fsr1h, fsr2l, fsr2h, status,2, status,0, tblptrl, tblptrh, tblptru, prodl, prodh, cstack
  1278 ;; Tracked objects:
  1279 ;;		On entry : 0/0
  1280 ;;		On exit  : 0/0
  1281 ;;		Unchanged: 0/0
  1282 ;; Data sizes:     COMRAM   BANK5   BANK6   BANK7   BANK8   BANK9  BANK10  BANK11  BANK12  BANK13  BANK14  BANK15  BANK1
      +6  BANK17  BANK18  BANK19  BANK20  BANK21  BANK22  BANK23  BANK24  BANK25  BANK26  BANK27  BANK28  BANK29  BANK30  BANK3
      +1  BANK32  BANK33  BANK34  BANK35  BANK36  BANK37  BANK38  BANK39  BANK40  BANK41  BANK42  BANK43  BANK44  BANK45  BANK4
      +6  BANK47  BANK48  BANK49  BANK50  BANK51  BANK52  BANK53  BANK54
  1283 ;;      Params:         0       0       0       0       0       0       0       0       0       0       0       0       
      +0       0       0       0       0       0       0       0       0       0       0       0       0       0       0       
      +0       0       0       0       0       0       0       0       0       0       0       0       0       0       0       
      +0       0       0       0       0       0       0       0       0
  1284 ;;      Locals:         0       0       0       0       0       0       0       0       0       0       0       0       
      +0       0       0       0       0       0       0       0       0       0       0       0       0       0       0       
      +0       0       0       0       0       0       0       0       0       0       0       0       0       0       0       
      +0       0       0       0       0       0       0       0       0
  1285 ;;      Temps:          0       2       0       0       0       0       0       0       0       0       0       0       
      +0       0       0       0       0       0       0       0       0       0       0       0       0       0       0       
      +0       0       0       0       0       0       0       0       0       0       0       0       0       0       0       
      +0       0       0       0       0       0       0       0       0
  1286 ;;      Totals:         0       2       0       0       0       0       0       0       0       0       0       0       
      +0       0       0       0       0       0       0       0       0       0       0       0       0       0       0       
      +0       0       0       0       0       0       0       0       0       0       0       0       0       0       0       
      +0       0       0       0       0       0       0       0       0
  1287 ;;Total ram usage:        2 bytes
  1288 ;; Hardware stack levels required when called: 9
  1289 ;; This function calls:
  1290 ;;		_ADC_GetSingleConversion
  1291 ;;		_SYSTEM_Initialize
  1292 ;;		___fldiv
  1293 ;;		___flmul
  1294 ;;		___xxtofl
  1295 ;;		_printf
  1296 ;;		_sprintf
  1297 ;; This function is called by:
  1298 ;;		Startup code after reset
  1299 ;; This function uses a non-reentrant model
  1300 ;;
  1301                           
  1302                           	psect	text0
  1303  005F06                     __ptext0:
  1304                           	callstack 0
  1305  005F06                     _main:
  1306                           	callstack 118
  1307  005F06                     
  1308                           ;main.c: 18:     SYSTEM_Initialize();
  1309  005F06  ECE7  F036         	call	_SYSTEM_Initialize	;wreg free
  1310  005F0A  96C3               	bcf	195,3,c	;volatile
  1311  005F0C  86C3               	bsf	195,3,c	;volatile
  1312  005F0E                     l6991:
  1313  005F0E  B6C3               	btfsc	195,3,c	;volatile
  1314  005F10  EF8C  F02F         	goto	u6641
  1315  005F14  EF8F  F02F         	goto	u6640
  1316  005F18                     u6641:
  1317  005F18  0E01               	movlw	1
  1318  005F1A  EF90  F02F         	goto	u6646
  1319  005F1E                     u6640:
  1320  005F1E  0E00               	movlw	0
  1321  005F20                     u6646:
  1322  005F20  0AFF               	xorlw	255
  1323  005F22  0105               	movlb	5	; () banked
  1324  005F24  6FB2               	movwf	??_main& (0+255),b
  1325  005F26  47B2               	rlncf	??_main& (0+255),f,b
  1326  005F28  47B2               	rlncf	??_main& (0+255),f,b
  1327  005F2A  47B2               	rlncf	??_main& (0+255),f,b
  1328  005F2C  50C3               	movf	195,w,c	;volatile
  1329  005F2E  19B2               	xorwf	??_main& (0+255),w,b
  1330  005F30  0BF7               	andlw	-9
  1331  005F32  19B2               	xorwf	??_main& (0+255),w,b
  1332  005F34  6EC3               	movwf	195,c	;volatile
  1333  005F36                     
  1334                           ; BSR set to: 5
  1335                           ;main.c: 37:         lecturaADC = ADC_GetSingleConversion(LM35);
  1336  005F36  0E05               	movlw	5
  1337  005F38  EC90  F036         	call	_ADC_GetSingleConversion
  1338  005F3C  C501  F5FE         	movff	?_ADC_GetSingleConversion,_lecturaADC
  1339  005F40  C502  F5FF         	movff	?_ADC_GetSingleConversion+1,_lecturaADC+1
  1340  005F44                     
  1341                           ;main.c: 38:         V = mV*lecturaADC;
  1342  005F44  C5FE  F501         	movff	_lecturaADC,___xxtofl@val
  1343  005F48  C5FF  F502         	movff	_lecturaADC+1,___xxtofl@val+1
  1344  005F4C  6A03               	clrf	(___xxtofl@val+2)^(0+1280),c
  1345  005F4E  6A04               	clrf	(___xxtofl@val+3)^(0+1280),c
  1346  005F50  0E00               	movlw	0
  1347  005F52  EC33  F02D         	call	___xxtofl
  1348  005F56  C501  F50F         	movff	?___xxtofl,___flmul@b
  1349  005F5A  C502  F510         	movff	?___xxtofl+1,___flmul@b+1
  1350  005F5E  C503  F511         	movff	?___xxtofl+2,___flmul@b+2
  1351  005F62  C504  F512         	movff	?___xxtofl+3,___flmul@b+3
  1352  005F66  0E67               	movlw	103
  1353  005F68  6E13               	movwf	___flmul@a^(0+1280),c
  1354  005F6A  0E40               	movlw	64
  1355  005F6C  6E14               	movwf	(___flmul@a+1)^(0+1280),c
  1356  005F6E  0E53               	movlw	83
  1357  005F70  6E15               	movwf	(___flmul@a+2)^(0+1280),c
  1358  005F72  0E3A               	movlw	58
  1359  005F74  6E16               	movwf	(___flmul@a+3)^(0+1280),c
  1360  005F76  ECC3  F026         	call	___flmul	;wreg free
  1361  005F7A  C50F  F67C         	movff	?___flmul,_V
  1362  005F7E  C510  F67D         	movff	?___flmul+1,_V+1
  1363  005F82  C511  F67E         	movff	?___flmul+2,_V+2
  1364  005F86  C512  F67F         	movff	?___flmul+3,_V+3
  1365  005F8A                     
  1366                           ;main.c: 39:         temperatura = V / 0.01;
  1367  005F8A  C67C  F501         	movff	_V,___fldiv@b
  1368  005F8E  C67D  F502         	movff	_V+1,___fldiv@b+1
  1369  005F92  C67E  F503         	movff	_V+2,___fldiv@b+2
  1370  005F96  C67F  F504         	movff	_V+3,___fldiv@b+3
  1371  005F9A  0E0A               	movlw	10
  1372  005F9C  6E05               	movwf	___fldiv@a^(0+1280),c
  1373  005F9E  0ED7               	movlw	215
  1374  005FA0  6E06               	movwf	(___fldiv@a+1)^(0+1280),c
  1375  005FA2  0E23               	movlw	35
  1376  005FA4  6E07               	movwf	(___fldiv@a+2)^(0+1280),c
  1377  005FA6  0E3C               	movlw	60
  1378  005FA8  6E08               	movwf	(___fldiv@a+3)^(0+1280),c
  1379  005FAA  ECEA  F028         	call	___fldiv	;wreg free
  1380  005FAE  C501  F678         	movff	?___fldiv,_temperatura
  1381  005FB2  C502  F679         	movff	?___fldiv+1,_temperatura+1
  1382  005FB6  C503  F67A         	movff	?___fldiv+2,_temperatura+2
  1383  005FBA  C504  F67B         	movff	?___fldiv+3,_temperatura+3
  1384  005FBE                     
  1385                           ;main.c: 40:         printf("cont=%d, ADC=%i\nV=%f, Temp=%f\n\n",contador++,lecturaADC, 
      +                          V, temperatura);
  1386  005FBE  0E3E               	movlw	low STR_1
  1387  005FC0  0105               	movlb	5	; () banked
  1388  005FC2  6F9E               	movwf	printf@fmt& (0+255),b
  1389  005FC4  0E37               	movlw	high STR_1
  1390  005FC6  6F9F               	movwf	(printf@fmt+1)& (0+255),b
  1391  005FC8  C5F0  F5A0         	movff	_contador,?_printf+2
  1392  005FCC  6BA1               	clrf	(?_printf+3)& (0+255),b
  1393  005FCE  C5FE  F5A2         	movff	_lecturaADC,?_printf+4
  1394  005FD2  C5FF  F5A3         	movff	_lecturaADC+1,?_printf+5
  1395  005FD6  C67C  F5A4         	movff	_V,?_printf+6
  1396  005FDA  C67D  F5A5         	movff	_V+1,?_printf+7
  1397  005FDE  C67E  F5A6         	movff	_V+2,?_printf+8
  1398  005FE2  C67F  F5A7         	movff	_V+3,?_printf+9
  1399  005FE6  C678  F5A8         	movff	_temperatura,?_printf+10
  1400  005FEA  C679  F5A9         	movff	_temperatura+1,?_printf+11
  1401  005FEE  C67A  F5AA         	movff	_temperatura+2,?_printf+12
  1402  005FF2  C67B  F5AB         	movff	_temperatura+3,?_printf+13
  1403  005FF6  ECBF  F036         	call	_printf	;wreg free
  1404  005FFA  0105               	movlb	5	; () banked
  1405  005FFC  2BF0               	incf	_contador& (0+255),f,b
  1406  005FFE                     
  1407                           ; BSR set to: 5
  1408                           ;main.c: 42:         _delay((unsigned long)((500)*(10000000/4000.0)));
  1409  005FFE  0E07               	movlw	7
  1410  006000  0105               	movlb	5	; () banked
  1411  006002  6FB3               	movwf	(??_main+1)& (0+255),b
  1412  006004  0E58               	movlw	88
  1413  006006  6FB2               	movwf	??_main& (0+255),b
  1414  006008  0E59               	movlw	89
  1415  00600A                     u6687:
  1416  00600A  2EE8               	decfsz	wreg,f,c
  1417  00600C  D7FE               	bra	u6687
  1418  00600E  2FB2               	decfsz	??_main& (0+255),f,b
  1419  006010  D7FC               	bra	u6687
  1420  006012  2FB3               	decfsz	(??_main+1)& (0+255),f,b
  1421  006014  D7FA               	bra	u6687
  1422  006016  D000               	nop2	
  1423  006018                     
  1424                           ;main.c: 43:         sprintf(buffer,"\fcont=%d ADC=%i\n",contador,lecturaADC,temperatura
      +                          );
  1425  006018  0E50               	movlw	low _buffer
  1426  00601A  0105               	movlb	5	; () banked
  1427  00601C  6F9E               	movwf	sprintf@s& (0+255),b
  1428  00601E  0E06               	movlw	high _buffer
  1429  006020  6F9F               	movwf	(sprintf@s+1)& (0+255),b
  1430  006022  0E5E               	movlw	low STR_2
  1431  006024  6FA0               	movwf	sprintf@fmt& (0+255),b
  1432  006026  0E37               	movlw	high STR_2
  1433  006028  6FA1               	movwf	(sprintf@fmt+1)& (0+255),b
  1434  00602A  C5F0  F5A2         	movff	_contador,?_sprintf+4
  1435  00602E  6BA3               	clrf	(?_sprintf+5)& (0+255),b
  1436  006030  C5FE  F5A4         	movff	_lecturaADC,?_sprintf+6
  1437  006034  C5FF  F5A5         	movff	_lecturaADC+1,?_sprintf+7
  1438  006038  C678  F5A6         	movff	_temperatura,?_sprintf+8
  1439  00603C  C679  F5A7         	movff	_temperatura+1,?_sprintf+9
  1440  006040  C67A  F5A8         	movff	_temperatura+2,?_sprintf+10
  1441  006044  C67B  F5A9         	movff	_temperatura+3,?_sprintf+11
  1442  006048  EC8E  F035         	call	_sprintf	;wreg free
  1443  00604C  EF87  F02F         	goto	l6991
  1444  006050  EFFE  F0FF         	goto	start
  1445  006054                     __end_of_main:
  1446                           	callstack 0
  1447                           
  1448 ;; *************** function _sprintf *****************
  1449 ;; Defined at:
  1450 ;;		line 9 in file "C:\Program Files\Microchip\xc8\v2.32\pic\sources\c99\common\nf_sprintf.c"
  1451 ;; Parameters:    Size  Location     Type
  1452 ;;  s               2   62[BANK5 ] PTR unsigned char 
  1453 ;;		 -> buffer(40), 
  1454 ;;  fmt             2   64[BANK5 ] PTR const unsigned char 
  1455 ;;		 -> STR_2(17), 
  1456 ;; Auto vars:     Size  Location     Type
  1457 ;;  f               6   76[BANK5 ] struct _IO_FILE
  1458 ;;  ap              2   74[BANK5 ] PTR void [1]
  1459 ;;		 -> ?_printf(2), ?_sprintf(2), 
  1460 ;;  ret             2    0        int 
  1461 ;; Return value:  Size  Location     Type
  1462 ;;                  2   62[BANK5 ] int 
  1463 ;; Registers used:
  1464 ;;		wreg, fsr0l, fsr0h, fsr1l, fsr1h, fsr2l, fsr2h, status,2, status,0, tblptrl, tblptrh, tblptru, prodl, prodh, cstack
  1465 ;; Tracked objects:
  1466 ;;		On entry : 0/0
  1467 ;;		On exit  : 0/0
  1468 ;;		Unchanged: 0/0
  1469 ;; Data sizes:     COMRAM   BANK5   BANK6   BANK7   BANK8   BANK9  BANK10  BANK11  BANK12  BANK13  BANK14  BANK15  BANK1
      +6  BANK17  BANK18  BANK19  BANK20  BANK21  BANK22  BANK23  BANK24  BANK25  BANK26  BANK27  BANK28  BANK29  BANK30  BANK3
      +1  BANK32  BANK33  BANK34  BANK35  BANK36  BANK37  BANK38  BANK39  BANK40  BANK41  BANK42  BANK43  BANK44  BANK45  BANK4
      +6  BANK47  BANK48  BANK49  BANK50  BANK51  BANK52  BANK53  BANK54
  1470 ;;      Params:         0      12       0       0       0       0       0       0       0       0       0       0       
      +0       0       0       0       0       0       0       0       0       0       0       0       0       0       0       
      +0       0       0       0       0       0       0       0       0       0       0       0       0       0       0       
      +0       0       0       0       0       0       0       0       0
  1471 ;;      Locals:         0       8       0       0       0       0       0       0       0       0       0       0       
      +0       0       0       0       0       0       0       0       0       0       0       0       0       0       0       
      +0       0       0       0       0       0       0       0       0       0       0       0       0       0       0       
      +0       0       0       0       0       0       0       0       0
  1472 ;;      Temps:          0       0       0       0       0       0       0       0       0       0       0       0       
      +0       0       0       0       0       0       0       0       0       0       0       0       0       0       0       
      +0       0       0       0       0       0       0       0       0       0       0       0       0       0       0       
      +0       0       0       0       0       0       0       0       0
  1473 ;;      Totals:         0      20       0       0       0       0       0       0       0       0       0       0       
      +0       0       0       0       0       0       0       0       0       0       0       0       0       0       0       
      +0       0       0       0       0       0       0       0       0       0       0       0       0       0       0       
      +0       0       0       0       0       0       0       0       0
  1474 ;;Total ram usage:       20 bytes
  1475 ;; Hardware stack levels used: 1
  1476 ;; Hardware stack levels required when called: 8
  1477 ;; This function calls:
  1478 ;;		_vfprintf
  1479 ;; This function is called by:
  1480 ;;		_main
  1481 ;; This function uses a non-reentrant model
  1482 ;;
  1483                           
  1484                           	psect	text1
  1485  006B1C                     __ptext1:
  1486                           	callstack 0
  1487  006B1C                     _sprintf:
  1488                           	callstack 118
  1489  006B1C  0EA2               	movlw	low (?_sprintf+4)
  1490  006B1E  0105               	movlb	5	; () banked
  1491  006B20  6FAA               	movwf	sprintf@ap& (0+255),b
  1492  006B22  0E05               	movlw	high (?_sprintf+4)
  1493  006B24  6FAB               	movwf	(sprintf@ap+1)& (0+255),b
  1494  006B26  C59E  F5AC         	movff	sprintf@s,sprintf@f
  1495  006B2A  C59F  F5AD         	movff	sprintf@s+1,sprintf@f+1
  1496  006B2E                     
  1497                           ; BSR set to: 5
  1498  006B2E  0E00               	movlw	0
  1499  006B30  6FAF               	movwf	(sprintf@f+3)& (0+255),b
  1500  006B32  0E00               	movlw	0
  1501  006B34  6FAE               	movwf	(sprintf@f+2)& (0+255),b
  1502  006B36                     
  1503                           ; BSR set to: 5
  1504  006B36  0E00               	movlw	0
  1505  006B38  6FB1               	movwf	(sprintf@f+5)& (0+255),b
  1506  006B3A  0E00               	movlw	0
  1507  006B3C  6FB0               	movwf	(sprintf@f+4)& (0+255),b
  1508  006B3E                     
  1509                           ; BSR set to: 5
  1510  006B3E  0EAC               	movlw	low sprintf@f
  1511  006B40  6F98               	movwf	vfprintf@fp& (0+255),b
  1512  006B42  0E05               	movlw	high sprintf@f
  1513  006B44  6F99               	movwf	(vfprintf@fp+1)& (0+255),b
  1514  006B46  C5A0  F59A         	movff	sprintf@fmt,vfprintf@fmt
  1515  006B4A  C5A1  F59B         	movff	sprintf@fmt+1,vfprintf@fmt+1
  1516  006B4E  0EAA               	movlw	low sprintf@ap
  1517  006B50  6F9C               	movwf	vfprintf@ap& (0+255),b
  1518  006B52  0E05               	movlw	high sprintf@ap
  1519  006B54  6F9D               	movwf	(vfprintf@ap+1)& (0+255),b
  1520  006B56  ECF6  F034         	call	_vfprintf	;wreg free
  1521  006B5A  0105               	movlb	5	; () banked
  1522  006B5C  51AE               	movf	(sprintf@f+2)& (0+255),w,b
  1523  006B5E  259E               	addwf	sprintf@s& (0+255),w,b
  1524  006B60  6ED9               	movwf	fsr2l,c
  1525  006B62  51AF               	movf	(sprintf@f+3)& (0+255),w,b
  1526  006B64  219F               	addwfc	(sprintf@s+1)& (0+255),w,b
  1527  006B66  6EDA               	movwf	fsr2h,c
  1528  006B68  0E00               	movlw	0
  1529  006B6A  6EDF               	movwf	indf2,c
  1530  006B6C                     
  1531                           ; BSR set to: 5
  1532  006B6C  0012               	return		;funcret
  1533  006B6E                     __end_of_sprintf:
  1534                           	callstack 0
  1535                           
  1536 ;; *************** function _printf *****************
  1537 ;; Defined at:
  1538 ;;		line 5 in file "C:\Program Files\Microchip\xc8\v2.32\pic\sources\c99\common\printf.c"
  1539 ;; Parameters:    Size  Location     Type
  1540 ;;  fmt             2   62[BANK5 ] PTR const unsigned char 
  1541 ;;		 -> STR_1(32), 
  1542 ;; Auto vars:     Size  Location     Type
  1543 ;;  ap              2   76[BANK5 ] PTR void [1]
  1544 ;;		 -> ?_printf(2), ?_sprintf(2), 
  1545 ;;  ret             2    0        int 
  1546 ;; Return value:  Size  Location     Type
  1547 ;;                  2   62[BANK5 ] int 
  1548 ;; Registers used:
  1549 ;;		wreg, fsr0l, fsr0h, fsr1l, fsr1h, fsr2l, fsr2h, status,2, status,0, tblptrl, tblptrh, tblptru, prodl, prodh, cstack
  1550 ;; Tracked objects:
  1551 ;;		On entry : 0/0
  1552 ;;		On exit  : 0/0
  1553 ;;		Unchanged: 0/0
  1554 ;; Data sizes:     COMRAM   BANK5   BANK6   BANK7   BANK8   BANK9  BANK10  BANK11  BANK12  BANK13  BANK14  BANK15  BANK1
      +6  BANK17  BANK18  BANK19  BANK20  BANK21  BANK22  BANK23  BANK24  BANK25  BANK26  BANK27  BANK28  BANK29  BANK30  BANK3
      +1  BANK32  BANK33  BANK34  BANK35  BANK36  BANK37  BANK38  BANK39  BANK40  BANK41  BANK42  BANK43  BANK44  BANK45  BANK4
      +6  BANK47  BANK48  BANK49  BANK50  BANK51  BANK52  BANK53  BANK54
  1555 ;;      Params:         0      14       0       0       0       0       0       0       0       0       0       0       
      +0       0       0       0       0       0       0       0       0       0       0       0       0       0       0       
      +0       0       0       0       0       0       0       0       0       0       0       0       0       0       0       
      +0       0       0       0       0       0       0       0       0
  1556 ;;      Locals:         0       2       0       0       0       0       0       0       0       0       0       0       
      +0       0       0       0       0       0       0       0       0       0       0       0       0       0       0       
      +0       0       0       0       0       0       0       0       0       0       0       0       0       0       0       
      +0       0       0       0       0       0       0       0       0
  1557 ;;      Temps:          0       0       0       0       0       0       0       0       0       0       0       0       
      +0       0       0       0       0       0       0       0       0       0       0       0       0       0       0       
      +0       0       0       0       0       0       0       0       0       0       0       0       0       0       0       
      +0       0       0       0       0       0       0       0       0
  1558 ;;      Totals:         0      16       0       0       0       0       0       0       0       0       0       0       
      +0       0       0       0       0       0       0       0       0       0       0       0       0       0       0       
      +0       0       0       0       0       0       0       0       0       0       0       0       0       0       0       
      +0       0       0       0       0       0       0       0       0
  1559 ;;Total ram usage:       16 bytes
  1560 ;; Hardware stack levels used: 1
  1561 ;; Hardware stack levels required when called: 8
  1562 ;; This function calls:
  1563 ;;		_vfprintf
  1564 ;; This function is called by:
  1565 ;;		_main
  1566 ;; This function uses a non-reentrant model
  1567 ;;
  1568                           
  1569                           	psect	text2
  1570  006D7E                     __ptext2:
  1571                           	callstack 0
  1572  006D7E                     _printf:
  1573                           	callstack 118
  1574  006D7E  0EA0               	movlw	low (?_printf+2)
  1575  006D80  0105               	movlb	5	; () banked
  1576  006D82  6FAC               	movwf	printf@ap& (0+255),b
  1577  006D84  0E05               	movlw	high (?_printf+2)
  1578  006D86  6FAD               	movwf	(printf@ap+1)& (0+255),b
  1579  006D88                     
  1580                           ; BSR set to: 5
  1581  006D88  0E00               	movlw	0
  1582  006D8A  6F98               	movwf	vfprintf@fp& (0+255),b
  1583  006D8C  0E00               	movlw	0
  1584  006D8E  6F99               	movwf	(vfprintf@fp+1)& (0+255),b
  1585  006D90  C59E  F59A         	movff	printf@fmt,vfprintf@fmt
  1586  006D94  C59F  F59B         	movff	printf@fmt+1,vfprintf@fmt+1
  1587  006D98  0EAC               	movlw	low printf@ap
  1588  006D9A  6F9C               	movwf	vfprintf@ap& (0+255),b
  1589  006D9C  0E05               	movlw	high printf@ap
  1590  006D9E  6F9D               	movwf	(vfprintf@ap+1)& (0+255),b
  1591  006DA0  ECF6  F034         	call	_vfprintf	;wreg free
  1592  006DA4  0012               	return		;funcret
  1593  006DA6                     __end_of_printf:
  1594                           	callstack 0
  1595                           
  1596 ;; *************** function _vfprintf *****************
  1597 ;; Defined at:
  1598 ;;		line 1390 in file "C:\Program Files\Microchip\xc8\v2.32\pic\sources\c99\common\doprnt.c"
  1599 ;; Parameters:    Size  Location     Type
  1600 ;;  fp              2   56[BANK5 ] PTR struct _IO_FILE
  1601 ;;		 -> sprintf@f(6), NULL(0), 
  1602 ;;  fmt             2   58[BANK5 ] PTR const unsigned char 
  1603 ;;		 -> STR_2(17), STR_1(32), 
  1604 ;;  ap              2   60[BANK5 ] PTR PTR void 
  1605 ;;		 -> printf@ap(2), sprintf@ap(2), 
  1606 ;; Auto vars:     Size  Location     Type
  1607 ;;  cfmt            2   93[COMRAM] PTR unsigned char 
  1608 ;;		 -> STR_2(17), STR_1(32), 
  1609 ;; Return value:  Size  Location     Type
  1610 ;;                  2   56[BANK5 ] int 
  1611 ;; Registers used:
  1612 ;;		wreg, fsr0l, fsr0h, fsr1l, fsr1h, fsr2l, fsr2h, status,2, status,0, tblptrl, tblptrh, tblptru, prodl, prodh, cstack
  1613 ;; Tracked objects:
  1614 ;;		On entry : 0/0
  1615 ;;		On exit  : 0/0
  1616 ;;		Unchanged: 0/0
  1617 ;; Data sizes:     COMRAM   BANK5   BANK6   BANK7   BANK8   BANK9  BANK10  BANK11  BANK12  BANK13  BANK14  BANK15  BANK1
      +6  BANK17  BANK18  BANK19  BANK20  BANK21  BANK22  BANK23  BANK24  BANK25  BANK26  BANK27  BANK28  BANK29  BANK30  BANK3
      +1  BANK32  BANK33  BANK34  BANK35  BANK36  BANK37  BANK38  BANK39  BANK40  BANK41  BANK42  BANK43  BANK44  BANK45  BANK4
      +6  BANK47  BANK48  BANK49  BANK50  BANK51  BANK52  BANK53  BANK54
  1618 ;;      Params:         0       6       0       0       0       0       0       0       0       0       0       0       
      +0       0       0       0       0       0       0       0       0       0       0       0       0       0       0       
      +0       0       0       0       0       0       0       0       0       0       0       0       0       0       0       
      +0       0       0       0       0       0       0       0       0
  1619 ;;      Locals:         2       0       0       0       0       0       0       0       0       0       0       0       
      +0       0       0       0       0       0       0       0       0       0       0       0       0       0       0       
      +0       0       0       0       0       0       0       0       0       0       0       0       0       0       0       
      +0       0       0       0       0       0       0       0       0
  1620 ;;      Temps:          0       0       0       0       0       0       0       0       0       0       0       0       
      +0       0       0       0       0       0       0       0       0       0       0       0       0       0       0       
      +0       0       0       0       0       0       0       0       0       0       0       0       0       0       0       
      +0       0       0       0       0       0       0       0       0
  1621 ;;      Totals:         2       6       0       0       0       0       0       0       0       0       0       0       
      +0       0       0       0       0       0       0       0       0       0       0       0       0       0       0       
      +0       0       0       0       0       0       0       0       0       0       0       0       0       0       0       
      +0       0       0       0       0       0       0       0       0
  1622 ;;Total ram usage:        8 bytes
  1623 ;; Hardware stack levels used: 1
  1624 ;; Hardware stack levels required when called: 7
  1625 ;; This function calls:
  1626 ;;		_vfpfcnvrt
  1627 ;; This function is called by:
  1628 ;;		_sprintf
  1629 ;;		_printf
  1630 ;; This function uses a non-reentrant model
  1631 ;;
  1632                           
  1633                           	psect	text3
  1634  0069EC                     __ptext3:
  1635                           	callstack 0
  1636  0069EC                     _vfprintf:
  1637                           	callstack 118
  1638  0069EC                     
  1639                           ;C:\Program Files\Microchip\xc8\v2.32\pic\sources\c99\common\doprnt.c: 1390: int vfprint
      +                          f(FILE *fp, const char *fmt, va_list ap);C:\Program Files\Microchip\xc8\v2.32\pic\source
      +                          s\c99\common\doprnt.c: 1391: {;C:\Program Files\Microchip\xc8\v2.32\pic\sources\c99\comm
      +                          on\doprnt.c: 1393:     char *cfmt;;C:\Program Files\Microchip\xc8\v2.32\pic\sources\c99\
      +                          common\doprnt.c: 1395:     cfmt = (char *)fmt;
  1640  0069EC  C59A  F55E         	movff	vfprintf@fmt,vfprintf@cfmt
  1641  0069F0  C59B  F55F         	movff	vfprintf@fmt+1,vfprintf@cfmt+1
  1642  0069F4                     
  1643                           ;C:\Program Files\Microchip\xc8\v2.32\pic\sources\c99\common\doprnt.c: 1396:     nout = 
      +                          0;
  1644  0069F4  0E00               	movlw	0
  1645  0069F6  0105               	movlb	5	; () banked
  1646  0069F8  6FE7               	movwf	(_nout+1)& (0+255),b
  1647  0069FA  0E00               	movlw	0
  1648  0069FC  6FE6               	movwf	_nout& (0+255),b
  1649                           
  1650                           ;C:\Program Files\Microchip\xc8\v2.32\pic\sources\c99\common\doprnt.c: 1397:     while (
      +                          *cfmt) {
  1651  0069FE  EF14  F035         	goto	l6723
  1652  006A02                     l6721:
  1653                           
  1654                           ; BSR set to: 5
  1655                           ;C:\Program Files\Microchip\xc8\v2.32\pic\sources\c99\common\doprnt.c: 1398:         nou
      +                          t += vfpfcnvrt(fp, &cfmt, ap);
  1656  006A02  C598  F542         	movff	vfprintf@fp,vfpfcnvrt@fp
  1657  006A06  C599  F543         	movff	vfprintf@fp+1,vfpfcnvrt@fp+1
  1658  006A0A  0E5E               	movlw	low vfprintf@cfmt
  1659  006A0C  6E44               	movwf	vfpfcnvrt@fmt^(0+1280),c
  1660  006A0E  0E05               	movlw	high vfprintf@cfmt
  1661  006A10  6E45               	movwf	(vfpfcnvrt@fmt+1)^(0+1280),c
  1662  006A12  C59C  F546         	movff	vfprintf@ap,vfpfcnvrt@ap
  1663  006A16  C59D  F547         	movff	vfprintf@ap+1,vfpfcnvrt@ap+1
  1664  006A1A  ECF0  F021         	call	_vfpfcnvrt	;wreg free
  1665  006A1E  5042               	movf	?_vfpfcnvrt^(0+1280),w,c
  1666  006A20  0105               	movlb	5	; () banked
  1667  006A22  27E6               	addwf	_nout& (0+255),f,b
  1668  006A24  5043               	movf	(?_vfpfcnvrt+1)^(0+1280),w,c
  1669  006A26  23E7               	addwfc	(_nout+1)& (0+255),f,b
  1670  006A28                     l6723:
  1671                           
  1672                           ; BSR set to: 5
  1673                           ;C:\Program Files\Microchip\xc8\v2.32\pic\sources\c99\common\doprnt.c: 1397:     while (
      +                          *cfmt) {
  1674  006A28  0061  F578  F4F6   	movff	vfprintf@cfmt,tblptrl
  1675  006A2E  0061  F57C  F4F7   	movff	vfprintf@cfmt+1,tblptrh
  1676  006A34                     	if	0	;tblptru may be non-zero
  1677  006A34                     	endif
  1678  006A34                     	if	1	;Program memory is > 0xFFFF, there are 3 active tblptr bytes
  1679  006A34  0E00               	movlw	low (__mediumconst shr (0+16))
  1680  006A36  6EF8               	movwf	tblptru,c
  1681  006A38                     	endif
  1682  006A38  0008               	tblrd		*
  1683  006A3A  50F5               	movf	tablat,w,c
  1684  006A3C  0900               	iorlw	0
  1685  006A3E  A4D8               	btfss	status,2,c
  1686  006A40  EF24  F035         	goto	u6271
  1687  006A44  EF26  F035         	goto	u6270
  1688  006A48                     u6271:
  1689  006A48  EF01  F035         	goto	l6721
  1690  006A4C                     u6270:
  1691  006A4C                     
  1692                           ; BSR set to: 5
  1693                           ;C:\Program Files\Microchip\xc8\v2.32\pic\sources\c99\common\doprnt.c: 1400:     return 
      +                          nout;
  1694  006A4C  C5E6  F598         	movff	_nout,?_vfprintf
  1695  006A50  C5E7  F599         	movff	_nout+1,?_vfprintf+1
  1696  006A54                     
  1697                           ; BSR set to: 5
  1698  006A54  0012               	return		;funcret
  1699  006A56                     __end_of_vfprintf:
  1700                           	callstack 0
  1701                           
  1702 ;; *************** function _vfpfcnvrt *****************
  1703 ;; Defined at:
  1704 ;;		line 692 in file "C:\Program Files\Microchip\xc8\v2.32\pic\sources\c99\common\doprnt.c"
  1705 ;; Parameters:    Size  Location     Type
  1706 ;;  fp              2   65[COMRAM] PTR struct _IO_FILE
  1707 ;;		 -> sprintf@f(6), NULL(0), 
  1708 ;;  fmt             2   67[COMRAM] PTR PTR unsigned char 
  1709 ;;		 -> vfprintf@cfmt(2), 
  1710 ;;  ap              2   69[COMRAM] PTR PTR void 
  1711 ;;		 -> printf@ap(2), sprintf@ap(2), 
  1712 ;; Auto vars:     Size  Location     Type
  1713 ;;  ll              8   75[COMRAM] long long 
  1714 ;;  llu             8    0        unsigned long long 
  1715 ;;  f               4   85[COMRAM] unsigned long long 
  1716 ;;  ct              3   89[COMRAM] unsigned char [3]
  1717 ;;  vp              3    0        PTR void 
  1718 ;;  cp              3    0        PTR unsigned char 
  1719 ;;  i               2    0        int 
  1720 ;;  done            2    0        int 
  1721 ;;  c               1   92[COMRAM] unsigned char 
  1722 ;; Return value:  Size  Location     Type
  1723 ;;                  2   65[COMRAM] int 
  1724 ;; Registers used:
  1725 ;;		wreg, fsr0l, fsr0h, fsr1l, fsr1h, fsr2l, fsr2h, status,2, status,0, tblptrl, tblptrh, tblptru, prodl, prodh, cstack
  1726 ;; Tracked objects:
  1727 ;;		On entry : 0/0
  1728 ;;		On exit  : 0/0
  1729 ;;		Unchanged: 0/0
  1730 ;; Data sizes:     COMRAM   BANK5   BANK6   BANK7   BANK8   BANK9  BANK10  BANK11  BANK12  BANK13  BANK14  BANK15  BANK1
      +6  BANK17  BANK18  BANK19  BANK20  BANK21  BANK22  BANK23  BANK24  BANK25  BANK26  BANK27  BANK28  BANK29  BANK30  BANK3
      +1  BANK32  BANK33  BANK34  BANK35  BANK36  BANK37  BANK38  BANK39  BANK40  BANK41  BANK42  BANK43  BANK44  BANK45  BANK4
      +6  BANK47  BANK48  BANK49  BANK50  BANK51  BANK52  BANK53  BANK54
  1731 ;;      Params:         6       0       0       0       0       0       0       0       0       0       0       0       
      +0       0       0       0       0       0       0       0       0       0       0       0       0       0       0       
      +0       0       0       0       0       0       0       0       0       0       0       0       0       0       0       
      +0       0       0       0       0       0       0       0       0
  1732 ;;      Locals:        18       0       0       0       0       0       0       0       0       0       0       0       
      +0       0       0       0       0       0       0       0       0       0       0       0       0       0       0       
      +0       0       0       0       0       0       0       0       0       0       0       0       0       0       0       
      +0       0       0       0       0       0       0       0       0
  1733 ;;      Temps:          4       0       0       0       0       0       0       0       0       0       0       0       
      +0       0       0       0       0       0       0       0       0       0       0       0       0       0       0       
      +0       0       0       0       0       0       0       0       0       0       0       0       0       0       0       
      +0       0       0       0       0       0       0       0       0
  1734 ;;      Totals:        28       0       0       0       0       0       0       0       0       0       0       0       
      +0       0       0       0       0       0       0       0       0       0       0       0       0       0       0       
      +0       0       0       0       0       0       0       0       0       0       0       0       0       0       0       
      +0       0       0       0       0       0       0       0       0
  1735 ;;Total ram usage:       28 bytes
  1736 ;; Hardware stack levels used: 1
  1737 ;; Hardware stack levels required when called: 6
  1738 ;; This function calls:
  1739 ;;		_dtoa
  1740 ;;		_efgtoa
  1741 ;;		_fputc
  1742 ;;		_isupper
  1743 ;;		_strncmp
  1744 ;;		_tolower
  1745 ;; This function is called by:
  1746 ;;		_vfprintf
  1747 ;; This function uses a non-reentrant model
  1748 ;;
  1749                           
  1750                           	psect	text4
  1751  0043E0                     __ptext4:
  1752                           	callstack 0
  1753  0043E0                     _vfpfcnvrt:
  1754                           	callstack 118
  1755  0043E0                     
  1756                           ;C:\Program Files\Microchip\xc8\v2.32\pic\sources\c99\common\doprnt.c: 692: static int v
      +                          fpfcnvrt(FILE *fp, char *fmt[], va_list ap);C:\Program Files\Microchip\xc8\v2.32\pic\sou
      +                          rces\c99\common\doprnt.c: 693: {;C:\Program Files\Microchip\xc8\v2.32\pic\sources\c99\co
      +                          mmon\doprnt.c: 694:     char c, *cp, ct[3];;C:\Program Files\Microchip\xc8\v2.32\pic\sou
      +                          rces\c99\common\doprnt.c: 695:     int done, i;;C:\Program Files\Microchip\xc8\v2.32\pic
      +                          \sources\c99\common\doprnt.c: 696:     long long ll;;C:\Program Files\Microchip\xc8\v2.3
      +                          2\pic\sources\c99\common\doprnt.c: 697:     unsigned long long llu;
  1757  0043E0  0061  F510  F4D9   	movff	vfpfcnvrt@fmt,fsr2l
  1758  0043E6  0061  F514  F4DA   	movff	vfpfcnvrt@fmt+1,fsr2h
  1759  0043EC  C4DE F4F6          	movff	postinc2,tblptrl
  1760  0043F0  C4DD F4F7          	movff	postdec2,tblptrh
  1761  0043F4                     	if	0	;tblptru may be non-zero
  1762  0043F4                     	endif
  1763  0043F4                     	if	1	;Program memory is > 0xFFFF, there are 3 active tblptr bytes
  1764  0043F4  0E00               	movlw	low (__mediumconst shr (0+16))
  1765  0043F6  6EF8               	movwf	tblptru,c
  1766  0043F8                     	endif
  1767  0043F8  0008               	tblrd		*
  1768  0043FA  50F5               	movf	tablat,w,c
  1769  0043FC  0A25               	xorlw	37
  1770  0043FE  A4D8               	btfss	status,2,c
  1771  004400  EF04  F022         	goto	u6111
  1772  004404  EF06  F022         	goto	u6110
  1773  004408                     u6111:
  1774  004408  EF41  F024         	goto	l6603
  1775  00440C                     u6110:
  1776  00440C                     
  1777                           ;C:\Program Files\Microchip\xc8\v2.32\pic\sources\c99\common\doprnt.c: 703:         ++*f
      +                          mt;
  1778  00440C  0061  F510  F4D9   	movff	vfpfcnvrt@fmt,fsr2l
  1779  004412  0061  F514  F4DA   	movff	vfpfcnvrt@fmt+1,fsr2h
  1780  004418  2ADE               	incf	postinc2,f,c
  1781  00441A  0E00               	movlw	0
  1782  00441C  22DD               	addwfc	postdec2,f,c
  1783  00441E                     
  1784                           ;C:\Program Files\Microchip\xc8\v2.32\pic\sources\c99\common\doprnt.c: 705:         flag
      +                          s = width = 0;
  1785  00441E  0E00               	movlw	0
  1786  004420  0105               	movlb	5	; () banked
  1787  004422  6FE9               	movwf	(_width+1)& (0+255),b
  1788  004424  0E00               	movlw	0
  1789  004426  6FE8               	movwf	_width& (0+255),b
  1790  004428  C5E8  F5EC         	movff	_width,_flags
  1791  00442C  C5E9  F5ED         	movff	_width+1,_flags+1
  1792  004430                     
  1793                           ; BSR set to: 5
  1794                           ;C:\Program Files\Microchip\xc8\v2.32\pic\sources\c99\common\doprnt.c: 706:         prec
      +                           = -1;
  1795  004430  69EA               	setf	_prec& (0+255),b
  1796  004432  69EB               	setf	(_prec+1)& (0+255),b
  1797  004434                     
  1798                           ; BSR set to: 5
  1799                           ;C:\Program Files\Microchip\xc8\v2.32\pic\sources\c99\common\doprnt.c: 779:         ct[0
      +                          ] = (char)tolower((int)(*fmt)[0]);
  1800  004434  0061  F510  F4D9   	movff	vfpfcnvrt@fmt,fsr2l
  1801  00443A  0061  F514  F4DA   	movff	vfpfcnvrt@fmt+1,fsr2h
  1802  004440  C4DE F4F6          	movff	postinc2,tblptrl
  1803  004444  C4DD F4F7          	movff	postdec2,tblptrh
  1804  004448                     	if	0	;tblptru may be non-zero
  1805  004448                     	endif
  1806  004448                     	if	1	;Program memory is > 0xFFFF, there are 3 active tblptr bytes
  1807  004448  0E00               	movlw	low (__mediumconst shr (0+16))
  1808  00444A  6EF8               	movwf	tblptru,c
  1809  00444C                     	endif
  1810  00444C  0008               	tblrd		*
  1811  00444E  50F5               	movf	tablat,w,c
  1812  004450  6E07               	movwf	tolower@c^(0+1280),c
  1813  004452  6A08               	clrf	(tolower@c+1)^(0+1280),c
  1814  004454  EC5E  F035         	call	_tolower	;wreg free
  1815  004458  5007               	movf	?_tolower^(0+1280),w,c
  1816  00445A  6E5A               	movwf	vfpfcnvrt@ct^(0+1280),c
  1817  00445C                     
  1818                           ;C:\Program Files\Microchip\xc8\v2.32\pic\sources\c99\common\doprnt.c: 780:         if (
      +                          ct[0]) {
  1819  00445C  505A               	movf	vfpfcnvrt@ct^(0+1280),w,c
  1820  00445E  B4D8               	btfsc	status,2,c
  1821  004460  EF34  F022         	goto	u6121
  1822  004464  EF36  F022         	goto	u6120
  1823  004468                     u6121:
  1824  004468  EF7E  F022         	goto	l6549
  1825  00446C                     u6120:
  1826  00446C                     
  1827                           ;C:\Program Files\Microchip\xc8\v2.32\pic\sources\c99\common\doprnt.c: 781:             
      +                          ct[1] = (char)tolower((int)(*fmt)[1]);
  1828  00446C  0061  F510  F4D9   	movff	vfpfcnvrt@fmt,fsr2l
  1829  004472  0061  F514  F4DA   	movff	vfpfcnvrt@fmt+1,fsr2h
  1830  004478  0061 F378  F548    	movff	postinc2,??_vfpfcnvrt
  1831  00447E  0061 F374  F549    	movff	postdec2,??_vfpfcnvrt+1
  1832  004484  0E01               	movlw	1
  1833  004486  2648               	addwf	??_vfpfcnvrt^(0+1280),f,c
  1834  004488  0E00               	movlw	0
  1835  00448A  2249               	addwfc	(??_vfpfcnvrt+1)^(0+1280),f,c
  1836  00448C  0061  F520  F4F6   	movff	??_vfpfcnvrt,tblptrl
  1837  004492  0061  F524  F4F7   	movff	??_vfpfcnvrt+1,tblptrh
  1838  004498                     	if	0	;tblptru may be non-zero
  1839  004498                     	endif
  1840  004498                     	if	1	;Program memory is > 0xFFFF, there are 3 active tblptr bytes
  1841  004498  0E00               	movlw	low (__mediumconst shr (0+16))
  1842  00449A  6EF8               	movwf	tblptru,c
  1843  00449C                     	endif
  1844  00449C  0008               	tblrd		*
  1845  00449E  50F5               	movf	tablat,w,c
  1846  0044A0  6E07               	movwf	tolower@c^(0+1280),c
  1847  0044A2  6A08               	clrf	(tolower@c+1)^(0+1280),c
  1848  0044A4  EC5E  F035         	call	_tolower	;wreg free
  1849  0044A8  5007               	movf	?_tolower^(0+1280),w,c
  1850  0044AA  6E5B               	movwf	(vfpfcnvrt@ct+1)^(0+1280),c
  1851  0044AC                     
  1852                           ;C:\Program Files\Microchip\xc8\v2.32\pic\sources\c99\common\doprnt.c: 782:             
      +                          if (ct[1]) {
  1853  0044AC  505B               	movf	(vfpfcnvrt@ct+1)^(0+1280),w,c
  1854  0044AE  B4D8               	btfsc	status,2,c
  1855  0044B0  EF5C  F022         	goto	u6131
  1856  0044B4  EF5E  F022         	goto	u6130
  1857  0044B8                     u6131:
  1858  0044B8  EF7E  F022         	goto	l6549
  1859  0044BC                     u6130:
  1860  0044BC                     
  1861                           ;C:\Program Files\Microchip\xc8\v2.32\pic\sources\c99\common\doprnt.c: 783:             
      +                              ct[2] = (char)tolower((int)(*fmt)[2]);
  1862  0044BC  0061  F510  F4D9   	movff	vfpfcnvrt@fmt,fsr2l
  1863  0044C2  0061  F514  F4DA   	movff	vfpfcnvrt@fmt+1,fsr2h
  1864  0044C8  0061 F378  F548    	movff	postinc2,??_vfpfcnvrt
  1865  0044CE  0061 F374  F549    	movff	postdec2,??_vfpfcnvrt+1
  1866  0044D4  0E02               	movlw	2
  1867  0044D6  2648               	addwf	??_vfpfcnvrt^(0+1280),f,c
  1868  0044D8  0E00               	movlw	0
  1869  0044DA  2249               	addwfc	(??_vfpfcnvrt+1)^(0+1280),f,c
  1870  0044DC  0061  F520  F4F6   	movff	??_vfpfcnvrt,tblptrl
  1871  0044E2  0061  F524  F4F7   	movff	??_vfpfcnvrt+1,tblptrh
  1872  0044E8                     	if	0	;tblptru may be non-zero
  1873  0044E8                     	endif
  1874  0044E8                     	if	1	;Program memory is > 0xFFFF, there are 3 active tblptr bytes
  1875  0044E8  0E00               	movlw	low (__mediumconst shr (0+16))
  1876  0044EA  6EF8               	movwf	tblptru,c
  1877  0044EC                     	endif
  1878  0044EC  0008               	tblrd		*
  1879  0044EE  50F5               	movf	tablat,w,c
  1880  0044F0  6E07               	movwf	tolower@c^(0+1280),c
  1881  0044F2  6A08               	clrf	(tolower@c+1)^(0+1280),c
  1882  0044F4  EC5E  F035         	call	_tolower	;wreg free
  1883  0044F8  5007               	movf	?_tolower^(0+1280),w,c
  1884  0044FA  6E5C               	movwf	(vfpfcnvrt@ct+2)^(0+1280),c
  1885  0044FC                     l6549:
  1886                           
  1887                           ;C:\Program Files\Microchip\xc8\v2.32\pic\sources\c99\common\doprnt.c: 847:         if (
      +                          (*fmt[0] == 'd') || (*fmt[0] == 'i')) {
  1888  0044FC  0061  F510  F4D9   	movff	vfpfcnvrt@fmt,fsr2l
  1889  004502  0061  F514  F4DA   	movff	vfpfcnvrt@fmt+1,fsr2h
  1890  004508  C4DE F4F6          	movff	postinc2,tblptrl
  1891  00450C  C4DD F4F7          	movff	postdec2,tblptrh
  1892  004510                     	if	0	;tblptru may be non-zero
  1893  004510                     	endif
  1894  004510                     	if	1	;Program memory is > 0xFFFF, there are 3 active tblptr bytes
  1895  004510  0E00               	movlw	low (__mediumconst shr (0+16))
  1896  004512  6EF8               	movwf	tblptru,c
  1897  004514                     	endif
  1898  004514  0008               	tblrd		*
  1899  004516  50F5               	movf	tablat,w,c
  1900  004518  0A64               	xorlw	100
  1901  00451A  B4D8               	btfsc	status,2,c
  1902  00451C  EF92  F022         	goto	u6141
  1903  004520  EF94  F022         	goto	u6140
  1904  004524                     u6141:
  1905  004524  EFAA  F022         	goto	l6553
  1906  004528                     u6140:
  1907  004528  0061  F510  F4D9   	movff	vfpfcnvrt@fmt,fsr2l
  1908  00452E  0061  F514  F4DA   	movff	vfpfcnvrt@fmt+1,fsr2h
  1909  004534  C4DE F4F6          	movff	postinc2,tblptrl
  1910  004538  C4DD F4F7          	movff	postdec2,tblptrh
  1911  00453C                     	if	0	;tblptru may be non-zero
  1912  00453C                     	endif
  1913  00453C                     	if	1	;Program memory is > 0xFFFF, there are 3 active tblptr bytes
  1914  00453C  0E00               	movlw	low (__mediumconst shr (0+16))
  1915  00453E  6EF8               	movwf	tblptru,c
  1916  004540                     	endif
  1917  004540  0008               	tblrd		*
  1918  004542  50F5               	movf	tablat,w,c
  1919  004544  0A69               	xorlw	105
  1920  004546  A4D8               	btfss	status,2,c
  1921  004548  EFA8  F022         	goto	u6151
  1922  00454C  EFAA  F022         	goto	u6150
  1923  004550                     u6151:
  1924  004550  EFF4  F022         	goto	l6559
  1925  004554                     u6150:
  1926  004554                     l6553:
  1927                           
  1928                           ;C:\Program Files\Microchip\xc8\v2.32\pic\sources\c99\common\doprnt.c: 849:             
      +                          ++*fmt;
  1929  004554  0061  F510  F4D9   	movff	vfpfcnvrt@fmt,fsr2l
  1930  00455A  0061  F514  F4DA   	movff	vfpfcnvrt@fmt+1,fsr2h
  1931  004560  2ADE               	incf	postinc2,f,c
  1932  004562  0E00               	movlw	0
  1933  004564  22DD               	addwfc	postdec2,f,c
  1934                           
  1935                           ;C:\Program Files\Microchip\xc8\v2.32\pic\sources\c99\common\doprnt.c: 850:             
      +                          ll = (long long)(*(int *)__va_arg(*(int **)ap, (int)0));
  1936  004566  0061  F518  F4D9   	movff	vfpfcnvrt@ap,fsr2l
  1937  00456C  0061  F51C  F4DA   	movff	vfpfcnvrt@ap+1,fsr2h
  1938  004572  0061 F37C  F548    	movff	indf2,??_vfpfcnvrt
  1939  004578  0E02               	movlw	2
  1940  00457A  26DE               	addwf	postinc2,f,c
  1941  00457C  0061 F37C  F549    	movff	indf2,??_vfpfcnvrt+1
  1942  004582  0E00               	movlw	0
  1943  004584  22DD               	addwfc	postdec2,f,c
  1944  004586  0061  F520  F4D9   	movff	??_vfpfcnvrt,fsr2l
  1945  00458C  0061  F524  F4DA   	movff	??_vfpfcnvrt+1,fsr2h
  1946  004592  0061 F378  F54C    	movff	postinc2,vfpfcnvrt@ll
  1947  004598  0061 F374  F54D    	movff	postdec2,vfpfcnvrt@ll+1
  1948  00459E  0E00               	movlw	0
  1949  0045A0  BE4D               	btfsc	(vfpfcnvrt@ll+1)^(0+1280),7,c
  1950  0045A2  0EFF               	movlw	-1
  1951  0045A4  6E4E               	movwf	(vfpfcnvrt@ll+2)^(0+1280),c
  1952  0045A6  6E4F               	movwf	(vfpfcnvrt@ll+3)^(0+1280),c
  1953  0045A8  6E50               	movwf	(vfpfcnvrt@ll+4)^(0+1280),c
  1954  0045AA  6E51               	movwf	(vfpfcnvrt@ll+5)^(0+1280),c
  1955  0045AC  6E52               	movwf	(vfpfcnvrt@ll+6)^(0+1280),c
  1956  0045AE  6E53               	movwf	(vfpfcnvrt@ll+7)^(0+1280),c
  1957  0045B0                     
  1958                           ;C:\Program Files\Microchip\xc8\v2.32\pic\sources\c99\common\doprnt.c: 852:             
      +                          return dtoa(fp, ll);
  1959  0045B0  C542  F51E         	movff	vfpfcnvrt@fp,dtoa@fp
  1960  0045B4  C543  F51F         	movff	vfpfcnvrt@fp+1,dtoa@fp+1
  1961  0045B8  C54C  F520         	movff	vfpfcnvrt@ll,dtoa@d
  1962  0045BC  C54D  F521         	movff	vfpfcnvrt@ll+1,dtoa@d+1
  1963  0045C0  C54E  F522         	movff	vfpfcnvrt@ll+2,dtoa@d+2
  1964  0045C4  C54F  F523         	movff	vfpfcnvrt@ll+3,dtoa@d+3
  1965  0045C8  C550  F524         	movff	vfpfcnvrt@ll+4,dtoa@d+4
  1966  0045CC  C551  F525         	movff	vfpfcnvrt@ll+5,dtoa@d+5
  1967  0045D0  C552  F526         	movff	vfpfcnvrt@ll+6,dtoa@d+6
  1968  0045D4  C553  F527         	movff	vfpfcnvrt@ll+7,dtoa@d+7
  1969  0045D8  ECB7  F02A         	call	_dtoa	;wreg free
  1970  0045DC  C51E  F542         	movff	?_dtoa,?_vfpfcnvrt
  1971  0045E0  C51F  F543         	movff	?_dtoa+1,?_vfpfcnvrt+1
  1972  0045E4  EF62  F024         	goto	l2014
  1973  0045E8                     l6559:
  1974                           
  1975                           ;C:\Program Files\Microchip\xc8\v2.32\pic\sources\c99\common\doprnt.c: 942:         if (
      +                          ct[0] == 'f') {
  1976  0045E8  0E66               	movlw	102
  1977  0045EA  185A               	xorwf	vfpfcnvrt@ct^(0+1280),w,c
  1978  0045EC  A4D8               	btfss	status,2,c
  1979  0045EE  EFFB  F022         	goto	u6161
  1980  0045F2  EFFD  F022         	goto	u6160
  1981  0045F6                     u6161:
  1982  0045F6  EF4E  F023         	goto	l6571
  1983  0045FA                     u6160:
  1984  0045FA                     
  1985                           ;C:\Program Files\Microchip\xc8\v2.32\pic\sources\c99\common\doprnt.c: 944:             
      +                          c = (*fmt)[0];
  1986  0045FA  0061  F510  F4D9   	movff	vfpfcnvrt@fmt,fsr2l
  1987  004600  0061  F514  F4DA   	movff	vfpfcnvrt@fmt+1,fsr2h
  1988  004606  C4DE F4F6          	movff	postinc2,tblptrl
  1989  00460A  C4DD F4F7          	movff	postdec2,tblptrh
  1990  00460E                     	if	0	;tblptru may be non-zero
  1991  00460E                     	endif
  1992  00460E                     	if	1	;Program memory is > 0xFFFF, there are 3 active tblptr bytes
  1993  00460E  0E00               	movlw	low (__mediumconst shr (0+16))
  1994  004610  6EF8               	movwf	tblptru,c
  1995  004612                     	endif
  1996  004612  0008               	tblrd		*
  1997  004614  0061 F3D4  F55D    	movff	tablat,vfpfcnvrt@c
  1998  00461A                     
  1999                           ;C:\Program Files\Microchip\xc8\v2.32\pic\sources\c99\common\doprnt.c: 945:             
      +                          ++*fmt;
  2000  00461A  0061  F510  F4D9   	movff	vfpfcnvrt@fmt,fsr2l
  2001  004620  0061  F514  F4DA   	movff	vfpfcnvrt@fmt+1,fsr2h
  2002  004626  2ADE               	incf	postinc2,f,c
  2003  004628  0E00               	movlw	0
  2004  00462A  22DD               	addwfc	postdec2,f,c
  2005  00462C                     
  2006                           ;C:\Program Files\Microchip\xc8\v2.32\pic\sources\c99\common\doprnt.c: 946:             
      +                          f = (long double)(*(double *)__va_arg(*(double **)ap, (double)0));
  2007  00462C  0061  F518  F4D9   	movff	vfpfcnvrt@ap,fsr2l
  2008  004632  0061  F51C  F4DA   	movff	vfpfcnvrt@ap+1,fsr2h
  2009  004638  0061 F37C  F548    	movff	indf2,??_vfpfcnvrt
  2010  00463E  0E04               	movlw	4
  2011  004640  26DE               	addwf	postinc2,f,c
  2012  004642  0061 F37C  F549    	movff	indf2,??_vfpfcnvrt+1
  2013  004648  0E00               	movlw	0
  2014  00464A  22DD               	addwfc	postdec2,f,c
  2015  00464C  0061  F520  F4D9   	movff	??_vfpfcnvrt,fsr2l
  2016  004652  0061  F524  F4DA   	movff	??_vfpfcnvrt+1,fsr2h
  2017  004658  0061 F378  F556    	movff	postinc2,vfpfcnvrt@f
  2018  00465E  0061 F378  F557    	movff	postinc2,vfpfcnvrt@f+1
  2019  004664  0061 F378  F558    	movff	postinc2,vfpfcnvrt@f+2
  2020  00466A  0061 F378  F559    	movff	postinc2,vfpfcnvrt@f+3
  2021  004670                     l6567:
  2022                           
  2023                           ;C:\Program Files\Microchip\xc8\v2.32\pic\sources\c99\common\doprnt.c: 948:             
      +                          return efgtoa(fp, f, c);
  2024  004670  C542  F534         	movff	vfpfcnvrt@fp,efgtoa@fp
  2025  004674  C543  F535         	movff	vfpfcnvrt@fp+1,efgtoa@fp+1
  2026  004678  C556  F536         	movff	vfpfcnvrt@f,efgtoa@f
  2027  00467C  C557  F537         	movff	vfpfcnvrt@f+1,efgtoa@f+1
  2028  004680  C558  F538         	movff	vfpfcnvrt@f+2,efgtoa@f+2
  2029  004684  C559  F539         	movff	vfpfcnvrt@f+3,efgtoa@f+3
  2030  004688  C55D  F53A         	movff	vfpfcnvrt@c,efgtoa@c
  2031  00468C  ECC2  F01B         	call	_efgtoa	;wreg free
  2032  004690  C534  F542         	movff	?_efgtoa,?_vfpfcnvrt
  2033  004694  C535  F543         	movff	?_efgtoa+1,?_vfpfcnvrt+1
  2034  004698  EF62  F024         	goto	l2014
  2035  00469C                     l6571:
  2036                           
  2037                           ;C:\Program Files\Microchip\xc8\v2.32\pic\sources\c99\common\doprnt.c: 950:         if (
      +                          !strncmp(ct, "lf", ((sizeof("lf")/sizeof("lf"[0]))-1))) {
  2038  00469C  0E5A               	movlw	low vfpfcnvrt@ct
  2039  00469E  6E01               	movwf	strncmp@_l^(0+1280),c
  2040  0046A0  0E05               	movlw	high vfpfcnvrt@ct
  2041  0046A2  6E02               	movwf	(strncmp@_l+1)^(0+1280),c
  2042  0046A4  0E7F               	movlw	low STR_11
  2043  0046A6  6E03               	movwf	strncmp@_r^(0+1280),c
  2044  0046A8  0E37               	movlw	high STR_11
  2045  0046AA  6E04               	movwf	(strncmp@_r+1)^(0+1280),c
  2046  0046AC  0E00               	movlw	0
  2047  0046AE  6E06               	movwf	(strncmp@n+1)^(0+1280),c
  2048  0046B0  0E02               	movlw	2
  2049  0046B2  6E05               	movwf	strncmp@n^(0+1280),c
  2050  0046B4  ECAE  F031         	call	_strncmp	;wreg free
  2051  0046B8  5001               	movf	?_strncmp^(0+1280),w,c
  2052  0046BA  1002               	iorwf	(?_strncmp+1)^(0+1280),w,c
  2053  0046BC  A4D8               	btfss	status,2,c
  2054  0046BE  EF63  F023         	goto	u6171
  2055  0046C2  EF65  F023         	goto	u6170
  2056  0046C6                     u6171:
  2057  0046C6  EF03  F024         	goto	l6587
  2058  0046CA                     u6170:
  2059  0046CA                     
  2060                           ;C:\Program Files\Microchip\xc8\v2.32\pic\sources\c99\common\doprnt.c: 953:             
      +                          if ((0 ? isupper((int)(*fmt)[0]) : ((unsigned)((int)(*fmt)[0])-'A') < 26)) {
  2061  0046CA  0061  F510  F4D9   	movff	vfpfcnvrt@fmt,fsr2l
  2062  0046D0  0061  F514  F4DA   	movff	vfpfcnvrt@fmt+1,fsr2h
  2063  0046D6  0061 F378  F548    	movff	postinc2,??_vfpfcnvrt
  2064  0046DC  0061 F374  F549    	movff	postdec2,??_vfpfcnvrt+1
  2065  0046E2  0E01               	movlw	1
  2066  0046E4  2648               	addwf	??_vfpfcnvrt^(0+1280),f,c
  2067  0046E6  0E00               	movlw	0
  2068  0046E8  2249               	addwfc	(??_vfpfcnvrt+1)^(0+1280),f,c
  2069  0046EA  0061  F520  F4F6   	movff	??_vfpfcnvrt,tblptrl
  2070  0046F0  0061  F524  F4F7   	movff	??_vfpfcnvrt+1,tblptrh
  2071  0046F6                     	if	0	;tblptru may be non-zero
  2072  0046F6                     	endif
  2073  0046F6                     	if	1	;Program memory is > 0xFFFF, there are 3 active tblptr bytes
  2074  0046F6  0E00               	movlw	low (__mediumconst shr (0+16))
  2075  0046F8  6EF8               	movwf	tblptru,c
  2076  0046FA                     	endif
  2077  0046FA  0008               	tblrd		*
  2078  0046FC  0061 F3D4  F55D    	movff	tablat,vfpfcnvrt@c
  2079  004702  0EBF               	movlw	191
  2080  004704  6E48               	movwf	??_vfpfcnvrt^(0+1280),c
  2081  004706  0EFF               	movlw	255
  2082  004708  6E49               	movwf	(??_vfpfcnvrt+1)^(0+1280),c
  2083  00470A  0061  F510  F4D9   	movff	vfpfcnvrt@fmt,fsr2l
  2084  004710  0061  F514  F4DA   	movff	vfpfcnvrt@fmt+1,fsr2h
  2085  004716  C4DE F4F6          	movff	postinc2,tblptrl
  2086  00471A  C4DD F4F7          	movff	postdec2,tblptrh
  2087  00471E                     	if	0	;tblptru may be non-zero
  2088  00471E                     	endif
  2089  00471E                     	if	1	;Program memory is > 0xFFFF, there are 3 active tblptr bytes
  2090  00471E  0E00               	movlw	low (__mediumconst shr (0+16))
  2091  004720  6EF8               	movwf	tblptru,c
  2092  004722                     	endif
  2093  004722  0008               	tblrd		*
  2094  004724  50F5               	movf	tablat,w,c
  2095  004726  6E4A               	movwf	(??_vfpfcnvrt+2)^(0+1280),c
  2096  004728  6A4B               	clrf	(??_vfpfcnvrt+3)^(0+1280),c
  2097  00472A  5048               	movf	??_vfpfcnvrt^(0+1280),w,c
  2098  00472C  264A               	addwf	(??_vfpfcnvrt+2)^(0+1280),f,c
  2099  00472E  5049               	movf	(??_vfpfcnvrt+1)^(0+1280),w,c
  2100  004730  224B               	addwfc	(??_vfpfcnvrt+3)^(0+1280),f,c
  2101  004732  504B               	movf	(??_vfpfcnvrt+3)^(0+1280),w,c
  2102  004734  E10A               	bnz	u6180
  2103  004736  0E1A               	movlw	26
  2104  004738  5C4A               	subwf	(??_vfpfcnvrt+2)^(0+1280),w,c
  2105  00473A  A0D8               	btfss	status,0,c
  2106  00473C  EFA2  F023         	goto	u6181
  2107  004740  EFA5  F023         	goto	u6180
  2108  004744                     u6181:
  2109  004744  0E01               	movlw	1
  2110  004746  EFA6  F023         	goto	u6190
  2111  00474A                     u6180:
  2112  00474A  0E00               	movlw	0
  2113  00474C                     u6190:
  2114  00474C  6E54               	movwf	_vfpfcnvrt$2546^(0+1280),c
  2115  00474E  6A55               	clrf	(_vfpfcnvrt$2546+1)^(0+1280),c
  2116  004750  5054               	movf	_vfpfcnvrt$2546^(0+1280),w,c
  2117  004752  1055               	iorwf	(_vfpfcnvrt$2546+1)^(0+1280),w,c
  2118  004754  B4D8               	btfsc	status,2,c
  2119  004756  EFAF  F023         	goto	u6201
  2120  00475A  EFB1  F023         	goto	u6200
  2121  00475E                     u6201:
  2122  00475E  EFD5  F023         	goto	l6581
  2123  004762                     u6200:
  2124  004762                     
  2125                           ;C:\Program Files\Microchip\xc8\v2.32\pic\sources\c99\common\doprnt.c: 954:             
      +                              f = (*(long double *)__va_arg(*(long double **)ap, (long double)0));
  2126  004762  0061  F518  F4D9   	movff	vfpfcnvrt@ap,fsr2l
  2127  004768  0061  F51C  F4DA   	movff	vfpfcnvrt@ap+1,fsr2h
  2128  00476E  0061 F37C  F548    	movff	indf2,??_vfpfcnvrt
  2129  004774  0E04               	movlw	4
  2130  004776  26DE               	addwf	postinc2,f,c
  2131  004778  0061 F37C  F549    	movff	indf2,??_vfpfcnvrt+1
  2132  00477E  0E00               	movlw	0
  2133  004780  22DD               	addwfc	postdec2,f,c
  2134  004782  0061  F520  F4D9   	movff	??_vfpfcnvrt,fsr2l
  2135  004788  0061  F524  F4DA   	movff	??_vfpfcnvrt+1,fsr2h
  2136  00478E  0061 F378  F556    	movff	postinc2,vfpfcnvrt@f
  2137  004794  0061 F378  F557    	movff	postinc2,vfpfcnvrt@f+1
  2138  00479A  0061 F378  F558    	movff	postinc2,vfpfcnvrt@f+2
  2139  0047A0  0061 F378  F559    	movff	postinc2,vfpfcnvrt@f+3
  2140                           
  2141                           ;C:\Program Files\Microchip\xc8\v2.32\pic\sources\c99\common\doprnt.c: 955:             
      +                          } else {
  2142  0047A6  EFF7  F023         	goto	l2022
  2143  0047AA                     l6581:
  2144                           
  2145                           ;C:\Program Files\Microchip\xc8\v2.32\pic\sources\c99\common\doprnt.c: 956:             
      +                              f = (long double)(*(double *)__va_arg(*(double **)ap, (double)0));
  2146  0047AA  0061  F518  F4D9   	movff	vfpfcnvrt@ap,fsr2l
  2147  0047B0  0061  F51C  F4DA   	movff	vfpfcnvrt@ap+1,fsr2h
  2148  0047B6  0061 F37C  F548    	movff	indf2,??_vfpfcnvrt
  2149  0047BC  0E04               	movlw	4
  2150  0047BE  26DE               	addwf	postinc2,f,c
  2151  0047C0  0061 F37C  F549    	movff	indf2,??_vfpfcnvrt+1
  2152  0047C6  0E00               	movlw	0
  2153  0047C8  22DD               	addwfc	postdec2,f,c
  2154  0047CA  0061  F520  F4D9   	movff	??_vfpfcnvrt,fsr2l
  2155  0047D0  0061  F524  F4DA   	movff	??_vfpfcnvrt+1,fsr2h
  2156  0047D6  0061 F378  F556    	movff	postinc2,vfpfcnvrt@f
  2157  0047DC  0061 F378  F557    	movff	postinc2,vfpfcnvrt@f+1
  2158  0047E2  0061 F378  F558    	movff	postinc2,vfpfcnvrt@f+2
  2159  0047E8  0061 F378  F559    	movff	postinc2,vfpfcnvrt@f+3
  2160  0047EE                     l2022:
  2161                           
  2162                           ;C:\Program Files\Microchip\xc8\v2.32\pic\sources\c99\common\doprnt.c: 958:             
      +                          *fmt += ((sizeof("lf")/sizeof("lf"[0]))-1);
  2163  0047EE  0E02               	movlw	2
  2164  0047F0  0061  F510  F4D9   	movff	vfpfcnvrt@fmt,fsr2l
  2165  0047F6  0061  F514  F4DA   	movff	vfpfcnvrt@fmt+1,fsr2h
  2166  0047FC  26DE               	addwf	postinc2,f,c
  2167  0047FE  0E00               	movlw	0
  2168  004800  22DD               	addwfc	postdec2,f,c
  2169  004802  EF38  F023         	goto	l6567
  2170  004806                     l6587:
  2171                           
  2172                           ;C:\Program Files\Microchip\xc8\v2.32\pic\sources\c99\common\doprnt.c: 1372:         if 
      +                          ((*fmt)[0] == '%') {
  2173  004806  0061  F510  F4D9   	movff	vfpfcnvrt@fmt,fsr2l
  2174  00480C  0061  F514  F4DA   	movff	vfpfcnvrt@fmt+1,fsr2h
  2175  004812  C4DE F4F6          	movff	postinc2,tblptrl
  2176  004816  C4DD F4F7          	movff	postdec2,tblptrh
  2177  00481A                     	if	0	;tblptru may be non-zero
  2178  00481A                     	endif
  2179  00481A                     	if	1	;Program memory is > 0xFFFF, there are 3 active tblptr bytes
  2180  00481A  0E00               	movlw	low (__mediumconst shr (0+16))
  2181  00481C  6EF8               	movwf	tblptru,c
  2182  00481E                     	endif
  2183  00481E  0008               	tblrd		*
  2184  004820  50F5               	movf	tablat,w,c
  2185  004822  0A25               	xorlw	37
  2186  004824  A4D8               	btfss	status,2,c
  2187  004826  EF17  F024         	goto	u6211
  2188  00482A  EF19  F024         	goto	u6210
  2189  00482E                     u6211:
  2190  00482E  EF32  F024         	goto	l6597
  2191  004832                     u6210:
  2192  004832                     
  2193                           ;C:\Program Files\Microchip\xc8\v2.32\pic\sources\c99\common\doprnt.c: 1373:            
      +                           ++*fmt;
  2194  004832  0061  F510  F4D9   	movff	vfpfcnvrt@fmt,fsr2l
  2195  004838  0061  F514  F4DA   	movff	vfpfcnvrt@fmt+1,fsr2h
  2196  00483E  2ADE               	incf	postinc2,f,c
  2197  004840  0E00               	movlw	0
  2198  004842  22DD               	addwfc	postdec2,f,c
  2199  004844                     
  2200                           ;C:\Program Files\Microchip\xc8\v2.32\pic\sources\c99\common\doprnt.c: 1374:            
      +                           fputc((int)'%', fp);
  2201  004844  0E00               	movlw	0
  2202  004846  6E04               	movwf	(fputc@c+1)^(0+1280),c
  2203  004848  0E25               	movlw	37
  2204  00484A  6E03               	movwf	fputc@c^(0+1280),c
  2205  00484C  C542  F505         	movff	vfpfcnvrt@fp,fputc@fp
  2206  004850  C543  F506         	movff	vfpfcnvrt@fp+1,fputc@fp+1
  2207  004854  EC2B  F032         	call	_fputc	;wreg free
  2208  004858                     l6593:
  2209                           
  2210                           ;C:\Program Files\Microchip\xc8\v2.32\pic\sources\c99\common\doprnt.c: 1375:            
      +                           return 1;
  2211  004858  0E00               	movlw	0
  2212  00485A  6E43               	movwf	(?_vfpfcnvrt+1)^(0+1280),c
  2213  00485C  0E01               	movlw	1
  2214  00485E  6E42               	movwf	?_vfpfcnvrt^(0+1280),c
  2215  004860  EF62  F024         	goto	l2014
  2216  004864                     l6597:
  2217                           
  2218                           ;C:\Program Files\Microchip\xc8\v2.32\pic\sources\c99\common\doprnt.c: 1379:         ++*
      +                          fmt;
  2219  004864  0061  F510  F4D9   	movff	vfpfcnvrt@fmt,fsr2l
  2220  00486A  0061  F514  F4DA   	movff	vfpfcnvrt@fmt+1,fsr2h
  2221  004870  2ADE               	incf	postinc2,f,c
  2222  004872  0E00               	movlw	0
  2223  004874  22DD               	addwfc	postdec2,f,c
  2224  004876                     
  2225                           ;C:\Program Files\Microchip\xc8\v2.32\pic\sources\c99\common\doprnt.c: 1380:         ret
      +                          urn 0;
  2226  004876  0E00               	movlw	0
  2227  004878  6E43               	movwf	(?_vfpfcnvrt+1)^(0+1280),c
  2228  00487A  0E00               	movlw	0
  2229  00487C  6E42               	movwf	?_vfpfcnvrt^(0+1280),c
  2230  00487E  EF62  F024         	goto	l2014
  2231  004882                     l6603:
  2232                           
  2233                           ;C:\Program Files\Microchip\xc8\v2.32\pic\sources\c99\common\doprnt.c: 1384:     fputc((
      +                          int)(*fmt)[0], fp);
  2234  004882  0061  F510  F4D9   	movff	vfpfcnvrt@fmt,fsr2l
  2235  004888  0061  F514  F4DA   	movff	vfpfcnvrt@fmt+1,fsr2h
  2236  00488E  C4DE F4F6          	movff	postinc2,tblptrl
  2237  004892  C4DD F4F7          	movff	postdec2,tblptrh
  2238  004896                     	if	0	;tblptru may be non-zero
  2239  004896                     	endif
  2240  004896                     	if	1	;Program memory is > 0xFFFF, there are 3 active tblptr bytes
  2241  004896  0E00               	movlw	low (__mediumconst shr (0+16))
  2242  004898  6EF8               	movwf	tblptru,c
  2243  00489A                     	endif
  2244  00489A  0008               	tblrd		*
  2245  00489C  50F5               	movf	tablat,w,c
  2246  00489E  6E03               	movwf	fputc@c^(0+1280),c
  2247  0048A0  6A04               	clrf	(fputc@c+1)^(0+1280),c
  2248  0048A2  C542  F505         	movff	vfpfcnvrt@fp,fputc@fp
  2249  0048A6  C543  F506         	movff	vfpfcnvrt@fp+1,fputc@fp+1
  2250  0048AA  EC2B  F032         	call	_fputc	;wreg free
  2251  0048AE                     
  2252                           ;C:\Program Files\Microchip\xc8\v2.32\pic\sources\c99\common\doprnt.c: 1385:     ++*fmt;
  2253  0048AE  0061  F510  F4D9   	movff	vfpfcnvrt@fmt,fsr2l
  2254  0048B4  0061  F514  F4DA   	movff	vfpfcnvrt@fmt+1,fsr2h
  2255  0048BA  2ADE               	incf	postinc2,f,c
  2256  0048BC  0E00               	movlw	0
  2257  0048BE  22DD               	addwfc	postdec2,f,c
  2258  0048C0  EF2C  F024         	goto	l6593
  2259  0048C4                     l2014:
  2260  0048C4  0012               	return		;funcret
  2261  0048C6                     __end_of_vfpfcnvrt:
  2262                           	callstack 0
  2263                           
  2264 ;; *************** function _strncmp *****************
  2265 ;; Defined at:
  2266 ;;		line 3 in file "C:\Program Files\Microchip\xc8\v2.32\pic\sources\c99\common\strncmp.c"
  2267 ;; Parameters:    Size  Location     Type
  2268 ;;  _l              2    0[COMRAM] PTR const unsigned char 
  2269 ;;		 -> vfpfcnvrt@ct(3), 
  2270 ;;  _r              2    2[COMRAM] PTR const unsigned char 
  2271 ;;		 -> STR_13(3), 
  2272 ;;  n               2    4[COMRAM] unsigned int 
  2273 ;; Auto vars:     Size  Location     Type
  2274 ;;  r               2    9[COMRAM] PTR const unsigned char 
  2275 ;;		 -> STR_13(3), 
  2276 ;;  l               2    7[COMRAM] PTR const unsigned char 
  2277 ;;		 -> vfpfcnvrt@ct(3), 
  2278 ;; Return value:  Size  Location     Type
  2279 ;;                  2    0[COMRAM] int 
  2280 ;; Registers used:
  2281 ;;		wreg, fsr2l, fsr2h, status,2, status,0, tblptrl, tblptrh, tblptru
  2282 ;; Tracked objects:
  2283 ;;		On entry : 0/0
  2284 ;;		On exit  : 0/0
  2285 ;;		Unchanged: 0/0
  2286 ;; Data sizes:     COMRAM   BANK5   BANK6   BANK7   BANK8   BANK9  BANK10  BANK11  BANK12  BANK13  BANK14  BANK15  BANK1
      +6  BANK17  BANK18  BANK19  BANK20  BANK21  BANK22  BANK23  BANK24  BANK25  BANK26  BANK27  BANK28  BANK29  BANK30  BANK3
      +1  BANK32  BANK33  BANK34  BANK35  BANK36  BANK37  BANK38  BANK39  BANK40  BANK41  BANK42  BANK43  BANK44  BANK45  BANK4
      +6  BANK47  BANK48  BANK49  BANK50  BANK51  BANK52  BANK53  BANK54
  2287 ;;      Params:         6       0       0       0       0       0       0       0       0       0       0       0       
      +0       0       0       0       0       0       0       0       0       0       0       0       0       0       0       
      +0       0       0       0       0       0       0       0       0       0       0       0       0       0       0       
      +0       0       0       0       0       0       0       0       0
  2288 ;;      Locals:         4       0       0       0       0       0       0       0       0       0       0       0       
      +0       0       0       0       0       0       0       0       0       0       0       0       0       0       0       
      +0       0       0       0       0       0       0       0       0       0       0       0       0       0       0       
      +0       0       0       0       0       0       0       0       0
  2289 ;;      Temps:          1       0       0       0       0       0       0       0       0       0       0       0       
      +0       0       0       0       0       0       0       0       0       0       0       0       0       0       0       
      +0       0       0       0       0       0       0       0       0       0       0       0       0       0       0       
      +0       0       0       0       0       0       0       0       0
  2290 ;;      Totals:        11       0       0       0       0       0       0       0       0       0       0       0       
      +0       0       0       0       0       0       0       0       0       0       0       0       0       0       0       
      +0       0       0       0       0       0       0       0       0       0       0       0       0       0       0       
      +0       0       0       0       0       0       0       0       0
  2291 ;;Total ram usage:       11 bytes
  2292 ;; Hardware stack levels used: 1
  2293 ;; This function calls:
  2294 ;;		Nothing
  2295 ;; This function is called by:
  2296 ;;		_vfpfcnvrt
  2297 ;; This function uses a non-reentrant model
  2298 ;;
  2299                           
  2300                           	psect	text5
  2301  00635C                     __ptext5:
  2302                           	callstack 0
  2303  00635C                     _strncmp:
  2304                           	callstack 123
  2305  00635C  C501  F508         	movff	strncmp@_l,strncmp@l
  2306  006360  C502  F509         	movff	strncmp@_l+1,strncmp@l+1
  2307  006364  C503  F50A         	movff	strncmp@_r,strncmp@r
  2308  006368  C504  F50B         	movff	strncmp@_r+1,strncmp@r+1
  2309  00636C  0605               	decf	strncmp@n^(0+1280),f,c
  2310  00636E  A0D8               	btfss	status,0,c
  2311  006370  0606               	decf	(strncmp@n+1)^(0+1280),f,c
  2312  006372  2805               	incf	strncmp@n^(0+1280),w,c
  2313  006374  E106               	bnz	u6061
  2314  006376  2806               	incf	(strncmp@n+1)^(0+1280),w,c
  2315  006378  A4D8               	btfss	status,2,c
  2316  00637A  EFC1  F031         	goto	u6061
  2317  00637E  EFC3  F031         	goto	u6060
  2318  006382                     u6061:
  2319  006382  EFD0  F031         	goto	l6505
  2320  006386                     u6060:
  2321  006386  0E00               	movlw	0
  2322  006388  6E02               	movwf	(?_strncmp+1)^(0+1280),c
  2323  00638A  0E00               	movlw	0
  2324  00638C  6E01               	movwf	?_strncmp^(0+1280),c
  2325  00638E  EF2A  F032         	goto	l2109
  2326  006392                     l6503:
  2327  006392  4A08               	infsnz	strncmp@l^(0+1280),f,c
  2328  006394  2A09               	incf	(strncmp@l+1)^(0+1280),f,c
  2329  006396  4A0A               	infsnz	strncmp@r^(0+1280),f,c
  2330  006398  2A0B               	incf	(strncmp@r+1)^(0+1280),f,c
  2331  00639A  0605               	decf	strncmp@n^(0+1280),f,c
  2332  00639C  A0D8               	btfss	status,0,c
  2333  00639E  0606               	decf	(strncmp@n+1)^(0+1280),f,c
  2334  0063A0                     l6505:
  2335  0063A0  0061  F420  F4D9   	movff	strncmp@l,fsr2l
  2336  0063A6  0061  F424  F4DA   	movff	strncmp@l+1,fsr2h
  2337  0063AC  50DF               	movf	indf2,w,c
  2338  0063AE  B4D8               	btfsc	status,2,c
  2339  0063B0  EFDC  F031         	goto	u6071
  2340  0063B4  EFDE  F031         	goto	u6070
  2341  0063B8                     u6071:
  2342  0063B8  EF13  F032         	goto	l6513
  2343  0063BC                     u6070:
  2344  0063BC  0061  F428  F4F6   	movff	strncmp@r,tblptrl
  2345  0063C2  0061  F42C  F4F7   	movff	strncmp@r+1,tblptrh
  2346  0063C8                     	if	0	;tblptru may be non-zero
  2347  0063C8                     	endif
  2348  0063C8                     	if	1	;Program memory is > 0xFFFF, there are 3 active tblptr bytes
  2349  0063C8  0E00               	movlw	low (__mediumconst shr (0+16))
  2350  0063CA  6EF8               	movwf	tblptru,c
  2351  0063CC                     	endif
  2352  0063CC  0008               	tblrd		*
  2353  0063CE  50F5               	movf	tablat,w,c
  2354  0063D0  0900               	iorlw	0
  2355  0063D2  B4D8               	btfsc	status,2,c
  2356  0063D4  EFEE  F031         	goto	u6081
  2357  0063D8  EFF0  F031         	goto	u6080
  2358  0063DC                     u6081:
  2359  0063DC  EF13  F032         	goto	l6513
  2360  0063E0                     u6080:
  2361  0063E0  5005               	movf	strncmp@n^(0+1280),w,c
  2362  0063E2  1006               	iorwf	(strncmp@n+1)^(0+1280),w,c
  2363  0063E4  B4D8               	btfsc	status,2,c
  2364  0063E6  EFF7  F031         	goto	u6091
  2365  0063EA  EFF9  F031         	goto	u6090
  2366  0063EE                     u6091:
  2367  0063EE  EF13  F032         	goto	l6513
  2368  0063F2                     u6090:
  2369  0063F2  0061  F420  F4D9   	movff	strncmp@l,fsr2l
  2370  0063F8  0061  F424  F4DA   	movff	strncmp@l+1,fsr2h
  2371  0063FE  50DF               	movf	indf2,w,c
  2372  006400  6E07               	movwf	??_strncmp^(0+1280),c
  2373  006402  0061  F428  F4F6   	movff	strncmp@r,tblptrl
  2374  006408  0061  F42C  F4F7   	movff	strncmp@r+1,tblptrh
  2375  00640E                     	if	0	;tblptru may be non-zero
  2376  00640E                     	endif
  2377  00640E                     	if	1	;Program memory is > 0xFFFF, there are 3 active tblptr bytes
  2378  00640E  0E00               	movlw	low (__mediumconst shr (0+16))
  2379  006410  6EF8               	movwf	tblptru,c
  2380  006412                     	endif
  2381  006412  0008               	tblrd		*
  2382  006414  50F5               	movf	tablat,w,c
  2383  006416  1807               	xorwf	??_strncmp^(0+1280),w,c
  2384  006418  B4D8               	btfsc	status,2,c
  2385  00641A  EF11  F032         	goto	u6101
  2386  00641E  EF13  F032         	goto	u6100
  2387  006422                     u6101:
  2388  006422  EFC9  F031         	goto	l6503
  2389  006426                     u6100:
  2390  006426                     l6513:
  2391  006426  0061  F420  F4D9   	movff	strncmp@l,fsr2l
  2392  00642C  0061  F424  F4DA   	movff	strncmp@l+1,fsr2h
  2393  006432  50DF               	movf	indf2,w,c
  2394  006434  6E07               	movwf	??_strncmp^(0+1280),c
  2395  006436  0061  F428  F4F6   	movff	strncmp@r,tblptrl
  2396  00643C  0061  F42C  F4F7   	movff	strncmp@r+1,tblptrh
  2397  006442                     	if	0	;tblptru may be non-zero
  2398  006442                     	endif
  2399  006442                     	if	1	;Program memory is > 0xFFFF, there are 3 active tblptr bytes
  2400  006442  0E00               	movlw	low (__mediumconst shr (0+16))
  2401  006444  6EF8               	movwf	tblptru,c
  2402  006446                     	endif
  2403  006446  0008               	tblrd		*
  2404  006448  50F5               	movf	tablat,w,c
  2405  00644A  5C07               	subwf	??_strncmp^(0+1280),w,c
  2406  00644C  6E01               	movwf	?_strncmp^(0+1280),c
  2407  00644E  6A02               	clrf	(?_strncmp+1)^(0+1280),c
  2408  006450  A0D8               	btfss	status,0,c
  2409  006452  0602               	decf	(?_strncmp+1)^(0+1280),f,c
  2410  006454                     l2109:
  2411  006454  0012               	return		;funcret
  2412  006456                     __end_of_strncmp:
  2413                           	callstack 0
  2414                           
  2415 ;; *************** function _efgtoa *****************
  2416 ;; Defined at:
  2417 ;;		line 332 in file "C:\Program Files\Microchip\xc8\v2.32\pic\sources\c99\common\doprnt.c"
  2418 ;; Parameters:    Size  Location     Type
  2419 ;;  fp              2   51[COMRAM] PTR struct _IO_FILE
  2420 ;;		 -> sprintf@f(6), NULL(0), 
  2421 ;;  f               4   53[COMRAM] PTR struct _IO_FILE
  2422 ;;  c               1   57[COMRAM] unsigned char 
  2423 ;; Auto vars:     Size  Location     Type
  2424 ;;  u               4   52[BANK5 ] unsigned char 
  2425 ;;  g               4   44[BANK5 ] unsigned char 
  2426 ;;  l               4   38[BANK5 ] unsigned char 
  2427 ;;  h               4   34[BANK5 ] unsigned char 
  2428 ;;  ou              4   20[BANK5 ] unsigned char 
  2429 ;;  n               2   50[BANK5 ] int 
  2430 ;;  e               2   48[BANK5 ] int 
  2431 ;;  i               2   42[BANK5 ] int 
  2432 ;;  w               2   30[BANK5 ] int 
  2433 ;;  p               2   28[BANK5 ] int 
  2434 ;;  sign            2   26[BANK5 ] int 
  2435 ;;  d               2   24[BANK5 ] int 
  2436 ;;  m               2   18[BANK5 ] int 
  2437 ;;  ne              2   16[BANK5 ] int 
  2438 ;;  pp              2   14[BANK5 ] int 
  2439 ;;  t               2   12[BANK5 ] int 
  2440 ;;  mode            1   33[BANK5 ] unsigned char 
  2441 ;;  nmode           1   32[BANK5 ] unsigned char 
  2442 ;; Return value:  Size  Location     Type
  2443 ;;                  2   51[COMRAM] int 
  2444 ;; Registers used:
  2445 ;;		wreg, fsr0l, fsr0h, fsr1l, fsr1h, fsr2l, fsr2h, status,2, status,0, tblptrl, tblptrh, tblptru, prodl, prodh, cstack
  2446 ;; Tracked objects:
  2447 ;;		On entry : 0/0
  2448 ;;		On exit  : 0/0
  2449 ;;		Unchanged: 0/0
  2450 ;; Data sizes:     COMRAM   BANK5   BANK6   BANK7   BANK8   BANK9  BANK10  BANK11  BANK12  BANK13  BANK14  BANK15  BANK1
      +6  BANK17  BANK18  BANK19  BANK20  BANK21  BANK22  BANK23  BANK24  BANK25  BANK26  BANK27  BANK28  BANK29  BANK30  BANK3
      +1  BANK32  BANK33  BANK34  BANK35  BANK36  BANK37  BANK38  BANK39  BANK40  BANK41  BANK42  BANK43  BANK44  BANK45  BANK4
      +6  BANK47  BANK48  BANK49  BANK50  BANK51  BANK52  BANK53  BANK54
  2451 ;;      Params:         7       0       0       0       0       0       0       0       0       0       0       0       
      +0       0       0       0       0       0       0       0       0       0       0       0       0       0       0       
      +0       0       0       0       0       0       0       0       0       0       0       0       0       0       0       
      +0       0       0       0       0       0       0       0       0
  2452 ;;      Locals:         0      56       0       0       0       0       0       0       0       0       0       0       
      +0       0       0       0       0       0       0       0       0       0       0       0       0       0       0       
      +0       0       0       0       0       0       0       0       0       0       0       0       0       0       0       
      +0       0       0       0       0       0       0       0       0
  2453 ;;      Temps:          5       0       0       0       0       0       0       0       0       0       0       0       
      +0       0       0       0       0       0       0       0       0       0       0       0       0       0       0       
      +0       0       0       0       0       0       0       0       0       0       0       0       0       0       0       
      +0       0       0       0       0       0       0       0       0
  2454 ;;      Totals:        12      56       0       0       0       0       0       0       0       0       0       0       
      +0       0       0       0       0       0       0       0       0       0       0       0       0       0       0       
      +0       0       0       0       0       0       0       0       0       0       0       0       0       0       0       
      +0       0       0       0       0       0       0       0       0
  2455 ;;Total ram usage:       68 bytes
  2456 ;; Hardware stack levels used: 1
  2457 ;; Hardware stack levels required when called: 5
  2458 ;; This function calls:
  2459 ;;		___awdiv
  2460 ;;		___awmod
  2461 ;;		___fladd
  2462 ;;		___fldiv
  2463 ;;		___fleq
  2464 ;;		___flge
  2465 ;;		___flmul
  2466 ;;		___flneg
  2467 ;;		___flsub
  2468 ;;		___fltol
  2469 ;;		___fpclassifyf
  2470 ;;		_floorf
  2471 ;;		_isupper
  2472 ;;		_pad
  2473 ;;		_strcpy
  2474 ;;		_tolower
  2475 ;; This function is called by:
  2476 ;;		_vfpfcnvrt
  2477 ;; This function uses a non-reentrant model
  2478 ;;
  2479                           
  2480                           	psect	text6
  2481  003784                     __ptext6:
  2482                           	callstack 0
  2483  003784                     _efgtoa:
  2484                           	callstack 118
  2485  003784                     
  2486                           ;C:\Program Files\Microchip\xc8\v2.32\pic\sources\c99\common\doprnt.c: 332: static int e
      +                          fgtoa(FILE *fp, long double f, char c);C:\Program Files\Microchip\xc8\v2.32\pic\sources\
      +                          c99\common\doprnt.c: 333: {;C:\Program Files\Microchip\xc8\v2.32\pic\sources\c99\common\
      +                          doprnt.c: 334:     char mode, nmode;;C:\Program Files\Microchip\xc8\v2.32\pic\sources\c9
      +                          9\common\doprnt.c: 335:     int d, e, i, m, n, ne, p, pp, sign, t, w;;C:\Program Files\M
      +                          icrochip\xc8\v2.32\pic\sources\c99\common\doprnt.c: 336:     long double g, h, l, ou, u;
  2487  003784  0E00               	movlw	0
  2488  003786  0105               	movlb	5	; () banked
  2489  003788  6F7B               	movwf	(efgtoa@sign+1)& (0+255),b
  2490  00378A  0E00               	movlw	0
  2491  00378C  6F7A               	movwf	efgtoa@sign& (0+255),b
  2492  00378E                     
  2493                           ; BSR set to: 5
  2494                           ;C:\Program Files\Microchip\xc8\v2.32\pic\sources\c99\common\doprnt.c: 340:     g = f;
  2495  00378E  C536  F58C         	movff	efgtoa@f,efgtoa@g
  2496  003792  C537  F58D         	movff	efgtoa@f+1,efgtoa@g+1
  2497  003796  C538  F58E         	movff	efgtoa@f+2,efgtoa@g+2
  2498  00379A  C539  F58F         	movff	efgtoa@f+3,efgtoa@g+3
  2499  00379E                     
  2500                           ; BSR set to: 5
  2501                           ;C:\Program Files\Microchip\xc8\v2.32\pic\sources\c99\common\doprnt.c: 341:     if (g < 
      +                          0.0) {
  2502  00379E  BF8F               	btfsc	(efgtoa@g+3)& (0+255),7,b
  2503  0037A0  EFD6  F01B         	goto	u5520
  2504  0037A4  EFD4  F01B         	goto	u5521
  2505  0037A8                     u5521:
  2506  0037A8  EFEC  F01B         	goto	l6199
  2507  0037AC                     u5520:
  2508  0037AC                     
  2509                           ; BSR set to: 5
  2510                           ;C:\Program Files\Microchip\xc8\v2.32\pic\sources\c99\common\doprnt.c: 342:         sign
      +                           = 1;
  2511  0037AC  0E00               	movlw	0
  2512  0037AE  6F7B               	movwf	(efgtoa@sign+1)& (0+255),b
  2513  0037B0  0E01               	movlw	1
  2514  0037B2  6F7A               	movwf	efgtoa@sign& (0+255),b
  2515  0037B4                     
  2516                           ; BSR set to: 5
  2517                           ;C:\Program Files\Microchip\xc8\v2.32\pic\sources\c99\common\doprnt.c: 343:         g = 
      +                          -g;
  2518  0037B4  C58C  F501         	movff	efgtoa@g,___flneg@f1
  2519  0037B8  C58D  F502         	movff	efgtoa@g+1,___flneg@f1+1
  2520  0037BC  C58E  F503         	movff	efgtoa@g+2,___flneg@f1+2
  2521  0037C0  C58F  F504         	movff	efgtoa@g+3,___flneg@f1+3
  2522  0037C4  EC74  F036         	call	___flneg	;wreg free
  2523  0037C8  C501  F58C         	movff	?___flneg,efgtoa@g
  2524  0037CC  C502  F58D         	movff	?___flneg+1,efgtoa@g+1
  2525  0037D0  C503  F58E         	movff	?___flneg+2,efgtoa@g+2
  2526  0037D4  C504  F58F         	movff	?___flneg+3,efgtoa@g+3
  2527  0037D8                     l6199:
  2528                           
  2529                           ;C:\Program Files\Microchip\xc8\v2.32\pic\sources\c99\common\doprnt.c: 347:     n = 0;
  2530  0037D8  0E00               	movlw	0
  2531  0037DA  0105               	movlb	5	; () banked
  2532  0037DC  6F93               	movwf	(efgtoa@n+1)& (0+255),b
  2533  0037DE  0E00               	movlw	0
  2534  0037E0  6F92               	movwf	efgtoa@n& (0+255),b
  2535  0037E2                     
  2536                           ; BSR set to: 5
  2537                           ;C:\Program Files\Microchip\xc8\v2.32\pic\sources\c99\common\doprnt.c: 348:     w = widt
      +                          h;
  2538  0037E2  C5E8  F57E         	movff	_width,efgtoa@w
  2539  0037E6  C5E9  F57F         	movff	_width+1,efgtoa@w+1
  2540  0037EA                     
  2541                           ; BSR set to: 5
  2542                           ;C:\Program Files\Microchip\xc8\v2.32\pic\sources\c99\common\doprnt.c: 349:     if (sign
      +                           || (flags & (1 << 2))) {
  2543  0037EA  517A               	movf	efgtoa@sign& (0+255),w,b
  2544  0037EC  117B               	iorwf	(efgtoa@sign+1)& (0+255),w,b
  2545  0037EE  A4D8               	btfss	status,2,c
  2546  0037F0  EFFC  F01B         	goto	u5531
  2547  0037F4  EFFE  F01B         	goto	u5530
  2548  0037F8                     u5531:
  2549  0037F8  EF05  F01C         	goto	l6207
  2550  0037FC                     u5530:
  2551  0037FC                     
  2552                           ; BSR set to: 5
  2553  0037FC  A5EC               	btfss	_flags& (0+255),2,b
  2554  0037FE  EF03  F01C         	goto	u5541
  2555  003802  EF05  F01C         	goto	u5540
  2556  003806                     u5541:
  2557  003806  EF1F  F01C         	goto	l6219
  2558  00380A                     u5540:
  2559  00380A                     l6207:
  2560                           
  2561                           ; BSR set to: 5
  2562                           ;C:\Program Files\Microchip\xc8\v2.32\pic\sources\c99\common\doprnt.c: 350:         dbuf
      +                          [n] = sign ? '-' : '+';
  2563  00380A  517A               	movf	efgtoa@sign& (0+255),w,b
  2564  00380C  117B               	iorwf	(efgtoa@sign+1)& (0+255),w,b
  2565  00380E  A4D8               	btfss	status,2,c
  2566  003810  EF0C  F01C         	goto	u5551
  2567  003814  EF0E  F01C         	goto	u5550
  2568  003818                     u5551:
  2569  003818  EF14  F01C         	goto	l6211
  2570  00381C                     u5550:
  2571  00381C                     
  2572                           ; BSR set to: 5
  2573  00381C  0E00               	movlw	0
  2574  00381E  6F61               	movwf	(_efgtoa$2517+1)& (0+255),b
  2575  003820  0E2B               	movlw	43
  2576  003822  6F60               	movwf	_efgtoa$2517& (0+255),b
  2577  003824  EF18  F01C         	goto	l6213
  2578  003828                     l6211:
  2579                           
  2580                           ; BSR set to: 5
  2581  003828  0E00               	movlw	0
  2582  00382A  6F61               	movwf	(_efgtoa$2517+1)& (0+255),b
  2583  00382C  0E2D               	movlw	45
  2584  00382E  6F60               	movwf	_efgtoa$2517& (0+255),b
  2585  003830                     l6213:
  2586                           
  2587                           ; BSR set to: 5
  2588  003830  C560  F600         	movff	_efgtoa$2517,_dbuf
  2589  003834                     
  2590                           ; BSR set to: 5
  2591                           ;C:\Program Files\Microchip\xc8\v2.32\pic\sources\c99\common\doprnt.c: 351:         ++n;
  2592  003834  4B92               	infsnz	efgtoa@n& (0+255),f,b
  2593  003836  2B93               	incf	(efgtoa@n+1)& (0+255),f,b
  2594  003838                     
  2595                           ; BSR set to: 5
  2596                           ;C:\Program Files\Microchip\xc8\v2.32\pic\sources\c99\common\doprnt.c: 352:         --w;
  2597  003838  077E               	decf	efgtoa@w& (0+255),f,b
  2598  00383A  A0D8               	btfss	status,0,c
  2599  00383C  077F               	decf	(efgtoa@w+1)& (0+255),f,b
  2600  00383E                     l6219:
  2601                           
  2602                           ; BSR set to: 5
  2603                           ;C:\Program Files\Microchip\xc8\v2.32\pic\sources\c99\common\doprnt.c: 357:         if (
      +                          (0 ? isupper((int)c) : ((unsigned)((int)c)-'A') < 26)) {
  2604  00383E  C58C  F501         	movff	efgtoa@g,___fpclassifyf@x
  2605  003842  C58D  F502         	movff	efgtoa@g+1,___fpclassifyf@x+1
  2606  003846  C58E  F503         	movff	efgtoa@g+2,___fpclassifyf@x+2
  2607  00384A  C58F  F504         	movff	efgtoa@g+3,___fpclassifyf@x+3
  2608  00384E  EC2F  F031         	call	___fpclassifyf	;wreg free
  2609  003852  0401               	decf	?___fpclassifyf^(0+1280),w,c
  2610  003854  1002               	iorwf	(?___fpclassifyf+1)^(0+1280),w,c
  2611  003856  A4D8               	btfss	status,2,c
  2612  003858  EF30  F01C         	goto	u5561
  2613  00385C  EF32  F01C         	goto	u5560
  2614  003860                     u5561:
  2615  003860  EF89  F01C         	goto	l6237
  2616  003864                     u5560:
  2617  003864  0EBF               	movlw	191
  2618  003866  6E3B               	movwf	??_efgtoa^(0+1280),c
  2619  003868  0EFF               	movlw	255
  2620  00386A  6E3C               	movwf	(??_efgtoa+1)^(0+1280),c
  2621  00386C  503A               	movf	efgtoa@c^(0+1280),w,c
  2622  00386E  6E3D               	movwf	(??_efgtoa+2)^(0+1280),c
  2623  003870  6A3E               	clrf	(??_efgtoa+3)^(0+1280),c
  2624  003872  503B               	movf	??_efgtoa^(0+1280),w,c
  2625  003874  263D               	addwf	(??_efgtoa+2)^(0+1280),f,c
  2626  003876  503C               	movf	(??_efgtoa+1)^(0+1280),w,c
  2627  003878  223E               	addwfc	(??_efgtoa+3)^(0+1280),f,c
  2628  00387A  503E               	movf	(??_efgtoa+3)^(0+1280),w,c
  2629  00387C  E10A               	bnz	u5570
  2630  00387E  0E1A               	movlw	26
  2631  003880  5C3D               	subwf	(??_efgtoa+2)^(0+1280),w,c
  2632  003882  A0D8               	btfss	status,0,c
  2633  003884  EF46  F01C         	goto	u5571
  2634  003888  EF49  F01C         	goto	u5570
  2635  00388C                     u5571:
  2636  00388C  0E01               	movlw	1
  2637  00388E  EF4A  F01C         	goto	u5580
  2638  003892                     u5570:
  2639  003892  0E00               	movlw	0
  2640  003894                     u5580:
  2641  003894  0105               	movlb	5	; () banked
  2642  003896  6F62               	movwf	_efgtoa$2518& (0+255),b
  2643  003898  6B63               	clrf	(_efgtoa$2518+1)& (0+255),b
  2644  00389A                     
  2645                           ; BSR set to: 5
  2646  00389A  5162               	movf	_efgtoa$2518& (0+255),w,b
  2647  00389C  1163               	iorwf	(_efgtoa$2518+1)& (0+255),w,b
  2648  00389E  B4D8               	btfsc	status,2,c
  2649  0038A0  EF54  F01C         	goto	u5591
  2650  0038A4  EF56  F01C         	goto	u5590
  2651  0038A8                     u5591:
  2652  0038A8  EF64  F01C         	goto	l6229
  2653  0038AC                     u5590:
  2654  0038AC                     
  2655                           ; BSR set to: 5
  2656                           ;C:\Program Files\Microchip\xc8\v2.32\pic\sources\c99\common\doprnt.c: 358:             
      +                          strcpy(&dbuf[n], "INF");
  2657  0038AC  0E00               	movlw	low _dbuf
  2658  0038AE  2592               	addwf	efgtoa@n& (0+255),w,b
  2659  0038B0  6E01               	movwf	strcpy@dest^(0+1280),c
  2660  0038B2  0E06               	movlw	high _dbuf
  2661  0038B4  2193               	addwfc	(efgtoa@n+1)& (0+255),w,b
  2662  0038B6  6E02               	movwf	(strcpy@dest+1)^(0+1280),c
  2663  0038B8  0E6F               	movlw	low STR_3
  2664  0038BA  6E03               	movwf	strcpy@src^(0+1280),c
  2665  0038BC  0E37               	movlw	high STR_3
  2666  0038BE  6E04               	movwf	(strcpy@src+1)^(0+1280),c
  2667  0038C0  EC2B  F035         	call	_strcpy	;wreg free
  2668                           
  2669                           ;C:\Program Files\Microchip\xc8\v2.32\pic\sources\c99\common\doprnt.c: 359:         } el
      +                          se {
  2670  0038C4  EF70  F01C         	goto	l6231
  2671  0038C8                     l6229:
  2672                           
  2673                           ; BSR set to: 5
  2674                           ;C:\Program Files\Microchip\xc8\v2.32\pic\sources\c99\common\doprnt.c: 360:             
      +                          strcpy(&dbuf[n], "inf");
  2675  0038C8  0E00               	movlw	low _dbuf
  2676  0038CA  2592               	addwf	efgtoa@n& (0+255),w,b
  2677  0038CC  6E01               	movwf	strcpy@dest^(0+1280),c
  2678  0038CE  0E06               	movlw	high _dbuf
  2679  0038D0  2193               	addwfc	(efgtoa@n+1)& (0+255),w,b
  2680  0038D2  6E02               	movwf	(strcpy@dest+1)^(0+1280),c
  2681  0038D4  0E77               	movlw	low STR_4
  2682  0038D6  6E03               	movwf	strcpy@src^(0+1280),c
  2683  0038D8  0E37               	movlw	high STR_4
  2684  0038DA  6E04               	movwf	(strcpy@src+1)^(0+1280),c
  2685  0038DC  EC2B  F035         	call	_strcpy	;wreg free
  2686  0038E0                     l6231:
  2687                           
  2688                           ;C:\Program Files\Microchip\xc8\v2.32\pic\sources\c99\common\doprnt.c: 362:         w -=
      +                           ((sizeof("inf")/sizeof("inf"[0]))-1);
  2689  0038E0  0105               	movlb	5	; () banked
  2690  0038E2  0EFD               	movlw	253
  2691  0038E4  277E               	addwf	efgtoa@w& (0+255),f,b
  2692  0038E6  0EFF               	movlw	255
  2693  0038E8  237F               	addwfc	(efgtoa@w+1)& (0+255),f,b
  2694  0038EA                     l6233:
  2695                           
  2696                           ;C:\Program Files\Microchip\xc8\v2.32\pic\sources\c99\common\doprnt.c: 363:         retu
      +                          rn pad(fp, &dbuf[0], w);
  2697  0038EA  C534  F513         	movff	efgtoa@fp,pad@fp
  2698  0038EE  C535  F514         	movff	efgtoa@fp+1,pad@fp+1
  2699  0038F2  0E00               	movlw	low _dbuf
  2700  0038F4  6E15               	movwf	pad@buf^(0+1280),c
  2701  0038F6  0E06               	movlw	high _dbuf
  2702  0038F8  6E16               	movwf	(pad@buf+1)^(0+1280),c
  2703  0038FA  C57E  F517         	movff	efgtoa@w,pad@p
  2704  0038FE  C57F  F518         	movff	efgtoa@w+1,pad@p+1
  2705  003902  EC97  F032         	call	_pad	;wreg free
  2706  003906  C513  F534         	movff	?_pad,?_efgtoa
  2707  00390A  C514  F535         	movff	?_pad+1,?_efgtoa+1
  2708  00390E  EFEF  F021         	goto	l1930
  2709  003912                     l6237:
  2710                           
  2711                           ;C:\Program Files\Microchip\xc8\v2.32\pic\sources\c99\common\doprnt.c: 366:         if (
      +                          (0 ? isupper((int)c) : ((unsigned)((int)c)-'A') < 26)) {
  2712  003912  C58C  F501         	movff	efgtoa@g,___fpclassifyf@x
  2713  003916  C58D  F502         	movff	efgtoa@g+1,___fpclassifyf@x+1
  2714  00391A  C58E  F503         	movff	efgtoa@g+2,___fpclassifyf@x+2
  2715  00391E  C58F  F504         	movff	efgtoa@g+3,___fpclassifyf@x+3
  2716  003922  EC2F  F031         	call	___fpclassifyf	;wreg free
  2717  003926  5001               	movf	?___fpclassifyf^(0+1280),w,c
  2718  003928  1002               	iorwf	(?___fpclassifyf+1)^(0+1280),w,c
  2719  00392A  A4D8               	btfss	status,2,c
  2720  00392C  EF9A  F01C         	goto	u5601
  2721  003930  EF9C  F01C         	goto	u5600
  2722  003934                     u5601:
  2723  003934  EFDC  F01C         	goto	l6255
  2724  003938                     u5600:
  2725  003938  0EBF               	movlw	191
  2726  00393A  6E3B               	movwf	??_efgtoa^(0+1280),c
  2727  00393C  0EFF               	movlw	255
  2728  00393E  6E3C               	movwf	(??_efgtoa+1)^(0+1280),c
  2729  003940  503A               	movf	efgtoa@c^(0+1280),w,c
  2730  003942  6E3D               	movwf	(??_efgtoa+2)^(0+1280),c
  2731  003944  6A3E               	clrf	(??_efgtoa+3)^(0+1280),c
  2732  003946  503B               	movf	??_efgtoa^(0+1280),w,c
  2733  003948  263D               	addwf	(??_efgtoa+2)^(0+1280),f,c
  2734  00394A  503C               	movf	(??_efgtoa+1)^(0+1280),w,c
  2735  00394C  223E               	addwfc	(??_efgtoa+3)^(0+1280),f,c
  2736  00394E  503E               	movf	(??_efgtoa+3)^(0+1280),w,c
  2737  003950  E10A               	bnz	u5610
  2738  003952  0E1A               	movlw	26
  2739  003954  5C3D               	subwf	(??_efgtoa+2)^(0+1280),w,c
  2740  003956  A0D8               	btfss	status,0,c
  2741  003958  EFB0  F01C         	goto	u5611
  2742  00395C  EFB3  F01C         	goto	u5610
  2743  003960                     u5611:
  2744  003960  0E01               	movlw	1
  2745  003962  EFB4  F01C         	goto	u5620
  2746  003966                     u5610:
  2747  003966  0E00               	movlw	0
  2748  003968                     u5620:
  2749  003968  0105               	movlb	5	; () banked
  2750  00396A  6F64               	movwf	_efgtoa$2522& (0+255),b
  2751  00396C  6B65               	clrf	(_efgtoa$2522+1)& (0+255),b
  2752  00396E                     
  2753                           ; BSR set to: 5
  2754  00396E  5164               	movf	_efgtoa$2522& (0+255),w,b
  2755  003970  1165               	iorwf	(_efgtoa$2522+1)& (0+255),w,b
  2756  003972  B4D8               	btfsc	status,2,c
  2757  003974  EFBE  F01C         	goto	u5631
  2758  003978  EFC0  F01C         	goto	u5630
  2759  00397C                     u5631:
  2760  00397C  EFCE  F01C         	goto	l6247
  2761  003980                     u5630:
  2762  003980                     
  2763                           ; BSR set to: 5
  2764                           ;C:\Program Files\Microchip\xc8\v2.32\pic\sources\c99\common\doprnt.c: 367:             
      +                          strcpy(&dbuf[n], "NAN");
  2765  003980  0E00               	movlw	low _dbuf
  2766  003982  2592               	addwf	efgtoa@n& (0+255),w,b
  2767  003984  6E01               	movwf	strcpy@dest^(0+1280),c
  2768  003986  0E06               	movlw	high _dbuf
  2769  003988  2193               	addwfc	(efgtoa@n+1)& (0+255),w,b
  2770  00398A  6E02               	movwf	(strcpy@dest+1)^(0+1280),c
  2771  00398C  0E73               	movlw	low STR_7
  2772  00398E  6E03               	movwf	strcpy@src^(0+1280),c
  2773  003990  0E37               	movlw	high STR_7
  2774  003992  6E04               	movwf	(strcpy@src+1)^(0+1280),c
  2775  003994  EC2B  F035         	call	_strcpy	;wreg free
  2776                           
  2777                           ;C:\Program Files\Microchip\xc8\v2.32\pic\sources\c99\common\doprnt.c: 368:         } el
      +                          se {
  2778  003998  EF70  F01C         	goto	l6231
  2779  00399C                     l6247:
  2780                           
  2781                           ; BSR set to: 5
  2782                           ;C:\Program Files\Microchip\xc8\v2.32\pic\sources\c99\common\doprnt.c: 369:             
      +                          strcpy(&dbuf[n], "nan");
  2783  00399C  0E00               	movlw	low _dbuf
  2784  00399E  2592               	addwf	efgtoa@n& (0+255),w,b
  2785  0039A0  6E01               	movwf	strcpy@dest^(0+1280),c
  2786  0039A2  0E06               	movlw	high _dbuf
  2787  0039A4  2193               	addwfc	(efgtoa@n+1)& (0+255),w,b
  2788  0039A6  6E02               	movwf	(strcpy@dest+1)^(0+1280),c
  2789  0039A8  0E7B               	movlw	low STR_8
  2790  0039AA  6E03               	movwf	strcpy@src^(0+1280),c
  2791  0039AC  0E37               	movlw	high STR_8
  2792  0039AE  6E04               	movwf	(strcpy@src+1)^(0+1280),c
  2793  0039B0  EC2B  F035         	call	_strcpy	;wreg free
  2794  0039B4  EF70  F01C         	goto	l6231
  2795  0039B8                     l6255:
  2796                           
  2797                           ;C:\Program Files\Microchip\xc8\v2.32\pic\sources\c99\common\doprnt.c: 376:     u = 1.0;
  2798  0039B8  0E00               	movlw	0
  2799  0039BA  0105               	movlb	5	; () banked
  2800  0039BC  6F94               	movwf	efgtoa@u& (0+255),b
  2801  0039BE  0E00               	movlw	0
  2802  0039C0  6F95               	movwf	(efgtoa@u+1)& (0+255),b
  2803  0039C2  0E80               	movlw	128
  2804  0039C4  6F96               	movwf	(efgtoa@u+2)& (0+255),b
  2805  0039C6  0E3F               	movlw	63
  2806  0039C8  6F97               	movwf	(efgtoa@u+3)& (0+255),b
  2807                           
  2808                           ;C:\Program Files\Microchip\xc8\v2.32\pic\sources\c99\common\doprnt.c: 377:     e = 0;
  2809  0039CA  0E00               	movlw	0
  2810  0039CC  6F91               	movwf	(efgtoa@e+1)& (0+255),b
  2811  0039CE  0E00               	movlw	0
  2812  0039D0  6F90               	movwf	efgtoa@e& (0+255),b
  2813  0039D2                     
  2814                           ; BSR set to: 5
  2815                           ;C:\Program Files\Microchip\xc8\v2.32\pic\sources\c99\common\doprnt.c: 378:     if (!(g 
      +                          == 0.0)) {
  2816  0039D2  C58C  F501         	movff	efgtoa@g,___fleq@ff1
  2817  0039D6  C58D  F502         	movff	efgtoa@g+1,___fleq@ff1+1
  2818  0039DA  C58E  F503         	movff	efgtoa@g+2,___fleq@ff1+2
  2819  0039DE  C58F  F504         	movff	efgtoa@g+3,___fleq@ff1+3
  2820  0039E2  0E00               	movlw	0
  2821  0039E4  6E05               	movwf	___fleq@ff2^(0+1280),c
  2822  0039E6  0E00               	movlw	0
  2823  0039E8  6E06               	movwf	(___fleq@ff2+1)^(0+1280),c
  2824  0039EA  0E00               	movlw	0
  2825  0039EC  6E07               	movwf	(___fleq@ff2+2)^(0+1280),c
  2826  0039EE  0E00               	movlw	0
  2827  0039F0  6E08               	movwf	(___fleq@ff2+3)^(0+1280),c
  2828  0039F2  EC66  F034         	call	___fleq	;wreg free
  2829  0039F6  B0D8               	btfsc	status,0,c
  2830  0039F8  EF00  F01D         	goto	u5641
  2831  0039FC  EF02  F01D         	goto	u5640
  2832  003A00                     u5641:
  2833  003A00  EF85  F01D         	goto	l6273
  2834  003A04                     u5640:
  2835  003A04  EF21  F01D         	goto	l6265
  2836  003A08                     l6261:
  2837                           
  2838                           ;C:\Program Files\Microchip\xc8\v2.32\pic\sources\c99\common\doprnt.c: 380:             
      +                          u = u*10.0;
  2839  003A08  C594  F50F         	movff	efgtoa@u,___flmul@b
  2840  003A0C  C595  F510         	movff	efgtoa@u+1,___flmul@b+1
  2841  003A10  C596  F511         	movff	efgtoa@u+2,___flmul@b+2
  2842  003A14  C597  F512         	movff	efgtoa@u+3,___flmul@b+3
  2843  003A18  0E00               	movlw	0
  2844  003A1A  6E13               	movwf	___flmul@a^(0+1280),c
  2845  003A1C  0E00               	movlw	0
  2846  003A1E  6E14               	movwf	(___flmul@a+1)^(0+1280),c
  2847  003A20  0E20               	movlw	32
  2848  003A22  6E15               	movwf	(___flmul@a+2)^(0+1280),c
  2849  003A24  0E41               	movlw	65
  2850  003A26  6E16               	movwf	(___flmul@a+3)^(0+1280),c
  2851  003A28  ECC3  F026         	call	___flmul	;wreg free
  2852  003A2C  C50F  F594         	movff	?___flmul,efgtoa@u
  2853  003A30  C510  F595         	movff	?___flmul+1,efgtoa@u+1
  2854  003A34  C511  F596         	movff	?___flmul+2,efgtoa@u+2
  2855  003A38  C512  F597         	movff	?___flmul+3,efgtoa@u+3
  2856  003A3C                     
  2857                           ;C:\Program Files\Microchip\xc8\v2.32\pic\sources\c99\common\doprnt.c: 381:             
      +                          ++e;
  2858  003A3C  0105               	movlb	5	; () banked
  2859  003A3E  4B90               	infsnz	efgtoa@e& (0+255),f,b
  2860  003A40  2B91               	incf	(efgtoa@e+1)& (0+255),f,b
  2861  003A42                     l6265:
  2862                           
  2863                           ;C:\Program Files\Microchip\xc8\v2.32\pic\sources\c99\common\doprnt.c: 379:         whil
      +                          e (!(g < (u*10.0))) {
  2864  003A42  C58C  F528         	movff	efgtoa@g,___flge@ff1
  2865  003A46  C58D  F529         	movff	efgtoa@g+1,___flge@ff1+1
  2866  003A4A  C58E  F52A         	movff	efgtoa@g+2,___flge@ff1+2
  2867  003A4E  C58F  F52B         	movff	efgtoa@g+3,___flge@ff1+3
  2868  003A52  0E00               	movlw	0
  2869  003A54  6E13               	movwf	___flmul@a^(0+1280),c
  2870  003A56  0E00               	movlw	0
  2871  003A58  6E14               	movwf	(___flmul@a+1)^(0+1280),c
  2872  003A5A  0E20               	movlw	32
  2873  003A5C  6E15               	movwf	(___flmul@a+2)^(0+1280),c
  2874  003A5E  0E41               	movlw	65
  2875  003A60  6E16               	movwf	(___flmul@a+3)^(0+1280),c
  2876  003A62  C594  F50F         	movff	efgtoa@u,___flmul@b
  2877  003A66  C595  F510         	movff	efgtoa@u+1,___flmul@b+1
  2878  003A6A  C596  F511         	movff	efgtoa@u+2,___flmul@b+2
  2879  003A6E  C597  F512         	movff	efgtoa@u+3,___flmul@b+3
  2880  003A72  ECC3  F026         	call	___flmul	;wreg free
  2881  003A76  C50F  F52C         	movff	?___flmul,___flge@ff2
  2882  003A7A  C510  F52D         	movff	?___flmul+1,___flge@ff2+1
  2883  003A7E  C511  F52E         	movff	?___flmul+2,___flge@ff2+2
  2884  003A82  C512  F52F         	movff	?___flmul+3,___flge@ff2+3
  2885  003A86  ECAD  F030         	call	___flge	;wreg free
  2886  003A8A  B0D8               	btfsc	status,0,c
  2887  003A8C  EF4A  F01D         	goto	u5651
  2888  003A90  EF4C  F01D         	goto	u5650
  2889  003A94                     u5651:
  2890  003A94  EF04  F01D         	goto	l6261
  2891  003A98                     u5650:
  2892  003A98  EF6C  F01D         	goto	l6271
  2893  003A9C                     l6267:
  2894                           
  2895                           ;C:\Program Files\Microchip\xc8\v2.32\pic\sources\c99\common\doprnt.c: 384:             
      +                          u = u/10.0;
  2896  003A9C  C594  F501         	movff	efgtoa@u,___fldiv@b
  2897  003AA0  C595  F502         	movff	efgtoa@u+1,___fldiv@b+1
  2898  003AA4  C596  F503         	movff	efgtoa@u+2,___fldiv@b+2
  2899  003AA8  C597  F504         	movff	efgtoa@u+3,___fldiv@b+3
  2900  003AAC  0E00               	movlw	0
  2901  003AAE  6E05               	movwf	___fldiv@a^(0+1280),c
  2902  003AB0  0E00               	movlw	0
  2903  003AB2  6E06               	movwf	(___fldiv@a+1)^(0+1280),c
  2904  003AB4  0E20               	movlw	32
  2905  003AB6  6E07               	movwf	(___fldiv@a+2)^(0+1280),c
  2906  003AB8  0E41               	movlw	65
  2907  003ABA  6E08               	movwf	(___fldiv@a+3)^(0+1280),c
  2908  003ABC  ECEA  F028         	call	___fldiv	;wreg free
  2909  003AC0  C501  F594         	movff	?___fldiv,efgtoa@u
  2910  003AC4  C502  F595         	movff	?___fldiv+1,efgtoa@u+1
  2911  003AC8  C503  F596         	movff	?___fldiv+2,efgtoa@u+2
  2912  003ACC  C504  F597         	movff	?___fldiv+3,efgtoa@u+3
  2913  003AD0                     
  2914                           ;C:\Program Files\Microchip\xc8\v2.32\pic\sources\c99\common\doprnt.c: 385:             
      +                          --e;
  2915  003AD0  0105               	movlb	5	; () banked
  2916  003AD2  0790               	decf	efgtoa@e& (0+255),f,b
  2917  003AD4  A0D8               	btfss	status,0,c
  2918  003AD6  0791               	decf	(efgtoa@e+1)& (0+255),f,b
  2919  003AD8                     l6271:
  2920                           
  2921                           ;C:\Program Files\Microchip\xc8\v2.32\pic\sources\c99\common\doprnt.c: 383:         whil
      +                          e (g < u) {
  2922  003AD8  C58C  F528         	movff	efgtoa@g,___flge@ff1
  2923  003ADC  C58D  F529         	movff	efgtoa@g+1,___flge@ff1+1
  2924  003AE0  C58E  F52A         	movff	efgtoa@g+2,___flge@ff1+2
  2925  003AE4  C58F  F52B         	movff	efgtoa@g+3,___flge@ff1+3
  2926  003AE8  C594  F52C         	movff	efgtoa@u,___flge@ff2
  2927  003AEC  C595  F52D         	movff	efgtoa@u+1,___flge@ff2+1
  2928  003AF0  C596  F52E         	movff	efgtoa@u+2,___flge@ff2+2
  2929  003AF4  C597  F52F         	movff	efgtoa@u+3,___flge@ff2+3
  2930  003AF8  ECAD  F030         	call	___flge	;wreg free
  2931  003AFC  A0D8               	btfss	status,0,c
  2932  003AFE  EF83  F01D         	goto	u5661
  2933  003B02  EF85  F01D         	goto	u5660
  2934  003B06                     u5661:
  2935  003B06  EF4E  F01D         	goto	l6267
  2936  003B0A                     u5660:
  2937  003B0A                     l6273:
  2938                           
  2939                           ;C:\Program Files\Microchip\xc8\v2.32\pic\sources\c99\common\doprnt.c: 390:     mode = (
      +                          char)tolower((int)c);
  2940  003B0A  C53A  F507         	movff	efgtoa@c,tolower@c
  2941  003B0E  6A08               	clrf	(tolower@c+1)^(0+1280),c
  2942  003B10  EC5E  F035         	call	_tolower	;wreg free
  2943  003B14  5007               	movf	?_tolower^(0+1280),w,c
  2944  003B16  0105               	movlb	5	; () banked
  2945  003B18  6F81               	movwf	efgtoa@mode& (0+255),b
  2946  003B1A                     
  2947                           ; BSR set to: 5
  2948                           ;C:\Program Files\Microchip\xc8\v2.32\pic\sources\c99\common\doprnt.c: 391:     nmode = 
      +                          mode;
  2949  003B1A  C581  F580         	movff	efgtoa@mode,efgtoa@nmode
  2950  003B1E                     
  2951                           ; BSR set to: 5
  2952                           ;C:\Program Files\Microchip\xc8\v2.32\pic\sources\c99\common\doprnt.c: 392:     if (mode
      +                           == 'g') {
  2953  003B1E  0E67               	movlw	103
  2954  003B20  1981               	xorwf	efgtoa@mode& (0+255),w,b
  2955  003B22  A4D8               	btfss	status,2,c
  2956  003B24  EF96  F01D         	goto	u5671
  2957  003B28  EF98  F01D         	goto	u5670
  2958  003B2C                     u5671:
  2959  003B2C  EFBE  F01D         	goto	l6287
  2960  003B30                     u5670:
  2961  003B30                     
  2962                           ; BSR set to: 5
  2963                           ;C:\Program Files\Microchip\xc8\v2.32\pic\sources\c99\common\doprnt.c: 393:   if (prec =
      +                          = 0) {
  2964  003B30  51EA               	movf	_prec& (0+255),w,b
  2965  003B32  11EB               	iorwf	(_prec+1)& (0+255),w,b
  2966  003B34  A4D8               	btfss	status,2,c
  2967  003B36  EF9F  F01D         	goto	u5681
  2968  003B3A  EFA1  F01D         	goto	u5680
  2969  003B3E                     u5681:
  2970  003B3E  EFA5  F01D         	goto	l6283
  2971  003B42                     u5680:
  2972  003B42                     
  2973                           ; BSR set to: 5
  2974                           ;C:\Program Files\Microchip\xc8\v2.32\pic\sources\c99\common\doprnt.c: 394:    prec = 1;
  2975  003B42  0E00               	movlw	0
  2976  003B44  6FEB               	movwf	(_prec+1)& (0+255),b
  2977  003B46  0E01               	movlw	1
  2978  003B48  6FEA               	movwf	_prec& (0+255),b
  2979  003B4A                     l6283:
  2980                           
  2981                           ; BSR set to: 5
  2982                           ;C:\Program Files\Microchip\xc8\v2.32\pic\sources\c99\common\doprnt.c: 396:         p = 
      +                          (0 < prec) ? prec : 6;
  2983  003B4A  BFEB               	btfsc	(_prec+1)& (0+255),7,b
  2984  003B4C  EFB2  F01D         	goto	u5690
  2985  003B50  51EB               	movf	(_prec+1)& (0+255),w,b
  2986  003B52  E106               	bnz	u5691
  2987  003B54  05EA               	decf	_prec& (0+255),w,b
  2988  003B56  B0D8               	btfsc	status,0,c
  2989  003B58  EFB0  F01D         	goto	u5691
  2990  003B5C  EFB2  F01D         	goto	u5690
  2991  003B60                     u5691:
  2992  003B60  EFB8  F01D         	goto	l1948
  2993  003B64                     u5690:
  2994  003B64                     l6285:
  2995                           
  2996                           ; BSR set to: 5
  2997  003B64  0E00               	movlw	0
  2998  003B66  6F7D               	movwf	(efgtoa@p+1)& (0+255),b
  2999  003B68  0E06               	movlw	6
  3000  003B6A  6F7C               	movwf	efgtoa@p& (0+255),b
  3001  003B6C  EFC7  F01D         	goto	l6293
  3002  003B70                     l1948:
  3003                           
  3004                           ; BSR set to: 5
  3005  003B70  C5EA  F57C         	movff	_prec,efgtoa@p
  3006  003B74  C5EB  F57D         	movff	_prec+1,efgtoa@p+1
  3007  003B78  EFC7  F01D         	goto	l6293
  3008  003B7C                     l6287:
  3009                           
  3010                           ; BSR set to: 5
  3011                           ;C:\Program Files\Microchip\xc8\v2.32\pic\sources\c99\common\doprnt.c: 398:         p = 
      +                          (prec < 0) ? 6 : prec;
  3012  003B7C  BFEB               	btfsc	(_prec+1)& (0+255),7,b
  3013  003B7E  EFC3  F01D         	goto	u5701
  3014  003B82  EFC5  F01D         	goto	u5700
  3015  003B86                     u5701:
  3016  003B86  EFB2  F01D         	goto	l6285
  3017  003B8A                     u5700:
  3018  003B8A  EFB8  F01D         	goto	l1948
  3019  003B8E                     l6293:
  3020                           
  3021                           ; BSR set to: 5
  3022                           ;C:\Program Files\Microchip\xc8\v2.32\pic\sources\c99\common\doprnt.c: 402:     if (mode
      +                           == 'g') {
  3023  003B8E  0E67               	movlw	103
  3024  003B90  1981               	xorwf	efgtoa@mode& (0+255),w,b
  3025  003B92  A4D8               	btfss	status,2,c
  3026  003B94  EFCE  F01D         	goto	u5711
  3027  003B98  EFD0  F01D         	goto	u5710
  3028  003B9C                     u5711:
  3029  003B9C  EFFF  F01D         	goto	l6303
  3030  003BA0                     u5710:
  3031  003BA0                     
  3032                           ; BSR set to: 5
  3033                           ;C:\Program Files\Microchip\xc8\v2.32\pic\sources\c99\common\doprnt.c: 403:         if (
      +                          !(e < -4) && !((p - 1) < e)) {
  3034  003BA0  AF91               	btfss	(efgtoa@e+1)& (0+255),7,b
  3035  003BA2  EFDE  F01D         	goto	u5720
  3036  003BA6  0EFC               	movlw	252
  3037  003BA8  5D90               	subwf	efgtoa@e& (0+255),w,b
  3038  003BAA  0EFF               	movlw	255
  3039  003BAC  5991               	subwfb	(efgtoa@e+1)& (0+255),w,b
  3040  003BAE  A0D8               	btfss	status,0,c
  3041  003BB0  EFDC  F01D         	goto	u5721
  3042  003BB4  EFDE  F01D         	goto	u5720
  3043  003BB8                     u5721:
  3044  003BB8  EFFD  F01D         	goto	l6301
  3045  003BBC                     u5720:
  3046  003BBC                     
  3047                           ; BSR set to: 5
  3048  003BBC  0EFF               	movlw	255
  3049  003BBE  6E3B               	movwf	??_efgtoa^(0+1280),c
  3050  003BC0  0EFF               	movlw	255
  3051  003BC2  6E3C               	movwf	(??_efgtoa+1)^(0+1280),c
  3052  003BC4  C57C  F53D         	movff	efgtoa@p,??_efgtoa+2
  3053  003BC8  C57D  F53E         	movff	efgtoa@p+1,??_efgtoa+3
  3054  003BCC  503B               	movf	??_efgtoa^(0+1280),w,c
  3055  003BCE  263D               	addwf	(??_efgtoa+2)^(0+1280),f,c
  3056  003BD0  503C               	movf	(??_efgtoa+1)^(0+1280),w,c
  3057  003BD2  223E               	addwfc	(??_efgtoa+3)^(0+1280),f,c
  3058  003BD4  5190               	movf	efgtoa@e& (0+255),w,b
  3059  003BD6  5C3D               	subwf	(??_efgtoa+2)^(0+1280),w,c
  3060  003BD8  503E               	movf	(??_efgtoa+3)^(0+1280),w,c
  3061  003BDA  0A80               	xorlw	128
  3062  003BDC  6E3F               	movwf	(??_efgtoa+4)^(0+1280),c
  3063  003BDE  5191               	movf	(efgtoa@e+1)& (0+255),w,b
  3064  003BE0  0A80               	xorlw	128
  3065  003BE2  583F               	subwfb	(??_efgtoa+4)^(0+1280),w,c
  3066  003BE4  A0D8               	btfss	status,0,c
  3067  003BE6  EFF7  F01D         	goto	u5731
  3068  003BEA  EFF9  F01D         	goto	u5730
  3069  003BEE                     u5731:
  3070  003BEE  EFFD  F01D         	goto	l6301
  3071  003BF2                     u5730:
  3072  003BF2                     
  3073                           ; BSR set to: 5
  3074                           ;C:\Program Files\Microchip\xc8\v2.32\pic\sources\c99\common\doprnt.c: 404:             
      +                          nmode = 'f';
  3075  003BF2  0E66               	movlw	102
  3076  003BF4  6F80               	movwf	efgtoa@nmode& (0+255),b
  3077                           
  3078                           ;C:\Program Files\Microchip\xc8\v2.32\pic\sources\c99\common\doprnt.c: 405:         } el
      +                          se {
  3079  003BF6  EFFF  F01D         	goto	l6303
  3080  003BFA                     l6301:
  3081                           
  3082                           ; BSR set to: 5
  3083                           ;C:\Program Files\Microchip\xc8\v2.32\pic\sources\c99\common\doprnt.c: 406:             
      +                          nmode = 'e';
  3084  003BFA  0E65               	movlw	101
  3085  003BFC  6F80               	movwf	efgtoa@nmode& (0+255),b
  3086  003BFE                     l6303:
  3087                           
  3088                           ; BSR set to: 5
  3089                           ;C:\Program Files\Microchip\xc8\v2.32\pic\sources\c99\common\doprnt.c: 411:     m = p;
  3090  003BFE  C57C  F572         	movff	efgtoa@p,efgtoa@m
  3091  003C02  C57D  F573         	movff	efgtoa@p+1,efgtoa@m+1
  3092  003C06                     
  3093                           ; BSR set to: 5
  3094                           ;C:\Program Files\Microchip\xc8\v2.32\pic\sources\c99\common\doprnt.c: 412:     if (!(mo
      +                          de == 'g') || ((nmode == 'f') && (e < 0))) {
  3095  003C06  0E67               	movlw	103
  3096  003C08  1981               	xorwf	efgtoa@mode& (0+255),w,b
  3097  003C0A  A4D8               	btfss	status,2,c
  3098  003C0C  EF0A  F01E         	goto	u5741
  3099  003C10  EF0C  F01E         	goto	u5740
  3100  003C14                     u5741:
  3101  003C14  EF1C  F01E         	goto	l6311
  3102  003C18                     u5740:
  3103  003C18                     
  3104                           ; BSR set to: 5
  3105  003C18  0E66               	movlw	102
  3106  003C1A  1980               	xorwf	efgtoa@nmode& (0+255),w,b
  3107  003C1C  A4D8               	btfss	status,2,c
  3108  003C1E  EF13  F01E         	goto	u5751
  3109  003C22  EF15  F01E         	goto	u5750
  3110  003C26                     u5751:
  3111  003C26  EF1E  F01E         	goto	l6313
  3112  003C2A                     u5750:
  3113  003C2A                     
  3114                           ; BSR set to: 5
  3115  003C2A  BF91               	btfsc	(efgtoa@e+1)& (0+255),7,b
  3116  003C2C  EF1C  F01E         	goto	u5760
  3117  003C30  EF1A  F01E         	goto	u5761
  3118  003C34                     u5761:
  3119  003C34  EF1E  F01E         	goto	l6313
  3120  003C38                     u5760:
  3121  003C38                     l6311:
  3122                           
  3123                           ; BSR set to: 5
  3124                           ;C:\Program Files\Microchip\xc8\v2.32\pic\sources\c99\common\doprnt.c: 413:         ++m;
  3125  003C38  4B72               	infsnz	efgtoa@m& (0+255),f,b
  3126  003C3A  2B73               	incf	(efgtoa@m+1)& (0+255),f,b
  3127  003C3C                     l6313:
  3128                           
  3129                           ; BSR set to: 5
  3130                           ;C:\Program Files\Microchip\xc8\v2.32\pic\sources\c99\common\doprnt.c: 417:     if (nmod
      +                          e == 'f') {
  3131  003C3C  0E66               	movlw	102
  3132  003C3E  1980               	xorwf	efgtoa@nmode& (0+255),w,b
  3133  003C40  A4D8               	btfss	status,2,c
  3134  003C42  EF25  F01E         	goto	u5771
  3135  003C46  EF27  F01E         	goto	u5770
  3136  003C4A                     u5771:
  3137  003C4A  EF47  F01E         	goto	l6323
  3138  003C4E                     u5770:
  3139  003C4E                     
  3140                           ; BSR set to: 5
  3141                           ;C:\Program Files\Microchip\xc8\v2.32\pic\sources\c99\common\doprnt.c: 418:         if (
      +                          e < 0) {
  3142  003C4E  BF91               	btfsc	(efgtoa@e+1)& (0+255),7,b
  3143  003C50  EF2E  F01E         	goto	u5780
  3144  003C54  EF2C  F01E         	goto	u5781
  3145  003C58                     u5781:
  3146  003C58  EF3A  F01E         	goto	l6319
  3147  003C5C                     u5780:
  3148  003C5C                     
  3149                           ; BSR set to: 5
  3150                           ;C:\Program Files\Microchip\xc8\v2.32\pic\sources\c99\common\doprnt.c: 419:             
      +                          u = 1.0;
  3151  003C5C  0E00               	movlw	0
  3152  003C5E  6F94               	movwf	efgtoa@u& (0+255),b
  3153  003C60  0E00               	movlw	0
  3154  003C62  6F95               	movwf	(efgtoa@u+1)& (0+255),b
  3155  003C64  0E80               	movlw	128
  3156  003C66  6F96               	movwf	(efgtoa@u+2)& (0+255),b
  3157  003C68  0E3F               	movlw	63
  3158  003C6A  6F97               	movwf	(efgtoa@u+3)& (0+255),b
  3159                           
  3160                           ;C:\Program Files\Microchip\xc8\v2.32\pic\sources\c99\common\doprnt.c: 420:             
      +                          e = 0;
  3161  003C6C  0E00               	movlw	0
  3162  003C6E  6F91               	movwf	(efgtoa@e+1)& (0+255),b
  3163  003C70  0E00               	movlw	0
  3164  003C72  6F90               	movwf	efgtoa@e& (0+255),b
  3165  003C74                     l6319:
  3166                           
  3167                           ; BSR set to: 5
  3168                           ;C:\Program Files\Microchip\xc8\v2.32\pic\sources\c99\common\doprnt.c: 422:         if (
      +                          !(mode == 'g')) {
  3169  003C74  0E67               	movlw	103
  3170  003C76  1981               	xorwf	efgtoa@mode& (0+255),w,b
  3171  003C78  B4D8               	btfsc	status,2,c
  3172  003C7A  EF41  F01E         	goto	u5791
  3173  003C7E  EF43  F01E         	goto	u5790
  3174  003C82                     u5791:
  3175  003C82  EF47  F01E         	goto	l6323
  3176  003C86                     u5790:
  3177  003C86                     
  3178                           ; BSR set to: 5
  3179                           ;C:\Program Files\Microchip\xc8\v2.32\pic\sources\c99\common\doprnt.c: 423:             
      +                          m += e;
  3180  003C86  5190               	movf	efgtoa@e& (0+255),w,b
  3181  003C88  2772               	addwf	efgtoa@m& (0+255),f,b
  3182  003C8A  5191               	movf	(efgtoa@e+1)& (0+255),w,b
  3183  003C8C  2373               	addwfc	(efgtoa@m+1)& (0+255),f,b
  3184  003C8E                     l6323:
  3185                           
  3186                           ; BSR set to: 5
  3187                           ;C:\Program Files\Microchip\xc8\v2.32\pic\sources\c99\common\doprnt.c: 428:     i = 0;
  3188  003C8E  0E00               	movlw	0
  3189  003C90  6F8B               	movwf	(efgtoa@i+1)& (0+255),b
  3190  003C92  0E00               	movlw	0
  3191  003C94  6F8A               	movwf	efgtoa@i& (0+255),b
  3192  003C96                     
  3193                           ; BSR set to: 5
  3194                           ;C:\Program Files\Microchip\xc8\v2.32\pic\sources\c99\common\doprnt.c: 429:     h = g;
  3195  003C96  C58C  F582         	movff	efgtoa@g,efgtoa@h
  3196  003C9A  C58D  F583         	movff	efgtoa@g+1,efgtoa@h+1
  3197  003C9E  C58E  F584         	movff	efgtoa@g+2,efgtoa@h+2
  3198  003CA2  C58F  F585         	movff	efgtoa@g+3,efgtoa@h+3
  3199  003CA6                     
  3200                           ; BSR set to: 5
  3201                           ;C:\Program Files\Microchip\xc8\v2.32\pic\sources\c99\common\doprnt.c: 430:     ou = u;
  3202  003CA6  C594  F574         	movff	efgtoa@u,efgtoa@ou
  3203  003CAA  C595  F575         	movff	efgtoa@u+1,efgtoa@ou+1
  3204  003CAE  C596  F576         	movff	efgtoa@u+2,efgtoa@ou+2
  3205  003CB2  C597  F577         	movff	efgtoa@u+3,efgtoa@ou+3
  3206                           
  3207                           ;C:\Program Files\Microchip\xc8\v2.32\pic\sources\c99\common\doprnt.c: 431:     while (i
      +                           < m) {
  3208  003CB6  EFD8  F01E         	goto	l6337
  3209  003CBA                     l6329:
  3210                           
  3211                           ; BSR set to: 5
  3212                           ;C:\Program Files\Microchip\xc8\v2.32\pic\sources\c99\common\doprnt.c: 432:         l = 
      +                          floorf(h/u);
  3213  003CBA  C582  F501         	movff	efgtoa@h,___fldiv@b
  3214  003CBE  C583  F502         	movff	efgtoa@h+1,___fldiv@b+1
  3215  003CC2  C584  F503         	movff	efgtoa@h+2,___fldiv@b+2
  3216  003CC6  C585  F504         	movff	efgtoa@h+3,___fldiv@b+3
  3217  003CCA  C594  F505         	movff	efgtoa@u,___fldiv@a
  3218  003CCE  C595  F506         	movff	efgtoa@u+1,___fldiv@a+1
  3219  003CD2  C596  F507         	movff	efgtoa@u+2,___fldiv@a+2
  3220  003CD6  C597  F508         	movff	efgtoa@u+3,___fldiv@a+3
  3221  003CDA  ECEA  F028         	call	___fldiv	;wreg free
  3222  003CDE  C501  F51A         	movff	?___fldiv,floorf@x
  3223  003CE2  C502  F51B         	movff	?___fldiv+1,floorf@x+1
  3224  003CE6  C503  F51C         	movff	?___fldiv+2,floorf@x+2
  3225  003CEA  C504  F51D         	movff	?___fldiv+3,floorf@x+3
  3226  003CEE  EC2A  F02C         	call	_floorf	;wreg free
  3227  003CF2  C51A  F586         	movff	?_floorf,efgtoa@l
  3228  003CF6  C51B  F587         	movff	?_floorf+1,efgtoa@l+1
  3229  003CFA  C51C  F588         	movff	?_floorf+2,efgtoa@l+2
  3230  003CFE  C51D  F589         	movff	?_floorf+3,efgtoa@l+3
  3231                           
  3232                           ;C:\Program Files\Microchip\xc8\v2.32\pic\sources\c99\common\doprnt.c: 433:         d = 
      +                          (int)l;
  3233  003D02  C586  F501         	movff	efgtoa@l,___fltol@f1
  3234  003D06  C587  F502         	movff	efgtoa@l+1,___fltol@f1+1
  3235  003D0A  C588  F503         	movff	efgtoa@l+2,___fltol@f1+2
  3236  003D0E  C589  F504         	movff	efgtoa@l+3,___fltol@f1+3
  3237  003D12  EC2A  F030         	call	___fltol	;wreg free
  3238  003D16  C501  F578         	movff	?___fltol,efgtoa@d
  3239  003D1A  C502  F579         	movff	?___fltol+1,efgtoa@d+1
  3240  003D1E                     
  3241                           ;C:\Program Files\Microchip\xc8\v2.32\pic\sources\c99\common\doprnt.c: 434:         h -=
      +                           l*u;
  3242  003D1E  C582  F528         	movff	efgtoa@h,___flsub@b
  3243  003D22  C583  F529         	movff	efgtoa@h+1,___flsub@b+1
  3244  003D26  C584  F52A         	movff	efgtoa@h+2,___flsub@b+2
  3245  003D2A  C585  F52B         	movff	efgtoa@h+3,___flsub@b+3
  3246  003D2E  C594  F513         	movff	efgtoa@u,___flmul@a
  3247  003D32  C595  F514         	movff	efgtoa@u+1,___flmul@a+1
  3248  003D36  C596  F515         	movff	efgtoa@u+2,___flmul@a+2
  3249  003D3A  C597  F516         	movff	efgtoa@u+3,___flmul@a+3
  3250  003D3E  C586  F50F         	movff	efgtoa@l,___flmul@b
  3251  003D42  C587  F510         	movff	efgtoa@l+1,___flmul@b+1
  3252  003D46  C588  F511         	movff	efgtoa@l+2,___flmul@b+2
  3253  003D4A  C589  F512         	movff	efgtoa@l+3,___flmul@b+3
  3254  003D4E  ECC3  F026         	call	___flmul	;wreg free
  3255  003D52  C50F  F52C         	movff	?___flmul,___flsub@a
  3256  003D56  C510  F52D         	movff	?___flmul+1,___flsub@a+1
  3257  003D5A  C511  F52E         	movff	?___flmul+2,___flsub@a+2
  3258  003D5E  C512  F52F         	movff	?___flmul+3,___flsub@a+3
  3259  003D62  ECB7  F035         	call	___flsub	;wreg free
  3260  003D66  C528  F582         	movff	?___flsub,efgtoa@h
  3261  003D6A  C529  F583         	movff	?___flsub+1,efgtoa@h+1
  3262  003D6E  C52A  F584         	movff	?___flsub+2,efgtoa@h+2
  3263  003D72  C52B  F585         	movff	?___flsub+3,efgtoa@h+3
  3264  003D76                     
  3265                           ;C:\Program Files\Microchip\xc8\v2.32\pic\sources\c99\common\doprnt.c: 435:         u = 
      +                          u/10.0;
  3266  003D76  C594  F501         	movff	efgtoa@u,___fldiv@b
  3267  003D7A  C595  F502         	movff	efgtoa@u+1,___fldiv@b+1
  3268  003D7E  C596  F503         	movff	efgtoa@u+2,___fldiv@b+2
  3269  003D82  C597  F504         	movff	efgtoa@u+3,___fldiv@b+3
  3270  003D86  0E00               	movlw	0
  3271  003D88  6E05               	movwf	___fldiv@a^(0+1280),c
  3272  003D8A  0E00               	movlw	0
  3273  003D8C  6E06               	movwf	(___fldiv@a+1)^(0+1280),c
  3274  003D8E  0E20               	movlw	32
  3275  003D90  6E07               	movwf	(___fldiv@a+2)^(0+1280),c
  3276  003D92  0E41               	movlw	65
  3277  003D94  6E08               	movwf	(___fldiv@a+3)^(0+1280),c
  3278  003D96  ECEA  F028         	call	___fldiv	;wreg free
  3279  003D9A  C501  F594         	movff	?___fldiv,efgtoa@u
  3280  003D9E  C502  F595         	movff	?___fldiv+1,efgtoa@u+1
  3281  003DA2  C503  F596         	movff	?___fldiv+2,efgtoa@u+2
  3282  003DA6  C504  F597         	movff	?___fldiv+3,efgtoa@u+3
  3283  003DAA                     
  3284                           ;C:\Program Files\Microchip\xc8\v2.32\pic\sources\c99\common\doprnt.c: 436:         ++i;
  3285  003DAA  0105               	movlb	5	; () banked
  3286  003DAC  4B8A               	infsnz	efgtoa@i& (0+255),f,b
  3287  003DAE  2B8B               	incf	(efgtoa@i+1)& (0+255),f,b
  3288  003DB0                     l6337:
  3289                           
  3290                           ; BSR set to: 5
  3291                           ;C:\Program Files\Microchip\xc8\v2.32\pic\sources\c99\common\doprnt.c: 431:     while (i
      +                           < m) {
  3292  003DB0  5172               	movf	efgtoa@m& (0+255),w,b
  3293  003DB2  5D8A               	subwf	efgtoa@i& (0+255),w,b
  3294  003DB4  518B               	movf	(efgtoa@i+1)& (0+255),w,b
  3295  003DB6  0A80               	xorlw	128
  3296  003DB8  6E3B               	movwf	??_efgtoa^(0+1280),c
  3297  003DBA  5173               	movf	(efgtoa@m+1)& (0+255),w,b
  3298  003DBC  0A80               	xorlw	128
  3299  003DBE  583B               	subwfb	??_efgtoa^(0+1280),w,c
  3300  003DC0  A0D8               	btfss	status,0,c
  3301  003DC2  EFE5  F01E         	goto	u5801
  3302  003DC6  EFE7  F01E         	goto	u5800
  3303  003DCA                     u5801:
  3304  003DCA  EF5D  F01E         	goto	l6329
  3305  003DCE                     u5800:
  3306  003DCE                     
  3307                           ; BSR set to: 5
  3308                           ;C:\Program Files\Microchip\xc8\v2.32\pic\sources\c99\common\doprnt.c: 440:     l = u*5.
      +                          0;
  3309  003DCE  C594  F50F         	movff	efgtoa@u,___flmul@b
  3310  003DD2  C595  F510         	movff	efgtoa@u+1,___flmul@b+1
  3311  003DD6  C596  F511         	movff	efgtoa@u+2,___flmul@b+2
  3312  003DDA  C597  F512         	movff	efgtoa@u+3,___flmul@b+3
  3313  003DDE  0E00               	movlw	0
  3314  003DE0  6E13               	movwf	___flmul@a^(0+1280),c
  3315  003DE2  0E00               	movlw	0
  3316  003DE4  6E14               	movwf	(___flmul@a+1)^(0+1280),c
  3317  003DE6  0EA0               	movlw	160
  3318  003DE8  6E15               	movwf	(___flmul@a+2)^(0+1280),c
  3319  003DEA  0E40               	movlw	64
  3320  003DEC  6E16               	movwf	(___flmul@a+3)^(0+1280),c
  3321  003DEE  ECC3  F026         	call	___flmul	;wreg free
  3322  003DF2  C50F  F586         	movff	?___flmul,efgtoa@l
  3323  003DF6  C510  F587         	movff	?___flmul+1,efgtoa@l+1
  3324  003DFA  C511  F588         	movff	?___flmul+2,efgtoa@l+2
  3325  003DFE  C512  F589         	movff	?___flmul+3,efgtoa@l+3
  3326  003E02                     
  3327                           ;C:\Program Files\Microchip\xc8\v2.32\pic\sources\c99\common\doprnt.c: 441:     if (h < 
      +                          l) {
  3328  003E02  C582  F528         	movff	efgtoa@h,___flge@ff1
  3329  003E06  C583  F529         	movff	efgtoa@h+1,___flge@ff1+1
  3330  003E0A  C584  F52A         	movff	efgtoa@h+2,___flge@ff1+2
  3331  003E0E  C585  F52B         	movff	efgtoa@h+3,___flge@ff1+3
  3332  003E12  C586  F52C         	movff	efgtoa@l,___flge@ff2
  3333  003E16  C587  F52D         	movff	efgtoa@l+1,___flge@ff2+1
  3334  003E1A  C588  F52E         	movff	efgtoa@l+2,___flge@ff2+2
  3335  003E1E  C589  F52F         	movff	efgtoa@l+3,___flge@ff2+3
  3336  003E22  ECAD  F030         	call	___flge	;wreg free
  3337  003E26  B0D8               	btfsc	status,0,c
  3338  003E28  EF18  F01F         	goto	u5811
  3339  003E2C  EF1A  F01F         	goto	u5810
  3340  003E30                     u5811:
  3341  003E30  EF25  F01F         	goto	l6345
  3342  003E34                     u5810:
  3343  003E34                     
  3344                           ;C:\Program Files\Microchip\xc8\v2.32\pic\sources\c99\common\doprnt.c: 442:         l = 
      +                          0.0;
  3345  003E34  0E00               	movlw	0
  3346  003E36  0105               	movlb	5	; () banked
  3347  003E38  6F86               	movwf	efgtoa@l& (0+255),b
  3348  003E3A  0E00               	movlw	0
  3349  003E3C  6F87               	movwf	(efgtoa@l+1)& (0+255),b
  3350  003E3E  0E00               	movlw	0
  3351  003E40  6F88               	movwf	(efgtoa@l+2)& (0+255),b
  3352  003E42  0E00               	movlw	0
  3353  003E44  6F89               	movwf	(efgtoa@l+3)& (0+255),b
  3354                           
  3355                           ;C:\Program Files\Microchip\xc8\v2.32\pic\sources\c99\common\doprnt.c: 443:     } else {
  3356  003E46  EF4E  F01F         	goto	l6351
  3357  003E4A                     l6345:
  3358                           
  3359                           ;C:\Program Files\Microchip\xc8\v2.32\pic\sources\c99\common\doprnt.c: 445:         if (
      +                          (h == l) && !(d % 2)) {
  3360  003E4A  C582  F501         	movff	efgtoa@h,___fleq@ff1
  3361  003E4E  C583  F502         	movff	efgtoa@h+1,___fleq@ff1+1
  3362  003E52  C584  F503         	movff	efgtoa@h+2,___fleq@ff1+2
  3363  003E56  C585  F504         	movff	efgtoa@h+3,___fleq@ff1+3
  3364  003E5A  C586  F505         	movff	efgtoa@l,___fleq@ff2
  3365  003E5E  C587  F506         	movff	efgtoa@l+1,___fleq@ff2+1
  3366  003E62  C588  F507         	movff	efgtoa@l+2,___fleq@ff2+2
  3367  003E66  C589  F508         	movff	efgtoa@l+3,___fleq@ff2+3
  3368  003E6A  EC66  F034         	call	___fleq	;wreg free
  3369  003E6E  A0D8               	btfss	status,0,c
  3370  003E70  EF3C  F01F         	goto	u5821
  3371  003E74  EF3E  F01F         	goto	u5820
  3372  003E78                     u5821:
  3373  003E78  EF4E  F01F         	goto	l6351
  3374  003E7C                     u5820:
  3375  003E7C  0105               	movlb	5	; () banked
  3376  003E7E  B178               	btfsc	efgtoa@d& (0+255),0,b
  3377  003E80  EF44  F01F         	goto	u5831
  3378  003E84  EF46  F01F         	goto	u5830
  3379  003E88                     u5831:
  3380  003E88  EF4E  F01F         	goto	l6351
  3381  003E8C                     u5830:
  3382  003E8C                     
  3383                           ; BSR set to: 5
  3384                           ;C:\Program Files\Microchip\xc8\v2.32\pic\sources\c99\common\doprnt.c: 446:             
      +                          l = 0.0;
  3385  003E8C  0E00               	movlw	0
  3386  003E8E  6F86               	movwf	efgtoa@l& (0+255),b
  3387  003E90  0E00               	movlw	0
  3388  003E92  6F87               	movwf	(efgtoa@l+1)& (0+255),b
  3389  003E94  0E00               	movlw	0
  3390  003E96  6F88               	movwf	(efgtoa@l+2)& (0+255),b
  3391  003E98  0E00               	movlw	0
  3392  003E9A  6F89               	movwf	(efgtoa@l+3)& (0+255),b
  3393  003E9C                     l6351:
  3394                           
  3395                           ;C:\Program Files\Microchip\xc8\v2.32\pic\sources\c99\common\doprnt.c: 451:     h = g + 
      +                          l;
  3396  003E9C  C58C  F501         	movff	efgtoa@g,___fladd@b
  3397  003EA0  C58D  F502         	movff	efgtoa@g+1,___fladd@b+1
  3398  003EA4  C58E  F503         	movff	efgtoa@g+2,___fladd@b+2
  3399  003EA8  C58F  F504         	movff	efgtoa@g+3,___fladd@b+3
  3400  003EAC  C586  F505         	movff	efgtoa@l,___fladd@a
  3401  003EB0  C587  F506         	movff	efgtoa@l+1,___fladd@a+1
  3402  003EB4  C588  F507         	movff	efgtoa@l+2,___fladd@a+2
  3403  003EB8  C589  F508         	movff	efgtoa@l+3,___fladd@a+3
  3404  003EBC  EC63  F024         	call	___fladd	;wreg free
  3405  003EC0  C501  F582         	movff	?___fladd,efgtoa@h
  3406  003EC4  C502  F583         	movff	?___fladd+1,efgtoa@h+1
  3407  003EC8  C503  F584         	movff	?___fladd+2,efgtoa@h+2
  3408  003ECC  C504  F585         	movff	?___fladd+3,efgtoa@h+3
  3409  003ED0                     
  3410                           ;C:\Program Files\Microchip\xc8\v2.32\pic\sources\c99\common\doprnt.c: 453:  if (h >= (o
      +                          u*10.0)) {
  3411  003ED0  C582  F528         	movff	efgtoa@h,___flge@ff1
  3412  003ED4  C583  F529         	movff	efgtoa@h+1,___flge@ff1+1
  3413  003ED8  C584  F52A         	movff	efgtoa@h+2,___flge@ff1+2
  3414  003EDC  C585  F52B         	movff	efgtoa@h+3,___flge@ff1+3
  3415  003EE0  0E00               	movlw	0
  3416  003EE2  6E13               	movwf	___flmul@a^(0+1280),c
  3417  003EE4  0E00               	movlw	0
  3418  003EE6  6E14               	movwf	(___flmul@a+1)^(0+1280),c
  3419  003EE8  0E20               	movlw	32
  3420  003EEA  6E15               	movwf	(___flmul@a+2)^(0+1280),c
  3421  003EEC  0E41               	movlw	65
  3422  003EEE  6E16               	movwf	(___flmul@a+3)^(0+1280),c
  3423  003EF0  C574  F50F         	movff	efgtoa@ou,___flmul@b
  3424  003EF4  C575  F510         	movff	efgtoa@ou+1,___flmul@b+1
  3425  003EF8  C576  F511         	movff	efgtoa@ou+2,___flmul@b+2
  3426  003EFC  C577  F512         	movff	efgtoa@ou+3,___flmul@b+3
  3427  003F00  ECC3  F026         	call	___flmul	;wreg free
  3428  003F04  C50F  F52C         	movff	?___flmul,___flge@ff2
  3429  003F08  C510  F52D         	movff	?___flmul+1,___flge@ff2+1
  3430  003F0C  C511  F52E         	movff	?___flmul+2,___flge@ff2+2
  3431  003F10  C512  F52F         	movff	?___flmul+3,___flge@ff2+3
  3432  003F14  ECAD  F030         	call	___flge	;wreg free
  3433  003F18  A0D8               	btfss	status,0,c
  3434  003F1A  EF91  F01F         	goto	u5841
  3435  003F1E  EF93  F01F         	goto	u5840
  3436  003F22                     u5841:
  3437  003F22  EFBC  F01F         	goto	l6363
  3438  003F26                     u5840:
  3439  003F26                     
  3440                           ;C:\Program Files\Microchip\xc8\v2.32\pic\sources\c99\common\doprnt.c: 454:   e++;
  3441  003F26  0105               	movlb	5	; () banked
  3442  003F28  4B90               	infsnz	efgtoa@e& (0+255),f,b
  3443  003F2A  2B91               	incf	(efgtoa@e+1)& (0+255),f,b
  3444  003F2C                     
  3445                           ; BSR set to: 5
  3446                           ;C:\Program Files\Microchip\xc8\v2.32\pic\sources\c99\common\doprnt.c: 455:   ou *= 10.0
      +                          ;
  3447  003F2C  C574  F50F         	movff	efgtoa@ou,___flmul@b
  3448  003F30  C575  F510         	movff	efgtoa@ou+1,___flmul@b+1
  3449  003F34  C576  F511         	movff	efgtoa@ou+2,___flmul@b+2
  3450  003F38  C577  F512         	movff	efgtoa@ou+3,___flmul@b+3
  3451  003F3C  0E00               	movlw	0
  3452  003F3E  6E13               	movwf	___flmul@a^(0+1280),c
  3453  003F40  0E00               	movlw	0
  3454  003F42  6E14               	movwf	(___flmul@a+1)^(0+1280),c
  3455  003F44  0E20               	movlw	32
  3456  003F46  6E15               	movwf	(___flmul@a+2)^(0+1280),c
  3457  003F48  0E41               	movlw	65
  3458  003F4A  6E16               	movwf	(___flmul@a+3)^(0+1280),c
  3459  003F4C  ECC3  F026         	call	___flmul	;wreg free
  3460  003F50  C50F  F574         	movff	?___flmul,efgtoa@ou
  3461  003F54  C510  F575         	movff	?___flmul+1,efgtoa@ou+1
  3462  003F58  C511  F576         	movff	?___flmul+2,efgtoa@ou+2
  3463  003F5C  C512  F577         	movff	?___flmul+3,efgtoa@ou+3
  3464  003F60                     
  3465                           ;C:\Program Files\Microchip\xc8\v2.32\pic\sources\c99\common\doprnt.c: 456:   if (nmode 
      +                          == 'f') {
  3466  003F60  0E66               	movlw	102
  3467  003F62  0105               	movlb	5	; () banked
  3468  003F64  1980               	xorwf	efgtoa@nmode& (0+255),w,b
  3469  003F66  A4D8               	btfss	status,2,c
  3470  003F68  EFB8  F01F         	goto	u5851
  3471  003F6C  EFBA  F01F         	goto	u5850
  3472  003F70                     u5851:
  3473  003F70  EFBC  F01F         	goto	l6363
  3474  003F74                     u5850:
  3475  003F74                     
  3476                           ; BSR set to: 5
  3477                           ;C:\Program Files\Microchip\xc8\v2.32\pic\sources\c99\common\doprnt.c: 458:    m++;
  3478  003F74  4B72               	infsnz	efgtoa@m& (0+255),f,b
  3479  003F76  2B73               	incf	(efgtoa@m+1)& (0+255),f,b
  3480  003F78                     l6363:
  3481                           
  3482                           ;C:\Program Files\Microchip\xc8\v2.32\pic\sources\c99\common\doprnt.c: 463:     u = ou;
  3483  003F78  C574  F594         	movff	efgtoa@ou,efgtoa@u
  3484  003F7C  C575  F595         	movff	efgtoa@ou+1,efgtoa@u+1
  3485  003F80  C576  F596         	movff	efgtoa@ou+2,efgtoa@u+2
  3486  003F84  C577  F597         	movff	efgtoa@ou+3,efgtoa@u+3
  3487  003F88                     
  3488                           ;C:\Program Files\Microchip\xc8\v2.32\pic\sources\c99\common\doprnt.c: 464:     ne = (nm
      +                          ode == 'e') ? 0 : e;
  3489  003F88  0E65               	movlw	101
  3490  003F8A  0105               	movlb	5	; () banked
  3491  003F8C  1980               	xorwf	efgtoa@nmode& (0+255),w,b
  3492  003F8E  B4D8               	btfsc	status,2,c
  3493  003F90  EFCC  F01F         	goto	u5861
  3494  003F94  EFCE  F01F         	goto	u5860
  3495  003F98                     u5861:
  3496  003F98  EFD4  F01F         	goto	l6369
  3497  003F9C                     u5860:
  3498  003F9C                     
  3499                           ; BSR set to: 5
  3500  003F9C  C590  F570         	movff	efgtoa@e,efgtoa@ne
  3501  003FA0  C591  F571         	movff	efgtoa@e+1,efgtoa@ne+1
  3502  003FA4  EFD8  F01F         	goto	l1976
  3503  003FA8                     l6369:
  3504                           
  3505                           ; BSR set to: 5
  3506  003FA8  0E00               	movlw	0
  3507  003FAA  6F71               	movwf	(efgtoa@ne+1)& (0+255),b
  3508  003FAC  0E00               	movlw	0
  3509  003FAE  6F70               	movwf	efgtoa@ne& (0+255),b
  3510  003FB0                     l1976:
  3511                           
  3512                           ; BSR set to: 5
  3513                           ;C:\Program Files\Microchip\xc8\v2.32\pic\sources\c99\common\doprnt.c: 465:     pp = 0;
  3514  003FB0  0E00               	movlw	0
  3515  003FB2  6F6F               	movwf	(efgtoa@pp+1)& (0+255),b
  3516  003FB4  0E00               	movlw	0
  3517  003FB6  6F6E               	movwf	efgtoa@pp& (0+255),b
  3518                           
  3519                           ;C:\Program Files\Microchip\xc8\v2.32\pic\sources\c99\common\doprnt.c: 466:     t = 0;
  3520  003FB8  0E00               	movlw	0
  3521  003FBA  6F6D               	movwf	(efgtoa@t+1)& (0+255),b
  3522  003FBC  0E00               	movlw	0
  3523  003FBE  6F6C               	movwf	efgtoa@t& (0+255),b
  3524                           
  3525                           ;C:\Program Files\Microchip\xc8\v2.32\pic\sources\c99\common\doprnt.c: 467:     i = 0;
  3526  003FC0  0E00               	movlw	0
  3527  003FC2  6F8B               	movwf	(efgtoa@i+1)& (0+255),b
  3528  003FC4  0E00               	movlw	0
  3529  003FC6  6F8A               	movwf	efgtoa@i& (0+255),b
  3530                           
  3531                           ;C:\Program Files\Microchip\xc8\v2.32\pic\sources\c99\common\doprnt.c: 468:     while ((
      +                          i < m) && (n < (80 - 5))) {
  3532  003FC8  EFD3  F020         	goto	l6419
  3533  003FCC                     l6371:
  3534                           
  3535                           ; BSR set to: 5
  3536                           ;C:\Program Files\Microchip\xc8\v2.32\pic\sources\c99\common\doprnt.c: 469:         l = 
      +                          floorf(h/u);
  3537  003FCC  C582  F501         	movff	efgtoa@h,___fldiv@b
  3538  003FD0  C583  F502         	movff	efgtoa@h+1,___fldiv@b+1
  3539  003FD4  C584  F503         	movff	efgtoa@h+2,___fldiv@b+2
  3540  003FD8  C585  F504         	movff	efgtoa@h+3,___fldiv@b+3
  3541  003FDC  C594  F505         	movff	efgtoa@u,___fldiv@a
  3542  003FE0  C595  F506         	movff	efgtoa@u+1,___fldiv@a+1
  3543  003FE4  C596  F507         	movff	efgtoa@u+2,___fldiv@a+2
  3544  003FE8  C597  F508         	movff	efgtoa@u+3,___fldiv@a+3
  3545  003FEC  ECEA  F028         	call	___fldiv	;wreg free
  3546  003FF0  C501  F51A         	movff	?___fldiv,floorf@x
  3547  003FF4  C502  F51B         	movff	?___fldiv+1,floorf@x+1
  3548  003FF8  C503  F51C         	movff	?___fldiv+2,floorf@x+2
  3549  003FFC  C504  F51D         	movff	?___fldiv+3,floorf@x+3
  3550  004000  EC2A  F02C         	call	_floorf	;wreg free
  3551  004004  C51A  F586         	movff	?_floorf,efgtoa@l
  3552  004008  C51B  F587         	movff	?_floorf+1,efgtoa@l+1
  3553  00400C  C51C  F588         	movff	?_floorf+2,efgtoa@l+2
  3554  004010  C51D  F589         	movff	?_floorf+3,efgtoa@l+3
  3555                           
  3556                           ;C:\Program Files\Microchip\xc8\v2.32\pic\sources\c99\common\doprnt.c: 470:         d = 
      +                          (int)l;
  3557  004014  C586  F501         	movff	efgtoa@l,___fltol@f1
  3558  004018  C587  F502         	movff	efgtoa@l+1,___fltol@f1+1
  3559  00401C  C588  F503         	movff	efgtoa@l+2,___fltol@f1+2
  3560  004020  C589  F504         	movff	efgtoa@l+3,___fltol@f1+3
  3561  004024  EC2A  F030         	call	___fltol	;wreg free
  3562  004028  C501  F578         	movff	?___fltol,efgtoa@d
  3563  00402C  C502  F579         	movff	?___fltol+1,efgtoa@d+1
  3564  004030                     
  3565                           ;C:\Program Files\Microchip\xc8\v2.32\pic\sources\c99\common\doprnt.c: 471:         if (
      +                          !(flags & (1 << 4)) && !d && (mode == 'g') && (ne < 0)) {
  3566  004030  0105               	movlb	5	; () banked
  3567  004032  B9EC               	btfsc	_flags& (0+255),4,b
  3568  004034  EF1E  F020         	goto	u5871
  3569  004038  EF20  F020         	goto	u5870
  3570  00403C                     u5871:
  3571  00403C  EF3D  F020         	goto	l6383
  3572  004040                     u5870:
  3573  004040                     
  3574                           ; BSR set to: 5
  3575  004040  5178               	movf	efgtoa@d& (0+255),w,b
  3576  004042  1179               	iorwf	(efgtoa@d+1)& (0+255),w,b
  3577  004044  A4D8               	btfss	status,2,c
  3578  004046  EF27  F020         	goto	u5881
  3579  00404A  EF29  F020         	goto	u5880
  3580  00404E                     u5881:
  3581  00404E  EF3D  F020         	goto	l6383
  3582  004052                     u5880:
  3583  004052                     
  3584                           ; BSR set to: 5
  3585  004052  0E67               	movlw	103
  3586  004054  1981               	xorwf	efgtoa@mode& (0+255),w,b
  3587  004056  A4D8               	btfss	status,2,c
  3588  004058  EF30  F020         	goto	u5891
  3589  00405C  EF32  F020         	goto	u5890
  3590  004060                     u5891:
  3591  004060  EF3D  F020         	goto	l6383
  3592  004064                     u5890:
  3593  004064                     
  3594                           ; BSR set to: 5
  3595  004064  BF71               	btfsc	(efgtoa@ne+1)& (0+255),7,b
  3596  004066  EF39  F020         	goto	u5900
  3597  00406A  EF37  F020         	goto	u5901
  3598  00406E                     u5901:
  3599  00406E  EF3D  F020         	goto	l6383
  3600  004072                     u5900:
  3601  004072                     
  3602                           ; BSR set to: 5
  3603                           ;C:\Program Files\Microchip\xc8\v2.32\pic\sources\c99\common\doprnt.c: 472:             
      +                          ++t;
  3604  004072  4B6C               	infsnz	efgtoa@t& (0+255),f,b
  3605  004074  2B6D               	incf	(efgtoa@t+1)& (0+255),f,b
  3606                           
  3607                           ;C:\Program Files\Microchip\xc8\v2.32\pic\sources\c99\common\doprnt.c: 473:         } el
      +                          se {
  3608  004076  EF87  F020         	goto	l6411
  3609  00407A                     l6383:
  3610                           
  3611                           ; BSR set to: 5
  3612                           ;C:\Program Files\Microchip\xc8\v2.32\pic\sources\c99\common\doprnt.c: 474:             
      +                          if (!pp && (ne < 0)) {
  3613  00407A  516E               	movf	efgtoa@pp& (0+255),w,b
  3614  00407C  116F               	iorwf	(efgtoa@pp+1)& (0+255),w,b
  3615  00407E  A4D8               	btfss	status,2,c
  3616  004080  EF44  F020         	goto	u5911
  3617  004084  EF46  F020         	goto	u5910
  3618  004088                     u5911:
  3619  004088  EF70  F020         	goto	l6403
  3620  00408C                     u5910:
  3621  00408C                     
  3622                           ; BSR set to: 5
  3623  00408C  BF71               	btfsc	(efgtoa@ne+1)& (0+255),7,b
  3624  00408E  EF4D  F020         	goto	u5920
  3625  004092  EF4B  F020         	goto	u5921
  3626  004096                     u5921:
  3627  004096  EF70  F020         	goto	l6403
  3628  00409A                     u5920:
  3629  00409A                     
  3630                           ; BSR set to: 5
  3631                           ;C:\Program Files\Microchip\xc8\v2.32\pic\sources\c99\common\doprnt.c: 475:             
      +                              dbuf[n++] = '.';
  3632  00409A  0E00               	movlw	low _dbuf
  3633  00409C  2592               	addwf	efgtoa@n& (0+255),w,b
  3634  00409E  6ED9               	movwf	fsr2l,c
  3635  0040A0  0E06               	movlw	high _dbuf
  3636  0040A2  2193               	addwfc	(efgtoa@n+1)& (0+255),w,b
  3637  0040A4  6EDA               	movwf	fsr2h,c
  3638  0040A6  0E2E               	movlw	46
  3639  0040A8  6EDF               	movwf	indf2,c
  3640  0040AA                     
  3641                           ; BSR set to: 5
  3642  0040AA  4B92               	infsnz	efgtoa@n& (0+255),f,b
  3643  0040AC  2B93               	incf	(efgtoa@n+1)& (0+255),f,b
  3644  0040AE                     
  3645                           ; BSR set to: 5
  3646                           ;C:\Program Files\Microchip\xc8\v2.32\pic\sources\c99\common\doprnt.c: 476:             
      +                              --w;
  3647  0040AE  077E               	decf	efgtoa@w& (0+255),f,b
  3648  0040B0  A0D8               	btfss	status,0,c
  3649  0040B2  077F               	decf	(efgtoa@w+1)& (0+255),f,b
  3650  0040B4                     
  3651                           ; BSR set to: 5
  3652                           ;C:\Program Files\Microchip\xc8\v2.32\pic\sources\c99\common\doprnt.c: 477:             
      +                              pp = 1;
  3653  0040B4  0E00               	movlw	0
  3654  0040B6  6F6F               	movwf	(efgtoa@pp+1)& (0+255),b
  3655  0040B8  0E01               	movlw	1
  3656  0040BA  6F6E               	movwf	efgtoa@pp& (0+255),b
  3657  0040BC  EF70  F020         	goto	l6403
  3658  0040C0                     l6395:
  3659                           
  3660                           ; BSR set to: 5
  3661                           ;C:\Program Files\Microchip\xc8\v2.32\pic\sources\c99\common\doprnt.c: 480:             
      +                              dbuf[n++] = '0';
  3662  0040C0  0E00               	movlw	low _dbuf
  3663  0040C2  2592               	addwf	efgtoa@n& (0+255),w,b
  3664  0040C4  6ED9               	movwf	fsr2l,c
  3665  0040C6  0E06               	movlw	high _dbuf
  3666  0040C8  2193               	addwfc	(efgtoa@n+1)& (0+255),w,b
  3667  0040CA  6EDA               	movwf	fsr2h,c
  3668  0040CC  0E30               	movlw	48
  3669  0040CE  6EDF               	movwf	indf2,c
  3670  0040D0                     
  3671                           ; BSR set to: 5
  3672  0040D0  4B92               	infsnz	efgtoa@n& (0+255),f,b
  3673  0040D2  2B93               	incf	(efgtoa@n+1)& (0+255),f,b
  3674  0040D4                     
  3675                           ; BSR set to: 5
  3676                           ;C:\Program Files\Microchip\xc8\v2.32\pic\sources\c99\common\doprnt.c: 481:             
      +                              --w;
  3677  0040D4  077E               	decf	efgtoa@w& (0+255),f,b
  3678  0040D6  A0D8               	btfss	status,0,c
  3679  0040D8  077F               	decf	(efgtoa@w+1)& (0+255),f,b
  3680  0040DA                     
  3681                           ; BSR set to: 5
  3682                           ;C:\Program Files\Microchip\xc8\v2.32\pic\sources\c99\common\doprnt.c: 482:             
      +                              --t;
  3683  0040DA  076C               	decf	efgtoa@t& (0+255),f,b
  3684  0040DC  A0D8               	btfss	status,0,c
  3685  0040DE  076D               	decf	(efgtoa@t+1)& (0+255),f,b
  3686  0040E0                     l6403:
  3687                           
  3688                           ; BSR set to: 5
  3689                           ;C:\Program Files\Microchip\xc8\v2.32\pic\sources\c99\common\doprnt.c: 479:             
      +                          while (t) {
  3690  0040E0  516C               	movf	efgtoa@t& (0+255),w,b
  3691  0040E2  116D               	iorwf	(efgtoa@t+1)& (0+255),w,b
  3692  0040E4  A4D8               	btfss	status,2,c
  3693  0040E6  EF77  F020         	goto	u5931
  3694  0040EA  EF79  F020         	goto	u5930
  3695  0040EE                     u5931:
  3696  0040EE  EF60  F020         	goto	l6395
  3697  0040F2                     u5930:
  3698  0040F2                     
  3699                           ; BSR set to: 5
  3700                           ;C:\Program Files\Microchip\xc8\v2.32\pic\sources\c99\common\doprnt.c: 484:             
      +                          dbuf[n++] = (char)((int)'0' + d);
  3701  0040F2  0E00               	movlw	low _dbuf
  3702  0040F4  2592               	addwf	efgtoa@n& (0+255),w,b
  3703  0040F6  6ED9               	movwf	fsr2l,c
  3704  0040F8  0E06               	movlw	high _dbuf
  3705  0040FA  2193               	addwfc	(efgtoa@n+1)& (0+255),w,b
  3706  0040FC  6EDA               	movwf	fsr2h,c
  3707  0040FE  5178               	movf	efgtoa@d& (0+255),w,b
  3708  004100  0F30               	addlw	48
  3709  004102  6EDF               	movwf	indf2,c
  3710  004104                     
  3711                           ; BSR set to: 5
  3712  004104  4B92               	infsnz	efgtoa@n& (0+255),f,b
  3713  004106  2B93               	incf	(efgtoa@n+1)& (0+255),f,b
  3714  004108                     
  3715                           ; BSR set to: 5
  3716                           ;C:\Program Files\Microchip\xc8\v2.32\pic\sources\c99\common\doprnt.c: 485:             
      +                          --w;
  3717  004108  077E               	decf	efgtoa@w& (0+255),f,b
  3718  00410A  A0D8               	btfss	status,0,c
  3719  00410C  077F               	decf	(efgtoa@w+1)& (0+255),f,b
  3720  00410E                     l6411:
  3721                           
  3722                           ; BSR set to: 5
  3723                           ;C:\Program Files\Microchip\xc8\v2.32\pic\sources\c99\common\doprnt.c: 487:         h -=
      +                           l*u;
  3724  00410E  C582  F528         	movff	efgtoa@h,___flsub@b
  3725  004112  C583  F529         	movff	efgtoa@h+1,___flsub@b+1
  3726  004116  C584  F52A         	movff	efgtoa@h+2,___flsub@b+2
  3727  00411A  C585  F52B         	movff	efgtoa@h+3,___flsub@b+3
  3728  00411E  C594  F513         	movff	efgtoa@u,___flmul@a
  3729  004122  C595  F514         	movff	efgtoa@u+1,___flmul@a+1
  3730  004126  C596  F515         	movff	efgtoa@u+2,___flmul@a+2
  3731  00412A  C597  F516         	movff	efgtoa@u+3,___flmul@a+3
  3732  00412E  C586  F50F         	movff	efgtoa@l,___flmul@b
  3733  004132  C587  F510         	movff	efgtoa@l+1,___flmul@b+1
  3734  004136  C588  F511         	movff	efgtoa@l+2,___flmul@b+2
  3735  00413A  C589  F512         	movff	efgtoa@l+3,___flmul@b+3
  3736  00413E  ECC3  F026         	call	___flmul	;wreg free
  3737  004142  C50F  F52C         	movff	?___flmul,___flsub@a
  3738  004146  C510  F52D         	movff	?___flmul+1,___flsub@a+1
  3739  00414A  C511  F52E         	movff	?___flmul+2,___flsub@a+2
  3740  00414E  C512  F52F         	movff	?___flmul+3,___flsub@a+3
  3741  004152  ECB7  F035         	call	___flsub	;wreg free
  3742  004156  C528  F582         	movff	?___flsub,efgtoa@h
  3743  00415A  C529  F583         	movff	?___flsub+1,efgtoa@h+1
  3744  00415E  C52A  F584         	movff	?___flsub+2,efgtoa@h+2
  3745  004162  C52B  F585         	movff	?___flsub+3,efgtoa@h+3
  3746  004166                     
  3747                           ;C:\Program Files\Microchip\xc8\v2.32\pic\sources\c99\common\doprnt.c: 488:         u = 
      +                          u/10.0;
  3748  004166  C594  F501         	movff	efgtoa@u,___fldiv@b
  3749  00416A  C595  F502         	movff	efgtoa@u+1,___fldiv@b+1
  3750  00416E  C596  F503         	movff	efgtoa@u+2,___fldiv@b+2
  3751  004172  C597  F504         	movff	efgtoa@u+3,___fldiv@b+3
  3752  004176  0E00               	movlw	0
  3753  004178  6E05               	movwf	___fldiv@a^(0+1280),c
  3754  00417A  0E00               	movlw	0
  3755  00417C  6E06               	movwf	(___fldiv@a+1)^(0+1280),c
  3756  00417E  0E20               	movlw	32
  3757  004180  6E07               	movwf	(___fldiv@a+2)^(0+1280),c
  3758  004182  0E41               	movlw	65
  3759  004184  6E08               	movwf	(___fldiv@a+3)^(0+1280),c
  3760  004186  ECEA  F028         	call	___fldiv	;wreg free
  3761  00418A  C501  F594         	movff	?___fldiv,efgtoa@u
  3762  00418E  C502  F595         	movff	?___fldiv+1,efgtoa@u+1
  3763  004192  C503  F596         	movff	?___fldiv+2,efgtoa@u+2
  3764  004196  C504  F597         	movff	?___fldiv+3,efgtoa@u+3
  3765  00419A                     
  3766                           ;C:\Program Files\Microchip\xc8\v2.32\pic\sources\c99\common\doprnt.c: 489:         --ne
      +                          ;
  3767  00419A  0105               	movlb	5	; () banked
  3768  00419C  0770               	decf	efgtoa@ne& (0+255),f,b
  3769  00419E  A0D8               	btfss	status,0,c
  3770  0041A0  0771               	decf	(efgtoa@ne+1)& (0+255),f,b
  3771  0041A2                     
  3772                           ; BSR set to: 5
  3773                           ;C:\Program Files\Microchip\xc8\v2.32\pic\sources\c99\common\doprnt.c: 490:         ++i;
  3774  0041A2  4B8A               	infsnz	efgtoa@i& (0+255),f,b
  3775  0041A4  2B8B               	incf	(efgtoa@i+1)& (0+255),f,b
  3776  0041A6                     l6419:
  3777                           
  3778                           ; BSR set to: 5
  3779                           ;C:\Program Files\Microchip\xc8\v2.32\pic\sources\c99\common\doprnt.c: 468:     while ((
      +                          i < m) && (n < (80 - 5))) {
  3780  0041A6  5172               	movf	efgtoa@m& (0+255),w,b
  3781  0041A8  5D8A               	subwf	efgtoa@i& (0+255),w,b
  3782  0041AA  518B               	movf	(efgtoa@i+1)& (0+255),w,b
  3783  0041AC  0A80               	xorlw	128
  3784  0041AE  6E3B               	movwf	??_efgtoa^(0+1280),c
  3785  0041B0  5173               	movf	(efgtoa@m+1)& (0+255),w,b
  3786  0041B2  0A80               	xorlw	128
  3787  0041B4  583B               	subwfb	??_efgtoa^(0+1280),w,c
  3788  0041B6  B0D8               	btfsc	status,0,c
  3789  0041B8  EFE0  F020         	goto	u5941
  3790  0041BC  EFE2  F020         	goto	u5940
  3791  0041C0                     u5941:
  3792  0041C0  EFF0  F020         	goto	l6423
  3793  0041C4                     u5940:
  3794  0041C4                     
  3795                           ; BSR set to: 5
  3796  0041C4  BF93               	btfsc	(efgtoa@n+1)& (0+255),7,b
  3797  0041C6  EFEE  F020         	goto	u5951
  3798  0041CA  5193               	movf	(efgtoa@n+1)& (0+255),w,b
  3799  0041CC  E109               	bnz	u5950
  3800  0041CE  0E4B               	movlw	75
  3801  0041D0  5D92               	subwf	efgtoa@n& (0+255),w,b
  3802  0041D2  A0D8               	btfss	status,0,c
  3803  0041D4  EFEE  F020         	goto	u5951
  3804  0041D8  EFF0  F020         	goto	u5950
  3805  0041DC                     u5951:
  3806  0041DC  EFE6  F01F         	goto	l6371
  3807  0041E0                     u5950:
  3808  0041E0                     l6423:
  3809                           
  3810                           ; BSR set to: 5
  3811                           ;C:\Program Files\Microchip\xc8\v2.32\pic\sources\c99\common\doprnt.c: 492:     if (!pp 
      +                          && (flags & (1 << 4))) {
  3812  0041E0  516E               	movf	efgtoa@pp& (0+255),w,b
  3813  0041E2  116F               	iorwf	(efgtoa@pp+1)& (0+255),w,b
  3814  0041E4  A4D8               	btfss	status,2,c
  3815  0041E6  EFF7  F020         	goto	u5961
  3816  0041EA  EFF9  F020         	goto	u5960
  3817  0041EE                     u5961:
  3818  0041EE  EF0A  F021         	goto	l6431
  3819  0041F2                     u5960:
  3820  0041F2                     
  3821                           ; BSR set to: 5
  3822  0041F2  A9EC               	btfss	_flags& (0+255),4,b
  3823  0041F4  EFFE  F020         	goto	u5971
  3824  0041F8  EF00  F021         	goto	u5970
  3825  0041FC                     u5971:
  3826  0041FC  EF0A  F021         	goto	l6431
  3827  004200                     u5970:
  3828  004200                     
  3829                           ; BSR set to: 5
  3830                           ;C:\Program Files\Microchip\xc8\v2.32\pic\sources\c99\common\doprnt.c: 493:         dbuf
      +                          [n++] = '.';
  3831  004200  0E00               	movlw	low _dbuf
  3832  004202  2592               	addwf	efgtoa@n& (0+255),w,b
  3833  004204  6ED9               	movwf	fsr2l,c
  3834  004206  0E06               	movlw	high _dbuf
  3835  004208  2193               	addwfc	(efgtoa@n+1)& (0+255),w,b
  3836  00420A  6EDA               	movwf	fsr2h,c
  3837  00420C  0E2E               	movlw	46
  3838  00420E  6EDF               	movwf	indf2,c
  3839  004210                     
  3840                           ; BSR set to: 5
  3841  004210  4B92               	infsnz	efgtoa@n& (0+255),f,b
  3842  004212  2B93               	incf	(efgtoa@n+1)& (0+255),f,b
  3843  004214                     l6431:
  3844                           
  3845                           ; BSR set to: 5
  3846                           ;C:\Program Files\Microchip\xc8\v2.32\pic\sources\c99\common\doprnt.c: 495:     dbuf[n] 
      +                          = '\0';
  3847  004214  0E00               	movlw	low _dbuf
  3848  004216  2592               	addwf	efgtoa@n& (0+255),w,b
  3849  004218  6ED9               	movwf	fsr2l,c
  3850  00421A  0E06               	movlw	high _dbuf
  3851  00421C  2193               	addwfc	(efgtoa@n+1)& (0+255),w,b
  3852  00421E  6EDA               	movwf	fsr2h,c
  3853  004220  0E00               	movlw	0
  3854  004222  6EDF               	movwf	indf2,c
  3855  004224                     
  3856                           ; BSR set to: 5
  3857                           ;C:\Program Files\Microchip\xc8\v2.32\pic\sources\c99\common\doprnt.c: 498:     if (nmod
      +                          e == 'e') {
  3858  004224  0E65               	movlw	101
  3859  004226  1980               	xorwf	efgtoa@nmode& (0+255),w,b
  3860  004228  A4D8               	btfss	status,2,c
  3861  00422A  EF19  F021         	goto	u5981
  3862  00422E  EF1B  F021         	goto	u5980
  3863  004232                     u5981:
  3864  004232  EF75  F01C         	goto	l6233
  3865  004236                     u5980:
  3866  004236                     
  3867                           ; BSR set to: 5
  3868                           ;C:\Program Files\Microchip\xc8\v2.32\pic\sources\c99\common\doprnt.c: 499:         i = 
      +                          sizeof(dbuf) - 1;
  3869  004236  0E00               	movlw	0
  3870  004238  6F8B               	movwf	(efgtoa@i+1)& (0+255),b
  3871  00423A  0E4F               	movlw	79
  3872  00423C  6F8A               	movwf	efgtoa@i& (0+255),b
  3873  00423E                     
  3874                           ; BSR set to: 5
  3875                           ;C:\Program Files\Microchip\xc8\v2.32\pic\sources\c99\common\doprnt.c: 500:         dbuf
      +                          [i] = '\0';
  3876  00423E  0E00               	movlw	low _dbuf
  3877  004240  258A               	addwf	efgtoa@i& (0+255),w,b
  3878  004242  6ED9               	movwf	fsr2l,c
  3879  004244  0E06               	movlw	high _dbuf
  3880  004246  218B               	addwfc	(efgtoa@i+1)& (0+255),w,b
  3881  004248  6EDA               	movwf	fsr2h,c
  3882  00424A  0E00               	movlw	0
  3883  00424C  6EDF               	movwf	indf2,c
  3884  00424E                     
  3885                           ; BSR set to: 5
  3886                           ;C:\Program Files\Microchip\xc8\v2.32\pic\sources\c99\common\doprnt.c: 501:         sign
      +                           = 0;
  3887  00424E  0E00               	movlw	0
  3888  004250  6F7B               	movwf	(efgtoa@sign+1)& (0+255),b
  3889  004252  0E00               	movlw	0
  3890  004254  6F7A               	movwf	efgtoa@sign& (0+255),b
  3891  004256                     
  3892                           ; BSR set to: 5
  3893                           ;C:\Program Files\Microchip\xc8\v2.32\pic\sources\c99\common\doprnt.c: 502:         if (
      +                          e < 0) {
  3894  004256  BF91               	btfsc	(efgtoa@e+1)& (0+255),7,b
  3895  004258  EF32  F021         	goto	u5990
  3896  00425C  EF30  F021         	goto	u5991
  3897  004260                     u5991:
  3898  004260  EF3A  F021         	goto	l6447
  3899  004264                     u5990:
  3900  004264                     
  3901                           ; BSR set to: 5
  3902                           ;C:\Program Files\Microchip\xc8\v2.32\pic\sources\c99\common\doprnt.c: 503:             
      +                          sign = 1;
  3903  004264  0E00               	movlw	0
  3904  004266  6F7B               	movwf	(efgtoa@sign+1)& (0+255),b
  3905  004268  0E01               	movlw	1
  3906  00426A  6F7A               	movwf	efgtoa@sign& (0+255),b
  3907  00426C                     
  3908                           ; BSR set to: 5
  3909                           ;C:\Program Files\Microchip\xc8\v2.32\pic\sources\c99\common\doprnt.c: 504:             
      +                          e = -e;
  3910  00426C  6D90               	negf	efgtoa@e& (0+255),b
  3911  00426E  1F91               	comf	(efgtoa@e+1)& (0+255),f,b
  3912  004270  B0D8               	btfsc	status,0,c
  3913  004272  2B91               	incf	(efgtoa@e+1)& (0+255),f,b
  3914  004274                     l6447:
  3915                           
  3916                           ; BSR set to: 5
  3917                           ;C:\Program Files\Microchip\xc8\v2.32\pic\sources\c99\common\doprnt.c: 506:         p = 
      +                          2;
  3918  004274  0E00               	movlw	0
  3919  004276  6F7D               	movwf	(efgtoa@p+1)& (0+255),b
  3920  004278  0E02               	movlw	2
  3921  00427A  6F7C               	movwf	efgtoa@p& (0+255),b
  3922                           
  3923                           ;C:\Program Files\Microchip\xc8\v2.32\pic\sources\c99\common\doprnt.c: 507:         whil
      +                          e (e || (0 < p)) {
  3924  00427C  EF6B  F021         	goto	l6459
  3925  004280                     l6449:
  3926                           
  3927                           ; BSR set to: 5
  3928                           ;C:\Program Files\Microchip\xc8\v2.32\pic\sources\c99\common\doprnt.c: 508:             
      +                          --i;
  3929  004280  078A               	decf	efgtoa@i& (0+255),f,b
  3930  004282  A0D8               	btfss	status,0,c
  3931  004284  078B               	decf	(efgtoa@i+1)& (0+255),f,b
  3932  004286                     
  3933                           ; BSR set to: 5
  3934                           ;C:\Program Files\Microchip\xc8\v2.32\pic\sources\c99\common\doprnt.c: 509:             
      +                          dbuf[i] = '0' + (e % 10);
  3935  004286  0E00               	movlw	low _dbuf
  3936  004288  258A               	addwf	efgtoa@i& (0+255),w,b
  3937  00428A  6ED9               	movwf	fsr2l,c
  3938  00428C  0E06               	movlw	high _dbuf
  3939  00428E  218B               	addwfc	(efgtoa@i+1)& (0+255),w,b
  3940  004290  6EDA               	movwf	fsr2h,c
  3941  004292  C590  F501         	movff	efgtoa@e,___awmod@dividend
  3942  004296  C591  F502         	movff	efgtoa@e+1,___awmod@dividend+1
  3943  00429A  0E00               	movlw	0
  3944  00429C  6E04               	movwf	(___awmod@divisor+1)^(0+1280),c
  3945  00429E  0E0A               	movlw	10
  3946  0042A0  6E03               	movwf	___awmod@divisor^(0+1280),c
  3947  0042A2  ECB8  F033         	call	___awmod	;wreg free
  3948  0042A6  5001               	movf	?___awmod^(0+1280),w,c
  3949  0042A8  0F30               	addlw	48
  3950  0042AA  6EDF               	movwf	indf2,c
  3951  0042AC                     
  3952                           ;C:\Program Files\Microchip\xc8\v2.32\pic\sources\c99\common\doprnt.c: 510:             
      +                          e = e / 10;
  3953  0042AC  C590  F501         	movff	efgtoa@e,___awdiv@dividend
  3954  0042B0  C591  F502         	movff	efgtoa@e+1,___awdiv@dividend+1
  3955  0042B4  0E00               	movlw	0
  3956  0042B6  6E04               	movwf	(___awdiv@divisor+1)^(0+1280),c
  3957  0042B8  0E0A               	movlw	10
  3958  0042BA  6E03               	movwf	___awdiv@divisor^(0+1280),c
  3959  0042BC  ECFA  F032         	call	___awdiv	;wreg free
  3960  0042C0  C501  F590         	movff	?___awdiv,efgtoa@e
  3961  0042C4  C502  F591         	movff	?___awdiv+1,efgtoa@e+1
  3962  0042C8                     
  3963                           ;C:\Program Files\Microchip\xc8\v2.32\pic\sources\c99\common\doprnt.c: 511:             
      +                          --p;
  3964  0042C8  0105               	movlb	5	; () banked
  3965  0042CA  077C               	decf	efgtoa@p& (0+255),f,b
  3966  0042CC  A0D8               	btfss	status,0,c
  3967  0042CE  077D               	decf	(efgtoa@p+1)& (0+255),f,b
  3968  0042D0                     
  3969                           ; BSR set to: 5
  3970                           ;C:\Program Files\Microchip\xc8\v2.32\pic\sources\c99\common\doprnt.c: 512:             
      +                          --w;
  3971  0042D0  077E               	decf	efgtoa@w& (0+255),f,b
  3972  0042D2  A0D8               	btfss	status,0,c
  3973  0042D4  077F               	decf	(efgtoa@w+1)& (0+255),f,b
  3974  0042D6                     l6459:
  3975                           
  3976                           ; BSR set to: 5
  3977                           ;C:\Program Files\Microchip\xc8\v2.32\pic\sources\c99\common\doprnt.c: 507:         whil
      +                          e (e || (0 < p)) {
  3978  0042D6  5190               	movf	efgtoa@e& (0+255),w,b
  3979  0042D8  1191               	iorwf	(efgtoa@e+1)& (0+255),w,b
  3980  0042DA  A4D8               	btfss	status,2,c
  3981  0042DC  EF72  F021         	goto	u6001
  3982  0042E0  EF74  F021         	goto	u6000
  3983  0042E4                     u6001:
  3984  0042E4  EF40  F021         	goto	l6449
  3985  0042E8                     u6000:
  3986  0042E8                     
  3987                           ; BSR set to: 5
  3988  0042E8  BF7D               	btfsc	(efgtoa@p+1)& (0+255),7,b
  3989  0042EA  EF81  F021         	goto	u6010
  3990  0042EE  517D               	movf	(efgtoa@p+1)& (0+255),w,b
  3991  0042F0  E106               	bnz	u6011
  3992  0042F2  057C               	decf	efgtoa@p& (0+255),w,b
  3993  0042F4  B0D8               	btfsc	status,0,c
  3994  0042F6  EF7F  F021         	goto	u6011
  3995  0042FA  EF81  F021         	goto	u6010
  3996  0042FE                     u6011:
  3997  0042FE  EF40  F021         	goto	l6449
  3998  004302                     u6010:
  3999  004302                     
  4000                           ; BSR set to: 5
  4001                           ;C:\Program Files\Microchip\xc8\v2.32\pic\sources\c99\common\doprnt.c: 514:         --i;
  4002  004302  078A               	decf	efgtoa@i& (0+255),f,b
  4003  004304  A0D8               	btfss	status,0,c
  4004  004306  078B               	decf	(efgtoa@i+1)& (0+255),f,b
  4005  004308                     
  4006                           ; BSR set to: 5
  4007                           ;C:\Program Files\Microchip\xc8\v2.32\pic\sources\c99\common\doprnt.c: 515:         dbuf
      +                          [i] = sign ? '-' : '+';
  4008  004308  517A               	movf	efgtoa@sign& (0+255),w,b
  4009  00430A  117B               	iorwf	(efgtoa@sign+1)& (0+255),w,b
  4010  00430C  A4D8               	btfss	status,2,c
  4011  00430E  EF8B  F021         	goto	u6021
  4012  004312  EF8D  F021         	goto	u6020
  4013  004316                     u6021:
  4014  004316  EF93  F021         	goto	l6469
  4015  00431A                     u6020:
  4016  00431A                     
  4017                           ; BSR set to: 5
  4018  00431A  0E00               	movlw	0
  4019  00431C  6F67               	movwf	(_efgtoa$2526+1)& (0+255),b
  4020  00431E  0E2B               	movlw	43
  4021  004320  6F66               	movwf	_efgtoa$2526& (0+255),b
  4022  004322  EF97  F021         	goto	l6471
  4023  004326                     l6469:
  4024                           
  4025                           ; BSR set to: 5
  4026  004326  0E00               	movlw	0
  4027  004328  6F67               	movwf	(_efgtoa$2526+1)& (0+255),b
  4028  00432A  0E2D               	movlw	45
  4029  00432C  6F66               	movwf	_efgtoa$2526& (0+255),b
  4030  00432E                     l6471:
  4031                           
  4032                           ; BSR set to: 5
  4033  00432E  0E00               	movlw	low _dbuf
  4034  004330  258A               	addwf	efgtoa@i& (0+255),w,b
  4035  004332  6ED9               	movwf	fsr2l,c
  4036  004334  0E06               	movlw	high _dbuf
  4037  004336  218B               	addwfc	(efgtoa@i+1)& (0+255),w,b
  4038  004338  6EDA               	movwf	fsr2h,c
  4039  00433A  0061  F598  F4DF   	movff	_efgtoa$2526,indf2
  4040  004340                     
  4041                           ; BSR set to: 5
  4042                           ;C:\Program Files\Microchip\xc8\v2.32\pic\sources\c99\common\doprnt.c: 516:         --w;
  4043  004340  077E               	decf	efgtoa@w& (0+255),f,b
  4044  004342  A0D8               	btfss	status,0,c
  4045  004344  077F               	decf	(efgtoa@w+1)& (0+255),f,b
  4046  004346                     
  4047                           ; BSR set to: 5
  4048                           ;C:\Program Files\Microchip\xc8\v2.32\pic\sources\c99\common\doprnt.c: 518:         dbuf
      +                          [i] = (0 ? isupper((int)c) : ((unsigned)((int)c)-'A') < 26) ? 'E' : 'e';
  4049  004346  078A               	decf	efgtoa@i& (0+255),f,b
  4050  004348  A0D8               	btfss	status,0,c
  4051  00434A  078B               	decf	(efgtoa@i+1)& (0+255),f,b
  4052  00434C                     
  4053                           ; BSR set to: 5
  4054  00434C  0EBF               	movlw	191
  4055  00434E  6E3B               	movwf	??_efgtoa^(0+1280),c
  4056  004350  0EFF               	movlw	255
  4057  004352  6E3C               	movwf	(??_efgtoa+1)^(0+1280),c
  4058  004354  503A               	movf	efgtoa@c^(0+1280),w,c
  4059  004356  6E3D               	movwf	(??_efgtoa+2)^(0+1280),c
  4060  004358  6A3E               	clrf	(??_efgtoa+3)^(0+1280),c
  4061  00435A  503B               	movf	??_efgtoa^(0+1280),w,c
  4062  00435C  263D               	addwf	(??_efgtoa+2)^(0+1280),f,c
  4063  00435E  503C               	movf	(??_efgtoa+1)^(0+1280),w,c
  4064  004360  223E               	addwfc	(??_efgtoa+3)^(0+1280),f,c
  4065  004362  503E               	movf	(??_efgtoa+3)^(0+1280),w,c
  4066  004364  E10A               	bnz	u6030
  4067  004366  0E1A               	movlw	26
  4068  004368  5C3D               	subwf	(??_efgtoa+2)^(0+1280),w,c
  4069  00436A  A0D8               	btfss	status,0,c
  4070  00436C  EFBA  F021         	goto	u6031
  4071  004370  EFBD  F021         	goto	u6030
  4072  004374                     u6031:
  4073  004374  0E01               	movlw	1
  4074  004376  EFBE  F021         	goto	u6040
  4075  00437A                     u6030:
  4076  00437A  0E00               	movlw	0
  4077  00437C                     u6040:
  4078  00437C  6F6A               	movwf	_efgtoa$2528& (0+255),b
  4079  00437E  6B6B               	clrf	(_efgtoa$2528+1)& (0+255),b
  4080  004380                     
  4081                           ; BSR set to: 5
  4082  004380  516A               	movf	_efgtoa$2528& (0+255),w,b
  4083  004382  116B               	iorwf	(_efgtoa$2528+1)& (0+255),w,b
  4084  004384  A4D8               	btfss	status,2,c
  4085  004386  EFC7  F021         	goto	u6051
  4086  00438A  EFC9  F021         	goto	u6050
  4087  00438E                     u6051:
  4088  00438E  EFCF  F021         	goto	l6485
  4089  004392                     u6050:
  4090  004392                     
  4091                           ; BSR set to: 5
  4092  004392  0E00               	movlw	0
  4093  004394  6F69               	movwf	(_efgtoa$2527+1)& (0+255),b
  4094  004396  0E65               	movlw	101
  4095  004398  6F68               	movwf	_efgtoa$2527& (0+255),b
  4096  00439A  EFD3  F021         	goto	l6487
  4097  00439E                     l6485:
  4098                           
  4099                           ; BSR set to: 5
  4100  00439E  0E00               	movlw	0
  4101  0043A0  6F69               	movwf	(_efgtoa$2527+1)& (0+255),b
  4102  0043A2  0E45               	movlw	69
  4103  0043A4  6F68               	movwf	_efgtoa$2527& (0+255),b
  4104  0043A6                     l6487:
  4105                           
  4106                           ; BSR set to: 5
  4107  0043A6  0E00               	movlw	low _dbuf
  4108  0043A8  258A               	addwf	efgtoa@i& (0+255),w,b
  4109  0043AA  6ED9               	movwf	fsr2l,c
  4110  0043AC  0E06               	movlw	high _dbuf
  4111  0043AE  218B               	addwfc	(efgtoa@i+1)& (0+255),w,b
  4112  0043B0  6EDA               	movwf	fsr2h,c
  4113  0043B2  0061  F5A0  F4DF   	movff	_efgtoa$2527,indf2
  4114  0043B8                     
  4115                           ; BSR set to: 5
  4116                           ;C:\Program Files\Microchip\xc8\v2.32\pic\sources\c99\common\doprnt.c: 519:         --w;
  4117  0043B8  077E               	decf	efgtoa@w& (0+255),f,b
  4118  0043BA  A0D8               	btfss	status,0,c
  4119  0043BC  077F               	decf	(efgtoa@w+1)& (0+255),f,b
  4120  0043BE                     
  4121                           ; BSR set to: 5
  4122                           ;C:\Program Files\Microchip\xc8\v2.32\pic\sources\c99\common\doprnt.c: 520:         strc
      +                          py(&dbuf[n], &dbuf[i]);
  4123  0043BE  0E00               	movlw	low _dbuf
  4124  0043C0  2592               	addwf	efgtoa@n& (0+255),w,b
  4125  0043C2  6E01               	movwf	strcpy@dest^(0+1280),c
  4126  0043C4  0E06               	movlw	high _dbuf
  4127  0043C6  2193               	addwfc	(efgtoa@n+1)& (0+255),w,b
  4128  0043C8  6E02               	movwf	(strcpy@dest+1)^(0+1280),c
  4129  0043CA  0E00               	movlw	low _dbuf
  4130  0043CC  258A               	addwf	efgtoa@i& (0+255),w,b
  4131  0043CE  6E03               	movwf	strcpy@src^(0+1280),c
  4132  0043D0  0E06               	movlw	high _dbuf
  4133  0043D2  218B               	addwfc	(efgtoa@i+1)& (0+255),w,b
  4134  0043D4  6E04               	movwf	(strcpy@src+1)^(0+1280),c
  4135  0043D6  EC2B  F035         	call	_strcpy	;wreg free
  4136  0043DA  EF75  F01C         	goto	l6233
  4137  0043DE                     l1930:
  4138  0043DE  0012               	return		;funcret
  4139  0043E0                     __end_of_efgtoa:
  4140                           	callstack 0
  4141                           
  4142 ;; *************** function _tolower *****************
  4143 ;; Defined at:
  4144 ;;		line 4 in file "C:\Program Files\Microchip\xc8\v2.32\pic\sources\c99\common\tolower.c"
  4145 ;; Parameters:    Size  Location     Type
  4146 ;;  c               2    6[COMRAM] int 
  4147 ;; Auto vars:     Size  Location     Type
  4148 ;;		None
  4149 ;; Return value:  Size  Location     Type
  4150 ;;                  2    6[COMRAM] int 
  4151 ;; Registers used:
  4152 ;;		wreg, status,2, status,0
  4153 ;; Tracked objects:
  4154 ;;		On entry : 0/0
  4155 ;;		On exit  : 0/0
  4156 ;;		Unchanged: 0/0
  4157 ;; Data sizes:     COMRAM   BANK5   BANK6   BANK7   BANK8   BANK9  BANK10  BANK11  BANK12  BANK13  BANK14  BANK15  BANK1
      +6  BANK17  BANK18  BANK19  BANK20  BANK21  BANK22  BANK23  BANK24  BANK25  BANK26  BANK27  BANK28  BANK29  BANK30  BANK3
      +1  BANK32  BANK33  BANK34  BANK35  BANK36  BANK37  BANK38  BANK39  BANK40  BANK41  BANK42  BANK43  BANK44  BANK45  BANK4
      +6  BANK47  BANK48  BANK49  BANK50  BANK51  BANK52  BANK53  BANK54
  4158 ;;      Params:         2       0       0       0       0       0       0       0       0       0       0       0       
      +0       0       0       0       0       0       0       0       0       0       0       0       0       0       0       
      +0       0       0       0       0       0       0       0       0       0       0       0       0       0       0       
      +0       0       0       0       0       0       0       0       0
  4159 ;;      Locals:         2       0       0       0       0       0       0       0       0       0       0       0       
      +0       0       0       0       0       0       0       0       0       0       0       0       0       0       0       
      +0       0       0       0       0       0       0       0       0       0       0       0       0       0       0       
      +0       0       0       0       0       0       0       0       0
  4160 ;;      Temps:          4       0       0       0       0       0       0       0       0       0       0       0       
      +0       0       0       0       0       0       0       0       0       0       0       0       0       0       0       
      +0       0       0       0       0       0       0       0       0       0       0       0       0       0       0       
      +0       0       0       0       0       0       0       0       0
  4161 ;;      Totals:         8       0       0       0       0       0       0       0       0       0       0       0       
      +0       0       0       0       0       0       0       0       0       0       0       0       0       0       0       
      +0       0       0       0       0       0       0       0       0       0       0       0       0       0       0       
      +0       0       0       0       0       0       0       0       0
  4162 ;;Total ram usage:        8 bytes
  4163 ;; Hardware stack levels used: 1
  4164 ;; Hardware stack levels required when called: 1
  4165 ;; This function calls:
  4166 ;;		_isupper
  4167 ;; This function is called by:
  4168 ;;		_efgtoa
  4169 ;;		_vfpfcnvrt
  4170 ;; This function uses a non-reentrant model
  4171 ;;
  4172                           
  4173                           	psect	text7
  4174  006ABC                     __ptext7:
  4175                           	callstack 0
  4176  006ABC                     _tolower:
  4177                           	callstack 122
  4178  006ABC  0EBF               	movlw	191
  4179  006ABE  6E09               	movwf	??_tolower^(0+1280),c
  4180  006AC0  0EFF               	movlw	255
  4181  006AC2  6E0A               	movwf	(??_tolower+1)^(0+1280),c
  4182  006AC4  C507  F50B         	movff	tolower@c,??_tolower+2
  4183  006AC8  C508  F50C         	movff	tolower@c+1,??_tolower+3
  4184  006ACC  5009               	movf	??_tolower^(0+1280),w,c
  4185  006ACE  260B               	addwf	(??_tolower+2)^(0+1280),f,c
  4186  006AD0  500A               	movf	(??_tolower+1)^(0+1280),w,c
  4187  006AD2  220C               	addwfc	(??_tolower+3)^(0+1280),f,c
  4188  006AD4  500C               	movf	(??_tolower+3)^(0+1280),w,c
  4189  006AD6  E10A               	bnz	u5220
  4190  006AD8  0E1A               	movlw	26
  4191  006ADA  5C0B               	subwf	(??_tolower+2)^(0+1280),w,c
  4192  006ADC  A0D8               	btfss	status,0,c
  4193  006ADE  EF73  F035         	goto	u5221
  4194  006AE2  EF76  F035         	goto	u5220
  4195  006AE6                     u5221:
  4196  006AE6  0E01               	movlw	1
  4197  006AE8  EF77  F035         	goto	u5230
  4198  006AEC                     u5220:
  4199  006AEC  0E00               	movlw	0
  4200  006AEE                     u5230:
  4201  006AEE  6E0D               	movwf	_tolower$2650^(0+1280),c
  4202  006AF0  6A0E               	clrf	(_tolower$2650+1)^(0+1280),c
  4203  006AF2  500D               	movf	_tolower$2650^(0+1280),w,c
  4204  006AF4  100E               	iorwf	(_tolower$2650+1)^(0+1280),w,c
  4205  006AF6  B4D8               	btfsc	status,2,c
  4206  006AF8  EF80  F035         	goto	u5241
  4207  006AFC  EF82  F035         	goto	u5240
  4208  006B00                     u5241:
  4209  006B00  EF89  F035         	goto	l2119
  4210  006B04                     u5240:
  4211  006B04  0E20               	movlw	32
  4212  006B06  1007               	iorwf	tolower@c^(0+1280),w,c
  4213  006B08  6E07               	movwf	?_tolower^(0+1280),c
  4214  006B0A  5008               	movf	(tolower@c+1)^(0+1280),w,c
  4215  006B0C  6E08               	movwf	(?_tolower+1)^(0+1280),c
  4216  006B0E  EF8D  F035         	goto	l2124
  4217  006B12                     l2119:
  4218  006B12  C507  F507         	movff	tolower@c,?_tolower
  4219  006B16  C508  F508         	movff	tolower@c+1,?_tolower+1
  4220  006B1A                     l2124:
  4221  006B1A  0012               	return		;funcret
  4222  006B1C                     __end_of_tolower:
  4223                           	callstack 0
  4224                           
  4225 ;; *************** function _isupper *****************
  4226 ;; Defined at:
  4227 ;;		line 5 in file "C:\Program Files\Microchip\xc8\v2.32\pic\sources\c99\common\isupper.c"
  4228 ;; Parameters:    Size  Location     Type
  4229 ;;  c               2    0[COMRAM] int 
  4230 ;; Auto vars:     Size  Location     Type
  4231 ;;		None
  4232 ;; Return value:  Size  Location     Type
  4233 ;;                  2    0[COMRAM] int 
  4234 ;; Registers used:
  4235 ;;		wreg, status,2, status,0
  4236 ;; Tracked objects:
  4237 ;;		On entry : 0/0
  4238 ;;		On exit  : 0/0
  4239 ;;		Unchanged: 0/0
  4240 ;; Data sizes:     COMRAM   BANK5   BANK6   BANK7   BANK8   BANK9  BANK10  BANK11  BANK12  BANK13  BANK14  BANK15  BANK1
      +6  BANK17  BANK18  BANK19  BANK20  BANK21  BANK22  BANK23  BANK24  BANK25  BANK26  BANK27  BANK28  BANK29  BANK30  BANK3
      +1  BANK32  BANK33  BANK34  BANK35  BANK36  BANK37  BANK38  BANK39  BANK40  BANK41  BANK42  BANK43  BANK44  BANK45  BANK4
      +6  BANK47  BANK48  BANK49  BANK50  BANK51  BANK52  BANK53  BANK54
  4241 ;;      Params:         2       0       0       0       0       0       0       0       0       0       0       0       
      +0       0       0       0       0       0       0       0       0       0       0       0       0       0       0       
      +0       0       0       0       0       0       0       0       0       0       0       0       0       0       0       
      +0       0       0       0       0       0       0       0       0
  4242 ;;      Locals:         0       0       0       0       0       0       0       0       0       0       0       0       
      +0       0       0       0       0       0       0       0       0       0       0       0       0       0       0       
      +0       0       0       0       0       0       0       0       0       0       0       0       0       0       0       
      +0       0       0       0       0       0       0       0       0
  4243 ;;      Temps:          4       0       0       0       0       0       0       0       0       0       0       0       
      +0       0       0       0       0       0       0       0       0       0       0       0       0       0       0       
      +0       0       0       0       0       0       0       0       0       0       0       0       0       0       0       
      +0       0       0       0       0       0       0       0       0
  4244 ;;      Totals:         6       0       0       0       0       0       0       0       0       0       0       0       
      +0       0       0       0       0       0       0       0       0       0       0       0       0       0       0       
      +0       0       0       0       0       0       0       0       0       0       0       0       0       0       0       
      +0       0       0       0       0       0       0       0       0
  4245 ;;Total ram usage:        6 bytes
  4246 ;; Hardware stack levels used: 1
  4247 ;; This function calls:
  4248 ;;		Nothing
  4249 ;; This function is called by:
  4250 ;;		_efgtoa
  4251 ;;		_vfpfcnvrt
  4252 ;;		_tolower
  4253 ;; This function uses a non-reentrant model
  4254 ;;
  4255                           
  4256                           	psect	text8
  4257  006CB0                     __ptext8:
  4258                           	callstack 0
  4259  006CB0                     _isupper:
  4260                           	callstack 122
  4261  006CB0  0EBF               	movlw	191
  4262  006CB2  6E03               	movwf	??_isupper^(0+1280),c
  4263  006CB4  0EFF               	movlw	255
  4264  006CB6  6E04               	movwf	(??_isupper+1)^(0+1280),c
  4265  006CB8  C501  F505         	movff	isupper@c,??_isupper+2
  4266  006CBC  C502  F506         	movff	isupper@c+1,??_isupper+3
  4267  006CC0  5003               	movf	??_isupper^(0+1280),w,c
  4268  006CC2  2605               	addwf	(??_isupper+2)^(0+1280),f,c
  4269  006CC4  5004               	movf	(??_isupper+1)^(0+1280),w,c
  4270  006CC6  2206               	addwfc	(??_isupper+3)^(0+1280),f,c
  4271  006CC8  5006               	movf	(??_isupper+3)^(0+1280),w,c
  4272  006CCA  E10A               	bnz	u4210
  4273  006CCC  0E1A               	movlw	26
  4274  006CCE  5C05               	subwf	(??_isupper+2)^(0+1280),w,c
  4275  006CD0  A0D8               	btfss	status,0,c
  4276  006CD2  EF6D  F036         	goto	u4211
  4277  006CD6  EF70  F036         	goto	u4210
  4278  006CDA                     u4211:
  4279  006CDA  0E01               	movlw	1
  4280  006CDC  EF71  F036         	goto	u4220
  4281  006CE0                     u4210:
  4282  006CE0  0E00               	movlw	0
  4283  006CE2                     u4220:
  4284  006CE2  6E01               	movwf	?_isupper^(0+1280),c
  4285  006CE4  6A02               	clrf	(?_isupper+1)^(0+1280),c
  4286  006CE6  0012               	return		;funcret
  4287  006CE8                     __end_of_isupper:
  4288                           	callstack 0
  4289                           
  4290 ;; *************** function _strcpy *****************
  4291 ;; Defined at:
  4292 ;;		line 3 in file "C:\Program Files\Microchip\xc8\v2.32\pic\sources\c99\common\strcpy.c"
  4293 ;; Parameters:    Size  Location     Type
  4294 ;;  dest            2    0[COMRAM] PTR unsigned char 
  4295 ;;		 -> dbuf(80), 
  4296 ;;  src             2    2[COMRAM] PTR const unsigned char 
  4297 ;;		 -> STR_8(4), STR_7(4), STR_4(4), STR_3(4), 
  4298 ;;		 -> dbuf(80), 
  4299 ;; Auto vars:     Size  Location     Type
  4300 ;;  d               2    8[COMRAM] PTR unsigned char 
  4301 ;;		 -> dbuf(80), 
  4302 ;;  s               2    6[COMRAM] PTR const unsigned char 
  4303 ;;		 -> STR_8(4), STR_7(4), STR_4(4), STR_3(4), 
  4304 ;;		 -> dbuf(80), 
  4305 ;; Return value:  Size  Location     Type
  4306 ;;                  2    0[COMRAM] PTR unsigned char 
  4307 ;; Registers used:
  4308 ;;		wreg, fsr0l, fsr0h, fsr2l, fsr2h, status,2, status,0, tblptrl, tblptrh, tblptru
  4309 ;; Tracked objects:
  4310 ;;		On entry : 0/0
  4311 ;;		On exit  : 0/0
  4312 ;;		Unchanged: 0/0
  4313 ;; Data sizes:     COMRAM   BANK5   BANK6   BANK7   BANK8   BANK9  BANK10  BANK11  BANK12  BANK13  BANK14  BANK15  BANK1
      +6  BANK17  BANK18  BANK19  BANK20  BANK21  BANK22  BANK23  BANK24  BANK25  BANK26  BANK27  BANK28  BANK29  BANK30  BANK3
      +1  BANK32  BANK33  BANK34  BANK35  BANK36  BANK37  BANK38  BANK39  BANK40  BANK41  BANK42  BANK43  BANK44  BANK45  BANK4
      +6  BANK47  BANK48  BANK49  BANK50  BANK51  BANK52  BANK53  BANK54
  4314 ;;      Params:         4       0       0       0       0       0       0       0       0       0       0       0       
      +0       0       0       0       0       0       0       0       0       0       0       0       0       0       0       
      +0       0       0       0       0       0       0       0       0       0       0       0       0       0       0       
      +0       0       0       0       0       0       0       0       0
  4315 ;;      Locals:         4       0       0       0       0       0       0       0       0       0       0       0       
      +0       0       0       0       0       0       0       0       0       0       0       0       0       0       0       
      +0       0       0       0       0       0       0       0       0       0       0       0       0       0       0       
      +0       0       0       0       0       0       0       0       0
  4316 ;;      Temps:          2       0       0       0       0       0       0       0       0       0       0       0       
      +0       0       0       0       0       0       0       0       0       0       0       0       0       0       0       
      +0       0       0       0       0       0       0       0       0       0       0       0       0       0       0       
      +0       0       0       0       0       0       0       0       0
  4317 ;;      Totals:        10       0       0       0       0       0       0       0       0       0       0       0       
      +0       0       0       0       0       0       0       0       0       0       0       0       0       0       0       
      +0       0       0       0       0       0       0       0       0       0       0       0       0       0       0       
      +0       0       0       0       0       0       0       0       0
  4318 ;;Total ram usage:       10 bytes
  4319 ;; Hardware stack levels used: 1
  4320 ;; This function calls:
  4321 ;;		Nothing
  4322 ;; This function is called by:
  4323 ;;		_efgtoa
  4324 ;; This function uses a non-reentrant model
  4325 ;;
  4326                           
  4327                           	psect	text9
  4328  006A56                     __ptext9:
  4329                           	callstack 0
  4330  006A56                     _strcpy:
  4331                           	callstack 122
  4332  006A56  C503  F507         	movff	strcpy@src,strcpy@s
  4333  006A5A  C504  F508         	movff	strcpy@src+1,strcpy@s+1
  4334  006A5E  C501  F509         	movff	strcpy@dest,strcpy@d
  4335  006A62  C502  F50A         	movff	strcpy@dest+1,strcpy@d+1
  4336  006A66                     l6073:
  4337  006A66  5007               	movf	strcpy@s^(0+1280),w,c
  4338  006A68  6E05               	movwf	??_strcpy^(0+1280),c
  4339  006A6A  5008               	movf	(strcpy@s+1)^(0+1280),w,c
  4340  006A6C  6E06               	movwf	(??_strcpy+1)^(0+1280),c
  4341  006A6E  4A07               	infsnz	strcpy@s^(0+1280),f,c
  4342  006A70  2A08               	incf	(strcpy@s+1)^(0+1280),f,c
  4343  006A72  0061  F414  F4F6   	movff	??_strcpy,tblptrl
  4344  006A78  0061  F418  F4F7   	movff	??_strcpy+1,tblptrh
  4345  006A7E  0E00               	movlw	low (__smallconst shr (0+16))
  4346  006A80  6EF8               	movwf	tblptru,c
  4347  006A82  0061  F424  F4D9   	movff	strcpy@d,fsr2l
  4348  006A88  0061  F428  F4DA   	movff	strcpy@d+1,fsr2h
  4349  006A8E  4A09               	infsnz	strcpy@d^(0+1280),f,c
  4350  006A90  2A0A               	incf	(strcpy@d+1)^(0+1280),f,c
  4351  006A92  0E36               	movlw	(high __ramtop+-1)
  4352  006A94  64F7               	cpfsgt	tblptrh,c
  4353  006A96  D003               	bra	u5207
  4354  006A98  0008               	tblrd		*
  4355  006A9A  50F5               	movf	tablat,w,c
  4356  006A9C  D005               	bra	u5200
  4357  006A9E                     u5207:
  4358  006A9E  C4F6 F4E9          	movff	tblptrl,fsr0l
  4359  006AA2  C4F7 F4EA          	movff	tblptrh,fsr0h
  4360  006AA6  50EF               	movf	indf0,w,c
  4361  006AA8                     u5200:
  4362  006AA8  6EDF               	movwf	indf2,c
  4363  006AAA  50DF               	movf	indf2,w,c
  4364  006AAC  A4D8               	btfss	status,2,c
  4365  006AAE  EF5B  F035         	goto	u5211
  4366  006AB2  EF5D  F035         	goto	u5210
  4367  006AB6                     u5211:
  4368  006AB6  EF33  F035         	goto	l6073
  4369  006ABA                     u5210:
  4370  006ABA  0012               	return		;funcret
  4371  006ABC                     __end_of_strcpy:
  4372                           	callstack 0
  4373                           
  4374 ;; *************** function _floorf *****************
  4375 ;; Defined at:
  4376 ;;		line 3 in file "C:\Program Files\Microchip\xc8\v2.32\pic\sources\c99\common\floorf.c"
  4377 ;; Parameters:    Size  Location     Type
  4378 ;;  x               4   25[COMRAM] float 
  4379 ;; Auto vars:     Size  Location     Type
  4380 ;;  u               4   41[COMRAM] struct .
  4381 ;;  m               4   35[COMRAM] unsigned long 
  4382 ;;  e               2   39[COMRAM] int 
  4383 ;; Return value:  Size  Location     Type
  4384 ;;                  4   25[COMRAM] float 
  4385 ;; Registers used:
  4386 ;;		wreg, status,2, status,0
  4387 ;; Tracked objects:
  4388 ;;		On entry : 0/0
  4389 ;;		On exit  : 0/0
  4390 ;;		Unchanged: 0/0
  4391 ;; Data sizes:     COMRAM   BANK5   BANK6   BANK7   BANK8   BANK9  BANK10  BANK11  BANK12  BANK13  BANK14  BANK15  BANK1
      +6  BANK17  BANK18  BANK19  BANK20  BANK21  BANK22  BANK23  BANK24  BANK25  BANK26  BANK27  BANK28  BANK29  BANK30  BANK3
      +1  BANK32  BANK33  BANK34  BANK35  BANK36  BANK37  BANK38  BANK39  BANK40  BANK41  BANK42  BANK43  BANK44  BANK45  BANK4
      +6  BANK47  BANK48  BANK49  BANK50  BANK51  BANK52  BANK53  BANK54
  4392 ;;      Params:         4       0       0       0       0       0       0       0       0       0       0       0       
      +0       0       0       0       0       0       0       0       0       0       0       0       0       0       0       
      +0       0       0       0       0       0       0       0       0       0       0       0       0       0       0       
      +0       0       0       0       0       0       0       0       0
  4393 ;;      Locals:        10       0       0       0       0       0       0       0       0       0       0       0       
      +0       0       0       0       0       0       0       0       0       0       0       0       0       0       0       
      +0       0       0       0       0       0       0       0       0       0       0       0       0       0       0       
      +0       0       0       0       0       0       0       0       0
  4394 ;;      Temps:          6       0       0       0       0       0       0       0       0       0       0       0       
      +0       0       0       0       0       0       0       0       0       0       0       0       0       0       0       
      +0       0       0       0       0       0       0       0       0       0       0       0       0       0       0       
      +0       0       0       0       0       0       0       0       0
  4395 ;;      Totals:        20       0       0       0       0       0       0       0       0       0       0       0       
      +0       0       0       0       0       0       0       0       0       0       0       0       0       0       0       
      +0       0       0       0       0       0       0       0       0       0       0       0       0       0       0       
      +0       0       0       0       0       0       0       0       0
  4396 ;;Total ram usage:       20 bytes
  4397 ;; Hardware stack levels used: 1
  4398 ;; This function calls:
  4399 ;;		Nothing
  4400 ;; This function is called by:
  4401 ;;		_efgtoa
  4402 ;; This function uses a non-reentrant model
  4403 ;;
  4404                           
  4405                           	psect	text10
  4406  005854                     __ptext10:
  4407                           	callstack 0
  4408  005854                     _floorf:
  4409                           	callstack 122
  4410  005854  C5DE  F52A         	movff	floorf@F527,floorf@u
  4411  005858  C5DF  F52B         	movff	floorf@F527+1,floorf@u+1
  4412  00585C  C5E0  F52C         	movff	floorf@F527+2,floorf@u+2
  4413  005860  C5E1  F52D         	movff	floorf@F527+3,floorf@u+3
  4414  005864  C51A  F52A         	movff	floorf@x,floorf@u
  4415  005868  C51B  F52B         	movff	floorf@x+1,floorf@u+1
  4416  00586C  C51C  F52C         	movff	floorf@x+2,floorf@u+2
  4417  005870  C51D  F52D         	movff	floorf@x+3,floorf@u+3
  4418  005874  0E81               	movlw	129
  4419  005876  6E1E               	movwf	??_floorf^(0+1280),c
  4420  005878  0EFF               	movlw	255
  4421  00587A  6E1F               	movwf	(??_floorf+1)^(0+1280),c
  4422  00587C  C52A  F520         	movff	floorf@u,??_floorf+2
  4423  005880  C52B  F521         	movff	floorf@u+1,??_floorf+3
  4424  005884  C52C  F522         	movff	floorf@u+2,??_floorf+4
  4425  005888  C52D  F523         	movff	floorf@u+3,??_floorf+5
  4426  00588C  0E18               	movlw	24
  4427  00588E  EF4E  F02C         	goto	u5250
  4428  005892                     u5255:
  4429  005892  90D8               	bcf	status,0,c
  4430  005894  3223               	rrcf	(??_floorf+5)^(0+1280),f,c
  4431  005896  3222               	rrcf	(??_floorf+4)^(0+1280),f,c
  4432  005898  3221               	rrcf	(??_floorf+3)^(0+1280),f,c
  4433  00589A  3220               	rrcf	(??_floorf+2)^(0+1280),f,c
  4434  00589C                     u5250:
  4435  00589C  2EE8               	decfsz	wreg,f,c
  4436  00589E  EF49  F02C         	goto	u5255
  4437  0058A2  5020               	movf	(??_floorf+2)^(0+1280),w,c
  4438  0058A4  241E               	addwf	??_floorf^(0+1280),w,c
  4439  0058A6  6E28               	movwf	floorf@e^(0+1280),c
  4440  0058A8  0E00               	movlw	0
  4441  0058AA  201F               	addwfc	(??_floorf+1)^(0+1280),w,c
  4442  0058AC  6E29               	movwf	(floorf@e+1)^(0+1280),c
  4443  0058AE  BE29               	btfsc	(floorf@e+1)^(0+1280),7,c
  4444  0058B0  EF63  F02C         	goto	u5261
  4445  0058B4  5029               	movf	(floorf@e+1)^(0+1280),w,c
  4446  0058B6  E109               	bnz	u5260
  4447  0058B8  0E17               	movlw	23
  4448  0058BA  5C28               	subwf	floorf@e^(0+1280),w,c
  4449  0058BC  A0D8               	btfss	status,0,c
  4450  0058BE  EF63  F02C         	goto	u5261
  4451  0058C2  EF65  F02C         	goto	u5260
  4452  0058C6                     u5261:
  4453  0058C6  EF6F  F02C         	goto	l6091
  4454  0058CA                     u5260:
  4455  0058CA                     l6089:
  4456  0058CA  C51A  F51A         	movff	floorf@x,?_floorf
  4457  0058CE  C51B  F51B         	movff	floorf@x+1,?_floorf+1
  4458  0058D2  C51C  F51C         	movff	floorf@x+2,?_floorf+2
  4459  0058D6  C51D  F51D         	movff	floorf@x+3,?_floorf+3
  4460  0058DA  EF32  F02D         	goto	l2053
  4461  0058DE                     l6091:
  4462  0058DE  BE29               	btfsc	(floorf@e+1)^(0+1280),7,c
  4463  0058E0  EF74  F02C         	goto	u5271
  4464  0058E4  EF76  F02C         	goto	u5270
  4465  0058E8                     u5271:
  4466  0058E8  EFE6  F02C         	goto	l6101
  4467  0058EC                     u5270:
  4468  0058EC  C528  F51E         	movff	floorf@e,??_floorf
  4469  0058F0  0EFF               	movlw	255
  4470  0058F2  6E1F               	movwf	(??_floorf+1)^(0+1280),c
  4471  0058F4  0EFF               	movlw	255
  4472  0058F6  6E20               	movwf	(??_floorf+2)^(0+1280),c
  4473  0058F8  0E7F               	movlw	127
  4474  0058FA  6E21               	movwf	(??_floorf+3)^(0+1280),c
  4475  0058FC  0E00               	movlw	0
  4476  0058FE  6E22               	movwf	(??_floorf+4)^(0+1280),c
  4477  005900                     u5285:
  4478  005900  661E               	tstfsz	??_floorf^(0+1280),c
  4479  005902  EF85  F02C         	goto	u5286
  4480  005906  EF8D  F02C         	goto	u5287
  4481  00590A                     u5286:
  4482  00590A  3422               	rlcf	(??_floorf+4)^(0+1280),w,c
  4483  00590C  3222               	rrcf	(??_floorf+4)^(0+1280),f,c
  4484  00590E  3221               	rrcf	(??_floorf+3)^(0+1280),f,c
  4485  005910  3220               	rrcf	(??_floorf+2)^(0+1280),f,c
  4486  005912  321F               	rrcf	(??_floorf+1)^(0+1280),f,c
  4487  005914  2E1E               	decfsz	??_floorf^(0+1280),f,c
  4488  005916  EF80  F02C         	goto	u5285
  4489  00591A                     u5287:
  4490  00591A  C51F  F524         	movff	??_floorf+1,floorf@m
  4491  00591E  C520  F525         	movff	??_floorf+2,floorf@m+1
  4492  005922  C521  F526         	movff	??_floorf+3,floorf@m+2
  4493  005926  C522  F527         	movff	??_floorf+4,floorf@m+3
  4494  00592A  5024               	movf	floorf@m^(0+1280),w,c
  4495  00592C  142A               	andwf	floorf@u^(0+1280),w,c
  4496  00592E  6E1E               	movwf	??_floorf^(0+1280),c
  4497  005930  5025               	movf	(floorf@m+1)^(0+1280),w,c
  4498  005932  142B               	andwf	(floorf@u+1)^(0+1280),w,c
  4499  005934  6E1F               	movwf	(??_floorf+1)^(0+1280),c
  4500  005936  5026               	movf	(floorf@m+2)^(0+1280),w,c
  4501  005938  142C               	andwf	(floorf@u+2)^(0+1280),w,c
  4502  00593A  6E20               	movwf	(??_floorf+2)^(0+1280),c
  4503  00593C  5027               	movf	(floorf@m+3)^(0+1280),w,c
  4504  00593E  142D               	andwf	(floorf@u+3)^(0+1280),w,c
  4505  005940  6E21               	movwf	(??_floorf+3)^(0+1280),c
  4506  005942  501E               	movf	??_floorf^(0+1280),w,c
  4507  005944  101F               	iorwf	(??_floorf+1)^(0+1280),w,c
  4508  005946  1020               	iorwf	(??_floorf+2)^(0+1280),w,c
  4509  005948  1021               	iorwf	(??_floorf+3)^(0+1280),w,c
  4510  00594A  A4D8               	btfss	status,2,c
  4511  00594C  EFAA  F02C         	goto	u5291
  4512  005950  EFAC  F02C         	goto	u5290
  4513  005954                     u5291:
  4514  005954  EFAE  F02C         	goto	l6097
  4515  005958                     u5290:
  4516  005958  EF65  F02C         	goto	l6089
  4517  00595C                     l6097:
  4518  00595C  C52A  F51E         	movff	floorf@u,??_floorf
  4519  005960  C52B  F51F         	movff	floorf@u+1,??_floorf+1
  4520  005964  C52C  F520         	movff	floorf@u+2,??_floorf+2
  4521  005968  C52D  F521         	movff	floorf@u+3,??_floorf+3
  4522  00596C  0E20               	movlw	32
  4523  00596E  EFBE  F02C         	goto	u5300
  4524  005972                     u5305:
  4525  005972  90D8               	bcf	status,0,c
  4526  005974  3221               	rrcf	(??_floorf+3)^(0+1280),f,c
  4527  005976  3220               	rrcf	(??_floorf+2)^(0+1280),f,c
  4528  005978  321F               	rrcf	(??_floorf+1)^(0+1280),f,c
  4529  00597A  321E               	rrcf	??_floorf^(0+1280),f,c
  4530  00597C                     u5300:
  4531  00597C  2EE8               	decfsz	wreg,f,c
  4532  00597E  EFB9  F02C         	goto	u5305
  4533  005982  501E               	movf	??_floorf^(0+1280),w,c
  4534  005984  101F               	iorwf	(??_floorf+1)^(0+1280),w,c
  4535  005986  1020               	iorwf	(??_floorf+2)^(0+1280),w,c
  4536  005988  1021               	iorwf	(??_floorf+3)^(0+1280),w,c
  4537  00598A  B4D8               	btfsc	status,2,c
  4538  00598C  EFCA  F02C         	goto	u5311
  4539  005990  EFCC  F02C         	goto	u5310
  4540  005994                     u5311:
  4541  005994  EFD4  F02C         	goto	l2056
  4542  005998                     u5310:
  4543  005998  5024               	movf	floorf@m^(0+1280),w,c
  4544  00599A  262A               	addwf	floorf@u^(0+1280),f,c
  4545  00599C  5025               	movf	(floorf@m+1)^(0+1280),w,c
  4546  00599E  222B               	addwfc	(floorf@u+1)^(0+1280),f,c
  4547  0059A0  5026               	movf	(floorf@m+2)^(0+1280),w,c
  4548  0059A2  222C               	addwfc	(floorf@u+2)^(0+1280),f,c
  4549  0059A4  5027               	movf	(floorf@m+3)^(0+1280),w,c
  4550  0059A6  222D               	addwfc	(floorf@u+3)^(0+1280),f,c
  4551  0059A8                     l2056:
  4552  0059A8  1C24               	comf	floorf@m^(0+1280),w,c
  4553  0059AA  6E1E               	movwf	??_floorf^(0+1280),c
  4554  0059AC  1C25               	comf	(floorf@m+1)^(0+1280),w,c
  4555  0059AE  6E1F               	movwf	(??_floorf+1)^(0+1280),c
  4556  0059B0  1C26               	comf	(floorf@m+2)^(0+1280),w,c
  4557  0059B2  6E20               	movwf	(??_floorf+2)^(0+1280),c
  4558  0059B4  1C27               	comf	(floorf@m+3)^(0+1280),w,c
  4559  0059B6  6E21               	movwf	(??_floorf+3)^(0+1280),c
  4560  0059B8  501E               	movf	??_floorf^(0+1280),w,c
  4561  0059BA  162A               	andwf	floorf@u^(0+1280),f,c
  4562  0059BC  501F               	movf	(??_floorf+1)^(0+1280),w,c
  4563  0059BE  162B               	andwf	(floorf@u+1)^(0+1280),f,c
  4564  0059C0  5020               	movf	(??_floorf+2)^(0+1280),w,c
  4565  0059C2  162C               	andwf	(floorf@u+2)^(0+1280),f,c
  4566  0059C4  5021               	movf	(??_floorf+3)^(0+1280),w,c
  4567  0059C6  162D               	andwf	(floorf@u+3)^(0+1280),f,c
  4568  0059C8  EF2A  F02D         	goto	l6109
  4569  0059CC                     l6101:
  4570  0059CC  C52A  F51E         	movff	floorf@u,??_floorf
  4571  0059D0  C52B  F51F         	movff	floorf@u+1,??_floorf+1
  4572  0059D4  C52C  F520         	movff	floorf@u+2,??_floorf+2
  4573  0059D8  C52D  F521         	movff	floorf@u+3,??_floorf+3
  4574  0059DC  0E20               	movlw	32
  4575  0059DE  EFF6  F02C         	goto	u5320
  4576  0059E2                     u5325:
  4577  0059E2  90D8               	bcf	status,0,c
  4578  0059E4  3221               	rrcf	(??_floorf+3)^(0+1280),f,c
  4579  0059E6  3220               	rrcf	(??_floorf+2)^(0+1280),f,c
  4580  0059E8  321F               	rrcf	(??_floorf+1)^(0+1280),f,c
  4581  0059EA  321E               	rrcf	??_floorf^(0+1280),f,c
  4582  0059EC                     u5320:
  4583  0059EC  2EE8               	decfsz	wreg,f,c
  4584  0059EE  EFF1  F02C         	goto	u5325
  4585  0059F2  501E               	movf	??_floorf^(0+1280),w,c
  4586  0059F4  101F               	iorwf	(??_floorf+1)^(0+1280),w,c
  4587  0059F6  1020               	iorwf	(??_floorf+2)^(0+1280),w,c
  4588  0059F8  1021               	iorwf	(??_floorf+3)^(0+1280),w,c
  4589  0059FA  A4D8               	btfss	status,2,c
  4590  0059FC  EF02  F02D         	goto	u5331
  4591  005A00  EF04  F02D         	goto	u5330
  4592  005A04                     u5331:
  4593  005A04  EF0E  F02D         	goto	l6105
  4594  005A08                     u5330:
  4595  005A08  0E00               	movlw	0
  4596  005A0A  6E2A               	movwf	floorf@u^(0+1280),c
  4597  005A0C  0E00               	movlw	0
  4598  005A0E  6E2B               	movwf	(floorf@u+1)^(0+1280),c
  4599  005A10  0E00               	movlw	0
  4600  005A12  6E2C               	movwf	(floorf@u+2)^(0+1280),c
  4601  005A14  0E00               	movlw	0
  4602  005A16  6E2D               	movwf	(floorf@u+3)^(0+1280),c
  4603  005A18  EF2A  F02D         	goto	l6109
  4604  005A1C                     l6105:
  4605  005A1C  90D8               	bcf	status,0,c
  4606  005A1E  342A               	rlcf	floorf@u^(0+1280),w,c
  4607  005A20  6E1E               	movwf	??_floorf^(0+1280),c
  4608  005A22  342B               	rlcf	(floorf@u+1)^(0+1280),w,c
  4609  005A24  6E1F               	movwf	(??_floorf+1)^(0+1280),c
  4610  005A26  342C               	rlcf	(floorf@u+2)^(0+1280),w,c
  4611  005A28  6E20               	movwf	(??_floorf+2)^(0+1280),c
  4612  005A2A  342D               	rlcf	(floorf@u+3)^(0+1280),w,c
  4613  005A2C  6E21               	movwf	(??_floorf+3)^(0+1280),c
  4614  005A2E  501E               	movf	??_floorf^(0+1280),w,c
  4615  005A30  101F               	iorwf	(??_floorf+1)^(0+1280),w,c
  4616  005A32  1020               	iorwf	(??_floorf+2)^(0+1280),w,c
  4617  005A34  1021               	iorwf	(??_floorf+3)^(0+1280),w,c
  4618  005A36  B4D8               	btfsc	status,2,c
  4619  005A38  EF20  F02D         	goto	u5341
  4620  005A3C  EF22  F02D         	goto	u5340
  4621  005A40                     u5341:
  4622  005A40  EF2A  F02D         	goto	l6109
  4623  005A44                     u5340:
  4624  005A44  0E00               	movlw	0
  4625  005A46  6E2A               	movwf	floorf@u^(0+1280),c
  4626  005A48  0E00               	movlw	0
  4627  005A4A  6E2B               	movwf	(floorf@u+1)^(0+1280),c
  4628  005A4C  0E80               	movlw	128
  4629  005A4E  6E2C               	movwf	(floorf@u+2)^(0+1280),c
  4630  005A50  0EBF               	movlw	191
  4631  005A52  6E2D               	movwf	(floorf@u+3)^(0+1280),c
  4632  005A54                     l6109:
  4633  005A54  C52A  F51A         	movff	floorf@u,?_floorf
  4634  005A58  C52B  F51B         	movff	floorf@u+1,?_floorf+1
  4635  005A5C  C52C  F51C         	movff	floorf@u+2,?_floorf+2
  4636  005A60  C52D  F51D         	movff	floorf@u+3,?_floorf+3
  4637  005A64                     l2053:
  4638  005A64  0012               	return		;funcret
  4639  005A66                     __end_of_floorf:
  4640                           	callstack 0
  4641                           
  4642 ;; *************** function ___fpclassifyf *****************
  4643 ;; Defined at:
  4644 ;;		line 4 in file "C:\Program Files\Microchip\xc8\v2.32\pic\sources\c99\common\__fpclassifyf.c"
  4645 ;; Parameters:    Size  Location     Type
  4646 ;;  x               4    0[COMRAM] float 
  4647 ;; Auto vars:     Size  Location     Type
  4648 ;;  u               4   10[COMRAM] struct .
  4649 ;;  e               2    8[COMRAM] int 
  4650 ;; Return value:  Size  Location     Type
  4651 ;;                  2    0[COMRAM] int 
  4652 ;; Registers used:
  4653 ;;		wreg, status,2, status,0
  4654 ;; Tracked objects:
  4655 ;;		On entry : 0/0
  4656 ;;		On exit  : 0/0
  4657 ;;		Unchanged: 0/0
  4658 ;; Data sizes:     COMRAM   BANK5   BANK6   BANK7   BANK8   BANK9  BANK10  BANK11  BANK12  BANK13  BANK14  BANK15  BANK1
      +6  BANK17  BANK18  BANK19  BANK20  BANK21  BANK22  BANK23  BANK24  BANK25  BANK26  BANK27  BANK28  BANK29  BANK30  BANK3
      +1  BANK32  BANK33  BANK34  BANK35  BANK36  BANK37  BANK38  BANK39  BANK40  BANK41  BANK42  BANK43  BANK44  BANK45  BANK4
      +6  BANK47  BANK48  BANK49  BANK50  BANK51  BANK52  BANK53  BANK54
  4659 ;;      Params:         4       0       0       0       0       0       0       0       0       0       0       0       
      +0       0       0       0       0       0       0       0       0       0       0       0       0       0       0       
      +0       0       0       0       0       0       0       0       0       0       0       0       0       0       0       
      +0       0       0       0       0       0       0       0       0
  4660 ;;      Locals:         6       0       0       0       0       0       0       0       0       0       0       0       
      +0       0       0       0       0       0       0       0       0       0       0       0       0       0       0       
      +0       0       0       0       0       0       0       0       0       0       0       0       0       0       0       
      +0       0       0       0       0       0       0       0       0
  4661 ;;      Temps:          4       0       0       0       0       0       0       0       0       0       0       0       
      +0       0       0       0       0       0       0       0       0       0       0       0       0       0       0       
      +0       0       0       0       0       0       0       0       0       0       0       0       0       0       0       
      +0       0       0       0       0       0       0       0       0
  4662 ;;      Totals:        14       0       0       0       0       0       0       0       0       0       0       0       
      +0       0       0       0       0       0       0       0       0       0       0       0       0       0       0       
      +0       0       0       0       0       0       0       0       0       0       0       0       0       0       0       
      +0       0       0       0       0       0       0       0       0
  4663 ;;Total ram usage:       14 bytes
  4664 ;; Hardware stack levels used: 1
  4665 ;; This function calls:
  4666 ;;		Nothing
  4667 ;; This function is called by:
  4668 ;;		_efgtoa
  4669 ;; This function uses a non-reentrant model
  4670 ;;
  4671                           
  4672                           	psect	text11
  4673  00625E                     __ptext11:
  4674                           	callstack 0
  4675  00625E                     ___fpclassifyf:
  4676                           	callstack 122
  4677  00625E  C5E2  F50B         	movff	___fpclassifyf@F465,___fpclassifyf@u
  4678  006262  C5E3  F50C         	movff	___fpclassifyf@F465+1,___fpclassifyf@u+1
  4679  006266  C5E4  F50D         	movff	___fpclassifyf@F465+2,___fpclassifyf@u+2
  4680  00626A  C5E5  F50E         	movff	___fpclassifyf@F465+3,___fpclassifyf@u+3
  4681  00626E  C501  F50B         	movff	___fpclassifyf@x,___fpclassifyf@u
  4682  006272  C502  F50C         	movff	___fpclassifyf@x+1,___fpclassifyf@u+1
  4683  006276  C503  F50D         	movff	___fpclassifyf@x+2,___fpclassifyf@u+2
  4684  00627A  C504  F50E         	movff	___fpclassifyf@x+3,___fpclassifyf@u+3
  4685  00627E  C50B  F505         	movff	___fpclassifyf@u,??___fpclassifyf
  4686  006282  C50C  F506         	movff	___fpclassifyf@u+1,??___fpclassifyf+1
  4687  006286  C50D  F507         	movff	___fpclassifyf@u+2,??___fpclassifyf+2
  4688  00628A  C50E  F508         	movff	___fpclassifyf@u+3,??___fpclassifyf+3
  4689  00628E  0E18               	movlw	24
  4690  006290  EF4F  F031         	goto	u5130
  4691  006294                     u5135:
  4692  006294  90D8               	bcf	status,0,c
  4693  006296  3208               	rrcf	(??___fpclassifyf+3)^(0+1280),f,c
  4694  006298  3207               	rrcf	(??___fpclassifyf+2)^(0+1280),f,c
  4695  00629A  3206               	rrcf	(??___fpclassifyf+1)^(0+1280),f,c
  4696  00629C  3205               	rrcf	??___fpclassifyf^(0+1280),f,c
  4697  00629E                     u5130:
  4698  00629E  2EE8               	decfsz	wreg,f,c
  4699  0062A0  EF4A  F031         	goto	u5135
  4700  0062A4  5005               	movf	??___fpclassifyf^(0+1280),w,c
  4701  0062A6  6E09               	movwf	___fpclassifyf@e^(0+1280),c
  4702  0062A8  6A0A               	clrf	(___fpclassifyf@e+1)^(0+1280),c
  4703  0062AA  5009               	movf	___fpclassifyf@e^(0+1280),w,c
  4704  0062AC  100A               	iorwf	(___fpclassifyf@e+1)^(0+1280),w,c
  4705  0062AE  A4D8               	btfss	status,2,c
  4706  0062B0  EF5C  F031         	goto	u5141
  4707  0062B4  EF5E  F031         	goto	u5140
  4708  0062B8                     u5141:
  4709  0062B8  EF7E  F031         	goto	l6061
  4710  0062BC                     u5140:
  4711  0062BC  90D8               	bcf	status,0,c
  4712  0062BE  340B               	rlcf	___fpclassifyf@u^(0+1280),w,c
  4713  0062C0  6E05               	movwf	??___fpclassifyf^(0+1280),c
  4714  0062C2  340C               	rlcf	(___fpclassifyf@u+1)^(0+1280),w,c
  4715  0062C4  6E06               	movwf	(??___fpclassifyf+1)^(0+1280),c
  4716  0062C6  340D               	rlcf	(___fpclassifyf@u+2)^(0+1280),w,c
  4717  0062C8  6E07               	movwf	(??___fpclassifyf+2)^(0+1280),c
  4718  0062CA  340E               	rlcf	(___fpclassifyf@u+3)^(0+1280),w,c
  4719  0062CC  6E08               	movwf	(??___fpclassifyf+3)^(0+1280),c
  4720  0062CE  5005               	movf	??___fpclassifyf^(0+1280),w,c
  4721  0062D0  1006               	iorwf	(??___fpclassifyf+1)^(0+1280),w,c
  4722  0062D2  1007               	iorwf	(??___fpclassifyf+2)^(0+1280),w,c
  4723  0062D4  1008               	iorwf	(??___fpclassifyf+3)^(0+1280),w,c
  4724  0062D6  A4D8               	btfss	status,2,c
  4725  0062D8  EF70  F031         	goto	u5151
  4726  0062DC  EF72  F031         	goto	u5150
  4727  0062E0                     u5151:
  4728  0062E0  EF78  F031         	goto	l6057
  4729  0062E4                     u5150:
  4730  0062E4  0E00               	movlw	0
  4731  0062E6  6E02               	movwf	(?___fpclassifyf+1)^(0+1280),c
  4732  0062E8  0E02               	movlw	2
  4733  0062EA  6E01               	movwf	?___fpclassifyf^(0+1280),c
  4734  0062EC  EFAD  F031         	goto	l2039
  4735  0062F0                     l6057:
  4736  0062F0  0E00               	movlw	0
  4737  0062F2  6E02               	movwf	(?___fpclassifyf+1)^(0+1280),c
  4738  0062F4  0E03               	movlw	3
  4739  0062F6  6E01               	movwf	?___fpclassifyf^(0+1280),c
  4740  0062F8  EFAD  F031         	goto	l2039
  4741  0062FC                     l6061:
  4742  0062FC  2809               	incf	___fpclassifyf@e^(0+1280),w,c
  4743  0062FE  100A               	iorwf	(___fpclassifyf@e+1)^(0+1280),w,c
  4744  006300  A4D8               	btfss	status,2,c
  4745  006302  EF85  F031         	goto	u5161
  4746  006306  EF87  F031         	goto	u5160
  4747  00630A                     u5161:
  4748  00630A  EFA9  F031         	goto	l6067
  4749  00630E                     u5160:
  4750  00630E  C50B  F505         	movff	___fpclassifyf@u,??___fpclassifyf
  4751  006312  C50C  F506         	movff	___fpclassifyf@u+1,??___fpclassifyf+1
  4752  006316  C50D  F507         	movff	___fpclassifyf@u+2,??___fpclassifyf+2
  4753  00631A  C50E  F508         	movff	___fpclassifyf@u+3,??___fpclassifyf+3
  4754  00631E  0E09               	movlw	9
  4755  006320                     u5175:
  4756  006320  90D8               	bcf	status,0,c
  4757  006322  3605               	rlcf	??___fpclassifyf^(0+1280),f,c
  4758  006324  3606               	rlcf	(??___fpclassifyf+1)^(0+1280),f,c
  4759  006326  3607               	rlcf	(??___fpclassifyf+2)^(0+1280),f,c
  4760  006328  3608               	rlcf	(??___fpclassifyf+3)^(0+1280),f,c
  4761  00632A  2EE8               	decfsz	wreg,f,c
  4762  00632C  EF90  F031         	goto	u5175
  4763  006330  5005               	movf	??___fpclassifyf^(0+1280),w,c
  4764  006332  1006               	iorwf	(??___fpclassifyf+1)^(0+1280),w,c
  4765  006334  1007               	iorwf	(??___fpclassifyf+2)^(0+1280),w,c
  4766  006336  1008               	iorwf	(??___fpclassifyf+3)^(0+1280),w,c
  4767  006338  B4D8               	btfsc	status,2,c
  4768  00633A  EFA1  F031         	goto	u5181
  4769  00633E  EFA4  F031         	goto	u5180
  4770  006342                     u5181:
  4771  006342  0E01               	movlw	1
  4772  006344  EFA5  F031         	goto	u5190
  4773  006348                     u5180:
  4774  006348  0E00               	movlw	0
  4775  00634A                     u5190:
  4776  00634A  6E01               	movwf	?___fpclassifyf^(0+1280),c
  4777  00634C  6A02               	clrf	(?___fpclassifyf+1)^(0+1280),c
  4778  00634E  EFAD  F031         	goto	l2039
  4779  006352                     l6067:
  4780  006352  0E00               	movlw	0
  4781  006354  6E02               	movwf	(?___fpclassifyf+1)^(0+1280),c
  4782  006356  0E04               	movlw	4
  4783  006358  6E01               	movwf	?___fpclassifyf^(0+1280),c
  4784  00635A                     l2039:
  4785  00635A  0012               	return		;funcret
  4786  00635C                     __end_of___fpclassifyf:
  4787                           	callstack 0
  4788                           
  4789 ;; *************** function ___fltol *****************
  4790 ;; Defined at:
  4791 ;;		line 43 in file "C:\Program Files\Microchip\xc8\v2.32\pic\sources\c99\common\fltol.c"
  4792 ;; Parameters:    Size  Location     Type
  4793 ;;  f1              4    0[COMRAM] int 
  4794 ;; Auto vars:     Size  Location     Type
  4795 ;;  exp1            1    9[COMRAM] unsigned char 
  4796 ;;  sign1           1    8[COMRAM] unsigned char 
  4797 ;; Return value:  Size  Location     Type
  4798 ;;                  4    0[COMRAM] long 
  4799 ;; Registers used:
  4800 ;;		wreg, status,2, status,0
  4801 ;; Tracked objects:
  4802 ;;		On entry : 0/0
  4803 ;;		On exit  : 0/0
  4804 ;;		Unchanged: 0/0
  4805 ;; Data sizes:     COMRAM   BANK5   BANK6   BANK7   BANK8   BANK9  BANK10  BANK11  BANK12  BANK13  BANK14  BANK15  BANK1
      +6  BANK17  BANK18  BANK19  BANK20  BANK21  BANK22  BANK23  BANK24  BANK25  BANK26  BANK27  BANK28  BANK29  BANK30  BANK3
      +1  BANK32  BANK33  BANK34  BANK35  BANK36  BANK37  BANK38  BANK39  BANK40  BANK41  BANK42  BANK43  BANK44  BANK45  BANK4
      +6  BANK47  BANK48  BANK49  BANK50  BANK51  BANK52  BANK53  BANK54
  4806 ;;      Params:         4       0       0       0       0       0       0       0       0       0       0       0       
      +0       0       0       0       0       0       0       0       0       0       0       0       0       0       0       
      +0       0       0       0       0       0       0       0       0       0       0       0       0       0       0       
      +0       0       0       0       0       0       0       0       0
  4807 ;;      Locals:         2       0       0       0       0       0       0       0       0       0       0       0       
      +0       0       0       0       0       0       0       0       0       0       0       0       0       0       0       
      +0       0       0       0       0       0       0       0       0       0       0       0       0       0       0       
      +0       0       0       0       0       0       0       0       0
  4808 ;;      Temps:          4       0       0       0       0       0       0       0       0       0       0       0       
      +0       0       0       0       0       0       0       0       0       0       0       0       0       0       0       
      +0       0       0       0       0       0       0       0       0       0       0       0       0       0       0       
      +0       0       0       0       0       0       0       0       0
  4809 ;;      Totals:        10       0       0       0       0       0       0       0       0       0       0       0       
      +0       0       0       0       0       0       0       0       0       0       0       0       0       0       0       
      +0       0       0       0       0       0       0       0       0       0       0       0       0       0       0       
      +0       0       0       0       0       0       0       0       0
  4810 ;;Total ram usage:       10 bytes
  4811 ;; Hardware stack levels used: 1
  4812 ;; This function calls:
  4813 ;;		Nothing
  4814 ;; This function is called by:
  4815 ;;		_efgtoa
  4816 ;; This function uses a non-reentrant model
  4817 ;;
  4818                           
  4819                           	psect	text12
  4820  006054                     __ptext12:
  4821                           	callstack 0
  4822  006054                     ___fltol:
  4823                           	callstack 122
  4824  006054  3403               	rlcf	(___fltol@f1+2)^(0+1280),w,c
  4825  006056  3404               	rlcf	(___fltol@f1+3)^(0+1280),w,c
  4826  006058  6E0A               	movwf	___fltol@exp1^(0+1280),c
  4827  00605A  500A               	movf	___fltol@exp1^(0+1280),w,c
  4828  00605C  A4D8               	btfss	status,2,c
  4829  00605E  EF33  F030         	goto	u5011
  4830  006062  EF35  F030         	goto	u5010
  4831  006066                     u5011:
  4832  006066  EF3F  F030         	goto	l5985
  4833  00606A                     u5010:
  4834  00606A                     l5981:
  4835  00606A  0E00               	movlw	0
  4836  00606C  6E01               	movwf	?___fltol^(0+1280),c
  4837  00606E  0E00               	movlw	0
  4838  006070  6E02               	movwf	(?___fltol+1)^(0+1280),c
  4839  006072  0E00               	movlw	0
  4840  006074  6E03               	movwf	(?___fltol+2)^(0+1280),c
  4841  006076  0E00               	movlw	0
  4842  006078  6E04               	movwf	(?___fltol+3)^(0+1280),c
  4843  00607A  EFAC  F030         	goto	l1461
  4844  00607E                     l5985:
  4845  00607E  C501  F505         	movff	___fltol@f1,??___fltol
  4846  006082  C502  F506         	movff	___fltol@f1+1,??___fltol+1
  4847  006086  C503  F507         	movff	___fltol@f1+2,??___fltol+2
  4848  00608A  C504  F508         	movff	___fltol@f1+3,??___fltol+3
  4849  00608E  0E20               	movlw	32
  4850  006090  EF4F  F030         	goto	u5020
  4851  006094                     u5025:
  4852  006094  90D8               	bcf	status,0,c
  4853  006096  3208               	rrcf	(??___fltol+3)^(0+1280),f,c
  4854  006098  3207               	rrcf	(??___fltol+2)^(0+1280),f,c
  4855  00609A  3206               	rrcf	(??___fltol+1)^(0+1280),f,c
  4856  00609C  3205               	rrcf	??___fltol^(0+1280),f,c
  4857  00609E                     u5020:
  4858  00609E  2EE8               	decfsz	wreg,f,c
  4859  0060A0  EF4A  F030         	goto	u5025
  4860  0060A4  5005               	movf	??___fltol^(0+1280),w,c
  4861  0060A6  6E09               	movwf	___fltol@sign1^(0+1280),c
  4862  0060A8  8E03               	bsf	(___fltol@f1+2)^(0+1280),7,c
  4863  0060AA  0EFF               	movlw	255
  4864  0060AC  1601               	andwf	___fltol@f1^(0+1280),f,c
  4865  0060AE  0EFF               	movlw	255
  4866  0060B0  1602               	andwf	(___fltol@f1+1)^(0+1280),f,c
  4867  0060B2  0EFF               	movlw	255
  4868  0060B4  1603               	andwf	(___fltol@f1+2)^(0+1280),f,c
  4869  0060B6  0E00               	movlw	0
  4870  0060B8  1604               	andwf	(___fltol@f1+3)^(0+1280),f,c
  4871  0060BA  0E96               	movlw	150
  4872  0060BC  5E0A               	subwf	___fltol@exp1^(0+1280),f,c
  4873  0060BE  BE0A               	btfsc	___fltol@exp1^(0+1280),7,c
  4874  0060C0  EF66  F030         	goto	u5030
  4875  0060C4  EF64  F030         	goto	u5031
  4876  0060C8                     u5031:
  4877  0060C8  EF7C  F030         	goto	l6005
  4878  0060CC                     u5030:
  4879  0060CC  500A               	movf	___fltol@exp1^(0+1280),w,c
  4880  0060CE  0A80               	xorlw	128
  4881  0060D0  0F97               	addlw	151
  4882  0060D2  B0D8               	btfsc	status,0,c
  4883  0060D4  EF6E  F030         	goto	u5041
  4884  0060D8  EF70  F030         	goto	u5040
  4885  0060DC                     u5041:
  4886  0060DC  EF72  F030         	goto	l6001
  4887  0060E0                     u5040:
  4888  0060E0  EF35  F030         	goto	l5981
  4889  0060E4                     l6001:
  4890  0060E4  90D8               	bcf	status,0,c
  4891  0060E6  3204               	rrcf	(___fltol@f1+3)^(0+1280),f,c
  4892  0060E8  3203               	rrcf	(___fltol@f1+2)^(0+1280),f,c
  4893  0060EA  3202               	rrcf	(___fltol@f1+1)^(0+1280),f,c
  4894  0060EC  3201               	rrcf	___fltol@f1^(0+1280),f,c
  4895  0060EE  3E0A               	incfsz	___fltol@exp1^(0+1280),f,c
  4896  0060F0  EF72  F030         	goto	l6001
  4897  0060F4  EF94  F030         	goto	l6015
  4898  0060F8                     l6005:
  4899  0060F8  0E1F               	movlw	31
  4900  0060FA  640A               	cpfsgt	___fltol@exp1^(0+1280),c
  4901  0060FC  EF82  F030         	goto	u5051
  4902  006100  EF84  F030         	goto	u5050
  4903  006104                     u5051:
  4904  006104  EF8C  F030         	goto	l6013
  4905  006108                     u5050:
  4906  006108  EF35  F030         	goto	l5981
  4907  00610C                     l6011:
  4908  00610C  90D8               	bcf	status,0,c
  4909  00610E  3601               	rlcf	___fltol@f1^(0+1280),f,c
  4910  006110  3602               	rlcf	(___fltol@f1+1)^(0+1280),f,c
  4911  006112  3603               	rlcf	(___fltol@f1+2)^(0+1280),f,c
  4912  006114  3604               	rlcf	(___fltol@f1+3)^(0+1280),f,c
  4913  006116  060A               	decf	___fltol@exp1^(0+1280),f,c
  4914  006118                     l6013:
  4915  006118  500A               	movf	___fltol@exp1^(0+1280),w,c
  4916  00611A  A4D8               	btfss	status,2,c
  4917  00611C  EF92  F030         	goto	u5061
  4918  006120  EF94  F030         	goto	u5060
  4919  006124                     u5061:
  4920  006124  EF86  F030         	goto	l6011
  4921  006128                     u5060:
  4922  006128                     l6015:
  4923  006128  5009               	movf	___fltol@sign1^(0+1280),w,c
  4924  00612A  B4D8               	btfsc	status,2,c
  4925  00612C  EF9A  F030         	goto	u5071
  4926  006130  EF9C  F030         	goto	u5070
  4927  006134                     u5071:
  4928  006134  EFA4  F030         	goto	l6019
  4929  006138                     u5070:
  4930  006138  1E04               	comf	(___fltol@f1+3)^(0+1280),f,c
  4931  00613A  1E03               	comf	(___fltol@f1+2)^(0+1280),f,c
  4932  00613C  1E02               	comf	(___fltol@f1+1)^(0+1280),f,c
  4933  00613E  6C01               	negf	___fltol@f1^(0+1280),c
  4934  006140  0E00               	movlw	0
  4935  006142  2202               	addwfc	(___fltol@f1+1)^(0+1280),f,c
  4936  006144  2203               	addwfc	(___fltol@f1+2)^(0+1280),f,c
  4937  006146  2204               	addwfc	(___fltol@f1+3)^(0+1280),f,c
  4938  006148                     l6019:
  4939  006148  C501  F501         	movff	___fltol@f1,?___fltol
  4940  00614C  C502  F502         	movff	___fltol@f1+1,?___fltol+1
  4941  006150  C503  F503         	movff	___fltol@f1+2,?___fltol+2
  4942  006154  C504  F504         	movff	___fltol@f1+3,?___fltol+3
  4943  006158                     l1461:
  4944  006158  0012               	return		;funcret
  4945  00615A                     __end_of___fltol:
  4946                           	callstack 0
  4947                           
  4948 ;; *************** function ___flsub *****************
  4949 ;; Defined at:
  4950 ;;		line 245 in file "C:\Program Files\Microchip\xc8\v2.32\pic\sources\c99\common\sprcadd.c"
  4951 ;; Parameters:    Size  Location     Type
  4952 ;;  b               4   39[COMRAM] long 
  4953 ;;  a               4   43[COMRAM] long 
  4954 ;; Auto vars:     Size  Location     Type
  4955 ;;		None
  4956 ;; Return value:  Size  Location     Type
  4957 ;;                  4   39[COMRAM] long 
  4958 ;; Registers used:
  4959 ;;		wreg, status,2, status,0, cstack
  4960 ;; Tracked objects:
  4961 ;;		On entry : 0/0
  4962 ;;		On exit  : 0/0
  4963 ;;		Unchanged: 0/0
  4964 ;; Data sizes:     COMRAM   BANK5   BANK6   BANK7   BANK8   BANK9  BANK10  BANK11  BANK12  BANK13  BANK14  BANK15  BANK1
      +6  BANK17  BANK18  BANK19  BANK20  BANK21  BANK22  BANK23  BANK24  BANK25  BANK26  BANK27  BANK28  BANK29  BANK30  BANK3
      +1  BANK32  BANK33  BANK34  BANK35  BANK36  BANK37  BANK38  BANK39  BANK40  BANK41  BANK42  BANK43  BANK44  BANK45  BANK4
      +6  BANK47  BANK48  BANK49  BANK50  BANK51  BANK52  BANK53  BANK54
  4965 ;;      Params:         8       0       0       0       0       0       0       0       0       0       0       0       
      +0       0       0       0       0       0       0       0       0       0       0       0       0       0       0       
      +0       0       0       0       0       0       0       0       0       0       0       0       0       0       0       
      +0       0       0       0       0       0       0       0       0
  4966 ;;      Locals:         0       0       0       0       0       0       0       0       0       0       0       0       
      +0       0       0       0       0       0       0       0       0       0       0       0       0       0       0       
      +0       0       0       0       0       0       0       0       0       0       0       0       0       0       0       
      +0       0       0       0       0       0       0       0       0
  4967 ;;      Temps:          0       0       0       0       0       0       0       0       0       0       0       0       
      +0       0       0       0       0       0       0       0       0       0       0       0       0       0       0       
      +0       0       0       0       0       0       0       0       0       0       0       0       0       0       0       
      +0       0       0       0       0       0       0       0       0
  4968 ;;      Totals:         8       0       0       0       0       0       0       0       0       0       0       0       
      +0       0       0       0       0       0       0       0       0       0       0       0       0       0       0       
      +0       0       0       0       0       0       0       0       0       0       0       0       0       0       0       
      +0       0       0       0       0       0       0       0       0
  4969 ;;Total ram usage:        8 bytes
  4970 ;; Hardware stack levels used: 1
  4971 ;; Hardware stack levels required when called: 1
  4972 ;; This function calls:
  4973 ;;		___fladd
  4974 ;; This function is called by:
  4975 ;;		_efgtoa
  4976 ;; This function uses a non-reentrant model
  4977 ;;
  4978                           
  4979                           	psect	text13
  4980  006B6E                     __ptext13:
  4981                           	callstack 0
  4982  006B6E                     ___flsub:
  4983                           	callstack 121
  4984  006B6E  0E00               	movlw	0
  4985  006B70  1A2C               	xorwf	___flsub@a^(0+1280),f,c
  4986  006B72  0E00               	movlw	0
  4987  006B74  1A2D               	xorwf	(___flsub@a+1)^(0+1280),f,c
  4988  006B76  0E00               	movlw	0
  4989  006B78  1A2E               	xorwf	(___flsub@a+2)^(0+1280),f,c
  4990  006B7A  0E80               	movlw	128
  4991  006B7C  1A2F               	xorwf	(___flsub@a+3)^(0+1280),f,c
  4992  006B7E  C528  F501         	movff	___flsub@b,___fladd@b
  4993  006B82  C529  F502         	movff	___flsub@b+1,___fladd@b+1
  4994  006B86  C52A  F503         	movff	___flsub@b+2,___fladd@b+2
  4995  006B8A  C52B  F504         	movff	___flsub@b+3,___fladd@b+3
  4996  006B8E  C52C  F505         	movff	___flsub@a,___fladd@a
  4997  006B92  C52D  F506         	movff	___flsub@a+1,___fladd@a+1
  4998  006B96  C52E  F507         	movff	___flsub@a+2,___fladd@a+2
  4999  006B9A  C52F  F508         	movff	___flsub@a+3,___fladd@a+3
  5000  006B9E  EC63  F024         	call	___fladd	;wreg free
  5001  006BA2  C501  F528         	movff	?___fladd,?___flsub
  5002  006BA6  C502  F529         	movff	?___fladd+1,?___flsub+1
  5003  006BAA  C503  F52A         	movff	?___fladd+2,?___flsub+2
  5004  006BAE  C504  F52B         	movff	?___fladd+3,?___flsub+3
  5005  006BB2  0012               	return		;funcret
  5006  006BB4                     __end_of___flsub:
  5007                           	callstack 0
  5008                           
  5009 ;; *************** function ___fladd *****************
  5010 ;; Defined at:
  5011 ;;		line 10 in file "C:\Program Files\Microchip\xc8\v2.32\pic\sources\c99\common\sprcadd.c"
  5012 ;; Parameters:    Size  Location     Type
  5013 ;;  b               4    0[COMRAM] long 
  5014 ;;  a               4    4[COMRAM] long 
  5015 ;; Auto vars:     Size  Location     Type
  5016 ;;  grs             1   15[COMRAM] unsigned char 
  5017 ;;  bexp            1   14[COMRAM] unsigned char 
  5018 ;;  aexp            1   13[COMRAM] unsigned char 
  5019 ;;  signs           1   12[COMRAM] unsigned char 
  5020 ;; Return value:  Size  Location     Type
  5021 ;;                  4    0[COMRAM] unsigned char 
  5022 ;; Registers used:
  5023 ;;		wreg, status,2, status,0
  5024 ;; Tracked objects:
  5025 ;;		On entry : 0/0
  5026 ;;		On exit  : 0/0
  5027 ;;		Unchanged: 0/0
  5028 ;; Data sizes:     COMRAM   BANK5   BANK6   BANK7   BANK8   BANK9  BANK10  BANK11  BANK12  BANK13  BANK14  BANK15  BANK1
      +6  BANK17  BANK18  BANK19  BANK20  BANK21  BANK22  BANK23  BANK24  BANK25  BANK26  BANK27  BANK28  BANK29  BANK30  BANK3
      +1  BANK32  BANK33  BANK34  BANK35  BANK36  BANK37  BANK38  BANK39  BANK40  BANK41  BANK42  BANK43  BANK44  BANK45  BANK4
      +6  BANK47  BANK48  BANK49  BANK50  BANK51  BANK52  BANK53  BANK54
  5029 ;;      Params:         8       0       0       0       0       0       0       0       0       0       0       0       
      +0       0       0       0       0       0       0       0       0       0       0       0       0       0       0       
      +0       0       0       0       0       0       0       0       0       0       0       0       0       0       0       
      +0       0       0       0       0       0       0       0       0
  5030 ;;      Locals:         4       0       0       0       0       0       0       0       0       0       0       0       
      +0       0       0       0       0       0       0       0       0       0       0       0       0       0       0       
      +0       0       0       0       0       0       0       0       0       0       0       0       0       0       0       
      +0       0       0       0       0       0       0       0       0
  5031 ;;      Temps:          4       0       0       0       0       0       0       0       0       0       0       0       
      +0       0       0       0       0       0       0       0       0       0       0       0       0       0       0       
      +0       0       0       0       0       0       0       0       0       0       0       0       0       0       0       
      +0       0       0       0       0       0       0       0       0
  5032 ;;      Totals:        16       0       0       0       0       0       0       0       0       0       0       0       
      +0       0       0       0       0       0       0       0       0       0       0       0       0       0       0       
      +0       0       0       0       0       0       0       0       0       0       0       0       0       0       0       
      +0       0       0       0       0       0       0       0       0
  5033 ;;Total ram usage:       16 bytes
  5034 ;; Hardware stack levels used: 1
  5035 ;; This function calls:
  5036 ;;		Nothing
  5037 ;; This function is called by:
  5038 ;;		___flsub
  5039 ;;		_efgtoa
  5040 ;; This function uses a non-reentrant model
  5041 ;;
  5042                           
  5043                           	psect	text14
  5044  0048C6                     __ptext14:
  5045                           	callstack 0
  5046  0048C6                     ___fladd:
  5047                           	callstack 121
  5048  0048C6  5004               	movf	(___fladd@b+3)^(0+1280),w,c
  5049  0048C8  0B80               	andlw	128
  5050  0048CA  6E0D               	movwf	___fladd@signs^(0+1280),c
  5051  0048CC  5004               	movf	(___fladd@b+3)^(0+1280),w,c
  5052  0048CE  2404               	addwf	(___fladd@b+3)^(0+1280),w,c
  5053  0048D0  6E0F               	movwf	___fladd@bexp^(0+1280),c
  5054  0048D2  AE03               	btfss	(___fladd@b+2)^(0+1280),7,c
  5055  0048D4  EF6E  F024         	goto	u3801
  5056  0048D8  EF70  F024         	goto	u3800
  5057  0048DC                     u3801:
  5058  0048DC  EF71  F024         	goto	l5209
  5059  0048E0                     u3800:
  5060  0048E0  800F               	bsf	___fladd@bexp^(0+1280),0,c
  5061  0048E2                     l5209:
  5062  0048E2  500F               	movf	___fladd@bexp^(0+1280),w,c
  5063  0048E4  B4D8               	btfsc	status,2,c
  5064  0048E6  EF77  F024         	goto	u3811
  5065  0048EA  EF79  F024         	goto	u3810
  5066  0048EE                     u3811:
  5067  0048EE  EF8E  F024         	goto	l5219
  5068  0048F2                     u3810:
  5069  0048F2  280F               	incf	___fladd@bexp^(0+1280),w,c
  5070  0048F4  A4D8               	btfss	status,2,c
  5071  0048F6  EF7F  F024         	goto	u3821
  5072  0048FA  EF81  F024         	goto	u3820
  5073  0048FE                     u3821:
  5074  0048FE  EF89  F024         	goto	l5215
  5075  004902                     u3820:
  5076  004902  0E00               	movlw	0
  5077  004904  6E01               	movwf	___fladd@b^(0+1280),c
  5078  004906  0E00               	movlw	0
  5079  004908  6E02               	movwf	(___fladd@b+1)^(0+1280),c
  5080  00490A  0E00               	movlw	0
  5081  00490C  6E03               	movwf	(___fladd@b+2)^(0+1280),c
  5082  00490E  0E00               	movlw	0
  5083  004910  6E04               	movwf	(___fladd@b+3)^(0+1280),c
  5084  004912                     l5215:
  5085  004912  8E03               	bsf	(___fladd@b+2)^(0+1280),7,c
  5086  004914  0E00               	movlw	0
  5087  004916  6E04               	movwf	(___fladd@b+3)^(0+1280),c
  5088  004918  EF96  F024         	goto	l5221
  5089  00491C                     l5219:
  5090  00491C  0E00               	movlw	0
  5091  00491E  6E01               	movwf	___fladd@b^(0+1280),c
  5092  004920  0E00               	movlw	0
  5093  004922  6E02               	movwf	(___fladd@b+1)^(0+1280),c
  5094  004924  0E00               	movlw	0
  5095  004926  6E03               	movwf	(___fladd@b+2)^(0+1280),c
  5096  004928  0E00               	movlw	0
  5097  00492A  6E04               	movwf	(___fladd@b+3)^(0+1280),c
  5098  00492C                     l5221:
  5099  00492C  5008               	movf	(___fladd@a+3)^(0+1280),w,c
  5100  00492E  0B80               	andlw	128
  5101  004930  6E0E               	movwf	___fladd@aexp^(0+1280),c
  5102  004932  500D               	movf	___fladd@signs^(0+1280),w,c
  5103  004934  180E               	xorwf	___fladd@aexp^(0+1280),w,c
  5104  004936  B4D8               	btfsc	status,2,c
  5105  004938  EFA0  F024         	goto	u3831
  5106  00493C  EFA2  F024         	goto	u3830
  5107  004940                     u3831:
  5108  004940  EFA3  F024         	goto	l5227
  5109  004944                     u3830:
  5110  004944  8C0D               	bsf	___fladd@signs^(0+1280),6,c
  5111  004946                     l5227:
  5112  004946  5008               	movf	(___fladd@a+3)^(0+1280),w,c
  5113  004948  2408               	addwf	(___fladd@a+3)^(0+1280),w,c
  5114  00494A  6E0E               	movwf	___fladd@aexp^(0+1280),c
  5115  00494C  AE07               	btfss	(___fladd@a+2)^(0+1280),7,c
  5116  00494E  EFAB  F024         	goto	u3841
  5117  004952  EFAD  F024         	goto	u3840
  5118  004956                     u3841:
  5119  004956  EFAE  F024         	goto	l5233
  5120  00495A                     u3840:
  5121  00495A  800E               	bsf	___fladd@aexp^(0+1280),0,c
  5122  00495C                     l5233:
  5123  00495C  500E               	movf	___fladd@aexp^(0+1280),w,c
  5124  00495E  B4D8               	btfsc	status,2,c
  5125  004960  EFB4  F024         	goto	u3851
  5126  004964  EFB6  F024         	goto	u3850
  5127  004968                     u3851:
  5128  004968  EFCB  F024         	goto	l5243
  5129  00496C                     u3850:
  5130  00496C  280E               	incf	___fladd@aexp^(0+1280),w,c
  5131  00496E  A4D8               	btfss	status,2,c
  5132  004970  EFBC  F024         	goto	u3861
  5133  004974  EFBE  F024         	goto	u3860
  5134  004978                     u3861:
  5135  004978  EFC6  F024         	goto	l5239
  5136  00497C                     u3860:
  5137  00497C  0E00               	movlw	0
  5138  00497E  6E05               	movwf	___fladd@a^(0+1280),c
  5139  004980  0E00               	movlw	0
  5140  004982  6E06               	movwf	(___fladd@a+1)^(0+1280),c
  5141  004984  0E00               	movlw	0
  5142  004986  6E07               	movwf	(___fladd@a+2)^(0+1280),c
  5143  004988  0E00               	movlw	0
  5144  00498A  6E08               	movwf	(___fladd@a+3)^(0+1280),c
  5145  00498C                     l5239:
  5146  00498C  8E07               	bsf	(___fladd@a+2)^(0+1280),7,c
  5147  00498E  0E00               	movlw	0
  5148  004990  6E08               	movwf	(___fladd@a+3)^(0+1280),c
  5149  004992  EFD3  F024         	goto	l5245
  5150  004996                     l5243:
  5151  004996  0E00               	movlw	0
  5152  004998  6E05               	movwf	___fladd@a^(0+1280),c
  5153  00499A  0E00               	movlw	0
  5154  00499C  6E06               	movwf	(___fladd@a+1)^(0+1280),c
  5155  00499E  0E00               	movlw	0
  5156  0049A0  6E07               	movwf	(___fladd@a+2)^(0+1280),c
  5157  0049A2  0E00               	movlw	0
  5158  0049A4  6E08               	movwf	(___fladd@a+3)^(0+1280),c
  5159  0049A6                     l5245:
  5160  0049A6  500F               	movf	___fladd@bexp^(0+1280),w,c
  5161  0049A8  5C0E               	subwf	___fladd@aexp^(0+1280),w,c
  5162  0049AA  B0D8               	btfsc	status,0,c
  5163  0049AC  EFDA  F024         	goto	u3871
  5164  0049B0  EFDC  F024         	goto	u3870
  5165  0049B4                     u3871:
  5166  0049B4  EF03  F025         	goto	l5281
  5167  0049B8                     u3870:
  5168  0049B8  AC0D               	btfss	___fladd@signs^(0+1280),6,c
  5169  0049BA  EFE1  F024         	goto	u3881
  5170  0049BE  EFE3  F024         	goto	u3880
  5171  0049C2                     u3881:
  5172  0049C2  EFE5  F024         	goto	l5251
  5173  0049C6                     u3880:
  5174  0049C6  0E80               	movlw	128
  5175  0049C8  1A0D               	xorwf	___fladd@signs^(0+1280),f,c
  5176  0049CA                     l5251:
  5177  0049CA  C50F  F510         	movff	___fladd@bexp,___fladd@grs
  5178  0049CE  C50E  F50F         	movff	___fladd@aexp,___fladd@bexp
  5179  0049D2  C510  F50E         	movff	___fladd@grs,___fladd@aexp
  5180  0049D6  C501  F510         	movff	___fladd@b,___fladd@grs
  5181  0049DA  C505  F501         	movff	___fladd@a,___fladd@b
  5182  0049DE  C510  F505         	movff	___fladd@grs,___fladd@a
  5183  0049E2  C502  F510         	movff	___fladd@b+1,___fladd@grs
  5184  0049E6  C506  F502         	movff	___fladd@a+1,___fladd@b+1
  5185  0049EA  C510  F506         	movff	___fladd@grs,___fladd@a+1
  5186  0049EE  C503  F510         	movff	___fladd@b+2,___fladd@grs
  5187  0049F2  C507  F503         	movff	___fladd@a+2,___fladd@b+2
  5188  0049F6  C510  F507         	movff	___fladd@grs,___fladd@a+2
  5189  0049FA  C504  F510         	movff	___fladd@b+3,___fladd@grs
  5190  0049FE  C508  F504         	movff	___fladd@a+3,___fladd@b+3
  5191  004A02  C510  F508         	movff	___fladd@grs,___fladd@a+3
  5192  004A06                     l5281:
  5193  004A06  0E00               	movlw	0
  5194  004A08  6E10               	movwf	___fladd@grs^(0+1280),c
  5195  004A0A  500F               	movf	___fladd@bexp^(0+1280),w,c
  5196  004A0C  C50E  F509         	movff	___fladd@aexp,??___fladd
  5197  004A10  6A0A               	clrf	(??___fladd+1)^(0+1280),c
  5198  004A12  5E09               	subwf	??___fladd^(0+1280),f,c
  5199  004A14  0E00               	movlw	0
  5200  004A16  5A0A               	subwfb	(??___fladd+1)^(0+1280),f,c
  5201  004A18  BE0A               	btfsc	(??___fladd+1)^(0+1280),7,c
  5202  004A1A  EF18  F025         	goto	u3891
  5203  004A1E  500A               	movf	(??___fladd+1)^(0+1280),w,c
  5204  004A20  E109               	bnz	u3890
  5205  004A22  0E1A               	movlw	26
  5206  004A24  5C09               	subwf	??___fladd^(0+1280),w,c
  5207  004A26  A0D8               	btfss	status,0,c
  5208  004A28  EF18  F025         	goto	u3891
  5209  004A2C  EF1A  F025         	goto	u3890
  5210  004A30                     u3891:
  5211  004A30  EF51  F025         	goto	l1693
  5212  004A34                     u3890:
  5213  004A34  5001               	movf	___fladd@b^(0+1280),w,c
  5214  004A36  1002               	iorwf	(___fladd@b+1)^(0+1280),w,c
  5215  004A38  1003               	iorwf	(___fladd@b+2)^(0+1280),w,c
  5216  004A3A  1004               	iorwf	(___fladd@b+3)^(0+1280),w,c
  5217  004A3C  A4D8               	btfss	status,2,c
  5218  004A3E  EF23  F025         	goto	u3901
  5219  004A42  EF26  F025         	goto	u3900
  5220  004A46                     u3901:
  5221  004A46  0E01               	movlw	1
  5222  004A48  EF27  F025         	goto	u3910
  5223  004A4C                     u3900:
  5224  004A4C  0E00               	movlw	0
  5225  004A4E                     u3910:
  5226  004A4E  6E10               	movwf	___fladd@grs^(0+1280),c
  5227  004A50  0E00               	movlw	0
  5228  004A52  6E01               	movwf	___fladd@b^(0+1280),c
  5229  004A54  0E00               	movlw	0
  5230  004A56  6E02               	movwf	(___fladd@b+1)^(0+1280),c
  5231  004A58  0E00               	movlw	0
  5232  004A5A  6E03               	movwf	(___fladd@b+2)^(0+1280),c
  5233  004A5C  0E00               	movlw	0
  5234  004A5E  6E04               	movwf	(___fladd@b+3)^(0+1280),c
  5235  004A60  C50E  F50F         	movff	___fladd@aexp,___fladd@bexp
  5236  004A64  EF5A  F025         	goto	l1692
  5237  004A68                     l1694:
  5238  004A68  A010               	btfss	___fladd@grs^(0+1280),0,c
  5239  004A6A  EF39  F025         	goto	u3921
  5240  004A6E  EF3B  F025         	goto	u3920
  5241  004A72                     u3921:
  5242  004A72  EF41  F025         	goto	l5293
  5243  004A76                     u3920:
  5244  004A76  90D8               	bcf	status,0,c
  5245  004A78  3010               	rrcf	___fladd@grs^(0+1280),w,c
  5246  004A7A  0901               	iorlw	1
  5247  004A7C  6E10               	movwf	___fladd@grs^(0+1280),c
  5248  004A7E  EF43  F025         	goto	l5295
  5249  004A82                     l5293:
  5250  004A82  90D8               	bcf	status,0,c
  5251  004A84  3210               	rrcf	___fladd@grs^(0+1280),f,c
  5252  004A86                     l5295:
  5253  004A86  A001               	btfss	___fladd@b^(0+1280),0,c
  5254  004A88  EF48  F025         	goto	u3931
  5255  004A8C  EF4A  F025         	goto	u3930
  5256  004A90                     u3931:
  5257  004A90  EF4B  F025         	goto	l5299
  5258  004A94                     u3930:
  5259  004A94  8E10               	bsf	___fladd@grs^(0+1280),7,c
  5260  004A96                     l5299:
  5261  004A96  3404               	rlcf	(___fladd@b+3)^(0+1280),w,c
  5262  004A98  3204               	rrcf	(___fladd@b+3)^(0+1280),f,c
  5263  004A9A  3203               	rrcf	(___fladd@b+2)^(0+1280),f,c
  5264  004A9C  3202               	rrcf	(___fladd@b+1)^(0+1280),f,c
  5265  004A9E  3201               	rrcf	___fladd@b^(0+1280),f,c
  5266  004AA0  2A0F               	incf	___fladd@bexp^(0+1280),f,c
  5267  004AA2                     l1693:
  5268  004AA2  500E               	movf	___fladd@aexp^(0+1280),w,c
  5269  004AA4  5C0F               	subwf	___fladd@bexp^(0+1280),w,c
  5270  004AA6  A0D8               	btfss	status,0,c
  5271  004AA8  EF58  F025         	goto	u3941
  5272  004AAC  EF5A  F025         	goto	u3940
  5273  004AB0                     u3941:
  5274  004AB0  EF34  F025         	goto	l1694
  5275  004AB4                     u3940:
  5276  004AB4                     l1692:
  5277  004AB4  BC0D               	btfsc	___fladd@signs^(0+1280),6,c
  5278  004AB6  EF5F  F025         	goto	u3951
  5279  004ABA  EF61  F025         	goto	u3950
  5280  004ABE                     u3951:
  5281  004ABE  EFA1  F025         	goto	l5327
  5282  004AC2                     u3950:
  5283  004AC2  500F               	movf	___fladd@bexp^(0+1280),w,c
  5284  004AC4  A4D8               	btfss	status,2,c
  5285  004AC6  EF67  F025         	goto	u3961
  5286  004ACA  EF69  F025         	goto	u3960
  5287  004ACE                     u3961:
  5288  004ACE  EF73  F025         	goto	l5309
  5289  004AD2                     u3960:
  5290  004AD2  0E00               	movlw	0
  5291  004AD4  6E01               	movwf	?___fladd^(0+1280),c
  5292  004AD6  0E00               	movlw	0
  5293  004AD8  6E02               	movwf	(?___fladd+1)^(0+1280),c
  5294  004ADA  0E00               	movlw	0
  5295  004ADC  6E03               	movwf	(?___fladd+2)^(0+1280),c
  5296  004ADE  0E00               	movlw	0
  5297  004AE0  6E04               	movwf	(?___fladd+3)^(0+1280),c
  5298  004AE2  EFC2  F026         	goto	l1701
  5299  004AE6                     l5309:
  5300  004AE6  5005               	movf	___fladd@a^(0+1280),w,c
  5301  004AE8  2601               	addwf	___fladd@b^(0+1280),f,c
  5302  004AEA  5006               	movf	(___fladd@a+1)^(0+1280),w,c
  5303  004AEC  2202               	addwfc	(___fladd@b+1)^(0+1280),f,c
  5304  004AEE  5007               	movf	(___fladd@a+2)^(0+1280),w,c
  5305  004AF0  2203               	addwfc	(___fladd@b+2)^(0+1280),f,c
  5306  004AF2  5008               	movf	(___fladd@a+3)^(0+1280),w,c
  5307  004AF4  2204               	addwfc	(___fladd@b+3)^(0+1280),f,c
  5308  004AF6  A004               	btfss	(___fladd@b+3)^(0+1280),0,c
  5309  004AF8  EF80  F025         	goto	u3971
  5310  004AFC  EF82  F025         	goto	u3970
  5311  004B00                     u3971:
  5312  004B00  EF2E  F026         	goto	l5363
  5313  004B04                     u3970:
  5314  004B04  A010               	btfss	___fladd@grs^(0+1280),0,c
  5315  004B06  EF87  F025         	goto	u3981
  5316  004B0A  EF89  F025         	goto	u3980
  5317  004B0E                     u3981:
  5318  004B0E  EF8F  F025         	goto	l5317
  5319  004B12                     u3980:
  5320  004B12  90D8               	bcf	status,0,c
  5321  004B14  3010               	rrcf	___fladd@grs^(0+1280),w,c
  5322  004B16  0901               	iorlw	1
  5323  004B18  6E10               	movwf	___fladd@grs^(0+1280),c
  5324  004B1A  EF91  F025         	goto	l5319
  5325  004B1E                     l5317:
  5326  004B1E  90D8               	bcf	status,0,c
  5327  004B20  3210               	rrcf	___fladd@grs^(0+1280),f,c
  5328  004B22                     l5319:
  5329  004B22  A001               	btfss	___fladd@b^(0+1280),0,c
  5330  004B24  EF96  F025         	goto	u3991
  5331  004B28  EF98  F025         	goto	u3990
  5332  004B2C                     u3991:
  5333  004B2C  EF99  F025         	goto	l5323
  5334  004B30                     u3990:
  5335  004B30  8E10               	bsf	___fladd@grs^(0+1280),7,c
  5336  004B32                     l5323:
  5337  004B32  3404               	rlcf	(___fladd@b+3)^(0+1280),w,c
  5338  004B34  3204               	rrcf	(___fladd@b+3)^(0+1280),f,c
  5339  004B36  3203               	rrcf	(___fladd@b+2)^(0+1280),f,c
  5340  004B38  3202               	rrcf	(___fladd@b+1)^(0+1280),f,c
  5341  004B3A  3201               	rrcf	___fladd@b^(0+1280),f,c
  5342  004B3C  2A0F               	incf	___fladd@bexp^(0+1280),f,c
  5343  004B3E  EF2E  F026         	goto	l5363
  5344  004B42                     l5327:
  5345  004B42  5005               	movf	___fladd@a^(0+1280),w,c
  5346  004B44  5C01               	subwf	___fladd@b^(0+1280),w,c
  5347  004B46  5006               	movf	(___fladd@a+1)^(0+1280),w,c
  5348  004B48  5802               	subwfb	(___fladd@b+1)^(0+1280),w,c
  5349  004B4A  5007               	movf	(___fladd@a+2)^(0+1280),w,c
  5350  004B4C  5803               	subwfb	(___fladd@b+2)^(0+1280),w,c
  5351  004B4E  5004               	movf	(___fladd@b+3)^(0+1280),w,c
  5352  004B50  0A80               	xorlw	128
  5353  004B52  6E09               	movwf	??___fladd^(0+1280),c
  5354  004B54  5008               	movf	(___fladd@a+3)^(0+1280),w,c
  5355  004B56  0A80               	xorlw	128
  5356  004B58  5809               	subwfb	??___fladd^(0+1280),w,c
  5357  004B5A  B0D8               	btfsc	status,0,c
  5358  004B5C  EFB2  F025         	goto	u4001
  5359  004B60  EFB4  F025         	goto	u4000
  5360  004B64                     u4001:
  5361  004B64  EFDF  F025         	goto	l5337
  5362  004B68                     u4000:
  5363  004B68  5001               	movf	___fladd@b^(0+1280),w,c
  5364  004B6A  5C05               	subwf	___fladd@a^(0+1280),w,c
  5365  004B6C  6E09               	movwf	??___fladd^(0+1280),c
  5366  004B6E  5002               	movf	(___fladd@b+1)^(0+1280),w,c
  5367  004B70  5806               	subwfb	(___fladd@a+1)^(0+1280),w,c
  5368  004B72  6E0A               	movwf	(??___fladd+1)^(0+1280),c
  5369  004B74  5003               	movf	(___fladd@b+2)^(0+1280),w,c
  5370  004B76  5807               	subwfb	(___fladd@a+2)^(0+1280),w,c
  5371  004B78  6E0B               	movwf	(??___fladd+2)^(0+1280),c
  5372  004B7A  5004               	movf	(___fladd@b+3)^(0+1280),w,c
  5373  004B7C  5808               	subwfb	(___fladd@a+3)^(0+1280),w,c
  5374  004B7E  6E0C               	movwf	(??___fladd+3)^(0+1280),c
  5375  004B80  0EFF               	movlw	255
  5376  004B82  2409               	addwf	??___fladd^(0+1280),w,c
  5377  004B84  6E01               	movwf	___fladd@b^(0+1280),c
  5378  004B86  0EFF               	movlw	255
  5379  004B88  200A               	addwfc	(??___fladd+1)^(0+1280),w,c
  5380  004B8A  6E02               	movwf	(___fladd@b+1)^(0+1280),c
  5381  004B8C  0EFF               	movlw	255
  5382  004B8E  200B               	addwfc	(??___fladd+2)^(0+1280),w,c
  5383  004B90  6E03               	movwf	(___fladd@b+2)^(0+1280),c
  5384  004B92  0EFF               	movlw	255
  5385  004B94  200C               	addwfc	(??___fladd+3)^(0+1280),w,c
  5386  004B96  6E04               	movwf	(___fladd@b+3)^(0+1280),c
  5387  004B98  0E80               	movlw	128
  5388  004B9A  1A0D               	xorwf	___fladd@signs^(0+1280),f,c
  5389  004B9C  6C10               	negf	___fladd@grs^(0+1280),c
  5390  004B9E  5010               	movf	___fladd@grs^(0+1280),w,c
  5391  004BA0  A4D8               	btfss	status,2,c
  5392  004BA2  EFD5  F025         	goto	u4011
  5393  004BA6  EFD7  F025         	goto	u4010
  5394  004BAA                     u4011:
  5395  004BAA  EFE7  F025         	goto	l1709
  5396  004BAE                     u4010:
  5397  004BAE  0E01               	movlw	1
  5398  004BB0  2601               	addwf	___fladd@b^(0+1280),f,c
  5399  004BB2  0E00               	movlw	0
  5400  004BB4  2202               	addwfc	(___fladd@b+1)^(0+1280),f,c
  5401  004BB6  2203               	addwfc	(___fladd@b+2)^(0+1280),f,c
  5402  004BB8  2204               	addwfc	(___fladd@b+3)^(0+1280),f,c
  5403  004BBA  EFE7  F025         	goto	l1709
  5404  004BBE                     l5337:
  5405  004BBE  5005               	movf	___fladd@a^(0+1280),w,c
  5406  004BC0  5E01               	subwf	___fladd@b^(0+1280),f,c
  5407  004BC2  5006               	movf	(___fladd@a+1)^(0+1280),w,c
  5408  004BC4  5A02               	subwfb	(___fladd@b+1)^(0+1280),f,c
  5409  004BC6  5007               	movf	(___fladd@a+2)^(0+1280),w,c
  5410  004BC8  5A03               	subwfb	(___fladd@b+2)^(0+1280),f,c
  5411  004BCA  5008               	movf	(___fladd@a+3)^(0+1280),w,c
  5412  004BCC  5A04               	subwfb	(___fladd@b+3)^(0+1280),f,c
  5413  004BCE                     l1709:
  5414  004BCE  5001               	movf	___fladd@b^(0+1280),w,c
  5415  004BD0  1002               	iorwf	(___fladd@b+1)^(0+1280),w,c
  5416  004BD2  1003               	iorwf	(___fladd@b+2)^(0+1280),w,c
  5417  004BD4  1004               	iorwf	(___fladd@b+3)^(0+1280),w,c
  5418  004BD6  A4D8               	btfss	status,2,c
  5419  004BD8  EFF0  F025         	goto	u4021
  5420  004BDC  EFF2  F025         	goto	u4020
  5421  004BE0                     u4021:
  5422  004BE0  EF27  F026         	goto	l5361
  5423  004BE4                     u4020:
  5424  004BE4  5010               	movf	___fladd@grs^(0+1280),w,c
  5425  004BE6  A4D8               	btfss	status,2,c
  5426  004BE8  EFF8  F025         	goto	u4031
  5427  004BEC  EFFA  F025         	goto	u4030
  5428  004BF0                     u4031:
  5429  004BF0  EF27  F026         	goto	l5361
  5430  004BF4                     u4030:
  5431  004BF4  0E00               	movlw	0
  5432  004BF6  6E01               	movwf	?___fladd^(0+1280),c
  5433  004BF8  0E00               	movlw	0
  5434  004BFA  6E02               	movwf	(?___fladd+1)^(0+1280),c
  5435  004BFC  0E00               	movlw	0
  5436  004BFE  6E03               	movwf	(?___fladd+2)^(0+1280),c
  5437  004C00  0E00               	movlw	0
  5438  004C02  6E04               	movwf	(?___fladd+3)^(0+1280),c
  5439  004C04  EFC2  F026         	goto	l1701
  5440  004C08                     l5345:
  5441  004C08  90D8               	bcf	status,0,c
  5442  004C0A  3601               	rlcf	___fladd@b^(0+1280),f,c
  5443  004C0C  3602               	rlcf	(___fladd@b+1)^(0+1280),f,c
  5444  004C0E  3603               	rlcf	(___fladd@b+2)^(0+1280),f,c
  5445  004C10  3604               	rlcf	(___fladd@b+3)^(0+1280),f,c
  5446  004C12  AE10               	btfss	___fladd@grs^(0+1280),7,c
  5447  004C14  EF0E  F026         	goto	u4041
  5448  004C18  EF10  F026         	goto	u4040
  5449  004C1C                     u4041:
  5450  004C1C  EF11  F026         	goto	l5351
  5451  004C20                     u4040:
  5452  004C20  8001               	bsf	___fladd@b^(0+1280),0,c
  5453  004C22                     l5351:
  5454  004C22  A010               	btfss	___fladd@grs^(0+1280),0,c
  5455  004C24  EF16  F026         	goto	u4051
  5456  004C28  EF18  F026         	goto	u4050
  5457  004C2C                     u4051:
  5458  004C2C  EF1C  F026         	goto	l5355
  5459  004C30                     u4050:
  5460  004C30  80D8               	bsf	status,0,c
  5461  004C32  3610               	rlcf	___fladd@grs^(0+1280),f,c
  5462  004C34  EF1E  F026         	goto	l5357
  5463  004C38                     l5355:
  5464  004C38  90D8               	bcf	status,0,c
  5465  004C3A  3610               	rlcf	___fladd@grs^(0+1280),f,c
  5466  004C3C                     l5357:
  5467  004C3C  500F               	movf	___fladd@bexp^(0+1280),w,c
  5468  004C3E  B4D8               	btfsc	status,2,c
  5469  004C40  EF24  F026         	goto	u4061
  5470  004C44  EF26  F026         	goto	u4060
  5471  004C48                     u4061:
  5472  004C48  EF27  F026         	goto	l5361
  5473  004C4C                     u4060:
  5474  004C4C  060F               	decf	___fladd@bexp^(0+1280),f,c
  5475  004C4E                     l5361:
  5476  004C4E  AE03               	btfss	(___fladd@b+2)^(0+1280),7,c
  5477  004C50  EF2C  F026         	goto	u4071
  5478  004C54  EF2E  F026         	goto	u4070
  5479  004C58                     u4071:
  5480  004C58  EF04  F026         	goto	l5345
  5481  004C5C                     u4070:
  5482  004C5C                     l5363:
  5483  004C5C  0E00               	movlw	0
  5484  004C5E  6E0E               	movwf	___fladd@aexp^(0+1280),c
  5485  004C60  AE10               	btfss	___fladd@grs^(0+1280),7,c
  5486  004C62  EF35  F026         	goto	u4081
  5487  004C66  EF37  F026         	goto	u4080
  5488  004C6A                     u4081:
  5489  004C6A  EF4F  F026         	goto	l1718
  5490  004C6E                     u4080:
  5491  004C6E  C510  F509         	movff	___fladd@grs,??___fladd
  5492  004C72  0E7F               	movlw	127
  5493  004C74  1609               	andwf	??___fladd^(0+1280),f,c
  5494  004C76  B4D8               	btfsc	status,2,c
  5495  004C78  EF40  F026         	goto	u4091
  5496  004C7C  EF42  F026         	goto	u4090
  5497  004C80                     u4091:
  5498  004C80  EF46  F026         	goto	l1719
  5499  004C84                     u4090:
  5500  004C84                     l5369:
  5501  004C84  0E01               	movlw	1
  5502  004C86  6E0E               	movwf	___fladd@aexp^(0+1280),c
  5503  004C88  EF4F  F026         	goto	l1718
  5504  004C8C                     l1719:
  5505  004C8C  A001               	btfss	___fladd@b^(0+1280),0,c
  5506  004C8E  EF4B  F026         	goto	u4101
  5507  004C92  EF4D  F026         	goto	u4100
  5508  004C96                     u4101:
  5509  004C96  EF4F  F026         	goto	l1718
  5510  004C9A                     u4100:
  5511  004C9A  EF42  F026         	goto	l5369
  5512  004C9E                     l1718:
  5513  004C9E  500E               	movf	___fladd@aexp^(0+1280),w,c
  5514  004CA0  B4D8               	btfsc	status,2,c
  5515  004CA2  EF55  F026         	goto	u4111
  5516  004CA6  EF57  F026         	goto	u4110
  5517  004CAA                     u4111:
  5518  004CAA  EF82  F026         	goto	l5381
  5519  004CAE                     u4110:
  5520  004CAE  0E01               	movlw	1
  5521  004CB0  2601               	addwf	___fladd@b^(0+1280),f,c
  5522  004CB2  0E00               	movlw	0
  5523  004CB4  2202               	addwfc	(___fladd@b+1)^(0+1280),f,c
  5524  004CB6  2203               	addwfc	(___fladd@b+2)^(0+1280),f,c
  5525  004CB8  2204               	addwfc	(___fladd@b+3)^(0+1280),f,c
  5526  004CBA  A004               	btfss	(___fladd@b+3)^(0+1280),0,c
  5527  004CBC  EF62  F026         	goto	u4121
  5528  004CC0  EF64  F026         	goto	u4120
  5529  004CC4                     u4121:
  5530  004CC4  EF82  F026         	goto	l5381
  5531  004CC8                     u4120:
  5532  004CC8  C501  F509         	movff	___fladd@b,??___fladd
  5533  004CCC  C502  F50A         	movff	___fladd@b+1,??___fladd+1
  5534  004CD0  C503  F50B         	movff	___fladd@b+2,??___fladd+2
  5535  004CD4  C504  F50C         	movff	___fladd@b+3,??___fladd+3
  5536  004CD8  340C               	rlcf	(??___fladd+3)^(0+1280),w,c
  5537  004CDA  320C               	rrcf	(??___fladd+3)^(0+1280),f,c
  5538  004CDC  320B               	rrcf	(??___fladd+2)^(0+1280),f,c
  5539  004CDE  320A               	rrcf	(??___fladd+1)^(0+1280),f,c
  5540  004CE0  3209               	rrcf	??___fladd^(0+1280),f,c
  5541  004CE2  C509  F501         	movff	??___fladd,___fladd@b
  5542  004CE6  C50A  F502         	movff	??___fladd+1,___fladd@b+1
  5543  004CEA  C50B  F503         	movff	??___fladd+2,___fladd@b+2
  5544  004CEE  C50C  F504         	movff	??___fladd+3,___fladd@b+3
  5545  004CF2  280F               	incf	___fladd@bexp^(0+1280),w,c
  5546  004CF4  B4D8               	btfsc	status,2,c
  5547  004CF6  EF7F  F026         	goto	u4131
  5548  004CFA  EF81  F026         	goto	u4130
  5549  004CFE                     u4131:
  5550  004CFE  EF82  F026         	goto	l5381
  5551  004D02                     u4130:
  5552  004D02  2A0F               	incf	___fladd@bexp^(0+1280),f,c
  5553  004D04                     l5381:
  5554  004D04  280F               	incf	___fladd@bexp^(0+1280),w,c
  5555  004D06  B4D8               	btfsc	status,2,c
  5556  004D08  EF88  F026         	goto	u4141
  5557  004D0C  EF8A  F026         	goto	u4140
  5558  004D10                     u4141:
  5559  004D10  EF92  F026         	goto	l5385
  5560  004D14                     u4140:
  5561  004D14  500F               	movf	___fladd@bexp^(0+1280),w,c
  5562  004D16  A4D8               	btfss	status,2,c
  5563  004D18  EF90  F026         	goto	u4151
  5564  004D1C  EF92  F026         	goto	u4150
  5565  004D20                     u4151:
  5566  004D20  EFA4  F026         	goto	l5389
  5567  004D24                     u4150:
  5568  004D24                     l5385:
  5569  004D24  0E00               	movlw	0
  5570  004D26  6E01               	movwf	___fladd@b^(0+1280),c
  5571  004D28  0E00               	movlw	0
  5572  004D2A  6E02               	movwf	(___fladd@b+1)^(0+1280),c
  5573  004D2C  0E00               	movlw	0
  5574  004D2E  6E03               	movwf	(___fladd@b+2)^(0+1280),c
  5575  004D30  0E00               	movlw	0
  5576  004D32  6E04               	movwf	(___fladd@b+3)^(0+1280),c
  5577  004D34  500F               	movf	___fladd@bexp^(0+1280),w,c
  5578  004D36  A4D8               	btfss	status,2,c
  5579  004D38  EFA0  F026         	goto	u4161
  5580  004D3C  EFA2  F026         	goto	u4160
  5581  004D40                     u4161:
  5582  004D40  EFA4  F026         	goto	l5389
  5583  004D44                     u4160:
  5584  004D44  0E00               	movlw	0
  5585  004D46  6E0D               	movwf	___fladd@signs^(0+1280),c
  5586  004D48                     l5389:
  5587  004D48  A00F               	btfss	___fladd@bexp^(0+1280),0,c
  5588  004D4A  EFA9  F026         	goto	u4171
  5589  004D4E  EFAB  F026         	goto	u4170
  5590  004D52                     u4171:
  5591  004D52  EFAE  F026         	goto	l5393
  5592  004D56                     u4170:
  5593  004D56  8E03               	bsf	(___fladd@b+2)^(0+1280),7,c
  5594  004D58  EFAF  F026         	goto	l5395
  5595  004D5C                     l5393:
  5596  004D5C  9E03               	bcf	(___fladd@b+2)^(0+1280),7,c
  5597  004D5E                     l5395:
  5598  004D5E  90D8               	bcf	status,0,c
  5599  004D60  300F               	rrcf	___fladd@bexp^(0+1280),w,c
  5600  004D62  6E04               	movwf	(___fladd@b+3)^(0+1280),c
  5601  004D64  AE0D               	btfss	___fladd@signs^(0+1280),7,c
  5602  004D66  EFB7  F026         	goto	u4181
  5603  004D6A  EFB9  F026         	goto	u4180
  5604  004D6E                     u4181:
  5605  004D6E  EFBA  F026         	goto	l5401
  5606  004D72                     u4180:
  5607  004D72  8E04               	bsf	(___fladd@b+3)^(0+1280),7,c
  5608  004D74                     l5401:
  5609  004D74  C501  F501         	movff	___fladd@b,?___fladd
  5610  004D78  C502  F502         	movff	___fladd@b+1,?___fladd+1
  5611  004D7C  C503  F503         	movff	___fladd@b+2,?___fladd+2
  5612  004D80  C504  F504         	movff	___fladd@b+3,?___fladd+3
  5613  004D84                     l1701:
  5614  004D84  0012               	return		;funcret
  5615  004D86                     __end_of___fladd:
  5616                           	callstack 0
  5617                           
  5618 ;; *************** function ___flneg *****************
  5619 ;; Defined at:
  5620 ;;		line 15 in file "C:\Program Files\Microchip\xc8\v2.32\pic\sources\c99\common\flneg.c"
  5621 ;; Parameters:    Size  Location     Type
  5622 ;;  f1              4    0[COMRAM] unsigned char 
  5623 ;; Auto vars:     Size  Location     Type
  5624 ;;		None
  5625 ;; Return value:  Size  Location     Type
  5626 ;;                  4    0[COMRAM] unsigned char 
  5627 ;; Registers used:
  5628 ;;		wreg, status,2, status,0
  5629 ;; Tracked objects:
  5630 ;;		On entry : 0/0
  5631 ;;		On exit  : 0/0
  5632 ;;		Unchanged: 0/0
  5633 ;; Data sizes:     COMRAM   BANK5   BANK6   BANK7   BANK8   BANK9  BANK10  BANK11  BANK12  BANK13  BANK14  BANK15  BANK1
      +6  BANK17  BANK18  BANK19  BANK20  BANK21  BANK22  BANK23  BANK24  BANK25  BANK26  BANK27  BANK28  BANK29  BANK30  BANK3
      +1  BANK32  BANK33  BANK34  BANK35  BANK36  BANK37  BANK38  BANK39  BANK40  BANK41  BANK42  BANK43  BANK44  BANK45  BANK4
      +6  BANK47  BANK48  BANK49  BANK50  BANK51  BANK52  BANK53  BANK54
  5634 ;;      Params:         4       0       0       0       0       0       0       0       0       0       0       0       
      +0       0       0       0       0       0       0       0       0       0       0       0       0       0       0       
      +0       0       0       0       0       0       0       0       0       0       0       0       0       0       0       
      +0       0       0       0       0       0       0       0       0
  5635 ;;      Locals:         0       0       0       0       0       0       0       0       0       0       0       0       
      +0       0       0       0       0       0       0       0       0       0       0       0       0       0       0       
      +0       0       0       0       0       0       0       0       0       0       0       0       0       0       0       
      +0       0       0       0       0       0       0       0       0
  5636 ;;      Temps:          0       0       0       0       0       0       0       0       0       0       0       0       
      +0       0       0       0       0       0       0       0       0       0       0       0       0       0       0       
      +0       0       0       0       0       0       0       0       0       0       0       0       0       0       0       
      +0       0       0       0       0       0       0       0       0
  5637 ;;      Totals:         4       0       0       0       0       0       0       0       0       0       0       0       
      +0       0       0       0       0       0       0       0       0       0       0       0       0       0       0       
      +0       0       0       0       0       0       0       0       0       0       0       0       0       0       0       
      +0       0       0       0       0       0       0       0       0
  5638 ;;Total ram usage:        4 bytes
  5639 ;; Hardware stack levels used: 1
  5640 ;; This function calls:
  5641 ;;		Nothing
  5642 ;; This function is called by:
  5643 ;;		_efgtoa
  5644 ;; This function uses a non-reentrant model
  5645 ;;
  5646                           
  5647                           	psect	text15
  5648  006CE8                     __ptext15:
  5649                           	callstack 0
  5650  006CE8                     ___flneg:
  5651                           	callstack 122
  5652  006CE8  5001               	movf	___flneg@f1^(0+1280),w,c
  5653  006CEA  1002               	iorwf	(___flneg@f1+1)^(0+1280),w,c
  5654  006CEC  1003               	iorwf	(___flneg@f1+2)^(0+1280),w,c
  5655  006CEE  1004               	iorwf	(___flneg@f1+3)^(0+1280),w,c
  5656  006CF0  B4D8               	btfsc	status,2,c
  5657  006CF2  EF7D  F036         	goto	u5001
  5658  006CF6  EF7F  F036         	goto	u5000
  5659  006CFA                     u5001:
  5660  006CFA  EF87  F036         	goto	l5975
  5661  006CFE                     u5000:
  5662  006CFE  0E00               	movlw	0
  5663  006D00  1A01               	xorwf	___flneg@f1^(0+1280),f,c
  5664  006D02  0E00               	movlw	0
  5665  006D04  1A02               	xorwf	(___flneg@f1+1)^(0+1280),f,c
  5666  006D06  0E00               	movlw	0
  5667  006D08  1A03               	xorwf	(___flneg@f1+2)^(0+1280),f,c
  5668  006D0A  0E80               	movlw	128
  5669  006D0C  1A04               	xorwf	(___flneg@f1+3)^(0+1280),f,c
  5670  006D0E                     l5975:
  5671  006D0E  C501  F501         	movff	___flneg@f1,?___flneg
  5672  006D12  C502  F502         	movff	___flneg@f1+1,?___flneg+1
  5673  006D16  C503  F503         	movff	___flneg@f1+2,?___flneg+2
  5674  006D1A  C504  F504         	movff	___flneg@f1+3,?___flneg+3
  5675  006D1E  0012               	return		;funcret
  5676  006D20                     __end_of___flneg:
  5677                           	callstack 0
  5678                           
  5679 ;; *************** function ___flmul *****************
  5680 ;; Defined at:
  5681 ;;		line 8 in file "C:\Program Files\Microchip\xc8\v2.32\pic\sources\c99\common\sprcmul.c"
  5682 ;; Parameters:    Size  Location     Type
  5683 ;;  b               4   14[COMRAM] unsigned char 
  5684 ;;  a               4   18[COMRAM] unsigned char 
  5685 ;; Auto vars:     Size  Location     Type
  5686 ;;  prod            4   33[COMRAM] struct .
  5687 ;;  grs             4   27[COMRAM] unsigned long 
  5688 ;;  temp            2   37[COMRAM] struct .
  5689 ;;  bexp            1   32[COMRAM] unsigned char 
  5690 ;;  aexp            1   31[COMRAM] unsigned char 
  5691 ;;  sign            1   26[COMRAM] unsigned char 
  5692 ;; Return value:  Size  Location     Type
  5693 ;;                  4   14[COMRAM] unsigned char 
  5694 ;; Registers used:
  5695 ;;		wreg, status,2, status,0, prodl, prodh
  5696 ;; Tracked objects:
  5697 ;;		On entry : 0/0
  5698 ;;		On exit  : 0/0
  5699 ;;		Unchanged: 0/0
  5700 ;; Data sizes:     COMRAM   BANK5   BANK6   BANK7   BANK8   BANK9  BANK10  BANK11  BANK12  BANK13  BANK14  BANK15  BANK1
      +6  BANK17  BANK18  BANK19  BANK20  BANK21  BANK22  BANK23  BANK24  BANK25  BANK26  BANK27  BANK28  BANK29  BANK30  BANK3
      +1  BANK32  BANK33  BANK34  BANK35  BANK36  BANK37  BANK38  BANK39  BANK40  BANK41  BANK42  BANK43  BANK44  BANK45  BANK4
      +6  BANK47  BANK48  BANK49  BANK50  BANK51  BANK52  BANK53  BANK54
  5701 ;;      Params:         8       0       0       0       0       0       0       0       0       0       0       0       
      +0       0       0       0       0       0       0       0       0       0       0       0       0       0       0       
      +0       0       0       0       0       0       0       0       0       0       0       0       0       0       0       
      +0       0       0       0       0       0       0       0       0
  5702 ;;      Locals:        13       0       0       0       0       0       0       0       0       0       0       0       
      +0       0       0       0       0       0       0       0       0       0       0       0       0       0       0       
      +0       0       0       0       0       0       0       0       0       0       0       0       0       0       0       
      +0       0       0       0       0       0       0       0       0
  5703 ;;      Temps:          4       0       0       0       0       0       0       0       0       0       0       0       
      +0       0       0       0       0       0       0       0       0       0       0       0       0       0       0       
      +0       0       0       0       0       0       0       0       0       0       0       0       0       0       0       
      +0       0       0       0       0       0       0       0       0
  5704 ;;      Totals:        25       0       0       0       0       0       0       0       0       0       0       0       
      +0       0       0       0       0       0       0       0       0       0       0       0       0       0       0       
      +0       0       0       0       0       0       0       0       0       0       0       0       0       0       0       
      +0       0       0       0       0       0       0       0       0
  5705 ;;Total ram usage:       25 bytes
  5706 ;; Hardware stack levels used: 1
  5707 ;; This function calls:
  5708 ;;		Nothing
  5709 ;; This function is called by:
  5710 ;;		_main
  5711 ;;		_efgtoa
  5712 ;; This function uses a non-reentrant model
  5713 ;;
  5714                           
  5715                           	psect	text16
  5716  004D86                     __ptext16:
  5717                           	callstack 0
  5718  004D86                     ___flmul:
  5719                           	callstack 122
  5720  004D86  5012               	movf	(___flmul@b+3)^(0+1280),w,c
  5721  004D88  0B80               	andlw	128
  5722  004D8A  6E1B               	movwf	___flmul@sign^(0+1280),c
  5723  004D8C  5012               	movf	(___flmul@b+3)^(0+1280),w,c
  5724  004D8E  2412               	addwf	(___flmul@b+3)^(0+1280),w,c
  5725  004D90  6E21               	movwf	___flmul@bexp^(0+1280),c
  5726  004D92  AE11               	btfss	(___flmul@b+2)^(0+1280),7,c
  5727  004D94  EFCE  F026         	goto	u4611
  5728  004D98  EFD0  F026         	goto	u4610
  5729  004D9C                     u4611:
  5730  004D9C  EFD1  F026         	goto	l5723
  5731  004DA0                     u4610:
  5732  004DA0  8021               	bsf	___flmul@bexp^(0+1280),0,c
  5733  004DA2                     l5723:
  5734  004DA2  5021               	movf	___flmul@bexp^(0+1280),w,c
  5735  004DA4  B4D8               	btfsc	status,2,c
  5736  004DA6  EFD7  F026         	goto	u4621
  5737  004DAA  EFD9  F026         	goto	u4620
  5738  004DAE                     u4621:
  5739  004DAE  EFEC  F026         	goto	l5731
  5740  004DB2                     u4620:
  5741  004DB2  2821               	incf	___flmul@bexp^(0+1280),w,c
  5742  004DB4  A4D8               	btfss	status,2,c
  5743  004DB6  EFDF  F026         	goto	u4631
  5744  004DBA  EFE1  F026         	goto	u4630
  5745  004DBE                     u4631:
  5746  004DBE  EFE9  F026         	goto	l5729
  5747  004DC2                     u4630:
  5748  004DC2  0E00               	movlw	0
  5749  004DC4  6E0F               	movwf	___flmul@b^(0+1280),c
  5750  004DC6  0E00               	movlw	0
  5751  004DC8  6E10               	movwf	(___flmul@b+1)^(0+1280),c
  5752  004DCA  0E00               	movlw	0
  5753  004DCC  6E11               	movwf	(___flmul@b+2)^(0+1280),c
  5754  004DCE  0E00               	movlw	0
  5755  004DD0  6E12               	movwf	(___flmul@b+3)^(0+1280),c
  5756  004DD2                     l5729:
  5757  004DD2  8E11               	bsf	(___flmul@b+2)^(0+1280),7,c
  5758  004DD4  EFF4  F026         	goto	l5733
  5759  004DD8                     l5731:
  5760  004DD8  0E00               	movlw	0
  5761  004DDA  6E0F               	movwf	___flmul@b^(0+1280),c
  5762  004DDC  0E00               	movlw	0
  5763  004DDE  6E10               	movwf	(___flmul@b+1)^(0+1280),c
  5764  004DE0  0E00               	movlw	0
  5765  004DE2  6E11               	movwf	(___flmul@b+2)^(0+1280),c
  5766  004DE4  0E00               	movlw	0
  5767  004DE6  6E12               	movwf	(___flmul@b+3)^(0+1280),c
  5768  004DE8                     l5733:
  5769  004DE8  5016               	movf	(___flmul@a+3)^(0+1280),w,c
  5770  004DEA  0B80               	andlw	128
  5771  004DEC  1A1B               	xorwf	___flmul@sign^(0+1280),f,c
  5772  004DEE  5016               	movf	(___flmul@a+3)^(0+1280),w,c
  5773  004DF0  2416               	addwf	(___flmul@a+3)^(0+1280),w,c
  5774  004DF2  6E20               	movwf	___flmul@aexp^(0+1280),c
  5775  004DF4  AE15               	btfss	(___flmul@a+2)^(0+1280),7,c
  5776  004DF6  EFFF  F026         	goto	u4641
  5777  004DFA  EF01  F027         	goto	u4640
  5778  004DFE                     u4641:
  5779  004DFE  EF02  F027         	goto	l5741
  5780  004E02                     u4640:
  5781  004E02  8020               	bsf	___flmul@aexp^(0+1280),0,c
  5782  004E04                     l5741:
  5783  004E04  5020               	movf	___flmul@aexp^(0+1280),w,c
  5784  004E06  B4D8               	btfsc	status,2,c
  5785  004E08  EF08  F027         	goto	u4651
  5786  004E0C  EF0A  F027         	goto	u4650
  5787  004E10                     u4651:
  5788  004E10  EF1D  F027         	goto	l5749
  5789  004E14                     u4650:
  5790  004E14  2820               	incf	___flmul@aexp^(0+1280),w,c
  5791  004E16  A4D8               	btfss	status,2,c
  5792  004E18  EF10  F027         	goto	u4661
  5793  004E1C  EF12  F027         	goto	u4660
  5794  004E20                     u4661:
  5795  004E20  EF1A  F027         	goto	l5747
  5796  004E24                     u4660:
  5797  004E24  0E00               	movlw	0
  5798  004E26  6E13               	movwf	___flmul@a^(0+1280),c
  5799  004E28  0E00               	movlw	0
  5800  004E2A  6E14               	movwf	(___flmul@a+1)^(0+1280),c
  5801  004E2C  0E00               	movlw	0
  5802  004E2E  6E15               	movwf	(___flmul@a+2)^(0+1280),c
  5803  004E30  0E00               	movlw	0
  5804  004E32  6E16               	movwf	(___flmul@a+3)^(0+1280),c
  5805  004E34                     l5747:
  5806  004E34  8E15               	bsf	(___flmul@a+2)^(0+1280),7,c
  5807  004E36  EF25  F027         	goto	l1778
  5808  004E3A                     l5749:
  5809  004E3A  0E00               	movlw	0
  5810  004E3C  6E13               	movwf	___flmul@a^(0+1280),c
  5811  004E3E  0E00               	movlw	0
  5812  004E40  6E14               	movwf	(___flmul@a+1)^(0+1280),c
  5813  004E42  0E00               	movlw	0
  5814  004E44  6E15               	movwf	(___flmul@a+2)^(0+1280),c
  5815  004E46  0E00               	movlw	0
  5816  004E48  6E16               	movwf	(___flmul@a+3)^(0+1280),c
  5817  004E4A                     l1778:
  5818  004E4A  5020               	movf	___flmul@aexp^(0+1280),w,c
  5819  004E4C  B4D8               	btfsc	status,2,c
  5820  004E4E  EF2B  F027         	goto	u4671
  5821  004E52  EF2D  F027         	goto	u4670
  5822  004E56                     u4671:
  5823  004E56  EF35  F027         	goto	l5753
  5824  004E5A                     u4670:
  5825  004E5A  5021               	movf	___flmul@bexp^(0+1280),w,c
  5826  004E5C  A4D8               	btfss	status,2,c
  5827  004E5E  EF33  F027         	goto	u4681
  5828  004E62  EF35  F027         	goto	u4680
  5829  004E66                     u4681:
  5830  004E66  EF3F  F027         	goto	l5757
  5831  004E6A                     u4680:
  5832  004E6A                     l5753:
  5833  004E6A  0E00               	movlw	0
  5834  004E6C  6E0F               	movwf	?___flmul^(0+1280),c
  5835  004E6E  0E00               	movlw	0
  5836  004E70  6E10               	movwf	(?___flmul+1)^(0+1280),c
  5837  004E72  0E00               	movlw	0
  5838  004E74  6E11               	movwf	(?___flmul+2)^(0+1280),c
  5839  004E76  0E00               	movlw	0
  5840  004E78  6E12               	movwf	(?___flmul+3)^(0+1280),c
  5841  004E7A  EFE9  F028         	goto	l1782
  5842  004E7E                     l5757:
  5843  004E7E  5015               	movf	(___flmul@a+2)^(0+1280),w,c
  5844  004E80  020F               	mulwf	___flmul@b^(0+1280),c
  5845  004E82  0061 F3CC  F526    	movff	prodl,___flmul@temp
  5846  004E88  0061 F3D0  F527    	movff	prodh,___flmul@temp+1
  5847  004E8E  5026               	movf	___flmul@temp^(0+1280),w,c
  5848  004E90  6E1C               	movwf	___flmul@grs^(0+1280),c
  5849  004E92  6A1D               	clrf	(___flmul@grs+1)^(0+1280),c
  5850  004E94  6A1E               	clrf	(___flmul@grs+2)^(0+1280),c
  5851  004E96  6A1F               	clrf	(___flmul@grs+3)^(0+1280),c
  5852  004E98  5027               	movf	(___flmul@temp+1)^(0+1280),w,c
  5853  004E9A  6E22               	movwf	___flmul@prod^(0+1280),c
  5854  004E9C  6A23               	clrf	(___flmul@prod+1)^(0+1280),c
  5855  004E9E  6A24               	clrf	(___flmul@prod+2)^(0+1280),c
  5856  004EA0  6A25               	clrf	(___flmul@prod+3)^(0+1280),c
  5857  004EA2  5014               	movf	(___flmul@a+1)^(0+1280),w,c
  5858  004EA4  0210               	mulwf	(___flmul@b+1)^(0+1280),c
  5859  004EA6  0061 F3CC  F526    	movff	prodl,___flmul@temp
  5860  004EAC  0061 F3D0  F527    	movff	prodh,___flmul@temp+1
  5861  004EB2  5026               	movf	___flmul@temp^(0+1280),w,c
  5862  004EB4  261C               	addwf	___flmul@grs^(0+1280),f,c
  5863  004EB6  0E00               	movlw	0
  5864  004EB8  221D               	addwfc	(___flmul@grs+1)^(0+1280),f,c
  5865  004EBA  221E               	addwfc	(___flmul@grs+2)^(0+1280),f,c
  5866  004EBC  221F               	addwfc	(___flmul@grs+3)^(0+1280),f,c
  5867  004EBE  5027               	movf	(___flmul@temp+1)^(0+1280),w,c
  5868  004EC0  2622               	addwf	___flmul@prod^(0+1280),f,c
  5869  004EC2  0E00               	movlw	0
  5870  004EC4  2223               	addwfc	(___flmul@prod+1)^(0+1280),f,c
  5871  004EC6  2224               	addwfc	(___flmul@prod+2)^(0+1280),f,c
  5872  004EC8  2225               	addwfc	(___flmul@prod+3)^(0+1280),f,c
  5873  004ECA  5013               	movf	___flmul@a^(0+1280),w,c
  5874  004ECC  0211               	mulwf	(___flmul@b+2)^(0+1280),c
  5875  004ECE  0061 F3CC  F526    	movff	prodl,___flmul@temp
  5876  004ED4  0061 F3D0  F527    	movff	prodh,___flmul@temp+1
  5877  004EDA  5026               	movf	___flmul@temp^(0+1280),w,c
  5878  004EDC  261C               	addwf	___flmul@grs^(0+1280),f,c
  5879  004EDE  0E00               	movlw	0
  5880  004EE0  221D               	addwfc	(___flmul@grs+1)^(0+1280),f,c
  5881  004EE2  221E               	addwfc	(___flmul@grs+2)^(0+1280),f,c
  5882  004EE4  221F               	addwfc	(___flmul@grs+3)^(0+1280),f,c
  5883  004EE6  5027               	movf	(___flmul@temp+1)^(0+1280),w,c
  5884  004EE8  2622               	addwf	___flmul@prod^(0+1280),f,c
  5885  004EEA  0E00               	movlw	0
  5886  004EEC  2223               	addwfc	(___flmul@prod+1)^(0+1280),f,c
  5887  004EEE  2224               	addwfc	(___flmul@prod+2)^(0+1280),f,c
  5888  004EF0  2225               	addwfc	(___flmul@prod+3)^(0+1280),f,c
  5889  004EF2  C51E  F51F         	movff	___flmul@grs+2,___flmul@grs+3
  5890  004EF6  C51D  F51E         	movff	___flmul@grs+1,___flmul@grs+2
  5891  004EFA  C51C  F51D         	movff	___flmul@grs,___flmul@grs+1
  5892  004EFE  6A1C               	clrf	___flmul@grs^(0+1280),c
  5893  004F00  5013               	movf	___flmul@a^(0+1280),w,c
  5894  004F02  0210               	mulwf	(___flmul@b+1)^(0+1280),c
  5895  004F04  0061 F3CC  F526    	movff	prodl,___flmul@temp
  5896  004F0A  0061 F3D0  F527    	movff	prodh,___flmul@temp+1
  5897  004F10  5026               	movf	___flmul@temp^(0+1280),w,c
  5898  004F12  261C               	addwf	___flmul@grs^(0+1280),f,c
  5899  004F14  5027               	movf	(___flmul@temp+1)^(0+1280),w,c
  5900  004F16  221D               	addwfc	(___flmul@grs+1)^(0+1280),f,c
  5901  004F18  0E00               	movlw	0
  5902  004F1A  221E               	addwfc	(___flmul@grs+2)^(0+1280),f,c
  5903  004F1C  0E00               	movlw	0
  5904  004F1E  221F               	addwfc	(___flmul@grs+3)^(0+1280),f,c
  5905  004F20  5014               	movf	(___flmul@a+1)^(0+1280),w,c
  5906  004F22  020F               	mulwf	___flmul@b^(0+1280),c
  5907  004F24  0061 F3CC  F526    	movff	prodl,___flmul@temp
  5908  004F2A  0061 F3D0  F527    	movff	prodh,___flmul@temp+1
  5909  004F30  5026               	movf	___flmul@temp^(0+1280),w,c
  5910  004F32  261C               	addwf	___flmul@grs^(0+1280),f,c
  5911  004F34  5027               	movf	(___flmul@temp+1)^(0+1280),w,c
  5912  004F36  221D               	addwfc	(___flmul@grs+1)^(0+1280),f,c
  5913  004F38  0E00               	movlw	0
  5914  004F3A  221E               	addwfc	(___flmul@grs+2)^(0+1280),f,c
  5915  004F3C  0E00               	movlw	0
  5916  004F3E  221F               	addwfc	(___flmul@grs+3)^(0+1280),f,c
  5917  004F40  C51E  F51F         	movff	___flmul@grs+2,___flmul@grs+3
  5918  004F44  C51D  F51E         	movff	___flmul@grs+1,___flmul@grs+2
  5919  004F48  C51C  F51D         	movff	___flmul@grs,___flmul@grs+1
  5920  004F4C  6A1C               	clrf	___flmul@grs^(0+1280),c
  5921  004F4E  5013               	movf	___flmul@a^(0+1280),w,c
  5922  004F50  020F               	mulwf	___flmul@b^(0+1280),c
  5923  004F52  0061 F3CC  F526    	movff	prodl,___flmul@temp
  5924  004F58  0061 F3D0  F527    	movff	prodh,___flmul@temp+1
  5925  004F5E  5026               	movf	___flmul@temp^(0+1280),w,c
  5926  004F60  261C               	addwf	___flmul@grs^(0+1280),f,c
  5927  004F62  5027               	movf	(___flmul@temp+1)^(0+1280),w,c
  5928  004F64  221D               	addwfc	(___flmul@grs+1)^(0+1280),f,c
  5929  004F66  0E00               	movlw	0
  5930  004F68  221E               	addwfc	(___flmul@grs+2)^(0+1280),f,c
  5931  004F6A  0E00               	movlw	0
  5932  004F6C  221F               	addwfc	(___flmul@grs+3)^(0+1280),f,c
  5933  004F6E  5015               	movf	(___flmul@a+2)^(0+1280),w,c
  5934  004F70  0210               	mulwf	(___flmul@b+1)^(0+1280),c
  5935  004F72  0061 F3CC  F526    	movff	prodl,___flmul@temp
  5936  004F78  0061 F3D0  F527    	movff	prodh,___flmul@temp+1
  5937  004F7E  5026               	movf	___flmul@temp^(0+1280),w,c
  5938  004F80  2622               	addwf	___flmul@prod^(0+1280),f,c
  5939  004F82  5027               	movf	(___flmul@temp+1)^(0+1280),w,c
  5940  004F84  2223               	addwfc	(___flmul@prod+1)^(0+1280),f,c
  5941  004F86  0E00               	movlw	0
  5942  004F88  2224               	addwfc	(___flmul@prod+2)^(0+1280),f,c
  5943  004F8A  0E00               	movlw	0
  5944  004F8C  2225               	addwfc	(___flmul@prod+3)^(0+1280),f,c
  5945  004F8E  5014               	movf	(___flmul@a+1)^(0+1280),w,c
  5946  004F90  0211               	mulwf	(___flmul@b+2)^(0+1280),c
  5947  004F92  0061 F3CC  F526    	movff	prodl,___flmul@temp
  5948  004F98  0061 F3D0  F527    	movff	prodh,___flmul@temp+1
  5949  004F9E  5026               	movf	___flmul@temp^(0+1280),w,c
  5950  004FA0  2622               	addwf	___flmul@prod^(0+1280),f,c
  5951  004FA2  5027               	movf	(___flmul@temp+1)^(0+1280),w,c
  5952  004FA4  2223               	addwfc	(___flmul@prod+1)^(0+1280),f,c
  5953  004FA6  0E00               	movlw	0
  5954  004FA8  2224               	addwfc	(___flmul@prod+2)^(0+1280),f,c
  5955  004FAA  0E00               	movlw	0
  5956  004FAC  2225               	addwfc	(___flmul@prod+3)^(0+1280),f,c
  5957  004FAE  5015               	movf	(___flmul@a+2)^(0+1280),w,c
  5958  004FB0  0211               	mulwf	(___flmul@b+2)^(0+1280),c
  5959  004FB2  0061 F3CC  F526    	movff	prodl,___flmul@temp
  5960  004FB8  0061 F3D0  F527    	movff	prodh,___flmul@temp+1
  5961  004FBE  5026               	movf	___flmul@temp^(0+1280),w,c
  5962  004FC0  6E17               	movwf	??___flmul^(0+1280),c
  5963  004FC2  5027               	movf	(___flmul@temp+1)^(0+1280),w,c
  5964  004FC4  6E18               	movwf	(??___flmul+1)^(0+1280),c
  5965  004FC6  6A19               	clrf	(??___flmul+2)^(0+1280),c
  5966  004FC8  6A1A               	clrf	(??___flmul+3)^(0+1280),c
  5967  004FCA  C519  F51A         	movff	??___flmul+2,??___flmul+3
  5968  004FCE  C518  F519         	movff	??___flmul+1,??___flmul+2
  5969  004FD2  C517  F518         	movff	??___flmul,??___flmul+1
  5970  004FD6  6A17               	clrf	??___flmul^(0+1280),c
  5971  004FD8  5017               	movf	??___flmul^(0+1280),w,c
  5972  004FDA  2622               	addwf	___flmul@prod^(0+1280),f,c
  5973  004FDC  5018               	movf	(??___flmul+1)^(0+1280),w,c
  5974  004FDE  2223               	addwfc	(___flmul@prod+1)^(0+1280),f,c
  5975  004FE0  5019               	movf	(??___flmul+2)^(0+1280),w,c
  5976  004FE2  2224               	addwfc	(___flmul@prod+2)^(0+1280),f,c
  5977  004FE4  501A               	movf	(??___flmul+3)^(0+1280),w,c
  5978  004FE6  2225               	addwfc	(___flmul@prod+3)^(0+1280),f,c
  5979  004FE8  C51C  F517         	movff	___flmul@grs,??___flmul
  5980  004FEC  C51D  F518         	movff	___flmul@grs+1,??___flmul+1
  5981  004FF0  C51E  F519         	movff	___flmul@grs+2,??___flmul+2
  5982  004FF4  C51F  F51A         	movff	___flmul@grs+3,??___flmul+3
  5983  004FF8  0E19               	movlw	25
  5984  004FFA  EF04  F028         	goto	u4690
  5985  004FFE                     u4695:
  5986  004FFE  90D8               	bcf	status,0,c
  5987  005000  321A               	rrcf	(??___flmul+3)^(0+1280),f,c
  5988  005002  3219               	rrcf	(??___flmul+2)^(0+1280),f,c
  5989  005004  3218               	rrcf	(??___flmul+1)^(0+1280),f,c
  5990  005006  3217               	rrcf	??___flmul^(0+1280),f,c
  5991  005008                     u4690:
  5992  005008  2EE8               	decfsz	wreg,f,c
  5993  00500A  EFFF  F027         	goto	u4695
  5994  00500E  5017               	movf	??___flmul^(0+1280),w,c
  5995  005010  2622               	addwf	___flmul@prod^(0+1280),f,c
  5996  005012  5018               	movf	(??___flmul+1)^(0+1280),w,c
  5997  005014  2223               	addwfc	(___flmul@prod+1)^(0+1280),f,c
  5998  005016  5019               	movf	(??___flmul+2)^(0+1280),w,c
  5999  005018  2224               	addwfc	(___flmul@prod+2)^(0+1280),f,c
  6000  00501A  501A               	movf	(??___flmul+3)^(0+1280),w,c
  6001  00501C  2225               	addwfc	(___flmul@prod+3)^(0+1280),f,c
  6002  00501E  C51E  F51F         	movff	___flmul@grs+2,___flmul@grs+3
  6003  005022  C51D  F51E         	movff	___flmul@grs+1,___flmul@grs+2
  6004  005026  C51C  F51D         	movff	___flmul@grs,___flmul@grs+1
  6005  00502A  6A1C               	clrf	___flmul@grs^(0+1280),c
  6006  00502C  5020               	movf	___flmul@aexp^(0+1280),w,c
  6007  00502E  C521  F517         	movff	___flmul@bexp,??___flmul
  6008  005032  6A18               	clrf	(??___flmul+1)^(0+1280),c
  6009  005034  2617               	addwf	??___flmul^(0+1280),f,c
  6010  005036  0E00               	movlw	0
  6011  005038  2218               	addwfc	(??___flmul+1)^(0+1280),f,c
  6012  00503A  0E82               	movlw	130
  6013  00503C  2417               	addwf	??___flmul^(0+1280),w,c
  6014  00503E  6E26               	movwf	___flmul@temp^(0+1280),c
  6015  005040  0EFF               	movlw	255
  6016  005042  2018               	addwfc	(??___flmul+1)^(0+1280),w,c
  6017  005044  6E27               	movwf	(___flmul@temp+1)^(0+1280),c
  6018  005046  EF3A  F028         	goto	l5805
  6019  00504A                     l5799:
  6020  00504A  90D8               	bcf	status,0,c
  6021  00504C  3622               	rlcf	___flmul@prod^(0+1280),f,c
  6022  00504E  3623               	rlcf	(___flmul@prod+1)^(0+1280),f,c
  6023  005050  3624               	rlcf	(___flmul@prod+2)^(0+1280),f,c
  6024  005052  3625               	rlcf	(___flmul@prod+3)^(0+1280),f,c
  6025  005054  AE1F               	btfss	(___flmul@grs+3)^(0+1280),7,c
  6026  005056  EF2F  F028         	goto	u4701
  6027  00505A  EF31  F028         	goto	u4700
  6028  00505E                     u4701:
  6029  00505E  EF32  F028         	goto	l1785
  6030  005062                     u4700:
  6031  005062  8022               	bsf	___flmul@prod^(0+1280),0,c
  6032  005064                     l1785:
  6033  005064  90D8               	bcf	status,0,c
  6034  005066  361C               	rlcf	___flmul@grs^(0+1280),f,c
  6035  005068  361D               	rlcf	(___flmul@grs+1)^(0+1280),f,c
  6036  00506A  361E               	rlcf	(___flmul@grs+2)^(0+1280),f,c
  6037  00506C  361F               	rlcf	(___flmul@grs+3)^(0+1280),f,c
  6038  00506E  0626               	decf	___flmul@temp^(0+1280),f,c
  6039  005070  A0D8               	btfss	status,0,c
  6040  005072  0627               	decf	(___flmul@temp+1)^(0+1280),f,c
  6041  005074                     l5805:
  6042  005074  AE24               	btfss	(___flmul@prod+2)^(0+1280),7,c
  6043  005076  EF3F  F028         	goto	u4711
  6044  00507A  EF41  F028         	goto	u4710
  6045  00507E                     u4711:
  6046  00507E  EF25  F028         	goto	l5799
  6047  005082                     u4710:
  6048  005082  0E00               	movlw	0
  6049  005084  6E20               	movwf	___flmul@aexp^(0+1280),c
  6050  005086  AE1F               	btfss	(___flmul@grs+3)^(0+1280),7,c
  6051  005088  EF48  F028         	goto	u4721
  6052  00508C  EF4A  F028         	goto	u4720
  6053  005090                     u4721:
  6054  005090  EF6E  F028         	goto	l1787
  6055  005094                     u4720:
  6056  005094  0EFF               	movlw	255
  6057  005096  141C               	andwf	___flmul@grs^(0+1280),w,c
  6058  005098  6E17               	movwf	??___flmul^(0+1280),c
  6059  00509A  0EFF               	movlw	255
  6060  00509C  141D               	andwf	(___flmul@grs+1)^(0+1280),w,c
  6061  00509E  6E18               	movwf	(??___flmul+1)^(0+1280),c
  6062  0050A0  0EFF               	movlw	255
  6063  0050A2  141E               	andwf	(___flmul@grs+2)^(0+1280),w,c
  6064  0050A4  6E19               	movwf	(??___flmul+2)^(0+1280),c
  6065  0050A6  0E7F               	movlw	127
  6066  0050A8  141F               	andwf	(___flmul@grs+3)^(0+1280),w,c
  6067  0050AA  6E1A               	movwf	(??___flmul+3)^(0+1280),c
  6068  0050AC  5017               	movf	??___flmul^(0+1280),w,c
  6069  0050AE  1018               	iorwf	(??___flmul+1)^(0+1280),w,c
  6070  0050B0  1019               	iorwf	(??___flmul+2)^(0+1280),w,c
  6071  0050B2  101A               	iorwf	(??___flmul+3)^(0+1280),w,c
  6072  0050B4  B4D8               	btfsc	status,2,c
  6073  0050B6  EF5F  F028         	goto	u4731
  6074  0050BA  EF61  F028         	goto	u4730
  6075  0050BE                     u4731:
  6076  0050BE  EF65  F028         	goto	l1788
  6077  0050C2                     u4730:
  6078  0050C2                     l5813:
  6079  0050C2  0E01               	movlw	1
  6080  0050C4  6E20               	movwf	___flmul@aexp^(0+1280),c
  6081  0050C6  EF6E  F028         	goto	l1787
  6082  0050CA                     l1788:
  6083  0050CA  A022               	btfss	___flmul@prod^(0+1280),0,c
  6084  0050CC  EF6A  F028         	goto	u4741
  6085  0050D0  EF6C  F028         	goto	u4740
  6086  0050D4                     u4741:
  6087  0050D4  EF6E  F028         	goto	l1787
  6088  0050D8                     u4740:
  6089  0050D8  EF61  F028         	goto	l5813
  6090  0050DC                     l1787:
  6091  0050DC  5020               	movf	___flmul@aexp^(0+1280),w,c
  6092  0050DE  B4D8               	btfsc	status,2,c
  6093  0050E0  EF74  F028         	goto	u4751
  6094  0050E4  EF76  F028         	goto	u4750
  6095  0050E8                     u4751:
  6096  0050E8  EF9A  F028         	goto	l5825
  6097  0050EC                     u4750:
  6098  0050EC  0E01               	movlw	1
  6099  0050EE  2622               	addwf	___flmul@prod^(0+1280),f,c
  6100  0050F0  0E00               	movlw	0
  6101  0050F2  2223               	addwfc	(___flmul@prod+1)^(0+1280),f,c
  6102  0050F4  2224               	addwfc	(___flmul@prod+2)^(0+1280),f,c
  6103  0050F6  2225               	addwfc	(___flmul@prod+3)^(0+1280),f,c
  6104  0050F8  A025               	btfss	(___flmul@prod+3)^(0+1280),0,c
  6105  0050FA  EF81  F028         	goto	u4761
  6106  0050FE  EF83  F028         	goto	u4760
  6107  005102                     u4761:
  6108  005102  EF9A  F028         	goto	l5825
  6109  005106                     u4760:
  6110  005106  C522  F517         	movff	___flmul@prod,??___flmul
  6111  00510A  C523  F518         	movff	___flmul@prod+1,??___flmul+1
  6112  00510E  C524  F519         	movff	___flmul@prod+2,??___flmul+2
  6113  005112  C525  F51A         	movff	___flmul@prod+3,??___flmul+3
  6114  005116  341A               	rlcf	(??___flmul+3)^(0+1280),w,c
  6115  005118  321A               	rrcf	(??___flmul+3)^(0+1280),f,c
  6116  00511A  3219               	rrcf	(??___flmul+2)^(0+1280),f,c
  6117  00511C  3218               	rrcf	(??___flmul+1)^(0+1280),f,c
  6118  00511E  3217               	rrcf	??___flmul^(0+1280),f,c
  6119  005120  C517  F522         	movff	??___flmul,___flmul@prod
  6120  005124  C518  F523         	movff	??___flmul+1,___flmul@prod+1
  6121  005128  C519  F524         	movff	??___flmul+2,___flmul@prod+2
  6122  00512C  C51A  F525         	movff	??___flmul+3,___flmul@prod+3
  6123  005130  4A26               	infsnz	___flmul@temp^(0+1280),f,c
  6124  005132  2A27               	incf	(___flmul@temp+1)^(0+1280),f,c
  6125  005134                     l5825:
  6126  005134  BE27               	btfsc	(___flmul@temp+1)^(0+1280),7,c
  6127  005136  EFA5  F028         	goto	u4771
  6128  00513A  5027               	movf	(___flmul@temp+1)^(0+1280),w,c
  6129  00513C  E108               	bnz	u4770
  6130  00513E  2826               	incf	___flmul@temp^(0+1280),w,c
  6131  005140  A0D8               	btfss	status,0,c
  6132  005142  EFA5  F028         	goto	u4771
  6133  005146  EFA7  F028         	goto	u4770
  6134  00514A                     u4771:
  6135  00514A  EFB1  F028         	goto	l5829
  6136  00514E                     u4770:
  6137  00514E  0E00               	movlw	0
  6138  005150  6E22               	movwf	___flmul@prod^(0+1280),c
  6139  005152  0E00               	movlw	0
  6140  005154  6E23               	movwf	(___flmul@prod+1)^(0+1280),c
  6141  005156  0E80               	movlw	128
  6142  005158  6E24               	movwf	(___flmul@prod+2)^(0+1280),c
  6143  00515A  0E7F               	movlw	127
  6144  00515C  6E25               	movwf	(___flmul@prod+3)^(0+1280),c
  6145  00515E  EFDF  F028         	goto	l5841
  6146  005162                     l5829:
  6147  005162  BE27               	btfsc	(___flmul@temp+1)^(0+1280),7,c
  6148  005164  EFBE  F028         	goto	u4780
  6149  005168  5027               	movf	(___flmul@temp+1)^(0+1280),w,c
  6150  00516A  E106               	bnz	u4781
  6151  00516C  0426               	decf	___flmul@temp^(0+1280),w,c
  6152  00516E  B0D8               	btfsc	status,0,c
  6153  005170  EFBC  F028         	goto	u4781
  6154  005174  EFBE  F028         	goto	u4780
  6155  005178                     u4781:
  6156  005178  EFCA  F028         	goto	l1795
  6157  00517C                     u4780:
  6158  00517C  0E00               	movlw	0
  6159  00517E  6E22               	movwf	___flmul@prod^(0+1280),c
  6160  005180  0E00               	movlw	0
  6161  005182  6E23               	movwf	(___flmul@prod+1)^(0+1280),c
  6162  005184  0E00               	movlw	0
  6163  005186  6E24               	movwf	(___flmul@prod+2)^(0+1280),c
  6164  005188  0E00               	movlw	0
  6165  00518A  6E25               	movwf	(___flmul@prod+3)^(0+1280),c
  6166  00518C  0E00               	movlw	0
  6167  00518E  6E1B               	movwf	___flmul@sign^(0+1280),c
  6168  005190  EFDF  F028         	goto	l5841
  6169  005194                     l1795:
  6170  005194  C526  F521         	movff	___flmul@temp,___flmul@bexp
  6171  005198  0EFF               	movlw	255
  6172  00519A  1622               	andwf	___flmul@prod^(0+1280),f,c
  6173  00519C  0EFF               	movlw	255
  6174  00519E  1623               	andwf	(___flmul@prod+1)^(0+1280),f,c
  6175  0051A0  0E7F               	movlw	127
  6176  0051A2  1624               	andwf	(___flmul@prod+2)^(0+1280),f,c
  6177  0051A4  0E00               	movlw	0
  6178  0051A6  1625               	andwf	(___flmul@prod+3)^(0+1280),f,c
  6179  0051A8  A021               	btfss	___flmul@bexp^(0+1280),0,c
  6180  0051AA  EFD9  F028         	goto	u4791
  6181  0051AE  EFDB  F028         	goto	u4790
  6182  0051B2                     u4791:
  6183  0051B2  EFDC  F028         	goto	l5839
  6184  0051B6                     u4790:
  6185  0051B6  8E24               	bsf	(___flmul@prod+2)^(0+1280),7,c
  6186  0051B8                     l5839:
  6187  0051B8  90D8               	bcf	status,0,c
  6188  0051BA  3021               	rrcf	___flmul@bexp^(0+1280),w,c
  6189  0051BC  6E25               	movwf	(___flmul@prod+3)^(0+1280),c
  6190  0051BE                     l5841:
  6191  0051BE  501B               	movf	___flmul@sign^(0+1280),w,c
  6192  0051C0  1225               	iorwf	(___flmul@prod+3)^(0+1280),f,c
  6193  0051C2  C522  F50F         	movff	___flmul@prod,?___flmul
  6194  0051C6  C523  F510         	movff	___flmul@prod+1,?___flmul+1
  6195  0051CA  C524  F511         	movff	___flmul@prod+2,?___flmul+2
  6196  0051CE  C525  F512         	movff	___flmul@prod+3,?___flmul+3
  6197  0051D2                     l1782:
  6198  0051D2  0012               	return		;funcret
  6199  0051D4                     __end_of___flmul:
  6200                           	callstack 0
  6201                           
  6202 ;; *************** function ___flge *****************
  6203 ;; Defined at:
  6204 ;;		line 4 in file "C:\Program Files\Microchip\xc8\v2.32\pic\sources\c99\common\flge.c"
  6205 ;; Parameters:    Size  Location     Type
  6206 ;;  ff1             4   39[COMRAM] unsigned char 
  6207 ;;  ff2             4   43[COMRAM] unsigned char 
  6208 ;; Auto vars:     Size  Location     Type
  6209 ;;		None
  6210 ;; Return value:  Size  Location     Type
  6211 ;;		None               void
  6212 ;; Registers used:
  6213 ;;		wreg, status,2, status,0
  6214 ;; Tracked objects:
  6215 ;;		On entry : 0/0
  6216 ;;		On exit  : 0/0
  6217 ;;		Unchanged: 0/0
  6218 ;; Data sizes:     COMRAM   BANK5   BANK6   BANK7   BANK8   BANK9  BANK10  BANK11  BANK12  BANK13  BANK14  BANK15  BANK1
      +6  BANK17  BANK18  BANK19  BANK20  BANK21  BANK22  BANK23  BANK24  BANK25  BANK26  BANK27  BANK28  BANK29  BANK30  BANK3
      +1  BANK32  BANK33  BANK34  BANK35  BANK36  BANK37  BANK38  BANK39  BANK40  BANK41  BANK42  BANK43  BANK44  BANK45  BANK4
      +6  BANK47  BANK48  BANK49  BANK50  BANK51  BANK52  BANK53  BANK54
  6219 ;;      Params:         8       0       0       0       0       0       0       0       0       0       0       0       
      +0       0       0       0       0       0       0       0       0       0       0       0       0       0       0       
      +0       0       0       0       0       0       0       0       0       0       0       0       0       0       0       
      +0       0       0       0       0       0       0       0       0
  6220 ;;      Locals:         0       0       0       0       0       0       0       0       0       0       0       0       
      +0       0       0       0       0       0       0       0       0       0       0       0       0       0       0       
      +0       0       0       0       0       0       0       0       0       0       0       0       0       0       0       
      +0       0       0       0       0       0       0       0       0
  6221 ;;      Temps:          4       0       0       0       0       0       0       0       0       0       0       0       
      +0       0       0       0       0       0       0       0       0       0       0       0       0       0       0       
      +0       0       0       0       0       0       0       0       0       0       0       0       0       0       0       
      +0       0       0       0       0       0       0       0       0
  6222 ;;      Totals:        12       0       0       0       0       0       0       0       0       0       0       0       
      +0       0       0       0       0       0       0       0       0       0       0       0       0       0       0       
      +0       0       0       0       0       0       0       0       0       0       0       0       0       0       0       
      +0       0       0       0       0       0       0       0       0
  6223 ;;Total ram usage:       12 bytes
  6224 ;; Hardware stack levels used: 1
  6225 ;; This function calls:
  6226 ;;		Nothing
  6227 ;; This function is called by:
  6228 ;;		_efgtoa
  6229 ;; This function uses a non-reentrant model
  6230 ;;
  6231                           
  6232                           	psect	text17
  6233  00615A                     __ptext17:
  6234                           	callstack 0
  6235  00615A                     ___flge:
  6236                           	callstack 122
  6237  00615A  0E00               	movlw	0
  6238  00615C  1428               	andwf	___flge@ff1^(0+1280),w,c
  6239  00615E  6E30               	movwf	??___flge^(0+1280),c
  6240  006160  0E00               	movlw	0
  6241  006162  1429               	andwf	(___flge@ff1+1)^(0+1280),w,c
  6242  006164  6E31               	movwf	(??___flge+1)^(0+1280),c
  6243  006166  0E80               	movlw	128
  6244  006168  142A               	andwf	(___flge@ff1+2)^(0+1280),w,c
  6245  00616A  6E32               	movwf	(??___flge+2)^(0+1280),c
  6246  00616C  0E7F               	movlw	127
  6247  00616E  142B               	andwf	(___flge@ff1+3)^(0+1280),w,c
  6248  006170  6E33               	movwf	(??___flge+3)^(0+1280),c
  6249  006172  5030               	movf	??___flge^(0+1280),w,c
  6250  006174  1031               	iorwf	(??___flge+1)^(0+1280),w,c
  6251  006176  1032               	iorwf	(??___flge+2)^(0+1280),w,c
  6252  006178  1033               	iorwf	(??___flge+3)^(0+1280),w,c
  6253  00617A  A4D8               	btfss	status,2,c
  6254  00617C  EFC2  F030         	goto	u4951
  6255  006180  EFC4  F030         	goto	u4950
  6256  006184                     u4951:
  6257  006184  EFCC  F030         	goto	l5953
  6258  006188                     u4950:
  6259  006188  0E00               	movlw	0
  6260  00618A  6E28               	movwf	___flge@ff1^(0+1280),c
  6261  00618C  0E00               	movlw	0
  6262  00618E  6E29               	movwf	(___flge@ff1+1)^(0+1280),c
  6263  006190  0E00               	movlw	0
  6264  006192  6E2A               	movwf	(___flge@ff1+2)^(0+1280),c
  6265  006194  0E00               	movlw	0
  6266  006196  6E2B               	movwf	(___flge@ff1+3)^(0+1280),c
  6267  006198                     l5953:
  6268  006198  0E00               	movlw	0
  6269  00619A  142C               	andwf	___flge@ff2^(0+1280),w,c
  6270  00619C  6E30               	movwf	??___flge^(0+1280),c
  6271  00619E  0E00               	movlw	0
  6272  0061A0  142D               	andwf	(___flge@ff2+1)^(0+1280),w,c
  6273  0061A2  6E31               	movwf	(??___flge+1)^(0+1280),c
  6274  0061A4  0E80               	movlw	128
  6275  0061A6  142E               	andwf	(___flge@ff2+2)^(0+1280),w,c
  6276  0061A8  6E32               	movwf	(??___flge+2)^(0+1280),c
  6277  0061AA  0E7F               	movlw	127
  6278  0061AC  142F               	andwf	(___flge@ff2+3)^(0+1280),w,c
  6279  0061AE  6E33               	movwf	(??___flge+3)^(0+1280),c
  6280  0061B0  5030               	movf	??___flge^(0+1280),w,c
  6281  0061B2  1031               	iorwf	(??___flge+1)^(0+1280),w,c
  6282  0061B4  1032               	iorwf	(??___flge+2)^(0+1280),w,c
  6283  0061B6  1033               	iorwf	(??___flge+3)^(0+1280),w,c
  6284  0061B8  A4D8               	btfss	status,2,c
  6285  0061BA  EFE1  F030         	goto	u4961
  6286  0061BE  EFE3  F030         	goto	u4960
  6287  0061C2                     u4961:
  6288  0061C2  EFEB  F030         	goto	l5957
  6289  0061C6                     u4960:
  6290  0061C6  0E00               	movlw	0
  6291  0061C8  6E2C               	movwf	___flge@ff2^(0+1280),c
  6292  0061CA  0E00               	movlw	0
  6293  0061CC  6E2D               	movwf	(___flge@ff2+1)^(0+1280),c
  6294  0061CE  0E00               	movlw	0
  6295  0061D0  6E2E               	movwf	(___flge@ff2+2)^(0+1280),c
  6296  0061D2  0E00               	movlw	0
  6297  0061D4  6E2F               	movwf	(___flge@ff2+3)^(0+1280),c
  6298  0061D6                     l5957:
  6299  0061D6  AE2B               	btfss	(___flge@ff1+3)^(0+1280),7,c
  6300  0061D8  EFF0  F030         	goto	u4971
  6301  0061DC  EFF2  F030         	goto	u4970
  6302  0061E0                     u4971:
  6303  0061E0  EFFB  F030         	goto	l5961
  6304  0061E4                     u4970:
  6305  0061E4  6C28               	negf	___flge@ff1^(0+1280),c
  6306  0061E6  1E29               	comf	(___flge@ff1+1)^(0+1280),f,c
  6307  0061E8  B0D8               	btfsc	status,0,c
  6308  0061EA  2A29               	incf	(___flge@ff1+1)^(0+1280),f,c
  6309  0061EC  1E2A               	comf	(___flge@ff1+2)^(0+1280),f,c
  6310  0061EE  B0D8               	btfsc	status,0,c
  6311  0061F0  2A2A               	incf	(___flge@ff1+2)^(0+1280),f,c
  6312  0061F2  0E80               	movlw	128
  6313  0061F4  562B               	subfwb	(___flge@ff1+3)^(0+1280),f,c
  6314  0061F6                     l5961:
  6315  0061F6  AE2F               	btfss	(___flge@ff2+3)^(0+1280),7,c
  6316  0061F8  EF00  F031         	goto	u4981
  6317  0061FC  EF02  F031         	goto	u4980
  6318  006200                     u4981:
  6319  006200  EF0B  F031         	goto	l1429
  6320  006204                     u4980:
  6321  006204  6C2C               	negf	___flge@ff2^(0+1280),c
  6322  006206  1E2D               	comf	(___flge@ff2+1)^(0+1280),f,c
  6323  006208  B0D8               	btfsc	status,0,c
  6324  00620A  2A2D               	incf	(___flge@ff2+1)^(0+1280),f,c
  6325  00620C  1E2E               	comf	(___flge@ff2+2)^(0+1280),f,c
  6326  00620E  B0D8               	btfsc	status,0,c
  6327  006210  2A2E               	incf	(___flge@ff2+2)^(0+1280),f,c
  6328  006212  0E80               	movlw	128
  6329  006214  562F               	subfwb	(___flge@ff2+3)^(0+1280),f,c
  6330  006216                     l1429:
  6331  006216  0E00               	movlw	0
  6332  006218  1A28               	xorwf	___flge@ff1^(0+1280),f,c
  6333  00621A  0E00               	movlw	0
  6334  00621C  1A29               	xorwf	(___flge@ff1+1)^(0+1280),f,c
  6335  00621E  0E00               	movlw	0
  6336  006220  1A2A               	xorwf	(___flge@ff1+2)^(0+1280),f,c
  6337  006222  0E80               	movlw	128
  6338  006224  1A2B               	xorwf	(___flge@ff1+3)^(0+1280),f,c
  6339  006226  0E00               	movlw	0
  6340  006228  1A2C               	xorwf	___flge@ff2^(0+1280),f,c
  6341  00622A  0E00               	movlw	0
  6342  00622C  1A2D               	xorwf	(___flge@ff2+1)^(0+1280),f,c
  6343  00622E  0E00               	movlw	0
  6344  006230  1A2E               	xorwf	(___flge@ff2+2)^(0+1280),f,c
  6345  006232  0E80               	movlw	128
  6346  006234  1A2F               	xorwf	(___flge@ff2+3)^(0+1280),f,c
  6347  006236  502C               	movf	___flge@ff2^(0+1280),w,c
  6348  006238  5C28               	subwf	___flge@ff1^(0+1280),w,c
  6349  00623A  502D               	movf	(___flge@ff2+1)^(0+1280),w,c
  6350  00623C  5829               	subwfb	(___flge@ff1+1)^(0+1280),w,c
  6351  00623E  502E               	movf	(___flge@ff2+2)^(0+1280),w,c
  6352  006240  582A               	subwfb	(___flge@ff1+2)^(0+1280),w,c
  6353  006242  502F               	movf	(___flge@ff2+3)^(0+1280),w,c
  6354  006244  582B               	subwfb	(___flge@ff1+3)^(0+1280),w,c
  6355  006246  B0D8               	btfsc	status,0,c
  6356  006248  EF28  F031         	goto	u4991
  6357  00624C  EF2A  F031         	goto	u4990
  6358  006250                     u4991:
  6359  006250  EF2D  F031         	goto	l5967
  6360  006254                     u4990:
  6361  006254  90D8               	bcf	status,0,c
  6362  006256  EF2E  F031         	goto	l1434
  6363  00625A                     l5967:
  6364  00625A  80D8               	bsf	status,0,c
  6365  00625C                     l1434:
  6366  00625C  0012               	return		;funcret
  6367  00625E                     __end_of___flge:
  6368                           	callstack 0
  6369                           
  6370 ;; *************** function ___fleq *****************
  6371 ;; Defined at:
  6372 ;;		line 4 in file "C:\Program Files\Microchip\xc8\v2.32\pic\sources\c99\common\fleq.c"
  6373 ;; Parameters:    Size  Location     Type
  6374 ;;  ff1             4    0[COMRAM] unsigned char 
  6375 ;;  ff2             4    4[COMRAM] unsigned char 
  6376 ;; Auto vars:     Size  Location     Type
  6377 ;;		None
  6378 ;; Return value:  Size  Location     Type
  6379 ;;		None               void
  6380 ;; Registers used:
  6381 ;;		wreg, status,2, status,0
  6382 ;; Tracked objects:
  6383 ;;		On entry : 0/0
  6384 ;;		On exit  : 0/0
  6385 ;;		Unchanged: 0/0
  6386 ;; Data sizes:     COMRAM   BANK5   BANK6   BANK7   BANK8   BANK9  BANK10  BANK11  BANK12  BANK13  BANK14  BANK15  BANK1
      +6  BANK17  BANK18  BANK19  BANK20  BANK21  BANK22  BANK23  BANK24  BANK25  BANK26  BANK27  BANK28  BANK29  BANK30  BANK3
      +1  BANK32  BANK33  BANK34  BANK35  BANK36  BANK37  BANK38  BANK39  BANK40  BANK41  BANK42  BANK43  BANK44  BANK45  BANK4
      +6  BANK47  BANK48  BANK49  BANK50  BANK51  BANK52  BANK53  BANK54
  6387 ;;      Params:         8       0       0       0       0       0       0       0       0       0       0       0       
      +0       0       0       0       0       0       0       0       0       0       0       0       0       0       0       
      +0       0       0       0       0       0       0       0       0       0       0       0       0       0       0       
      +0       0       0       0       0       0       0       0       0
  6388 ;;      Locals:         0       0       0       0       0       0       0       0       0       0       0       0       
      +0       0       0       0       0       0       0       0       0       0       0       0       0       0       0       
      +0       0       0       0       0       0       0       0       0       0       0       0       0       0       0       
      +0       0       0       0       0       0       0       0       0
  6389 ;;      Temps:          4       0       0       0       0       0       0       0       0       0       0       0       
      +0       0       0       0       0       0       0       0       0       0       0       0       0       0       0       
      +0       0       0       0       0       0       0       0       0       0       0       0       0       0       0       
      +0       0       0       0       0       0       0       0       0
  6390 ;;      Totals:        12       0       0       0       0       0       0       0       0       0       0       0       
      +0       0       0       0       0       0       0       0       0       0       0       0       0       0       0       
      +0       0       0       0       0       0       0       0       0       0       0       0       0       0       0       
      +0       0       0       0       0       0       0       0       0
  6391 ;;Total ram usage:       12 bytes
  6392 ;; Hardware stack levels used: 1
  6393 ;; This function calls:
  6394 ;;		Nothing
  6395 ;; This function is called by:
  6396 ;;		_efgtoa
  6397 ;; This function uses a non-reentrant model
  6398 ;;
  6399                           
  6400                           	psect	text18
  6401  0068CC                     __ptext18:
  6402                           	callstack 0
  6403  0068CC                     ___fleq:
  6404                           	callstack 122
  6405  0068CC  0E00               	movlw	0
  6406  0068CE  1401               	andwf	___fleq@ff1^(0+1280),w,c
  6407  0068D0  6E09               	movwf	??___fleq^(0+1280),c
  6408  0068D2  0E00               	movlw	0
  6409  0068D4  1402               	andwf	(___fleq@ff1+1)^(0+1280),w,c
  6410  0068D6  6E0A               	movwf	(??___fleq+1)^(0+1280),c
  6411  0068D8  0E80               	movlw	128
  6412  0068DA  1403               	andwf	(___fleq@ff1+2)^(0+1280),w,c
  6413  0068DC  6E0B               	movwf	(??___fleq+2)^(0+1280),c
  6414  0068DE  0E7F               	movlw	127
  6415  0068E0  1404               	andwf	(___fleq@ff1+3)^(0+1280),w,c
  6416  0068E2  6E0C               	movwf	(??___fleq+3)^(0+1280),c
  6417  0068E4  5009               	movf	??___fleq^(0+1280),w,c
  6418  0068E6  100A               	iorwf	(??___fleq+1)^(0+1280),w,c
  6419  0068E8  100B               	iorwf	(??___fleq+2)^(0+1280),w,c
  6420  0068EA  100C               	iorwf	(??___fleq+3)^(0+1280),w,c
  6421  0068EC  A4D8               	btfss	status,2,c
  6422  0068EE  EF7B  F034         	goto	u4921
  6423  0068F2  EF7D  F034         	goto	u4920
  6424  0068F6                     u4921:
  6425  0068F6  EF85  F034         	goto	l5937
  6426  0068FA                     u4920:
  6427  0068FA  0E00               	movlw	0
  6428  0068FC  6E01               	movwf	___fleq@ff1^(0+1280),c
  6429  0068FE  0E00               	movlw	0
  6430  006900  6E02               	movwf	(___fleq@ff1+1)^(0+1280),c
  6431  006902  0E00               	movlw	0
  6432  006904  6E03               	movwf	(___fleq@ff1+2)^(0+1280),c
  6433  006906  0E00               	movlw	0
  6434  006908  6E04               	movwf	(___fleq@ff1+3)^(0+1280),c
  6435  00690A                     l5937:
  6436  00690A  0E00               	movlw	0
  6437  00690C  1405               	andwf	___fleq@ff2^(0+1280),w,c
  6438  00690E  6E09               	movwf	??___fleq^(0+1280),c
  6439  006910  0E00               	movlw	0
  6440  006912  1406               	andwf	(___fleq@ff2+1)^(0+1280),w,c
  6441  006914  6E0A               	movwf	(??___fleq+1)^(0+1280),c
  6442  006916  0E80               	movlw	128
  6443  006918  1407               	andwf	(___fleq@ff2+2)^(0+1280),w,c
  6444  00691A  6E0B               	movwf	(??___fleq+2)^(0+1280),c
  6445  00691C  0E7F               	movlw	127
  6446  00691E  1408               	andwf	(___fleq@ff2+3)^(0+1280),w,c
  6447  006920  6E0C               	movwf	(??___fleq+3)^(0+1280),c
  6448  006922  5009               	movf	??___fleq^(0+1280),w,c
  6449  006924  100A               	iorwf	(??___fleq+1)^(0+1280),w,c
  6450  006926  100B               	iorwf	(??___fleq+2)^(0+1280),w,c
  6451  006928  100C               	iorwf	(??___fleq+3)^(0+1280),w,c
  6452  00692A  A4D8               	btfss	status,2,c
  6453  00692C  EF9A  F034         	goto	u4931
  6454  006930  EF9C  F034         	goto	u4930
  6455  006934                     u4931:
  6456  006934  EFA4  F034         	goto	l5941
  6457  006938                     u4930:
  6458  006938  0E00               	movlw	0
  6459  00693A  6E05               	movwf	___fleq@ff2^(0+1280),c
  6460  00693C  0E00               	movlw	0
  6461  00693E  6E06               	movwf	(___fleq@ff2+1)^(0+1280),c
  6462  006940  0E00               	movlw	0
  6463  006942  6E07               	movwf	(___fleq@ff2+2)^(0+1280),c
  6464  006944  0E00               	movlw	0
  6465  006946  6E08               	movwf	(___fleq@ff2+3)^(0+1280),c
  6466  006948                     l5941:
  6467  006948  5005               	movf	___fleq@ff2^(0+1280),w,c
  6468  00694A  1801               	xorwf	___fleq@ff1^(0+1280),w,c
  6469  00694C  E10F               	bnz	u4940
  6470  00694E  5006               	movf	(___fleq@ff2+1)^(0+1280),w,c
  6471  006950  1802               	xorwf	(___fleq@ff1+1)^(0+1280),w,c
  6472  006952  E10C               	bnz	u4940
  6473  006954  5007               	movf	(___fleq@ff2+2)^(0+1280),w,c
  6474  006956  1803               	xorwf	(___fleq@ff1+2)^(0+1280),w,c
  6475  006958  E109               	bnz	u4940
  6476  00695A  5008               	movf	(___fleq@ff2+3)^(0+1280),w,c
  6477  00695C  1804               	xorwf	(___fleq@ff1+3)^(0+1280),w,c
  6478  00695E  B4D8               	btfsc	status,2,c
  6479  006960  EFB4  F034         	goto	u4941
  6480  006964  EFB6  F034         	goto	u4940
  6481  006968                     u4941:
  6482  006968  EFB9  F034         	goto	l5945
  6483  00696C                     u4940:
  6484  00696C  90D8               	bcf	status,0,c
  6485  00696E  EFBA  F034         	goto	l1423
  6486  006972                     l5945:
  6487  006972  80D8               	bsf	status,0,c
  6488  006974                     l1423:
  6489  006974  0012               	return		;funcret
  6490  006976                     __end_of___fleq:
  6491                           	callstack 0
  6492                           
  6493 ;; *************** function ___fldiv *****************
  6494 ;; Defined at:
  6495 ;;		line 11 in file "C:\Program Files\Microchip\xc8\v2.32\pic\sources\c99\common\sprcdiv.c"
  6496 ;; Parameters:    Size  Location     Type
  6497 ;;  b               4    0[COMRAM] unsigned char 
  6498 ;;  a               4    4[COMRAM] unsigned char 
  6499 ;; Auto vars:     Size  Location     Type
  6500 ;;  grs             4   19[COMRAM] unsigned long 
  6501 ;;  rem             4   12[COMRAM] unsigned long 
  6502 ;;  new_exp         2   17[COMRAM] short 
  6503 ;;  aexp            1   24[COMRAM] unsigned char 
  6504 ;;  bexp            1   23[COMRAM] unsigned char 
  6505 ;;  sign            1   16[COMRAM] unsigned char 
  6506 ;; Return value:  Size  Location     Type
  6507 ;;                  4    0[COMRAM] unsigned char 
  6508 ;; Registers used:
  6509 ;;		wreg, status,2, status,0
  6510 ;; Tracked objects:
  6511 ;;		On entry : 0/0
  6512 ;;		On exit  : 0/0
  6513 ;;		Unchanged: 0/0
  6514 ;; Data sizes:     COMRAM   BANK5   BANK6   BANK7   BANK8   BANK9  BANK10  BANK11  BANK12  BANK13  BANK14  BANK15  BANK1
      +6  BANK17  BANK18  BANK19  BANK20  BANK21  BANK22  BANK23  BANK24  BANK25  BANK26  BANK27  BANK28  BANK29  BANK30  BANK3
      +1  BANK32  BANK33  BANK34  BANK35  BANK36  BANK37  BANK38  BANK39  BANK40  BANK41  BANK42  BANK43  BANK44  BANK45  BANK4
      +6  BANK47  BANK48  BANK49  BANK50  BANK51  BANK52  BANK53  BANK54
  6515 ;;      Params:         8       0       0       0       0       0       0       0       0       0       0       0       
      +0       0       0       0       0       0       0       0       0       0       0       0       0       0       0       
      +0       0       0       0       0       0       0       0       0       0       0       0       0       0       0       
      +0       0       0       0       0       0       0       0       0
  6516 ;;      Locals:        13       0       0       0       0       0       0       0       0       0       0       0       
      +0       0       0       0       0       0       0       0       0       0       0       0       0       0       0       
      +0       0       0       0       0       0       0       0       0       0       0       0       0       0       0       
      +0       0       0       0       0       0       0       0       0
  6517 ;;      Temps:          4       0       0       0       0       0       0       0       0       0       0       0       
      +0       0       0       0       0       0       0       0       0       0       0       0       0       0       0       
      +0       0       0       0       0       0       0       0       0       0       0       0       0       0       0       
      +0       0       0       0       0       0       0       0       0
  6518 ;;      Totals:        25       0       0       0       0       0       0       0       0       0       0       0       
      +0       0       0       0       0       0       0       0       0       0       0       0       0       0       0       
      +0       0       0       0       0       0       0       0       0       0       0       0       0       0       0       
      +0       0       0       0       0       0       0       0       0
  6519 ;;Total ram usage:       25 bytes
  6520 ;; Hardware stack levels used: 1
  6521 ;; This function calls:
  6522 ;;		Nothing
  6523 ;; This function is called by:
  6524 ;;		_main
  6525 ;;		_efgtoa
  6526 ;; This function uses a non-reentrant model
  6527 ;;
  6528                           
  6529                           	psect	text19
  6530  0051D4                     __ptext19:
  6531                           	callstack 0
  6532  0051D4                     ___fldiv:
  6533                           	callstack 122
  6534  0051D4  5004               	movf	(___fldiv@b+3)^(0+1280),w,c
  6535  0051D6  0B80               	andlw	128
  6536  0051D8  6E11               	movwf	___fldiv@sign^(0+1280),c
  6537  0051DA  5004               	movf	(___fldiv@b+3)^(0+1280),w,c
  6538  0051DC  2404               	addwf	(___fldiv@b+3)^(0+1280),w,c
  6539  0051DE  6E18               	movwf	___fldiv@bexp^(0+1280),c
  6540  0051E0  AE03               	btfss	(___fldiv@b+2)^(0+1280),7,c
  6541  0051E2  EFF5  F028         	goto	u4381
  6542  0051E6  EFF7  F028         	goto	u4380
  6543  0051EA                     u4381:
  6544  0051EA  EFF8  F028         	goto	l5585
  6545  0051EE                     u4380:
  6546  0051EE  8018               	bsf	___fldiv@bexp^(0+1280),0,c
  6547  0051F0                     l5585:
  6548  0051F0  5018               	movf	___fldiv@bexp^(0+1280),w,c
  6549  0051F2  B4D8               	btfsc	status,2,c
  6550  0051F4  EFFE  F028         	goto	u4391
  6551  0051F8  EF00  F029         	goto	u4390
  6552  0051FC                     u4391:
  6553  0051FC  EF15  F029         	goto	l5595
  6554  005200                     u4390:
  6555  005200  2818               	incf	___fldiv@bexp^(0+1280),w,c
  6556  005202  A4D8               	btfss	status,2,c
  6557  005204  EF06  F029         	goto	u4401
  6558  005208  EF08  F029         	goto	u4400
  6559  00520C                     u4401:
  6560  00520C  EF10  F029         	goto	l5591
  6561  005210                     u4400:
  6562  005210  0E00               	movlw	0
  6563  005212  6E01               	movwf	___fldiv@b^(0+1280),c
  6564  005214  0E00               	movlw	0
  6565  005216  6E02               	movwf	(___fldiv@b+1)^(0+1280),c
  6566  005218  0E00               	movlw	0
  6567  00521A  6E03               	movwf	(___fldiv@b+2)^(0+1280),c
  6568  00521C  0E00               	movlw	0
  6569  00521E  6E04               	movwf	(___fldiv@b+3)^(0+1280),c
  6570  005220                     l5591:
  6571  005220  8E03               	bsf	(___fldiv@b+2)^(0+1280),7,c
  6572  005222  0E00               	movlw	0
  6573  005224  6E04               	movwf	(___fldiv@b+3)^(0+1280),c
  6574  005226  EF1D  F029         	goto	l5597
  6575  00522A                     l5595:
  6576  00522A  0E00               	movlw	0
  6577  00522C  6E01               	movwf	___fldiv@b^(0+1280),c
  6578  00522E  0E00               	movlw	0
  6579  005230  6E02               	movwf	(___fldiv@b+1)^(0+1280),c
  6580  005232  0E00               	movlw	0
  6581  005234  6E03               	movwf	(___fldiv@b+2)^(0+1280),c
  6582  005236  0E00               	movlw	0
  6583  005238  6E04               	movwf	(___fldiv@b+3)^(0+1280),c
  6584  00523A                     l5597:
  6585  00523A  5008               	movf	(___fldiv@a+3)^(0+1280),w,c
  6586  00523C  0B80               	andlw	128
  6587  00523E  1A11               	xorwf	___fldiv@sign^(0+1280),f,c
  6588  005240  5008               	movf	(___fldiv@a+3)^(0+1280),w,c
  6589  005242  2408               	addwf	(___fldiv@a+3)^(0+1280),w,c
  6590  005244  6E19               	movwf	___fldiv@aexp^(0+1280),c
  6591  005246  AE07               	btfss	(___fldiv@a+2)^(0+1280),7,c
  6592  005248  EF28  F029         	goto	u4411
  6593  00524C  EF2A  F029         	goto	u4410
  6594  005250                     u4411:
  6595  005250  EF2B  F029         	goto	l5605
  6596  005254                     u4410:
  6597  005254  8019               	bsf	___fldiv@aexp^(0+1280),0,c
  6598  005256                     l5605:
  6599  005256  5019               	movf	___fldiv@aexp^(0+1280),w,c
  6600  005258  B4D8               	btfsc	status,2,c
  6601  00525A  EF31  F029         	goto	u4421
  6602  00525E  EF33  F029         	goto	u4420
  6603  005262                     u4421:
  6604  005262  EF48  F029         	goto	l5615
  6605  005266                     u4420:
  6606  005266  2819               	incf	___fldiv@aexp^(0+1280),w,c
  6607  005268  A4D8               	btfss	status,2,c
  6608  00526A  EF39  F029         	goto	u4431
  6609  00526E  EF3B  F029         	goto	u4430
  6610  005272                     u4431:
  6611  005272  EF43  F029         	goto	l5611
  6612  005276                     u4430:
  6613  005276  0E00               	movlw	0
  6614  005278  6E05               	movwf	___fldiv@a^(0+1280),c
  6615  00527A  0E00               	movlw	0
  6616  00527C  6E06               	movwf	(___fldiv@a+1)^(0+1280),c
  6617  00527E  0E00               	movlw	0
  6618  005280  6E07               	movwf	(___fldiv@a+2)^(0+1280),c
  6619  005282  0E00               	movlw	0
  6620  005284  6E08               	movwf	(___fldiv@a+3)^(0+1280),c
  6621  005286                     l5611:
  6622  005286  8E07               	bsf	(___fldiv@a+2)^(0+1280),7,c
  6623  005288  0E00               	movlw	0
  6624  00528A  6E08               	movwf	(___fldiv@a+3)^(0+1280),c
  6625  00528C  EF50  F029         	goto	l5617
  6626  005290                     l5615:
  6627  005290  0E00               	movlw	0
  6628  005292  6E05               	movwf	___fldiv@a^(0+1280),c
  6629  005294  0E00               	movlw	0
  6630  005296  6E06               	movwf	(___fldiv@a+1)^(0+1280),c
  6631  005298  0E00               	movlw	0
  6632  00529A  6E07               	movwf	(___fldiv@a+2)^(0+1280),c
  6633  00529C  0E00               	movlw	0
  6634  00529E  6E08               	movwf	(___fldiv@a+3)^(0+1280),c
  6635  0052A0                     l5617:
  6636  0052A0  5005               	movf	___fldiv@a^(0+1280),w,c
  6637  0052A2  1006               	iorwf	(___fldiv@a+1)^(0+1280),w,c
  6638  0052A4  1007               	iorwf	(___fldiv@a+2)^(0+1280),w,c
  6639  0052A6  1008               	iorwf	(___fldiv@a+3)^(0+1280),w,c
  6640  0052A8  A4D8               	btfss	status,2,c
  6641  0052AA  EF59  F029         	goto	u4441
  6642  0052AE  EF5B  F029         	goto	u4440
  6643  0052B2                     u4441:
  6644  0052B2  EF73  F029         	goto	l5629
  6645  0052B6                     u4440:
  6646  0052B6  0E00               	movlw	0
  6647  0052B8  6E01               	movwf	___fldiv@b^(0+1280),c
  6648  0052BA  0E00               	movlw	0
  6649  0052BC  6E02               	movwf	(___fldiv@b+1)^(0+1280),c
  6650  0052BE  0E00               	movlw	0
  6651  0052C0  6E03               	movwf	(___fldiv@b+2)^(0+1280),c
  6652  0052C2  0E00               	movlw	0
  6653  0052C4  6E04               	movwf	(___fldiv@b+3)^(0+1280),c
  6654  0052C6  0E80               	movlw	128
  6655  0052C8  1203               	iorwf	(___fldiv@b+2)^(0+1280),f,c
  6656  0052CA  0E7F               	movlw	127
  6657  0052CC  1204               	iorwf	(___fldiv@b+3)^(0+1280),f,c
  6658  0052CE                     l5623:
  6659  0052CE  5011               	movf	___fldiv@sign^(0+1280),w,c
  6660  0052D0  1204               	iorwf	(___fldiv@b+3)^(0+1280),f,c
  6661  0052D2  C501  F501         	movff	___fldiv@b,?___fldiv
  6662  0052D6  C502  F502         	movff	___fldiv@b+1,?___fldiv+1
  6663  0052DA  C503  F503         	movff	___fldiv@b+2,?___fldiv+2
  6664  0052DE  C504  F504         	movff	___fldiv@b+3,?___fldiv+3
  6665  0052E2  EFB6  F02A         	goto	l1746
  6666  0052E6                     l5629:
  6667  0052E6  5018               	movf	___fldiv@bexp^(0+1280),w,c
  6668  0052E8  A4D8               	btfss	status,2,c
  6669  0052EA  EF79  F029         	goto	u4451
  6670  0052EE  EF7B  F029         	goto	u4450
  6671  0052F2                     u4451:
  6672  0052F2  EF85  F029         	goto	l5637
  6673  0052F6                     u4450:
  6674  0052F6  0E00               	movlw	0
  6675  0052F8  6E01               	movwf	?___fldiv^(0+1280),c
  6676  0052FA  0E00               	movlw	0
  6677  0052FC  6E02               	movwf	(?___fldiv+1)^(0+1280),c
  6678  0052FE  0E00               	movlw	0
  6679  005300  6E03               	movwf	(?___fldiv+2)^(0+1280),c
  6680  005302  0E00               	movlw	0
  6681  005304  6E04               	movwf	(?___fldiv+3)^(0+1280),c
  6682  005306  EFB6  F02A         	goto	l1746
  6683  00530A                     l5637:
  6684  00530A  5019               	movf	___fldiv@aexp^(0+1280),w,c
  6685  00530C  C518  F509         	movff	___fldiv@bexp,??___fldiv
  6686  005310  6A0A               	clrf	(??___fldiv+1)^(0+1280),c
  6687  005312  5E09               	subwf	??___fldiv^(0+1280),f,c
  6688  005314  0E00               	movlw	0
  6689  005316  5A0A               	subwfb	(??___fldiv+1)^(0+1280),f,c
  6690  005318  0E7F               	movlw	127
  6691  00531A  2409               	addwf	??___fldiv^(0+1280),w,c
  6692  00531C  6E12               	movwf	___fldiv@new_exp^(0+1280),c
  6693  00531E  0E00               	movlw	0
  6694  005320  200A               	addwfc	(??___fldiv+1)^(0+1280),w,c
  6695  005322  6E13               	movwf	(___fldiv@new_exp+1)^(0+1280),c
  6696  005324  C501  F50D         	movff	___fldiv@b,___fldiv@rem
  6697  005328  C502  F50E         	movff	___fldiv@b+1,___fldiv@rem+1
  6698  00532C  C503  F50F         	movff	___fldiv@b+2,___fldiv@rem+2
  6699  005330  C504  F510         	movff	___fldiv@b+3,___fldiv@rem+3
  6700  005334  0E00               	movlw	0
  6701  005336  6E01               	movwf	___fldiv@b^(0+1280),c
  6702  005338  0E00               	movlw	0
  6703  00533A  6E02               	movwf	(___fldiv@b+1)^(0+1280),c
  6704  00533C  0E00               	movlw	0
  6705  00533E  6E03               	movwf	(___fldiv@b+2)^(0+1280),c
  6706  005340  0E00               	movlw	0
  6707  005342  6E04               	movwf	(___fldiv@b+3)^(0+1280),c
  6708  005344  0E00               	movlw	0
  6709  005346  6E14               	movwf	___fldiv@grs^(0+1280),c
  6710  005348  0E00               	movlw	0
  6711  00534A  6E15               	movwf	(___fldiv@grs+1)^(0+1280),c
  6712  00534C  0E00               	movlw	0
  6713  00534E  6E16               	movwf	(___fldiv@grs+2)^(0+1280),c
  6714  005350  0E00               	movlw	0
  6715  005352  6E17               	movwf	(___fldiv@grs+3)^(0+1280),c
  6716  005354  0E00               	movlw	0
  6717  005356  6E19               	movwf	___fldiv@aexp^(0+1280),c
  6718  005358  EFE6  F029         	goto	l1748
  6719  00535C                     l5647:
  6720  00535C  5019               	movf	___fldiv@aexp^(0+1280),w,c
  6721  00535E  B4D8               	btfsc	status,2,c
  6722  005360  EFB4  F029         	goto	u4461
  6723  005364  EFB6  F029         	goto	u4460
  6724  005368                     u4461:
  6725  005368  EFCD  F029         	goto	l5655
  6726  00536C                     u4460:
  6727  00536C  90D8               	bcf	status,0,c
  6728  00536E  360D               	rlcf	___fldiv@rem^(0+1280),f,c
  6729  005370  360E               	rlcf	(___fldiv@rem+1)^(0+1280),f,c
  6730  005372  360F               	rlcf	(___fldiv@rem+2)^(0+1280),f,c
  6731  005374  3610               	rlcf	(___fldiv@rem+3)^(0+1280),f,c
  6732  005376  90D8               	bcf	status,0,c
  6733  005378  3601               	rlcf	___fldiv@b^(0+1280),f,c
  6734  00537A  3602               	rlcf	(___fldiv@b+1)^(0+1280),f,c
  6735  00537C  3603               	rlcf	(___fldiv@b+2)^(0+1280),f,c
  6736  00537E  3604               	rlcf	(___fldiv@b+3)^(0+1280),f,c
  6737  005380  AE17               	btfss	(___fldiv@grs+3)^(0+1280),7,c
  6738  005382  EFC5  F029         	goto	u4471
  6739  005386  EFC7  F029         	goto	u4470
  6740  00538A                     u4471:
  6741  00538A  EFC8  F029         	goto	l1751
  6742  00538E                     u4470:
  6743  00538E  8001               	bsf	___fldiv@b^(0+1280),0,c
  6744  005390                     l1751:
  6745  005390  90D8               	bcf	status,0,c
  6746  005392  3614               	rlcf	___fldiv@grs^(0+1280),f,c
  6747  005394  3615               	rlcf	(___fldiv@grs+1)^(0+1280),f,c
  6748  005396  3616               	rlcf	(___fldiv@grs+2)^(0+1280),f,c
  6749  005398  3617               	rlcf	(___fldiv@grs+3)^(0+1280),f,c
  6750  00539A                     l5655:
  6751  00539A  5005               	movf	___fldiv@a^(0+1280),w,c
  6752  00539C  5C0D               	subwf	___fldiv@rem^(0+1280),w,c
  6753  00539E  5006               	movf	(___fldiv@a+1)^(0+1280),w,c
  6754  0053A0  580E               	subwfb	(___fldiv@rem+1)^(0+1280),w,c
  6755  0053A2  5007               	movf	(___fldiv@a+2)^(0+1280),w,c
  6756  0053A4  580F               	subwfb	(___fldiv@rem+2)^(0+1280),w,c
  6757  0053A6  5008               	movf	(___fldiv@a+3)^(0+1280),w,c
  6758  0053A8  5810               	subwfb	(___fldiv@rem+3)^(0+1280),w,c
  6759  0053AA  A0D8               	btfss	status,0,c
  6760  0053AC  EFDA  F029         	goto	u4481
  6761  0053B0  EFDC  F029         	goto	u4480
  6762  0053B4                     u4481:
  6763  0053B4  EFE5  F029         	goto	l5661
  6764  0053B8                     u4480:
  6765  0053B8  8C17               	bsf	(___fldiv@grs+3)^(0+1280),6,c
  6766  0053BA  5005               	movf	___fldiv@a^(0+1280),w,c
  6767  0053BC  5E0D               	subwf	___fldiv@rem^(0+1280),f,c
  6768  0053BE  5006               	movf	(___fldiv@a+1)^(0+1280),w,c
  6769  0053C0  5A0E               	subwfb	(___fldiv@rem+1)^(0+1280),f,c
  6770  0053C2  5007               	movf	(___fldiv@a+2)^(0+1280),w,c
  6771  0053C4  5A0F               	subwfb	(___fldiv@rem+2)^(0+1280),f,c
  6772  0053C6  5008               	movf	(___fldiv@a+3)^(0+1280),w,c
  6773  0053C8  5A10               	subwfb	(___fldiv@rem+3)^(0+1280),f,c
  6774  0053CA                     l5661:
  6775  0053CA  2A19               	incf	___fldiv@aexp^(0+1280),f,c
  6776  0053CC                     l1748:
  6777  0053CC  0E19               	movlw	25
  6778  0053CE  6419               	cpfsgt	___fldiv@aexp^(0+1280),c
  6779  0053D0  EFEC  F029         	goto	u4491
  6780  0053D4  EFEE  F029         	goto	u4490
  6781  0053D8                     u4491:
  6782  0053D8  EFAE  F029         	goto	l5647
  6783  0053DC                     u4490:
  6784  0053DC  500D               	movf	___fldiv@rem^(0+1280),w,c
  6785  0053DE  100E               	iorwf	(___fldiv@rem+1)^(0+1280),w,c
  6786  0053E0  100F               	iorwf	(___fldiv@rem+2)^(0+1280),w,c
  6787  0053E2  1010               	iorwf	(___fldiv@rem+3)^(0+1280),w,c
  6788  0053E4  B4D8               	btfsc	status,2,c
  6789  0053E6  EFF7  F029         	goto	u4501
  6790  0053EA  EFF9  F029         	goto	u4500
  6791  0053EE                     u4501:
  6792  0053EE  EF11  F02A         	goto	l5673
  6793  0053F2                     u4500:
  6794  0053F2  8014               	bsf	___fldiv@grs^(0+1280),0,c
  6795  0053F4  EF11  F02A         	goto	l5673
  6796  0053F8                     l5667:
  6797  0053F8  90D8               	bcf	status,0,c
  6798  0053FA  3601               	rlcf	___fldiv@b^(0+1280),f,c
  6799  0053FC  3602               	rlcf	(___fldiv@b+1)^(0+1280),f,c
  6800  0053FE  3603               	rlcf	(___fldiv@b+2)^(0+1280),f,c
  6801  005400  3604               	rlcf	(___fldiv@b+3)^(0+1280),f,c
  6802  005402  AE17               	btfss	(___fldiv@grs+3)^(0+1280),7,c
  6803  005404  EF06  F02A         	goto	u4511
  6804  005408  EF08  F02A         	goto	u4510
  6805  00540C                     u4511:
  6806  00540C  EF09  F02A         	goto	l1757
  6807  005410                     u4510:
  6808  005410  8001               	bsf	___fldiv@b^(0+1280),0,c
  6809  005412                     l1757:
  6810  005412  90D8               	bcf	status,0,c
  6811  005414  3614               	rlcf	___fldiv@grs^(0+1280),f,c
  6812  005416  3615               	rlcf	(___fldiv@grs+1)^(0+1280),f,c
  6813  005418  3616               	rlcf	(___fldiv@grs+2)^(0+1280),f,c
  6814  00541A  3617               	rlcf	(___fldiv@grs+3)^(0+1280),f,c
  6815  00541C  0612               	decf	___fldiv@new_exp^(0+1280),f,c
  6816  00541E  A0D8               	btfss	status,0,c
  6817  005420  0613               	decf	(___fldiv@new_exp+1)^(0+1280),f,c
  6818  005422                     l5673:
  6819  005422  AE03               	btfss	(___fldiv@b+2)^(0+1280),7,c
  6820  005424  EF16  F02A         	goto	u4521
  6821  005428  EF18  F02A         	goto	u4520
  6822  00542C                     u4521:
  6823  00542C  EFFC  F029         	goto	l5667
  6824  005430                     u4520:
  6825  005430  0E00               	movlw	0
  6826  005432  6E19               	movwf	___fldiv@aexp^(0+1280),c
  6827  005434  AE17               	btfss	(___fldiv@grs+3)^(0+1280),7,c
  6828  005436  EF1F  F02A         	goto	u4531
  6829  00543A  EF21  F02A         	goto	u4530
  6830  00543E                     u4531:
  6831  00543E  EF45  F02A         	goto	l1759
  6832  005442                     u4530:
  6833  005442  0EFF               	movlw	255
  6834  005444  1414               	andwf	___fldiv@grs^(0+1280),w,c
  6835  005446  6E09               	movwf	??___fldiv^(0+1280),c
  6836  005448  0EFF               	movlw	255
  6837  00544A  1415               	andwf	(___fldiv@grs+1)^(0+1280),w,c
  6838  00544C  6E0A               	movwf	(??___fldiv+1)^(0+1280),c
  6839  00544E  0EFF               	movlw	255
  6840  005450  1416               	andwf	(___fldiv@grs+2)^(0+1280),w,c
  6841  005452  6E0B               	movwf	(??___fldiv+2)^(0+1280),c
  6842  005454  0E7F               	movlw	127
  6843  005456  1417               	andwf	(___fldiv@grs+3)^(0+1280),w,c
  6844  005458  6E0C               	movwf	(??___fldiv+3)^(0+1280),c
  6845  00545A  5009               	movf	??___fldiv^(0+1280),w,c
  6846  00545C  100A               	iorwf	(??___fldiv+1)^(0+1280),w,c
  6847  00545E  100B               	iorwf	(??___fldiv+2)^(0+1280),w,c
  6848  005460  100C               	iorwf	(??___fldiv+3)^(0+1280),w,c
  6849  005462  B4D8               	btfsc	status,2,c
  6850  005464  EF36  F02A         	goto	u4541
  6851  005468  EF38  F02A         	goto	u4540
  6852  00546C                     u4541:
  6853  00546C  EF3C  F02A         	goto	l1760
  6854  005470                     u4540:
  6855  005470                     l5681:
  6856  005470  0E01               	movlw	1
  6857  005472  6E19               	movwf	___fldiv@aexp^(0+1280),c
  6858  005474  EF45  F02A         	goto	l1759
  6859  005478                     l1760:
  6860  005478  A001               	btfss	___fldiv@b^(0+1280),0,c
  6861  00547A  EF41  F02A         	goto	u4551
  6862  00547E  EF43  F02A         	goto	u4550
  6863  005482                     u4551:
  6864  005482  EF45  F02A         	goto	l1759
  6865  005486                     u4550:
  6866  005486  EF38  F02A         	goto	l5681
  6867  00548A                     l1759:
  6868  00548A  5019               	movf	___fldiv@aexp^(0+1280),w,c
  6869  00548C  B4D8               	btfsc	status,2,c
  6870  00548E  EF4B  F02A         	goto	u4561
  6871  005492  EF4D  F02A         	goto	u4560
  6872  005496                     u4561:
  6873  005496  EF71  F02A         	goto	l5693
  6874  00549A                     u4560:
  6875  00549A  0E01               	movlw	1
  6876  00549C  2601               	addwf	___fldiv@b^(0+1280),f,c
  6877  00549E  0E00               	movlw	0
  6878  0054A0  2202               	addwfc	(___fldiv@b+1)^(0+1280),f,c
  6879  0054A2  2203               	addwfc	(___fldiv@b+2)^(0+1280),f,c
  6880  0054A4  2204               	addwfc	(___fldiv@b+3)^(0+1280),f,c
  6881  0054A6  A004               	btfss	(___fldiv@b+3)^(0+1280),0,c
  6882  0054A8  EF58  F02A         	goto	u4571
  6883  0054AC  EF5A  F02A         	goto	u4570
  6884  0054B0                     u4571:
  6885  0054B0  EF71  F02A         	goto	l5693
  6886  0054B4                     u4570:
  6887  0054B4  C501  F509         	movff	___fldiv@b,??___fldiv
  6888  0054B8  C502  F50A         	movff	___fldiv@b+1,??___fldiv+1
  6889  0054BC  C503  F50B         	movff	___fldiv@b+2,??___fldiv+2
  6890  0054C0  C504  F50C         	movff	___fldiv@b+3,??___fldiv+3
  6891  0054C4  340C               	rlcf	(??___fldiv+3)^(0+1280),w,c
  6892  0054C6  320C               	rrcf	(??___fldiv+3)^(0+1280),f,c
  6893  0054C8  320B               	rrcf	(??___fldiv+2)^(0+1280),f,c
  6894  0054CA  320A               	rrcf	(??___fldiv+1)^(0+1280),f,c
  6895  0054CC  3209               	rrcf	??___fldiv^(0+1280),f,c
  6896  0054CE  C509  F501         	movff	??___fldiv,___fldiv@b
  6897  0054D2  C50A  F502         	movff	??___fldiv+1,___fldiv@b+1
  6898  0054D6  C50B  F503         	movff	??___fldiv+2,___fldiv@b+2
  6899  0054DA  C50C  F504         	movff	??___fldiv+3,___fldiv@b+3
  6900  0054DE  4A12               	infsnz	___fldiv@new_exp^(0+1280),f,c
  6901  0054E0  2A13               	incf	(___fldiv@new_exp+1)^(0+1280),f,c
  6902  0054E2                     l5693:
  6903  0054E2  BE13               	btfsc	(___fldiv@new_exp+1)^(0+1280),7,c
  6904  0054E4  EF7C  F02A         	goto	u4581
  6905  0054E8  5013               	movf	(___fldiv@new_exp+1)^(0+1280),w,c
  6906  0054EA  E108               	bnz	u4580
  6907  0054EC  2812               	incf	___fldiv@new_exp^(0+1280),w,c
  6908  0054EE  A0D8               	btfss	status,0,c
  6909  0054F0  EF7C  F02A         	goto	u4581
  6910  0054F4  EF7E  F02A         	goto	u4580
  6911  0054F8                     u4581:
  6912  0054F8  EF89  F02A         	goto	l5697
  6913  0054FC                     u4580:
  6914  0054FC  0E00               	movlw	0
  6915  0054FE  6E13               	movwf	(___fldiv@new_exp+1)^(0+1280),c
  6916  005500  6812               	setf	___fldiv@new_exp^(0+1280),c
  6917  005502  0E00               	movlw	0
  6918  005504  6E01               	movwf	___fldiv@b^(0+1280),c
  6919  005506  0E00               	movlw	0
  6920  005508  6E02               	movwf	(___fldiv@b+1)^(0+1280),c
  6921  00550A  0E00               	movlw	0
  6922  00550C  6E03               	movwf	(___fldiv@b+2)^(0+1280),c
  6923  00550E  0E00               	movlw	0
  6924  005510  6E04               	movwf	(___fldiv@b+3)^(0+1280),c
  6925  005512                     l5697:
  6926  005512  BE13               	btfsc	(___fldiv@new_exp+1)^(0+1280),7,c
  6927  005514  EF96  F02A         	goto	u4590
  6928  005518  5013               	movf	(___fldiv@new_exp+1)^(0+1280),w,c
  6929  00551A  E106               	bnz	u4591
  6930  00551C  0412               	decf	___fldiv@new_exp^(0+1280),w,c
  6931  00551E  B0D8               	btfsc	status,0,c
  6932  005520  EF94  F02A         	goto	u4591
  6933  005524  EF96  F02A         	goto	u4590
  6934  005528                     u4591:
  6935  005528  EFA4  F02A         	goto	l5701
  6936  00552C                     u4590:
  6937  00552C  0E00               	movlw	0
  6938  00552E  6E13               	movwf	(___fldiv@new_exp+1)^(0+1280),c
  6939  005530  0E00               	movlw	0
  6940  005532  6E12               	movwf	___fldiv@new_exp^(0+1280),c
  6941  005534  0E00               	movlw	0
  6942  005536  6E01               	movwf	___fldiv@b^(0+1280),c
  6943  005538  0E00               	movlw	0
  6944  00553A  6E02               	movwf	(___fldiv@b+1)^(0+1280),c
  6945  00553C  0E00               	movlw	0
  6946  00553E  6E03               	movwf	(___fldiv@b+2)^(0+1280),c
  6947  005540  0E00               	movlw	0
  6948  005542  6E04               	movwf	(___fldiv@b+3)^(0+1280),c
  6949  005544  0E00               	movlw	0
  6950  005546  6E11               	movwf	___fldiv@sign^(0+1280),c
  6951  005548                     l5701:
  6952  005548  C512  F518         	movff	___fldiv@new_exp,___fldiv@bexp
  6953  00554C  A018               	btfss	___fldiv@bexp^(0+1280),0,c
  6954  00554E  EFAB  F02A         	goto	u4601
  6955  005552  EFAD  F02A         	goto	u4600
  6956  005556                     u4601:
  6957  005556  EFB0  F02A         	goto	l5707
  6958  00555A                     u4600:
  6959  00555A  8E03               	bsf	(___fldiv@b+2)^(0+1280),7,c
  6960  00555C  EFB1  F02A         	goto	l5709
  6961  005560                     l5707:
  6962  005560  9E03               	bcf	(___fldiv@b+2)^(0+1280),7,c
  6963  005562                     l5709:
  6964  005562  90D8               	bcf	status,0,c
  6965  005564  3018               	rrcf	___fldiv@bexp^(0+1280),w,c
  6966  005566  6E04               	movwf	(___fldiv@b+3)^(0+1280),c
  6967  005568  EF67  F029         	goto	l5623
  6968  00556C                     l1746:
  6969  00556C  0012               	return		;funcret
  6970  00556E                     __end_of___fldiv:
  6971                           	callstack 0
  6972                           
  6973 ;; *************** function ___awmod *****************
  6974 ;; Defined at:
  6975 ;;		line 7 in file "C:\Program Files\Microchip\xc8\v2.32\pic\sources\c99\common\awmod.c"
  6976 ;; Parameters:    Size  Location     Type
  6977 ;;  dividend        2    0[COMRAM] int 
  6978 ;;  divisor         2    2[COMRAM] int 
  6979 ;; Auto vars:     Size  Location     Type
  6980 ;;  sign            1    5[COMRAM] unsigned char 
  6981 ;;  counter         1    4[COMRAM] unsigned char 
  6982 ;; Return value:  Size  Location     Type
  6983 ;;                  2    0[COMRAM] int 
  6984 ;; Registers used:
  6985 ;;		wreg, status,2, status,0
  6986 ;; Tracked objects:
  6987 ;;		On entry : 0/0
  6988 ;;		On exit  : 0/0
  6989 ;;		Unchanged: 0/0
  6990 ;; Data sizes:     COMRAM   BANK5   BANK6   BANK7   BANK8   BANK9  BANK10  BANK11  BANK12  BANK13  BANK14  BANK15  BANK1
      +6  BANK17  BANK18  BANK19  BANK20  BANK21  BANK22  BANK23  BANK24  BANK25  BANK26  BANK27  BANK28  BANK29  BANK30  BANK3
      +1  BANK32  BANK33  BANK34  BANK35  BANK36  BANK37  BANK38  BANK39  BANK40  BANK41  BANK42  BANK43  BANK44  BANK45  BANK4
      +6  BANK47  BANK48  BANK49  BANK50  BANK51  BANK52  BANK53  BANK54
  6991 ;;      Params:         4       0       0       0       0       0       0       0       0       0       0       0       
      +0       0       0       0       0       0       0       0       0       0       0       0       0       0       0       
      +0       0       0       0       0       0       0       0       0       0       0       0       0       0       0       
      +0       0       0       0       0       0       0       0       0
  6992 ;;      Locals:         2       0       0       0       0       0       0       0       0       0       0       0       
      +0       0       0       0       0       0       0       0       0       0       0       0       0       0       0       
      +0       0       0       0       0       0       0       0       0       0       0       0       0       0       0       
      +0       0       0       0       0       0       0       0       0
  6993 ;;      Temps:          0       0       0       0       0       0       0       0       0       0       0       0       
      +0       0       0       0       0       0       0       0       0       0       0       0       0       0       0       
      +0       0       0       0       0       0       0       0       0       0       0       0       0       0       0       
      +0       0       0       0       0       0       0       0       0
  6994 ;;      Totals:         6       0       0       0       0       0       0       0       0       0       0       0       
      +0       0       0       0       0       0       0       0       0       0       0       0       0       0       0       
      +0       0       0       0       0       0       0       0       0       0       0       0       0       0       0       
      +0       0       0       0       0       0       0       0       0
  6995 ;;Total ram usage:        6 bytes
  6996 ;; Hardware stack levels used: 1
  6997 ;; This function calls:
  6998 ;;		Nothing
  6999 ;; This function is called by:
  7000 ;;		_efgtoa
  7001 ;; This function uses a non-reentrant model
  7002 ;;
  7003                           
  7004                           	psect	text20
  7005  006770                     __ptext20:
  7006                           	callstack 0
  7007  006770                     ___awmod:
  7008                           	callstack 122
  7009  006770  0E00               	movlw	0
  7010  006772  6E06               	movwf	___awmod@sign^(0+1280),c
  7011  006774  BE02               	btfsc	(___awmod@dividend+1)^(0+1280),7,c
  7012  006776  EFC1  F033         	goto	u4860
  7013  00677A  EFBF  F033         	goto	u4861
  7014  00677E                     u4861:
  7015  00677E  EFC7  F033         	goto	l5905
  7016  006782                     u4860:
  7017  006782  6C01               	negf	___awmod@dividend^(0+1280),c
  7018  006784  1E02               	comf	(___awmod@dividend+1)^(0+1280),f,c
  7019  006786  B0D8               	btfsc	status,0,c
  7020  006788  2A02               	incf	(___awmod@dividend+1)^(0+1280),f,c
  7021  00678A  0E01               	movlw	1
  7022  00678C  6E06               	movwf	___awmod@sign^(0+1280),c
  7023  00678E                     l5905:
  7024  00678E  BE04               	btfsc	(___awmod@divisor+1)^(0+1280),7,c
  7025  006790  EFCE  F033         	goto	u4870
  7026  006794  EFCC  F033         	goto	u4871
  7027  006798                     u4871:
  7028  006798  EFD2  F033         	goto	l5909
  7029  00679C                     u4870:
  7030  00679C  6C03               	negf	___awmod@divisor^(0+1280),c
  7031  00679E  1E04               	comf	(___awmod@divisor+1)^(0+1280),f,c
  7032  0067A0  B0D8               	btfsc	status,0,c
  7033  0067A2  2A04               	incf	(___awmod@divisor+1)^(0+1280),f,c
  7034  0067A4                     l5909:
  7035  0067A4  5003               	movf	___awmod@divisor^(0+1280),w,c
  7036  0067A6  1004               	iorwf	(___awmod@divisor+1)^(0+1280),w,c
  7037  0067A8  B4D8               	btfsc	status,2,c
  7038  0067AA  EFD9  F033         	goto	u4881
  7039  0067AE  EFDB  F033         	goto	u4880
  7040  0067B2                     u4881:
  7041  0067B2  EFFF  F033         	goto	l5925
  7042  0067B6                     u4880:
  7043  0067B6  0E01               	movlw	1
  7044  0067B8  6E05               	movwf	___awmod@counter^(0+1280),c
  7045  0067BA  EFE3  F033         	goto	l5915
  7046  0067BE                     l5913:
  7047  0067BE  90D8               	bcf	status,0,c
  7048  0067C0  3603               	rlcf	___awmod@divisor^(0+1280),f,c
  7049  0067C2  3604               	rlcf	(___awmod@divisor+1)^(0+1280),f,c
  7050  0067C4  2A05               	incf	___awmod@counter^(0+1280),f,c
  7051  0067C6                     l5915:
  7052  0067C6  AE04               	btfss	(___awmod@divisor+1)^(0+1280),7,c
  7053  0067C8  EFE8  F033         	goto	u4891
  7054  0067CC  EFEA  F033         	goto	u4890
  7055  0067D0                     u4891:
  7056  0067D0  EFDF  F033         	goto	l5913
  7057  0067D4                     u4890:
  7058  0067D4                     l5917:
  7059  0067D4  5003               	movf	___awmod@divisor^(0+1280),w,c
  7060  0067D6  5C01               	subwf	___awmod@dividend^(0+1280),w,c
  7061  0067D8  5004               	movf	(___awmod@divisor+1)^(0+1280),w,c
  7062  0067DA  5802               	subwfb	(___awmod@dividend+1)^(0+1280),w,c
  7063  0067DC  A0D8               	btfss	status,0,c
  7064  0067DE  EFF3  F033         	goto	u4901
  7065  0067E2  EFF5  F033         	goto	u4900
  7066  0067E6                     u4901:
  7067  0067E6  EFF9  F033         	goto	l5921
  7068  0067EA                     u4900:
  7069  0067EA  5003               	movf	___awmod@divisor^(0+1280),w,c
  7070  0067EC  5E01               	subwf	___awmod@dividend^(0+1280),f,c
  7071  0067EE  5004               	movf	(___awmod@divisor+1)^(0+1280),w,c
  7072  0067F0  5A02               	subwfb	(___awmod@dividend+1)^(0+1280),f,c
  7073  0067F2                     l5921:
  7074  0067F2  90D8               	bcf	status,0,c
  7075  0067F4  3204               	rrcf	(___awmod@divisor+1)^(0+1280),f,c
  7076  0067F6  3203               	rrcf	___awmod@divisor^(0+1280),f,c
  7077  0067F8  2E05               	decfsz	___awmod@counter^(0+1280),f,c
  7078  0067FA  EFEA  F033         	goto	l5917
  7079  0067FE                     l5925:
  7080  0067FE  5006               	movf	___awmod@sign^(0+1280),w,c
  7081  006800  B4D8               	btfsc	status,2,c
  7082  006802  EF05  F034         	goto	u4911
  7083  006806  EF07  F034         	goto	u4910
  7084  00680A                     u4911:
  7085  00680A  EF0B  F034         	goto	l5929
  7086  00680E                     u4910:
  7087  00680E  6C01               	negf	___awmod@dividend^(0+1280),c
  7088  006810  1E02               	comf	(___awmod@dividend+1)^(0+1280),f,c
  7089  006812  B0D8               	btfsc	status,0,c
  7090  006814  2A02               	incf	(___awmod@dividend+1)^(0+1280),f,c
  7091  006816                     l5929:
  7092  006816  C501  F501         	movff	___awmod@dividend,?___awmod
  7093  00681A  C502  F502         	movff	___awmod@dividend+1,?___awmod+1
  7094  00681E  0012               	return		;funcret
  7095  006820                     __end_of___awmod:
  7096                           	callstack 0
  7097                           
  7098 ;; *************** function ___awdiv *****************
  7099 ;; Defined at:
  7100 ;;		line 7 in file "C:\Program Files\Microchip\xc8\v2.32\pic\sources\c99\common\awdiv.c"
  7101 ;; Parameters:    Size  Location     Type
  7102 ;;  dividend        2    0[COMRAM] int 
  7103 ;;  divisor         2    2[COMRAM] int 
  7104 ;; Auto vars:     Size  Location     Type
  7105 ;;  quotient        2    6[COMRAM] int 
  7106 ;;  sign            1    5[COMRAM] unsigned char 
  7107 ;;  counter         1    4[COMRAM] unsigned char 
  7108 ;; Return value:  Size  Location     Type
  7109 ;;                  2    0[COMRAM] int 
  7110 ;; Registers used:
  7111 ;;		wreg, status,2, status,0
  7112 ;; Tracked objects:
  7113 ;;		On entry : 0/0
  7114 ;;		On exit  : 0/0
  7115 ;;		Unchanged: 0/0
  7116 ;; Data sizes:     COMRAM   BANK5   BANK6   BANK7   BANK8   BANK9  BANK10  BANK11  BANK12  BANK13  BANK14  BANK15  BANK1
      +6  BANK17  BANK18  BANK19  BANK20  BANK21  BANK22  BANK23  BANK24  BANK25  BANK26  BANK27  BANK28  BANK29  BANK30  BANK3
      +1  BANK32  BANK33  BANK34  BANK35  BANK36  BANK37  BANK38  BANK39  BANK40  BANK41  BANK42  BANK43  BANK44  BANK45  BANK4
      +6  BANK47  BANK48  BANK49  BANK50  BANK51  BANK52  BANK53  BANK54
  7117 ;;      Params:         4       0       0       0       0       0       0       0       0       0       0       0       
      +0       0       0       0       0       0       0       0       0       0       0       0       0       0       0       
      +0       0       0       0       0       0       0       0       0       0       0       0       0       0       0       
      +0       0       0       0       0       0       0       0       0
  7118 ;;      Locals:         4       0       0       0       0       0       0       0       0       0       0       0       
      +0       0       0       0       0       0       0       0       0       0       0       0       0       0       0       
      +0       0       0       0       0       0       0       0       0       0       0       0       0       0       0       
      +0       0       0       0       0       0       0       0       0
  7119 ;;      Temps:          0       0       0       0       0       0       0       0       0       0       0       0       
      +0       0       0       0       0       0       0       0       0       0       0       0       0       0       0       
      +0       0       0       0       0       0       0       0       0       0       0       0       0       0       0       
      +0       0       0       0       0       0       0       0       0
  7120 ;;      Totals:         8       0       0       0       0       0       0       0       0       0       0       0       
      +0       0       0       0       0       0       0       0       0       0       0       0       0       0       0       
      +0       0       0       0       0       0       0       0       0       0       0       0       0       0       0       
      +0       0       0       0       0       0       0       0       0
  7121 ;;Total ram usage:        8 bytes
  7122 ;; Hardware stack levels used: 1
  7123 ;; This function calls:
  7124 ;;		Nothing
  7125 ;; This function is called by:
  7126 ;;		_efgtoa
  7127 ;; This function uses a non-reentrant model
  7128 ;;
  7129                           
  7130                           	psect	text21
  7131  0065F4                     __ptext21:
  7132                           	callstack 0
  7133  0065F4                     ___awdiv:
  7134                           	callstack 122
  7135  0065F4  0E00               	movlw	0
  7136  0065F6  6E06               	movwf	___awdiv@sign^(0+1280),c
  7137  0065F8  BE04               	btfsc	(___awdiv@divisor+1)^(0+1280),7,c
  7138  0065FA  EF03  F033         	goto	u4800
  7139  0065FE  EF01  F033         	goto	u4801
  7140  006602                     u4801:
  7141  006602  EF09  F033         	goto	l5861
  7142  006606                     u4800:
  7143  006606  6C03               	negf	___awdiv@divisor^(0+1280),c
  7144  006608  1E04               	comf	(___awdiv@divisor+1)^(0+1280),f,c
  7145  00660A  B0D8               	btfsc	status,0,c
  7146  00660C  2A04               	incf	(___awdiv@divisor+1)^(0+1280),f,c
  7147  00660E  0E01               	movlw	1
  7148  006610  6E06               	movwf	___awdiv@sign^(0+1280),c
  7149  006612                     l5861:
  7150  006612  BE02               	btfsc	(___awdiv@dividend+1)^(0+1280),7,c
  7151  006614  EF10  F033         	goto	u4810
  7152  006618  EF0E  F033         	goto	u4811
  7153  00661C                     u4811:
  7154  00661C  EF16  F033         	goto	l5867
  7155  006620                     u4810:
  7156  006620  6C01               	negf	___awdiv@dividend^(0+1280),c
  7157  006622  1E02               	comf	(___awdiv@dividend+1)^(0+1280),f,c
  7158  006624  B0D8               	btfsc	status,0,c
  7159  006626  2A02               	incf	(___awdiv@dividend+1)^(0+1280),f,c
  7160  006628  0E01               	movlw	1
  7161  00662A  1A06               	xorwf	___awdiv@sign^(0+1280),f,c
  7162  00662C                     l5867:
  7163  00662C  0E00               	movlw	0
  7164  00662E  6E08               	movwf	(___awdiv@quotient+1)^(0+1280),c
  7165  006630  0E00               	movlw	0
  7166  006632  6E07               	movwf	___awdiv@quotient^(0+1280),c
  7167  006634  5003               	movf	___awdiv@divisor^(0+1280),w,c
  7168  006636  1004               	iorwf	(___awdiv@divisor+1)^(0+1280),w,c
  7169  006638  B4D8               	btfsc	status,2,c
  7170  00663A  EF21  F033         	goto	u4821
  7171  00663E  EF23  F033         	goto	u4820
  7172  006642                     u4821:
  7173  006642  EF4B  F033         	goto	l5889
  7174  006646                     u4820:
  7175  006646  0E01               	movlw	1
  7176  006648  6E05               	movwf	___awdiv@counter^(0+1280),c
  7177  00664A  EF2B  F033         	goto	l5875
  7178  00664E                     l5873:
  7179  00664E  90D8               	bcf	status,0,c
  7180  006650  3603               	rlcf	___awdiv@divisor^(0+1280),f,c
  7181  006652  3604               	rlcf	(___awdiv@divisor+1)^(0+1280),f,c
  7182  006654  2A05               	incf	___awdiv@counter^(0+1280),f,c
  7183  006656                     l5875:
  7184  006656  AE04               	btfss	(___awdiv@divisor+1)^(0+1280),7,c
  7185  006658  EF30  F033         	goto	u4831
  7186  00665C  EF32  F033         	goto	u4830
  7187  006660                     u4831:
  7188  006660  EF27  F033         	goto	l5873
  7189  006664                     u4830:
  7190  006664                     l5877:
  7191  006664  90D8               	bcf	status,0,c
  7192  006666  3607               	rlcf	___awdiv@quotient^(0+1280),f,c
  7193  006668  3608               	rlcf	(___awdiv@quotient+1)^(0+1280),f,c
  7194  00666A  5003               	movf	___awdiv@divisor^(0+1280),w,c
  7195  00666C  5C01               	subwf	___awdiv@dividend^(0+1280),w,c
  7196  00666E  5004               	movf	(___awdiv@divisor+1)^(0+1280),w,c
  7197  006670  5802               	subwfb	(___awdiv@dividend+1)^(0+1280),w,c
  7198  006672  A0D8               	btfss	status,0,c
  7199  006674  EF3E  F033         	goto	u4841
  7200  006678  EF40  F033         	goto	u4840
  7201  00667C                     u4841:
  7202  00667C  EF45  F033         	goto	l5885
  7203  006680                     u4840:
  7204  006680  5003               	movf	___awdiv@divisor^(0+1280),w,c
  7205  006682  5E01               	subwf	___awdiv@dividend^(0+1280),f,c
  7206  006684  5004               	movf	(___awdiv@divisor+1)^(0+1280),w,c
  7207  006686  5A02               	subwfb	(___awdiv@dividend+1)^(0+1280),f,c
  7208  006688  8007               	bsf	___awdiv@quotient^(0+1280),0,c
  7209  00668A                     l5885:
  7210  00668A  90D8               	bcf	status,0,c
  7211  00668C  3204               	rrcf	(___awdiv@divisor+1)^(0+1280),f,c
  7212  00668E  3203               	rrcf	___awdiv@divisor^(0+1280),f,c
  7213  006690  2E05               	decfsz	___awdiv@counter^(0+1280),f,c
  7214  006692  EF32  F033         	goto	l5877
  7215  006696                     l5889:
  7216  006696  5006               	movf	___awdiv@sign^(0+1280),w,c
  7217  006698  B4D8               	btfsc	status,2,c
  7218  00669A  EF51  F033         	goto	u4851
  7219  00669E  EF53  F033         	goto	u4850
  7220  0066A2                     u4851:
  7221  0066A2  EF57  F033         	goto	l5893
  7222  0066A6                     u4850:
  7223  0066A6  6C07               	negf	___awdiv@quotient^(0+1280),c
  7224  0066A8  1E08               	comf	(___awdiv@quotient+1)^(0+1280),f,c
  7225  0066AA  B0D8               	btfsc	status,0,c
  7226  0066AC  2A08               	incf	(___awdiv@quotient+1)^(0+1280),f,c
  7227  0066AE                     l5893:
  7228  0066AE  C507  F501         	movff	___awdiv@quotient,?___awdiv
  7229  0066B2  C508  F502         	movff	___awdiv@quotient+1,?___awdiv+1
  7230  0066B6  0012               	return		;funcret
  7231  0066B8                     __end_of___awdiv:
  7232                           	callstack 0
  7233                           
  7234 ;; *************** function _dtoa *****************
  7235 ;; Defined at:
  7236 ;;		line 287 in file "C:\Program Files\Microchip\xc8\v2.32\pic\sources\c99\common\doprnt.c"
  7237 ;; Parameters:    Size  Location     Type
  7238 ;;  fp              2   29[COMRAM] PTR struct _IO_FILE
  7239 ;;		 -> sprintf@f(6), NULL(0), 
  7240 ;;  d               8   31[COMRAM] long long 
  7241 ;; Auto vars:     Size  Location     Type
  7242 ;;  n               8   55[COMRAM] long long 
  7243 ;;  i               2   63[COMRAM] int 
  7244 ;;  s               2   53[COMRAM] int 
  7245 ;;  w               2   51[COMRAM] int 
  7246 ;;  p               2   49[COMRAM] int 
  7247 ;; Return value:  Size  Location     Type
  7248 ;;                  2   29[COMRAM] int 
  7249 ;; Registers used:
  7250 ;;		wreg, fsr1l, fsr1h, fsr2l, fsr2h, status,2, status,0, cstack
  7251 ;; Tracked objects:
  7252 ;;		On entry : 0/0
  7253 ;;		On exit  : 0/0
  7254 ;;		Unchanged: 0/0
  7255 ;; Data sizes:     COMRAM   BANK5   BANK6   BANK7   BANK8   BANK9  BANK10  BANK11  BANK12  BANK13  BANK14  BANK15  BANK1
      +6  BANK17  BANK18  BANK19  BANK20  BANK21  BANK22  BANK23  BANK24  BANK25  BANK26  BANK27  BANK28  BANK29  BANK30  BANK3
      +1  BANK32  BANK33  BANK34  BANK35  BANK36  BANK37  BANK38  BANK39  BANK40  BANK41  BANK42  BANK43  BANK44  BANK45  BANK4
      +6  BANK47  BANK48  BANK49  BANK50  BANK51  BANK52  BANK53  BANK54
  7256 ;;      Params:        10       0       0       0       0       0       0       0       0       0       0       0       
      +0       0       0       0       0       0       0       0       0       0       0       0       0       0       0       
      +0       0       0       0       0       0       0       0       0       0       0       0       0       0       0       
      +0       0       0       0       0       0       0       0       0
  7257 ;;      Locals:        18       0       0       0       0       0       0       0       0       0       0       0       
      +0       0       0       0       0       0       0       0       0       0       0       0       0       0       0       
      +0       0       0       0       0       0       0       0       0       0       0       0       0       0       0       
      +0       0       0       0       0       0       0       0       0
  7258 ;;      Temps:          8       0       0       0       0       0       0       0       0       0       0       0       
      +0       0       0       0       0       0       0       0       0       0       0       0       0       0       0       
      +0       0       0       0       0       0       0       0       0       0       0       0       0       0       0       
      +0       0       0       0       0       0       0       0       0
  7259 ;;      Totals:        36       0       0       0       0       0       0       0       0       0       0       0       
      +0       0       0       0       0       0       0       0       0       0       0       0       0       0       0       
      +0       0       0       0       0       0       0       0       0       0       0       0       0       0       0       
      +0       0       0       0       0       0       0       0       0
  7260 ;;Total ram usage:       36 bytes
  7261 ;; Hardware stack levels used: 1
  7262 ;; Hardware stack levels required when called: 5
  7263 ;; This function calls:
  7264 ;;		___aodiv
  7265 ;;		___aomod
  7266 ;;		_abs
  7267 ;;		_pad
  7268 ;; This function is called by:
  7269 ;;		_vfpfcnvrt
  7270 ;; This function uses a non-reentrant model
  7271 ;;
  7272                           
  7273                           	psect	text22
  7274  00556E                     __ptext22:
  7275                           	callstack 0
  7276  00556E                     _dtoa:
  7277                           	callstack 118
  7278  00556E                     
  7279                           ;C:\Program Files\Microchip\xc8\v2.32\pic\sources\c99\common\doprnt.c: 287: static int d
      +                          toa(FILE *fp, long long d);C:\Program Files\Microchip\xc8\v2.32\pic\sources\c99\common\d
      +                          oprnt.c: 288: {;C:\Program Files\Microchip\xc8\v2.32\pic\sources\c99\common\doprnt.c: 28
      +                          9:     int i, p, s, w;;C:\Program Files\Microchip\xc8\v2.32\pic\sources\c99\common\doprn
      +                          t.c: 290:     long long n;;C:\Program Files\Microchip\xc8\v2.32\pic\sources\c99\common\d
      +                          oprnt.c: 293:     n = d;
  7280  00556E  C520  F538         	movff	dtoa@d,dtoa@n
  7281  005572  C521  F539         	movff	dtoa@d+1,dtoa@n+1
  7282  005576  C522  F53A         	movff	dtoa@d+2,dtoa@n+2
  7283  00557A  C523  F53B         	movff	dtoa@d+3,dtoa@n+3
  7284  00557E  C524  F53C         	movff	dtoa@d+4,dtoa@n+4
  7285  005582  C525  F53D         	movff	dtoa@d+5,dtoa@n+5
  7286  005586  C526  F53E         	movff	dtoa@d+6,dtoa@n+6
  7287  00558A  C527  F53F         	movff	dtoa@d+7,dtoa@n+7
  7288  00558E                     
  7289                           ;C:\Program Files\Microchip\xc8\v2.32\pic\sources\c99\common\doprnt.c: 294:     s = n < 
      +                          0 ? 1 : 0;
  7290  00558E  BE3F               	btfsc	(dtoa@n+7)^(0+1280),7,c
  7291  005590  EFCC  F02A         	goto	u5371
  7292  005594  EFCF  F02A         	goto	u5370
  7293  005598                     u5371:
  7294  005598  0E01               	movlw	1
  7295  00559A  EFD0  F02A         	goto	u5380
  7296  00559E                     u5370:
  7297  00559E  0E00               	movlw	0
  7298  0055A0                     u5380:
  7299  0055A0  6E36               	movwf	dtoa@s^(0+1280),c
  7300  0055A2  6A37               	clrf	(dtoa@s+1)^(0+1280),c
  7301                           
  7302                           ;C:\Program Files\Microchip\xc8\v2.32\pic\sources\c99\common\doprnt.c: 295:     if (s) {
  7303  0055A4  5036               	movf	dtoa@s^(0+1280),w,c
  7304  0055A6  1037               	iorwf	(dtoa@s+1)^(0+1280),w,c
  7305  0055A8  B4D8               	btfsc	status,2,c
  7306  0055AA  EFD9  F02A         	goto	u5391
  7307  0055AE  EFDB  F02A         	goto	u5390
  7308  0055B2                     u5391:
  7309  0055B2  EFEB  F02A         	goto	l6133
  7310  0055B6                     u5390:
  7311  0055B6                     
  7312                           ;C:\Program Files\Microchip\xc8\v2.32\pic\sources\c99\common\doprnt.c: 296:         n = 
      +                          -n;
  7313  0055B6  1E3F               	comf	(dtoa@n+7)^(0+1280),f,c
  7314  0055B8  1E3E               	comf	(dtoa@n+6)^(0+1280),f,c
  7315  0055BA  1E3D               	comf	(dtoa@n+5)^(0+1280),f,c
  7316  0055BC  1E3C               	comf	(dtoa@n+4)^(0+1280),f,c
  7317  0055BE  1E3B               	comf	(dtoa@n+3)^(0+1280),f,c
  7318  0055C0  1E3A               	comf	(dtoa@n+2)^(0+1280),f,c
  7319  0055C2  1E39               	comf	(dtoa@n+1)^(0+1280),f,c
  7320  0055C4  6C38               	negf	dtoa@n^(0+1280),c
  7321  0055C6  0E00               	movlw	0
  7322  0055C8  2239               	addwfc	(dtoa@n+1)^(0+1280),f,c
  7323  0055CA  223A               	addwfc	(dtoa@n+2)^(0+1280),f,c
  7324  0055CC  223B               	addwfc	(dtoa@n+3)^(0+1280),f,c
  7325  0055CE  223C               	addwfc	(dtoa@n+4)^(0+1280),f,c
  7326  0055D0  223D               	addwfc	(dtoa@n+5)^(0+1280),f,c
  7327  0055D2  223E               	addwfc	(dtoa@n+6)^(0+1280),f,c
  7328  0055D4  223F               	addwfc	(dtoa@n+7)^(0+1280),f,c
  7329  0055D6                     l6133:
  7330                           
  7331                           ;C:\Program Files\Microchip\xc8\v2.32\pic\sources\c99\common\doprnt.c: 300:     if (!(pr
      +                          ec < 0)) {
  7332  0055D6  0105               	movlb	5	; () banked
  7333  0055D8  BFEB               	btfsc	(_prec+1)& (0+255),7,b
  7334  0055DA  EFF1  F02A         	goto	u5401
  7335  0055DE  EFF3  F02A         	goto	u5400
  7336  0055E2                     u5401:
  7337  0055E2  EFF4  F02A         	goto	l6137
  7338  0055E6                     u5400:
  7339  0055E6                     
  7340                           ; BSR set to: 5
  7341                           ;C:\Program Files\Microchip\xc8\v2.32\pic\sources\c99\common\doprnt.c: 301:         flag
      +                          s &= ~(1 << 1);
  7342  0055E6  93EC               	bcf	_flags& (0+255),1,b
  7343  0055E8                     l6137:
  7344                           
  7345                           ; BSR set to: 5
  7346                           ;C:\Program Files\Microchip\xc8\v2.32\pic\sources\c99\common\doprnt.c: 303:     p = (0 <
      +                           prec) ? prec : 1;
  7347  0055E8  BFEB               	btfsc	(_prec+1)& (0+255),7,b
  7348  0055EA  EF01  F02B         	goto	u5410
  7349  0055EE  51EB               	movf	(_prec+1)& (0+255),w,b
  7350  0055F0  E106               	bnz	u5411
  7351  0055F2  05EA               	decf	_prec& (0+255),w,b
  7352  0055F4  B0D8               	btfsc	status,0,c
  7353  0055F6  EFFF  F02A         	goto	u5411
  7354  0055FA  EF01  F02B         	goto	u5410
  7355  0055FE                     u5411:
  7356  0055FE  EF07  F02B         	goto	l1892
  7357  005602                     u5410:
  7358  005602                     
  7359                           ; BSR set to: 5
  7360  005602  0E00               	movlw	0
  7361  005604  6E33               	movwf	(dtoa@p+1)^(0+1280),c
  7362  005606  0E01               	movlw	1
  7363  005608  6E32               	movwf	dtoa@p^(0+1280),c
  7364  00560A  EF0B  F02B         	goto	l1894
  7365  00560E                     l1892:
  7366                           
  7367                           ; BSR set to: 5
  7368  00560E  C5EA  F532         	movff	_prec,dtoa@p
  7369  005612  C5EB  F533         	movff	_prec+1,dtoa@p+1
  7370  005616                     l1894:
  7371                           
  7372                           ; BSR set to: 5
  7373                           ;C:\Program Files\Microchip\xc8\v2.32\pic\sources\c99\common\doprnt.c: 304:     w = widt
      +                          h;
  7374  005616  C5E8  F534         	movff	_width,dtoa@w
  7375  00561A  C5E9  F535         	movff	_width+1,dtoa@w+1
  7376  00561E                     
  7377                           ; BSR set to: 5
  7378                           ;C:\Program Files\Microchip\xc8\v2.32\pic\sources\c99\common\doprnt.c: 305:     if (s ||
      +                           (flags & (1 << 2))) {
  7379  00561E  5036               	movf	dtoa@s^(0+1280),w,c
  7380  005620  1037               	iorwf	(dtoa@s+1)^(0+1280),w,c
  7381  005622  A4D8               	btfss	status,2,c
  7382  005624  EF16  F02B         	goto	u5421
  7383  005628  EF18  F02B         	goto	u5420
  7384  00562C                     u5421:
  7385  00562C  EF1F  F02B         	goto	l6145
  7386  005630                     u5420:
  7387  005630                     
  7388                           ; BSR set to: 5
  7389  005630  A5EC               	btfss	_flags& (0+255),2,b
  7390  005632  EF1D  F02B         	goto	u5431
  7391  005636  EF1F  F02B         	goto	u5430
  7392  00563A                     u5431:
  7393  00563A  EF22  F02B         	goto	l6147
  7394  00563E                     u5430:
  7395  00563E                     l6145:
  7396                           
  7397                           ; BSR set to: 5
  7398                           ;C:\Program Files\Microchip\xc8\v2.32\pic\sources\c99\common\doprnt.c: 306:         --w;
  7399  00563E  0634               	decf	dtoa@w^(0+1280),f,c
  7400  005640  A0D8               	btfss	status,0,c
  7401  005642  0635               	decf	(dtoa@w+1)^(0+1280),f,c
  7402  005644                     l6147:
  7403                           
  7404                           ; BSR set to: 5
  7405                           ;C:\Program Files\Microchip\xc8\v2.32\pic\sources\c99\common\doprnt.c: 310:     i = size
      +                          of(dbuf) - 1;
  7406  005644  0E00               	movlw	0
  7407  005646  6E41               	movwf	(dtoa@i+1)^(0+1280),c
  7408  005648  0E4F               	movlw	79
  7409  00564A  6E40               	movwf	dtoa@i^(0+1280),c
  7410  00564C                     
  7411                           ; BSR set to: 5
  7412                           ;C:\Program Files\Microchip\xc8\v2.32\pic\sources\c99\common\doprnt.c: 311:     dbuf[i] 
      +                          = '\0';
  7413  00564C  0E00               	movlw	0
  7414  00564E  0106               	movlb	6	; () banked
  7415  005650  6F4F               	movwf	(_dbuf+79)& (0+255),b
  7416                           
  7417                           ;C:\Program Files\Microchip\xc8\v2.32\pic\sources\c99\common\doprnt.c: 312:     while (!
      +                          (i < 1) && (n || (0 < p) || ((0 < w) && (flags & (1 << 1))))) {
  7418  005652  EFA7  F02B         	goto	l6161
  7419  005656                     l6151:
  7420                           
  7421                           ;C:\Program Files\Microchip\xc8\v2.32\pic\sources\c99\common\doprnt.c: 313:         --i;
  7422  005656  0640               	decf	dtoa@i^(0+1280),f,c
  7423  005658  A0D8               	btfss	status,0,c
  7424  00565A  0641               	decf	(dtoa@i+1)^(0+1280),f,c
  7425  00565C                     
  7426                           ;C:\Program Files\Microchip\xc8\v2.32\pic\sources\c99\common\doprnt.c: 314:         dbuf
      +                          [i] = (char)((int)'0' + abs(n % 10));
  7427  00565C  0E00               	movlw	low _dbuf
  7428  00565E  2440               	addwf	dtoa@i^(0+1280),w,c
  7429  005660  6ED9               	movwf	fsr2l,c
  7430  005662  0E06               	movlw	high _dbuf
  7431  005664  2041               	addwfc	(dtoa@i+1)^(0+1280),w,c
  7432  005666  6EDA               	movwf	fsr2h,c
  7433  005668  C538  F501         	movff	dtoa@n,___aomod@dividend
  7434  00566C  C539  F502         	movff	dtoa@n+1,___aomod@dividend+1
  7435  005670  C53A  F503         	movff	dtoa@n+2,___aomod@dividend+2
  7436  005674  C53B  F504         	movff	dtoa@n+3,___aomod@dividend+3
  7437  005678  C53C  F505         	movff	dtoa@n+4,___aomod@dividend+4
  7438  00567C  C53D  F506         	movff	dtoa@n+5,___aomod@dividend+5
  7439  005680  C53E  F507         	movff	dtoa@n+6,___aomod@dividend+6
  7440  005684  C53F  F508         	movff	dtoa@n+7,___aomod@dividend+7
  7441  005688  0E0A               	movlw	10
  7442  00568A  6E09               	movwf	___aomod@divisor^(0+1280),c
  7443  00568C  0E00               	movlw	0
  7444  00568E  6E0A               	movwf	(___aomod@divisor+1)^(0+1280),c
  7445  005690  0E00               	movlw	0
  7446  005692  6E0B               	movwf	(___aomod@divisor+2)^(0+1280),c
  7447  005694  0E00               	movlw	0
  7448  005696  6E0C               	movwf	(___aomod@divisor+3)^(0+1280),c
  7449  005698  0E00               	movlw	0
  7450  00569A  6E0D               	movwf	(___aomod@divisor+4)^(0+1280),c
  7451  00569C  0E00               	movlw	0
  7452  00569E  6E0E               	movwf	(___aomod@divisor+5)^(0+1280),c
  7453  0056A0  0E00               	movlw	0
  7454  0056A2  6E0F               	movwf	(___aomod@divisor+6)^(0+1280),c
  7455  0056A4  0E00               	movlw	0
  7456  0056A6  6E10               	movwf	(___aomod@divisor+7)^(0+1280),c
  7457  0056A8  ECD1  F02E         	call	___aomod	;wreg free
  7458  0056AC  C501  F528         	movff	?___aomod,??_dtoa
  7459  0056B0  C502  F529         	movff	?___aomod+1,??_dtoa+1
  7460  0056B4  C503  F52A         	movff	?___aomod+2,??_dtoa+2
  7461  0056B8  C504  F52B         	movff	?___aomod+3,??_dtoa+3
  7462  0056BC  C505  F52C         	movff	?___aomod+4,??_dtoa+4
  7463  0056C0  C506  F52D         	movff	?___aomod+5,??_dtoa+5
  7464  0056C4  C507  F52E         	movff	?___aomod+6,??_dtoa+6
  7465  0056C8  C508  F52F         	movff	?___aomod+7,??_dtoa+7
  7466  0056CC  C528  F513         	movff	??_dtoa,abs@a
  7467  0056D0  C52A  F514         	movff	??_dtoa+2,abs@a+1
  7468  0056D4  ECFC  F035         	call	_abs	;wreg free
  7469  0056D8  5013               	movf	?_abs^(0+1280),w,c
  7470  0056DA  0F30               	addlw	48
  7471  0056DC  6EDF               	movwf	indf2,c
  7472  0056DE                     
  7473                           ;C:\Program Files\Microchip\xc8\v2.32\pic\sources\c99\common\doprnt.c: 315:         --p;
  7474  0056DE  0632               	decf	dtoa@p^(0+1280),f,c
  7475  0056E0  A0D8               	btfss	status,0,c
  7476  0056E2  0633               	decf	(dtoa@p+1)^(0+1280),f,c
  7477  0056E4                     
  7478                           ;C:\Program Files\Microchip\xc8\v2.32\pic\sources\c99\common\doprnt.c: 316:         --w;
  7479  0056E4  0634               	decf	dtoa@w^(0+1280),f,c
  7480  0056E6  A0D8               	btfss	status,0,c
  7481  0056E8  0635               	decf	(dtoa@w+1)^(0+1280),f,c
  7482  0056EA                     
  7483                           ;C:\Program Files\Microchip\xc8\v2.32\pic\sources\c99\common\doprnt.c: 317:         n = 
      +                          n / 10;
  7484  0056EA  C538  F501         	movff	dtoa@n,___aodiv@dividend
  7485  0056EE  C539  F502         	movff	dtoa@n+1,___aodiv@dividend+1
  7486  0056F2  C53A  F503         	movff	dtoa@n+2,___aodiv@dividend+2
  7487  0056F6  C53B  F504         	movff	dtoa@n+3,___aodiv@dividend+3
  7488  0056FA  C53C  F505         	movff	dtoa@n+4,___aodiv@dividend+4
  7489  0056FE  C53D  F506         	movff	dtoa@n+5,___aodiv@dividend+5
  7490  005702  C53E  F507         	movff	dtoa@n+6,___aodiv@dividend+6
  7491  005706  C53F  F508         	movff	dtoa@n+7,___aodiv@dividend+7
  7492  00570A  0E0A               	movlw	10
  7493  00570C  6E09               	movwf	___aodiv@divisor^(0+1280),c
  7494  00570E  0E00               	movlw	0
  7495  005710  6E0A               	movwf	(___aodiv@divisor+1)^(0+1280),c
  7496  005712  0E00               	movlw	0
  7497  005714  6E0B               	movwf	(___aodiv@divisor+2)^(0+1280),c
  7498  005716  0E00               	movlw	0
  7499  005718  6E0C               	movwf	(___aodiv@divisor+3)^(0+1280),c
  7500  00571A  0E00               	movlw	0
  7501  00571C  6E0D               	movwf	(___aodiv@divisor+4)^(0+1280),c
  7502  00571E  0E00               	movlw	0
  7503  005720  6E0E               	movwf	(___aodiv@divisor+5)^(0+1280),c
  7504  005722  0E00               	movlw	0
  7505  005724  6E0F               	movwf	(___aodiv@divisor+6)^(0+1280),c
  7506  005726  0E00               	movlw	0
  7507  005728  6E10               	movwf	(___aodiv@divisor+7)^(0+1280),c
  7508  00572A  EC0D  F02E         	call	___aodiv	;wreg free
  7509  00572E  C501  F538         	movff	?___aodiv,dtoa@n
  7510  005732  C502  F539         	movff	?___aodiv+1,dtoa@n+1
  7511  005736  C503  F53A         	movff	?___aodiv+2,dtoa@n+2
  7512  00573A  C504  F53B         	movff	?___aodiv+3,dtoa@n+3
  7513  00573E  C505  F53C         	movff	?___aodiv+4,dtoa@n+4
  7514  005742  C506  F53D         	movff	?___aodiv+5,dtoa@n+5
  7515  005746  C507  F53E         	movff	?___aodiv+6,dtoa@n+6
  7516  00574A  C508  F53F         	movff	?___aodiv+7,dtoa@n+7
  7517  00574E                     l6161:
  7518                           
  7519                           ;C:\Program Files\Microchip\xc8\v2.32\pic\sources\c99\common\doprnt.c: 312:     while (!
      +                          (i < 1) && (n || (0 < p) || ((0 < w) && (flags & (1 << 1))))) {
  7520  00574E  BE41               	btfsc	(dtoa@i+1)^(0+1280),7,c
  7521  005750  EFB2  F02B         	goto	u5441
  7522  005754  5041               	movf	(dtoa@i+1)^(0+1280),w,c
  7523  005756  E108               	bnz	u5440
  7524  005758  0440               	decf	dtoa@i^(0+1280),w,c
  7525  00575A  A0D8               	btfss	status,0,c
  7526  00575C  EFB2  F02B         	goto	u5441
  7527  005760  EFB4  F02B         	goto	u5440
  7528  005764                     u5441:
  7529  005764  EFE5  F02B         	goto	l6171
  7530  005768                     u5440:
  7531  005768  5038               	movf	dtoa@n^(0+1280),w,c
  7532  00576A  1039               	iorwf	(dtoa@n+1)^(0+1280),w,c
  7533  00576C  103A               	iorwf	(dtoa@n+2)^(0+1280),w,c
  7534  00576E  103B               	iorwf	(dtoa@n+3)^(0+1280),w,c
  7535  005770  103C               	iorwf	(dtoa@n+4)^(0+1280),w,c
  7536  005772  103D               	iorwf	(dtoa@n+5)^(0+1280),w,c
  7537  005774  103E               	iorwf	(dtoa@n+6)^(0+1280),w,c
  7538  005776  103F               	iorwf	(dtoa@n+7)^(0+1280),w,c
  7539  005778  A4D8               	btfss	status,2,c
  7540  00577A  EFC1  F02B         	goto	u5451
  7541  00577E  EFC3  F02B         	goto	u5450
  7542  005782                     u5451:
  7543  005782  EF2B  F02B         	goto	l6151
  7544  005786                     u5450:
  7545  005786  BE33               	btfsc	(dtoa@p+1)^(0+1280),7,c
  7546  005788  EFD0  F02B         	goto	u5460
  7547  00578C  5033               	movf	(dtoa@p+1)^(0+1280),w,c
  7548  00578E  E106               	bnz	u5461
  7549  005790  0432               	decf	dtoa@p^(0+1280),w,c
  7550  005792  B0D8               	btfsc	status,0,c
  7551  005794  EFCE  F02B         	goto	u5461
  7552  005798  EFD0  F02B         	goto	u5460
  7553  00579C                     u5461:
  7554  00579C  EF2B  F02B         	goto	l6151
  7555  0057A0                     u5460:
  7556  0057A0  BE35               	btfsc	(dtoa@w+1)^(0+1280),7,c
  7557  0057A2  EFDB  F02B         	goto	u5471
  7558  0057A6  5035               	movf	(dtoa@w+1)^(0+1280),w,c
  7559  0057A8  E108               	bnz	u5470
  7560  0057AA  0434               	decf	dtoa@w^(0+1280),w,c
  7561  0057AC  A0D8               	btfss	status,0,c
  7562  0057AE  EFDB  F02B         	goto	u5471
  7563  0057B2  EFDD  F02B         	goto	u5470
  7564  0057B6                     u5471:
  7565  0057B6  EFE5  F02B         	goto	l6171
  7566  0057BA                     u5470:
  7567  0057BA  0105               	movlb	5	; () banked
  7568  0057BC  B3EC               	btfsc	_flags& (0+255),1,b
  7569  0057BE  EFE3  F02B         	goto	u5481
  7570  0057C2  EFE5  F02B         	goto	u5480
  7571  0057C6                     u5481:
  7572  0057C6  EF2B  F02B         	goto	l6151
  7573  0057CA                     u5480:
  7574  0057CA                     l6171:
  7575                           
  7576                           ;C:\Program Files\Microchip\xc8\v2.32\pic\sources\c99\common\doprnt.c: 321:     if (s ||
      +                           (flags & (1 << 2))) {
  7577  0057CA  5036               	movf	dtoa@s^(0+1280),w,c
  7578  0057CC  1037               	iorwf	(dtoa@s+1)^(0+1280),w,c
  7579  0057CE  A4D8               	btfss	status,2,c
  7580  0057D0  EFEC  F02B         	goto	u5491
  7581  0057D4  EFEE  F02B         	goto	u5490
  7582  0057D8                     u5491:
  7583  0057D8  EFF6  F02B         	goto	l6175
  7584  0057DC                     u5490:
  7585  0057DC  0105               	movlb	5	; () banked
  7586  0057DE  A5EC               	btfss	_flags& (0+255),2,b
  7587  0057E0  EFF4  F02B         	goto	u5501
  7588  0057E4  EFF6  F02B         	goto	u5500
  7589  0057E8                     u5501:
  7590  0057E8  EF15  F02C         	goto	l6185
  7591  0057EC                     u5500:
  7592  0057EC                     l6175:
  7593                           
  7594                           ;C:\Program Files\Microchip\xc8\v2.32\pic\sources\c99\common\doprnt.c: 322:         --i;
  7595  0057EC  0640               	decf	dtoa@i^(0+1280),f,c
  7596  0057EE  A0D8               	btfss	status,0,c
  7597  0057F0  0641               	decf	(dtoa@i+1)^(0+1280),f,c
  7598  0057F2                     
  7599                           ;C:\Program Files\Microchip\xc8\v2.32\pic\sources\c99\common\doprnt.c: 323:         dbuf
      +                          [i] = s ? '-' : '+';
  7600  0057F2  5036               	movf	dtoa@s^(0+1280),w,c
  7601  0057F4  1037               	iorwf	(dtoa@s+1)^(0+1280),w,c
  7602  0057F6  A4D8               	btfss	status,2,c
  7603  0057F8  EF00  F02C         	goto	u5511
  7604  0057FC  EF02  F02C         	goto	u5510
  7605  005800                     u5511:
  7606  005800  EF08  F02C         	goto	l6181
  7607  005804                     u5510:
  7608  005804  0E00               	movlw	0
  7609  005806  6E31               	movwf	(_dtoa$2493+1)^(0+1280),c
  7610  005808  0E2B               	movlw	43
  7611  00580A  6E30               	movwf	_dtoa$2493^(0+1280),c
  7612  00580C  EF0C  F02C         	goto	l6183
  7613  005810                     l6181:
  7614  005810  0E00               	movlw	0
  7615  005812  6E31               	movwf	(_dtoa$2493+1)^(0+1280),c
  7616  005814  0E2D               	movlw	45
  7617  005816  6E30               	movwf	_dtoa$2493^(0+1280),c
  7618  005818                     l6183:
  7619  005818  0E00               	movlw	low _dbuf
  7620  00581A  2440               	addwf	dtoa@i^(0+1280),w,c
  7621  00581C  6ED9               	movwf	fsr2l,c
  7622  00581E  0E06               	movlw	high _dbuf
  7623  005820  2041               	addwfc	(dtoa@i+1)^(0+1280),w,c
  7624  005822  6EDA               	movwf	fsr2h,c
  7625  005824  0061  F4C0  F4DF   	movff	_dtoa$2493,indf2
  7626  00582A                     l6185:
  7627                           
  7628                           ;C:\Program Files\Microchip\xc8\v2.32\pic\sources\c99\common\doprnt.c: 327:     return p
      +                          ad(fp, &dbuf[i], w);
  7629  00582A  C51E  F513         	movff	dtoa@fp,pad@fp
  7630  00582E  C51F  F514         	movff	dtoa@fp+1,pad@fp+1
  7631  005832  0E00               	movlw	low _dbuf
  7632  005834  2440               	addwf	dtoa@i^(0+1280),w,c
  7633  005836  6E15               	movwf	pad@buf^(0+1280),c
  7634  005838  0E06               	movlw	high _dbuf
  7635  00583A  2041               	addwfc	(dtoa@i+1)^(0+1280),w,c
  7636  00583C  6E16               	movwf	(pad@buf+1)^(0+1280),c
  7637  00583E  C534  F517         	movff	dtoa@w,pad@p
  7638  005842  C535  F518         	movff	dtoa@w+1,pad@p+1
  7639  005846  EC97  F032         	call	_pad	;wreg free
  7640  00584A  C513  F51E         	movff	?_pad,?_dtoa
  7641  00584E  C514  F51F         	movff	?_pad+1,?_dtoa+1
  7642  005852  0012               	return		;funcret
  7643  005854                     __end_of_dtoa:
  7644                           	callstack 0
  7645                           
  7646 ;; *************** function _pad *****************
  7647 ;; Defined at:
  7648 ;;		line 72 in file "C:\Program Files\Microchip\xc8\v2.32\pic\sources\c99\common\doprnt.c"
  7649 ;; Parameters:    Size  Location     Type
  7650 ;;  fp              2   18[COMRAM] PTR struct _IO_FILE
  7651 ;;		 -> sprintf@f(6), NULL(0), 
  7652 ;;  buf             2   20[COMRAM] PTR unsigned char 
  7653 ;;		 -> dbuf(80), 
  7654 ;;  p               2   22[COMRAM] int 
  7655 ;; Auto vars:     Size  Location     Type
  7656 ;;  w               2   27[COMRAM] int 
  7657 ;;  i               2   25[COMRAM] int 
  7658 ;; Return value:  Size  Location     Type
  7659 ;;                  2   18[COMRAM] int 
  7660 ;; Registers used:
  7661 ;;		wreg, fsr1l, fsr1h, fsr2l, fsr2h, status,2, status,0, cstack
  7662 ;; Tracked objects:
  7663 ;;		On entry : 0/0
  7664 ;;		On exit  : 0/0
  7665 ;;		Unchanged: 0/0
  7666 ;; Data sizes:     COMRAM   BANK5   BANK6   BANK7   BANK8   BANK9  BANK10  BANK11  BANK12  BANK13  BANK14  BANK15  BANK1
      +6  BANK17  BANK18  BANK19  BANK20  BANK21  BANK22  BANK23  BANK24  BANK25  BANK26  BANK27  BANK28  BANK29  BANK30  BANK3
      +1  BANK32  BANK33  BANK34  BANK35  BANK36  BANK37  BANK38  BANK39  BANK40  BANK41  BANK42  BANK43  BANK44  BANK45  BANK4
      +6  BANK47  BANK48  BANK49  BANK50  BANK51  BANK52  BANK53  BANK54
  7667 ;;      Params:         6       0       0       0       0       0       0       0       0       0       0       0       
      +0       0       0       0       0       0       0       0       0       0       0       0       0       0       0       
      +0       0       0       0       0       0       0       0       0       0       0       0       0       0       0       
      +0       0       0       0       0       0       0       0       0
  7668 ;;      Locals:         4       0       0       0       0       0       0       0       0       0       0       0       
      +0       0       0       0       0       0       0       0       0       0       0       0       0       0       0       
      +0       0       0       0       0       0       0       0       0       0       0       0       0       0       0       
      +0       0       0       0       0       0       0       0       0
  7669 ;;      Temps:          1       0       0       0       0       0       0       0       0       0       0       0       
      +0       0       0       0       0       0       0       0       0       0       0       0       0       0       0       
      +0       0       0       0       0       0       0       0       0       0       0       0       0       0       0       
      +0       0       0       0       0       0       0       0       0
  7670 ;;      Totals:        11       0       0       0       0       0       0       0       0       0       0       0       
      +0       0       0       0       0       0       0       0       0       0       0       0       0       0       0       
      +0       0       0       0       0       0       0       0       0       0       0       0       0       0       0       
      +0       0       0       0       0       0       0       0       0
  7671 ;;Total ram usage:       11 bytes
  7672 ;; Hardware stack levels used: 1
  7673 ;; Hardware stack levels required when called: 4
  7674 ;; This function calls:
  7675 ;;		_fputc
  7676 ;;		_fputs
  7677 ;;		_strlen
  7678 ;; This function is called by:
  7679 ;;		_dtoa
  7680 ;;		_efgtoa
  7681 ;; This function uses a non-reentrant model
  7682 ;;
  7683                           
  7684                           	psect	text23
  7685  00652E                     __ptext23:
  7686                           	callstack 0
  7687  00652E                     _pad:
  7688                           	callstack 118
  7689  00652E                     
  7690                           ;C:\Program Files\Microchip\xc8\v2.32\pic\sources\c99\common\doprnt.c: 72: static int pa
      +                          d(FILE *fp, char *buf, int p);C:\Program Files\Microchip\xc8\v2.32\pic\sources\c99\commo
      +                          n\doprnt.c: 73: {;C:\Program Files\Microchip\xc8\v2.32\pic\sources\c99\common\doprnt.c: 
      +                          74:     int i, w;;C:\Program Files\Microchip\xc8\v2.32\pic\sources\c99\common\doprnt.c: 
      +                          77:     if (flags & (1 << 0)) {
  7691  00652E  0105               	movlb	5	; () banked
  7692  006530  A1EC               	btfss	_flags& (0+255),0,b
  7693  006532  EF9D  F032         	goto	u5081
  7694  006536  EF9F  F032         	goto	u5080
  7695  00653A                     u5081:
  7696  00653A  EFA9  F032         	goto	l6027
  7697  00653E                     u5080:
  7698  00653E                     
  7699                           ; BSR set to: 5
  7700                           ;C:\Program Files\Microchip\xc8\v2.32\pic\sources\c99\common\doprnt.c: 78:         fputs
      +                          ((const char *)buf, fp);
  7701  00653E  C515  F50C         	movff	pad@buf,fputs@s
  7702  006542  C516  F50D         	movff	pad@buf+1,fputs@s+1
  7703  006546  C513  F50E         	movff	pad@fp,fputs@fp
  7704  00654A  C514  F50F         	movff	pad@fp+1,fputs@fp+1
  7705  00654E  ECDA  F035         	call	_fputs	;wreg free
  7706  006552                     l6027:
  7707                           
  7708                           ;C:\Program Files\Microchip\xc8\v2.32\pic\sources\c99\common\doprnt.c: 82:     w = (p < 
      +                          0) ? 0 : p;
  7709  006552  BE18               	btfsc	(pad@p+1)^(0+1280),7,c
  7710  006554  EFAE  F032         	goto	u5091
  7711  006558  EFB0  F032         	goto	u5090
  7712  00655C                     u5091:
  7713  00655C  EFB6  F032         	goto	l6031
  7714  006560                     u5090:
  7715  006560  C517  F51C         	movff	pad@p,pad@w
  7716  006564  C518  F51D         	movff	pad@p+1,pad@w+1
  7717  006568  EFBA  F032         	goto	l1881
  7718  00656C                     l6031:
  7719  00656C  0E00               	movlw	0
  7720  00656E  6E1D               	movwf	(pad@w+1)^(0+1280),c
  7721  006570  0E00               	movlw	0
  7722  006572  6E1C               	movwf	pad@w^(0+1280),c
  7723  006574                     l1881:
  7724                           
  7725                           ;C:\Program Files\Microchip\xc8\v2.32\pic\sources\c99\common\doprnt.c: 83:     i = 0;
  7726  006574  0E00               	movlw	0
  7727  006576  6E1B               	movwf	(pad@i+1)^(0+1280),c
  7728  006578  0E00               	movlw	0
  7729  00657A  6E1A               	movwf	pad@i^(0+1280),c
  7730                           
  7731                           ;C:\Program Files\Microchip\xc8\v2.32\pic\sources\c99\common\doprnt.c: 84:     while (i 
      +                          < w) {
  7732  00657C  EFCC  F032         	goto	l6037
  7733  006580                     l6033:
  7734                           
  7735                           ;C:\Program Files\Microchip\xc8\v2.32\pic\sources\c99\common\doprnt.c: 85:         fputc
      +                          (' ', fp);
  7736  006580  0E00               	movlw	0
  7737  006582  6E04               	movwf	(fputc@c+1)^(0+1280),c
  7738  006584  0E20               	movlw	32
  7739  006586  6E03               	movwf	fputc@c^(0+1280),c
  7740  006588  C513  F505         	movff	pad@fp,fputc@fp
  7741  00658C  C514  F506         	movff	pad@fp+1,fputc@fp+1
  7742  006590  EC2B  F032         	call	_fputc	;wreg free
  7743  006594                     
  7744                           ;C:\Program Files\Microchip\xc8\v2.32\pic\sources\c99\common\doprnt.c: 86:         ++i;
  7745  006594  4A1A               	infsnz	pad@i^(0+1280),f,c
  7746  006596  2A1B               	incf	(pad@i+1)^(0+1280),f,c
  7747  006598                     l6037:
  7748                           
  7749                           ;C:\Program Files\Microchip\xc8\v2.32\pic\sources\c99\common\doprnt.c: 84:     while (i 
      +                          < w) {
  7750  006598  501C               	movf	pad@w^(0+1280),w,c
  7751  00659A  5C1A               	subwf	pad@i^(0+1280),w,c
  7752  00659C  501B               	movf	(pad@i+1)^(0+1280),w,c
  7753  00659E  0A80               	xorlw	128
  7754  0065A0  6E19               	movwf	??_pad^(0+1280),c
  7755  0065A2  501D               	movf	(pad@w+1)^(0+1280),w,c
  7756  0065A4  0A80               	xorlw	128
  7757  0065A6  5819               	subwfb	??_pad^(0+1280),w,c
  7758  0065A8  A0D8               	btfss	status,0,c
  7759  0065AA  EFD9  F032         	goto	u5101
  7760  0065AE  EFDB  F032         	goto	u5100
  7761  0065B2                     u5101:
  7762  0065B2  EFC0  F032         	goto	l6033
  7763  0065B6                     u5100:
  7764  0065B6                     
  7765                           ;C:\Program Files\Microchip\xc8\v2.32\pic\sources\c99\common\doprnt.c: 90:     if (!(fla
      +                          gs & (1 << 0))) {
  7766  0065B6  0105               	movlb	5	; () banked
  7767  0065B8  B1EC               	btfsc	_flags& (0+255),0,b
  7768  0065BA  EFE1  F032         	goto	u5111
  7769  0065BE  EFE3  F032         	goto	u5110
  7770  0065C2                     u5111:
  7771  0065C2  EFED  F032         	goto	l6041
  7772  0065C6                     u5110:
  7773  0065C6                     
  7774                           ; BSR set to: 5
  7775                           ;C:\Program Files\Microchip\xc8\v2.32\pic\sources\c99\common\doprnt.c: 91:         fputs
      +                          ((const char *)buf, fp);
  7776  0065C6  C515  F50C         	movff	pad@buf,fputs@s
  7777  0065CA  C516  F50D         	movff	pad@buf+1,fputs@s+1
  7778  0065CE  C513  F50E         	movff	pad@fp,fputs@fp
  7779  0065D2  C514  F50F         	movff	pad@fp+1,fputs@fp+1
  7780  0065D6  ECDA  F035         	call	_fputs	;wreg free
  7781  0065DA                     l6041:
  7782                           
  7783                           ;C:\Program Files\Microchip\xc8\v2.32\pic\sources\c99\common\doprnt.c: 94:     return (i
      +                          nt)(strlen(buf) + (size_t)w);
  7784  0065DA  C515  F501         	movff	pad@buf,strlen@s
  7785  0065DE  C516  F502         	movff	pad@buf+1,strlen@s+1
  7786  0065E2  EC3B  F036         	call	_strlen	;wreg free
  7787  0065E6  501C               	movf	pad@w^(0+1280),w,c
  7788  0065E8  2401               	addwf	?_strlen^(0+1280),w,c
  7789  0065EA  6E13               	movwf	?_pad^(0+1280),c
  7790  0065EC  501D               	movf	(pad@w+1)^(0+1280),w,c
  7791  0065EE  2002               	addwfc	(?_strlen+1)^(0+1280),w,c
  7792  0065F0  6E14               	movwf	(?_pad+1)^(0+1280),c
  7793  0065F2  0012               	return		;funcret
  7794  0065F4                     __end_of_pad:
  7795                           	callstack 0
  7796                           
  7797 ;; *************** function _strlen *****************
  7798 ;; Defined at:
  7799 ;;		line 5 in file "C:\Program Files\Microchip\xc8\v2.32\pic\sources\c99\common\strlen.c"
  7800 ;; Parameters:    Size  Location     Type
  7801 ;;  s               2    0[COMRAM] PTR const unsigned char 
  7802 ;;		 -> dbuf(80), 
  7803 ;; Auto vars:     Size  Location     Type
  7804 ;;  a               2    2[COMRAM] PTR const unsigned char 
  7805 ;;		 -> dbuf(80), 
  7806 ;; Return value:  Size  Location     Type
  7807 ;;                  2    0[COMRAM] unsigned int 
  7808 ;; Registers used:
  7809 ;;		wreg, fsr2l, fsr2h, status,2, status,0
  7810 ;; Tracked objects:
  7811 ;;		On entry : 0/0
  7812 ;;		On exit  : 0/0
  7813 ;;		Unchanged: 0/0
  7814 ;; Data sizes:     COMRAM   BANK5   BANK6   BANK7   BANK8   BANK9  BANK10  BANK11  BANK12  BANK13  BANK14  BANK15  BANK1
      +6  BANK17  BANK18  BANK19  BANK20  BANK21  BANK22  BANK23  BANK24  BANK25  BANK26  BANK27  BANK28  BANK29  BANK30  BANK3
      +1  BANK32  BANK33  BANK34  BANK35  BANK36  BANK37  BANK38  BANK39  BANK40  BANK41  BANK42  BANK43  BANK44  BANK45  BANK4
      +6  BANK47  BANK48  BANK49  BANK50  BANK51  BANK52  BANK53  BANK54
  7815 ;;      Params:         2       0       0       0       0       0       0       0       0       0       0       0       
      +0       0       0       0       0       0       0       0       0       0       0       0       0       0       0       
      +0       0       0       0       0       0       0       0       0       0       0       0       0       0       0       
      +0       0       0       0       0       0       0       0       0
  7816 ;;      Locals:         2       0       0       0       0       0       0       0       0       0       0       0       
      +0       0       0       0       0       0       0       0       0       0       0       0       0       0       0       
      +0       0       0       0       0       0       0       0       0       0       0       0       0       0       0       
      +0       0       0       0       0       0       0       0       0
  7817 ;;      Temps:          0       0       0       0       0       0       0       0       0       0       0       0       
      +0       0       0       0       0       0       0       0       0       0       0       0       0       0       0       
      +0       0       0       0       0       0       0       0       0       0       0       0       0       0       0       
      +0       0       0       0       0       0       0       0       0
  7818 ;;      Totals:         4       0       0       0       0       0       0       0       0       0       0       0       
      +0       0       0       0       0       0       0       0       0       0       0       0       0       0       0       
      +0       0       0       0       0       0       0       0       0       0       0       0       0       0       0       
      +0       0       0       0       0       0       0       0       0
  7819 ;;Total ram usage:        4 bytes
  7820 ;; Hardware stack levels used: 1
  7821 ;; This function calls:
  7822 ;;		Nothing
  7823 ;; This function is called by:
  7824 ;;		_pad
  7825 ;; This function uses a non-reentrant model
  7826 ;;
  7827                           
  7828                           	psect	text24
  7829  006C76                     __ptext24:
  7830                           	callstack 0
  7831  006C76                     _strlen:
  7832                           	callstack 121
  7833  006C76  C501  F503         	movff	strlen@s,strlen@a
  7834  006C7A  C502  F504         	movff	strlen@s+1,strlen@a+1
  7835  006C7E  EF43  F036         	goto	l5417
  7836  006C82                     l5415:
  7837  006C82  4A01               	infsnz	strlen@s^(0+1280),f,c
  7838  006C84  2A02               	incf	(strlen@s+1)^(0+1280),f,c
  7839  006C86                     l5417:
  7840  006C86  0061  F404  F4D9   	movff	strlen@s,fsr2l
  7841  006C8C  0061  F408  F4DA   	movff	strlen@s+1,fsr2h
  7842  006C92  50DF               	movf	indf2,w,c
  7843  006C94  A4D8               	btfss	status,2,c
  7844  006C96  EF4F  F036         	goto	u4201
  7845  006C9A  EF51  F036         	goto	u4200
  7846  006C9E                     u4201:
  7847  006C9E  EF41  F036         	goto	l5415
  7848  006CA2                     u4200:
  7849  006CA2  5003               	movf	strlen@a^(0+1280),w,c
  7850  006CA4  5C01               	subwf	strlen@s^(0+1280),w,c
  7851  006CA6  6E01               	movwf	?_strlen^(0+1280),c
  7852  006CA8  5004               	movf	(strlen@a+1)^(0+1280),w,c
  7853  006CAA  5802               	subwfb	(strlen@s+1)^(0+1280),w,c
  7854  006CAC  6E02               	movwf	(?_strlen+1)^(0+1280),c
  7855  006CAE  0012               	return		;funcret
  7856  006CB0                     __end_of_strlen:
  7857                           	callstack 0
  7858                           
  7859 ;; *************** function _fputs *****************
  7860 ;; Defined at:
  7861 ;;		line 8 in file "C:\Program Files\Microchip\xc8\v2.32\pic\sources\c99\common\nf_fputs.c"
  7862 ;; Parameters:    Size  Location     Type
  7863 ;;  s               2   11[COMRAM] PTR const unsigned char 
  7864 ;;		 -> dbuf(80), 
  7865 ;;  fp              2   13[COMRAM] PTR struct _IO_FILE
  7866 ;;		 -> sprintf@f(6), NULL(0), 
  7867 ;; Auto vars:     Size  Location     Type
  7868 ;;  i               2   16[COMRAM] int 
  7869 ;;  c               1   15[COMRAM] unsigned char 
  7870 ;; Return value:  Size  Location     Type
  7871 ;;                  2   11[COMRAM] int 
  7872 ;; Registers used:
  7873 ;;		wreg, fsr1l, fsr1h, fsr2l, fsr2h, status,2, status,0, cstack
  7874 ;; Tracked objects:
  7875 ;;		On entry : 0/0
  7876 ;;		On exit  : 0/0
  7877 ;;		Unchanged: 0/0
  7878 ;; Data sizes:     COMRAM   BANK5   BANK6   BANK7   BANK8   BANK9  BANK10  BANK11  BANK12  BANK13  BANK14  BANK15  BANK1
      +6  BANK17  BANK18  BANK19  BANK20  BANK21  BANK22  BANK23  BANK24  BANK25  BANK26  BANK27  BANK28  BANK29  BANK30  BANK3
      +1  BANK32  BANK33  BANK34  BANK35  BANK36  BANK37  BANK38  BANK39  BANK40  BANK41  BANK42  BANK43  BANK44  BANK45  BANK4
      +6  BANK47  BANK48  BANK49  BANK50  BANK51  BANK52  BANK53  BANK54
  7879 ;;      Params:         4       0       0       0       0       0       0       0       0       0       0       0       
      +0       0       0       0       0       0       0       0       0       0       0       0       0       0       0       
      +0       0       0       0       0       0       0       0       0       0       0       0       0       0       0       
      +0       0       0       0       0       0       0       0       0
  7880 ;;      Locals:         3       0       0       0       0       0       0       0       0       0       0       0       
      +0       0       0       0       0       0       0       0       0       0       0       0       0       0       0       
      +0       0       0       0       0       0       0       0       0       0       0       0       0       0       0       
      +0       0       0       0       0       0       0       0       0
  7881 ;;      Temps:          0       0       0       0       0       0       0       0       0       0       0       0       
      +0       0       0       0       0       0       0       0       0       0       0       0       0       0       0       
      +0       0       0       0       0       0       0       0       0       0       0       0       0       0       0       
      +0       0       0       0       0       0       0       0       0
  7882 ;;      Totals:         7       0       0       0       0       0       0       0       0       0       0       0       
      +0       0       0       0       0       0       0       0       0       0       0       0       0       0       0       
      +0       0       0       0       0       0       0       0       0       0       0       0       0       0       0       
      +0       0       0       0       0       0       0       0       0
  7883 ;;Total ram usage:        7 bytes
  7884 ;; Hardware stack levels used: 1
  7885 ;; Hardware stack levels required when called: 3
  7886 ;; This function calls:
  7887 ;;		_fputc
  7888 ;; This function is called by:
  7889 ;;		_pad
  7890 ;; This function uses a non-reentrant model
  7891 ;;
  7892                           
  7893                           	psect	text25
  7894  006BB4                     __ptext25:
  7895                           	callstack 0
  7896  006BB4                     _fputs:
  7897                           	callstack 118
  7898  006BB4  0E00               	movlw	0
  7899  006BB6  6E12               	movwf	(fputs@i+1)^(0+1280),c
  7900  006BB8  0E00               	movlw	0
  7901  006BBA  6E11               	movwf	fputs@i^(0+1280),c
  7902  006BBC  EFEB  F035         	goto	l5411
  7903  006BC0                     l5407:
  7904  006BC0  C510  F503         	movff	fputs@c,fputc@c
  7905  006BC4  6A04               	clrf	(fputc@c+1)^(0+1280),c
  7906  006BC6  C50E  F505         	movff	fputs@fp,fputc@fp
  7907  006BCA  C50F  F506         	movff	fputs@fp+1,fputc@fp+1
  7908  006BCE  EC2B  F032         	call	_fputc	;wreg free
  7909  006BD2  4A11               	infsnz	fputs@i^(0+1280),f,c
  7910  006BD4  2A12               	incf	(fputs@i+1)^(0+1280),f,c
  7911  006BD6                     l5411:
  7912  006BD6  5011               	movf	fputs@i^(0+1280),w,c
  7913  006BD8  240C               	addwf	fputs@s^(0+1280),w,c
  7914  006BDA  6ED9               	movwf	fsr2l,c
  7915  006BDC  5012               	movf	(fputs@i+1)^(0+1280),w,c
  7916  006BDE  200D               	addwfc	(fputs@s+1)^(0+1280),w,c
  7917  006BE0  6EDA               	movwf	fsr2h,c
  7918  006BE2  50DF               	movf	indf2,w,c
  7919  006BE4  6E10               	movwf	fputs@c^(0+1280),c
  7920  006BE6  5010               	movf	fputs@c^(0+1280),w,c
  7921  006BE8  A4D8               	btfss	status,2,c
  7922  006BEA  EFF9  F035         	goto	u4191
  7923  006BEE  EFFB  F035         	goto	u4190
  7924  006BF2                     u4191:
  7925  006BF2  EFE0  F035         	goto	l5407
  7926  006BF6                     u4190:
  7927  006BF6  0012               	return		;funcret
  7928  006BF8                     __end_of_fputs:
  7929                           	callstack 0
  7930                           
  7931 ;; *************** function _fputc *****************
  7932 ;; Defined at:
  7933 ;;		line 8 in file "C:\Program Files\Microchip\xc8\v2.32\pic\sources\c99\common\nf_fputc.c"
  7934 ;; Parameters:    Size  Location     Type
  7935 ;;  c               2    2[COMRAM] int 
  7936 ;;  fp              2    4[COMRAM] PTR struct _IO_FILE
  7937 ;;		 -> sprintf@f(6), NULL(0), 
  7938 ;; Auto vars:     Size  Location     Type
  7939 ;;		None
  7940 ;; Return value:  Size  Location     Type
  7941 ;;                  2    2[COMRAM] int 
  7942 ;; Registers used:
  7943 ;;		wreg, fsr1l, fsr1h, fsr2l, fsr2h, status,2, status,0, cstack
  7944 ;; Tracked objects:
  7945 ;;		On entry : 0/0
  7946 ;;		On exit  : 0/0
  7947 ;;		Unchanged: 0/0
  7948 ;; Data sizes:     COMRAM   BANK5   BANK6   BANK7   BANK8   BANK9  BANK10  BANK11  BANK12  BANK13  BANK14  BANK15  BANK1
      +6  BANK17  BANK18  BANK19  BANK20  BANK21  BANK22  BANK23  BANK24  BANK25  BANK26  BANK27  BANK28  BANK29  BANK30  BANK3
      +1  BANK32  BANK33  BANK34  BANK35  BANK36  BANK37  BANK38  BANK39  BANK40  BANK41  BANK42  BANK43  BANK44  BANK45  BANK4
      +6  BANK47  BANK48  BANK49  BANK50  BANK51  BANK52  BANK53  BANK54
  7949 ;;      Params:         4       0       0       0       0       0       0       0       0       0       0       0       
      +0       0       0       0       0       0       0       0       0       0       0       0       0       0       0       
      +0       0       0       0       0       0       0       0       0       0       0       0       0       0       0       
      +0       0       0       0       0       0       0       0       0
  7950 ;;      Locals:         0       0       0       0       0       0       0       0       0       0       0       0       
      +0       0       0       0       0       0       0       0       0       0       0       0       0       0       0       
      +0       0       0       0       0       0       0       0       0       0       0       0       0       0       0       
      +0       0       0       0       0       0       0       0       0
  7951 ;;      Temps:          5       0       0       0       0       0       0       0       0       0       0       0       
      +0       0       0       0       0       0       0       0       0       0       0       0       0       0       0       
      +0       0       0       0       0       0       0       0       0       0       0       0       0       0       0       
      +0       0       0       0       0       0       0       0       0
  7952 ;;      Totals:         9       0       0       0       0       0       0       0       0       0       0       0       
      +0       0       0       0       0       0       0       0       0       0       0       0       0       0       0       
      +0       0       0       0       0       0       0       0       0       0       0       0       0       0       0       
      +0       0       0       0       0       0       0       0       0
  7953 ;;Total ram usage:        9 bytes
  7954 ;; Hardware stack levels used: 1
  7955 ;; Hardware stack levels required when called: 2
  7956 ;; This function calls:
  7957 ;;		_putch
  7958 ;; This function is called by:
  7959 ;;		_pad
  7960 ;;		_vfpfcnvrt
  7961 ;;		_fputs
  7962 ;; This function uses a non-reentrant model
  7963 ;;
  7964                           
  7965                           	psect	text26
  7966  006456                     __ptext26:
  7967                           	callstack 0
  7968  006456                     _fputc:
  7969                           	callstack 121
  7970  006456  5005               	movf	fputc@fp^(0+1280),w,c
  7971  006458  1006               	iorwf	(fputc@fp+1)^(0+1280),w,c
  7972  00645A  B4D8               	btfsc	status,2,c
  7973  00645C  EF32  F032         	goto	u3731
  7974  006460  EF34  F032         	goto	u3730
  7975  006464                     u3731:
  7976  006464  EF3D  F032         	goto	l5151
  7977  006468                     u3730:
  7978  006468  5005               	movf	fputc@fp^(0+1280),w,c
  7979  00646A  1006               	iorwf	(fputc@fp+1)^(0+1280),w,c
  7980  00646C  A4D8               	btfss	status,2,c
  7981  00646E  EF3B  F032         	goto	u3741
  7982  006472  EF3D  F032         	goto	u3740
  7983  006476                     u3741:
  7984  006476  EF42  F032         	goto	l5153
  7985  00647A                     u3740:
  7986  00647A                     l5151:
  7987  00647A  5003               	movf	fputc@c^(0+1280),w,c
  7988  00647C  EC36  F037         	call	_putch
  7989  006480  EF96  F032         	goto	l2078
  7990  006484                     l5153:
  7991  006484  EE20 F004          	lfsr	2,4
  7992  006488  5005               	movf	fputc@fp^(0+1280),w,c
  7993  00648A  26D9               	addwf	fsr2l,f,c
  7994  00648C  5006               	movf	(fputc@fp+1)^(0+1280),w,c
  7995  00648E  22DA               	addwfc	fsr2h,f,c
  7996  006490  50DE               	movf	postinc2,w,c
  7997  006492  10DE               	iorwf	postinc2,w,c
  7998  006494  B4D8               	btfsc	status,2,c
  7999  006496  EF4F  F032         	goto	u3751
  8000  00649A  EF51  F032         	goto	u3750
  8001  00649E                     u3751:
  8002  00649E  EF6C  F032         	goto	l5157
  8003  0064A2                     u3750:
  8004  0064A2  EE20 F004          	lfsr	2,4
  8005  0064A6  5005               	movf	fputc@fp^(0+1280),w,c
  8006  0064A8  26D9               	addwf	fsr2l,f,c
  8007  0064AA  5006               	movf	(fputc@fp+1)^(0+1280),w,c
  8008  0064AC  22DA               	addwfc	fsr2h,f,c
  8009  0064AE  EE10 F002          	lfsr	1,2
  8010  0064B2  5005               	movf	fputc@fp^(0+1280),w,c
  8011  0064B4  26E1               	addwf	fsr1l,f,c
  8012  0064B6  5006               	movf	(fputc@fp+1)^(0+1280),w,c
  8013  0064B8  22E2               	addwfc	fsr1h,f,c
  8014  0064BA  50DE               	movf	postinc2,w,c
  8015  0064BC  5CE6               	subwf	postinc1,w,c
  8016  0064BE  50E6               	movf	postinc1,w,c
  8017  0064C0  0A80               	xorlw	128
  8018  0064C2  6E0B               	movwf	(??_fputc+4)^(0+1280),c
  8019  0064C4  50DE               	movf	postinc2,w,c
  8020  0064C6  0A80               	xorlw	128
  8021  0064C8  580B               	subwfb	(??_fputc+4)^(0+1280),w,c
  8022  0064CA  B0D8               	btfsc	status,0,c
  8023  0064CC  EF6A  F032         	goto	u3761
  8024  0064D0  EF6C  F032         	goto	u3760
  8025  0064D4                     u3761:
  8026  0064D4  EF96  F032         	goto	l2078
  8027  0064D8                     u3760:
  8028  0064D8                     l5157:
  8029  0064D8  EE20 F002          	lfsr	2,2
  8030  0064DC  5005               	movf	fputc@fp^(0+1280),w,c
  8031  0064DE  26D9               	addwf	fsr2l,f,c
  8032  0064E0  5006               	movf	(fputc@fp+1)^(0+1280),w,c
  8033  0064E2  22DA               	addwfc	fsr2h,f,c
  8034  0064E4  0061 F378  F507    	movff	postinc2,??_fputc
  8035  0064EA  0061 F374  F508    	movff	postdec2,??_fputc+1
  8036  0064F0  0061  F414  F4D9   	movff	fputc@fp,fsr2l
  8037  0064F6  0061  F418  F4DA   	movff	fputc@fp+1,fsr2h
  8038  0064FC  0061 F378  F509    	movff	postinc2,??_fputc+2
  8039  006502  0061 F374  F50A    	movff	postdec2,??_fputc+3
  8040  006508  5007               	movf	??_fputc^(0+1280),w,c
  8041  00650A  2409               	addwf	(??_fputc+2)^(0+1280),w,c
  8042  00650C  6ED9               	movwf	fsr2l,c
  8043  00650E  5008               	movf	(??_fputc+1)^(0+1280),w,c
  8044  006510  200A               	addwfc	(??_fputc+3)^(0+1280),w,c
  8045  006512  6EDA               	movwf	fsr2h,c
  8046  006514  0061  F40C  F4DF   	movff	fputc@c,indf2
  8047  00651A  EE20 F002          	lfsr	2,2
  8048  00651E  5005               	movf	fputc@fp^(0+1280),w,c
  8049  006520  26D9               	addwf	fsr2l,f,c
  8050  006522  5006               	movf	(fputc@fp+1)^(0+1280),w,c
  8051  006524  22DA               	addwfc	fsr2h,f,c
  8052  006526  2ADE               	incf	postinc2,f,c
  8053  006528  0E00               	movlw	0
  8054  00652A  22DD               	addwfc	postdec2,f,c
  8055  00652C                     l2078:
  8056  00652C  0012               	return		;funcret
  8057  00652E                     __end_of_fputc:
  8058                           	callstack 0
  8059                           
  8060 ;; *************** function _putch *****************
  8061 ;; Defined at:
  8062 ;;		line 184 in file "mcc_generated_files/uart1.c"
  8063 ;; Parameters:    Size  Location     Type
  8064 ;;  txData          1    wreg     unsigned char 
  8065 ;; Auto vars:     Size  Location     Type
  8066 ;;  txData          1    1[COMRAM] unsigned char 
  8067 ;; Return value:  Size  Location     Type
  8068 ;;                  1    wreg      void 
  8069 ;; Registers used:
  8070 ;;		wreg, status,2, cstack
  8071 ;; Tracked objects:
  8072 ;;		On entry : 0/0
  8073 ;;		On exit  : 0/0
  8074 ;;		Unchanged: 0/0
  8075 ;; Data sizes:     COMRAM   BANK5   BANK6   BANK7   BANK8   BANK9  BANK10  BANK11  BANK12  BANK13  BANK14  BANK15  BANK1
      +6  BANK17  BANK18  BANK19  BANK20  BANK21  BANK22  BANK23  BANK24  BANK25  BANK26  BANK27  BANK28  BANK29  BANK30  BANK3
      +1  BANK32  BANK33  BANK34  BANK35  BANK36  BANK37  BANK38  BANK39  BANK40  BANK41  BANK42  BANK43  BANK44  BANK45  BANK4
      +6  BANK47  BANK48  BANK49  BANK50  BANK51  BANK52  BANK53  BANK54
  8076 ;;      Params:         0       0       0       0       0       0       0       0       0       0       0       0       
      +0       0       0       0       0       0       0       0       0       0       0       0       0       0       0       
      +0       0       0       0       0       0       0       0       0       0       0       0       0       0       0       
      +0       0       0       0       0       0       0       0       0
  8077 ;;      Locals:         1       0       0       0       0       0       0       0       0       0       0       0       
      +0       0       0       0       0       0       0       0       0       0       0       0       0       0       0       
      +0       0       0       0       0       0       0       0       0       0       0       0       0       0       0       
      +0       0       0       0       0       0       0       0       0
  8078 ;;      Temps:          0       0       0       0       0       0       0       0       0       0       0       0       
      +0       0       0       0       0       0       0       0       0       0       0       0       0       0       0       
      +0       0       0       0       0       0       0       0       0       0       0       0       0       0       0       
      +0       0       0       0       0       0       0       0       0
  8079 ;;      Totals:         1       0       0       0       0       0       0       0       0       0       0       0       
      +0       0       0       0       0       0       0       0       0       0       0       0       0       0       0       
      +0       0       0       0       0       0       0       0       0       0       0       0       0       0       0       
      +0       0       0       0       0       0       0       0       0
  8080 ;;Total ram usage:        1 bytes
  8081 ;; Hardware stack levels used: 1
  8082 ;; Hardware stack levels required when called: 1
  8083 ;; This function calls:
  8084 ;;		_UART1_Write
  8085 ;; This function is called by:
  8086 ;;		_fputc
  8087 ;; This function uses a non-reentrant model
  8088 ;;
  8089                           
  8090                           	psect	text27
  8091  006E6C                     __ptext27:
  8092                           	callstack 0
  8093  006E6C                     _putch:
  8094                           	callstack 121
  8095                           
  8096                           ;incstack = 0
  8097                           ;putch@txData stored from wreg
  8098  006E6C  6E02               	movwf	putch@txData^(0+1280),c
  8099  006E6E                     
  8100                           ;mcc_generated_files/uart1.c: 184: void putch(char txData);mcc_generated_files/uart1.c: 
      +                          185: {;mcc_generated_files/uart1.c: 186:     UART1_Write(txData);
  8101  006E6E  5002               	movf	putch@txData^(0+1280),w,c
  8102  006E70  ECF4  F036         	call	_UART1_Write
  8103  006E74  0012               	return		;funcret
  8104  006E76                     __end_of_putch:
  8105                           	callstack 0
  8106                           
  8107 ;; *************** function _UART1_Write *****************
  8108 ;; Defined at:
  8109 ;;		line 170 in file "mcc_generated_files/uart1.c"
  8110 ;; Parameters:    Size  Location     Type
  8111 ;;  txData          1    wreg     unsigned char 
  8112 ;; Auto vars:     Size  Location     Type
  8113 ;;  txData          1    0[COMRAM] unsigned char 
  8114 ;; Return value:  Size  Location     Type
  8115 ;;                  1    wreg      void 
  8116 ;; Registers used:
  8117 ;;		wreg
  8118 ;; Tracked objects:
  8119 ;;		On entry : 0/0
  8120 ;;		On exit  : 0/0
  8121 ;;		Unchanged: 0/0
  8122 ;; Data sizes:     COMRAM   BANK5   BANK6   BANK7   BANK8   BANK9  BANK10  BANK11  BANK12  BANK13  BANK14  BANK15  BANK1
      +6  BANK17  BANK18  BANK19  BANK20  BANK21  BANK22  BANK23  BANK24  BANK25  BANK26  BANK27  BANK28  BANK29  BANK30  BANK3
      +1  BANK32  BANK33  BANK34  BANK35  BANK36  BANK37  BANK38  BANK39  BANK40  BANK41  BANK42  BANK43  BANK44  BANK45  BANK4
      +6  BANK47  BANK48  BANK49  BANK50  BANK51  BANK52  BANK53  BANK54
  8123 ;;      Params:         0       0       0       0       0       0       0       0       0       0       0       0       
      +0       0       0       0       0       0       0       0       0       0       0       0       0       0       0       
      +0       0       0       0       0       0       0       0       0       0       0       0       0       0       0       
      +0       0       0       0       0       0       0       0       0
  8124 ;;      Locals:         1       0       0       0       0       0       0       0       0       0       0       0       
      +0       0       0       0       0       0       0       0       0       0       0       0       0       0       0       
      +0       0       0       0       0       0       0       0       0       0       0       0       0       0       0       
      +0       0       0       0       0       0       0       0       0
  8125 ;;      Temps:          0       0       0       0       0       0       0       0       0       0       0       0       
      +0       0       0       0       0       0       0       0       0       0       0       0       0       0       0       
      +0       0       0       0       0       0       0       0       0       0       0       0       0       0       0       
      +0       0       0       0       0       0       0       0       0
  8126 ;;      Totals:         1       0       0       0       0       0       0       0       0       0       0       0       
      +0       0       0       0       0       0       0       0       0       0       0       0       0       0       0       
      +0       0       0       0       0       0       0       0       0       0       0       0       0       0       0       
      +0       0       0       0       0       0       0       0       0
  8127 ;;Total ram usage:        1 bytes
  8128 ;; Hardware stack levels used: 1
  8129 ;; This function calls:
  8130 ;;		Nothing
  8131 ;; This function is called by:
  8132 ;;		_putch
  8133 ;; This function uses a non-reentrant model
  8134 ;;
  8135                           
  8136                           	psect	text28
  8137  006DE8                     __ptext28:
  8138                           	callstack 0
  8139  006DE8                     _UART1_Write:
  8140                           	callstack 121
  8141                           
  8142                           ;incstack = 0
  8143                           ;UART1_Write@txData stored from wreg
  8144  006DE8  6E01               	movwf	UART1_Write@txData^(0+1280),c
  8145  006DEA                     l768:
  8146                           
  8147                           ;mcc_generated_files/uart1.c: 172:     while(0 == PIR4bits.U1TXIF)
  8148  006DEA  A2B2               	btfss	178,1,c	;volatile
  8149  006DEC  EFFA  F036         	goto	u3631
  8150  006DF0  EFFC  F036         	goto	u3630
  8151  006DF4                     u3631:
  8152  006DF4  EFF5  F036         	goto	l768
  8153  006DF8                     u3630:
  8154  006DF8                     
  8155                           ;mcc_generated_files/uart1.c: 176:     U1TXB = txData;
  8156  006DF8  0061  F404  F2A3   	movff	UART1_Write@txData,675	;volatile
  8157  006DFE  0012               	return		;funcret
  8158  006E00                     __end_of_UART1_Write:
  8159                           	callstack 0
  8160                           
  8161 ;; *************** function _abs *****************
  8162 ;; Defined at:
  8163 ;;		line 1 in file "C:\Program Files\Microchip\xc8\v2.32\pic\sources\c99\common\abs.c"
  8164 ;; Parameters:    Size  Location     Type
  8165 ;;  a               2   18[COMRAM] int 
  8166 ;; Auto vars:     Size  Location     Type
  8167 ;;		None
  8168 ;; Return value:  Size  Location     Type
  8169 ;;                  2   18[COMRAM] int 
  8170 ;; Registers used:
  8171 ;;		wreg, status,2, status,0
  8172 ;; Tracked objects:
  8173 ;;		On entry : 0/0
  8174 ;;		On exit  : 0/0
  8175 ;;		Unchanged: 0/0
  8176 ;; Data sizes:     COMRAM   BANK5   BANK6   BANK7   BANK8   BANK9  BANK10  BANK11  BANK12  BANK13  BANK14  BANK15  BANK1
      +6  BANK17  BANK18  BANK19  BANK20  BANK21  BANK22  BANK23  BANK24  BANK25  BANK26  BANK27  BANK28  BANK29  BANK30  BANK3
      +1  BANK32  BANK33  BANK34  BANK35  BANK36  BANK37  BANK38  BANK39  BANK40  BANK41  BANK42  BANK43  BANK44  BANK45  BANK4
      +6  BANK47  BANK48  BANK49  BANK50  BANK51  BANK52  BANK53  BANK54
  8177 ;;      Params:         2       0       0       0       0       0       0       0       0       0       0       0       
      +0       0       0       0       0       0       0       0       0       0       0       0       0       0       0       
      +0       0       0       0       0       0       0       0       0       0       0       0       0       0       0       
      +0       0       0       0       0       0       0       0       0
  8178 ;;      Locals:         0       0       0       0       0       0       0       0       0       0       0       0       
      +0       0       0       0       0       0       0       0       0       0       0       0       0       0       0       
      +0       0       0       0       0       0       0       0       0       0       0       0       0       0       0       
      +0       0       0       0       0       0       0       0       0
  8179 ;;      Temps:          2       0       0       0       0       0       0       0       0       0       0       0       
      +0       0       0       0       0       0       0       0       0       0       0       0       0       0       0       
      +0       0       0       0       0       0       0       0       0       0       0       0       0       0       0       
      +0       0       0       0       0       0       0       0       0
  8180 ;;      Totals:         4       0       0       0       0       0       0       0       0       0       0       0       
      +0       0       0       0       0       0       0       0       0       0       0       0       0       0       0       
      +0       0       0       0       0       0       0       0       0       0       0       0       0       0       0       
      +0       0       0       0       0       0       0       0       0
  8181 ;;Total ram usage:        4 bytes
  8182 ;; Hardware stack levels used: 1
  8183 ;; This function calls:
  8184 ;;		Nothing
  8185 ;; This function is called by:
  8186 ;;		_dtoa
  8187 ;; This function uses a non-reentrant model
  8188 ;;
  8189                           
  8190                           	psect	text29
  8191  006BF8                     __ptext29:
  8192                           	callstack 0
  8193  006BF8                     _abs:
  8194                           	callstack 122
  8195  006BF8  BE14               	btfsc	(abs@a+1)^(0+1280),7,c
  8196  006BFA  EF09  F036         	goto	u5120
  8197  006BFE  5014               	movf	(abs@a+1)^(0+1280),w,c
  8198  006C00  E106               	bnz	u5121
  8199  006C02  0413               	decf	abs@a^(0+1280),w,c
  8200  006C04  B0D8               	btfsc	status,0,c
  8201  006C06  EF07  F036         	goto	u5121
  8202  006C0A  EF09  F036         	goto	u5120
  8203  006C0E                     u5121:
  8204  006C0E  EF17  F036         	goto	l2044
  8205  006C12                     u5120:
  8206  006C12  C513  F515         	movff	abs@a,??_abs
  8207  006C16  C514  F516         	movff	abs@a+1,??_abs+1
  8208  006C1A  1E15               	comf	??_abs^(0+1280),f,c
  8209  006C1C  1E16               	comf	(??_abs+1)^(0+1280),f,c
  8210  006C1E  4A15               	infsnz	??_abs^(0+1280),f,c
  8211  006C20  2A16               	incf	(??_abs+1)^(0+1280),f,c
  8212  006C22  C515  F513         	movff	??_abs,?_abs
  8213  006C26  C516  F514         	movff	??_abs+1,?_abs+1
  8214  006C2A  EF1B  F036         	goto	l2047
  8215  006C2E                     l2044:
  8216  006C2E  C513  F513         	movff	abs@a,?_abs
  8217  006C32  C514  F514         	movff	abs@a+1,?_abs+1
  8218  006C36                     l2047:
  8219  006C36  0012               	return		;funcret
  8220  006C38                     __end_of_abs:
  8221                           	callstack 0
  8222                           
  8223 ;; *************** function ___aomod *****************
  8224 ;; Defined at:
  8225 ;;		line 9 in file "C:\Program Files\Microchip\xc8\v2.32\pic\sources\c99\common\aomod.c"
  8226 ;; Parameters:    Size  Location     Type
  8227 ;;  dividend        8    0[COMRAM] long long 
  8228 ;;  divisor         8    8[COMRAM] long long 
  8229 ;; Auto vars:     Size  Location     Type
  8230 ;;  sign            1   17[COMRAM] unsigned char 
  8231 ;;  counter         1   16[COMRAM] unsigned char 
  8232 ;; Return value:  Size  Location     Type
  8233 ;;                  8    0[COMRAM] long long 
  8234 ;; Registers used:
  8235 ;;		wreg, status,2, status,0
  8236 ;; Tracked objects:
  8237 ;;		On entry : 0/0
  8238 ;;		On exit  : 0/0
  8239 ;;		Unchanged: 0/0
  8240 ;; Data sizes:     COMRAM   BANK5   BANK6   BANK7   BANK8   BANK9  BANK10  BANK11  BANK12  BANK13  BANK14  BANK15  BANK1
      +6  BANK17  BANK18  BANK19  BANK20  BANK21  BANK22  BANK23  BANK24  BANK25  BANK26  BANK27  BANK28  BANK29  BANK30  BANK3
      +1  BANK32  BANK33  BANK34  BANK35  BANK36  BANK37  BANK38  BANK39  BANK40  BANK41  BANK42  BANK43  BANK44  BANK45  BANK4
      +6  BANK47  BANK48  BANK49  BANK50  BANK51  BANK52  BANK53  BANK54
  8241 ;;      Params:        16       0       0       0       0       0       0       0       0       0       0       0       
      +0       0       0       0       0       0       0       0       0       0       0       0       0       0       0       
      +0       0       0       0       0       0       0       0       0       0       0       0       0       0       0       
      +0       0       0       0       0       0       0       0       0
  8242 ;;      Locals:         2       0       0       0       0       0       0       0       0       0       0       0       
      +0       0       0       0       0       0       0       0       0       0       0       0       0       0       0       
      +0       0       0       0       0       0       0       0       0       0       0       0       0       0       0       
      +0       0       0       0       0       0       0       0       0
  8243 ;;      Temps:          0       0       0       0       0       0       0       0       0       0       0       0       
      +0       0       0       0       0       0       0       0       0       0       0       0       0       0       0       
      +0       0       0       0       0       0       0       0       0       0       0       0       0       0       0       
      +0       0       0       0       0       0       0       0       0
  8244 ;;      Totals:        18       0       0       0       0       0       0       0       0       0       0       0       
      +0       0       0       0       0       0       0       0       0       0       0       0       0       0       0       
      +0       0       0       0       0       0       0       0       0       0       0       0       0       0       0       
      +0       0       0       0       0       0       0       0       0
  8245 ;;Total ram usage:       18 bytes
  8246 ;; Hardware stack levels used: 1
  8247 ;; This function calls:
  8248 ;;		Nothing
  8249 ;; This function is called by:
  8250 ;;		_dtoa
  8251 ;; This function uses a non-reentrant model
  8252 ;;
  8253                           
  8254                           	psect	text30
  8255  005DA2                     __ptext30:
  8256                           	callstack 0
  8257  005DA2                     ___aomod:
  8258                           	callstack 122
  8259  005DA2  0E00               	movlw	0
  8260  005DA4  6E12               	movwf	___aomod@sign^(0+1280),c
  8261  005DA6  BE08               	btfsc	(___aomod@dividend+7)^(0+1280),7,c
  8262  005DA8  EFDA  F02E         	goto	u4320
  8263  005DAC  EFD8  F02E         	goto	u4321
  8264  005DB0                     u4321:
  8265  005DB0  EFEC  F02E         	goto	l5551
  8266  005DB4                     u4320:
  8267  005DB4  1E08               	comf	(___aomod@dividend+7)^(0+1280),f,c
  8268  005DB6  1E07               	comf	(___aomod@dividend+6)^(0+1280),f,c
  8269  005DB8  1E06               	comf	(___aomod@dividend+5)^(0+1280),f,c
  8270  005DBA  1E05               	comf	(___aomod@dividend+4)^(0+1280),f,c
  8271  005DBC  1E04               	comf	(___aomod@dividend+3)^(0+1280),f,c
  8272  005DBE  1E03               	comf	(___aomod@dividend+2)^(0+1280),f,c
  8273  005DC0  1E02               	comf	(___aomod@dividend+1)^(0+1280),f,c
  8274  005DC2  6C01               	negf	___aomod@dividend^(0+1280),c
  8275  005DC4  0E00               	movlw	0
  8276  005DC6  2202               	addwfc	(___aomod@dividend+1)^(0+1280),f,c
  8277  005DC8  2203               	addwfc	(___aomod@dividend+2)^(0+1280),f,c
  8278  005DCA  2204               	addwfc	(___aomod@dividend+3)^(0+1280),f,c
  8279  005DCC  2205               	addwfc	(___aomod@dividend+4)^(0+1280),f,c
  8280  005DCE  2206               	addwfc	(___aomod@dividend+5)^(0+1280),f,c
  8281  005DD0  2207               	addwfc	(___aomod@dividend+6)^(0+1280),f,c
  8282  005DD2  2208               	addwfc	(___aomod@dividend+7)^(0+1280),f,c
  8283  005DD4  0E01               	movlw	1
  8284  005DD6  6E12               	movwf	___aomod@sign^(0+1280),c
  8285  005DD8                     l5551:
  8286  005DD8  BE10               	btfsc	(___aomod@divisor+7)^(0+1280),7,c
  8287  005DDA  EFF3  F02E         	goto	u4330
  8288  005DDE  EFF1  F02E         	goto	u4331
  8289  005DE2                     u4331:
  8290  005DE2  EF03  F02F         	goto	l5555
  8291  005DE6                     u4330:
  8292  005DE6  1E10               	comf	(___aomod@divisor+7)^(0+1280),f,c
  8293  005DE8  1E0F               	comf	(___aomod@divisor+6)^(0+1280),f,c
  8294  005DEA  1E0E               	comf	(___aomod@divisor+5)^(0+1280),f,c
  8295  005DEC  1E0D               	comf	(___aomod@divisor+4)^(0+1280),f,c
  8296  005DEE  1E0C               	comf	(___aomod@divisor+3)^(0+1280),f,c
  8297  005DF0  1E0B               	comf	(___aomod@divisor+2)^(0+1280),f,c
  8298  005DF2  1E0A               	comf	(___aomod@divisor+1)^(0+1280),f,c
  8299  005DF4  6C09               	negf	___aomod@divisor^(0+1280),c
  8300  005DF6  0E00               	movlw	0
  8301  005DF8  220A               	addwfc	(___aomod@divisor+1)^(0+1280),f,c
  8302  005DFA  220B               	addwfc	(___aomod@divisor+2)^(0+1280),f,c
  8303  005DFC  220C               	addwfc	(___aomod@divisor+3)^(0+1280),f,c
  8304  005DFE  220D               	addwfc	(___aomod@divisor+4)^(0+1280),f,c
  8305  005E00  220E               	addwfc	(___aomod@divisor+5)^(0+1280),f,c
  8306  005E02  220F               	addwfc	(___aomod@divisor+6)^(0+1280),f,c
  8307  005E04  2210               	addwfc	(___aomod@divisor+7)^(0+1280),f,c
  8308  005E06                     l5555:
  8309  005E06  5009               	movf	___aomod@divisor^(0+1280),w,c
  8310  005E08  100A               	iorwf	(___aomod@divisor+1)^(0+1280),w,c
  8311  005E0A  100B               	iorwf	(___aomod@divisor+2)^(0+1280),w,c
  8312  005E0C  100C               	iorwf	(___aomod@divisor+3)^(0+1280),w,c
  8313  005E0E  100D               	iorwf	(___aomod@divisor+4)^(0+1280),w,c
  8314  005E10  100E               	iorwf	(___aomod@divisor+5)^(0+1280),w,c
  8315  005E12  100F               	iorwf	(___aomod@divisor+6)^(0+1280),w,c
  8316  005E14  1010               	iorwf	(___aomod@divisor+7)^(0+1280),w,c
  8317  005E16  B4D8               	btfsc	status,2,c
  8318  005E18  EF10  F02F         	goto	u4341
  8319  005E1C  EF12  F02F         	goto	u4340
  8320  005E20                     u4341:
  8321  005E20  EF5A  F02F         	goto	l5571
  8322  005E24                     u4340:
  8323  005E24  0E01               	movlw	1
  8324  005E26  6E11               	movwf	___aomod@counter^(0+1280),c
  8325  005E28  EF20  F02F         	goto	l5561
  8326  005E2C                     l5559:
  8327  005E2C  90D8               	bcf	status,0,c
  8328  005E2E  3609               	rlcf	___aomod@divisor^(0+1280),f,c
  8329  005E30  360A               	rlcf	(___aomod@divisor+1)^(0+1280),f,c
  8330  005E32  360B               	rlcf	(___aomod@divisor+2)^(0+1280),f,c
  8331  005E34  360C               	rlcf	(___aomod@divisor+3)^(0+1280),f,c
  8332  005E36  360D               	rlcf	(___aomod@divisor+4)^(0+1280),f,c
  8333  005E38  360E               	rlcf	(___aomod@divisor+5)^(0+1280),f,c
  8334  005E3A  360F               	rlcf	(___aomod@divisor+6)^(0+1280),f,c
  8335  005E3C  3610               	rlcf	(___aomod@divisor+7)^(0+1280),f,c
  8336  005E3E  2A11               	incf	___aomod@counter^(0+1280),f,c
  8337  005E40                     l5561:
  8338  005E40  AE10               	btfss	(___aomod@divisor+7)^(0+1280),7,c
  8339  005E42  EF25  F02F         	goto	u4351
  8340  005E46  EF27  F02F         	goto	u4350
  8341  005E4A                     u4351:
  8342  005E4A  EF16  F02F         	goto	l5559
  8343  005E4E                     u4350:
  8344  005E4E                     l5563:
  8345  005E4E  5009               	movf	___aomod@divisor^(0+1280),w,c
  8346  005E50  5C01               	subwf	___aomod@dividend^(0+1280),w,c
  8347  005E52  500A               	movf	(___aomod@divisor+1)^(0+1280),w,c
  8348  005E54  5802               	subwfb	(___aomod@dividend+1)^(0+1280),w,c
  8349  005E56  500B               	movf	(___aomod@divisor+2)^(0+1280),w,c
  8350  005E58  5803               	subwfb	(___aomod@dividend+2)^(0+1280),w,c
  8351  005E5A  500C               	movf	(___aomod@divisor+3)^(0+1280),w,c
  8352  005E5C  5804               	subwfb	(___aomod@dividend+3)^(0+1280),w,c
  8353  005E5E  500D               	movf	(___aomod@divisor+4)^(0+1280),w,c
  8354  005E60  5805               	subwfb	(___aomod@dividend+4)^(0+1280),w,c
  8355  005E62  500E               	movf	(___aomod@divisor+5)^(0+1280),w,c
  8356  005E64  5806               	subwfb	(___aomod@dividend+5)^(0+1280),w,c
  8357  005E66  500F               	movf	(___aomod@divisor+6)^(0+1280),w,c
  8358  005E68  5807               	subwfb	(___aomod@dividend+6)^(0+1280),w,c
  8359  005E6A  5010               	movf	(___aomod@divisor+7)^(0+1280),w,c
  8360  005E6C  5808               	subwfb	(___aomod@dividend+7)^(0+1280),w,c
  8361  005E6E  A0D8               	btfss	status,0,c
  8362  005E70  EF3C  F02F         	goto	u4361
  8363  005E74  EF3E  F02F         	goto	u4360
  8364  005E78                     u4361:
  8365  005E78  EF4E  F02F         	goto	l5567
  8366  005E7C                     u4360:
  8367  005E7C  5009               	movf	___aomod@divisor^(0+1280),w,c
  8368  005E7E  5E01               	subwf	___aomod@dividend^(0+1280),f,c
  8369  005E80  500A               	movf	(___aomod@divisor+1)^(0+1280),w,c
  8370  005E82  5A02               	subwfb	(___aomod@dividend+1)^(0+1280),f,c
  8371  005E84  500B               	movf	(___aomod@divisor+2)^(0+1280),w,c
  8372  005E86  5A03               	subwfb	(___aomod@dividend+2)^(0+1280),f,c
  8373  005E88  500C               	movf	(___aomod@divisor+3)^(0+1280),w,c
  8374  005E8A  5A04               	subwfb	(___aomod@dividend+3)^(0+1280),f,c
  8375  005E8C  500D               	movf	(___aomod@divisor+4)^(0+1280),w,c
  8376  005E8E  5A05               	subwfb	(___aomod@dividend+4)^(0+1280),f,c
  8377  005E90  500E               	movf	(___aomod@divisor+5)^(0+1280),w,c
  8378  005E92  5A06               	subwfb	(___aomod@dividend+5)^(0+1280),f,c
  8379  005E94  500F               	movf	(___aomod@divisor+6)^(0+1280),w,c
  8380  005E96  5A07               	subwfb	(___aomod@dividend+6)^(0+1280),f,c
  8381  005E98  5010               	movf	(___aomod@divisor+7)^(0+1280),w,c
  8382  005E9A  5A08               	subwfb	(___aomod@dividend+7)^(0+1280),f,c
  8383  005E9C                     l5567:
  8384  005E9C  90D8               	bcf	status,0,c
  8385  005E9E  3210               	rrcf	(___aomod@divisor+7)^(0+1280),f,c
  8386  005EA0  320F               	rrcf	(___aomod@divisor+6)^(0+1280),f,c
  8387  005EA2  320E               	rrcf	(___aomod@divisor+5)^(0+1280),f,c
  8388  005EA4  320D               	rrcf	(___aomod@divisor+4)^(0+1280),f,c
  8389  005EA6  320C               	rrcf	(___aomod@divisor+3)^(0+1280),f,c
  8390  005EA8  320B               	rrcf	(___aomod@divisor+2)^(0+1280),f,c
  8391  005EAA  320A               	rrcf	(___aomod@divisor+1)^(0+1280),f,c
  8392  005EAC  3209               	rrcf	___aomod@divisor^(0+1280),f,c
  8393  005EAE  2E11               	decfsz	___aomod@counter^(0+1280),f,c
  8394  005EB0  EF27  F02F         	goto	l5563
  8395  005EB4                     l5571:
  8396  005EB4  5012               	movf	___aomod@sign^(0+1280),w,c
  8397  005EB6  B4D8               	btfsc	status,2,c
  8398  005EB8  EF60  F02F         	goto	u4371
  8399  005EBC  EF62  F02F         	goto	u4370
  8400  005EC0                     u4371:
  8401  005EC0  EF72  F02F         	goto	l5575
  8402  005EC4                     u4370:
  8403  005EC4  1E08               	comf	(___aomod@dividend+7)^(0+1280),f,c
  8404  005EC6  1E07               	comf	(___aomod@dividend+6)^(0+1280),f,c
  8405  005EC8  1E06               	comf	(___aomod@dividend+5)^(0+1280),f,c
  8406  005ECA  1E05               	comf	(___aomod@dividend+4)^(0+1280),f,c
  8407  005ECC  1E04               	comf	(___aomod@dividend+3)^(0+1280),f,c
  8408  005ECE  1E03               	comf	(___aomod@dividend+2)^(0+1280),f,c
  8409  005ED0  1E02               	comf	(___aomod@dividend+1)^(0+1280),f,c
  8410  005ED2  6C01               	negf	___aomod@dividend^(0+1280),c
  8411  005ED4  0E00               	movlw	0
  8412  005ED6  2202               	addwfc	(___aomod@dividend+1)^(0+1280),f,c
  8413  005ED8  2203               	addwfc	(___aomod@dividend+2)^(0+1280),f,c
  8414  005EDA  2204               	addwfc	(___aomod@dividend+3)^(0+1280),f,c
  8415  005EDC  2205               	addwfc	(___aomod@dividend+4)^(0+1280),f,c
  8416  005EDE  2206               	addwfc	(___aomod@dividend+5)^(0+1280),f,c
  8417  005EE0  2207               	addwfc	(___aomod@dividend+6)^(0+1280),f,c
  8418  005EE2  2208               	addwfc	(___aomod@dividend+7)^(0+1280),f,c
  8419  005EE4                     l5575:
  8420  005EE4  C501  F501         	movff	___aomod@dividend,?___aomod
  8421  005EE8  C502  F502         	movff	___aomod@dividend+1,?___aomod+1
  8422  005EEC  C503  F503         	movff	___aomod@dividend+2,?___aomod+2
  8423  005EF0  C504  F504         	movff	___aomod@dividend+3,?___aomod+3
  8424  005EF4  C505  F505         	movff	___aomod@dividend+4,?___aomod+4
  8425  005EF8  C506  F506         	movff	___aomod@dividend+5,?___aomod+5
  8426  005EFC  C507  F507         	movff	___aomod@dividend+6,?___aomod+6
  8427  005F00  C508  F508         	movff	___aomod@dividend+7,?___aomod+7
  8428  005F04  0012               	return		;funcret
  8429  005F06                     __end_of___aomod:
  8430                           	callstack 0
  8431                           
  8432 ;; *************** function ___aodiv *****************
  8433 ;; Defined at:
  8434 ;;		line 9 in file "C:\Program Files\Microchip\xc8\v2.32\pic\sources\c99\common\aodiv.c"
  8435 ;; Parameters:    Size  Location     Type
  8436 ;;  dividend        8    0[COMRAM] long long 
  8437 ;;  divisor         8    8[COMRAM] long long 
  8438 ;; Auto vars:     Size  Location     Type
  8439 ;;  quotient        8   18[COMRAM] long long 
  8440 ;;  sign            1   17[COMRAM] unsigned char 
  8441 ;;  counter         1   16[COMRAM] unsigned char 
  8442 ;; Return value:  Size  Location     Type
  8443 ;;                  8    0[COMRAM] long long 
  8444 ;; Registers used:
  8445 ;;		wreg, fsr2l, fsr2h, status,2, status,0
  8446 ;; Tracked objects:
  8447 ;;		On entry : 0/0
  8448 ;;		On exit  : 0/0
  8449 ;;		Unchanged: 0/0
  8450 ;; Data sizes:     COMRAM   BANK5   BANK6   BANK7   BANK8   BANK9  BANK10  BANK11  BANK12  BANK13  BANK14  BANK15  BANK1
      +6  BANK17  BANK18  BANK19  BANK20  BANK21  BANK22  BANK23  BANK24  BANK25  BANK26  BANK27  BANK28  BANK29  BANK30  BANK3
      +1  BANK32  BANK33  BANK34  BANK35  BANK36  BANK37  BANK38  BANK39  BANK40  BANK41  BANK42  BANK43  BANK44  BANK45  BANK4
      +6  BANK47  BANK48  BANK49  BANK50  BANK51  BANK52  BANK53  BANK54
  8451 ;;      Params:        16       0       0       0       0       0       0       0       0       0       0       0       
      +0       0       0       0       0       0       0       0       0       0       0       0       0       0       0       
      +0       0       0       0       0       0       0       0       0       0       0       0       0       0       0       
      +0       0       0       0       0       0       0       0       0
  8452 ;;      Locals:        10       0       0       0       0       0       0       0       0       0       0       0       
      +0       0       0       0       0       0       0       0       0       0       0       0       0       0       0       
      +0       0       0       0       0       0       0       0       0       0       0       0       0       0       0       
      +0       0       0       0       0       0       0       0       0
  8453 ;;      Temps:          0       0       0       0       0       0       0       0       0       0       0       0       
      +0       0       0       0       0       0       0       0       0       0       0       0       0       0       0       
      +0       0       0       0       0       0       0       0       0       0       0       0       0       0       0       
      +0       0       0       0       0       0       0       0       0
  8454 ;;      Totals:        26       0       0       0       0       0       0       0       0       0       0       0       
      +0       0       0       0       0       0       0       0       0       0       0       0       0       0       0       
      +0       0       0       0       0       0       0       0       0       0       0       0       0       0       0       
      +0       0       0       0       0       0       0       0       0
  8455 ;;Total ram usage:       26 bytes
  8456 ;; Hardware stack levels used: 1
  8457 ;; This function calls:
  8458 ;;		Nothing
  8459 ;; This function is called by:
  8460 ;;		_dtoa
  8461 ;; This function uses a non-reentrant model
  8462 ;;
  8463                           
  8464                           	psect	text31
  8465  005C1A                     __ptext31:
  8466                           	callstack 0
  8467  005C1A                     ___aodiv:
  8468                           	callstack 122
  8469  005C1A  0E00               	movlw	0
  8470  005C1C  6E12               	movwf	___aodiv@sign^(0+1280),c
  8471  005C1E  BE10               	btfsc	(___aodiv@divisor+7)^(0+1280),7,c
  8472  005C20  EF16  F02E         	goto	u4250
  8473  005C24  EF14  F02E         	goto	u4251
  8474  005C28                     u4251:
  8475  005C28  EF28  F02E         	goto	l5507
  8476  005C2C                     u4250:
  8477  005C2C  1E10               	comf	(___aodiv@divisor+7)^(0+1280),f,c
  8478  005C2E  1E0F               	comf	(___aodiv@divisor+6)^(0+1280),f,c
  8479  005C30  1E0E               	comf	(___aodiv@divisor+5)^(0+1280),f,c
  8480  005C32  1E0D               	comf	(___aodiv@divisor+4)^(0+1280),f,c
  8481  005C34  1E0C               	comf	(___aodiv@divisor+3)^(0+1280),f,c
  8482  005C36  1E0B               	comf	(___aodiv@divisor+2)^(0+1280),f,c
  8483  005C38  1E0A               	comf	(___aodiv@divisor+1)^(0+1280),f,c
  8484  005C3A  6C09               	negf	___aodiv@divisor^(0+1280),c
  8485  005C3C  0E00               	movlw	0
  8486  005C3E  220A               	addwfc	(___aodiv@divisor+1)^(0+1280),f,c
  8487  005C40  220B               	addwfc	(___aodiv@divisor+2)^(0+1280),f,c
  8488  005C42  220C               	addwfc	(___aodiv@divisor+3)^(0+1280),f,c
  8489  005C44  220D               	addwfc	(___aodiv@divisor+4)^(0+1280),f,c
  8490  005C46  220E               	addwfc	(___aodiv@divisor+5)^(0+1280),f,c
  8491  005C48  220F               	addwfc	(___aodiv@divisor+6)^(0+1280),f,c
  8492  005C4A  2210               	addwfc	(___aodiv@divisor+7)^(0+1280),f,c
  8493  005C4C  0E01               	movlw	1
  8494  005C4E  6E12               	movwf	___aodiv@sign^(0+1280),c
  8495  005C50                     l5507:
  8496  005C50  BE08               	btfsc	(___aodiv@dividend+7)^(0+1280),7,c
  8497  005C52  EF2F  F02E         	goto	u4260
  8498  005C56  EF2D  F02E         	goto	u4261
  8499  005C5A                     u4261:
  8500  005C5A  EF41  F02E         	goto	l5513
  8501  005C5E                     u4260:
  8502  005C5E  1E08               	comf	(___aodiv@dividend+7)^(0+1280),f,c
  8503  005C60  1E07               	comf	(___aodiv@dividend+6)^(0+1280),f,c
  8504  005C62  1E06               	comf	(___aodiv@dividend+5)^(0+1280),f,c
  8505  005C64  1E05               	comf	(___aodiv@dividend+4)^(0+1280),f,c
  8506  005C66  1E04               	comf	(___aodiv@dividend+3)^(0+1280),f,c
  8507  005C68  1E03               	comf	(___aodiv@dividend+2)^(0+1280),f,c
  8508  005C6A  1E02               	comf	(___aodiv@dividend+1)^(0+1280),f,c
  8509  005C6C  6C01               	negf	___aodiv@dividend^(0+1280),c
  8510  005C6E  0E00               	movlw	0
  8511  005C70  2202               	addwfc	(___aodiv@dividend+1)^(0+1280),f,c
  8512  005C72  2203               	addwfc	(___aodiv@dividend+2)^(0+1280),f,c
  8513  005C74  2204               	addwfc	(___aodiv@dividend+3)^(0+1280),f,c
  8514  005C76  2205               	addwfc	(___aodiv@dividend+4)^(0+1280),f,c
  8515  005C78  2206               	addwfc	(___aodiv@dividend+5)^(0+1280),f,c
  8516  005C7A  2207               	addwfc	(___aodiv@dividend+6)^(0+1280),f,c
  8517  005C7C  2208               	addwfc	(___aodiv@dividend+7)^(0+1280),f,c
  8518  005C7E  0E01               	movlw	1
  8519  005C80  1A12               	xorwf	___aodiv@sign^(0+1280),f,c
  8520  005C82                     l5513:
  8521  005C82  EE21  F113         	lfsr	2,___aodiv@quotient
  8522  005C86  0E07               	movlw	7
  8523  005C88                     u4271:
  8524  005C88  6ADE               	clrf	postinc2,c
  8525  005C8A  06E8               	decf	wreg,f,c
  8526  005C8C  E2FD               	bc	u4271
  8527  005C8E  5009               	movf	___aodiv@divisor^(0+1280),w,c
  8528  005C90  100A               	iorwf	(___aodiv@divisor+1)^(0+1280),w,c
  8529  005C92  100B               	iorwf	(___aodiv@divisor+2)^(0+1280),w,c
  8530  005C94  100C               	iorwf	(___aodiv@divisor+3)^(0+1280),w,c
  8531  005C96  100D               	iorwf	(___aodiv@divisor+4)^(0+1280),w,c
  8532  005C98  100E               	iorwf	(___aodiv@divisor+5)^(0+1280),w,c
  8533  005C9A  100F               	iorwf	(___aodiv@divisor+6)^(0+1280),w,c
  8534  005C9C  1010               	iorwf	(___aodiv@divisor+7)^(0+1280),w,c
  8535  005C9E  B4D8               	btfsc	status,2,c
  8536  005CA0  EF54  F02E         	goto	u4281
  8537  005CA4  EF56  F02E         	goto	u4280
  8538  005CA8                     u4281:
  8539  005CA8  EFA8  F02E         	goto	l5535
  8540  005CAC                     u4280:
  8541  005CAC  0E01               	movlw	1
  8542  005CAE  6E11               	movwf	___aodiv@counter^(0+1280),c
  8543  005CB0  EF64  F02E         	goto	l5521
  8544  005CB4                     l5519:
  8545  005CB4  90D8               	bcf	status,0,c
  8546  005CB6  3609               	rlcf	___aodiv@divisor^(0+1280),f,c
  8547  005CB8  360A               	rlcf	(___aodiv@divisor+1)^(0+1280),f,c
  8548  005CBA  360B               	rlcf	(___aodiv@divisor+2)^(0+1280),f,c
  8549  005CBC  360C               	rlcf	(___aodiv@divisor+3)^(0+1280),f,c
  8550  005CBE  360D               	rlcf	(___aodiv@divisor+4)^(0+1280),f,c
  8551  005CC0  360E               	rlcf	(___aodiv@divisor+5)^(0+1280),f,c
  8552  005CC2  360F               	rlcf	(___aodiv@divisor+6)^(0+1280),f,c
  8553  005CC4  3610               	rlcf	(___aodiv@divisor+7)^(0+1280),f,c
  8554  005CC6  2A11               	incf	___aodiv@counter^(0+1280),f,c
  8555  005CC8                     l5521:
  8556  005CC8  AE10               	btfss	(___aodiv@divisor+7)^(0+1280),7,c
  8557  005CCA  EF69  F02E         	goto	u4291
  8558  005CCE  EF6B  F02E         	goto	u4290
  8559  005CD2                     u4291:
  8560  005CD2  EF5A  F02E         	goto	l5519
  8561  005CD6                     u4290:
  8562  005CD6                     l5523:
  8563  005CD6  90D8               	bcf	status,0,c
  8564  005CD8  3613               	rlcf	___aodiv@quotient^(0+1280),f,c
  8565  005CDA  3614               	rlcf	(___aodiv@quotient+1)^(0+1280),f,c
  8566  005CDC  3615               	rlcf	(___aodiv@quotient+2)^(0+1280),f,c
  8567  005CDE  3616               	rlcf	(___aodiv@quotient+3)^(0+1280),f,c
  8568  005CE0  3617               	rlcf	(___aodiv@quotient+4)^(0+1280),f,c
  8569  005CE2  3618               	rlcf	(___aodiv@quotient+5)^(0+1280),f,c
  8570  005CE4  3619               	rlcf	(___aodiv@quotient+6)^(0+1280),f,c
  8571  005CE6  361A               	rlcf	(___aodiv@quotient+7)^(0+1280),f,c
  8572  005CE8  5009               	movf	___aodiv@divisor^(0+1280),w,c
  8573  005CEA  5C01               	subwf	___aodiv@dividend^(0+1280),w,c
  8574  005CEC  500A               	movf	(___aodiv@divisor+1)^(0+1280),w,c
  8575  005CEE  5802               	subwfb	(___aodiv@dividend+1)^(0+1280),w,c
  8576  005CF0  500B               	movf	(___aodiv@divisor+2)^(0+1280),w,c
  8577  005CF2  5803               	subwfb	(___aodiv@dividend+2)^(0+1280),w,c
  8578  005CF4  500C               	movf	(___aodiv@divisor+3)^(0+1280),w,c
  8579  005CF6  5804               	subwfb	(___aodiv@dividend+3)^(0+1280),w,c
  8580  005CF8  500D               	movf	(___aodiv@divisor+4)^(0+1280),w,c
  8581  005CFA  5805               	subwfb	(___aodiv@dividend+4)^(0+1280),w,c
  8582  005CFC  500E               	movf	(___aodiv@divisor+5)^(0+1280),w,c
  8583  005CFE  5806               	subwfb	(___aodiv@dividend+5)^(0+1280),w,c
  8584  005D00  500F               	movf	(___aodiv@divisor+6)^(0+1280),w,c
  8585  005D02  5807               	subwfb	(___aodiv@dividend+6)^(0+1280),w,c
  8586  005D04  5010               	movf	(___aodiv@divisor+7)^(0+1280),w,c
  8587  005D06  5808               	subwfb	(___aodiv@dividend+7)^(0+1280),w,c
  8588  005D08  A0D8               	btfss	status,0,c
  8589  005D0A  EF89  F02E         	goto	u4301
  8590  005D0E  EF8B  F02E         	goto	u4300
  8591  005D12                     u4301:
  8592  005D12  EF9C  F02E         	goto	l5531
  8593  005D16                     u4300:
  8594  005D16  5009               	movf	___aodiv@divisor^(0+1280),w,c
  8595  005D18  5E01               	subwf	___aodiv@dividend^(0+1280),f,c
  8596  005D1A  500A               	movf	(___aodiv@divisor+1)^(0+1280),w,c
  8597  005D1C  5A02               	subwfb	(___aodiv@dividend+1)^(0+1280),f,c
  8598  005D1E  500B               	movf	(___aodiv@divisor+2)^(0+1280),w,c
  8599  005D20  5A03               	subwfb	(___aodiv@dividend+2)^(0+1280),f,c
  8600  005D22  500C               	movf	(___aodiv@divisor+3)^(0+1280),w,c
  8601  005D24  5A04               	subwfb	(___aodiv@dividend+3)^(0+1280),f,c
  8602  005D26  500D               	movf	(___aodiv@divisor+4)^(0+1280),w,c
  8603  005D28  5A05               	subwfb	(___aodiv@dividend+4)^(0+1280),f,c
  8604  005D2A  500E               	movf	(___aodiv@divisor+5)^(0+1280),w,c
  8605  005D2C  5A06               	subwfb	(___aodiv@dividend+5)^(0+1280),f,c
  8606  005D2E  500F               	movf	(___aodiv@divisor+6)^(0+1280),w,c
  8607  005D30  5A07               	subwfb	(___aodiv@dividend+6)^(0+1280),f,c
  8608  005D32  5010               	movf	(___aodiv@divisor+7)^(0+1280),w,c
  8609  005D34  5A08               	subwfb	(___aodiv@dividend+7)^(0+1280),f,c
  8610  005D36  8013               	bsf	___aodiv@quotient^(0+1280),0,c
  8611  005D38                     l5531:
  8612  005D38  90D8               	bcf	status,0,c
  8613  005D3A  3210               	rrcf	(___aodiv@divisor+7)^(0+1280),f,c
  8614  005D3C  320F               	rrcf	(___aodiv@divisor+6)^(0+1280),f,c
  8615  005D3E  320E               	rrcf	(___aodiv@divisor+5)^(0+1280),f,c
  8616  005D40  320D               	rrcf	(___aodiv@divisor+4)^(0+1280),f,c
  8617  005D42  320C               	rrcf	(___aodiv@divisor+3)^(0+1280),f,c
  8618  005D44  320B               	rrcf	(___aodiv@divisor+2)^(0+1280),f,c
  8619  005D46  320A               	rrcf	(___aodiv@divisor+1)^(0+1280),f,c
  8620  005D48  3209               	rrcf	___aodiv@divisor^(0+1280),f,c
  8621  005D4A  2E11               	decfsz	___aodiv@counter^(0+1280),f,c
  8622  005D4C  EF6B  F02E         	goto	l5523
  8623  005D50                     l5535:
  8624  005D50  5012               	movf	___aodiv@sign^(0+1280),w,c
  8625  005D52  B4D8               	btfsc	status,2,c
  8626  005D54  EFAE  F02E         	goto	u4311
  8627  005D58  EFB0  F02E         	goto	u4310
  8628  005D5C                     u4311:
  8629  005D5C  EFC0  F02E         	goto	l5539
  8630  005D60                     u4310:
  8631  005D60  1E1A               	comf	(___aodiv@quotient+7)^(0+1280),f,c
  8632  005D62  1E19               	comf	(___aodiv@quotient+6)^(0+1280),f,c
  8633  005D64  1E18               	comf	(___aodiv@quotient+5)^(0+1280),f,c
  8634  005D66  1E17               	comf	(___aodiv@quotient+4)^(0+1280),f,c
  8635  005D68  1E16               	comf	(___aodiv@quotient+3)^(0+1280),f,c
  8636  005D6A  1E15               	comf	(___aodiv@quotient+2)^(0+1280),f,c
  8637  005D6C  1E14               	comf	(___aodiv@quotient+1)^(0+1280),f,c
  8638  005D6E  6C13               	negf	___aodiv@quotient^(0+1280),c
  8639  005D70  0E00               	movlw	0
  8640  005D72  2214               	addwfc	(___aodiv@quotient+1)^(0+1280),f,c
  8641  005D74  2215               	addwfc	(___aodiv@quotient+2)^(0+1280),f,c
  8642  005D76  2216               	addwfc	(___aodiv@quotient+3)^(0+1280),f,c
  8643  005D78  2217               	addwfc	(___aodiv@quotient+4)^(0+1280),f,c
  8644  005D7A  2218               	addwfc	(___aodiv@quotient+5)^(0+1280),f,c
  8645  005D7C  2219               	addwfc	(___aodiv@quotient+6)^(0+1280),f,c
  8646  005D7E  221A               	addwfc	(___aodiv@quotient+7)^(0+1280),f,c
  8647  005D80                     l5539:
  8648  005D80  C513  F501         	movff	___aodiv@quotient,?___aodiv
  8649  005D84  C514  F502         	movff	___aodiv@quotient+1,?___aodiv+1
  8650  005D88  C515  F503         	movff	___aodiv@quotient+2,?___aodiv+2
  8651  005D8C  C516  F504         	movff	___aodiv@quotient+3,?___aodiv+3
  8652  005D90  C517  F505         	movff	___aodiv@quotient+4,?___aodiv+4
  8653  005D94  C518  F506         	movff	___aodiv@quotient+5,?___aodiv+5
  8654  005D98  C519  F507         	movff	___aodiv@quotient+6,?___aodiv+6
  8655  005D9C  C51A  F508         	movff	___aodiv@quotient+7,?___aodiv+7
  8656  005DA0  0012               	return		;funcret
  8657  005DA2                     __end_of___aodiv:
  8658                           	callstack 0
  8659                           
  8660 ;; *************** function ___xxtofl *****************
  8661 ;; Defined at:
  8662 ;;		line 10 in file "C:\Program Files\Microchip\xc8\v2.32\pic\sources\c99\common\xxtofl.c"
  8663 ;; Parameters:    Size  Location     Type
  8664 ;;  sign            1    wreg     unsigned char 
  8665 ;;  val             4    0[COMRAM] long 
  8666 ;; Auto vars:     Size  Location     Type
  8667 ;;  sign            1    8[COMRAM] unsigned char 
  8668 ;;  arg             4   10[COMRAM] unsigned long 
  8669 ;;  exp             1    9[COMRAM] unsigned char 
  8670 ;; Return value:  Size  Location     Type
  8671 ;;                  4    0[COMRAM] unsigned char 
  8672 ;; Registers used:
  8673 ;;		wreg, status,2, status,0
  8674 ;; Tracked objects:
  8675 ;;		On entry : 0/0
  8676 ;;		On exit  : 0/0
  8677 ;;		Unchanged: 0/0
  8678 ;; Data sizes:     COMRAM   BANK5   BANK6   BANK7   BANK8   BANK9  BANK10  BANK11  BANK12  BANK13  BANK14  BANK15  BANK1
      +6  BANK17  BANK18  BANK19  BANK20  BANK21  BANK22  BANK23  BANK24  BANK25  BANK26  BANK27  BANK28  BANK29  BANK30  BANK3
      +1  BANK32  BANK33  BANK34  BANK35  BANK36  BANK37  BANK38  BANK39  BANK40  BANK41  BANK42  BANK43  BANK44  BANK45  BANK4
      +6  BANK47  BANK48  BANK49  BANK50  BANK51  BANK52  BANK53  BANK54
  8679 ;;      Params:         4       0       0       0       0       0       0       0       0       0       0       0       
      +0       0       0       0       0       0       0       0       0       0       0       0       0       0       0       
      +0       0       0       0       0       0       0       0       0       0       0       0       0       0       0       
      +0       0       0       0       0       0       0       0       0
  8680 ;;      Locals:         6       0       0       0       0       0       0       0       0       0       0       0       
      +0       0       0       0       0       0       0       0       0       0       0       0       0       0       0       
      +0       0       0       0       0       0       0       0       0       0       0       0       0       0       0       
      +0       0       0       0       0       0       0       0       0
  8681 ;;      Temps:          4       0       0       0       0       0       0       0       0       0       0       0       
      +0       0       0       0       0       0       0       0       0       0       0       0       0       0       0       
      +0       0       0       0       0       0       0       0       0       0       0       0       0       0       0       
      +0       0       0       0       0       0       0       0       0
  8682 ;;      Totals:        14       0       0       0       0       0       0       0       0       0       0       0       
      +0       0       0       0       0       0       0       0       0       0       0       0       0       0       0       
      +0       0       0       0       0       0       0       0       0       0       0       0       0       0       0       
      +0       0       0       0       0       0       0       0       0
  8683 ;;Total ram usage:       14 bytes
  8684 ;; Hardware stack levels used: 1
  8685 ;; This function calls:
  8686 ;;		Nothing
  8687 ;; This function is called by:
  8688 ;;		_main
  8689 ;; This function uses a non-reentrant model
  8690 ;;
  8691                           
  8692                           	psect	text32
  8693  005A66                     __ptext32:
  8694                           	callstack 0
  8695  005A66                     ___xxtofl:
  8696                           	callstack 126
  8697                           
  8698                           ;incstack = 0
  8699                           ;___xxtofl@sign stored from wreg
  8700  005A66  6E09               	movwf	___xxtofl@sign^(0+1280),c
  8701  005A68  5009               	movf	___xxtofl@sign^(0+1280),w,c
  8702  005A6A  B4D8               	btfsc	status,2,c
  8703  005A6C  EF3A  F02D         	goto	u6361
  8704  005A70  EF3C  F02D         	goto	u6360
  8705  005A74                     u6361:
  8706  005A74  EF5E  F02D         	goto	l1819
  8707  005A78                     u6360:
  8708  005A78  BE04               	btfsc	(___xxtofl@val+3)^(0+1280),7,c
  8709  005A7A  EF43  F02D         	goto	u6370
  8710  005A7E  EF41  F02D         	goto	u6371
  8711  005A82                     u6371:
  8712  005A82  EF5E  F02D         	goto	l1819
  8713  005A86                     u6370:
  8714  005A86  C501  F505         	movff	___xxtofl@val,??___xxtofl
  8715  005A8A  C502  F506         	movff	___xxtofl@val+1,??___xxtofl+1
  8716  005A8E  C503  F507         	movff	___xxtofl@val+2,??___xxtofl+2
  8717  005A92  C504  F508         	movff	___xxtofl@val+3,??___xxtofl+3
  8718  005A96  1E05               	comf	??___xxtofl^(0+1280),f,c
  8719  005A98  1E06               	comf	(??___xxtofl+1)^(0+1280),f,c
  8720  005A9A  1E07               	comf	(??___xxtofl+2)^(0+1280),f,c
  8721  005A9C  1E08               	comf	(??___xxtofl+3)^(0+1280),f,c
  8722  005A9E  2A05               	incf	??___xxtofl^(0+1280),f,c
  8723  005AA0  0E00               	movlw	0
  8724  005AA2  2206               	addwfc	(??___xxtofl+1)^(0+1280),f,c
  8725  005AA4  2207               	addwfc	(??___xxtofl+2)^(0+1280),f,c
  8726  005AA6  2208               	addwfc	(??___xxtofl+3)^(0+1280),f,c
  8727  005AA8  C505  F50B         	movff	??___xxtofl,___xxtofl@arg
  8728  005AAC  C506  F50C         	movff	??___xxtofl+1,___xxtofl@arg+1
  8729  005AB0  C507  F50D         	movff	??___xxtofl+2,___xxtofl@arg+2
  8730  005AB4  C508  F50E         	movff	??___xxtofl+3,___xxtofl@arg+3
  8731  005AB8  EF66  F02D         	goto	l6821
  8732  005ABC                     l1819:
  8733  005ABC  C501  F50B         	movff	___xxtofl@val,___xxtofl@arg
  8734  005AC0  C502  F50C         	movff	___xxtofl@val+1,___xxtofl@arg+1
  8735  005AC4  C503  F50D         	movff	___xxtofl@val+2,___xxtofl@arg+2
  8736  005AC8  C504  F50E         	movff	___xxtofl@val+3,___xxtofl@arg+3
  8737  005ACC                     l6821:
  8738  005ACC  5001               	movf	___xxtofl@val^(0+1280),w,c
  8739  005ACE  1002               	iorwf	(___xxtofl@val+1)^(0+1280),w,c
  8740  005AD0  1003               	iorwf	(___xxtofl@val+2)^(0+1280),w,c
  8741  005AD2  1004               	iorwf	(___xxtofl@val+3)^(0+1280),w,c
  8742  005AD4  A4D8               	btfss	status,2,c
  8743  005AD6  EF6F  F02D         	goto	u6381
  8744  005ADA  EF71  F02D         	goto	u6380
  8745  005ADE                     u6381:
  8746  005ADE  EF7B  F02D         	goto	l6827
  8747  005AE2                     u6380:
  8748  005AE2  0E00               	movlw	0
  8749  005AE4  6E01               	movwf	?___xxtofl^(0+1280),c
  8750  005AE6  0E00               	movlw	0
  8751  005AE8  6E02               	movwf	(?___xxtofl+1)^(0+1280),c
  8752  005AEA  0E00               	movlw	0
  8753  005AEC  6E03               	movwf	(?___xxtofl+2)^(0+1280),c
  8754  005AEE  0E00               	movlw	0
  8755  005AF0  6E04               	movwf	(?___xxtofl+3)^(0+1280),c
  8756  005AF2  EF0C  F02E         	goto	l1822
  8757  005AF6                     l6827:
  8758  005AF6  0E96               	movlw	150
  8759  005AF8  6E0A               	movwf	___xxtofl@exp^(0+1280),c
  8760  005AFA  EF85  F02D         	goto	l6831
  8761  005AFE                     l6829:
  8762  005AFE  2A0A               	incf	___xxtofl@exp^(0+1280),f,c
  8763  005B00  90D8               	bcf	status,0,c
  8764  005B02  320E               	rrcf	(___xxtofl@arg+3)^(0+1280),f,c
  8765  005B04  320D               	rrcf	(___xxtofl@arg+2)^(0+1280),f,c
  8766  005B06  320C               	rrcf	(___xxtofl@arg+1)^(0+1280),f,c
  8767  005B08  320B               	rrcf	___xxtofl@arg^(0+1280),f,c
  8768  005B0A                     l6831:
  8769  005B0A  0E00               	movlw	0
  8770  005B0C  140B               	andwf	___xxtofl@arg^(0+1280),w,c
  8771  005B0E  6E05               	movwf	??___xxtofl^(0+1280),c
  8772  005B10  0E00               	movlw	0
  8773  005B12  140C               	andwf	(___xxtofl@arg+1)^(0+1280),w,c
  8774  005B14  6E06               	movwf	(??___xxtofl+1)^(0+1280),c
  8775  005B16  0E00               	movlw	0
  8776  005B18  140D               	andwf	(___xxtofl@arg+2)^(0+1280),w,c
  8777  005B1A  6E07               	movwf	(??___xxtofl+2)^(0+1280),c
  8778  005B1C  0EFE               	movlw	254
  8779  005B1E  140E               	andwf	(___xxtofl@arg+3)^(0+1280),w,c
  8780  005B20  6E08               	movwf	(??___xxtofl+3)^(0+1280),c
  8781  005B22  5005               	movf	??___xxtofl^(0+1280),w,c
  8782  005B24  1006               	iorwf	(??___xxtofl+1)^(0+1280),w,c
  8783  005B26  1007               	iorwf	(??___xxtofl+2)^(0+1280),w,c
  8784  005B28  1008               	iorwf	(??___xxtofl+3)^(0+1280),w,c
  8785  005B2A  A4D8               	btfss	status,2,c
  8786  005B2C  EF9A  F02D         	goto	u6391
  8787  005B30  EF9C  F02D         	goto	u6390
  8788  005B34                     u6391:
  8789  005B34  EF7F  F02D         	goto	l6829
  8790  005B38                     u6390:
  8791  005B38  EFAA  F02D         	goto	l1826
  8792  005B3C                     l6833:
  8793  005B3C  2A0A               	incf	___xxtofl@exp^(0+1280),f,c
  8794  005B3E  0E01               	movlw	1
  8795  005B40  260B               	addwf	___xxtofl@arg^(0+1280),f,c
  8796  005B42  0E00               	movlw	0
  8797  005B44  220C               	addwfc	(___xxtofl@arg+1)^(0+1280),f,c
  8798  005B46  220D               	addwfc	(___xxtofl@arg+2)^(0+1280),f,c
  8799  005B48  220E               	addwfc	(___xxtofl@arg+3)^(0+1280),f,c
  8800  005B4A  90D8               	bcf	status,0,c
  8801  005B4C  320E               	rrcf	(___xxtofl@arg+3)^(0+1280),f,c
  8802  005B4E  320D               	rrcf	(___xxtofl@arg+2)^(0+1280),f,c
  8803  005B50  320C               	rrcf	(___xxtofl@arg+1)^(0+1280),f,c
  8804  005B52  320B               	rrcf	___xxtofl@arg^(0+1280),f,c
  8805  005B54                     l1826:
  8806  005B54  0E00               	movlw	0
  8807  005B56  140B               	andwf	___xxtofl@arg^(0+1280),w,c
  8808  005B58  6E05               	movwf	??___xxtofl^(0+1280),c
  8809  005B5A  0E00               	movlw	0
  8810  005B5C  140C               	andwf	(___xxtofl@arg+1)^(0+1280),w,c
  8811  005B5E  6E06               	movwf	(??___xxtofl+1)^(0+1280),c
  8812  005B60  0E00               	movlw	0
  8813  005B62  140D               	andwf	(___xxtofl@arg+2)^(0+1280),w,c
  8814  005B64  6E07               	movwf	(??___xxtofl+2)^(0+1280),c
  8815  005B66  0EFF               	movlw	255
  8816  005B68  140E               	andwf	(___xxtofl@arg+3)^(0+1280),w,c
  8817  005B6A  6E08               	movwf	(??___xxtofl+3)^(0+1280),c
  8818  005B6C  5005               	movf	??___xxtofl^(0+1280),w,c
  8819  005B6E  1006               	iorwf	(??___xxtofl+1)^(0+1280),w,c
  8820  005B70  1007               	iorwf	(??___xxtofl+2)^(0+1280),w,c
  8821  005B72  1008               	iorwf	(??___xxtofl+3)^(0+1280),w,c
  8822  005B74  A4D8               	btfss	status,2,c
  8823  005B76  EFBF  F02D         	goto	u6401
  8824  005B7A  EFC1  F02D         	goto	u6400
  8825  005B7E                     u6401:
  8826  005B7E  EF9E  F02D         	goto	l6833
  8827  005B82                     u6400:
  8828  005B82  EFC9  F02D         	goto	l6841
  8829  005B86                     l6839:
  8830  005B86  060A               	decf	___xxtofl@exp^(0+1280),f,c
  8831  005B88  90D8               	bcf	status,0,c
  8832  005B8A  360B               	rlcf	___xxtofl@arg^(0+1280),f,c
  8833  005B8C  360C               	rlcf	(___xxtofl@arg+1)^(0+1280),f,c
  8834  005B8E  360D               	rlcf	(___xxtofl@arg+2)^(0+1280),f,c
  8835  005B90  360E               	rlcf	(___xxtofl@arg+3)^(0+1280),f,c
  8836  005B92                     l6841:
  8837  005B92  BE0D               	btfsc	(___xxtofl@arg+2)^(0+1280),7,c
  8838  005B94  EFCE  F02D         	goto	u6411
  8839  005B98  EFD0  F02D         	goto	u6410
  8840  005B9C                     u6411:
  8841  005B9C  EFD8  F02D         	goto	l1833
  8842  005BA0                     u6410:
  8843  005BA0  0E02               	movlw	2
  8844  005BA2  600A               	cpfslt	___xxtofl@exp^(0+1280),c
  8845  005BA4  EFD6  F02D         	goto	u6421
  8846  005BA8  EFD8  F02D         	goto	u6420
  8847  005BAC                     u6421:
  8848  005BAC  EFC3  F02D         	goto	l6839
  8849  005BB0                     u6420:
  8850  005BB0                     l1833:
  8851  005BB0  B00A               	btfsc	___xxtofl@exp^(0+1280),0,c
  8852  005BB2  EFDD  F02D         	goto	u6431
  8853  005BB6  EFDF  F02D         	goto	u6430
  8854  005BBA                     u6431:
  8855  005BBA  EFE0  F02D         	goto	l6847
  8856  005BBE                     u6430:
  8857  005BBE  9E0D               	bcf	(___xxtofl@arg+2)^(0+1280),7,c
  8858  005BC0                     l6847:
  8859  005BC0  90D8               	bcf	status,0,c
  8860  005BC2  320A               	rrcf	___xxtofl@exp^(0+1280),f,c
  8861  005BC4  C50A  F505         	movff	___xxtofl@exp,??___xxtofl
  8862  005BC8  6A06               	clrf	(??___xxtofl+1)^(0+1280),c
  8863  005BCA  6A07               	clrf	(??___xxtofl+2)^(0+1280),c
  8864  005BCC  6A08               	clrf	(??___xxtofl+3)^(0+1280),c
  8865  005BCE  C505  F508         	movff	??___xxtofl,??___xxtofl+3
  8866  005BD2  6A07               	clrf	(??___xxtofl+2)^(0+1280),c
  8867  005BD4  6A06               	clrf	(??___xxtofl+1)^(0+1280),c
  8868  005BD6  6A05               	clrf	??___xxtofl^(0+1280),c
  8869  005BD8  5005               	movf	??___xxtofl^(0+1280),w,c
  8870  005BDA  120B               	iorwf	___xxtofl@arg^(0+1280),f,c
  8871  005BDC  5006               	movf	(??___xxtofl+1)^(0+1280),w,c
  8872  005BDE  120C               	iorwf	(___xxtofl@arg+1)^(0+1280),f,c
  8873  005BE0  5007               	movf	(??___xxtofl+2)^(0+1280),w,c
  8874  005BE2  120D               	iorwf	(___xxtofl@arg+2)^(0+1280),f,c
  8875  005BE4  5008               	movf	(??___xxtofl+3)^(0+1280),w,c
  8876  005BE6  120E               	iorwf	(___xxtofl@arg+3)^(0+1280),f,c
  8877  005BE8  5009               	movf	___xxtofl@sign^(0+1280),w,c
  8878  005BEA  B4D8               	btfsc	status,2,c
  8879  005BEC  EFFA  F02D         	goto	u6441
  8880  005BF0  EFFC  F02D         	goto	u6440
  8881  005BF4                     u6441:
  8882  005BF4  EF04  F02E         	goto	l6857
  8883  005BF8                     u6440:
  8884  005BF8  BE04               	btfsc	(___xxtofl@val+3)^(0+1280),7,c
  8885  005BFA  EF03  F02E         	goto	u6450
  8886  005BFE  EF01  F02E         	goto	u6451
  8887  005C02                     u6451:
  8888  005C02  EF04  F02E         	goto	l6857
  8889  005C06                     u6450:
  8890  005C06  8E0E               	bsf	(___xxtofl@arg+3)^(0+1280),7,c
  8891  005C08                     l6857:
  8892  005C08  C50B  F501         	movff	___xxtofl@arg,?___xxtofl
  8893  005C0C  C50C  F502         	movff	___xxtofl@arg+1,?___xxtofl+1
  8894  005C10  C50D  F503         	movff	___xxtofl@arg+2,?___xxtofl+2
  8895  005C14  C50E  F504         	movff	___xxtofl@arg+3,?___xxtofl+3
  8896  005C18                     l1822:
  8897  005C18  0012               	return		;funcret
  8898  005C1A                     __end_of___xxtofl:
  8899                           	callstack 0
  8900                           
  8901 ;; *************** function _SYSTEM_Initialize *****************
  8902 ;; Defined at:
  8903 ;;		line 50 in file "mcc_generated_files/mcc.c"
  8904 ;; Parameters:    Size  Location     Type
  8905 ;;		None
  8906 ;; Auto vars:     Size  Location     Type
  8907 ;;		None
  8908 ;; Return value:  Size  Location     Type
  8909 ;;                  1    wreg      void 
  8910 ;; Registers used:
  8911 ;;		wreg, status,2, status,0, cstack
  8912 ;; Tracked objects:
  8913 ;;		On entry : 0/0
  8914 ;;		On exit  : 0/0
  8915 ;;		Unchanged: 0/0
  8916 ;; Data sizes:     COMRAM   BANK5   BANK6   BANK7   BANK8   BANK9  BANK10  BANK11  BANK12  BANK13  BANK14  BANK15  BANK1
      +6  BANK17  BANK18  BANK19  BANK20  BANK21  BANK22  BANK23  BANK24  BANK25  BANK26  BANK27  BANK28  BANK29  BANK30  BANK3
      +1  BANK32  BANK33  BANK34  BANK35  BANK36  BANK37  BANK38  BANK39  BANK40  BANK41  BANK42  BANK43  BANK44  BANK45  BANK4
      +6  BANK47  BANK48  BANK49  BANK50  BANK51  BANK52  BANK53  BANK54
  8917 ;;      Params:         0       0       0       0       0       0       0       0       0       0       0       0       
      +0       0       0       0       0       0       0       0       0       0       0       0       0       0       0       
      +0       0       0       0       0       0       0       0       0       0       0       0       0       0       0       
      +0       0       0       0       0       0       0       0       0
  8918 ;;      Locals:         0       0       0       0       0       0       0       0       0       0       0       0       
      +0       0       0       0       0       0       0       0       0       0       0       0       0       0       0       
      +0       0       0       0       0       0       0       0       0       0       0       0       0       0       0       
      +0       0       0       0       0       0       0       0       0
  8919 ;;      Temps:          0       0       0       0       0       0       0       0       0       0       0       0       
      +0       0       0       0       0       0       0       0       0       0       0       0       0       0       0       
      +0       0       0       0       0       0       0       0       0       0       0       0       0       0       0       
      +0       0       0       0       0       0       0       0       0
  8920 ;;      Totals:         0       0       0       0       0       0       0       0       0       0       0       0       
      +0       0       0       0       0       0       0       0       0       0       0       0       0       0       0       
      +0       0       0       0       0       0       0       0       0       0       0       0       0       0       0       
      +0       0       0       0       0       0       0       0       0
  8921 ;;Total ram usage:        0 bytes
  8922 ;; Hardware stack levels used: 1
  8923 ;; Hardware stack levels required when called: 2
  8924 ;; This function calls:
  8925 ;;		_ADC_Initialize
  8926 ;;		_I2C1_Initialize
  8927 ;;		_OSCILLATOR_Initialize
  8928 ;;		_PIN_MANAGER_Initialize
  8929 ;;		_PMD_Initialize
  8930 ;;		_UART1_Initialize
  8931 ;; This function is called by:
  8932 ;;		_main
  8933 ;; This function uses a non-reentrant model
  8934 ;;
  8935                           
  8936                           	psect	text33
  8937  006DCE                     __ptext33:
  8938                           	callstack 0
  8939  006DCE                     _SYSTEM_Initialize:
  8940                           	callstack 124
  8941  006DCE                     
  8942                           ;mcc_generated_files/mcc.c: 52:     PMD_Initialize();
  8943  006DCE  ECD3  F036         	call	_PMD_Initialize	;wreg free
  8944                           
  8945                           ;mcc_generated_files/mcc.c: 53:     I2C1_Initialize();
  8946  006DD2  ECA9  F036         	call	_I2C1_Initialize	;wreg free
  8947                           
  8948                           ;mcc_generated_files/mcc.c: 54:     PIN_MANAGER_Initialize();
  8949  006DD6  EC10  F034         	call	_PIN_MANAGER_Initialize	;wreg free
  8950  006DDA                     
  8951                           ;mcc_generated_files/mcc.c: 55:     ADC_Initialize();
  8952  006DDA  EC5C  F033         	call	_ADC_Initialize	;wreg free
  8953  006DDE                     
  8954                           ;mcc_generated_files/mcc.c: 56:     OSCILLATOR_Initialize();
  8955  006DDE  EC00  F037         	call	_OSCILLATOR_Initialize	;wreg free
  8956                           
  8957                           ;mcc_generated_files/mcc.c: 57:     UART1_Initialize();
  8958  006DE2  ECBB  F034         	call	_UART1_Initialize	;wreg free
  8959  006DE6  0012               	return		;funcret
  8960  006DE8                     __end_of_SYSTEM_Initialize:
  8961                           	callstack 0
  8962                           
  8963 ;; *************** function _UART1_Initialize *****************
  8964 ;; Defined at:
  8965 ;;		line 66 in file "mcc_generated_files/uart1.c"
  8966 ;; Parameters:    Size  Location     Type
  8967 ;;		None
  8968 ;; Auto vars:     Size  Location     Type
  8969 ;;		None
  8970 ;; Return value:  Size  Location     Type
  8971 ;;                  1    wreg      void 
  8972 ;; Registers used:
  8973 ;;		wreg, status,2, status,0, cstack
  8974 ;; Tracked objects:
  8975 ;;		On entry : 0/0
  8976 ;;		On exit  : 0/0
  8977 ;;		Unchanged: 0/0
  8978 ;; Data sizes:     COMRAM   BANK5   BANK6   BANK7   BANK8   BANK9  BANK10  BANK11  BANK12  BANK13  BANK14  BANK15  BANK1
      +6  BANK17  BANK18  BANK19  BANK20  BANK21  BANK22  BANK23  BANK24  BANK25  BANK26  BANK27  BANK28  BANK29  BANK30  BANK3
      +1  BANK32  BANK33  BANK34  BANK35  BANK36  BANK37  BANK38  BANK39  BANK40  BANK41  BANK42  BANK43  BANK44  BANK45  BANK4
      +6  BANK47  BANK48  BANK49  BANK50  BANK51  BANK52  BANK53  BANK54
  8979 ;;      Params:         0       0       0       0       0       0       0       0       0       0       0       0       
      +0       0       0       0       0       0       0       0       0       0       0       0       0       0       0       
      +0       0       0       0       0       0       0       0       0       0       0       0       0       0       0       
      +0       0       0       0       0       0       0       0       0
  8980 ;;      Locals:         0       0       0       0       0       0       0       0       0       0       0       0       
      +0       0       0       0       0       0       0       0       0       0       0       0       0       0       0       
      +0       0       0       0       0       0       0       0       0       0       0       0       0       0       0       
      +0       0       0       0       0       0       0       0       0
  8981 ;;      Temps:          0       0       0       0       0       0       0       0       0       0       0       0       
      +0       0       0       0       0       0       0       0       0       0       0       0       0       0       0       
      +0       0       0       0       0       0       0       0       0       0       0       0       0       0       0       
      +0       0       0       0       0       0       0       0       0
  8982 ;;      Totals:         0       0       0       0       0       0       0       0       0       0       0       0       
      +0       0       0       0       0       0       0       0       0       0       0       0       0       0       0       
      +0       0       0       0       0       0       0       0       0       0       0       0       0       0       0       
      +0       0       0       0       0       0       0       0       0
  8983 ;;Total ram usage:        0 bytes
  8984 ;; Hardware stack levels used: 1
  8985 ;; Hardware stack levels required when called: 1
  8986 ;; This function calls:
  8987 ;;		_UART1_SetErrorHandler
  8988 ;;		_UART1_SetFramingErrorHandler
  8989 ;;		_UART1_SetOverrunErrorHandler
  8990 ;; This function is called by:
  8991 ;;		_SYSTEM_Initialize
  8992 ;; This function uses a non-reentrant model
  8993 ;;
  8994                           
  8995                           	psect	text34
  8996  006976                     __ptext34:
  8997                           	callstack 0
  8998  006976                     _UART1_Initialize:
  8999                           	callstack 124
  9000  006976                     
  9001                           ;mcc_generated_files/uart1.c: 73:     U1P1L = 0x00;
  9002  006976  0E00               	movlw	0
  9003  006978  0102               	movlb	2	; () banked
  9004  00697A  6FA5               	movwf	165,b	;volatile
  9005                           
  9006                           ;mcc_generated_files/uart1.c: 76:     U1P1H = 0x00;
  9007  00697C  0E00               	movlw	0
  9008  00697E  6FA6               	movwf	166,b	;volatile
  9009                           
  9010                           ;mcc_generated_files/uart1.c: 79:     U1P2L = 0x00;
  9011  006980  0E00               	movlw	0
  9012  006982  6FA7               	movwf	167,b	;volatile
  9013                           
  9014                           ;mcc_generated_files/uart1.c: 82:     U1P2H = 0x00;
  9015  006984  0E00               	movlw	0
  9016  006986  6FA8               	movwf	168,b	;volatile
  9017                           
  9018                           ;mcc_generated_files/uart1.c: 85:     U1P3L = 0x00;
  9019  006988  0E00               	movlw	0
  9020  00698A  6FA9               	movwf	169,b	;volatile
  9021                           
  9022                           ;mcc_generated_files/uart1.c: 88:     U1P3H = 0x00;
  9023  00698C  0E00               	movlw	0
  9024  00698E  6FAA               	movwf	170,b	;volatile
  9025                           
  9026                           ;mcc_generated_files/uart1.c: 91:     U1CON0 = 0xB0;
  9027  006990  0EB0               	movlw	176
  9028  006992  6FAB               	movwf	171,b	;volatile
  9029                           
  9030                           ;mcc_generated_files/uart1.c: 94:     U1CON1 = 0x80;
  9031  006994  0E80               	movlw	128
  9032  006996  6FAC               	movwf	172,b	;volatile
  9033                           
  9034                           ;mcc_generated_files/uart1.c: 97:     U1CON2 = 0x00;
  9035  006998  0E00               	movlw	0
  9036  00699A  6FAD               	movwf	173,b	;volatile
  9037                           
  9038                           ;mcc_generated_files/uart1.c: 100:     U1BRGL = 0x03;
  9039  00699C  0E03               	movlw	3
  9040  00699E  6FAE               	movwf	174,b	;volatile
  9041                           
  9042                           ;mcc_generated_files/uart1.c: 103:     U1BRGH = 0x01;
  9043  0069A0  0E01               	movlw	1
  9044  0069A2  6FAF               	movwf	175,b	;volatile
  9045                           
  9046                           ;mcc_generated_files/uart1.c: 106:     U1FIFO = 0x00;
  9047  0069A4  0E00               	movlw	0
  9048  0069A6  6FB0               	movwf	176,b	;volatile
  9049                           
  9050                           ;mcc_generated_files/uart1.c: 109:     U1UIR = 0x00;
  9051  0069A8  0E00               	movlw	0
  9052  0069AA  6FB1               	movwf	177,b	;volatile
  9053                           
  9054                           ;mcc_generated_files/uart1.c: 112:     U1ERRIR = 0x00;
  9055  0069AC  0E00               	movlw	0
  9056  0069AE  6FB2               	movwf	178,b	;volatile
  9057                           
  9058                           ;mcc_generated_files/uart1.c: 115:     U1ERRIE = 0x00;
  9059  0069B0  0E00               	movlw	0
  9060  0069B2  6FB3               	movwf	179,b	;volatile
  9061  0069B4                     
  9062                           ; BSR set to: 2
  9063                           ;mcc_generated_files/uart1.c: 118:     UART1_SetFramingErrorHandler(UART1_DefaultFraming
      +                          ErrorHandler);
  9064  0069B4  0E00               	movlw	0
  9065  0069B6  6E01               	movwf	UART1_SetFramingErrorHandler@interruptHandler^(0+1280),c
  9066  0069B8  0E00               	movlw	0
  9067  0069BA  6E02               	movwf	(UART1_SetFramingErrorHandler@interruptHandler+1)^(0+1280),c
  9068  0069BC  0E00               	movlw	0
  9069  0069BE  6E03               	movwf	(UART1_SetFramingErrorHandler@interruptHandler+2)^(0+1280),c
  9070  0069C0  EC13  F037         	call	_UART1_SetFramingErrorHandler	;wreg free
  9071  0069C4                     
  9072                           ;mcc_generated_files/uart1.c: 119:     UART1_SetOverrunErrorHandler(UART1_DefaultOverrun
      +                          ErrorHandler);
  9073  0069C4  0E00               	movlw	0
  9074  0069C6  6E01               	movwf	UART1_SetOverrunErrorHandler@interruptHandler^(0+1280),c
  9075  0069C8  0E00               	movlw	0
  9076  0069CA  6E02               	movwf	(UART1_SetOverrunErrorHandler@interruptHandler+1)^(0+1280),c
  9077  0069CC  0E00               	movlw	0
  9078  0069CE  6E03               	movwf	(UART1_SetOverrunErrorHandler@interruptHandler+2)^(0+1280),c
  9079  0069D0  EC0C  F037         	call	_UART1_SetOverrunErrorHandler	;wreg free
  9080  0069D4                     
  9081                           ;mcc_generated_files/uart1.c: 120:     UART1_SetErrorHandler(UART1_DefaultErrorHandler);
  9082  0069D4  0E00               	movlw	0
  9083  0069D6  6E01               	movwf	UART1_SetErrorHandler@interruptHandler^(0+1280),c
  9084  0069D8  0E00               	movlw	0
  9085  0069DA  6E02               	movwf	(UART1_SetErrorHandler@interruptHandler+1)^(0+1280),c
  9086  0069DC  0E00               	movlw	0
  9087  0069DE  6E03               	movwf	(UART1_SetErrorHandler@interruptHandler+2)^(0+1280),c
  9088  0069E0  EC1A  F037         	call	_UART1_SetErrorHandler	;wreg free
  9089  0069E4                     
  9090                           ;mcc_generated_files/uart1.c: 122:     uart1RxLastError.status = 0;
  9091  0069E4  0E00               	movlw	0
  9092  0069E6  0105               	movlb	5	; () banked
  9093  0069E8  6FF1               	movwf	_uart1RxLastError& (0+255),b	;volatile
  9094  0069EA                     
  9095                           ; BSR set to: 5
  9096  0069EA  0012               	return		;funcret
  9097  0069EC                     __end_of_UART1_Initialize:
  9098                           	callstack 0
  9099                           
  9100 ;; *************** function _UART1_SetOverrunErrorHandler *****************
  9101 ;; Defined at:
  9102 ;;		line 204 in file "mcc_generated_files/uart1.c"
  9103 ;; Parameters:    Size  Location     Type
  9104 ;;  interruptHan    3    0[COMRAM] PTR FTN()void 
  9105 ;;		 -> UART1_DefaultOverrunErrorHandler(1), 
  9106 ;; Auto vars:     Size  Location     Type
  9107 ;;		None
  9108 ;; Return value:  Size  Location     Type
  9109 ;;                  1    wreg      void 
  9110 ;; Registers used:
  9111 ;;		wreg, status,2, status,0
  9112 ;; Tracked objects:
  9113 ;;		On entry : 0/0
  9114 ;;		On exit  : 0/0
  9115 ;;		Unchanged: 0/0
  9116 ;; Data sizes:     COMRAM   BANK5   BANK6   BANK7   BANK8   BANK9  BANK10  BANK11  BANK12  BANK13  BANK14  BANK15  BANK1
      +6  BANK17  BANK18  BANK19  BANK20  BANK21  BANK22  BANK23  BANK24  BANK25  BANK26  BANK27  BANK28  BANK29  BANK30  BANK3
      +1  BANK32  BANK33  BANK34  BANK35  BANK36  BANK37  BANK38  BANK39  BANK40  BANK41  BANK42  BANK43  BANK44  BANK45  BANK4
      +6  BANK47  BANK48  BANK49  BANK50  BANK51  BANK52  BANK53  BANK54
  9117 ;;      Params:         3       0       0       0       0       0       0       0       0       0       0       0       
      +0       0       0       0       0       0       0       0       0       0       0       0       0       0       0       
      +0       0       0       0       0       0       0       0       0       0       0       0       0       0       0       
      +0       0       0       0       0       0       0       0       0
  9118 ;;      Locals:         0       0       0       0       0       0       0       0       0       0       0       0       
      +0       0       0       0       0       0       0       0       0       0       0       0       0       0       0       
      +0       0       0       0       0       0       0       0       0       0       0       0       0       0       0       
      +0       0       0       0       0       0       0       0       0
  9119 ;;      Temps:          0       0       0       0       0       0       0       0       0       0       0       0       
      +0       0       0       0       0       0       0       0       0       0       0       0       0       0       0       
      +0       0       0       0       0       0       0       0       0       0       0       0       0       0       0       
      +0       0       0       0       0       0       0       0       0
  9120 ;;      Totals:         3       0       0       0       0       0       0       0       0       0       0       0       
      +0       0       0       0       0       0       0       0       0       0       0       0       0       0       0       
      +0       0       0       0       0       0       0       0       0       0       0       0       0       0       0       
      +0       0       0       0       0       0       0       0       0
  9121 ;;Total ram usage:        3 bytes
  9122 ;; Hardware stack levels used: 1
  9123 ;; This function calls:
  9124 ;;		Nothing
  9125 ;; This function is called by:
  9126 ;;		_UART1_Initialize
  9127 ;; This function uses a non-reentrant model
  9128 ;;
  9129                           
  9130                           	psect	text35
  9131  006E18                     __ptext35:
  9132                           	callstack 0
  9133  006E18                     _UART1_SetOverrunErrorHandler:
  9134                           	callstack 124
  9135  006E18                     
  9136                           ;mcc_generated_files/uart1.c: 205:     UART1_OverrunErrorHandler = interruptHandler;
  9137  006E18  C501  F683         	movff	UART1_SetOverrunErrorHandler@interruptHandler,_UART1_OverrunErrorHandler
  9138  006E1C  C502  F684         	movff	UART1_SetOverrunErrorHandler@interruptHandler+1,_UART1_OverrunErrorHandler+1
  9139  006E20  C503  F685         	movff	UART1_SetOverrunErrorHandler@interruptHandler+2,_UART1_OverrunErrorHandler+2
  9140  006E24  0012               	return		;funcret
  9141  006E26                     __end_of_UART1_SetOverrunErrorHandler:
  9142                           	callstack 0
  9143                           
  9144 ;; *************** function _UART1_SetFramingErrorHandler *****************
  9145 ;; Defined at:
  9146 ;;		line 200 in file "mcc_generated_files/uart1.c"
  9147 ;; Parameters:    Size  Location     Type
  9148 ;;  interruptHan    3    0[COMRAM] PTR FTN()void 
  9149 ;;		 -> UART1_DefaultFramingErrorHandler(1), 
  9150 ;; Auto vars:     Size  Location     Type
  9151 ;;		None
  9152 ;; Return value:  Size  Location     Type
  9153 ;;                  1    wreg      void 
  9154 ;; Registers used:
  9155 ;;		wreg, status,2, status,0
  9156 ;; Tracked objects:
  9157 ;;		On entry : 0/0
  9158 ;;		On exit  : 0/0
  9159 ;;		Unchanged: 0/0
  9160 ;; Data sizes:     COMRAM   BANK5   BANK6   BANK7   BANK8   BANK9  BANK10  BANK11  BANK12  BANK13  BANK14  BANK15  BANK1
      +6  BANK17  BANK18  BANK19  BANK20  BANK21  BANK22  BANK23  BANK24  BANK25  BANK26  BANK27  BANK28  BANK29  BANK30  BANK3
      +1  BANK32  BANK33  BANK34  BANK35  BANK36  BANK37  BANK38  BANK39  BANK40  BANK41  BANK42  BANK43  BANK44  BANK45  BANK4
      +6  BANK47  BANK48  BANK49  BANK50  BANK51  BANK52  BANK53  BANK54
  9161 ;;      Params:         3       0       0       0       0       0       0       0       0       0       0       0       
      +0       0       0       0       0       0       0       0       0       0       0       0       0       0       0       
      +0       0       0       0       0       0       0       0       0       0       0       0       0       0       0       
      +0       0       0       0       0       0       0       0       0
  9162 ;;      Locals:         0       0       0       0       0       0       0       0       0       0       0       0       
      +0       0       0       0       0       0       0       0       0       0       0       0       0       0       0       
      +0       0       0       0       0       0       0       0       0       0       0       0       0       0       0       
      +0       0       0       0       0       0       0       0       0
  9163 ;;      Temps:          0       0       0       0       0       0       0       0       0       0       0       0       
      +0       0       0       0       0       0       0       0       0       0       0       0       0       0       0       
      +0       0       0       0       0       0       0       0       0       0       0       0       0       0       0       
      +0       0       0       0       0       0       0       0       0
  9164 ;;      Totals:         3       0       0       0       0       0       0       0       0       0       0       0       
      +0       0       0       0       0       0       0       0       0       0       0       0       0       0       0       
      +0       0       0       0       0       0       0       0       0       0       0       0       0       0       0       
      +0       0       0       0       0       0       0       0       0
  9165 ;;Total ram usage:        3 bytes
  9166 ;; Hardware stack levels used: 1
  9167 ;; This function calls:
  9168 ;;		Nothing
  9169 ;; This function is called by:
  9170 ;;		_UART1_Initialize
  9171 ;; This function uses a non-reentrant model
  9172 ;;
  9173                           
  9174                           	psect	text36
  9175  006E26                     __ptext36:
  9176                           	callstack 0
  9177  006E26                     _UART1_SetFramingErrorHandler:
  9178                           	callstack 124
  9179  006E26                     
  9180                           ;mcc_generated_files/uart1.c: 201:     UART1_FramingErrorHandler = interruptHandler;
  9181  006E26  C501  F5FB         	movff	UART1_SetFramingErrorHandler@interruptHandler,_UART1_FramingErrorHandler
  9182  006E2A  C502  F5FC         	movff	UART1_SetFramingErrorHandler@interruptHandler+1,_UART1_FramingErrorHandler+1
  9183  006E2E  C503  F5FD         	movff	UART1_SetFramingErrorHandler@interruptHandler+2,_UART1_FramingErrorHandler+2
  9184  006E32  0012               	return		;funcret
  9185  006E34                     __end_of_UART1_SetFramingErrorHandler:
  9186                           	callstack 0
  9187                           
  9188 ;; *************** function _UART1_SetErrorHandler *****************
  9189 ;; Defined at:
  9190 ;;		line 208 in file "mcc_generated_files/uart1.c"
  9191 ;; Parameters:    Size  Location     Type
  9192 ;;  interruptHan    3    0[COMRAM] PTR FTN()void 
  9193 ;;		 -> UART1_DefaultErrorHandler(1), 
  9194 ;; Auto vars:     Size  Location     Type
  9195 ;;		None
  9196 ;; Return value:  Size  Location     Type
  9197 ;;                  1    wreg      void 
  9198 ;; Registers used:
  9199 ;;		wreg, status,2, status,0
  9200 ;; Tracked objects:
  9201 ;;		On entry : 0/0
  9202 ;;		On exit  : 0/0
  9203 ;;		Unchanged: 0/0
  9204 ;; Data sizes:     COMRAM   BANK5   BANK6   BANK7   BANK8   BANK9  BANK10  BANK11  BANK12  BANK13  BANK14  BANK15  BANK1
      +6  BANK17  BANK18  BANK19  BANK20  BANK21  BANK22  BANK23  BANK24  BANK25  BANK26  BANK27  BANK28  BANK29  BANK30  BANK3
      +1  BANK32  BANK33  BANK34  BANK35  BANK36  BANK37  BANK38  BANK39  BANK40  BANK41  BANK42  BANK43  BANK44  BANK45  BANK4
      +6  BANK47  BANK48  BANK49  BANK50  BANK51  BANK52  BANK53  BANK54
  9205 ;;      Params:         3       0       0       0       0       0       0       0       0       0       0       0       
      +0       0       0       0       0       0       0       0       0       0       0       0       0       0       0       
      +0       0       0       0       0       0       0       0       0       0       0       0       0       0       0       
      +0       0       0       0       0       0       0       0       0
  9206 ;;      Locals:         0       0       0       0       0       0       0       0       0       0       0       0       
      +0       0       0       0       0       0       0       0       0       0       0       0       0       0       0       
      +0       0       0       0       0       0       0       0       0       0       0       0       0       0       0       
      +0       0       0       0       0       0       0       0       0
  9207 ;;      Temps:          0       0       0       0       0       0       0       0       0       0       0       0       
      +0       0       0       0       0       0       0       0       0       0       0       0       0       0       0       
      +0       0       0       0       0       0       0       0       0       0       0       0       0       0       0       
      +0       0       0       0       0       0       0       0       0
  9208 ;;      Totals:         3       0       0       0       0       0       0       0       0       0       0       0       
      +0       0       0       0       0       0       0       0       0       0       0       0       0       0       0       
      +0       0       0       0       0       0       0       0       0       0       0       0       0       0       0       
      +0       0       0       0       0       0       0       0       0
  9209 ;;Total ram usage:        3 bytes
  9210 ;; Hardware stack levels used: 1
  9211 ;; This function calls:
  9212 ;;		Nothing
  9213 ;; This function is called by:
  9214 ;;		_UART1_Initialize
  9215 ;; This function uses a non-reentrant model
  9216 ;;
  9217                           
  9218                           	psect	text37
  9219  006E34                     __ptext37:
  9220                           	callstack 0
  9221  006E34                     _UART1_SetErrorHandler:
  9222                           	callstack 124
  9223  006E34                     
  9224                           ;mcc_generated_files/uart1.c: 209:     UART1_ErrorHandler = interruptHandler;
  9225  006E34  C501  F680         	movff	UART1_SetErrorHandler@interruptHandler,_UART1_ErrorHandler
  9226  006E38  C502  F681         	movff	UART1_SetErrorHandler@interruptHandler+1,_UART1_ErrorHandler+1
  9227  006E3C  C503  F682         	movff	UART1_SetErrorHandler@interruptHandler+2,_UART1_ErrorHandler+2
  9228  006E40  0012               	return		;funcret
  9229  006E42                     __end_of_UART1_SetErrorHandler:
  9230                           	callstack 0
  9231                           
  9232 ;; *************** function _PMD_Initialize *****************
  9233 ;; Defined at:
  9234 ;;		line 74 in file "mcc_generated_files/mcc.c"
  9235 ;; Parameters:    Size  Location     Type
  9236 ;;		None
  9237 ;; Auto vars:     Size  Location     Type
  9238 ;;		None
  9239 ;; Return value:  Size  Location     Type
  9240 ;;                  1    wreg      void 
  9241 ;; Registers used:
  9242 ;;		wreg, status,2
  9243 ;; Tracked objects:
  9244 ;;		On entry : 0/0
  9245 ;;		On exit  : 0/0
  9246 ;;		Unchanged: 0/0
  9247 ;; Data sizes:     COMRAM   BANK5   BANK6   BANK7   BANK8   BANK9  BANK10  BANK11  BANK12  BANK13  BANK14  BANK15  BANK1
      +6  BANK17  BANK18  BANK19  BANK20  BANK21  BANK22  BANK23  BANK24  BANK25  BANK26  BANK27  BANK28  BANK29  BANK30  BANK3
      +1  BANK32  BANK33  BANK34  BANK35  BANK36  BANK37  BANK38  BANK39  BANK40  BANK41  BANK42  BANK43  BANK44  BANK45  BANK4
      +6  BANK47  BANK48  BANK49  BANK50  BANK51  BANK52  BANK53  BANK54
  9248 ;;      Params:         0       0       0       0       0       0       0       0       0       0       0       0       
      +0       0       0       0       0       0       0       0       0       0       0       0       0       0       0       
      +0       0       0       0       0       0       0       0       0       0       0       0       0       0       0       
      +0       0       0       0       0       0       0       0       0
  9249 ;;      Locals:         0       0       0       0       0       0       0       0       0       0       0       0       
      +0       0       0       0       0       0       0       0       0       0       0       0       0       0       0       
      +0       0       0       0       0       0       0       0       0       0       0       0       0       0       0       
      +0       0       0       0       0       0       0       0       0
  9250 ;;      Temps:          0       0       0       0       0       0       0       0       0       0       0       0       
      +0       0       0       0       0       0       0       0       0       0       0       0       0       0       0       
      +0       0       0       0       0       0       0       0       0       0       0       0       0       0       0       
      +0       0       0       0       0       0       0       0       0
  9251 ;;      Totals:         0       0       0       0       0       0       0       0       0       0       0       0       
      +0       0       0       0       0       0       0       0       0       0       0       0       0       0       0       
      +0       0       0       0       0       0       0       0       0       0       0       0       0       0       0       
      +0       0       0       0       0       0       0       0       0
  9252 ;;Total ram usage:        0 bytes
  9253 ;; Hardware stack levels used: 1
  9254 ;; This function calls:
  9255 ;;		Nothing
  9256 ;; This function is called by:
  9257 ;;		_SYSTEM_Initialize
  9258 ;; This function uses a non-reentrant model
  9259 ;;
  9260                           
  9261                           	psect	text38
  9262  006DA6                     __ptext38:
  9263                           	callstack 0
  9264  006DA6                     _PMD_Initialize:
  9265                           	callstack 125
  9266  006DA6                     
  9267                           ;mcc_generated_files/mcc.c: 77:     PMD0 = 0x00;
  9268  006DA6  0E00               	movlw	0
  9269  006DA8  0100               	movlb	0	; () banked
  9270  006DAA  6F60               	movwf	96,b	;volatile
  9271                           
  9272                           ;mcc_generated_files/mcc.c: 79:     PMD1 = 0x00;
  9273  006DAC  0E00               	movlw	0
  9274  006DAE  6F61               	movwf	97,b	;volatile
  9275                           
  9276                           ;mcc_generated_files/mcc.c: 81:     PMD2 = 0x00;
  9277  006DB0  0E00               	movlw	0
  9278  006DB2  6F62               	movwf	98,b	;volatile
  9279                           
  9280                           ;mcc_generated_files/mcc.c: 83:     PMD3 = 0x00;
  9281  006DB4  0E00               	movlw	0
  9282  006DB6  6F63               	movwf	99,b	;volatile
  9283                           
  9284                           ;mcc_generated_files/mcc.c: 85:     PMD4 = 0x00;
  9285  006DB8  0E00               	movlw	0
  9286  006DBA  6F64               	movwf	100,b	;volatile
  9287                           
  9288                           ;mcc_generated_files/mcc.c: 87:     PMD5 = 0x00;
  9289  006DBC  0E00               	movlw	0
  9290  006DBE  6F65               	movwf	101,b	;volatile
  9291                           
  9292                           ;mcc_generated_files/mcc.c: 89:     PMD6 = 0x00;
  9293  006DC0  0E00               	movlw	0
  9294  006DC2  6F66               	movwf	102,b	;volatile
  9295                           
  9296                           ;mcc_generated_files/mcc.c: 91:     PMD7 = 0x00;
  9297  006DC4  0E00               	movlw	0
  9298  006DC6  6F67               	movwf	103,b	;volatile
  9299                           
  9300                           ;mcc_generated_files/mcc.c: 93:     PMD8 = 0x00;
  9301  006DC8  0E00               	movlw	0
  9302  006DCA  6F68               	movwf	104,b	;volatile
  9303  006DCC                     
  9304                           ; BSR set to: 0
  9305  006DCC  0012               	return		;funcret
  9306  006DCE                     __end_of_PMD_Initialize:
  9307                           	callstack 0
  9308                           
  9309 ;; *************** function _PIN_MANAGER_Initialize *****************
  9310 ;; Defined at:
  9311 ;;		line 55 in file "mcc_generated_files/pin_manager.c"
  9312 ;; Parameters:    Size  Location     Type
  9313 ;;		None
  9314 ;; Auto vars:     Size  Location     Type
  9315 ;;		None
  9316 ;; Return value:  Size  Location     Type
  9317 ;;                  1    wreg      void 
  9318 ;; Registers used:
  9319 ;;		wreg, status,2
  9320 ;; Tracked objects:
  9321 ;;		On entry : 0/0
  9322 ;;		On exit  : 0/0
  9323 ;;		Unchanged: 0/0
  9324 ;; Data sizes:     COMRAM   BANK5   BANK6   BANK7   BANK8   BANK9  BANK10  BANK11  BANK12  BANK13  BANK14  BANK15  BANK1
      +6  BANK17  BANK18  BANK19  BANK20  BANK21  BANK22  BANK23  BANK24  BANK25  BANK26  BANK27  BANK28  BANK29  BANK30  BANK3
      +1  BANK32  BANK33  BANK34  BANK35  BANK36  BANK37  BANK38  BANK39  BANK40  BANK41  BANK42  BANK43  BANK44  BANK45  BANK4
      +6  BANK47  BANK48  BANK49  BANK50  BANK51  BANK52  BANK53  BANK54
  9325 ;;      Params:         0       0       0       0       0       0       0       0       0       0       0       0       
      +0       0       0       0       0       0       0       0       0       0       0       0       0       0       0       
      +0       0       0       0       0       0       0       0       0       0       0       0       0       0       0       
      +0       0       0       0       0       0       0       0       0
  9326 ;;      Locals:         0       0       0       0       0       0       0       0       0       0       0       0       
      +0       0       0       0       0       0       0       0       0       0       0       0       0       0       0       
      +0       0       0       0       0       0       0       0       0       0       0       0       0       0       0       
      +0       0       0       0       0       0       0       0       0
  9327 ;;      Temps:          0       0       0       0       0       0       0       0       0       0       0       0       
      +0       0       0       0       0       0       0       0       0       0       0       0       0       0       0       
      +0       0       0       0       0       0       0       0       0       0       0       0       0       0       0       
      +0       0       0       0       0       0       0       0       0
  9328 ;;      Totals:         0       0       0       0       0       0       0       0       0       0       0       0       
      +0       0       0       0       0       0       0       0       0       0       0       0       0       0       0       
      +0       0       0       0       0       0       0       0       0       0       0       0       0       0       0       
      +0       0       0       0       0       0       0       0       0
  9329 ;;Total ram usage:        0 bytes
  9330 ;; Hardware stack levels used: 1
  9331 ;; This function calls:
  9332 ;;		Nothing
  9333 ;; This function is called by:
  9334 ;;		_SYSTEM_Initialize
  9335 ;; This function uses a non-reentrant model
  9336 ;;
  9337                           
  9338                           	psect	text39
  9339  006820                     __ptext39:
  9340                           	callstack 0
  9341  006820                     _PIN_MANAGER_Initialize:
  9342                           	callstack 125
  9343  006820                     
  9344                           ;mcc_generated_files/pin_manager.c: 60:     LATE = 0x00;
  9345  006820  0E00               	movlw	0
  9346  006822  6EC2               	movwf	194,c	;volatile
  9347                           
  9348                           ;mcc_generated_files/pin_manager.c: 61:     LATD = 0x00;
  9349  006824  0E00               	movlw	0
  9350  006826  6EC1               	movwf	193,c	;volatile
  9351                           
  9352                           ;mcc_generated_files/pin_manager.c: 62:     LATA = 0x00;
  9353  006828  0E00               	movlw	0
  9354  00682A  6EBE               	movwf	190,c	;volatile
  9355                           
  9356                           ;mcc_generated_files/pin_manager.c: 63:     LATF = 0x00;
  9357  00682C  0E00               	movlw	0
  9358  00682E  6EC3               	movwf	195,c	;volatile
  9359                           
  9360                           ;mcc_generated_files/pin_manager.c: 64:     LATB = 0x00;
  9361  006830  0E00               	movlw	0
  9362  006832  6EBF               	movwf	191,c	;volatile
  9363                           
  9364                           ;mcc_generated_files/pin_manager.c: 65:     LATC = 0x00;
  9365  006834  0E00               	movlw	0
  9366  006836  6EC0               	movwf	192,c	;volatile
  9367                           
  9368                           ;mcc_generated_files/pin_manager.c: 70:     TRISE = 0x07;
  9369  006838  0E07               	movlw	7
  9370  00683A  6ECA               	movwf	202,c	;volatile
  9371                           
  9372                           ;mcc_generated_files/pin_manager.c: 71:     TRISF = 0xF6;
  9373  00683C  0EF6               	movlw	246
  9374  00683E  6ECB               	movwf	203,c	;volatile
  9375  006840                     
  9376                           ;mcc_generated_files/pin_manager.c: 72:     TRISA = 0xFF;
  9377  006840  68C6               	setf	198,c	;volatile
  9378                           
  9379                           ;mcc_generated_files/pin_manager.c: 73:     TRISB = 0xF9;
  9380  006842  0EF9               	movlw	249
  9381  006844  6EC7               	movwf	199,c	;volatile
  9382  006846                     
  9383                           ;mcc_generated_files/pin_manager.c: 74:     TRISC = 0xFF;
  9384  006846  68C8               	setf	200,c	;volatile
  9385  006848                     
  9386                           ;mcc_generated_files/pin_manager.c: 75:     TRISD = 0xFF;
  9387  006848  68C9               	setf	201,c	;volatile
  9388  00684A                     
  9389                           ;mcc_generated_files/pin_manager.c: 80:     ANSELD = 0xFF;
  9390  00684A  0104               	movlb	4	; () banked
  9391  00684C  6918               	setf	24,b	;volatile
  9392  00684E                     
  9393                           ; BSR set to: 4
  9394                           ;mcc_generated_files/pin_manager.c: 81:     ANSELC = 0xFF;
  9395  00684E  6910               	setf	16,b	;volatile
  9396                           
  9397                           ;mcc_generated_files/pin_manager.c: 82:     ANSELB = 0xE9;
  9398  006850  0EE9               	movlw	233
  9399  006852  6F08               	movwf	8,b	;volatile
  9400                           
  9401                           ;mcc_generated_files/pin_manager.c: 83:     ANSELE = 0x07;
  9402  006854  0E07               	movlw	7
  9403  006856  6F20               	movwf	32,b	;volatile
  9404                           
  9405                           ;mcc_generated_files/pin_manager.c: 84:     ANSELF = 0xFC;
  9406  006858  0EFC               	movlw	252
  9407  00685A  6F28               	movwf	40,b	;volatile
  9408                           
  9409                           ;mcc_generated_files/pin_manager.c: 85:     ANSELA = 0xF7;
  9410  00685C  0EF7               	movlw	247
  9411  00685E  6F00               	movwf	0,b	;volatile
  9412                           
  9413                           ;mcc_generated_files/pin_manager.c: 90:     WPUD = 0x00;
  9414  006860  0E00               	movlw	0
  9415  006862  6F19               	movwf	25,b	;volatile
  9416                           
  9417                           ;mcc_generated_files/pin_manager.c: 91:     WPUF = 0x00;
  9418  006864  0E00               	movlw	0
  9419  006866  6F29               	movwf	41,b	;volatile
  9420                           
  9421                           ;mcc_generated_files/pin_manager.c: 92:     WPUE = 0x00;
  9422  006868  0E00               	movlw	0
  9423  00686A  6F21               	movwf	33,b	;volatile
  9424                           
  9425                           ;mcc_generated_files/pin_manager.c: 93:     WPUB = 0x00;
  9426  00686C  0E00               	movlw	0
  9427  00686E  6F09               	movwf	9,b	;volatile
  9428                           
  9429                           ;mcc_generated_files/pin_manager.c: 94:     WPUA = 0x00;
  9430  006870  0E00               	movlw	0
  9431  006872  6F01               	movwf	1,b	;volatile
  9432                           
  9433                           ;mcc_generated_files/pin_manager.c: 95:     WPUC = 0x00;
  9434  006874  0E00               	movlw	0
  9435  006876  6F11               	movwf	17,b	;volatile
  9436                           
  9437                           ;mcc_generated_files/pin_manager.c: 100:     ODCONE = 0x00;
  9438  006878  0E00               	movlw	0
  9439  00687A  6F22               	movwf	34,b	;volatile
  9440                           
  9441                           ;mcc_generated_files/pin_manager.c: 101:     ODCONF = 0x00;
  9442  00687C  0E00               	movlw	0
  9443  00687E  6F2A               	movwf	42,b	;volatile
  9444                           
  9445                           ;mcc_generated_files/pin_manager.c: 102:     ODCONA = 0x00;
  9446  006880  0E00               	movlw	0
  9447  006882  6F02               	movwf	2,b	;volatile
  9448                           
  9449                           ;mcc_generated_files/pin_manager.c: 103:     ODCONB = 0x06;
  9450  006884  0E06               	movlw	6
  9451  006886  6F0A               	movwf	10,b	;volatile
  9452                           
  9453                           ;mcc_generated_files/pin_manager.c: 104:     ODCONC = 0x18;
  9454  006888  0E18               	movlw	24
  9455  00688A  6F12               	movwf	18,b	;volatile
  9456                           
  9457                           ;mcc_generated_files/pin_manager.c: 105:     ODCOND = 0x00;
  9458  00688C  0E00               	movlw	0
  9459  00688E  6F1A               	movwf	26,b	;volatile
  9460  006890                     
  9461                           ; BSR set to: 4
  9462                           ;mcc_generated_files/pin_manager.c: 110:     SLRCONA = 0xFF;
  9463  006890  6903               	setf	3,b	;volatile
  9464  006892                     
  9465                           ; BSR set to: 4
  9466                           ;mcc_generated_files/pin_manager.c: 111:     SLRCONB = 0xFF;
  9467  006892  690B               	setf	11,b	;volatile
  9468  006894                     
  9469                           ; BSR set to: 4
  9470                           ;mcc_generated_files/pin_manager.c: 112:     SLRCONC = 0xFF;
  9471  006894  6913               	setf	19,b	;volatile
  9472  006896                     
  9473                           ; BSR set to: 4
  9474                           ;mcc_generated_files/pin_manager.c: 113:     SLRCOND = 0xFF;
  9475  006896  691B               	setf	27,b	;volatile
  9476                           
  9477                           ;mcc_generated_files/pin_manager.c: 114:     SLRCONE = 0x07;
  9478  006898  0E07               	movlw	7
  9479  00689A  6F23               	movwf	35,b	;volatile
  9480  00689C                     
  9481                           ; BSR set to: 4
  9482                           ;mcc_generated_files/pin_manager.c: 115:     SLRCONF = 0xFF;
  9483  00689C  692B               	setf	43,b	;volatile
  9484  00689E                     
  9485                           ; BSR set to: 4
  9486                           ;mcc_generated_files/pin_manager.c: 120:     INLVLA = 0xFF;
  9487  00689E  6904               	setf	4,b	;volatile
  9488  0068A0                     
  9489                           ; BSR set to: 4
  9490                           ;mcc_generated_files/pin_manager.c: 121:     INLVLB = 0xFF;
  9491  0068A0  690C               	setf	12,b	;volatile
  9492  0068A2                     
  9493                           ; BSR set to: 4
  9494                           ;mcc_generated_files/pin_manager.c: 122:     INLVLC = 0xFF;
  9495  0068A2  6914               	setf	20,b	;volatile
  9496  0068A4                     
  9497                           ; BSR set to: 4
  9498                           ;mcc_generated_files/pin_manager.c: 123:     INLVLD = 0xFF;
  9499  0068A4  691C               	setf	28,b	;volatile
  9500                           
  9501                           ;mcc_generated_files/pin_manager.c: 124:     INLVLE = 0x0F;
  9502  0068A6  0E0F               	movlw	15
  9503  0068A8  6F24               	movwf	36,b	;volatile
  9504  0068AA                     
  9505                           ; BSR set to: 4
  9506                           ;mcc_generated_files/pin_manager.c: 125:     INLVLF = 0xFF;
  9507  0068AA  692C               	setf	44,b	;volatile
  9508                           
  9509                           ;mcc_generated_files/pin_manager.c: 134:     ADACTPPS = 0x0C;
  9510  0068AC  0E0C               	movlw	12
  9511  0068AE  0102               	movlb	2	; () banked
  9512  0068B0  6F69               	movwf	105,b	;volatile
  9513                           
  9514                           ;mcc_generated_files/pin_manager.c: 135:     I2C1SDAPPS = 0x0A;
  9515  0068B2  0E0A               	movlw	10
  9516  0068B4  6F70               	movwf	112,b	;volatile
  9517                           
  9518                           ;mcc_generated_files/pin_manager.c: 136:     RB1PPS = 0x37;
  9519  0068B6  0E37               	movlw	55
  9520  0068B8  6F0A               	movwf	10,b	;volatile
  9521                           
  9522                           ;mcc_generated_files/pin_manager.c: 137:     RB2PPS = 0x38;
  9523  0068BA  0E38               	movlw	56
  9524  0068BC  6F0B               	movwf	11,b	;volatile
  9525                           
  9526                           ;mcc_generated_files/pin_manager.c: 138:     RF0PPS = 0x20;
  9527  0068BE  0E20               	movlw	32
  9528  0068C0  6F29               	movwf	41,b	;volatile
  9529                           
  9530                           ;mcc_generated_files/pin_manager.c: 139:     U1RXPPS = 0x29;
  9531  0068C2  0E29               	movlw	41
  9532  0068C4  6F72               	movwf	114,b	;volatile
  9533                           
  9534                           ;mcc_generated_files/pin_manager.c: 140:     I2C1SCLPPS = 0x09;
  9535  0068C6  0E09               	movlw	9
  9536  0068C8  6F71               	movwf	113,b	;volatile
  9537  0068CA                     
  9538                           ; BSR set to: 2
  9539  0068CA  0012               	return		;funcret
  9540  0068CC                     __end_of_PIN_MANAGER_Initialize:
  9541                           	callstack 0
  9542                           
  9543 ;; *************** function _OSCILLATOR_Initialize *****************
  9544 ;; Defined at:
  9545 ;;		line 60 in file "mcc_generated_files/mcc.c"
  9546 ;; Parameters:    Size  Location     Type
  9547 ;;		None
  9548 ;; Auto vars:     Size  Location     Type
  9549 ;;		None
  9550 ;; Return value:  Size  Location     Type
  9551 ;;                  1    wreg      void 
  9552 ;; Registers used:
  9553 ;;		wreg, status,2
  9554 ;; Tracked objects:
  9555 ;;		On entry : 0/0
  9556 ;;		On exit  : 0/0
  9557 ;;		Unchanged: 0/0
  9558 ;; Data sizes:     COMRAM   BANK5   BANK6   BANK7   BANK8   BANK9  BANK10  BANK11  BANK12  BANK13  BANK14  BANK15  BANK1
      +6  BANK17  BANK18  BANK19  BANK20  BANK21  BANK22  BANK23  BANK24  BANK25  BANK26  BANK27  BANK28  BANK29  BANK30  BANK3
      +1  BANK32  BANK33  BANK34  BANK35  BANK36  BANK37  BANK38  BANK39  BANK40  BANK41  BANK42  BANK43  BANK44  BANK45  BANK4
      +6  BANK47  BANK48  BANK49  BANK50  BANK51  BANK52  BANK53  BANK54
  9559 ;;      Params:         0       0       0       0       0       0       0       0       0       0       0       0       
      +0       0       0       0       0       0       0       0       0       0       0       0       0       0       0       
      +0       0       0       0       0       0       0       0       0       0       0       0       0       0       0       
      +0       0       0       0       0       0       0       0       0
  9560 ;;      Locals:         0       0       0       0       0       0       0       0       0       0       0       0       
      +0       0       0       0       0       0       0       0       0       0       0       0       0       0       0       
      +0       0       0       0       0       0       0       0       0       0       0       0       0       0       0       
      +0       0       0       0       0       0       0       0       0
  9561 ;;      Temps:          0       0       0       0       0       0       0       0       0       0       0       0       
      +0       0       0       0       0       0       0       0       0       0       0       0       0       0       0       
      +0       0       0       0       0       0       0       0       0       0       0       0       0       0       0       
      +0       0       0       0       0       0       0       0       0
  9562 ;;      Totals:         0       0       0       0       0       0       0       0       0       0       0       0       
      +0       0       0       0       0       0       0       0       0       0       0       0       0       0       0       
      +0       0       0       0       0       0       0       0       0       0       0       0       0       0       0       
      +0       0       0       0       0       0       0       0       0
  9563 ;;Total ram usage:        0 bytes
  9564 ;; Hardware stack levels used: 1
  9565 ;; This function calls:
  9566 ;;		Nothing
  9567 ;; This function is called by:
  9568 ;;		_SYSTEM_Initialize
  9569 ;; This function uses a non-reentrant model
  9570 ;;
  9571                           
  9572                           	psect	text40
  9573  006E00                     __ptext40:
  9574                           	callstack 0
  9575  006E00                     _OSCILLATOR_Initialize:
  9576                           	callstack 125
  9577  006E00                     
  9578                           ;mcc_generated_files/mcc.c: 63:     OSCCON1 = 0x70;
  9579  006E00  0E70               	movlw	112
  9580  006E02  0100               	movlb	0	; () banked
  9581  006E04  6FAD               	movwf	173,b	;volatile
  9582                           
  9583                           ;mcc_generated_files/mcc.c: 65:     OSCCON3 = 0x00;
  9584  006E06  0E00               	movlw	0
  9585  006E08  6FAF               	movwf	175,b	;volatile
  9586                           
  9587                           ;mcc_generated_files/mcc.c: 67:     OSCEN = 0x00;
  9588  006E0A  0E00               	movlw	0
  9589  006E0C  6FB3               	movwf	179,b	;volatile
  9590                           
  9591                           ;mcc_generated_files/mcc.c: 69:     OSCFRQ = 0x02;
  9592  006E0E  0E02               	movlw	2
  9593  006E10  6FB1               	movwf	177,b	;volatile
  9594                           
  9595                           ;mcc_generated_files/mcc.c: 71:     OSCTUNE = 0x00;
  9596  006E12  0E00               	movlw	0
  9597  006E14  6FB0               	movwf	176,b	;volatile
  9598  006E16                     
  9599                           ; BSR set to: 0
  9600  006E16  0012               	return		;funcret
  9601  006E18                     __end_of_OSCILLATOR_Initialize:
  9602                           	callstack 0
  9603                           
  9604 ;; *************** function _I2C1_Initialize *****************
  9605 ;; Defined at:
  9606 ;;		line 183 in file "mcc_generated_files/i2c1_master.c"
  9607 ;; Parameters:    Size  Location     Type
  9608 ;;		None
  9609 ;; Auto vars:     Size  Location     Type
  9610 ;;		None
  9611 ;; Return value:  Size  Location     Type
  9612 ;;                  1    wreg      void 
  9613 ;; Registers used:
  9614 ;;		wreg, status,2
  9615 ;; Tracked objects:
  9616 ;;		On entry : 0/0
  9617 ;;		On exit  : 0/0
  9618 ;;		Unchanged: 0/0
  9619 ;; Data sizes:     COMRAM   BANK5   BANK6   BANK7   BANK8   BANK9  BANK10  BANK11  BANK12  BANK13  BANK14  BANK15  BANK1
      +6  BANK17  BANK18  BANK19  BANK20  BANK21  BANK22  BANK23  BANK24  BANK25  BANK26  BANK27  BANK28  BANK29  BANK30  BANK3
      +1  BANK32  BANK33  BANK34  BANK35  BANK36  BANK37  BANK38  BANK39  BANK40  BANK41  BANK42  BANK43  BANK44  BANK45  BANK4
      +6  BANK47  BANK48  BANK49  BANK50  BANK51  BANK52  BANK53  BANK54
  9620 ;;      Params:         0       0       0       0       0       0       0       0       0       0       0       0       
      +0       0       0       0       0       0       0       0       0       0       0       0       0       0       0       
      +0       0       0       0       0       0       0       0       0       0       0       0       0       0       0       
      +0       0       0       0       0       0       0       0       0
  9621 ;;      Locals:         0       0       0       0       0       0       0       0       0       0       0       0       
      +0       0       0       0       0       0       0       0       0       0       0       0       0       0       0       
      +0       0       0       0       0       0       0       0       0       0       0       0       0       0       0       
      +0       0       0       0       0       0       0       0       0
  9622 ;;      Temps:          0       0       0       0       0       0       0       0       0       0       0       0       
      +0       0       0       0       0       0       0       0       0       0       0       0       0       0       0       
      +0       0       0       0       0       0       0       0       0       0       0       0       0       0       0       
      +0       0       0       0       0       0       0       0       0
  9623 ;;      Totals:         0       0       0       0       0       0       0       0       0       0       0       0       
      +0       0       0       0       0       0       0       0       0       0       0       0       0       0       0       
      +0       0       0       0       0       0       0       0       0       0       0       0       0       0       0       
      +0       0       0       0       0       0       0       0       0
  9624 ;;Total ram usage:        0 bytes
  9625 ;; Hardware stack levels used: 1
  9626 ;; This function calls:
  9627 ;;		Nothing
  9628 ;; This function is called by:
  9629 ;;		_SYSTEM_Initialize
  9630 ;; This function uses a non-reentrant model
  9631 ;;
  9632                           
  9633                           	psect	text41
  9634  006D52                     __ptext41:
  9635                           	callstack 0
  9636  006D52                     _I2C1_Initialize:
  9637                           	callstack 125
  9638  006D52                     
  9639                           ;mcc_generated_files/i2c1_master.c: 186:     I2C1CON0 = 0x04;
  9640  006D52  0E04               	movlw	4
  9641  006D54  0102               	movlb	2	; () banked
  9642  006D56  6F94               	movwf	148,b	;volatile
  9643                           
  9644                           ;mcc_generated_files/i2c1_master.c: 188:     I2C1CON1 = 0x80;
  9645  006D58  0E80               	movlw	128
  9646  006D5A  6F95               	movwf	149,b	;volatile
  9647                           
  9648                           ;mcc_generated_files/i2c1_master.c: 190:     I2C1CON2 = 0x18;
  9649  006D5C  0E18               	movlw	24
  9650  006D5E  6F96               	movwf	150,b	;volatile
  9651                           
  9652                           ;mcc_generated_files/i2c1_master.c: 192:     I2C1CLK = 0x03;
  9653  006D60  0E03               	movlw	3
  9654  006D62  6F9E               	movwf	158,b	;volatile
  9655                           
  9656                           ;mcc_generated_files/i2c1_master.c: 194:     I2C1PIR = 0x00;
  9657  006D64  0E00               	movlw	0
  9658  006D66  6F9A               	movwf	154,b	;volatile
  9659                           
  9660                           ;mcc_generated_files/i2c1_master.c: 196:     I2C1PIE = 0x00;
  9661  006D68  0E00               	movlw	0
  9662  006D6A  6F9B               	movwf	155,b	;volatile
  9663                           
  9664                           ;mcc_generated_files/i2c1_master.c: 198:     I2C1ERR = 0x00;
  9665  006D6C  0E00               	movlw	0
  9666  006D6E  6F97               	movwf	151,b	;volatile
  9667                           
  9668                           ;mcc_generated_files/i2c1_master.c: 200:     I2C1CNTL = 0x00;
  9669  006D70  0E00               	movlw	0
  9670  006D72  6F8C               	movwf	140,b	;volatile
  9671                           
  9672                           ;mcc_generated_files/i2c1_master.c: 201:     I2C1CNTH = 0x00;
  9673  006D74  0E00               	movlw	0
  9674  006D76  6F8D               	movwf	141,b	;volatile
  9675                           
  9676                           ;mcc_generated_files/i2c1_master.c: 203:     I2C1BAUD = 0x00;
  9677  006D78  0E00               	movlw	0
  9678  006D7A  6F9D               	movwf	157,b	;volatile
  9679  006D7C                     
  9680                           ; BSR set to: 2
  9681  006D7C  0012               	return		;funcret
  9682  006D7E                     __end_of_I2C1_Initialize:
  9683                           	callstack 0
  9684                           
  9685 ;; *************** function _ADC_Initialize *****************
  9686 ;; Defined at:
  9687 ;;		line 65 in file "mcc_generated_files/adc.c"
  9688 ;; Parameters:    Size  Location     Type
  9689 ;;		None
  9690 ;; Auto vars:     Size  Location     Type
  9691 ;;		None
  9692 ;; Return value:  Size  Location     Type
  9693 ;;                  1    wreg      void 
  9694 ;; Registers used:
  9695 ;;		wreg, status,2, status,0, cstack
  9696 ;; Tracked objects:
  9697 ;;		On entry : 0/0
  9698 ;;		On exit  : 0/0
  9699 ;;		Unchanged: 0/0
  9700 ;; Data sizes:     COMRAM   BANK5   BANK6   BANK7   BANK8   BANK9  BANK10  BANK11  BANK12  BANK13  BANK14  BANK15  BANK1
      +6  BANK17  BANK18  BANK19  BANK20  BANK21  BANK22  BANK23  BANK24  BANK25  BANK26  BANK27  BANK28  BANK29  BANK30  BANK3
      +1  BANK32  BANK33  BANK34  BANK35  BANK36  BANK37  BANK38  BANK39  BANK40  BANK41  BANK42  BANK43  BANK44  BANK45  BANK4
      +6  BANK47  BANK48  BANK49  BANK50  BANK51  BANK52  BANK53  BANK54
  9701 ;;      Params:         0       0       0       0       0       0       0       0       0       0       0       0       
      +0       0       0       0       0       0       0       0       0       0       0       0       0       0       0       
      +0       0       0       0       0       0       0       0       0       0       0       0       0       0       0       
      +0       0       0       0       0       0       0       0       0
  9702 ;;      Locals:         0       0       0       0       0       0       0       0       0       0       0       0       
      +0       0       0       0       0       0       0       0       0       0       0       0       0       0       0       
      +0       0       0       0       0       0       0       0       0       0       0       0       0       0       0       
      +0       0       0       0       0       0       0       0       0
  9703 ;;      Temps:          0       0       0       0       0       0       0       0       0       0       0       0       
      +0       0       0       0       0       0       0       0       0       0       0       0       0       0       0       
      +0       0       0       0       0       0       0       0       0       0       0       0       0       0       0       
      +0       0       0       0       0       0       0       0       0
  9704 ;;      Totals:         0       0       0       0       0       0       0       0       0       0       0       0       
      +0       0       0       0       0       0       0       0       0       0       0       0       0       0       0       
      +0       0       0       0       0       0       0       0       0       0       0       0       0       0       0       
      +0       0       0       0       0       0       0       0       0
  9705 ;;Total ram usage:        0 bytes
  9706 ;; Hardware stack levels used: 1
  9707 ;; Hardware stack levels required when called: 1
  9708 ;; This function calls:
  9709 ;;		_ADC_SetADIInterruptHandler
  9710 ;;		_ADC_SetActiveClockTuningInterruptHandler
  9711 ;;		_ADC_SetContext1ThresholdInterruptHandler
  9712 ;; This function is called by:
  9713 ;;		_SYSTEM_Initialize
  9714 ;; This function uses a non-reentrant model
  9715 ;;
  9716                           
  9717                           	psect	text42
  9718  0066B8                     __ptext42:
  9719                           	callstack 0
  9720  0066B8                     _ADC_Initialize:
  9721                           	callstack 124
  9722  0066B8                     
  9723                           ;mcc_generated_files/adc.c: 68:     ADACT = 0x00;
  9724  0066B8  0E00               	movlw	0
  9725  0066BA  0103               	movlb	3	; () banked
  9726  0066BC  6FF9               	movwf	249,b	;volatile
  9727                           
  9728                           ;mcc_generated_files/adc.c: 71:     ADCLK = 0x00;
  9729  0066BE  0E00               	movlw	0
  9730  0066C0  6FFA               	movwf	250,b	;volatile
  9731                           
  9732                           ;mcc_generated_files/adc.c: 74:     ADCP = 0x00;
  9733  0066C2  0E00               	movlw	0
  9734  0066C4  6FD8               	movwf	216,b	;volatile
  9735                           
  9736                           ;mcc_generated_files/adc.c: 80:     ADCTX = 0x0;
  9737  0066C6  0E00               	movlw	0
  9738  0066C8  6FFB               	movwf	251,b	;volatile
  9739                           
  9740                           ;mcc_generated_files/adc.c: 83:     ADLTHL = 0x00;
  9741  0066CA  0E00               	movlw	0
  9742  0066CC  6FD9               	movwf	217,b	;volatile
  9743                           
  9744                           ;mcc_generated_files/adc.c: 86:     ADLTHH = 0x00;
  9745  0066CE  0E00               	movlw	0
  9746  0066D0  6FDA               	movwf	218,b	;volatile
  9747                           
  9748                           ;mcc_generated_files/adc.c: 89:     ADUTHL = 0x00;
  9749  0066D2  0E00               	movlw	0
  9750  0066D4  6FDB               	movwf	219,b	;volatile
  9751                           
  9752                           ;mcc_generated_files/adc.c: 92:     ADUTHH = 0x00;
  9753  0066D6  0E00               	movlw	0
  9754  0066D8  6FDC               	movwf	220,b	;volatile
  9755                           
  9756                           ;mcc_generated_files/adc.c: 95:     ADSTPTL = 0x00;
  9757  0066DA  0E00               	movlw	0
  9758  0066DC  6FDF               	movwf	223,b	;volatile
  9759                           
  9760                           ;mcc_generated_files/adc.c: 98:     ADSTPTH = 0x00;
  9761  0066DE  0E00               	movlw	0
  9762  0066E0  6FE0               	movwf	224,b	;volatile
  9763                           
  9764                           ;mcc_generated_files/adc.c: 101:     ADACCL = 0x00;
  9765  0066E2  0E00               	movlw	0
  9766  0066E4  6FE3               	movwf	227,b	;volatile
  9767                           
  9768                           ;mcc_generated_files/adc.c: 104:     ADACCH = 0x00;
  9769  0066E6  0E00               	movlw	0
  9770  0066E8  6FE4               	movwf	228,b	;volatile
  9771                           
  9772                           ;mcc_generated_files/adc.c: 107:     ADACCU = 0x00;
  9773  0066EA  0E00               	movlw	0
  9774  0066EC  6FE5               	movwf	229,b	;volatile
  9775                           
  9776                           ;mcc_generated_files/adc.c: 110:     ADCNT = 0x00;
  9777  0066EE  0E00               	movlw	0
  9778  0066F0  6FE6               	movwf	230,b	;volatile
  9779                           
  9780                           ;mcc_generated_files/adc.c: 113:     ADRPT = 0x00;
  9781  0066F2  0E00               	movlw	0
  9782  0066F4  6FE7               	movwf	231,b	;volatile
  9783                           
  9784                           ;mcc_generated_files/adc.c: 116:     ADRESL = 0x00;
  9785  0066F6  0E00               	movlw	0
  9786  0066F8  6FEA               	movwf	234,b	;volatile
  9787                           
  9788                           ;mcc_generated_files/adc.c: 119:     ADRESH = 0x00;
  9789  0066FA  0E00               	movlw	0
  9790  0066FC  6FEB               	movwf	235,b	;volatile
  9791                           
  9792                           ;mcc_generated_files/adc.c: 122:     ADPCH = 0x05;
  9793  0066FE  0E05               	movlw	5
  9794  006700  6FEC               	movwf	236,b	;volatile
  9795                           
  9796                           ;mcc_generated_files/adc.c: 125:     ADACQL = 0x00;
  9797  006702  0E00               	movlw	0
  9798  006704  6FEE               	movwf	238,b	;volatile
  9799                           
  9800                           ;mcc_generated_files/adc.c: 128:     ADACQH = 0x00;
  9801  006706  0E00               	movlw	0
  9802  006708  6FEF               	movwf	239,b	;volatile
  9803                           
  9804                           ;mcc_generated_files/adc.c: 131:     ADCAP = 0x00;
  9805  00670A  0E00               	movlw	0
  9806  00670C  6FF0               	movwf	240,b	;volatile
  9807                           
  9808                           ;mcc_generated_files/adc.c: 134:     ADPREL = 0x00;
  9809  00670E  0E00               	movlw	0
  9810  006710  6FF1               	movwf	241,b	;volatile
  9811                           
  9812                           ;mcc_generated_files/adc.c: 137:     ADPREH = 0x00;
  9813  006712  0E00               	movlw	0
  9814  006714  6FF2               	movwf	242,b	;volatile
  9815                           
  9816                           ;mcc_generated_files/adc.c: 140:     ADCON0 = 0x00;
  9817  006716  0E00               	movlw	0
  9818  006718  6FF3               	movwf	243,b	;volatile
  9819                           
  9820                           ;mcc_generated_files/adc.c: 143:     ADCON1 = 0x00;
  9821  00671A  0E00               	movlw	0
  9822  00671C  6FF4               	movwf	244,b	;volatile
  9823                           
  9824                           ;mcc_generated_files/adc.c: 146:     ADCON2 = 0x10;
  9825  00671E  0E10               	movlw	16
  9826  006720  6FF5               	movwf	245,b	;volatile
  9827                           
  9828                           ;mcc_generated_files/adc.c: 149:     ADCON3 = 0x00;
  9829  006722  0E00               	movlw	0
  9830  006724  6FF6               	movwf	246,b	;volatile
  9831                           
  9832                           ;mcc_generated_files/adc.c: 152:     ADSTAT = 0x00;
  9833  006726  0E00               	movlw	0
  9834  006728  6FF7               	movwf	247,b	;volatile
  9835                           
  9836                           ;mcc_generated_files/adc.c: 155:     ADREF = 0x00;
  9837  00672A  0E00               	movlw	0
  9838  00672C  6FF8               	movwf	248,b	;volatile
  9839                           
  9840                           ;mcc_generated_files/adc.c: 158:     ADCSEL1 = 0x00;
  9841  00672E  0E00               	movlw	0
  9842  006730  6FFC               	movwf	252,b	;volatile
  9843  006732                     
  9844                           ; BSR set to: 3
  9845                           ;mcc_generated_files/adc.c: 161:     PIR1bits.ADIF = 0;
  9846  006732  94AF               	bcf	175,2,c	;volatile
  9847  006734                     
  9848                           ; BSR set to: 3
  9849                           ;mcc_generated_files/adc.c: 164:     PIR1bits.ACTIF = 0;
  9850  006734  96AF               	bcf	175,3,c	;volatile
  9851  006736                     
  9852                           ; BSR set to: 3
  9853                           ;mcc_generated_files/adc.c: 167:     PIR2bits.ADCH1IF = 0;
  9854  006736  90B0               	bcf	176,0,c	;volatile
  9855  006738                     
  9856                           ; BSR set to: 3
  9857                           ;mcc_generated_files/adc.c: 171:     ADC_SetADIInterruptHandler(ADC_DefaultADI_ISR);
  9858  006738  0E00               	movlw	0
  9859  00673A  6E01               	movwf	ADC_SetADIInterruptHandler@InterruptHandler^(0+1280),c
  9860  00673C  0E00               	movlw	0
  9861  00673E  6E02               	movwf	(ADC_SetADIInterruptHandler@InterruptHandler+1)^(0+1280),c
  9862  006740  0E00               	movlw	0
  9863  006742  6E03               	movwf	(ADC_SetADIInterruptHandler@InterruptHandler+2)^(0+1280),c
  9864  006744  EC2F  F037         	call	_ADC_SetADIInterruptHandler	;wreg free
  9865  006748                     
  9866                           ;mcc_generated_files/adc.c: 172:     ADC_SetContext1ThresholdInterruptHandler(ADC_Defaul
      +                          tContext1Threshold_ISR);
  9867  006748  0E00               	movlw	0
  9868  00674A  6E01               	movwf	ADC_SetContext1ThresholdInterruptHandler@InterruptHandler^(0+1280),c
  9869  00674C  0E00               	movlw	0
  9870  00674E  6E02               	movwf	(ADC_SetContext1ThresholdInterruptHandler@InterruptHandler+1)^(0+1280),c
  9871  006750  0E00               	movlw	0
  9872  006752  6E03               	movwf	(ADC_SetContext1ThresholdInterruptHandler@InterruptHandler+2)^(0+1280),c
  9873  006754  EC21  F037         	call	_ADC_SetContext1ThresholdInterruptHandler	;wreg free
  9874  006758                     
  9875                           ;mcc_generated_files/adc.c: 173:     ADC_SetActiveClockTuningInterruptHandler(ADC_Defaul
      +                          tActiveClockTuning_ISR);
  9876  006758  0E00               	movlw	0
  9877  00675A  6E01               	movwf	ADC_SetActiveClockTuningInterruptHandler@InterruptHandler^(0+1280),c
  9878  00675C  0E00               	movlw	0
  9879  00675E  6E02               	movwf	(ADC_SetActiveClockTuningInterruptHandler@InterruptHandler+1)^(0+1280),c
  9880  006760  0E00               	movlw	0
  9881  006762  6E03               	movwf	(ADC_SetActiveClockTuningInterruptHandler@InterruptHandler+2)^(0+1280),c
  9882  006764  EC28  F037         	call	_ADC_SetActiveClockTuningInterruptHandler	;wreg free
  9883  006768                     
  9884                           ;mcc_generated_files/adc.c: 176:     ADCON0 = 0x84;
  9885  006768  0E84               	movlw	132
  9886  00676A  0103               	movlb	3	; () banked
  9887  00676C  6FF3               	movwf	243,b	;volatile
  9888  00676E                     
  9889                           ; BSR set to: 3
  9890  00676E  0012               	return		;funcret
  9891  006770                     __end_of_ADC_Initialize:
  9892                           	callstack 0
  9893                           
  9894 ;; *************** function _ADC_SetContext1ThresholdInterruptHandler *****************
  9895 ;; Defined at:
  9896 ;;		line 423 in file "mcc_generated_files/adc.c"
  9897 ;; Parameters:    Size  Location     Type
  9898 ;;  InterruptHan    3    0[COMRAM] PTR FTN()void 
  9899 ;;		 -> ADC_DefaultContext1Threshold_ISR(1), 
  9900 ;; Auto vars:     Size  Location     Type
  9901 ;;		None
  9902 ;; Return value:  Size  Location     Type
  9903 ;;                  1    wreg      void 
  9904 ;; Registers used:
  9905 ;;		wreg, status,2, status,0
  9906 ;; Tracked objects:
  9907 ;;		On entry : 0/0
  9908 ;;		On exit  : 0/0
  9909 ;;		Unchanged: 0/0
  9910 ;; Data sizes:     COMRAM   BANK5   BANK6   BANK7   BANK8   BANK9  BANK10  BANK11  BANK12  BANK13  BANK14  BANK15  BANK1
      +6  BANK17  BANK18  BANK19  BANK20  BANK21  BANK22  BANK23  BANK24  BANK25  BANK26  BANK27  BANK28  BANK29  BANK30  BANK3
      +1  BANK32  BANK33  BANK34  BANK35  BANK36  BANK37  BANK38  BANK39  BANK40  BANK41  BANK42  BANK43  BANK44  BANK45  BANK4
      +6  BANK47  BANK48  BANK49  BANK50  BANK51  BANK52  BANK53  BANK54
  9911 ;;      Params:         3       0       0       0       0       0       0       0       0       0       0       0       
      +0       0       0       0       0       0       0       0       0       0       0       0       0       0       0       
      +0       0       0       0       0       0       0       0       0       0       0       0       0       0       0       
      +0       0       0       0       0       0       0       0       0
  9912 ;;      Locals:         0       0       0       0       0       0       0       0       0       0       0       0       
      +0       0       0       0       0       0       0       0       0       0       0       0       0       0       0       
      +0       0       0       0       0       0       0       0       0       0       0       0       0       0       0       
      +0       0       0       0       0       0       0       0       0
  9913 ;;      Temps:          0       0       0       0       0       0       0       0       0       0       0       0       
      +0       0       0       0       0       0       0       0       0       0       0       0       0       0       0       
      +0       0       0       0       0       0       0       0       0       0       0       0       0       0       0       
      +0       0       0       0       0       0       0       0       0
  9914 ;;      Totals:         3       0       0       0       0       0       0       0       0       0       0       0       
      +0       0       0       0       0       0       0       0       0       0       0       0       0       0       0       
      +0       0       0       0       0       0       0       0       0       0       0       0       0       0       0       
      +0       0       0       0       0       0       0       0       0
  9915 ;;Total ram usage:        3 bytes
  9916 ;; Hardware stack levels used: 1
  9917 ;; This function calls:
  9918 ;;		Nothing
  9919 ;; This function is called by:
  9920 ;;		_ADC_Initialize
  9921 ;; This function uses a non-reentrant model
  9922 ;;
  9923                           
  9924                           	psect	text43
  9925  006E42                     __ptext43:
  9926                           	callstack 0
  9927  006E42                     _ADC_SetContext1ThresholdInterruptHandler:
  9928                           	callstack 124
  9929  006E42                     
  9930                           ;mcc_generated_files/adc.c: 423: void ADC_SetContext1ThresholdInterruptHandler(void (* I
      +                          nterruptHandler)(void));mcc_generated_files/adc.c: 424: {;mcc_generated_files/adc.c: 425
      +                          :     ADC_Context1Thereshld_ISR = InterruptHandler;
  9931  006E42  C501  F5F5         	movff	ADC_SetContext1ThresholdInterruptHandler@InterruptHandler,_ADC_Context1Thereshld_
      +                          ISR
  9932  006E46  C502  F5F6         	movff	ADC_SetContext1ThresholdInterruptHandler@InterruptHandler+1,_ADC_Context1Thereshl
      +                          d_ISR+1
  9933  006E4A  C503  F5F7         	movff	ADC_SetContext1ThresholdInterruptHandler@InterruptHandler+2,_ADC_Context1Thereshl
      +                          d_ISR+2
  9934  006E4E  0012               	return		;funcret
  9935  006E50                     __end_of_ADC_SetContext1ThresholdInterruptHandler:
  9936                           	callstack 0
  9937                           
  9938 ;; *************** function _ADC_SetActiveClockTuningInterruptHandler *****************
  9939 ;; Defined at:
  9940 ;;		line 428 in file "mcc_generated_files/adc.c"
  9941 ;; Parameters:    Size  Location     Type
  9942 ;;  InterruptHan    3    0[COMRAM] PTR FTN()void 
  9943 ;;		 -> ADC_DefaultActiveClockTuning_ISR(1), 
  9944 ;; Auto vars:     Size  Location     Type
  9945 ;;		None
  9946 ;; Return value:  Size  Location     Type
  9947 ;;                  1    wreg      void 
  9948 ;; Registers used:
  9949 ;;		wreg, status,2, status,0
  9950 ;; Tracked objects:
  9951 ;;		On entry : 0/0
  9952 ;;		On exit  : 0/0
  9953 ;;		Unchanged: 0/0
  9954 ;; Data sizes:     COMRAM   BANK5   BANK6   BANK7   BANK8   BANK9  BANK10  BANK11  BANK12  BANK13  BANK14  BANK15  BANK1
      +6  BANK17  BANK18  BANK19  BANK20  BANK21  BANK22  BANK23  BANK24  BANK25  BANK26  BANK27  BANK28  BANK29  BANK30  BANK3
      +1  BANK32  BANK33  BANK34  BANK35  BANK36  BANK37  BANK38  BANK39  BANK40  BANK41  BANK42  BANK43  BANK44  BANK45  BANK4
      +6  BANK47  BANK48  BANK49  BANK50  BANK51  BANK52  BANK53  BANK54
  9955 ;;      Params:         3       0       0       0       0       0       0       0       0       0       0       0       
      +0       0       0       0       0       0       0       0       0       0       0       0       0       0       0       
      +0       0       0       0       0       0       0       0       0       0       0       0       0       0       0       
      +0       0       0       0       0       0       0       0       0
  9956 ;;      Locals:         0       0       0       0       0       0       0       0       0       0       0       0       
      +0       0       0       0       0       0       0       0       0       0       0       0       0       0       0       
      +0       0       0       0       0       0       0       0       0       0       0       0       0       0       0       
      +0       0       0       0       0       0       0       0       0
  9957 ;;      Temps:          0       0       0       0       0       0       0       0       0       0       0       0       
      +0       0       0       0       0       0       0       0       0       0       0       0       0       0       0       
      +0       0       0       0       0       0       0       0       0       0       0       0       0       0       0       
      +0       0       0       0       0       0       0       0       0
  9958 ;;      Totals:         3       0       0       0       0       0       0       0       0       0       0       0       
      +0       0       0       0       0       0       0       0       0       0       0       0       0       0       0       
      +0       0       0       0       0       0       0       0       0       0       0       0       0       0       0       
      +0       0       0       0       0       0       0       0       0
  9959 ;;Total ram usage:        3 bytes
  9960 ;; Hardware stack levels used: 1
  9961 ;; This function calls:
  9962 ;;		Nothing
  9963 ;; This function is called by:
  9964 ;;		_ADC_Initialize
  9965 ;; This function uses a non-reentrant model
  9966 ;;
  9967                           
  9968                           	psect	text44
  9969  006E50                     __ptext44:
  9970                           	callstack 0
  9971  006E50                     _ADC_SetActiveClockTuningInterruptHandler:
  9972                           	callstack 124
  9973  006E50                     
  9974                           ;mcc_generated_files/adc.c: 428: void ADC_SetActiveClockTuningInterruptHandler(void (* I
      +                          nterruptHandler)(void));mcc_generated_files/adc.c: 429: {;mcc_generated_files/adc.c: 430
      +                          :     ADC_ActiveClockTuning_ISR = InterruptHandler;
  9975  006E50  C501  F5F2         	movff	ADC_SetActiveClockTuningInterruptHandler@InterruptHandler,_ADC_ActiveClockTuning_
      +                          ISR
  9976  006E54  C502  F5F3         	movff	ADC_SetActiveClockTuningInterruptHandler@InterruptHandler+1,_ADC_ActiveClockTunin
      +                          g_ISR+1
  9977  006E58  C503  F5F4         	movff	ADC_SetActiveClockTuningInterruptHandler@InterruptHandler+2,_ADC_ActiveClockTunin
      +                          g_ISR+2
  9978  006E5C  0012               	return		;funcret
  9979  006E5E                     __end_of_ADC_SetActiveClockTuningInterruptHandler:
  9980                           	callstack 0
  9981                           
  9982 ;; *************** function _ADC_SetADIInterruptHandler *****************
  9983 ;; Defined at:
  9984 ;;		line 418 in file "mcc_generated_files/adc.c"
  9985 ;; Parameters:    Size  Location     Type
  9986 ;;  InterruptHan    3    0[COMRAM] PTR FTN()void 
  9987 ;;		 -> ADC_DefaultADI_ISR(1), 
  9988 ;; Auto vars:     Size  Location     Type
  9989 ;;		None
  9990 ;; Return value:  Size  Location     Type
  9991 ;;                  1    wreg      void 
  9992 ;; Registers used:
  9993 ;;		wreg, status,2, status,0
  9994 ;; Tracked objects:
  9995 ;;		On entry : 0/0
  9996 ;;		On exit  : 0/0
  9997 ;;		Unchanged: 0/0
  9998 ;; Data sizes:     COMRAM   BANK5   BANK6   BANK7   BANK8   BANK9  BANK10  BANK11  BANK12  BANK13  BANK14  BANK15  BANK1
      +6  BANK17  BANK18  BANK19  BANK20  BANK21  BANK22  BANK23  BANK24  BANK25  BANK26  BANK27  BANK28  BANK29  BANK30  BANK3
      +1  BANK32  BANK33  BANK34  BANK35  BANK36  BANK37  BANK38  BANK39  BANK40  BANK41  BANK42  BANK43  BANK44  BANK45  BANK4
      +6  BANK47  BANK48  BANK49  BANK50  BANK51  BANK52  BANK53  BANK54
  9999 ;;      Params:         3       0       0       0       0       0       0       0       0       0       0       0       
      +0       0       0       0       0       0       0       0       0       0       0       0       0       0       0       
      +0       0       0       0       0       0       0       0       0       0       0       0       0       0       0       
      +0       0       0       0       0       0       0       0       0
 10000 ;;      Locals:         0       0       0       0       0       0       0       0       0       0       0       0       
      +0       0       0       0       0       0       0       0       0       0       0       0       0       0       0       
      +0       0       0       0       0       0       0       0       0       0       0       0       0       0       0       
      +0       0       0       0       0       0       0       0       0
 10001 ;;      Temps:          0       0       0       0       0       0       0       0       0       0       0       0       
      +0       0       0       0       0       0       0       0       0       0       0       0       0       0       0       
      +0       0       0       0       0       0       0       0       0       0       0       0       0       0       0       
      +0       0       0       0       0       0       0       0       0
 10002 ;;      Totals:         3       0       0       0       0       0       0       0       0       0       0       0       
      +0       0       0       0       0       0       0       0       0       0       0       0       0       0       0       
      +0       0       0       0       0       0       0       0       0       0       0       0       0       0       0       
      +0       0       0       0       0       0       0       0       0
 10003 ;;Total ram usage:        3 bytes
 10004 ;; Hardware stack levels used: 1
 10005 ;; This function calls:
 10006 ;;		Nothing
 10007 ;; This function is called by:
 10008 ;;		_ADC_Initialize
 10009 ;; This function uses a non-reentrant model
 10010 ;;
 10011                           
 10012                           	psect	text45
 10013  006E5E                     __ptext45:
 10014                           	callstack 0
 10015  006E5E                     _ADC_SetADIInterruptHandler:
 10016                           	callstack 124
 10017  006E5E                     
 10018                           ;mcc_generated_files/adc.c: 418: void ADC_SetADIInterruptHandler(void (* InterruptHandle
      +                          r)(void));mcc_generated_files/adc.c: 419: {;mcc_generated_files/adc.c: 420:     ADC_Conv
      +                          ersionComplete_ISR = InterruptHandler;
 10019  006E5E  C501  F5F8         	movff	ADC_SetADIInterruptHandler@InterruptHandler,_ADC_ConversionComplete_ISR
 10020  006E62  C502  F5F9         	movff	ADC_SetADIInterruptHandler@InterruptHandler+1,_ADC_ConversionComplete_ISR+1
 10021  006E66  C503  F5FA         	movff	ADC_SetADIInterruptHandler@InterruptHandler+2,_ADC_ConversionComplete_ISR+2
 10022  006E6A  0012               	return		;funcret
 10023  006E6C                     __end_of_ADC_SetADIInterruptHandler:
 10024                           	callstack 0
 10025                           
 10026 ;; *************** function _ADC_GetSingleConversion *****************
 10027 ;; Defined at:
 10028 ;;		line 246 in file "mcc_generated_files/adc.c"
 10029 ;; Parameters:    Size  Location     Type
 10030 ;;  channel         1    wreg     enum E22863
 10031 ;; Auto vars:     Size  Location     Type
 10032 ;;  channel         1    4[COMRAM] enum E22863
 10033 ;; Return value:  Size  Location     Type
 10034 ;;                  2    0[COMRAM] unsigned short 
 10035 ;; Registers used:
 10036 ;;		wreg, status,2, status,0
 10037 ;; Tracked objects:
 10038 ;;		On entry : 0/0
 10039 ;;		On exit  : 0/0
 10040 ;;		Unchanged: 0/0
 10041 ;; Data sizes:     COMRAM   BANK5   BANK6   BANK7   BANK8   BANK9  BANK10  BANK11  BANK12  BANK13  BANK14  BANK15  BANK1
      +6  BANK17  BANK18  BANK19  BANK20  BANK21  BANK22  BANK23  BANK24  BANK25  BANK26  BANK27  BANK28  BANK29  BANK30  BANK3
      +1  BANK32  BANK33  BANK34  BANK35  BANK36  BANK37  BANK38  BANK39  BANK40  BANK41  BANK42  BANK43  BANK44  BANK45  BANK4
      +6  BANK47  BANK48  BANK49  BANK50  BANK51  BANK52  BANK53  BANK54
 10042 ;;      Params:         2       0       0       0       0       0       0       0       0       0       0       0       
      +0       0       0       0       0       0       0       0       0       0       0       0       0       0       0       
      +0       0       0       0       0       0       0       0       0       0       0       0       0       0       0       
      +0       0       0       0       0       0       0       0       0
 10043 ;;      Locals:         1       0       0       0       0       0       0       0       0       0       0       0       
      +0       0       0       0       0       0       0       0       0       0       0       0       0       0       0       
      +0       0       0       0       0       0       0       0       0       0       0       0       0       0       0       
      +0       0       0       0       0       0       0       0       0
 10044 ;;      Temps:          2       0       0       0       0       0       0       0       0       0       0       0       
      +0       0       0       0       0       0       0       0       0       0       0       0       0       0       0       
      +0       0       0       0       0       0       0       0       0       0       0       0       0       0       0       
      +0       0       0       0       0       0       0       0       0
 10045 ;;      Totals:         5       0       0       0       0       0       0       0       0       0       0       0       
      +0       0       0       0       0       0       0       0       0       0       0       0       0       0       0       
      +0       0       0       0       0       0       0       0       0       0       0       0       0       0       0       
      +0       0       0       0       0       0       0       0       0
 10046 ;;Total ram usage:        5 bytes
 10047 ;; Hardware stack levels used: 1
 10048 ;; This function calls:
 10049 ;;		Nothing
 10050 ;; This function is called by:
 10051 ;;		_main
 10052 ;; This function uses a non-reentrant model
 10053 ;;
 10054                           
 10055                           	psect	text46
 10056  006D20                     __ptext46:
 10057                           	callstack 0
 10058  006D20                     _ADC_GetSingleConversion:
 10059                           	callstack 126
 10060                           
 10061                           ;incstack = 0
 10062                           ;ADC_GetSingleConversion@channel stored from wreg
 10063  006D20  6E05               	movwf	ADC_GetSingleConversion@channel^(0+1280),c
 10064  006D22                     
 10065                           ;mcc_generated_files/adc.c: 246: adc_result_t ADC_GetSingleConversion(ADC_channel_t chan
      +                          nel);mcc_generated_files/adc.c: 247: {;mcc_generated_files/adc.c: 249:     ADPCH = chann
      +                          el;
 10066  006D22  0061  F414  F3EC   	movff	ADC_GetSingleConversion@channel,1004	;volatile
 10067  006D28                     
 10068                           ;mcc_generated_files/adc.c: 252:     ADCON0bits.ON = 1;
 10069  006D28  0103               	movlb	3	; () banked
 10070  006D2A  8FF3               	bsf	243,7,b	;volatile
 10071  006D2C                     
 10072                           ; BSR set to: 3
 10073                           ;mcc_generated_files/adc.c: 255:     ADCON0bits.CONT = 0;
 10074  006D2C  9DF3               	bcf	243,6,b	;volatile
 10075  006D2E                     
 10076                           ; BSR set to: 3
 10077                           ;mcc_generated_files/adc.c: 258:     ADCON0bits.GO = 1;
 10078  006D2E  81F3               	bsf	243,0,b	;volatile
 10079  006D30                     l944:
 10080                           
 10081                           ; BSR set to: 3
 10082                           ;mcc_generated_files/adc.c: 261:     while(ADCON0bits.GO)
 10083  006D30  B1F3               	btfsc	243,0,b	;volatile
 10084  006D32  EF9D  F036         	goto	u6351
 10085  006D36  EF9F  F036         	goto	u6350
 10086  006D3A                     u6351:
 10087  006D3A  EF98  F036         	goto	l944
 10088  006D3E                     u6350:
 10089  006D3E                     
 10090                           ; BSR set to: 3
 10091                           ;mcc_generated_files/adc.c: 266:     return ((adc_result_t) ((ADRESH << 8) + ADRESL));
 10092  006D3E  51EB               	movf	235,w,b	;volatile
 10093  006D40  6E04               	movwf	(??_ADC_GetSingleConversion+1)^(0+1280),c
 10094  006D42  6A03               	clrf	??_ADC_GetSingleConversion^(0+1280),c
 10095  006D44  51EA               	movf	234,w,b	;volatile
 10096  006D46  2403               	addwf	??_ADC_GetSingleConversion^(0+1280),w,c
 10097  006D48  6E01               	movwf	?_ADC_GetSingleConversion^(0+1280),c
 10098  006D4A  0E00               	movlw	0
 10099  006D4C  2004               	addwfc	(??_ADC_GetSingleConversion+1)^(0+1280),w,c
 10100  006D4E  6E02               	movwf	(?_ADC_GetSingleConversion+1)^(0+1280),c
 10101  006D50                     
 10102                           ; BSR set to: 3
 10103  006D50  0012               	return		;funcret
 10104  006D52                     __end_of_ADC_GetSingleConversion:
 10105                           	callstack 0
 10106                           
 10107                           	psect	rparam
 10108  0000                     
 10109                           	psect	idloc
 10110                           
 10111                           ;Config register IDLOC0 @ 0x200000
 10112                           ;	unspecified, using default values
 10113  200000                     	org	2097152
 10114  200000  0FFF               	dw	4095
 10115                           
 10116                           ;Config register IDLOC1 @ 0x200002
 10117                           ;	unspecified, using default values
 10118  200002                     	org	2097154
 10119  200002  0FFF               	dw	4095
 10120                           
 10121                           ;Config register IDLOC2 @ 0x200004
 10122                           ;	unspecified, using default values
 10123  200004                     	org	2097156
 10124  200004  0FFF               	dw	4095
 10125                           
 10126                           ;Config register IDLOC3 @ 0x200006
 10127                           ;	unspecified, using default values
 10128  200006                     	org	2097158
 10129  200006  0FFF               	dw	4095
 10130                           
 10131                           ;Config register IDLOC4 @ 0x200008
 10132                           ;	unspecified, using default values
 10133  200008                     	org	2097160
 10134  200008  0FFF               	dw	4095
 10135                           
 10136                           ;Config register IDLOC5 @ 0x20000A
 10137                           ;	unspecified, using default values
 10138  20000A                     	org	2097162
 10139  20000A  0FFF               	dw	4095
 10140                           
 10141                           ;Config register IDLOC6 @ 0x20000C
 10142                           ;	unspecified, using default values
 10143  20000C                     	org	2097164
 10144  20000C  0FFF               	dw	4095
 10145                           
 10146                           ;Config register IDLOC7 @ 0x20000E
 10147                           ;	unspecified, using default values
 10148  20000E                     	org	2097166
 10149  20000E  0FFF               	dw	4095
 10150                           
 10151                           ;Config register IDLOC8 @ 0x200010
 10152                           ;	unspecified, using default values
 10153  200010                     	org	2097168
 10154  200010  0FFF               	dw	4095
 10155                           
 10156                           ;Config register IDLOC9 @ 0x200012
 10157                           ;	unspecified, using default values
 10158  200012                     	org	2097170
 10159  200012  0FFF               	dw	4095
 10160                           
 10161                           ;Config register IDLOC10 @ 0x200014
 10162                           ;	unspecified, using default values
 10163  200014                     	org	2097172
 10164  200014  0FFF               	dw	4095
 10165                           
 10166                           ;Config register IDLOC11 @ 0x200016
 10167                           ;	unspecified, using default values
 10168  200016                     	org	2097174
 10169  200016  0FFF               	dw	4095
 10170                           
 10171                           ;Config register IDLOC12 @ 0x200018
 10172                           ;	unspecified, using default values
 10173  200018                     	org	2097176
 10174  200018  0FFF               	dw	4095
 10175                           
 10176                           ;Config register IDLOC13 @ 0x20001A
 10177                           ;	unspecified, using default values
 10178  20001A                     	org	2097178
 10179  20001A  0FFF               	dw	4095
 10180                           
 10181                           ;Config register IDLOC14 @ 0x20001C
 10182                           ;	unspecified, using default values
 10183  20001C                     	org	2097180
 10184  20001C  0FFF               	dw	4095
 10185                           
 10186                           ;Config register IDLOC15 @ 0x20001E
 10187                           ;	unspecified, using default values
 10188  20001E                     	org	2097182
 10189  20001E  0FFF               	dw	4095
 10190                           
 10191                           ;Config register IDLOC16 @ 0x200020
 10192                           ;	unspecified, using default values
 10193  200020                     	org	2097184
 10194  200020  0FFF               	dw	4095
 10195                           
 10196                           ;Config register IDLOC17 @ 0x200022
 10197                           ;	unspecified, using default values
 10198  200022                     	org	2097186
 10199  200022  0FFF               	dw	4095
 10200                           
 10201                           ;Config register IDLOC18 @ 0x200024
 10202                           ;	unspecified, using default values
 10203  200024                     	org	2097188
 10204  200024  0FFF               	dw	4095
 10205                           
 10206                           ;Config register IDLOC19 @ 0x200026
 10207                           ;	unspecified, using default values
 10208  200026                     	org	2097190
 10209  200026  0FFF               	dw	4095
 10210                           
 10211                           ;Config register IDLOC20 @ 0x200028
 10212                           ;	unspecified, using default values
 10213  200028                     	org	2097192
 10214  200028  0FFF               	dw	4095
 10215                           
 10216                           ;Config register IDLOC21 @ 0x20002A
 10217                           ;	unspecified, using default values
 10218  20002A                     	org	2097194
 10219  20002A  0FFF               	dw	4095
 10220                           
 10221                           ;Config register IDLOC22 @ 0x20002C
 10222                           ;	unspecified, using default values
 10223  20002C                     	org	2097196
 10224  20002C  0FFF               	dw	4095
 10225                           
 10226                           ;Config register IDLOC23 @ 0x20002E
 10227                           ;	unspecified, using default values
 10228  20002E                     	org	2097198
 10229  20002E  0FFF               	dw	4095
 10230                           
 10231                           ;Config register IDLOC24 @ 0x200030
 10232                           ;	unspecified, using default values
 10233  200030                     	org	2097200
 10234  200030  0FFF               	dw	4095
 10235                           
 10236                           ;Config register IDLOC25 @ 0x200032
 10237                           ;	unspecified, using default values
 10238  200032                     	org	2097202
 10239  200032  0FFF               	dw	4095
 10240                           
 10241                           ;Config register IDLOC26 @ 0x200034
 10242                           ;	unspecified, using default values
 10243  200034                     	org	2097204
 10244  200034  0FFF               	dw	4095
 10245                           
 10246                           ;Config register IDLOC27 @ 0x200036
 10247                           ;	unspecified, using default values
 10248  200036                     	org	2097206
 10249  200036  0FFF               	dw	4095
 10250                           
 10251                           ;Config register IDLOC28 @ 0x200038
 10252                           ;	unspecified, using default values
 10253  200038                     	org	2097208
 10254  200038  0FFF               	dw	4095
 10255                           
 10256                           ;Config register IDLOC29 @ 0x20003A
 10257                           ;	unspecified, using default values
 10258  20003A                     	org	2097210
 10259  20003A  0FFF               	dw	4095
 10260                           
 10261                           ;Config register IDLOC30 @ 0x20003C
 10262                           ;	unspecified, using default values
 10263  20003C                     	org	2097212
 10264  20003C  0FFF               	dw	4095
 10265                           
 10266                           ;Config register IDLOC31 @ 0x20003E
 10267                           ;	unspecified, using default values
 10268  20003E                     	org	2097214
 10269  20003E  0FFF               	dw	4095
 10270                           
 10271                           	psect	config
 10272                           
 10273                           ;Config register CONFIG1 @ 0x300000
 10274                           ;	External Oscillator Selection
 10275                           ;	FEXTOSC = HS, HS (crystal oscillator) above 8 MHz
 10276                           ;	Reset Oscillator Selection
 10277                           ;	RSTOSC = EXTOSC, EXTOSC operating per FEXTOSC bits (device manufacturing default)
 10278  300000                     	org	3145728
 10279  300000  FA                 	db	250
 10280                           
 10281                           ;Config register CONFIG2 @ 0x300001
 10282                           ;	Clock out Enable bit
 10283                           ;	CLKOUTEN = OFF, CLKOUT function is disabled
 10284                           ;	PRLOCKED One-Way Set Enable bit
 10285                           ;	PR1WAY = ON, PRLOCKED bit can be cleared and set only once
 10286                           ;	Clock Switch Enable bit
 10287                           ;	CSWEN = ON, Writing to NOSC and NDIV is allowed
 10288                           ;	JTAG Enable bit
 10289                           ;	JTAGEN = OFF, Disable JTAG Boundary Scan mode, JTAG pins revert to user functions
 10290                           ;	Fail-Safe Clock Monitor Enable bit
 10291                           ;	FCMEN = ON, Fail-Safe Clock Monitor enabled
 10292                           ;	Fail-Safe Clock Monitor -Primary XTAL Enable bit
 10293                           ;	FCMENP = ON, FSCM timer will set FSCMP bit and OSFIF interrupt on Primary XTAL failure
 10294                           ;	Fail-Safe Clock Monitor -Secondary XTAL Enable bit
 10295                           ;	FCMENS = ON, FSCM timer will set FSCMS bit and OSFIF interrupt on Secondary XTAL failu
      +                          re
 10296  300001                     	org	3145729
 10297  300001  EF                 	db	239
 10298                           
 10299                           ;Config register CONFIG3 @ 0x300002
 10300                           ;	MCLR Enable bit
 10301                           ;	MCLRE = EXTMCLR, If LVP = 0, MCLR pin is MCLR; If LVP = 1, RE3 pin function is MCLR
 10302                           ;	Power-up timer selection bits
 10303                           ;	PWRTS = PWRT_OFF, PWRT is disabled
 10304                           ;	Multi-vector enable bit
 10305                           ;	MVECEN = OFF, Interrupt contoller does not use vector table to prioritze interrupts
 10306                           ;	IVTLOCK bit One-way set enable bit
 10307                           ;	IVT1WAY = ON, IVTLOCKED bit can be cleared and set only once
 10308                           ;	Low Power BOR Enable bit
 10309                           ;	LPBOREN = OFF, Low-Power BOR disabled
 10310                           ;	Brown-out Reset Enable bits
 10311                           ;	BOREN = SBORDIS, Brown-out Reset enabled , SBOREN bit is ignored
 10312  300002                     	org	3145730
 10313  300002  F7                 	db	247
 10314                           
 10315                           ;Config register CONFIG4 @ 0x300003
 10316                           ;	Brown-out Reset Voltage Selection bits
 10317                           ;	BORV = VBOR_1P9, Brown-out Reset Voltage (VBOR) set to 1.9V
 10318                           ;	ZCD Disable bit
 10319                           ;	ZCD = OFF, ZCD module is disabled. ZCD can be enabled by setting the ZCDSEN bit of ZCD
      +                          CON
 10320                           ;	PPSLOCK bit One-Way Set Enable bit
 10321                           ;	PPS1WAY = ON, PPSLOCKED bit can be cleared and set only once; PPS registers remain loc
      +                          ked after one clear/set cycle
 10322                           ;	Stack Full/Underflow Reset Enable bit
 10323                           ;	STVREN = ON, Stack full/underflow will cause Reset
 10324                           ;	Low Voltage Programming Enable bit
 10325                           ;	LVP = ON, Low voltage programming enabled. MCLR/VPP pin function is MCLR. MCLRE config
      +                          uration bit is ignored
 10326                           ;	Extended Instruction Set Enable bit
 10327                           ;	XINST = OFF, Extended Instruction Set and Indexed Addressing Mode disabled
 10328  300003                     	org	3145731
 10329  300003  FF                 	db	255
 10330                           
 10331                           ;Config register CONFIG5 @ 0x300004
 10332                           ;	WDT Period selection bits
 10333                           ;	WDTCPS = WDTCPS_31, Divider ratio 1:65536; software control of WDTPS
 10334                           ;	WDT operating mode
 10335                           ;	WDTE = OFF, WDT Disabled; SWDTEN is ignored
 10336  300004                     	org	3145732
 10337  300004  9F                 	db	159
 10338                           
 10339                           ;Config register CONFIG6 @ 0x300005
 10340                           ;	WDT Window Select bits
 10341                           ;	WDTCWS = WDTCWS_7, window always open (100%); software control; keyed access not requi
      +                          red
 10342                           ;	WDT input clock selector
 10343                           ;	WDTCCS = SC, Software Control
 10344  300005                     	org	3145733
 10345  300005  FF                 	db	255
 10346                           
 10347                           ;Config register CONFIG7 @ 0x300006
 10348                           ;	Boot Block Size selection bits
 10349                           ;	BBSIZE = BBSIZE_512, Boot Block size is 512 words
 10350                           ;	Boot Block enable bit
 10351                           ;	BBEN = OFF, Boot block disabled
 10352                           ;	Storage Area Flash enable bit
 10353                           ;	SAFEN = OFF, SAF disabled
 10354  300006                     	org	3145734
 10355  300006  FF                 	db	255
 10356                           
 10357                           ;Config register CONFIG8 @ 0x300007
 10358                           ;	Boot Block Write Protection bit
 10359                           ;	WRTB = OFF, Boot Block not Write protected
 10360                           ;	Configuration Register Write Protection bit
 10361                           ;	WRTC = OFF, Configuration registers not Write protected
 10362                           ;	Data EEPROM Write Protection bit
 10363                           ;	WRTD = OFF, Data EEPROM not Write protected
 10364                           ;	SAF Write protection bit
 10365                           ;	WRTSAF = OFF, SAF not Write Protected
 10366                           ;	Application Block write protection bit
 10367                           ;	WRTAPP = OFF, Application Block not write protected
 10368  300007                     	org	3145735
 10369  300007  FF                 	db	255
 10370                           
 10371                           ;Config register CONFIG9 @ 0x300008
 10372                           ;	CRC on boot output pin selection
 10373                           ;	BOOTPINSEL = RC5, CRC on boot output pin is RC5
 10374                           ;	CRC on boot output pin enable bit
 10375                           ;	BPEN = OFF, CRC on boot output pin disabled
 10376                           ;	CRC on boot output pin open drain bit
 10377                           ;	ODCON = OFF, Pin drives both high-going and low-going signals
 10378  300008                     	org	3145736
 10379  300008  FF                 	db	255
 10380                           
 10381                           ;Config register CONFIG10 @ 0x300009
 10382                           ;	PFM and Data EEPROM Code Protection bit
 10383                           ;	CP = OFF, PFM and Data EEPROM code protection disabled
 10384  300009                     	org	3145737
 10385  300009  FF                 	db	255
 10386                           
 10387                           ;Config register CONFIG11 @ 0x30000A
 10388                           ;	CRC on boot scan enable for boot area
 10389                           ;	BOOTSCEN = OFF, CRC on boot will not include the boot area of program memory in its ca
      +                          lculation
 10390                           ;	CRC on boot Continue on Error for boot areas bit
 10391                           ;	BOOTCOE = HALT, CRC on boot will stop device if error is detected in boot areas
 10392                           ;	CRC on boot application code scan enable
 10393                           ;	APPSCEN = OFF, CRC on boot will not include the application area of program memory in 
      +                          its calculation
 10394                           ;	CRC on boot SAF area scan enable
 10395                           ;	SAFSCEN = OFF, CRC on boot will not include the SAF area of program memory in its calc
      +                          ulation
 10396                           ;	CRC on boot Data EEPROM scan enable
 10397                           ;	DATASCEN = OFF, CRC on boot will not include data EEPROM in its calculation
 10398                           ;	CRC on boot Config fuses scan enable
 10399                           ;	CFGSCEN = OFF, CRC on boot will not include the configuration fuses in its calculation
 10400                           ;	CRC on boot Continue on Error for non-boot areas bit
 10401                           ;	COE = HALT, CRC on boot will stop device if error is detected in non-boot areas
 10402                           ;	Boot on CRC Enable bit
 10403                           ;	BOOTPOR = OFF, CRC on boot will not run
 10404  30000A                     	org	3145738
 10405  30000A  FF                 	db	255
 10406                           
 10407                           ;Config register CONFIG12 @ 0x30000B
 10408                           ;	Boot Sector Polynomial for CRC on boot bits 31-24
 10409                           ;	BCRCPOLT = hFF, Bits 31:24 of BCRCPOL are 0xFF
 10410  30000B                     	org	3145739
 10411  30000B  FF                 	db	255
 10412                           
 10413                           ;Config register CONFIG13 @ 0x30000C
 10414                           ;	Boot Sector Polynomial for CRC on boot bits 23-16
 10415                           ;	BCRCPOLU = hFF, Bits 23:16 of BCRCPOL are 0xFF
 10416  30000C                     	org	3145740
 10417  30000C  FF                 	db	255
 10418                           
 10419                           ;Config register CONFIG14 @ 0x30000D
 10420                           ;	Boot Sector Polynomial for CRC on boot bits 15-8
 10421                           ;	BCRCPOLH = hFF, Bits 15:8 of BCRCPOL are 0xFF
 10422  30000D                     	org	3145741
 10423  30000D  FF                 	db	255
 10424                           
 10425                           ;Config register CONFIG15 @ 0x30000E
 10426                           ;	Boot Sector Polynomial for CRC on boot bits 7-0
 10427                           ;	BCRCPOLL = hFF, Bits 7:0 of BCRCPOL are 0xFF
 10428  30000E                     	org	3145742
 10429  30000E  FF                 	db	255
 10430                           
 10431                           ;Config register CONFIG16 @ 0x30000F
 10432                           ;	Boot Sector Seed for CRC on boot bits 31-24
 10433                           ;	BCRCSEEDT = hFF, Bits 31:24 of BCRCSEED are 0xFF
 10434  30000F                     	org	3145743
 10435  30000F  FF                 	db	255
 10436                           
 10437                           ;Config register CONFIG17 @ 0x300010
 10438                           ;	Boot Sector Seed for CRC on boot bits 23-16
 10439                           ;	BCRCSEEDU = hFF, Bits 23:16 of BCRCSEED are 0xFF
 10440  300010                     	org	3145744
 10441  300010  FF                 	db	255
 10442                           
 10443                           ;Config register CONFIG18 @ 0x300011
 10444                           ;	Boot Sector Seed for CRC on boot bits 15-8
 10445                           ;	BCRCSEEDH = hFF, Bits 15:8 of BCRCSEED are 0xFF
 10446  300011                     	org	3145745
 10447  300011  FF                 	db	255
 10448                           
 10449                           ;Config register CONFIG19 @ 0x300012
 10450                           ;	Boot Sector Seed for CRC on boot bits 7-0
 10451                           ;	BCRCSEEDL = hFF, Bits 7:0 of BCRCSEED are 0xFF
 10452  300012                     	org	3145746
 10453  300012  FF                 	db	255
 10454                           
 10455                           ;Config register CONFIG20 @ 0x300013
 10456                           ;	unspecified, using default values
 10457                           ;	Boot Sector Expected Result for CRC on boot bits 31-24
 10458                           ;	BCRCEREST = 0xFF, unprogrammed default
 10459  300013                     	org	3145747
 10460  300013  FF                 	db	255
 10461                           
 10462                           ;Config register CONFIG21 @ 0x300014
 10463                           ;	unspecified, using default values
 10464                           ;	Boot Sector Expected Result for CRC on boot bits 23-16
 10465                           ;	BCRCERESU = 0xFF, unprogrammed default
 10466  300014                     	org	3145748
 10467  300014  FF                 	db	255
 10468                           
 10469                           ;Config register CONFIG22 @ 0x300015
 10470                           ;	unspecified, using default values
 10471                           ;	Boot Sector Expected Result for CRC on boot bits 15-8
 10472                           ;	BCRCERESH = 0xFF, unprogrammed default
 10473  300015                     	org	3145749
 10474  300015  FF                 	db	255
 10475                           
 10476                           ;Config register CONFIG23 @ 0x300016
 10477                           ;	unspecified, using default values
 10478                           ;	Boot Sector Expected Result for CRC on boot bits 7-0
 10479                           ;	BCRCERESL = 0xFF, unprogrammed default
 10480  300016                     	org	3145750
 10481  300016  FF                 	db	255
 10482                           
 10483                           ;Config register CONFIG24 @ 0x300017
 10484                           ;	Non-Boot Sector Polynomial for CRC on boot bits 31-24
 10485                           ;	CRCPOLT = hFF, Bits 31:24 of CRCPOL are 0xFF
 10486  300017                     	org	3145751
 10487  300017  FF                 	db	255
 10488                           
 10489                           ;Config register CONFIG25 @ 0x300018
 10490                           ;	Non-Boot Sector Polynomial for CRC on boot bits 23-16
 10491                           ;	CRCPOLU = hFF, Bits 23:16 of CRCPOL are 0xFF
 10492  300018                     	org	3145752
 10493  300018  FF                 	db	255
 10494                           
 10495                           ;Config register CONFIG26 @ 0x300019
 10496                           ;	Non-Boot Sector Polynomial for CRC on boot bits 15-8
 10497                           ;	CRCPOLH = hFF, Bits 15:8 of CRCPOL are 0xFF
 10498  300019                     	org	3145753
 10499  300019  FF                 	db	255
 10500                           
 10501                           ;Config register CONFIG27 @ 0x30001A
 10502                           ;	Non-Boot Sector Polynomial for CRC on boot bits 7-0
 10503                           ;	CRCPOLL = hFF, Bits 7:0 of CRCPOL are 0xFF
 10504  30001A                     	org	3145754
 10505  30001A  FF                 	db	255
 10506                           
 10507                           ;Config register CONFIG28 @ 0x30001B
 10508                           ;	Non-Boot Sector Seed for CRC on boot bits 31-24
 10509                           ;	CRCSEEDT = hFF, Bits 31:24 of CRCSEED are 0xFF
 10510  30001B                     	org	3145755
 10511  30001B  FF                 	db	255
 10512                           
 10513                           ;Config register CONFIG29 @ 0x30001C
 10514                           ;	Non-Boot Sector Seed for CRC on boot bits 23-16
 10515                           ;	CRCSEEDU = hFF, Bits 23:16 of CRCSEED are 0xFF
 10516  30001C                     	org	3145756
 10517  30001C  FF                 	db	255
 10518                           
 10519                           ;Config register CONFIG30 @ 0x30001D
 10520                           ;	Non-Boot Sector Seed for CRC on boot bits 15-8
 10521                           ;	CRCSEEDH = hFF, Bits 15:8 of CRCSEED are 0xFF
 10522  30001D                     	org	3145757
 10523  30001D  FF                 	db	255
 10524                           
 10525                           ;Config register CONFIG31 @ 0x30001E
 10526                           ;	Non-Boot Sector Seed for CRC on boot bits 7-0
 10527                           ;	CRCSEEDL = hFF, Bits 7:0 of CRCSEED are 0xFF
 10528  30001E                     	org	3145758
 10529  30001E  FF                 	db	255
 10530                           
 10531                           ;Config register CONFIG32 @ 0x30001F
 10532                           ;	unspecified, using default values
 10533                           ;	Non-Boot Sector Expected Result for CRC on boot bits 31-24
 10534                           ;	CRCEREST = 0xFF, unprogrammed default
 10535  30001F                     	org	3145759
 10536  30001F  FF                 	db	255
 10537                           
 10538                           ;Config register CONFIG33 @ 0x300020
 10539                           ;	unspecified, using default values
 10540                           ;	Non-Boot Sector Expected Result for CRC on boot bits 23-16
 10541                           ;	CRCERESU = 0xFF, unprogrammed default
 10542  300020                     	org	3145760
 10543  300020  FF                 	db	255
 10544                           
 10545                           ;Config register CONFIG34 @ 0x300021
 10546                           ;	unspecified, using default values
 10547                           ;	Non-Boot Sector Expected Result for CRC on boot bits 15-8
 10548                           ;	CRCERESH = 0xFF, unprogrammed default
 10549  300021                     	org	3145761
 10550  300021  FF                 	db	255
 10551                           
 10552                           ;Config register CONFIG35 @ 0x300022
 10553                           ;	unspecified, using default values
 10554                           ;	Non-Boot Sector Expected Result for CRC on boot bits 7-0
 10555                           ;	CRCERESL = 0xFF, unprogrammed default
 10556  300022                     	org	3145762
 10557  300022  FF                 	db	255
 10558                           
 10559                           ; Padding undefined space
 10560  300023                     	org	3145763
 10561  300023  FF                 	db	255
 10562                           tosu	equ	0x4FF
 10563                           tosh	equ	0x4FE
 10564                           tosl	equ	0x4FD
 10565                           stkptr	equ	0x4FC
 10566                           pclatu	equ	0x4FB
 10567                           pclath	equ	0x4FA
 10568                           pcl	equ	0x4F9
 10569                           tblptru	equ	0x4F8
 10570                           tblptrh	equ	0x4F7
 10571                           tblptrl	equ	0x4F6
 10572                           tablat	equ	0x4F5
 10573                           prodh	equ	0x4F4
 10574                           prodl	equ	0x4F3
 10575                           indf0	equ	0x4EF
 10576                           postinc0	equ	0x4EE
 10577                           postdec0	equ	0x4ED
 10578                           preinc0	equ	0x4EC
 10579                           plusw0	equ	0x4EB
 10580                           fsr0h	equ	0x4EA
 10581                           fsr0l	equ	0x4E9
 10582                           wreg	equ	0x4E8
 10583                           indf1	equ	0x4E7
 10584                           postinc1	equ	0x4E6
 10585                           postdec1	equ	0x4E5
 10586                           preinc1	equ	0x4E4
 10587                           plusw1	equ	0x4E3
 10588                           fsr1h	equ	0x4E2
 10589                           fsr1l	equ	0x4E1
 10590                           bsr	equ	0x4E0
 10591                           indf2	equ	0x4DF
 10592                           postinc2	equ	0x4DE
 10593                           postdec2	equ	0x4DD
 10594                           preinc2	equ	0x4DC
 10595                           plusw2	equ	0x4DB
 10596                           fsr2h	equ	0x4DA
 10597                           fsr2l	equ	0x4D9
 10598                           status	equ	0x4D8

Data Sizes:
    Strings     68
    Constant    61
    Data        4
    BSS         182
    Persistent  28
    Stack       0

Auto Spaces:
    Space          Size  Autos    Used
    COMRAM           95     95      95
    BANK5           160     84     160
    BANK6           256      0     138
    BANK7           256      0       0
    BANK8           256      0       0
    BANK9           256      0       0
    BANK10          256      0       0
    BANK11          256      0       0
    BANK12          256      0       0
    BANK13          256      0       0
    BANK14          256      0       0
    BANK15          256      0       0
    BANK16          256      0       0
    BANK17          256      0       0
    BANK18          256      0       0
    BANK19          256      0       0
    BANK20          256      0       0
    BANK21          256      0       0
    BANK22          256      0       0
    BANK23          256      0       0
    BANK24          256      0       0
    BANK25          256      0       0
    BANK26          256      0       0
    BANK27          256      0       0
    BANK28          256      0       0
    BANK29          256      0       0
    BANK30          256      0       0
    BANK31          256      0       0
    BANK32          256      0       0
    BANK33          256      0       0
    BANK34          256      0       0
    BANK35          256      0       0
    BANK36          256      0       0
    BANK37          256      0       0
    BANK38          256      0       0
    BANK39          256      0       0
    BANK40          256      0       0
    BANK41          256      0       0
    BANK42          256      0       0
    BANK43          256      0       0
    BANK44          256      0       0
    BANK45          256      0       0
    BANK46          256      0       0
    BANK47          256      0       0
    BANK48          256      0       0
    BANK49          256      0       0
    BANK50          256      0       0
    BANK51          256      0       0
    BANK52          256      0       0
    BANK53          256      0       0
    BANK54          256      0       0

Pointer List with Targets:

    I2C1_Read1ByteRegister@returnValue.data	PTR unsigned char  size(2) Largest target is 0

    I2C1_Read2ByteRegister@returnValue.data	PTR unsigned char  size(2) Largest target is 0

    I2C1_Write1ByteRegister@data.data	PTR unsigned char  size(2) Largest target is 0

    I2C1_Write2ByteRegister@data.data	PTR unsigned char  size(2) Largest target is 0

    I2C1_DO_TX$3046$0	PTR void  size(2) Largest target is 5
		 -> I2C1_ReadDataBlock@bufferBlock(COMRAM[4]), I2C1_Write2ByteRegister@data(COMRAM[2]), I2C1_Write1ByteRegister@data(COMRAM[1]), I2C1_Read2ByteRegister@returnValue(COMRAM[2]), 
		 -> NULL(NULL[0]), I2C1_Read1ByteRegister@returnValue(COMRAM[1]), 

    I2C1_DO_TX_EMPTY$3052$0	PTR void  size(2) Largest target is 5
		 -> I2C1_ReadDataBlock@bufferBlock(COMRAM[4]), I2C1_Write2ByteRegister@data(COMRAM[2]), I2C1_Write1ByteRegister@data(COMRAM[1]), I2C1_Read2ByteRegister@returnValue(COMRAM[2]), 
		 -> NULL(NULL[0]), I2C1_Read1ByteRegister@returnValue(COMRAM[1]), 

    I2C1_DO_RX_EMPTY$3058$0	PTR void  size(2) Largest target is 5
		 -> I2C1_ReadDataBlock@bufferBlock(COMRAM[4]), I2C1_Write2ByteRegister@data(COMRAM[2]), I2C1_Write1ByteRegister@data(COMRAM[1]), I2C1_Read2ByteRegister@returnValue(COMRAM[2]), 
		 -> NULL(NULL[0]), I2C1_Read1ByteRegister@returnValue(COMRAM[1]), 

    cb$0	PTR void  size(2) Largest target is 5
		 -> I2C1_ReadDataBlock@bufferBlock(COMRAM[4]), I2C1_Write2ByteRegister@data(COMRAM[2]), I2C1_Write1ByteRegister@data(COMRAM[1]), I2C1_Read2ByteRegister@returnValue(COMRAM[2]), 
		 -> NULL(NULL[0]), I2C1_Read1ByteRegister@returnValue(COMRAM[1]), 

    Absolute function$0	PTR void  size(2) Largest target is 5
		 -> I2C1_ReadDataBlock@bufferBlock(COMRAM[4]), I2C1_Write2ByteRegister@data(COMRAM[2]), I2C1_Write1ByteRegister@data(COMRAM[1]), I2C1_Read2ByteRegister@returnValue(COMRAM[2]), 
		 -> NULL(NULL[0]), I2C1_Read1ByteRegister@returnValue(COMRAM[1]), 

    cb$0	PTR void  size(2) Largest target is 5
		 -> I2C1_ReadDataBlock@bufferBlock(COMRAM[4]), I2C1_Write2ByteRegister@data(COMRAM[2]), I2C1_Write1ByteRegister@data(COMRAM[1]), I2C1_Read2ByteRegister@returnValue(COMRAM[2]), 
		 -> NULL(NULL[0]), I2C1_Read1ByteRegister@returnValue(COMRAM[1]), 

    S304$0$0	PTR void  size(2) Largest target is 5
		 -> I2C1_ReadDataBlock@bufferBlock(COMRAM[4]), I2C1_Write2ByteRegister@data(COMRAM[2]), I2C1_Write1ByteRegister@data(COMRAM[1]), I2C1_Read2ByteRegister@returnValue(COMRAM[2]), 
		 -> NULL(NULL[0]), I2C1_Read1ByteRegister@returnValue(COMRAM[1]), 

    strncmp@_r	PTR const unsigned char  size(2) Largest target is 3
		 -> STR_13(CODE[3]), 

    strncmp@r	PTR const unsigned char  size(2) Largest target is 3
		 -> STR_13(CODE[3]), 

    strncmp@_l	PTR const unsigned char  size(2) Largest target is 3
		 -> vfpfcnvrt@ct(COMRAM[3]), 

    strncmp@l	PTR const unsigned char  size(2) Largest target is 3
		 -> vfpfcnvrt@ct(COMRAM[3]), 

    strlen@s	PTR const unsigned char  size(2) Largest target is 80
		 -> dbuf(BANK6[80]), 

    strlen@a	PTR const unsigned char  size(2) Largest target is 80
		 -> dbuf(BANK6[80]), 

    strcpy@dest	PTR unsigned char  size(2) Largest target is 80
		 -> dbuf(BANK6[80]), 

    strcpy@d	PTR unsigned char  size(2) Largest target is 80
		 -> dbuf(BANK6[80]), 

    strcpy@src	PTR const unsigned char  size(2) Largest target is 80
		 -> STR_8(CODE[4]), STR_7(CODE[4]), STR_4(CODE[4]), STR_3(CODE[4]), 
		 -> dbuf(BANK6[80]), 

    strcpy@s	PTR const unsigned char  size(2) Largest target is 80
		 -> STR_8(CODE[4]), STR_7(CODE[4]), STR_4(CODE[4]), STR_3(CODE[4]), 
		 -> dbuf(BANK6[80]), 

    printf@fmt	PTR const unsigned char  size(2) Largest target is 32
		 -> STR_1(CODE[32]), 

    printf@ap	PTR void [1] size(2) Largest target is 2
		 -> ?_printf(BANK5[2]), ?_sprintf(BANK5[2]), 

    fputs@s	PTR const unsigned char  size(2) Largest target is 80
		 -> dbuf(BANK6[80]), 

    fputs@fp	PTR struct _IO_FILE size(2) Largest target is 7
		 -> sprintf@f(BANK5[6]), NULL(NULL[0]), 

    fputc@fp.buffer	PTR unsigned char  size(2) Largest target is 40
		 -> buffer(BANK6[40]), 

    fputc@fp	PTR struct _IO_FILE size(2) Largest target is 7
		 -> sprintf@f(BANK5[6]), NULL(NULL[0]), 

    vfprintf@ap	PTR PTR void  size(2) Largest target is 2
		 -> printf@ap(BANK5[2]), sprintf@ap(BANK5[2]), 

    vfprintf@fp	PTR struct _IO_FILE size(2) Largest target is 7
		 -> sprintf@f(BANK5[6]), NULL(NULL[0]), 

    vfprintf@fmt	PTR const unsigned char  size(2) Largest target is 32
		 -> STR_2(CODE[17]), STR_1(CODE[32]), 

    vfprintf@cfmt	PTR unsigned char  size(2) Largest target is 32
		 -> STR_2(CODE[17]), STR_1(CODE[32]), 

    vfpfcnvrt@fp	PTR struct _IO_FILE size(2) Largest target is 7
		 -> sprintf@f(BANK5[6]), NULL(NULL[0]), 

    vfpfcnvrt@ap	PTR PTR void  size(2) Largest target is 2
		 -> printf@ap(BANK5[2]), sprintf@ap(BANK5[2]), 

    vfpfcnvrt@fmt	PTR PTR unsigned char  size(2) Largest target is 2
		 -> vfprintf@cfmt(COMRAM[2]), 

    efgtoa@fp	PTR struct _IO_FILE size(2) Largest target is 7
		 -> sprintf@f(BANK5[6]), NULL(NULL[0]), 

    sp__strcpy	PTR unsigned char  size(2) Largest target is 80
		 -> dbuf(BANK6[80]), 

    dtoa@fp	PTR struct _IO_FILE size(2) Largest target is 7
		 -> sprintf@f(BANK5[6]), NULL(NULL[0]), 

    pad@fp	PTR struct _IO_FILE size(2) Largest target is 7
		 -> sprintf@f(BANK5[6]), NULL(NULL[0]), 

    pad@buf	PTR unsigned char  size(2) Largest target is 80
		 -> dbuf(BANK6[80]), 

    sprintf@fmt	PTR const unsigned char  size(2) Largest target is 17
		 -> STR_2(CODE[17]), 

    sprintf@s	PTR unsigned char  size(2) Largest target is 40
		 -> buffer(BANK6[40]), 

    sprintf@ap	PTR void [1] size(2) Largest target is 2
		 -> ?_printf(BANK5[2]), ?_sprintf(BANK5[2]), 

    S2387_IO_FILE$buffer	PTR unsigned char  size(2) Largest target is 40
		 -> buffer(BANK6[40]), 

    f.buffer	PTR unsigned char  size(2) Largest target is 40
		 -> buffer(BANK6[40]), 

    ADC_SetActiveClockTuningInterruptHandler@InterruptHandler	PTR FTN()void  size(3) Largest target is 1
		 -> ADC_DefaultActiveClockTuning_ISR(), 

    ADC_SetContext1ThresholdInterruptHandler@InterruptHandler	PTR FTN()void  size(3) Largest target is 1
		 -> ADC_DefaultContext1Threshold_ISR(), 

    ADC_SetADIInterruptHandler@InterruptHandler	PTR FTN()void  size(3) Largest target is 1
		 -> ADC_DefaultADI_ISR(), 

    ADC_Context1Thereshld_ISR	PTR FTN()void  size(3) Largest target is 1
		 -> ADC_DefaultContext1Threshold_ISR(), Absolute function(), 

    ADC_ActiveClockTuning_ISR	PTR FTN()void  size(3) Largest target is 1
		 -> ADC_DefaultActiveClockTuning_ISR(), Absolute function(), 

    ADC_ConversionComplete_ISR	PTR FTN()void  size(3) Largest target is 1
		 -> ADC_DefaultADI_ISR(), Absolute function(), 

    UART1_SetErrorHandler@interruptHandler	PTR FTN()void  size(3) Largest target is 1
		 -> UART1_DefaultErrorHandler(), 

    UART1_SetOverrunErrorHandler@interruptHandler	PTR FTN()void  size(3) Largest target is 1
		 -> UART1_DefaultOverrunErrorHandler(), 

    UART1_SetFramingErrorHandler@interruptHandler	PTR FTN()void  size(3) Largest target is 1
		 -> UART1_DefaultFramingErrorHandler(), 

    UART1_ErrorHandler	PTR FTN()void  size(3) Largest target is 1
		 -> UART1_DefaultErrorHandler(), Absolute function(), 

    UART1_OverrunErrorHandler	PTR FTN()void  size(3) Largest target is 1
		 -> UART1_DefaultOverrunErrorHandler(), Absolute function(), 

    UART1_FramingErrorHandler	PTR FTN()void  size(3) Largest target is 1
		 -> UART1_DefaultFramingErrorHandler(), Absolute function(), 

    S304$data_ptr	PTR unsigned char  size(2) Largest target is 5
		 -> I2C1_ReadDataBlock@reg(COMRAM[1]), I2C1_ReadDataBlock@bufferBlock(COMRAM[4]), I2C1_Write2ByteRegister@reg(COMRAM[1]), I2C1_Write2ByteRegister@data(COMRAM[2]), 
		 -> I2C1_Write1ByteRegister@reg(COMRAM[1]), I2C1_Write1ByteRegister@data(COMRAM[1]), I2C1_Read2ByteRegister@reg(COMRAM[1]), I2C1_Read2ByteRegister@returnValue(COMRAM[2]), 
		 -> NULL(NULL[0]), I2C1_Read1ByteRegister@reg(COMRAM[1]), I2C1_Read1ByteRegister@returnValue(COMRAM[1]), 

    I2C1_Status.data_ptr	PTR unsigned char  size(2) Largest target is 5
		 -> I2C1_ReadDataBlock@reg(COMRAM[1]), I2C1_ReadDataBlock@bufferBlock(COMRAM[4]), I2C1_Write2ByteRegister@reg(COMRAM[1]), I2C1_Write2ByteRegister@data(COMRAM[2]), 
		 -> I2C1_Write1ByteRegister@reg(COMRAM[1]), I2C1_Write1ByteRegister@data(COMRAM[1]), I2C1_Read2ByteRegister@reg(COMRAM[1]), I2C1_Read2ByteRegister@returnValue(COMRAM[2]), 
		 -> NULL(NULL[0]), I2C1_Read1ByteRegister@reg(COMRAM[1]), I2C1_Read1ByteRegister@returnValue(COMRAM[1]), 

    S304$callbackPayload	PTR void [6] size(2) Largest target is 5
		 -> I2C1_ReadDataBlock@bufferBlock(COMRAM[4]), I2C1_Write2ByteRegister@data(COMRAM[2]), I2C1_Write1ByteRegister@data(COMRAM[1]), I2C1_Read2ByteRegister@returnValue(COMRAM[2]), 
		 -> NULL(NULL[0]), I2C1_Read1ByteRegister@returnValue(COMRAM[1]), 

    I2C1_Status.callbackPayload	PTR void [6] size(2) Largest target is 5
		 -> I2C1_ReadDataBlock@bufferBlock(COMRAM[4]), I2C1_Write2ByteRegister@data(COMRAM[2]), I2C1_Write1ByteRegister@data(COMRAM[1]), I2C1_Read2ByteRegister@returnValue(COMRAM[2]), 
		 -> NULL(NULL[0]), I2C1_Read1ByteRegister@returnValue(COMRAM[1]), 

    S304$callbackTable	PTR FTN(PTR void ,)enum E360[6] size(3) Largest target is 1
		 -> I2C1_CallbackReturnReset(), I2C1_CallbackReturnStop(), Absolute function(), rdBlkRegCompleteHandler(), 
		 -> wr2RegCompleteHandler(), wr1RegCompleteHandler(), rd2RegCompleteHandler(), rd1RegCompleteHandler(), 

    I2C1_Status.callbackTable	PTR FTN(PTR void ,)enum E360[6] size(3) Largest target is 1
		 -> I2C1_CallbackReturnReset(), I2C1_CallbackReturnStop(), Absolute function(), rdBlkRegCompleteHandler(), 
		 -> wr2RegCompleteHandler(), wr1RegCompleteHandler(), rd2RegCompleteHandler(), rd1RegCompleteHandler(), 

    i2c1_fsmStateTable	const PTR FTN()enum E23252[19] size(3) Largest target is 1
		 -> I2C1_DO_BUS_ERROR(), I2C1_DO_BUS_COLLISION(), I2C1_DO_ADDRESS_NACK(), I2C1_DO_RESET(), 
		 -> I2C1_DO_RX_NACK_RESTART(), I2C1_DO_RX_NACK_STOP(), I2C1_DO_TX_ACK(), I2C1_DO_RX_ACK(), 
		 -> I2C1_DO_SEND_STOP(), I2C1_DO_SEND_RESTART(), I2C1_DO_SEND_RESTART_WRITE(), I2C1_DO_SEND_RESTART_READ(), 
		 -> I2C1_DO_RX_EMPTY(), I2C1_DO_TX_EMPTY(), I2C1_DO_RX(), I2C1_DO_TX(), 
		 -> I2C1_DO_SEND_ADR_WRITE(), I2C1_DO_SEND_ADR_READ(), I2C1_DO_IDLE(), 

    rdBlkRegCompleteHandler@ptr.data	PTR unsigned char  size(2) Largest target is 0

    S96$data	PTR unsigned char  size(2) Largest target is 0

    bufferBlock.data	PTR unsigned char  size(2) Largest target is 0


Critical Paths under _main in COMRAM

    _sprintf->_vfprintf
    _printf->_vfprintf
    _vfprintf->_vfpfcnvrt
    _vfpfcnvrt->_dtoa
    _efgtoa->___flge
    _tolower->_isupper
    _floorf->___fldiv
    ___flsub->___flmul
    ___flmul->___xxtofl
    ___flge->___flmul
    _dtoa->_pad
    _pad->_fputs
    _fputs->_fputc
    _fputc->_putch
    _putch->_UART1_Write
    _abs->___aomod
    _UART1_Initialize->_UART1_SetErrorHandler
    _UART1_Initialize->_UART1_SetFramingErrorHandler
    _UART1_Initialize->_UART1_SetOverrunErrorHandler
    _ADC_Initialize->_ADC_SetADIInterruptHandler
    _ADC_Initialize->_ADC_SetActiveClockTuningInterruptHandler
    _ADC_Initialize->_ADC_SetContext1ThresholdInterruptHandler

Critical Paths under _main in BANK5

    _main->_sprintf
    _sprintf->_vfprintf
    _printf->_vfprintf
    _vfpfcnvrt->_efgtoa

Critical Paths under _main in BANK6

    None.

Critical Paths under _main in BANK7

    None.

Critical Paths under _main in BANK8

    None.

Critical Paths under _main in BANK9

    None.

Critical Paths under _main in BANK10

    None.

Critical Paths under _main in BANK11

    None.

Critical Paths under _main in BANK12

    None.

Critical Paths under _main in BANK13

    None.

Critical Paths under _main in BANK14

    None.

Critical Paths under _main in BANK15

    None.

Critical Paths under _main in BANK16

    None.

Critical Paths under _main in BANK17

    None.

Critical Paths under _main in BANK18

    None.

Critical Paths under _main in BANK19

    None.

Critical Paths under _main in BANK20

    None.

Critical Paths under _main in BANK21

    None.

Critical Paths under _main in BANK22

    None.

Critical Paths under _main in BANK23

    None.

Critical Paths under _main in BANK24

    None.

Critical Paths under _main in BANK25

    None.

Critical Paths under _main in BANK26

    None.

Critical Paths under _main in BANK27

    None.

Critical Paths under _main in BANK28

    None.

Critical Paths under _main in BANK29

    None.

Critical Paths under _main in BANK30

    None.

Critical Paths under _main in BANK31

    None.

Critical Paths under _main in BANK32

    None.

Critical Paths under _main in BANK33

    None.

Critical Paths under _main in BANK34

    None.

Critical Paths under _main in BANK35

    None.

Critical Paths under _main in BANK36

    None.

Critical Paths under _main in BANK37

    None.

Critical Paths under _main in BANK38

    None.

Critical Paths under _main in BANK39

    None.

Critical Paths under _main in BANK40

    None.

Critical Paths under _main in BANK41

    None.

Critical Paths under _main in BANK42

    None.

Critical Paths under _main in BANK43

    None.

Critical Paths under _main in BANK44

    None.

Critical Paths under _main in BANK45

    None.

Critical Paths under _main in BANK46

    None.

Critical Paths under _main in BANK47

    None.

Critical Paths under _main in BANK48

    None.

Critical Paths under _main in BANK49

    None.

Critical Paths under _main in BANK50

    None.

Critical Paths under _main in BANK51

    None.

Critical Paths under _main in BANK52

    None.

Critical Paths under _main in BANK53

    None.

Critical Paths under _main in BANK54

    None.

Call Graph Tables:

 ---------------------------------------------------------------------------------
 (Depth) Function   	        Calls       Base Space   Used Autos Params    Refs
 ---------------------------------------------------------------------------------
 (0) _main                                                 2     2      0   71060
                                             82 BANK5      2     2      0
            _ADC_GetSingleConversion
                  _SYSTEM_Initialize
                            ___fldiv
                            ___flmul
                           ___xxtofl
                             _printf
                            _sprintf
 ---------------------------------------------------------------------------------
 (1) _sprintf                                             22    10     12   32653
                                             62 BANK5     20     8     12
                           _vfprintf
 ---------------------------------------------------------------------------------
 (1) _printf                                              18     4     14   32432
                                             62 BANK5     16     2     14
                           _vfprintf
 ---------------------------------------------------------------------------------
 (2) _vfprintf                                             8     2      6   32296
                                             93 COMRAM     2     2      0
                                             56 BANK5      6     0      6
                          _vfpfcnvrt
 ---------------------------------------------------------------------------------
 (3) _vfpfcnvrt                                           46    40      6   31703
                                             65 COMRAM    28    22      6
                               _dtoa
                             _efgtoa
                              _fputc
                            _isupper
                            _strncmp
                            _tolower
 ---------------------------------------------------------------------------------
 (4) _strncmp                                             11     5      6     453
                                              0 COMRAM    11     5      6
 ---------------------------------------------------------------------------------
 (4) _efgtoa                                              68    61      7   22708
                                             51 COMRAM    12     5      7
                                              0 BANK5     56    56      0
                            ___awdiv
                            ___awmod
                            ___fladd
                            ___fldiv
                             ___fleq
                             ___flge
                            ___flmul
                            ___flneg
                            ___flsub
                            ___fltol
                      ___fpclassifyf
                             _floorf
                            _isupper
                                _pad
                             _strcpy
                            _tolower
 ---------------------------------------------------------------------------------
 (4) _tolower                                              8     6      2     944
                                              6 COMRAM     8     6      2
                            _isupper
 ---------------------------------------------------------------------------------
 (5) _isupper                                              6     4      2     465
                                              0 COMRAM     6     4      2
 ---------------------------------------------------------------------------------
 (5) _strcpy                                              10     6      4     856
                                              0 COMRAM    10     6      4
 ---------------------------------------------------------------------------------
 (5) _floorf                                              20    16      4     490
                                             25 COMRAM    20    16      4
                            ___fldiv (ARG)
 ---------------------------------------------------------------------------------
 (5) ___fpclassifyf                                       14    10      4     287
                                              0 COMRAM    14    10      4
 ---------------------------------------------------------------------------------
 (5) ___fltol                                             10     6      4     381
                                              0 COMRAM    10     6      4
 ---------------------------------------------------------------------------------
 (5) ___flsub                                              8     0      8    2889
                                             39 COMRAM     8     0      8
                            ___fladd
                            ___flmul (ARG)
 ---------------------------------------------------------------------------------
 (6) ___fladd                                             16     8      8    2414
                                              0 COMRAM    16     8      8
 ---------------------------------------------------------------------------------
 (5) ___flneg                                              4     0      4     121
                                              0 COMRAM     4     0      4
 ---------------------------------------------------------------------------------
 (5) ___flmul                                             25    17      8    2808
                                             14 COMRAM    25    17      8
                           ___xxtofl (ARG)
 ---------------------------------------------------------------------------------
 (5) ___flge                                              12     4      8     790
                                             39 COMRAM    12     4      8
                            ___flmul (ARG)
 ---------------------------------------------------------------------------------
 (5) ___fleq                                              12     4      8     646
                                              0 COMRAM    12     4      8
 ---------------------------------------------------------------------------------
 (5) ___fldiv                                             25    17      8    2159
                                              0 COMRAM    25    17      8
 ---------------------------------------------------------------------------------
 (5) ___awmod                                              6     2      4     448
                                              0 COMRAM     6     2      4
 ---------------------------------------------------------------------------------
 (5) ___awdiv                                              8     4      4     452
                                              0 COMRAM     8     4      4
 ---------------------------------------------------------------------------------
 (4) _dtoa                                                36    26     10    5130
                                             29 COMRAM    36    26     10
                            ___aodiv
                            ___aomod
                                _abs
                                _pad
 ---------------------------------------------------------------------------------
 (5) _pad                                                 11     5      6    3481
                                             18 COMRAM    11     5      6
                              _fputc
                              _fputs
                             _strlen
 ---------------------------------------------------------------------------------
 (6) _strlen                                               4     2      2     166
                                              0 COMRAM     4     2      2
 ---------------------------------------------------------------------------------
 (6) _fputs                                                7     3      4    1279
                                             11 COMRAM     7     3      4
                              _fputc
 ---------------------------------------------------------------------------------
 (4) _fputc                                                9     5      4     878
                                              2 COMRAM     9     5      4
                              _putch
 ---------------------------------------------------------------------------------
 (5) _putch                                                1     1      0      44
                                              1 COMRAM     1     1      0
                        _UART1_Write
 ---------------------------------------------------------------------------------
 (6) _UART1_Write                                          1     1      0      22
                                              0 COMRAM     1     1      0
 ---------------------------------------------------------------------------------
 (5) _abs                                                  4     2      2     142
                                             18 COMRAM     4     2      2
                            ___aomod (ARG)
 ---------------------------------------------------------------------------------
 (5) ___aomod                                             18     2     16     448
                                              0 COMRAM    18     2     16
 ---------------------------------------------------------------------------------
 (5) ___aodiv                                             26    10     16     452
                                              0 COMRAM    26    10     16
 ---------------------------------------------------------------------------------
 (1) ___xxtofl                                            14    10      4     398
                                              0 COMRAM    14    10      4
 ---------------------------------------------------------------------------------
 (1) _SYSTEM_Initialize                                    0     0      0     588
                     _ADC_Initialize
                    _I2C1_Initialize
              _OSCILLATOR_Initialize
             _PIN_MANAGER_Initialize
                     _PMD_Initialize
                   _UART1_Initialize
 ---------------------------------------------------------------------------------
 (2) _UART1_Initialize                                     0     0      0     294
              _UART1_SetErrorHandler
       _UART1_SetFramingErrorHandler
       _UART1_SetOverrunErrorHandler
 ---------------------------------------------------------------------------------
 (3) _UART1_SetOverrunErrorHandler                         3     0      3      98
                                              0 COMRAM     3     0      3
 ---------------------------------------------------------------------------------
 (3) _UART1_SetFramingErrorHandler                         3     0      3      98
                                              0 COMRAM     3     0      3
 ---------------------------------------------------------------------------------
 (3) _UART1_SetErrorHandler                                3     0      3      98
                                              0 COMRAM     3     0      3
 ---------------------------------------------------------------------------------
 (2) _PMD_Initialize                                       0     0      0       0
 ---------------------------------------------------------------------------------
 (2) _PIN_MANAGER_Initialize                               0     0      0       0
 ---------------------------------------------------------------------------------
 (2) _OSCILLATOR_Initialize                                0     0      0       0
 ---------------------------------------------------------------------------------
 (2) _I2C1_Initialize                                      0     0      0       0
 ---------------------------------------------------------------------------------
 (2) _ADC_Initialize                                       0     0      0     294
         _ADC_SetADIInterruptHandler
_ADC_SetActiveClockTuningInterruptHa
_ADC_SetContext1ThresholdInterruptHa
 ---------------------------------------------------------------------------------
 (3) _ADC_SetContext1ThresholdInterruptHandler             3     0      3      98
                                              0 COMRAM     3     0      3
 ---------------------------------------------------------------------------------
 (3) _ADC_SetActiveClockTuningInterruptHandler             3     0      3      98
                                              0 COMRAM     3     0      3
 ---------------------------------------------------------------------------------
 (3) _ADC_SetADIInterruptHandler                           3     0      3      98
                                              0 COMRAM     3     0      3
 ---------------------------------------------------------------------------------
 (1) _ADC_GetSingleConversion                              5     3      2      22
                                              0 COMRAM     5     3      2
 ---------------------------------------------------------------------------------
 Estimated maximum stack depth 6
 ---------------------------------------------------------------------------------

 Call Graph Graphs:

 _main (ROOT)
   _ADC_GetSingleConversion
   _SYSTEM_Initialize
     _ADC_Initialize
       _ADC_SetADIInterruptHandler
       _ADC_SetActiveClockTuningInterruptHandler
       _ADC_SetContext1ThresholdInterruptHandler
     _I2C1_Initialize
     _OSCILLATOR_Initialize
     _PIN_MANAGER_Initialize
     _PMD_Initialize
     _UART1_Initialize
       _UART1_SetErrorHandler
       _UART1_SetFramingErrorHandler
       _UART1_SetOverrunErrorHandler
   ___fldiv
   ___flmul
     ___xxtofl (ARG)
   ___xxtofl
   _printf
     _vfprintf
       _vfpfcnvrt
         _dtoa
           ___aodiv
           ___aomod
           _abs
             ___aomod (ARG)
           _pad
             _fputc
               _putch
                 _UART1_Write
             _fputs
               _fputc
             _strlen
         _efgtoa
           ___awdiv
           ___awmod
           ___fladd
           ___fldiv
           ___fleq
           ___flge
             ___flmul (ARG)
           ___flmul
           ___flneg
           ___flsub
             ___fladd
             ___flmul (ARG)
           ___fltol
           ___fpclassifyf
           _floorf
             ___fldiv (ARG)
           _isupper
           _pad
           _strcpy
           _tolower
             _isupper
         _fputc
         _isupper
         _strncmp
         _tolower
   _sprintf
     _vfprintf

 Address spaces:
Name               Size   Autos  Total    Cost      Usage
BIGRAM            31FF      0       0     105        0.0%
EEDATA             400      0       0       0        0.0%
BITBANK54          100      0       0     103        0.0%
BANK54             100      0       0     104        0.0%
BITBANK53          100      0       0     101        0.0%
BANK53             100      0       0     102        0.0%
BITBANK52          100      0       0      98        0.0%
BANK52             100      0       0      99        0.0%
BITBANK51          100      0       0      96        0.0%
BANK51             100      0       0      97        0.0%
BITBANK50          100      0       0      94        0.0%
BANK50             100      0       0      95        0.0%
BITBANK49          100      0       0      92        0.0%
BANK49             100      0       0      93        0.0%
BITBANK48          100      0       0      90        0.0%
BANK48             100      0       0      91        0.0%
BITBANK47          100      0       0      88        0.0%
BANK47             100      0       0      89        0.0%
BITBANK46          100      0       0      86        0.0%
BANK46             100      0       0      87        0.0%
BITBANK45          100      0       0      84        0.0%
BANK45             100      0       0      85        0.0%
BITBANK44          100      0       0      82        0.0%
BANK44             100      0       0      83        0.0%
BITBANK43          100      0       0      80        0.0%
BANK43             100      0       0      81        0.0%
BITBANK42          100      0       0      78        0.0%
BANK42             100      0       0      79        0.0%
BITBANK41          100      0       0      76        0.0%
BANK41             100      0       0      77        0.0%
BITBANK40          100      0       0      74        0.0%
BANK40             100      0       0      75        0.0%
BITBANK39          100      0       0      72        0.0%
BANK39             100      0       0      73        0.0%
BITBANK38          100      0       0      70        0.0%
BANK38             100      0       0      71        0.0%
BITBANK37          100      0       0      68        0.0%
BANK37             100      0       0      69        0.0%
BITBANK36          100      0       0      66        0.0%
BANK36             100      0       0      67        0.0%
BITBANK35          100      0       0      64        0.0%
BANK35             100      0       0      65        0.0%
BITBANK34          100      0       0      62        0.0%
BANK34             100      0       0      63        0.0%
BITBANK33          100      0       0      60        0.0%
BANK33             100      0       0      61        0.0%
BITBANK32          100      0       0      58        0.0%
BANK32             100      0       0      59        0.0%
BITBANK31          100      0       0      56        0.0%
BANK31             100      0       0      57        0.0%
BITBANK30          100      0       0      54        0.0%
BANK30             100      0       0      55        0.0%
BITBANK29          100      0       0      52        0.0%
BANK29             100      0       0      53        0.0%
BITBANK28          100      0       0      50        0.0%
BANK28             100      0       0      51        0.0%
BITBANK27          100      0       0      48        0.0%
BANK27             100      0       0      49        0.0%
BITBANK26          100      0       0      46        0.0%
BANK26             100      0       0      47        0.0%
BITBANK25          100      0       0      44        0.0%
BANK25             100      0       0      45        0.0%
BITBANK24          100      0       0      42        0.0%
BANK24             100      0       0      43        0.0%
BITBANK23          100      0       0      40        0.0%
BANK23             100      0       0      41        0.0%
BITBANK22          100      0       0      38        0.0%
BANK22             100      0       0      39        0.0%
BITBANK21          100      0       0      36        0.0%
BANK21             100      0       0      37        0.0%
BITBANK20          100      0       0      34        0.0%
BANK20             100      0       0      35        0.0%
BITBANK19          100      0       0      32        0.0%
BANK19             100      0       0      33        0.0%
BITBANK18          100      0       0      30        0.0%
BANK18             100      0       0      31        0.0%
BITBANK17          100      0       0      28        0.0%
BANK17             100      0       0      29        0.0%
BITBANK16          100      0       0      26        0.0%
BANK16             100      0       0      27        0.0%
BITBANK15          100      0       0      24        0.0%
BANK15             100      0       0      25        0.0%
BITBANK14          100      0       0      22        0.0%
BANK14             100      0       0      23        0.0%
BITBANK13          100      0       0      20        0.0%
BANK13             100      0       0      21        0.0%
BITBANK12          100      0       0      18        0.0%
BANK12             100      0       0      19        0.0%
BITBANK11          100      0       0      16        0.0%
BANK11             100      0       0      17        0.0%
BITBANK10          100      0       0      14        0.0%
BANK10             100      0       0      15        0.0%
BITBANK9           100      0       0      12        0.0%
BANK9              100      0       0      13        0.0%
BITBANK8           100      0       0      10        0.0%
BANK8              100      0       0      11        0.0%
BITBANK7           100      0       0       8        0.0%
BANK7              100      0       0       9        0.0%
BITBANK6           100      0       0       6        0.0%
BANK6              100      0      8A       7       53.9%
BITBANK5            A0      0       0       4        0.0%
BANK5               A0     54      A0       5      100.0%
BITCOMRAM           5F      0       0       0        0.0%
COMRAM              5F     5F      5F       1      100.0%
BITSFR_14            0      0       0     200        0.0%
SFR_14               0      0       0     200        0.0%
BITSFR_13            0      0       0     200        0.0%
SFR_13               0      0       0     200        0.0%
BITSFR_12            0      0       0     200        0.0%
SFR_12               0      0       0     200        0.0%
BITSFR_11            0      0       0     200        0.0%
SFR_11               0      0       0     200        0.0%
BITSFR_10            0      0       0     200        0.0%
SFR_10               0      0       0     200        0.0%
BITSFR_9             0      0       0     200        0.0%
SFR_9                0      0       0     200        0.0%
BITSFR_8             0      0       0     200        0.0%
SFR_8                0      0       0     200        0.0%
BITSFR_7             0      0       0     200        0.0%
SFR_7                0      0       0     200        0.0%
BITSFR_6             0      0       0     200        0.0%
SFR_6                0      0       0     200        0.0%
BITSFR_5             0      0       0     200        0.0%
SFR_5                0      0       0     200        0.0%
BITSFR_4             0      0       0     200        0.0%
SFR_4                0      0       0     200        0.0%
BITSFR_3             0      0       0     200        0.0%
SFR_3                0      0       0     200        0.0%
BITSFR_2             0      0       0     200        0.0%
SFR_2                0      0       0     200        0.0%
BITSFR_1             0      0       0     200        0.0%
SFR_1                0      0       0     200        0.0%
BITSFR               0      0       0     200        0.0%
SFR                  0      0       0     200        0.0%
STACK                0      0       0       2        0.0%
NULL                 0      0       0       0        0.0%
ABS                  0      0     189     100        0.0%
DATA                 0      0     189       3        0.0%
CODE                 0      0       0       0        0.0%


Microchip Technology PIC18 Macro Assembler V2.32 build 20210201212658 
Symbol Table                                                                                   Thu Jun 23 11:30:58 2022

                                            ___fldiv@aexp 0519  
                                                       _V 067C  
                                            ___fldiv@bexp 0518  
                                            ___fldiv@sign 0511  
                                            ___awdiv@sign 0506  
                                                      _mV 0686  
                                                     l300 6D7C  
                                                     l151 6DCC  
                                                     l145 6DE6  
                                                     l148 6E16  
                                                     l742 69EA  
                                                     l906 676E  
                                                     l771 6DFE  
                                                     l676 68CA  
                                                     l944 6D30  
                                                     l792 6E24  
                                                     l768 6DEA  
                                                     l777 6E74  
                                                     l947 6D50  
                                                     l795 6E40  
                                                     l789 6E32  
                                                     _abs 6BF8  
                                                     _pad 652E  
                                 __size_of_PMD_Initialize 0028  
                                            ___awmod@sign 0506  
                                                     wreg 0004E8  
                                    _I2C1_DO_RX_NACK_STOP 000000  
                                            ___flmul@aexp 0520  
                                            ___flmul@bexp 0521  
                                            ___flmul@sign 051B  
                                            ___flmul@temp 0526  
                                            ___flmul@prod 0522  
                                            ___fltol@exp1 050A  
                                                    l1040 6E5C  
                                                    l1034 6E6A  
                                                    ?_abs 0513  
                                                    l1037 6E4E  
                                                    l2022 47EE  
                                                    l2014 48C4  
                                                    l2105 6CAE  
                                                    l2044 6C2E  
                                                    l2124 6B1A  
                                                    l2028 6A4C  
                                                    l2053 5A64  
                                                    l2109 6454  
                                                    l2029 6A54  
                                                    l2047 6C36  
                                                    l1423 6974  
                                                    l2039 635A  
                                                    l2063 6CE6  
                                                    l2119 6B12  
                                                    l1408 681E  
                                                    l2056 59A8  
                                                    l1434 625C  
                                                    l1291 5F04  
                                                    l1429 6216  
                                                    l1701 4D84  
                                                    l1461 6158  
                                                    l2093 6DA4  
                                                    l1278 5DA0  
                                                    l2078 652C  
                                                    l2086 6BF6  
                                                    l1438 6D1E  
                                                    l1395 66B6  
                                                    l2099 6ABA  
                                                    l1709 4BCE  
                                                    l1822 5C18  
                                                    l1718 4C9E  
                                                    l1734 6BB2  
                                                    l1751 5390  
                                                    l1719 4C8C  
                                                    l1912 5852  
                                                    l1760 5478  
                                                    l1833 5BB0  
                                                    l5113 6DEA  
                                                    l6001 60E4  
                                                    l1826 5B54  
                                                    l1746 556C  
                                                    l1930 43DE  
                                                    l1842 6B6C  
                                                    l1819 5ABC  
                                                    l5115 6DF8  
                                                    l5211 48F2  
                                                    l5203 48C6  
                                                    l6011 610C  
                                                    l6003 60EE  
                                                    l1748 53CC  
                                                    l1692 4AB4  
                                                    l1757 5412  
                                                    l5301 4AA0  
                                                    l1693 4AA2  
                                                    l5221 492C  
                                                    l5213 4902  
                                                    l5205 48D2  
                                                    l6013 6118  
                                                    l6005 60F8  
                                                    l6101 59CC  
                                                    l1782 51D2  
                                                    l1694 4A68  
                                                    l5151 647A  
                                                    l6031 656C  
                                                    l6023 652E  
                                                    l1759 548A  
                                                    l5311 4AF6  
                                                    l5303 4AC2  
                                                    l5231 495A  
                                                    l5223 4932  
                                                    l5215 4912  
                                                    l5207 48E0  
                                                    l6015 6128  
                                                    l6103 5A08  
                                                    l5137 6E6E  
                                                    l5153 6484  
                                                    l6041 65DA  
                                                    l6033 6580  
                                                    l1881 6574  
                                                    l6025 653E  
                                                    l1785 5064  
                                                    l5401 4D74  
                                                    l5321 4B30  
                                                    l5313 4B04  
                                                    l5305 4AD2  
                                                    l5241 498E  
                                                    l5233 495C  
                                                    l5225 4944  
                                                    l5217 4914  
                                                    l5209 48E2  
                                                    l6017 6138  
                                                    l6105 5A1C  
                                                    l6201 37E2  
                                                    l7001 5FFA  
                                                    l1778 4E4A  
                                                    l5155 64A2  
                                                    l5147 6456  
                                                    l5411 6BD6  
                                                    l6035 6594  
                                                    l6027 6552  
                                                    l6131 55B6  
                                                    l1795 5194  
                                                    l1787 50DC  
                                                    l5331 4B9C  
                                                    l5323 4B32  
                                                    l5315 4B12  
                                                    l5251 49CA  
                                                    l5235 496C  
                                                    l5243 4996  
                                                    l5227 4946  
                                                    l5219 491C  
                                                    l6019 6148  
                                                    l6051 627E  
                                                    l6107 5A44  
                                                    l6211 3828  
                                                    l6203 37EA  
                                                    l7003 5FFE  
                                                    l1884 65B6  
                                                    l1892 560E  
                                                    l1788 50CA  
                                                    l1948 3B70  
                                                    l5501 5C1E  
                                                    l6045 6BF8  
                                                    l5157 64D8  
                                                    l5149 6468  
                                                    l5405 6BB4  
                                                    l5413 6C76  
                                                    l6037 6598  
                                                    l6029 6560  
                                                    l6141 561E  
                                                    l6133 55D6  
                                                    l5341 4BF4  
                                                    l5333 4B9E  
                                                    l5325 4B3C  
                                                    l5317 4B1E  
                                                    l5309 4AE6  
                                                    l5261 49DE  
                                                    l5253 49CE  
                                                    l5245 49A6  
                                                    l5237 497C  
                                                    l5229 494C  
                                                    l6053 62BC  
                                                    l6061 62FC  
                                                    l6109 5A54  
                                                    l6301 3BFA  
                                                    l6221 3864  
                                                    l6213 3830  
                                                    l6205 37FC  
                                                    l7005 6018  
                                                    l1886 65F2  
                                                    l1894 5616  
                                                    ?_pad 0513  
                                                    l5511 5C7E  
                                                    l5503 5C2C  
                                                    l6047 6C12  
                                                    l5407 6BC0  
                                                    l5415 6C82  
                                                    l6039 65C6  
                                                    l6151 5656  
                                                    l6143 5630  
                                                    l6135 55E6  
                                                    l6127 556E  
                                                    l5351 4C22  
                                                    l5335 4BAE  
                                                    l5319 4B22  
                                                    l5327 4B42  
                                                    l5271 49F2  
                                                    l5263 49E2  
                                                    l5255 49D2  
                                                    l5247 49B8  
                                                    l5239 498C  
                                                    l6063 630E  
                                                    l6055 62E4  
                                                    l6071 6A56  
                                                    l5423 6CB0  
                                                    l6311 3C38  
                                                    l6303 3BFE  
                                                    l6231 38E0  
                                                    l6215 3834  
                                                    l6207 380A  
                                                    l1976 3FB0  
                                                    l5521 5CC8  
                                                    l5513 5C82  
                                                    l5505 5C4C  
                                                    l5409 6BD2  
                                                    l5417 6C86  
                                                    l6153 565C  
                                                    l6161 574E  
                                                    l6145 563E  
                                                    l6137 55E8  
                                                    l6129 558E  
                                                    l5601 5246  
                                                    l5353 4C30  
                                                    l5345 4C08  
                                                    l5361 4C4E  
                                                    l5329 4B68  
                                                    l5337 4BBE  
                                                    l5273 49F6  
                                                    l5265 49E6  
                                                    l5257 49D6  
                                                    l5249 49C6  
                                                    l5281 4A06  
                                                    l6057 62F0  
                                                    l6049 625E  
                                                    l6073 6A66  
                                                    l6081 6B04  
                                                    l6401 40DA  
                                                    l6321 3C86  
                                                    l6313 3C3C  
                                                    l6305 3C06  
                                                    l6233 38EA  
                                                    l6225 389A  
                                                    l6217 3838  
                                                    l6209 381C  
                                                    l5531 5D38  
                                                    l5523 5CD6  
                                                    l5515 5C8E  
                                                    l5507 5C50  
                                                    l5419 6CA2  
                                                    l6163 5768  
                                                    l6171 57CA  
                                                    l6155 56DE  
                                                    l6147 5644  
                                                    l6139 5602  
                                                    l5611 5286  
                                                    l5603 5254  
                                                    l5355 4C38  
                                                    l5347 4C12  
                                                    l5339 4BE4  
                                                    l5363 4C5C  
                                                    l5291 4A76  
                                                    l5283 4A0A  
                                                    l5275 49FA  
                                                    l5267 49EA  
                                                    l5259 49DA  
                                                    l6067 6352  
                                                    l6091 58DE  
                                                    l6075 6ABC  
                                                    l6403 40E0  
                                                    l6411 410E  
                                                    l6331 3D1E  
                                                    l6315 3C4E  
                                                    l6323 3C8E  
                                                    l6307 3C18  
                                                    l6243 396E  
                                                    l6227 38AC  
                                                    l6219 383E  
                                                    l5533 5D4A  
                                                    l5525 5CE8  
                                                    l5517 5CAC  
                                                    l5509 5C5E  
                                                    l6181 5810  
                                                    l6173 57DC  
                                                    l6165 5786  
                                                    l6157 56E4  
                                                    l6149 564C  
                                                    l5701 5548  
                                                    l5621 52C6  
                                                    l5613 5288  
                                                    l5605 5256  
                                                    l5373 4CAE  
                                                    l5381 4D04  
                                                    l5365 4C60  
                                                    l5357 4C3C  
                                                    l5349 4C20  
                                                    l5293 4A82  
                                                    l5285 4A34  
                                                    l5277 49FE  
                                                    l5269 49EE  
                                                    l6093 58EC  
                                                    l6085 5854  
                                                    l6421 41C4  
                                                    l6413 4166  
                                                    l6405 40F2  
                                                    l6341 3E02  
                                                    l6333 3D76  
                                                    l6325 3C96  
                                                    l6317 3C5C  
                                                    l6309 3C2A  
                                                    l6261 3A08  
                                                    l6245 3980  
                                                    l6229 38C8  
                                                    l6237 3912  
                                                    l5527 5D16  
                                                    l5519 5CB4  
                                                    l5535 5D50  
                                                    l5551 5DD8  
                                                    l5543 5DA2  
                                                    l6183 5818  
                                                    l6175 57EC  
                                                    l6167 57A0  
                                                    l6159 56EA  
                                                    l5703 554C  
                                                    l5631 52F6  
                                                    l5623 52CE  
                                                    l5607 5266  
                                                    l5615 5290  
                                                    l5391 4D56  
                                                    l5383 4D14  
                                                    l5375 4CBA  
                                                    l5367 4C6E  
                                                    l5359 4C4C  
                                                    l5295 4A86  
                                                    l5287 4A50  
                                                    l5279 4A02  
                                                    l6087 5874  
                                                    l6079 6AF2  
                                                    l6431 4214  
                                                    l6423 41E0  
                                                    l6415 419A  
                                                    l6407 4104  
                                                    l6351 3E9C  
                                                    l6343 3E34  
                                                    l6335 3DAA  
                                                    l6327 3CA6  
                                                    l6319 3C74  
                                                    l6271 3AD8  
                                                    l6263 3A3C  
                                                    l6247 399C  
                                                    l6239 3938  
                                                    l6255 39B8  
                                                    l6191 378E  
                                                    l6511 63F2  
                                                    l6503 6392  
                                                    l6521 6E34  
                                                    l5537 5D60  
                                                    l5529 5D36  
                                                    l5561 5E40  
                                                    l5553 5DE6  
                                                    l5545 5DA6  
                                                    l6177 57F2  
                                                    l6185 582A  
                                                    l6169 57BA  
                                                    l5705 555A  
                                                    l5641 5334  
                                                    l5633 52F6  
                                                    l5625 52D2  
                                                    l5617 52A0  
                                                    l5609 5276  
                                                    l5801 5054  
                                                    l5721 4DA0  
                                                    l5393 4D5C  
                                                    l5385 4D24  
                                                    l5377 4CC8  
                                                    l5369 4C84  
                                                    l5297 4A94  
                                                    l5289 4A60  
                                                    l6097 595C  
                                                    l6089 58CA  
                                                    l6441 4256  
                                                    l6433 4224  
                                                    l6425 41F2  
                                                    l6417 41A2  
                                                    l6409 4108  
                                                    l6361 3F74  
                                                    l6353 3ED0  
                                                    l6345 3E4A  
                                                    l6329 3CBA  
                                                    l6337 3DB0  
                                                    l6281 3B42  
                                                    l6265 3A42  
                                                    l6273 3B0A  
                                                    l6257 39D2  
                                                    l6193 379E  
                                                    l6513 6426  
                                                    l6505 63A0  
                                                    l6523 6E5E  
                                                    l6611 6DA6  
                                                    l5539 5D80  
                                                    l5563 5E4E  
                                                    l5571 5EB4  
                                                    l5555 5E06  
                                                    l5547 5DB4  
                                                    l6179 5804  
                                                    l5707 5560  
                                                    l5651 5380  
                                                    l5643 5344  
                                                    l5619 52B6  
                                                    l5811 5094  
                                                    l5803 5062  
                                                    l5731 4DD8  
                                                    l5723 4DA2  
                                                    l5395 4D5E  
                                                    l5387 4D44  
                                                    l5379 4D02  
                                                    l5299 4A96  
                                                    l6099 5998  
                                                    l6451 4286  
                                                    l6443 4264  
                                                    l6435 4236  
                                                    l6427 4200  
                                                    l6371 3FCC  
                                                    l6419 41A6  
                                                    l6355 3F26  
                                                    l6363 3F78  
                                                    l6347 3E7C  
                                                    l6339 3DCE  
                                                    l6283 3B4A  
                                                    l6275 3B1A  
                                                    l6267 3A9C  
                                                    l6195 37AC  
                                                    l6507 63BC  
                                                    l6603 4882  
                                                    l6531 43E0  
                                                    l6525 6E42  
                                                    l6613 6D52  
                                                    l6621 6846  
                                                    l6517 6E26  
                                                    l5573 5EC4  
                                                    l5565 5E7C  
                                                    l5557 5E24  
                                                    l5549 5DD4  
                                                    l5901 6782  
                                                    l5709 5562  
                                                    l5661 53CA  
                                                    l5653 538E  
                                                    l5645 5354  
                                                    l5637 530A  
                                                    l5629 52E6  
                                                    l5581 51E0  
                                                    l5821 5106  
                                                    l5813 50C2  
                                                    l5805 5074  
                                                    l5741 4E04  
                                                    l5733 4DE8  
                                                    l5725 4DB2  
                                                    l5717 4D86  
                                                    l5397 4D64  
                                                    l5389 4D48  
                                                    l6461 42E8  
                                                    l6453 42AC  
                                                    l6445 426C  
                                                    l6437 423E  
                                                    l6429 4210  
                                                    l6381 4072  
                                                    l6373 4030  
                                                    l6365 3F88  
                                                    l6357 3F2C  
                                                    l6349 3E8C  
                                                    l6293 3B8E  
                                                    l6285 3B64  
                                                    l6277 3B1E  
                                                    l6269 3AD0  
                                                    l6197 37B4  
                                                    l6189 3784  
                                                    l6509 63E0  
                                                    l6605 48AE  
                                                    l6541 445C  
                                                    l6533 440C  
                                                    _ADCP 0003D8  
                                                    l6527 6E50  
                                                    l6631 6892  
                                                    l6623 6848  
                                                    l6519 6E18  
                                                    l5575 5EE4  
                                                    l5567 5E9C  
                                                    l5559 5E2C  
                                                    l5911 67B6  
                                                    l5903 678A  
                                                    l5671 5410  
                                                    l5663 53DC  
                                                    l5655 539A  
                                                    l5647 535C  
                                                    l5639 5324  
                                                    l5591 5220  
                                                    l5583 51EE  
                                                    l5831 517C  
                                                    l5823 5130  
                                                    l5807 5082  
                                                    l5751 4E5A  
                                                    l5743 4E14  
                                                    l5735 4DEE  
                                                    l5727 4DC2  
                                                    l5719 4D92  
                                                    l5399 4D72  
                                                    l6471 432E  
                                                    l6463 4302  
                                                    l6455 42C8  
                                                    l6447 4274  
                                                    l6439 424E  
                                                    l6391 40AE  
                                                    l6375 4040  
                                                    l6383 407A  
                                                    l6367 3F9C  
                                                    l6359 3F60  
                                                    l6295 3BA0  
                                                    l6279 3B30  
                                                    l6287 3B7C  
                                                    l6199 37D8  
                                                    l6551 4528  
                                                    l6543 446C  
                                                    l6535 441E  
                                                    l6641 68A0  
                                                    l6633 6894  
                                                    l6625 684A  
                                                    l6617 6820  
                                                    l5569 5EAE  
                                                    l5921 67F2  
                                                    l5913 67BE  
                                                    l5905 678E  
                                                    l5681 5470  
                                                    l5665 53F2  
                                                    l5673 5422  
                                                    l5657 53B8  
                                                    l5649 536C  
                                                    l5593 5222  
                                                    l5585 51F0  
                                                    l5833 5198  
                                                    l5841 51BE  
                                                    l5817 50EC  
                                                    l5825 5134  
                                                    l5809 5086  
                                                    l5761 4E98  
                                                    l5753 4E6A  
                                                    l5745 4E24  
                                                    l5737 4DF4  
                                                    l5729 4DD2  
                                                    l6481 4380  
                                                    l6473 4340  
                                                    l6465 4308  
                                                    l6457 42D0  
                                                    l6449 4280  
                                                    l6393 40B4  
                                                    l6385 408C  
                                                    l6377 4052  
                                                    l6369 3FA8  
                                                    l6297 3BBC  
                                                    l6561 45FA  
                                                    l6553 4554  
                                                    l6545 44AC  
                                                    l6537 4430  
                                                    l6721 6A02  
                                                    l6651 6732  
                                                    l6643 68A2  
                                                    l6635 6896  
                                                    l6627 684E  
                                                    l6619 6840  
                                                    l5499 5C1A  
                                                    l5923 67F8  
                                                    l5915 67C6  
                                                    l5907 679C  
                                                    l5691 54DE  
                                                    l5675 5430  
                                                    l5667 53F8  
                                                    l5659 53BA  
                                                    l5587 5200  
                                                    l5595 522A  
                                                    l5579 51D4  
                                                    l5843 51C2  
                                                    l5835 51A8  
                                                    l5827 514E  
                                                    l5819 50F8  
                                                    l5771 4EF2  
                                                    l5763 4EB2  
                                                    l5747 4E34  
                                                    l5739 4E02  
                                                    l6491 43BE  
                                                    l6483 4392  
                                                    l6475 4346  
                                                    l6467 431A  
                                                    l6459 42D6  
                                                    l6395 40C0  
                                                    l6387 409A  
                                                    l6379 4064  
                                                    l6299 3BF2  
                                                    l6563 461A  
                                                    l6571 469C  
                                                    l6555 45B0  
                                                    l6547 44BC  
                                                    l6539 4434  
                                                    l6723 6A28  
                                                    l6661 6758  
                                                    l6653 6734  
                                                    l6645 68A4  
                                                    l6637 689C  
                                                    l6629 6890  
                                                    l6725 6DCE  
                                                    l6821 5ACC  
                                                    l5861 6612  
                                                    l5853 65F4  
                                                    l5917 67D4  
                                                    l5925 67FE  
                                                    l5909 67A4  
                                                    l5685 549A  
                                                    l5693 54E2  
                                                    l5677 5434  
                                                    l5669 5402  
                                                    l5597 523A  
                                                    l5589 5210  
                                                    l5941 6948  
                                                    l5933 68CC  
                                                    l5837 51B6  
                                                    l5829 5162  
                                                    l5781 4F40  
                                                    l5773 4F00  
                                                    l5765 4EBE  
                                                    l5757 4E7E  
                                                    l5749 4E3A  
                                                    l6485 439E  
                                                    l6477 434C  
                                                    l6469 4326  
                                                    l6397 40D0  
                                                    l6389 40AA  
                                                    l6581 47AA  
                                                    l6573 46CA  
                                                    l6565 462C  
                                                    l6549 44FC  
                                                    l6717 69EC  
                                                    l6663 6768  
                                                    l6655 6736  
                                                    l6647 68AA  
                                                    l6639 689E  
                                                    l6671 69C4  
                                                    l6727 6DDA  
                                                    l6831 5B0A  
                                                    l6823 5AE2  
                                                    l6815 5A68  
                                                    l5871 6646  
                                                    l5863 6620  
                                                    l5855 65F8  
                                                    l5927 680E  
                                                    l5919 67EA  
                                                    l5695 54FC  
                                                    l5687 54A6  
                                                    l5679 5442  
                                                    l5599 5240  
                                                    l5943 696C  
                                                    l5935 68FA  
                                                    l5951 6188  
                                                    l5839 51B8  
                                                    l5791 4FBE  
                                                    l5783 4F5E  
                                                    l5775 4F10  
                                                    l5767 4EDA  
                                                    l5759 4E8E  
                                                    l5847 6B6E  
                                                    l6487 43A6  
                                                    l6399 40D4  
                                                    l6591 4844  
                                                    l6567 4670  
                                                    l6559 45E8  
                                                    l6719 69F4  
                                                    l6761 6D2E  
                                                    l6657 6738  
                                                    l6649 66B8  
                                                    l6665 6E00  
                                                    l6673 69D4  
                                                    l6729 6DDE  
                                                    l6841 5B92  
                                                    l6833 5B3C  
                                                    l6817 5A78  
                                                    l5881 6680  
                                                    l5873 664E  
                                                    l5865 6628  
                                                    l5857 6606  
                                                    l5929 6816  
                                                    l5697 5512  
                                                    l5689 54B4  
                                                    l5945 6972  
                                                    l5937 690A  
                                                    l5961 61F6  
                                                    l5953 6198  
                                                    l5793 4FE8  
                                                    l5785 4F6E  
                                                    l5777 4F20  
                                                    l5769 4EE6  
                                                    l5849 6B7E  
                                                    l6489 43B8  
                                                    l6497 635C  
                                                    l6593 4858  
                                                    l6577 4750  
                                                    l6763 6D3E  
                                                    l6755 6D22  
                                                    l6659 6748  
                                                    l6675 69E4  
                                                    l6667 6976  
                                                    l6851 5BE8  
                                                    l6843 5BA0  
                                                    l6835 5B3E  
                                                    l6827 5AF6  
                                                    l6819 5A86  
                                                    l5891 66A6  
                                                    l5883 6688  
                                                    l5875 6656  
                                                    l5867 662C  
                                                    l5859 660E  
                                                    l5699 552C  
                                                    l5939 6938  
                                                    l5963 6204  
                                                    l5955 61C6  
                                                    l5795 501E  
                                                    l5787 4F8E  
                                                    l5779 4F30  
                                                    l5971 6CE8  
                                                    l6499 6386  
                                                    l6579 4762  
                                                    l6587 4806  
                                                    l6757 6D28  
                                                    l6669 69B4  
                                                    l6853 5BF8  
                                                    l6845 5BBE  
                                                    l6837 5B4A  
                                                    l6829 5AFE  
                                                    l5893 66AE  
                                                    l5885 668A  
                                                    l5877 6664  
                                                    l5869 6634  
                                                    l5965 6254  
                                                    l5957 61D6  
                                                    l5949 615A  
                                                    l5797 502C  
                                                    l5789 4F9E  
                                                    l5973 6CFE  
                                                    l5981 606A  
                                                    l6589 4832  
                                                    l6597 4864  
                                                    l6781 6B5A  
                                                    l6773 6B1C  
                                                    l6759 6D2C  
                                                    l6855 5C06  
                                                    l6847 5BC0  
                                                    l6839 5B86  
                                                    l5887 6690  
                                                    l5879 666A  
                                                    l5967 625A  
                                                    l5959 61E4  
                                                    l5799 504A  
                                                    l5975 6D0E  
                                                    l5991 60BA  
                                                    l6599 4876  
                                                    l6767 6D7E  
                                                    l6775 6B2E  
                                                    l6857 5C08  
                                                    l6849 5BC4  
                                                    l5889 6696  
                                                    l5897 6770  
                                                    l5993 60BE  
                                                    l5985 607E  
                                                    l6769 6D88  
                                                    l6777 6B36  
                                                    l5899 6774  
                                                    l5995 60CC  
                                                    l5987 60A8  
                                                    l5979 6054  
                                                    l6779 6B3E  
                                                    l5989 60AA  
                                                    l6991 5F0E  
                                                    l6993 5F36  
                                                    l6985 5F06  
                                                    l6995 5F44  
                                                    l6987 5F0A  
                                                    l6997 5F8A  
                                                    l6989 5F0C  
                                                    l6999 5FBE  
                                                    STR_1 373E  
                                                    STR_2 375E  
                                                    STR_3 376F  
                                                    STR_4 3777  
                                                    STR_7 3773  
                                                    STR_8 377B  
                                                    _LATA 0004BE  
                                                    _LATB 0004BF  
                                                    _LATC 0004C0  
                                                    u4000 4B68  
                                                    _LATD 0004C1  
                                                    u4001 4B64  
                                                    _LATE 0004C2  
                                                    u4010 4BAE  
                                                    _LATF 0004C3  
                                                    u4011 4BAA  
                                                    u4100 4C9A  
                                                    u4020 4BE4  
                                                    u4101 4C96  
                                                    u4021 4BE0  
                                                    u4110 4CAE  
                                                    u4030 4BF4  
                                                    u4111 4CAA  
                                                    u4031 4BF0  
                                                    u4200 6CA2  
                                                    u5000 6CFE  
                                                    u4120 4CC8  
                                                    u4040 4C20  
                                                    u4201 6C9E  
                                                    u5001 6CFA  
                                                    u4121 4CC4  
                                                    u4041 4C1C  
                                                    u4130 4D02  
                                                    u4050 4C30  
                                                    u5010 606A  
                                                    u4210 6CE0  
                                                    u4131 4CFE  
                                                    u4051 4C2C  
                                                    u5011 6066  
                                                    u4211 6CDA  
                                                    u4300 5D16  
                                                    u5100 65B6  
                                                    u4140 4D14  
                                                    u4060 4C4C  
                                                    u5020 609E  
                                                    u4220 6CE2  
                                                    u4301 5D12  
                                                    u5101 65B2  
                                                    u4141 4D10  
                                                    u4061 4C48  
                                                    u4310 5D60  
                                                    u5110 65C6  
                                                    u4150 4D24  
                                                    u4070 4C5C  
                                                    u5030 60CC  
                                                    u4311 5D5C  
                                                    u5111 65C2  
                                                    u4151 4D20  
                                                    u4071 4C58  
                                                    u5031 60C8  
                                                    u4320 5DB4  
                                                    u5120 6C12  
                                                    u4400 5210  
                                                    u4160 4D44  
                                                    u4080 4C6E  
                                                    u5040 60E0  
                                                    u5200 6AA8  
                                                    u6000 42E8  
                                                    u4321 5DB0  
                                                    u5121 6C0E  
                                                    u4401 520C  
                                                    u4161 4D40  
                                                    u4081 4C6A  
                                                    u5041 60DC  
                                                    u5025 6094  
                                                    u6001 42E4  
                                                    u4250 5C2C  
                                                    u4330 5DE6  
                                                    u4410 5254  
                                                    u4170 4D56  
                                                    u4090 4C84  
                                                    u5050 6108  
                                                    u5130 629E  
                                                    u5210 6ABA  
                                                    u6010 4302  
                                                    u4251 5C28  
                                                    u4331 5DE2  
                                                    u4411 5250  
                                                    u4171 4D52  
                                                    u4091 4C80  
                                                    u5051 6104  
                                                    u5211 6AB6  
                                                    u6011 42FE  
                                                    u4260 5C5E  
                                                    u4340 5E24  
                                                    u4500 53F2  
                                                    u4420 5266  
                                                    u4180 4D72  
                                                    u5060 6128  
                                                    u5140 62BC  
                                                    u5300 597C  
                                                    u5220 6AEC  
                                                    u6020 431A  
                                                    u6100 6426  
                                                    u4261 5C5A  
                                                    u4341 5E20  
                                                    u4501 53EE  
                                                    u4421 5262  
                                                    u4181 4D6E  
                                                    u5061 6124  
                                                    u5141 62B8  
                                                    u5221 6AE6  
                                                    u6021 4316  
                                                    u6101 6422  
                                                    u4350 5E4E  
                                                    u3630 6DF8  
                                                    u4190 6BF6  
                                                    u4510 5410  
                                                    u4430 5276  
                                                    u5070 6138  
                                                    u5150 62E4  
                                                    u5310 5998  
                                                    u5230 6AEE  
                                                    u6030 437A  
                                                    u6110 440C  
                                                    u4271 5C88  
                                                    u4351 5E4A  
                                                    u3631 6DF4  
                                                    u4191 6BF2  
                                                    u4511 540C  
                                                    u4431 5272  
                                                    u5071 6134  
                                                    u5151 62E0  
                                                    u5135 6294  
                                                    u5311 5994  
                                                    u5207 6A9E  
                                                    u6031 4374  
                                                    u6111 4408  
                                                    u4280 5CAC  
                                                    u4360 5E7C  
                                                    u5080 653E  
                                                    u5400 55E6  
                                                    u4600 555A  
                                                    u4520 5430  
                                                    u4440 52B6  
                                                    u3800 48E0  
                                                    u5160 630E  
                                                    u5320 59EC  
                                                    u5240 6B04  
                                                    u6040 437C  
                                                    u6200 4762  
                                                    u6120 446C  
                                                    u4281 5CA8  
                                                    u4361 5E78  
                                                    u5081 653A  
                                                    u5401 55E2  
                                                    u4601 5556  
                                                    u4521 542C  
                                                    u4441 52B2  
                                                    u3801 48DC  
                                                    u5161 630A  
                                                    u5305 5972  
                                                    u5241 6B00  
                                                    u6201 475E  
                                                    u6121 4468  
                                                    u4290 5CD6  
                                                    u4370 5EC4  
                                                    u3730 6468  
                                                    u5090 6560  
                                                    u5410 5602  
                                                    u4530 5442  
                                                    u4450 52F6  
                                                    u4610 4DA0  
                                                    u3810 48F2  
                                                    u5330 5A08  
                                                    u5250 589C  
                                                    u6050 4392  
                                                    u6210 4832  
                                                    u6130 44BC  
                                                    u4291 5CD2  
                                                    u4371 5EC0  
                                                    u3731 6464  
                                                    u5091 655C  
                                                    u5411 55FE  
                                                    u4531 543E  
                                                    u4451 52F2  
                                                    u4611 4D9C  
                                                    u3811 48EE  
                                                    u5331 5A04  
                                                    u6051 438E  
                                                    u6211 482E  
                                                    u6131 44B8  
                                                    u3740 647A  
                                                    u5500 57EC  
                                                    u5420 5630  
                                                    u4540 5470  
                                                    u4460 536C  
                                                    u4380 51EE  
                                                    u4700 5062  
                                                    u4620 4DB2  
                                                    u3900 4A4C  
                                                    u3820 4902  
                                                    u5180 6348  
                                                    u5340 5A44  
                                                    u5260 58CA  
                                                    u6060 6386  
                                                    u6140 4528  
                                                    _PMD0 000060  
                                                    u3741 6476  
                                                    u5501 57E8  
                                                    u5421 562C  
                                                    u4541 546C  
                                                    u4461 5368  
                                                    u4381 51EA  
                                                    u4701 505E  
                                                    u4621 4DAE  
                                                    u3901 4A46  
                                                    u3821 48FE  
                                                    u5181 6342  
                                                    u5341 5A40  
                                                    u5325 59E2  
                                                    u5261 58C6  
                                                    u6061 6382  
                                                    u6141 4524  
                                                    _PMD1 000061  
                                                    u3750 64A2  
                                                    u5510 5804  
                                                    u5430 563E  
                                                    u4550 5486  
                                                    u4470 538E  
                                                    u4390 5200  
                                                    u4710 5082  
                                                    u4630 4DC2  
                                                    u3910 4A4E  
                                                    u3830 4944  
                                                    u5190 634A  
                                                    u5270 58EC  
                                                    u6070 63BC  
                                                    u6150 4554  
                                                    _PMD2 000062  
                                                    u3751 649E  
                                                    u5511 5800  
                                                    u5431 563A  
                                                    u4551 5482  
                                                    u4471 538A  
                                                    u4391 51FC  
                                                    u4711 507E  
                                                    u4631 4DBE  
                                                    u3831 4940  
                                                    u5175 6320  
                                                    u5271 58E8  
                                                    u5255 5892  
                                                    u6071 63B8  
                                                    u6151 4550  
                                                    _PMD3 000063  
                                                    u6400 5B82  
                                                    u3760 64D8  
                                                    u5440 5768  
                                                    u4800 6606  
                                                    u4560 549A  
                                                    u4480 53B8  
                                                    u4720 5094  
                                                    u4640 4E02  
                                                    u3920 4A76  
                                                    u3840 495A  
                                                    u5600 3938  
                                                    u5520 37AC  
                                                    u6080 63E0  
                                                    u6160 45FA  
                                                    _PMD4 000064  
                                                    u6401 5B7E  
                                                    u3761 64D4  
                                                    u5441 5764  
                                                    u4801 6602  
                                                    u4561 5496  
                                                    u4481 53B4  
                                                    u4721 5090  
                                                    u4641 4DFE  
                                                    u3921 4A72  
                                                    u3841 4956  
                                                    u5601 3934  
                                                    u5521 37A8  
                                                    u6081 63DC  
                                                    u6161 45F6  
                                                    _PMD5 000065  
                                                    u6410 5BA0  
                                                    u5450 5786  
                                                    u5370 559E  
                                                    u4810 6620  
                                                    u4570 54B4  
                                                    u4490 53DC  
                                                    u4730 50C2  
                                                    u4650 4E14  
                                                    u3930 4A94  
                                                    u3850 496C  
                                                    u5290 5958  
                                                    u5610 3966  
                                                    u5530 37FC  
                                                    u6090 63F2  
                                                    u6170 46CA  
                                                    _PMD6 000066  
                                                    u6411 5B9C  
                                                    u5451 5782  
                                                    u5371 5598  
                                                    u4811 661C  
                                                    u4571 54B0  
                                                    u4491 53D8  
                                                    u4731 50BE  
                                                    u4651 4E10  
                                                    u3931 4A90  
                                                    u3851 4968  
                                                    u5291 5954  
                                                    u5611 3960  
                                                    u5531 37F8  
                                                    u6091 63EE  
                                                    u6171 46C6  
                                                    _PMD7 000067  
                                                    u6420 5BB0  
                                                    u5460 57A0  
                                                    u5380 55A0  
                                                    u4820 6646  
                                                    u4900 67EA  
                                                    u4580 54FC  
                                                    u4740 50D8  
                                                    u4660 4E24  
                                                    u3940 4AB4  
                                                    u3860 497C  
                                                    u5700 3B8A  
                                                    u5620 3968  
                                                    u5540 380A  
                                                    u6180 474A  
                                                    _PMD8 000068  
                                                    u6421 5BAC  
                                                    u5461 579C  
                                                    u4821 6642  
                                                    u4901 67E6  
                                                    u4581 54F8  
                                                    u4741 50D4  
                                                    u4661 4E20  
                                                    u3941 4AB0  
                                                    u3861 4978  
                                                    u5285 5900  
                                                    u5701 3B86  
                                                    u5541 3806  
                                                    u6181 4744  
                                                    u6350 6D3E  
                                                    u6430 5BBE  
                                                    u5470 57BA  
                                                    u5390 55B6  
                                                    u4830 6664  
                                                    u4910 680E  
                                                    u4590 552C  
                                                    u4750 50EC  
                                                    u4670 4E5A  
                                                    u3950 4AC2  
                                                    u3870 49B8  
                                                    u5286 590A  
                                                    u5710 3BA0  
                                                    u5630 3980  
                                                    u5550 381C  
                                                    u6190 474C  
                                                    u6270 6A4C  
                                                    u6351 6D3A  
                                                    u6431 5BBA  
                                                    u5471 57B6  
                                                    u5391 55B2  
                                                    u4831 6660  
                                                    u4911 680A  
                                                    u4591 5528  
                                                    u4751 50E8  
                                                    u4671 4E56  
                                                    u3951 4ABE  
                                                    u3871 49B4  
                                                    u5287 591A  
                                                    u5711 3B9C  
                                                    u5631 397C  
                                                    u5551 3818  
                                                    u6271 6A48  
                                                    u6440 5BF8  
                                                    u6360 5A78  
                                                    u5480 57CA  
                                                    u4840 6680  
                                                    u4920 68FA  
                                                    u4760 5106  
                                                    u4680 4E6A  
                                                    u3960 4AD2  
                                                    u3880 49C6  
                                                    u5800 3DCE  
                                                    u5720 3BBC  
                                                    u5640 3A04  
                                                    u5560 3864  
                                                    u6441 5BF4  
                                                    u6361 5A74  
                                                    u5481 57C6  
                                                    u4841 667C  
                                                    u4921 68F6  
                                                    u4761 5102  
                                                    u4681 4E66  
                                                    u3961 4ACE  
                                                    u3881 49C2  
                                                    u5801 3DCA  
                                                    u5721 3BB8  
                                                    u5641 3A00  
                                                    u5561 3860  
                                                    u6450 5C06  
                                                    u6370 5A86  
                                                    u5490 57DC  
                                                    u4850 66A6  
                                                    u4930 6938  
                                                    u4770 514E  
                                                    u4690 5008  
                                                    u3970 4B04  
                                                    u3890 4A34  
                                                    u5810 3E34  
                                                    u5730 3BF2  
                                                    u5650 3A98  
                                                    u5570 3892  
                                                    u6451 5C02  
                                                    u6371 5A82  
                                                    u5491 57D8  
                                                    u4851 66A2  
                                                    u4931 6934  
                                                    u4771 514A  
                                                    u3971 4B00  
                                                    u3891 4A30  
                                                    u5811 3E30  
                                                    u5731 3BEE  
                                                    u5651 3A94  
                                                    u5571 388C  
                                                    u6380 5AE2  
                                                    u4860 6782  
                                                    u4940 696C  
                                                    u4780 517C  
                                                    u3980 4B12  
                                                    u5900 4072  
                                                    u5820 3E7C  
                                                    u5740 3C18  
                                                    u5660 3B0A  
                                                    u5580 3894  
                                                    u6381 5ADE  
                                                    u4861 677E  
                                                    u4941 6968  
                                                    u4781 5178  
                                                    u3981 4B0E  
                                                    u5901 406E  
                                                    u5821 3E78  
                                                    u5741 3C14  
                                                    u5661 3B06  
                                                    u6390 5B38  
                                                    u4870 679C  
                                                    u4950 6188  
                                                    u4790 51B6  
                                                    u3990 4B30  
                                                    u5910 408C  
                                                    u5830 3E8C  
                                                    u5750 3C2A  
                                                    u5670 3B30  
                                                    u5590 38AC  
                                                    u6391 5B34  
                                                    u4871 6798  
                                                    u4951 6184  
                                                    u4791 51B2  
                                                    u4695 4FFE  
                                                    u3991 4B2C  
                                                    u5911 4088  
                                                    u5831 3E88  
                                                    u5751 3C26  
                                                    u5671 3B2C  
                                                    u5591 38A8  
                                                    u4880 67B6  
                                                    u4960 61C6  
                                                    u5920 409A  
                                                    u5840 3F26  
                                                    u5760 3C38  
                                                    u5680 3B42  
                                                    u6640 5F1E  
                                                    u4881 67B2  
                                                    u4961 61C2  
                                                    u5921 4096  
                                                    u5841 3F22  
                                                    u5761 3C34  
                                                    u5681 3B3E  
                                                    u6641 5F18  
                                                    u4890 67D4  
                                                    u4970 61E4  
                                                    u5930 40F2  
                                                    u5850 3F74  
                                                    u5770 3C4E  
                                                    u5690 3B64  
                                                    u4891 67D0  
                                                    u4971 61E0  
                                                    u5931 40EE  
                                                    u5851 3F70  
                                                    u5771 3C4A  
                                                    u5691 3B60  
                                                    u4980 6204  
                                                    u5940 41C4  
                                                    u5860 3F9C  
                                                    u5780 3C5C  
                                                    u4981 6200  
                                                    u5941 41C0  
                                                    u5861 3F98  
                                                    u5781 3C58  
                                                    u4990 6254  
                                                    u5950 41E0  
                                                    u5870 4040  
                                                    u5790 3C86  
                                                    u6646 5F20  
                                                    u4991 6250  
                                                    u5951 41DC  
                                                    u5871 403C  
                                                    u5791 3C82  
                                                    u5960 41F2  
                                                    u5880 4052  
                                                    u5961 41EE  
                                                    u5881 404E  
                                                    u5970 4200  
                                                    u5890 4064  
                                                    u5971 41FC  
                                                    u5891 4060  
                                                    u5980 4236  
                                                    u5981 4232  
                                                    u5990 4264  
                                                    u5991 4260  
                                                    u6687 600A  
                                                    _WPUA 000401  
                                                    _WPUB 000409  
                                                    _WPUC 000411  
                                                    _WPUD 000419  
                                                    _WPUE 000421  
                                                    _WPUF 000429  
                                                    abs@a 0513  
                                                    _dbuf 0600  
                                                    _main 5F06  
                                                    _dtoa 556E  
                                                    _prec 05EA  
                                                    _nout 05E6  
                                                    pad@i 051A  
                                                    pad@p 0517  
                                                    fsr0h 0004EA  
                                                    fsr1h 0004E2  
                                                    indf0 0004EF  
                                                    fsr2h 0004DA  
                                                    fsr0l 0004E9  
                                                    indf2 0004DF  
                                                    fsr1l 0004E1  
                                                    pad@w 051C  
                                                    fsr2l 0004D9  
                                           ___fpclassifyf 625E  
                                                    prodh 0004F4  
                                                    prodl 0004F3  
                                                    start FFFC  
                                         ___fldiv@new_exp 0512  
                                            _tolower$2650 050D  
                                            ___param_bank 000000  
                                                   ??_abs 0515  
                                                   ??_pad 0519  
                          __size_of_OSCILLATOR_Initialize 0018  
                           __end_of_OSCILLATOR_Initialize 6E18  
                                           ___fltol@sign1 0509  
                                         __end_of___aodiv 5DA2  
                                                   _ADACT 0003F9  
                                                   _ADCAP 0003F0  
                                         __end_of___fladd 4D86  
                                                   ?_main 0501  
                                                   ?_dtoa 051E  
                                                   _ADCLK 0003FA  
                                         __end_of___aomod 5F06  
                                                   _ADCNT 0003E6  
                                                   _ADCTX 0003FB  
                                                   _ADPCH 0003EC  
                                         __end_of___fldiv 556E  
                                                   _ADREF 0003F8  
                                         __end_of___awdiv 66B8  
                                         __end_of___flneg 6D20  
                                                   STR_11 377F  
                                                   STR_13 377F  
                                         __end_of___awmod 6820  
                                                   _ADRPT 0003E7  
                                         __end_of___flmul 51D4  
                                         __end_of___flsub 6BB4  
                                         __end_of___fltol 615A  
                                         ___awdiv@divisor 0503  
                                                   _U1P1H 0002A6  
                                                   _U1P2H 0002A8  
                                                   _U1P1L 0002A5  
                                                   _U1P3H 0002AA  
                                                   _U1P2L 0002A7  
                                                   _U1P3L 0002A9  
                                                   _U1UIR 0002B1  
                                                   _U1RXB 0002A1  
                                                   _U1TXB 0002A3  
                                         ___awdiv@counter 0505  
                              __end_of_i2c1_fsmStateTable 373A  
                                                   _OSCEN 0000B3  
                                            vfpfcnvrt@fmt 0544  
                                                   _TRISA 0004C6  
                                                   _TRISB 0004C7  
                                                   _TRISC 0004C8  
                                                   _TRISD 0004C9  
                                                   _TRISE 0004CA  
                                                   _TRISF 0004CB  
                               ??_ADC_GetSingleConversion 0503  
                                       ??_I2C1_Initialize 0501  
                                                   _flags 05EC  
                                                   _fputc 6456  
                                                   _fputs 6BB4  
                                                   pad@fp 0513  
                                                   _width 05E8  
                                                   _putch 6E6C  
                                                   dtoa@d 0520  
                                                   dtoa@i 0540  
                                                   dtoa@n 0538  
                                                   dtoa@p 0532  
                                                   dtoa@s 0536  
                                                   dtoa@w 0534  
                                         __end_of_isupper 6CE8  
                                                   tablat 0004F5  
                                                   status 0004D8  
                                         __end_of_sprintf 6B6E  
                                          ?___fpclassifyf 0501  
                                         __end_of_tolower 6B1C  
                                         __end_of_strncmp 6456  
                        _UART1_DefaultFramingErrorHandler 000000  
                                         __initialization 6C38  
                                            __end_of_main 6054  
                                            __end_of_dtoa 5854  
                                            ?_UART1_Write 0501  
                                                  ??_main 05B2  
                                                  ??_dtoa 0528  
                                           __activetblptr 000003  
                                        _UART1_Initialize 6976  
                                                  _ADACCH 0003E4  
                                                  _ADACCL 0003E3  
                                                  _ADACCU 0003E5  
                                                  _ADACQH 0003EF  
                                                  _ADACQL 0003EE  
                                                  _ADCON0 0003F3  
                                                  _ADCON1 0003F4  
                                                  _ADCON2 0003F5  
                                                  _ADCON3 0003F6  
                                                  _ADERRH 0003DE  
                                                  _ADERRL 0003DD  
                                                  ?_fputc 0503  
                                                  _ADLTHH 0003DA  
                                                  _ADLTHL 0003D9  
                                                  ?_fputs 050C  
                                                  _ADRESH 0003EB  
                                                  _ADRESL 0003EA  
                                                  _ADPREH 0003F2  
                                                  _ADPREL 0003F1  
                                                  _ADSTAT 0003F7  
                                                  _ADUTHH 0003DC  
                                        ___awdiv@dividend 0501  
                                                  _ADUTHL 0003DB  
                                                  _ANSELA 000400  
                                                  ?_putch 0501  
                                                  _ANSELB 000408  
                                                  _ANSELC 000410  
                                                  _ANSELD 000418  
                                                  _ANSELE 000420  
                                                  _ANSELF 000428  
                                                  _U1CON0 0002AB  
                                                  _U1CON1 0002AC  
                                                  _U1CON2 0002AD  
                                                  _U1BRGH 0002AF  
                                                  _U1FIFO 0002B0  
                                                  _U1BRGL 0002AE  
                                                  _RB1PPS 00020A  
                                                  _RB2PPS 00020B  
                                                  _ODCONA 000402  
                                                  _ODCONB 00040A  
                                                  _ODCONC 000412  
                                                  _RF0PPS 000229  
                                                  _ODCOND 00041A  
                                                  _ODCONE 000422  
                                                  _ODCONF 00042A  
                                                  _INLVLA 000404  
                                                  _INLVLB 00040C  
                                                  _INLVLC 000414  
                                                  _INLVLD 00041C  
                                                  _INLVLE 000424  
                                                  _INLVLF 00042C  
                                                  _OSCFRQ 0000B1  
                                   _UART1_SetErrorHandler 6E34  
                                        __end_of___xxtofl 5C1A  
                                        _I2C1_DO_RX_EMPTY 000000  
                                      _ADC_DefaultADI_ISR 000000  
                                        _I2C1_DO_TX_EMPTY 000000  
                                            vfprintf@cfmt 055E  
                                                  _g_LcdX 05EF  
                                                  _g_LcdY 05EE  
                                                  ___flge 615A  
                                                  ___fleq 68CC  
                                               ??___aodiv 0511  
                                               ??___fladd 0509  
                                               ??___aomod 0511  
                                               ??___fldiv 0509  
                                               ??___awdiv 0505  
                                               ??___flneg 0505  
                                               ??___awmod 0505  
                                               ??___flmul 0517  
                                               ??___flsub 0530  
                                               ??___fltol 0505  
                                                  _efgtoa 3784  
                                                  _buffer 0650  
                                                  _floorf 5854  
                                                  clear_0 6C5E  
                                                  clear_1 6C6A  
                                        ___awdiv@quotient 0507  
                                         ___awmod@divisor 0503  
                                                  isa$std 000001  
                                         ___awmod@counter 0505  
                                                  _printf 6D7E  
                                                  pad@buf 0515  
                                                  dtoa@fp 051E  
                                                  _strcpy 6A56  
                                                  _strlen 6C76  
                                   _I2C1_DO_SEND_ADR_READ 000000  
                                                  fputc@c 0503  
                                          _PMD_Initialize 6DA6  
                                                  fputs@c 0510  
                                                  fputs@i 0511  
                                                  fputs@s 050C  
                                         ___fpclassifyf@e 0509  
                                         ___fpclassifyf@u 050B  
                                         ___fpclassifyf@x 0501  
                                            __mediumconst 0000  
                                                  tblptrh 0004F7  
                                               ??_isupper 0503  
                                                  tblptrl 0004F6  
                                                  tblptru 0004F8  
                                        __end_of_vfprintf 6A56  
ADC_SetActiveClockTuningInterruptHandler@InterruptHandler 0501  
ADC_SetContext1ThresholdInterruptHandler@InterruptHandler 0501  
              ADC_SetADIInterruptHandler@InterruptHandler 0501  
                    __end_of_UART1_SetOverrunErrorHandler 6E26  
                   __size_of_UART1_SetOverrunErrorHandler 000E  
                            _UART1_SetOverrunErrorHandler 6E18  
                               _UART1_DefaultErrorHandler 000000  
                                               ??_sprintf 0560  
                                               ??_tolower 0509  
                                               ??_strncmp 0507  
                                 _I2C1_DO_RX_NACK_RESTART 000000  
                                              ___flge@ff1 0528  
                                              ___flge@ff2 052C  
                                         ??___fpclassifyf 0505  
                                            ___xxtofl@arg 050B  
                                            ___xxtofl@exp 050A  
                                       _SYSTEM_Initialize 6DCE  
                                            ___xxtofl@val 0501  
                                              ___fleq@ff1 0501  
                                              ___fleq@ff2 0505  
                                              __accesstop 0560  
                                 __end_of__initialization 6C70  
                                              ___flneg@f1 0501  
                                      ?_SYSTEM_Initialize 0501  
                                           ___rparam_used 000001  
                                              ___fltol@f1 0501  
                                 _rdBlkRegCompleteHandler 000000  
                                          __pcstackCOMRAM 0501  
                                            __pidataBANK6 6E76  
                                     ??_SYSTEM_Initialize 0504  
                                           __end_of_fputc 652E  
                                           __end_of_fputs 6BF8  
                                           __end_of_putch 6E76  
                                  __end_of_PMD_Initialize 6DCE  
        __end_of_ADC_SetActiveClockTuningInterruptHandler 6E5E  
       __size_of_ADC_SetActiveClockTuningInterruptHandler 000E  
              ??_ADC_SetActiveClockTuningInterruptHandler 0504  
               ?_ADC_SetActiveClockTuningInterruptHandler 0501  
                _ADC_SetActiveClockTuningInterruptHandler 6E50  
                               _UART1_FramingErrorHandler 05FB  
                            ??_ADC_SetADIInterruptHandler 0504  
                                       _I2C1_DO_BUS_ERROR 000000  
                                                 ??_fputc 0507  
                               __end_of_SYSTEM_Initialize 6DE8  
                                                 ??_fputs 0510  
                                                 ??_putch 0502  
                                              __pbssBANK5 05B4  
                                              __pbssBANK6 0600  
                           ?_UART1_SetOverrunErrorHandler 0501  
                                  ?_UART1_SetErrorHandler 0501  
                                   _rd1RegCompleteHandler 000000  
                                       _I2C1_DO_SEND_STOP 000000  
                                   _wr1RegCompleteHandler 000000  
                                                 ?___flge 0528  
                                                 ?___fleq 0501  
                                                 _I2C1CLK 00029E  
                                                 _I2C1ERR 000297  
                                                 _I2C1PIE 00029B  
                                                 _I2C1PIR 00029A  
                                                 _I2C1RXB 00028A  
                                                 _I2C1TXB 00028B  
                                                 ?_efgtoa 0534  
                                         _I2C1_Initialize 6D52  
                                                 _ADCSEL1 0003FC  
                                                 _ADFLTRH 0003E2  
                                                 ?_floorf 051A  
                                                 _ADFLTRL 0003E1  
                     __size_of_ADC_SetADIInterruptHandler 000E  
                                                 _ADPREVH 0003E9  
                                                 _ADPREVL 0003E8  
                                                 _ADSTPTH 0003E0  
                                                 _ADSTPTL 0003DF  
                                                 ?_printf 059E  
                                         ?_PMD_Initialize 0501  
                                 __size_of_ADC_Initialize 00B8  
                                                 ?_strcpy 0501  
                                                 ?_strlen 0501  
                                                 _U1ERRIE 0002B3  
                                                 _U1ERRIR 0002B2  
                                    __size_of_UART1_Write 0018  
                                                 _U1RXPPS 000272  
                                               ?___xxtofl 0501  
                                                 _OSCCON1 0000AD  
                                                 _OSCCON3 0000AF  
                                      __size_of_vfpfcnvrt 04E6  
                                                 _OSCTUNE 0000B0  
                                                 _SLRCONA 000403  
                                                 _SLRCONB 00040B  
                                                 _SLRCONC 000413  
                                                 _SLRCOND 00041B  
                                                 _SLRCONE 000423  
                                                 _SLRCONF 00042B  
                              _ADC_ConversionComplete_ISR 05F8  
                                      _i2c1_fsmStateTable 3701  
                                              _lecturaADC 05FE  
                                                 __Hparam 0000  
                                                 __Lparam 0000  
                                __end_of_UART1_Initialize 69EC  
                                         __size_of___flge 0104  
                                         __size_of___fleq 00AA  
                                                 ___aodiv 5C1A  
                                                 ___fladd 48C6  
                                                 ___aomod 5DA2  
                                                 ___fldiv 51D4  
                                                 ___awdiv 65F4  
                                                 ___flneg 6CE8  
                                                 ___awmod 6770  
                                                 ___flmul 4D86  
                                                 ___flsub 6B6E  
                                                 ___fltol 6054  
                                               ?_vfprintf 0598  
                                            __psmallconst 3700  
                                         __size_of_efgtoa 0C5C  
                                         __size_of_floorf 0212  
                                                 __pcinit 6C38  
                                                 __ramtop 3700  
                                                 __ptext0 5F06  
                                                 __ptext1 6B1C  
                                                 __ptext2 6D7E  
                                                 __ptext3 69EC  
                                                 __ptext4 43E0  
                                                 __ptext5 635C  
                                                 __ptext6 3784  
                                                 __ptext7 6ABC  
                                                 __ptext8 6CB0  
                                                 __ptext9 6A56  
                                         __size_of_printf 0028  
                                         __size_of_strcpy 0066  
                                         __size_of_strlen 003A  
                                   _OSCILLATOR_Initialize 6E00  
                                            __size_of_abs 0040  
                                            __size_of_pad 00C6  
                                             _I2C1ERRbits 000297  
                                              ??___xxtofl 0505  
                                        ___awmod@dividend 0501  
                                ??_PIN_MANAGER_Initialize 0501  
                                             _I2C1PIEbits 00029B  
                                                 _isupper 6CB0  
                                                 efgtoa@c 053A  
                                                 efgtoa@d 0578  
                                                 efgtoa@e 0590  
                                                 efgtoa@f 0536  
                                                 efgtoa@g 058C  
                                                 efgtoa@h 0582  
                                                 efgtoa@i 058A  
                                                 efgtoa@l 0586  
                                                 efgtoa@m 0572  
                                                 efgtoa@n 0592  
                                                 efgtoa@p 057C  
                                                 efgtoa@t 056C  
                                                 efgtoa@u 0594  
                                                 efgtoa@w 057E  
                                             _I2C1PIRbits 00029A  
                              __size_of_SYSTEM_Initialize 001A  
                                                 _sprintf 6B1C  
                                                 _tolower 6ABC  
                                                 _strncmp 635C  
                                    end_of_initialization 6C70  
                                                 floorf@e 0528  
                                                 floorf@m 0524  
                                                 floorf@u 052A  
                                                 floorf@x 051A  
                                                 fputc@fp 0505  
                                                 fputs@fp 050E  
                                  _I2C1_DO_SEND_ADR_WRITE 000000  
                          ??_UART1_SetOverrunErrorHandler 0504  
                                 __end_of_I2C1_Initialize 6D7E  
                                             _I2C1_Status 05B4  
                                       __end_of_vfpfcnvrt 48C6  
                                              efgtoa@mode 0581  
                                              efgtoa@sign 057A  
                                                 postdec1 0004E5  
                                                 postdec2 0004DD  
                                                 postinc0 0004EE  
                                                 postinc1 0004E6  
                                                 postinc2 0004DE  
                                              ??_vfprintf 055E  
                                       UART1_Write@txData 0501  
                              _I2C1_DO_SEND_RESTART_WRITE 000000  
                                                 strcpy@d 0509  
                                                 strlen@a 0503  
                                                 strcpy@s 0507  
                                                 strlen@s 0501  
                                ?_ADC_GetSingleConversion 0501  
                                             ___fladd@grs 0510  
                      __end_of_ADC_SetADIInterruptHandler 6E6C  
                              _ADC_SetADIInterruptHandler 6E5E  
                                           ___xxtofl@sign 0509  
                                             ___fldiv@grs 0514  
                                             ___fldiv@rem 050D  
                                             _ADCSEL1bits 0003FC  
                                         _LCD_INIT_STRING 373A  
                                             ___flmul@grs 051C  
                                          __end_of___flge 625E  
                                          __end_of___fleq 6976  
                                             vfpfcnvrt@ap 0546  
                                             vfpfcnvrt@ct 055A  
                                             vfpfcnvrt@fp 0542  
                                             vfpfcnvrt@ll 054C  
                                          _I2C1_DO_RX_ACK 000000  
                                          _I2C1_DO_TX_ACK 000000  
                                          __end_of_efgtoa 43E0  
                                          _ADC_Initialize 66B8  
                                          __end_of_floorf 5A66  
                                  ?_OSCILLATOR_Initialize 0501  
                                              floorf@F527 05DE  
                                          __end_of_printf 6DA6  
                                          __end_of_strcpy 6ABC  
                                          __end_of_strlen 6CB0  
                                     start_initialization 6C38  
                         __size_of_PIN_MANAGER_Initialize 00AC  
                                             __end_of_abs 6C38  
                                             __end_of_pad 65F4  
                                 ??_UART1_SetErrorHandler 0504  
                                             putch@txData 0502  
                                   __end_of___fpclassifyf 635C  
                                        ?_I2C1_Initialize 0501  
                                             vfprintf@fmt 059A  
                         __end_of_ADC_GetSingleConversion 6D52  
                                                ??___flge 0530  
                                                ??___fleq 0509  
                                        ??_PMD_Initialize 0501  
        __end_of_ADC_SetContext1ThresholdInterruptHandler 6E50  
       __size_of_ADC_SetContext1ThresholdInterruptHandler 000E  
              ??_ADC_SetContext1ThresholdInterruptHandler 0504  
               ?_ADC_SetContext1ThresholdInterruptHandler 0501  
                _ADC_SetContext1ThresholdInterruptHandler 6E42  
                                                ??_efgtoa 053B  
                                  __end_of_ADC_Initialize 6770  
                                             __pdataBANK6 0686  
                                                ??_floorf 051E  
                                                ??_printf 0560  
                                                ??_strcpy 0505  
                                                ??_strlen 0503  
                                               ___fladd@a 0505  
                                               ___fladd@b 0501  
                                 __end_of_LCD_INIT_STRING 373E  
                                               ___fldiv@a 0505  
                                               ___fldiv@b 0501  
                                               ___flmul@a 0513  
                                               ___flmul@b 050F  
                                    _I2C1_DO_SEND_RESTART 000000  
                                               ___flsub@a 052C  
                                               ___flsub@b 0528  
                                      _UART1_ErrorHandler 0680  
                                           __pcstackBANK5 0560  
                                        ___aodiv@dividend 0501  
                                       __size_of___xxtofl 01B4  
                                               __pnvBANK5 05F2  
                                               __pnvBANK6 0678  
                                   _rd2RegCompleteHandler 000000  
                                             _efgtoa$2522 0564  
                                             _efgtoa$2517 0560  
                                             _efgtoa$2526 0566  
                                             _efgtoa$2518 0562  
                                             _efgtoa$2527 0568  
                                             _efgtoa$2528 056A  
                                  _PIN_MANAGER_Initialize 6820  
                                   _wr2RegCompleteHandler 000000  
                                               _dtoa$2493 0530  
                                       ?_UART1_Initialize 0501  
                    __end_of_UART1_SetFramingErrorHandler 6E34  
                   __size_of_UART1_SetFramingErrorHandler 000E  
                            _UART1_SetFramingErrorHandler 6E26  
                                                ?___aodiv 0501  
                                                ?___fladd 0501  
                                                ?___aomod 0501  
                                                ?___fldiv 0501  
                                                ?___awdiv 0501  
                                        ___aodiv@quotient 0513  
                                                ?___flneg 0501  
                                                ?___awmod 0501  
                                                ?___flmul 050F  
                                                ?___flsub 0528  
                                                ?___fltol 0501  
                                                _I2C1BAUD 00029D  
                                      ??_UART1_Initialize 0504  
                                                _I2C1CON0 000294  
                                                _I2C1CON1 000295  
                                                _I2C1CON2 000296  
                                         ?_ADC_Initialize 0501  
                                                _I2C1CNTH 00028D  
                                                _I2C1CNTL 00028C  
                                        _uart1RxLastError 05F1  
                                           ??_UART1_Write 0501  
                                                _ADACTPPS 000269  
                                       __size_of_vfprintf 006A  
                                             __smallconst 3700  
                        _UART1_DefaultOverrunErrorHandler 000000  
                                                _ADCPbits 0003D8  
                                                ?_isupper 0501  
                                                ?_sprintf 059E  
                                                ?_tolower 0507  
                                          __size_of_fputc 00D8  
                                          __size_of_fputs 0044  
                                                ?_strncmp 0501  
                                             _U1ERRIRbits 0002B2  
                                          __size_of_putch 000A  
                                              _I2C1SDAPPS 000270  
                                              _I2C1SCLPPS 000271  
                   UART1_SetErrorHandler@interruptHandler 0501  
                                                _LATFbits 0004C3  
                                              _I2C1_DO_RX 000000  
                                              _I2C1_DO_TX 000000  
                                                _PIE7bits 0004A5  
                                           _I2C1STAT1bits 000299  
                                                _PIR1bits 0004AF  
                                                _PIR2bits 0004B0  
                                                _PIR4bits 0004B2  
                                                _PIR7bits 0004B5  
                               _ADC_ActiveClockTuning_ISR 05F2  
                               _I2C1_DO_SEND_RESTART_READ 000000  
                        _ADC_DefaultActiveClockTuning_ISR 000000  
                           ?_UART1_SetFramingErrorHandler 0501  
                          ADC_GetSingleConversion@channel 0505  
                                               _vfpfcnvrt 43E0  
                                              _ADCON0bits 0003F3  
                                              _ADCON1bits 0003F4  
                                              _ADCON2bits 0003F5  
                                              _ADCON3bits 0003F6  
                             ?_ADC_SetADIInterruptHandler 0501  
                                     __end_of_UART1_Write 6E00  
                                           _I2C1_DO_RESET 000000  
                                              vfpfcnvrt@c 055D  
                                              vfpfcnvrt@f 0556  
                                               copy_data0 6C4C  
                        __size_of_ADC_GetSingleConversion 0032  
                                              _ADSTATbits 0003F7  
                                                __Hrparam 0000  
                                              vfprintf@ap 059C  
                                                __Lrparam 0000  
                                              vfprintf@fp 0598  
                                 ??_OSCILLATOR_Initialize 0501  
                                        __size_of___aodiv 0188  
                                        __size_of___fladd 04C0  
                                        __size_of___aomod 0164  
                                        __size_of___fldiv 039A  
                                        __size_of___awdiv 00C4  
                                        __size_of___flneg 0038  
                                        __size_of___awmod 00B0  
                                        __size_of___flmul 044E  
                                        __size_of___flsub 0046  
                                        __size_of___fltol 0106  
                                              ?_vfpfcnvrt 0542  
                                         ___aodiv@divisor 0509  
                                         ___aodiv@counter 0511  
                                      ___fpclassifyf@F465 05E2  
                                              sprintf@fmt 05A0  
                                                ___xxtofl 5A66  
                               _ADC_Context1Thereshld_ISR 05F5  
                                            _I2C1CON0bits 000294  
                                            _I2C1CON1bits 000295  
                                                __ptext10 5854  
                                                __ptext11 625E  
                                                __ptext20 6770  
                                                __ptext12 6054  
                                                __ptext21 65F4  
                                                __ptext13 6B6E  
                                                __ptext30 5DA2  
                                                __ptext22 556E  
                                                __ptext14 48C6  
                                                __ptext31 5C1A  
                                                __ptext23 652E  
                                                __ptext15 6CE8  
                                                __ptext40 6E00  
                                                __ptext32 5A66  
                                                __ptext24 6C76  
                                                __ptext16 4D86  
                                                __ptext41 6D52  
                                                __ptext33 6DCE  
                                                __ptext25 6BB4  
                                                __ptext17 615A  
                                                __ptext42 66B8  
                                                __ptext34 6976  
                                                __ptext26 6456  
                                                __ptext18 68CC  
                                                __ptext43 6E42  
                                                __ptext35 6E18  
                                                __ptext27 6E6C  
                                                __ptext19 51D4  
                                                __ptext44 6E50  
                                                __ptext36 6E26  
                                                __ptext28 6DE8  
                                                __ptext45 6E5E  
                                                __ptext37 6E34  
                                                __ptext29 6BF8  
                                                __ptext46 6D20  
                                                __ptext38 6DA6  
                                                __ptext39 6820  
                                        __size_of_isupper 0038  
                                   _I2C1_DO_BUS_COLLISION 000000  
                                              _U1CON0bits 0002AB  
                          __size_of_UART1_SetErrorHandler 000E  
                                                _contador 05F0  
                           __end_of_UART1_SetErrorHandler 6E42  
                                        __size_of_sprintf 0052  
                                        __size_of_tolower 0060  
                                              strcpy@dest 0501  
                                        __size_of_strncmp 00FA  
                                _I2C1_CallbackReturnReset 000000  
                                           __size_of_main 014E  
                                           __size_of_dtoa 02E6  
                                                efgtoa@fp 0534  
                                                efgtoa@ne 0570  
                                                efgtoa@pp 056E  
                                                efgtoa@ou 0574  
                               _UART1_OverrunErrorHandler 0683  
            UART1_SetOverrunErrorHandler@interruptHandler 0501  
                                                isa$xinst 000000  
                                                _vfprintf 69EC  
                                               printf@fmt 059E  
                                            _I2C1_DO_IDLE 000000  
                                             _UART1_Write 6DE8  
                                        ___aomod@dividend 0501  
                          ??_UART1_SetFramingErrorHandler 0504  
                                          _vfpfcnvrt$2546 0554  
                                               sprintf@ap 05AA  
                                 ?_PIN_MANAGER_Initialize 0501  
                                               strcpy@src 0503  
                                                isupper@c 0501  
                                 _I2C1_CallbackReturnStop 000000  
                                               strncmp@_l 0501  
                                               strncmp@_r 0503  
                                        ??_ADC_Initialize 0504  
                                    _I2C1_DO_ADDRESS_NACK 000000  
                                             efgtoa@nmode 0580  
                                                printf@ap 05AC  
            UART1_SetFramingErrorHandler@interruptHandler 0501  
                                         ___aomod@divisor 0509  
                                             ??_vfpfcnvrt 0548  
                                         ___aomod@counter 0511  
                                __size_of_I2C1_Initialize 002C  
                                             _temperatura 0678  
                                                sprintf@f 05AC  
                                                tolower@c 0507  
                                                sprintf@s 059E  
                                  __size_of___fpclassifyf 00FE  
                                                strncmp@l 0508  
                                                strncmp@n 0505  
                                                strncmp@r 050A  
                               __size_of_UART1_Initialize 0076  
                                 _ADC_GetSingleConversion 6D20  
                                           ___fladd@signs 050D  
                                            ___aodiv@sign 0512  
                          __end_of_PIN_MANAGER_Initialize 68CC  
                                            ___fladd@aexp 050E  
                                            ___fladd@bexp 050F  
                        _ADC_DefaultContext1Threshold_ISR 000000  
                                            ___aomod@sign 0512  
