

Microchip MPLAB XC8 Assembler V2.32 build 20210201212658 
                                                                                               Tue Jun 21 11:36:17 2022

Microchip MPLAB XC8 C Compiler v2.32 (Free license) build 20210201212658 Og1 
     1                           	processor	18F57Q84
     2                           	fnconf	rparam,??,?,0
     3                           	pagewidth 120
     4                           	opt	flic
     5                           	psect	smallconst,global,reloc=2,class=SMALLCONST,delta=1,noexec
     6                           	psect	nvBANK5,global,class=BANK5,space=1,delta=1,lowdata,noexec
     7                           	psect	cinit,global,reloc=2,class=CODE,delta=1
     8                           	psect	bssBANK5,global,class=BANK5,space=1,delta=1,lowdata,noexec
     9                           	psect	bssBANK6,global,class=BANK6,space=1,delta=1,lowdata,noexec
    10                           	psect	cstackBANK5,global,class=BANK5,space=1,delta=1,lowdata,noexec
    11                           	psect	cstackCOMRAM,global,class=COMRAM,space=1,delta=1,lowdata,noexec
    12                           	psect	text0,global,reloc=2,class=CODE,delta=1
    13                           	psect	text1,global,reloc=2,class=CODE,delta=1,group=3
    14                           	psect	text2,global,reloc=2,class=CODE,delta=1,group=3
    15                           	psect	text3,global,reloc=2,class=CODE,delta=1,group=1
    16                           	psect	text4,global,reloc=2,class=CODE,delta=1,group=1
    17                           	psect	text5,global,reloc=2,class=CODE,delta=1,group=1
    18                           	psect	text6,global,reloc=2,class=CODE,delta=1,group=1
    19                           	psect	text7,global,reloc=2,class=CODE,delta=1,group=3
    20                           	psect	text8,global,reloc=2,class=CODE,delta=1,group=3
    21                           	psect	text9,global,reloc=2,class=CODE,delta=1,group=3
    22                           	psect	text10,global,reloc=2,class=CODE,delta=1
    23                           	psect	text11,global,reloc=2,class=CODE,delta=1
    24                           	psect	text12,global,reloc=2,class=CODE,delta=1,group=3
    25                           	psect	text13,global,reloc=2,class=CODE,delta=1,group=2
    26                           	psect	text14,global,reloc=2,class=CODE,delta=1,group=2
    27                           	psect	text15,global,reloc=2,class=CODE,delta=1
    28                           	psect	text16,global,reloc=2,class=CODE,delta=1
    29                           	psect	text17,global,reloc=2,class=CODE,delta=1
    30                           	psect	text18,global,reloc=2,class=CODE,delta=1
    31                           	psect	text19,global,reloc=2,class=CODE,delta=1
    32                           	psect	text20,global,reloc=2,class=CODE,delta=1
    33                           	psect	text21,global,reloc=2,class=CODE,delta=1
    34                           	psect	text22,global,reloc=2,class=CODE,delta=1
    35                           	psect	text23,global,reloc=2,class=CODE,delta=1
    36                           	psect	text24,global,reloc=2,class=CODE,delta=1,inline
    37                           	psect	text25,global,reloc=2,class=CODE,delta=1
    38                           	psect	text26,global,reloc=2,class=CODE,delta=1
    39                           	psect	text27,global,reloc=2,class=CODE,delta=1
    40                           	psect	text28,global,reloc=2,class=CODE,delta=1,inline
    41                           	psect	text29,global,reloc=2,class=CODE,delta=1,inline
    42                           	psect	text30,global,reloc=2,class=CODE,delta=1
    43                           	psect	text31,global,reloc=2,class=CODE,delta=1
    44                           	psect	text32,global,reloc=2,class=CODE,delta=1
    45                           	psect	text33,global,reloc=2,class=CODE,delta=1
    46                           	psect	text34,global,reloc=2,class=CODE,delta=1
    47                           	psect	text35,global,reloc=2,class=CODE,delta=1
    48                           	psect	text36,global,reloc=2,class=CODE,delta=1
    49                           	psect	text37,global,reloc=2,class=CODE,delta=1
    50                           	psect	text38,global,reloc=2,class=CODE,delta=1
    51                           	psect	text39,global,reloc=2,class=CODE,delta=1
    52                           	psect	text40,global,reloc=2,class=CODE,delta=1
    53                           	psect	text41,global,reloc=2,class=CODE,delta=1
    54                           	psect	text42,global,reloc=2,class=CODE,delta=1
    55                           	psect	text43,global,reloc=2,class=CODE,delta=1
    56                           	psect	text44,global,reloc=2,class=CODE,delta=1
    57                           	psect	text45,global,reloc=2,class=CODE,delta=1
    58                           	psect	text46,global,reloc=2,class=CODE,delta=1
    59                           	psect	text47,global,reloc=2,class=CODE,delta=1
    60                           	psect	text48,global,reloc=2,class=CODE,delta=1
    61                           	psect	text49,global,reloc=2,class=CODE,delta=1,inline
    62                           	psect	text50,global,reloc=2,class=CODE,delta=1,inline
    63                           	psect	text51,global,reloc=2,class=CODE,delta=1,inline
    64                           	psect	text52,global,reloc=2,class=CODE,delta=1,inline
    65                           	psect	text53,global,reloc=2,class=CODE,delta=1,inline
    66                           	psect	text54,global,reloc=2,class=CODE,delta=1,inline
    67                           	psect	text55,global,reloc=2,class=CODE,delta=1,inline
    68                           	psect	text56,global,reloc=2,class=CODE,delta=1,inline
    69                           	psect	text57,global,reloc=2,class=CODE,delta=1,inline
    70                           	psect	text58,global,reloc=2,class=CODE,delta=1,inline
    71                           	psect	text59,global,reloc=2,class=CODE,delta=1,inline
    72                           	psect	text60,global,reloc=2,class=CODE,delta=1,inline
    73                           	psect	text61,global,reloc=2,class=CODE,delta=1,inline
    74                           	psect	text62,global,reloc=2,class=CODE,delta=1
    75                           	psect	text63,global,reloc=2,class=CODE,delta=1
    76                           	psect	text64,global,reloc=2,class=CODE,delta=1
    77                           	psect	text65,global,reloc=2,class=CODE,delta=1
    78                           	psect	text66,global,reloc=2,class=CODE,delta=1
    79                           	psect	text67,global,reloc=2,class=CODE,delta=1
    80                           	psect	text68,global,reloc=2,class=CODE,delta=1
    81                           	psect	text69,global,reloc=2,class=CODE,delta=1
    82                           	psect	text70,global,reloc=2,class=CODE,delta=1
    83                           	psect	text71,global,reloc=2,class=CODE,delta=1
    84                           	psect	text72,global,reloc=2,class=CODE,delta=1,inline
    85                           	psect	text73,global,reloc=2,class=CODE,delta=1,inline
    86                           	psect	text74,global,reloc=2,class=CODE,delta=1,inline
    87                           	psect	text75,global,reloc=2,class=CODE,delta=1,inline
    88                           	psect	text76,global,reloc=2,class=CODE,delta=1,inline
    89                           	psect	text77,global,reloc=2,class=CODE,delta=1,inline
    90                           	psect	text78,global,reloc=2,class=CODE,delta=1,inline
    91                           	psect	text79,global,reloc=2,class=CODE,delta=1
    92                           	psect	text80,global,reloc=2,class=CODE,delta=1,inline
    93                           	psect	text81,global,reloc=2,class=CODE,delta=1,inline
    94                           	psect	text82,global,reloc=2,class=CODE,delta=1,inline
    95                           	psect	text83,global,reloc=2,class=CODE,delta=1
    96                           	psect	text84,global,reloc=2,class=CODE,delta=1
    97                           	psect	text85,global,reloc=2,class=CODE,delta=1
    98                           	psect	text86,global,reloc=2,class=CODE,delta=1
    99                           	psect	text87,global,reloc=2,class=CODE,delta=1
   100                           	psect	text88,global,reloc=2,class=CODE,delta=1
   101                           	psect	text89,global,reloc=2,class=CODE,delta=1
   102                           	psect	text90,global,reloc=2,class=CODE,delta=1
   103                           	psect	text91,global,reloc=2,class=CODE,delta=1
   104                           	psect	text92,global,reloc=2,class=CODE,delta=1
   105                           	psect	text93,global,reloc=2,class=CODE,delta=1
   106                           	psect	text94,global,reloc=2,class=CODE,delta=1
   107                           	psect	text95,global,reloc=2,class=CODE,delta=1
   108                           	psect	text96,global,reloc=2,class=CODE,delta=1
   109                           	psect	intsave_regs,global,class=BIGRAM,space=1,delta=1,noexec
   110                           	psect	text97,global,reloc=2,class=CODE,delta=1
   111                           	psect	rparam,global,class=COMRAM,space=1,delta=1,noexec
   112                           	psect	idloc,global,abs,ovrld,class=IDLOC,space=5,delta=1,noexec
   113                           	psect	config,global,abs,ovrld,class=CONFIG,space=4,delta=1,noexec
   114  0000                     
   115                           ; Version 2.40
   116                           ; Generated 08/12/2021 GMT
   117                           ; 
   118                           ; Copyright © 2021, Microchip Technology Inc. and its subsidiaries ("Microchip")
   119                           ; All rights reserved.
   120                           ; 
   121                           ; This software is developed by Microchip Technology Inc. and its subsidiaries ("Microch
      +                          ip").
   122                           ; 
   123                           ; Redistribution and use in source and binary forms, with or without modification, are
   124                           ; permitted provided that the following conditions are met:
   125                           ; 
   126                           ;     1. Redistributions of source code must retain the above copyright notice, this lis
      +                          t of
   127                           ;        conditions and the following disclaimer.
   128                           ; 
   129                           ;     2. Redistributions in binary form must reproduce the above copyright notice, this 
      +                          list
   130                           ;        of conditions and the following disclaimer in the documentation and/or other
   131                           ;        materials provided with the distribution. Publication is not required when
   132                           ;        this file is used in an embedded application.
   133                           ; 
   134                           ;     3. Microchip's name may not be used to endorse or promote products derived from th
      +                          is
   135                           ;        software without specific prior written permission.
   136                           ; 
   137                           ; THIS SOFTWARE IS PROVIDED BY MICROCHIP "AS IS" AND ANY EXPRESS OR IMPLIED WARRANTIES,
   138                           ; INCLUDING, BUT NOT LIMITED TO, THE IMPLIED WARRANTIES OF MERCHANTABILITY AND FITNESS F
      +                          OR
   139                           ; PURPOSE ARE DISCLAIMED.  IN NO EVENT SHALL MICROCHIP BE LIABLE FOR ANY DIRECT, INDIREC
      +                          T,
   140                           ; INCIDENTAL, SPECIAL, EXEMPLARY, OR CONSEQUENTIAL DAMAGES (INCLUDING BUT NOT LIMITED TO
   141                           ; PROCUREMENT OF SUBSTITUTE GOODS OR SERVICES; LOSS OF USE, DATA OR PROFITS; OR BUSINESS
   142                           ; INTERRUPTION) HOWSOEVER CAUSED AND ON ANY THEORY OF LIABILITY, WHETHER IN CONTRACT, ST
      +                          RICT
   143                           ; LIABILITY, OR TORT (INCLUDING NEGLIGENCE OR OTHERWISE) ARISING IN ANY WAY OUT OF THE U
      +                          SE OF
   144                           ; THIS SOFTWARE, EVEN IF ADVISED OF THE POSSIBILITY OF SUCH DAMAGE.
   145                           ; 
   146                           ; 
   147                           ; Code-generator required, PIC18F57Q84 Definitions
   148                           ; 
   149                           ; SFR Addresses
   150  0000                     
   151 ;; Function _UART1_DefaultFramingErrorHandler is unused but had its address taken
   152  0000                     
   153 ;; Function _UART1_DefaultOverrunErrorHandler is unused but had its address taken
   154  0000                     
   155 ;; Function _UART1_DefaultErrorHandler is unused but had its address taken
   156  0000                     
   157 ;; Function _ADC_DefaultADI_ISR is unused but had its address taken
   158  0000                     
   159 ;; Function _ADC_DefaultContext1Threshold_ISR is unused but had its address taken
   160  0000                     
   161 ;; Function _ADC_DefaultActiveClockTuning_ISR is unused but had its address taken
   162  0000                     
   163                           	psect	smallconst
   164  003700                     __psmallconst:
   165                           	callstack 0
   166  003700  00                 	db	0
   167  003701                     _i2c1_fsmStateTable:
   168                           	callstack 0
   169  003701  2A                 	db	low _I2C1_DO_IDLE
   170  003702  53                 	db	high _I2C1_DO_IDLE
   171  003703  00                 	db	low (_I2C1_DO_IDLE shr (0+16))
   172  003704  98                 	db	low _I2C1_DO_SEND_ADR_READ
   173  003705  4F                 	db	high _I2C1_DO_SEND_ADR_READ
   174  003706  00                 	db	low (_I2C1_DO_SEND_ADR_READ shr (0+16))
   175  003707  DC                 	db	low _I2C1_DO_SEND_ADR_WRITE
   176  003708  51                 	db	high _I2C1_DO_SEND_ADR_WRITE
   177  003709  00                 	db	low (_I2C1_DO_SEND_ADR_WRITE shr (0+16))
   178  00370A  42                 	db	low _I2C1_DO_TX
   179  00370B  3F                 	db	high _I2C1_DO_TX
   180  00370C  00                 	db	low (_I2C1_DO_TX shr (0+16))
   181  00370D  76                 	db	low _I2C1_DO_RX
   182  00370E  47                 	db	high _I2C1_DO_RX
   183  00370F  00                 	db	low (_I2C1_DO_RX shr (0+16))
   184  003710  A2                 	db	low _I2C1_DO_TX_EMPTY
   185  003711  48                 	db	high _I2C1_DO_TX_EMPTY
   186  003712  00                 	db	low (_I2C1_DO_TX_EMPTY shr (0+16))
   187  003713  32                 	db	low _I2C1_DO_RX_EMPTY
   188  003714  46                 	db	high _I2C1_DO_RX_EMPTY
   189  003715  00                 	db	low (_I2C1_DO_RX_EMPTY shr (0+16))
   190  003716  C8                 	db	low _I2C1_DO_SEND_RESTART_READ
   191  003717  52                 	db	high _I2C1_DO_SEND_RESTART_READ
   192  003718  00                 	db	low (_I2C1_DO_SEND_RESTART_READ shr (0+16))
   193  003719  C8                 	db	low _I2C1_DO_SEND_RESTART_WRITE
   194  00371A  53                 	db	high _I2C1_DO_SEND_RESTART_WRITE
   195  00371B  00                 	db	low (_I2C1_DO_SEND_RESTART_WRITE shr (0+16))
   196  00371C  C4                 	db	low _I2C1_DO_SEND_RESTART
   197  00371D  53                 	db	high _I2C1_DO_SEND_RESTART
   198  00371E  00                 	db	low (_I2C1_DO_SEND_RESTART shr (0+16))
   199  00371F  72                 	db	low _I2C1_DO_SEND_STOP
   200  003720  50                 	db	high _I2C1_DO_SEND_STOP
   201  003721  00                 	db	low (_I2C1_DO_SEND_STOP shr (0+16))
   202  003722  70                 	db	low _I2C1_DO_RX_ACK
   203  003723  53                 	db	high _I2C1_DO_RX_ACK
   204  003724  00                 	db	low (_I2C1_DO_RX_ACK shr (0+16))
   205  003725  78                 	db	low _I2C1_DO_TX_ACK
   206  003726  53                 	db	high _I2C1_DO_TX_ACK
   207  003727  00                 	db	low (_I2C1_DO_TX_ACK shr (0+16))
   208  003728  BA                 	db	low _I2C1_DO_RX_NACK_STOP
   209  003729  52                 	db	high _I2C1_DO_RX_NACK_STOP
   210  00372A  00                 	db	low (_I2C1_DO_RX_NACK_STOP shr (0+16))
   211  00372B  68                 	db	low _I2C1_DO_RX_NACK_RESTART
   212  00372C  53                 	db	high _I2C1_DO_RX_NACK_RESTART
   213  00372D  00                 	db	low (_I2C1_DO_RX_NACK_RESTART shr (0+16))
   214  00372E  9A                 	db	low _I2C1_DO_RESET
   215  00372F  52                 	db	high _I2C1_DO_RESET
   216  003730  00                 	db	low (_I2C1_DO_RESET shr (0+16))
   217  003731  70                 	db	low _I2C1_DO_ADDRESS_NACK
   218  003732  4B                 	db	high _I2C1_DO_ADDRESS_NACK
   219  003733  00                 	db	low (_I2C1_DO_ADDRESS_NACK shr (0+16))
   220  003734  12                 	db	low _I2C1_DO_BUS_COLLISION
   221  003735  4A                 	db	high _I2C1_DO_BUS_COLLISION
   222  003736  00                 	db	low (_I2C1_DO_BUS_COLLISION shr (0+16))
   223  003737  8A                 	db	low _I2C1_DO_BUS_ERROR
   224  003738  52                 	db	high _I2C1_DO_BUS_ERROR
   225  003739  00                 	db	low (_I2C1_DO_BUS_ERROR shr (0+16))
   226  00373A                     __end_of_i2c1_fsmStateTable:
   227                           	callstack 0
   228  00373A                     _LCD_INIT_STRING:
   229                           	callstack 0
   230  00373A  28                 	db	40
   231  00373B  0C                 	db	12
   232  00373C  01                 	db	1
   233  00373D  06                 	db	6
   234  00373E                     __end_of_LCD_INIT_STRING:
   235                           	callstack 0
   236  00373E                     STR_2:
   237                           
   238                           ; BSR set to: 3
   239  00373E  63                 	db	99	;'c'
   240  00373F  6F                 	db	111	;'o'
   241  003740  6E                 	db	110	;'n'
   242  003741  74                 	db	116	;'t'
   243  003742  3D                 	db	61	;'='
   244  003743  25                 	db	37
   245  003744  64                 	db	100	;'d'
   246  003745  2C                 	db	44
   247  003746  20                 	db	32
   248  003747  41                 	db	65	;'A'
   249  003748  44                 	db	68	;'D'
   250  003749  43                 	db	67	;'C'
   251  00374A  3D                 	db	61	;'='
   252  00374B  25                 	db	37
   253  00374C  69                 	db	105	;'i'
   254  00374D  0A                 	db	10
   255  00374E  00                 	db	0
   256  00374F                     STR_3:
   257                           
   258                           ; BSR set to: 3
   259  00374F  0C                 	db	12
   260  003750  63                 	db	99	;'c'
   261  003751  6F                 	db	111	;'o'
   262  003752  6E                 	db	110	;'n'
   263  003753  74                 	db	116	;'t'
   264  003754  3D                 	db	61	;'='
   265  003755  25                 	db	37
   266  003756  64                 	db	100	;'d'
   267  003757  0A                 	db	10
   268  003758  20                 	db	32
   269  003759  41                 	db	65	;'A'
   270  00375A  44                 	db	68	;'D'
   271  00375B  43                 	db	67	;'C'
   272  00375C  3D                 	db	61	;'='
   273  00375D  25                 	db	37
   274  00375E  69                 	db	105	;'i'
   275  00375F  00                 	db	0
   276  003760                     STR_1:
   277                           
   278                           ; BSR set to: 3
   279  003760  0C                 	db	12
   280  003761  4C                 	db	76	;'L'
   281  003762  43                 	db	67	;'C'
   282  003763  44                 	db	68	;'D'
   283  003764  20                 	db	32
   284  003765  69                 	db	105	;'i'
   285  003766  32                 	db	50	;'2'
   286  003767  63                 	db	99	;'c'
   287  003768  0A                 	db	10
   288  003769  49                 	db	73	;'I'
   289  00376A  45                 	db	69	;'E'
   290  00376B  54                 	db	84	;'T'
   291  00376C  20                 	db	32
   292  00376D  33                 	db	51	;'3'
   293  00376E  41                 	db	65	;'A'
   294  00376F  00                 	db	0
   295  003770  00                 	db	0	; dummy byte at the end
   296  0000                     
   297                           	psect	nvBANK5
   298  0005B8                     __pnvBANK5:
   299                           	callstack 0
   300  0005B8                     _ADC_ActiveClockTuning_ISR:
   301                           	callstack 0
   302  0005B8                     	ds	3
   303  0005BB                     _ADC_Context1Thereshld_ISR:
   304                           	callstack 0
   305  0005BB                     	ds	3
   306  0005BE                     _ADC_ConversionComplete_ISR:
   307                           	callstack 0
   308  0005BE                     	ds	3
   309  0005C1                     _UART1_ErrorHandler:
   310                           	callstack 0
   311  0005C1                     	ds	3
   312  0005C4                     _UART1_OverrunErrorHandler:
   313                           	callstack 0
   314  0005C4                     	ds	3
   315  0005C7                     _UART1_FramingErrorHandler:
   316                           	callstack 0
   317  0005C7                     	ds	3
   318  0000                     _PMD8	set	104
   319  0000                     _PMD7	set	103
   320  0000                     _PMD6	set	102
   321  0000                     _PMD5	set	101
   322  0000                     _PMD4	set	100
   323  0000                     _PMD3	set	99
   324  0000                     _PMD2	set	98
   325  0000                     _PMD1	set	97
   326  0000                     _PMD0	set	96
   327  0000                     _OSCTUNE	set	176
   328  0000                     _OSCFRQ	set	177
   329  0000                     _OSCEN	set	179
   330  0000                     _OSCCON3	set	175
   331  0000                     _OSCCON1	set	173
   332  0000                     _U1TXB	set	675
   333  0000                     _U1RXB	set	673
   334  0000                     _U1ERRIRbits	set	690
   335  0000                     _U1CON0bits	set	683
   336  0000                     _U1ERRIE	set	691
   337  0000                     _U1ERRIR	set	690
   338  0000                     _U1UIR	set	689
   339  0000                     _U1FIFO	set	688
   340  0000                     _U1BRGH	set	687
   341  0000                     _U1BRGL	set	686
   342  0000                     _U1CON2	set	685
   343  0000                     _U1CON1	set	684
   344  0000                     _U1CON0	set	683
   345  0000                     _U1P3H	set	682
   346  0000                     _U1P3L	set	681
   347  0000                     _U1P2H	set	680
   348  0000                     _U1P2L	set	679
   349  0000                     _U1P1H	set	678
   350  0000                     _U1P1L	set	677
   351  0000                     _I2C1SCLPPS	set	625
   352  0000                     _U1RXPPS	set	626
   353  0000                     _RF0PPS	set	553
   354  0000                     _RB2PPS	set	523
   355  0000                     _RB1PPS	set	522
   356  0000                     _I2C1SDAPPS	set	624
   357  0000                     _ADACTPPS	set	617
   358  0000                     _I2C1PIEbits	set	667
   359  0000                     _I2C1PIRbits	set	666
   360  0000                     _I2C1ERRbits	set	663
   361  0000                     _I2C1CON1bits	set	661
   362  0000                     _I2C1TXB	set	651
   363  0000                     _I2C1RXB	set	650
   364  0000                     _I2C1STAT1bits	set	665
   365  0000                     _I2C1CON0bits	set	660
   366  0000                     _I2C1BAUD	set	669
   367  0000                     _I2C1CNTH	set	653
   368  0000                     _I2C1CNTL	set	652
   369  0000                     _I2C1ERR	set	663
   370  0000                     _I2C1PIE	set	667
   371  0000                     _I2C1PIR	set	666
   372  0000                     _I2C1CLK	set	670
   373  0000                     _I2C1CON2	set	662
   374  0000                     _I2C1CON1	set	661
   375  0000                     _I2C1CON0	set	660
   376  0000                     _ADCPbits	set	984
   377  0000                     _ADCON1bits	set	1012
   378  0000                     _ADERRL	set	989
   379  0000                     _ADERRH	set	990
   380  0000                     _ADPREVL	set	1000
   381  0000                     _ADPREVH	set	1001
   382  0000                     _ADFLTRL	set	993
   383  0000                     _ADFLTRH	set	994
   384  0000                     _ADSTATbits	set	1015
   385  0000                     _ADCON2bits	set	1013
   386  0000                     _ADCON3bits	set	1014
   387  0000                     _ADCSEL1bits	set	1020
   388  0000                     _ADCON0bits	set	1011
   389  0000                     _ADCSEL1	set	1020
   390  0000                     _ADREF	set	1016
   391  0000                     _ADSTAT	set	1015
   392  0000                     _ADCON3	set	1014
   393  0000                     _ADCON2	set	1013
   394  0000                     _ADCON1	set	1012
   395  0000                     _ADCON0	set	1011
   396  0000                     _ADPREH	set	1010
   397  0000                     _ADPREL	set	1009
   398  0000                     _ADCAP	set	1008
   399  0000                     _ADACQH	set	1007
   400  0000                     _ADACQL	set	1006
   401  0000                     _ADPCH	set	1004
   402  0000                     _ADRESH	set	1003
   403  0000                     _ADRESL	set	1002
   404  0000                     _ADRPT	set	999
   405  0000                     _ADCNT	set	998
   406  0000                     _ADACCU	set	997
   407  0000                     _ADACCH	set	996
   408  0000                     _ADACCL	set	995
   409  0000                     _ADSTPTH	set	992
   410  0000                     _ADSTPTL	set	991
   411  0000                     _ADUTHH	set	988
   412  0000                     _ADUTHL	set	987
   413  0000                     _ADLTHH	set	986
   414  0000                     _ADLTHL	set	985
   415  0000                     _ADCTX	set	1019
   416  0000                     _ADCP	set	984
   417  0000                     _ADCLK	set	1018
   418  0000                     _ADACT	set	1017
   419  0000                     _INLVLF	set	1068
   420  0000                     _INLVLE	set	1060
   421  0000                     _INLVLD	set	1052
   422  0000                     _INLVLC	set	1044
   423  0000                     _INLVLB	set	1036
   424  0000                     _INLVLA	set	1028
   425  0000                     _SLRCONF	set	1067
   426  0000                     _SLRCONE	set	1059
   427  0000                     _SLRCOND	set	1051
   428  0000                     _SLRCONC	set	1043
   429  0000                     _SLRCONB	set	1035
   430  0000                     _SLRCONA	set	1027
   431  0000                     _ODCOND	set	1050
   432  0000                     _ODCONC	set	1042
   433  0000                     _ODCONB	set	1034
   434  0000                     _ODCONA	set	1026
   435  0000                     _ODCONF	set	1066
   436  0000                     _ODCONE	set	1058
   437  0000                     _WPUC	set	1041
   438  0000                     _WPUA	set	1025
   439  0000                     _WPUB	set	1033
   440  0000                     _WPUE	set	1057
   441  0000                     _WPUF	set	1065
   442  0000                     _WPUD	set	1049
   443  0000                     _ANSELA	set	1024
   444  0000                     _ANSELF	set	1064
   445  0000                     _ANSELE	set	1056
   446  0000                     _ANSELB	set	1032
   447  0000                     _ANSELC	set	1040
   448  0000                     _ANSELD	set	1048
   449  0000                     _PIR2bits	set	1200
   450  0000                     _PIR1bits	set	1199
   451  0000                     _PIR4bits	set	1202
   452  0000                     _TRISD	set	1225
   453  0000                     _TRISC	set	1224
   454  0000                     _TRISB	set	1223
   455  0000                     _TRISA	set	1222
   456  0000                     _TRISF	set	1227
   457  0000                     _TRISE	set	1226
   458  0000                     _LATC	set	1216
   459  0000                     _LATB	set	1215
   460  0000                     _LATF	set	1219
   461  0000                     _LATA	set	1214
   462  0000                     _LATD	set	1217
   463  0000                     _LATE	set	1218
   464  0000                     _PIR7bits	set	1205
   465  0000                     _PIE7bits	set	1189
   466                           
   467                           ; #config settings
   468                           
   469                           	psect	cinit
   470  0050E6                     __pcinit:
   471                           	callstack 0
   472  0050E6                     start_initialization:
   473                           	callstack 0
   474  0050E6                     __initialization:
   475                           	callstack 0
   476                           
   477                           ; Clear objects allocated to BANK6 (40 bytes)
   478  0050E6  EE01  F200         	lfsr	0,__pbssBANK6
   479  0050EA  0E28               	movlw	40
   480  0050EC                     clear_0:
   481  0050EC  6AEE               	clrf	postinc0,c
   482  0050EE  06E8               	decf	wreg,f,c
   483  0050F0  E1FD               	bnz	clear_0
   484                           
   485                           ; Clear objects allocated to BANK5 (88 bytes)
   486  0050F2  EE01  F160         	lfsr	0,__pbssBANK5
   487  0050F6  0E58               	movlw	88
   488  0050F8                     clear_1:
   489  0050F8  6AEE               	clrf	postinc0,c
   490  0050FA  06E8               	decf	wreg,f,c
   491  0050FC  E1FD               	bnz	clear_1
   492  0050FE                     end_of_initialization:
   493                           	callstack 0
   494  0050FE                     __end_of__initialization:
   495                           	callstack 0
   496  0050FE  0100               	movlb	0
   497  005100  EF6B  F023         	goto	_main	;jump to C main() function
   498                           
   499                           	psect	bssBANK5
   500  000560                     __pbssBANK5:
   501                           	callstack 0
   502  000560                     _I2C1_Status:
   503                           	callstack 0
   504  000560                     	ds	42
   505  00058A                     _nout:
   506                           	callstack 0
   507  00058A                     	ds	2
   508  00058C                     _width:
   509                           	callstack 0
   510  00058C                     	ds	2
   511  00058E                     _prec:
   512                           	callstack 0
   513  00058E                     	ds	2
   514  000590                     _flags:
   515                           	callstack 0
   516  000590                     	ds	2
   517  000592                     _lecturaADC:
   518                           	callstack 0
   519  000592                     	ds	2
   520  000594                     _contador:
   521                           	callstack 0
   522  000594                     	ds	1
   523  000595                     _g_LcdY:
   524                           	callstack 0
   525  000595                     	ds	1
   526  000596                     _g_LcdX:
   527                           	callstack 0
   528  000596                     	ds	1
   529  000597                     _uart1RxLastError:
   530                           	callstack 0
   531  000597                     	ds	1
   532  000598                     _dbuf:
   533                           	callstack 0
   534  000598                     	ds	32
   535                           
   536                           	psect	bssBANK6
   537  000600                     __pbssBANK6:
   538                           	callstack 0
   539  000600                     _buffer:
   540                           	callstack 0
   541  000600                     	ds	40
   542                           
   543                           	psect	cstackBANK5
   544  0005CA                     __pcstackBANK5:
   545                           	callstack 0
   546  0005CA                     ?_sprintf:
   547                           	callstack 0
   548  0005CA                     sprintf@s:
   549                           	callstack 0
   550  0005CA                     printf@ap:
   551                           	callstack 0
   552                           
   553                           ; 2 bytes @ 0x0
   554  0005CA                     	ds	2
   555  0005CC                     sprintf@fmt:
   556                           	callstack 0
   557                           
   558                           ; 2 bytes @ 0x2
   559  0005CC                     	ds	6
   560  0005D2                     sprintf@ap:
   561                           	callstack 0
   562                           
   563                           ; 2 bytes @ 0x8
   564  0005D2                     	ds	2
   565  0005D4                     sprintf@f:
   566                           	callstack 0
   567                           
   568                           ; 6 bytes @ 0xA
   569  0005D4                     	ds	6
   570  0005DA                     ??_main:
   571                           
   572                           ; 1 bytes @ 0x10
   573  0005DA                     	ds	2
   574                           
   575                           	psect	cstackCOMRAM
   576  000501                     __pcstackCOMRAM:
   577                           	callstack 0
   578  000501                     ?_strlen:
   579                           	callstack 0
   580  000501                     ?_ADC_GetSingleConversion:
   581                           	callstack 0
   582  000501                     ?___aodiv:
   583                           	callstack 0
   584  000501                     ?___aomod:
   585                           	callstack 0
   586  000501                     I2C1_Open@address:
   587                           	callstack 0
   588  000501                     I2C1_Close@returnValue:
   589                           	callstack 0
   590  000501                     I2C1_MasterSendTxData@data:
   591                           	callstack 0
   592  000501                     I2C1_MasterSetCounter@counter:
   593                           	callstack 0
   594  000501                     UART1_Write@txData:
   595                           	callstack 0
   596  000501                     I2C1_SetBuffer@buffer:
   597                           	callstack 0
   598  000501                     strlen@s:
   599                           	callstack 0
   600  000501                     I2C1_SetCallback@cb:
   601                           	callstack 0
   602  000501                     UART1_SetFramingErrorHandler@interruptHandler:
   603                           	callstack 0
   604  000501                     UART1_SetOverrunErrorHandler@interruptHandler:
   605                           	callstack 0
   606  000501                     UART1_SetErrorHandler@interruptHandler:
   607                           	callstack 0
   608  000501                     ADC_SetADIInterruptHandler@InterruptHandler:
   609                           	callstack 0
   610  000501                     ADC_SetContext1ThresholdInterruptHandler@InterruptHandler:
   611                           	callstack 0
   612  000501                     ADC_SetActiveClockTuningInterruptHandler@InterruptHandler:
   613                           	callstack 0
   614  000501                     ___aodiv@dividend:
   615                           	callstack 0
   616  000501                     ___aomod@dividend:
   617                           	callstack 0
   618                           
   619                           ; 8 bytes @ 0x0
   620  000501                     	ds	1
   621  000502                     I2C1_Open@returnValue:
   622                           	callstack 0
   623  000502                     putch@txData:
   624                           	callstack 0
   625                           
   626                           ; 1 bytes @ 0x1
   627  000502                     	ds	1
   628  000503                     ??_ADC_GetSingleConversion:
   629  000503                     I2C1_SetBuffer@bufferSize:
   630                           	callstack 0
   631  000503                     fputc@c:
   632                           	callstack 0
   633  000503                     strlen@a:
   634                           	callstack 0
   635                           
   636                           ; 2 bytes @ 0x2
   637  000503                     	ds	1
   638  000504                     I2C1_SetCallback@ptr:
   639                           	callstack 0
   640                           
   641                           ; 2 bytes @ 0x3
   642  000504                     	ds	1
   643  000505                     ADC_GetSingleConversion@channel:
   644                           	callstack 0
   645  000505                     fputc@fp:
   646                           	callstack 0
   647                           
   648                           ; 2 bytes @ 0x4
   649  000505                     	ds	1
   650  000506                     I2C1_SetCallback@idx:
   651                           	callstack 0
   652                           
   653                           ; 1 bytes @ 0x5
   654  000506                     	ds	1
   655  000507                     ??_fputc:
   656  000507                     I2C1_SetDataCompleteCallback@cb:
   657                           	callstack 0
   658  000507                     I2C1_SetAddressNackCallback@cb:
   659                           	callstack 0
   660                           
   661                           ; 3 bytes @ 0x6
   662  000507                     	ds	2
   663  000509                     ___aodiv@divisor:
   664                           	callstack 0
   665  000509                     ___aomod@divisor:
   666                           	callstack 0
   667                           
   668                           ; 8 bytes @ 0x8
   669  000509                     	ds	1
   670  00050A                     I2C1_SetDataCompleteCallback@ptr:
   671                           	callstack 0
   672  00050A                     I2C1_SetAddressNackCallback@ptr:
   673                           	callstack 0
   674                           
   675                           ; 2 bytes @ 0x9
   676  00050A                     	ds	2
   677  00050C                     rd1RegCompleteHandler@ptr:
   678                           	callstack 0
   679  00050C                     rd2RegCompleteHandler@ptr:
   680                           	callstack 0
   681  00050C                     wr1RegCompleteHandler@ptr:
   682                           	callstack 0
   683  00050C                     wr2RegCompleteHandler@ptr:
   684                           	callstack 0
   685  00050C                     rdBlkRegCompleteHandler@ptr:
   686                           	callstack 0
   687  00050C                     I2C1_CallbackReturnReset@funPtr:
   688                           	callstack 0
   689  00050C                     fputs@s:
   690                           	callstack 0
   691                           
   692                           ; 2 bytes @ 0xB
   693  00050C                     	ds	2
   694  00050E                     ??_I2C1_DO_TX:
   695  00050E                     ??_I2C1_DO_TX_EMPTY:
   696  00050E                     ??_I2C1_DO_RX_EMPTY:
   697  00050E                     ??_I2C1_DO_ADDRESS_NACK:
   698  00050E                     ??_I2C1_DO_BUS_COLLISION:
   699  00050E                     fputs@fp:
   700                           	callstack 0
   701                           
   702                           ; 2 bytes @ 0xD
   703  00050E                     	ds	2
   704  000510                     ??_I2C1_DO_RX:
   705  000510                     fputs@c:
   706                           	callstack 0
   707  000510                     _I2C1_DO_TX$845:
   708                           	callstack 0
   709                           
   710                           ; 2 bytes @ 0xF
   711  000510                     	ds	1
   712  000511                     ___aodiv@counter:
   713                           	callstack 0
   714  000511                     ___aomod@counter:
   715                           	callstack 0
   716  000511                     fputs@i:
   717                           	callstack 0
   718                           
   719                           ; 2 bytes @ 0x10
   720  000511                     	ds	1
   721  000512                     I2C1_DO_TX@dataTx:
   722                           	callstack 0
   723  000512                     I2C1_DO_RX@retFsmState:
   724                           	callstack 0
   725  000512                     ___aodiv@sign:
   726                           	callstack 0
   727  000512                     ___aomod@sign:
   728                           	callstack 0
   729                           
   730                           ; 1 bytes @ 0x11
   731  000512                     	ds	1
   732  000513                     ?_abs:
   733                           	callstack 0
   734  000513                     ?_pad:
   735                           	callstack 0
   736  000513                     I2C1_DO_TX@retFsmState:
   737                           	callstack 0
   738  000513                     pad@fp:
   739                           	callstack 0
   740  000513                     abs@a:
   741                           	callstack 0
   742  000513                     ___aodiv@quotient:
   743                           	callstack 0
   744                           
   745                           ; 8 bytes @ 0x12
   746  000513                     	ds	1
   747  000514                     I2C1_MasterOperation@read:
   748                           	callstack 0
   749                           
   750                           ; 1 bytes @ 0x13
   751  000514                     	ds	1
   752  000515                     ??_abs:
   753  000515                     I2C1_MasterOperation@returnValue:
   754                           	callstack 0
   755  000515                     pad@buf:
   756                           	callstack 0
   757                           
   758                           ; 2 bytes @ 0x14
   759  000515                     	ds	1
   760  000516                     I2C1_Write1ByteRegister@reg:
   761                           	callstack 0
   762                           
   763                           ; 1 bytes @ 0x15
   764  000516                     	ds	1
   765  000517                     I2C1_Write1ByteRegister@data:
   766                           	callstack 0
   767  000517                     pad@p:
   768                           	callstack 0
   769                           
   770                           ; 2 bytes @ 0x16
   771  000517                     	ds	1
   772  000518                     I2C1_Write1ByteRegister@address:
   773                           	callstack 0
   774                           
   775                           ; 1 bytes @ 0x17
   776  000518                     	ds	1
   777  000519                     ??_pad:
   778  000519                     Write_PCF@dato:
   779                           	callstack 0
   780                           
   781                           ; 1 bytes @ 0x18
   782  000519                     	ds	1
   783  00051A                     Send_D7_D4@nibble:
   784                           	callstack 0
   785  00051A                     pad@i:
   786                           	callstack 0
   787                           
   788                           ; 2 bytes @ 0x19
   789  00051A                     	ds	1
   790  00051B                     Send_D7_D4@address:
   791                           	callstack 0
   792                           
   793                           ; 1 bytes @ 0x1A
   794  00051B                     	ds	1
   795  00051C                     Send_D7_D4@datos:
   796                           	callstack 0
   797  00051C                     pad@w:
   798                           	callstack 0
   799                           
   800                           ; 2 bytes @ 0x1B
   801  00051C                     	ds	1
   802  00051D                     lcd_send_byte@n:
   803                           	callstack 0
   804                           
   805                           ; 1 bytes @ 0x1C
   806  00051D                     	ds	1
   807  00051E                     ?_dtoa:
   808                           	callstack 0
   809  00051E                     lcd_send_byte@address:
   810                           	callstack 0
   811  00051E                     dtoa@fp:
   812                           	callstack 0
   813                           
   814                           ; 2 bytes @ 0x1D
   815  00051E                     	ds	1
   816  00051F                     ??_lcd_init:
   817  00051F                     lcd_gotoxy@y:
   818                           	callstack 0
   819                           
   820                           ; 1 bytes @ 0x1E
   821  00051F                     	ds	1
   822  000520                     ??_lcd_gotoxy:
   823  000520                     lcd_init@i:
   824                           	callstack 0
   825  000520                     dtoa@d:
   826                           	callstack 0
   827                           
   828                           ; 8 bytes @ 0x1F
   829  000520                     	ds	2
   830  000522                     lcd_gotoxy@x:
   831                           	callstack 0
   832                           
   833                           ; 1 bytes @ 0x21
   834  000522                     	ds	1
   835  000523                     lcd_gotoxy@address:
   836                           	callstack 0
   837                           
   838                           ; 1 bytes @ 0x22
   839  000523                     	ds	1
   840  000524                     lcd_puts@dato:
   841                           	callstack 0
   842                           
   843                           ; 2 bytes @ 0x23
   844  000524                     	ds	2
   845  000526                     ??_lcd_puts:
   846                           
   847                           ; 1 bytes @ 0x25
   848  000526                     	ds	2
   849  000528                     ??_dtoa:
   850                           
   851                           ; 1 bytes @ 0x27
   852  000528                     	ds	8
   853  000530                     _dtoa$2441:
   854                           	callstack 0
   855                           
   856                           ; 2 bytes @ 0x2F
   857  000530                     	ds	2
   858  000532                     dtoa@p:
   859                           	callstack 0
   860                           
   861                           ; 2 bytes @ 0x31
   862  000532                     	ds	2
   863  000534                     dtoa@w:
   864                           	callstack 0
   865                           
   866                           ; 2 bytes @ 0x33
   867  000534                     	ds	2
   868  000536                     dtoa@s:
   869                           	callstack 0
   870                           
   871                           ; 2 bytes @ 0x35
   872  000536                     	ds	2
   873  000538                     dtoa@n:
   874                           	callstack 0
   875                           
   876                           ; 8 bytes @ 0x37
   877  000538                     	ds	8
   878  000540                     dtoa@i:
   879                           	callstack 0
   880                           
   881                           ; 2 bytes @ 0x3F
   882  000540                     	ds	2
   883  000542                     ?_vfpfcnvrt:
   884                           	callstack 0
   885  000542                     vfpfcnvrt@fp:
   886                           	callstack 0
   887                           
   888                           ; 2 bytes @ 0x41
   889  000542                     	ds	2
   890  000544                     vfpfcnvrt@fmt:
   891                           	callstack 0
   892                           
   893                           ; 2 bytes @ 0x43
   894  000544                     	ds	2
   895  000546                     vfpfcnvrt@ap:
   896                           	callstack 0
   897                           
   898                           ; 2 bytes @ 0x45
   899  000546                     	ds	2
   900  000548                     ??_vfpfcnvrt:
   901                           
   902                           ; 1 bytes @ 0x47
   903  000548                     	ds	2
   904  00054A                     vfpfcnvrt@ll:
   905                           	callstack 0
   906                           
   907                           ; 8 bytes @ 0x49
   908  00054A                     	ds	8
   909  000552                     ?_vfprintf:
   910                           	callstack 0
   911  000552                     vfprintf@fp:
   912                           	callstack 0
   913                           
   914                           ; 2 bytes @ 0x51
   915  000552                     	ds	2
   916  000554                     vfprintf@fmt:
   917                           	callstack 0
   918                           
   919                           ; 2 bytes @ 0x53
   920  000554                     	ds	2
   921  000556                     vfprintf@ap:
   922                           	callstack 0
   923                           
   924                           ; 2 bytes @ 0x55
   925  000556                     	ds	2
   926  000558                     vfprintf@cfmt:
   927                           	callstack 0
   928                           
   929                           ; 2 bytes @ 0x57
   930  000558                     	ds	2
   931  00055A                     ?_printf:
   932                           	callstack 0
   933  00055A                     printf@fmt:
   934                           	callstack 0
   935                           
   936                           ; 2 bytes @ 0x59
   937  00055A                     	ds	6
   938  000560                     
   939                           ; 1 bytes @ 0x5F
   940 ;;
   941 ;;Main: autosize = 0, tempsize = 2, incstack = 0, save=0
   942 ;;
   943 ;; *************** function _main *****************
   944 ;; Defined at:
   945 ;;		line 12 in file "main.c"
   946 ;; Parameters:    Size  Location     Type
   947 ;;		None
   948 ;; Auto vars:     Size  Location     Type
   949 ;;		None
   950 ;; Return value:  Size  Location     Type
   951 ;;                  1    wreg      void 
   952 ;; Registers used:
   953 ;;		wreg, fsr1l, fsr1h, fsr2l, fsr2h, status,2, status,0, pclath, tosl, tblptrl, tblptrh, tblptru, prodl, prodh, cstack
   954 ;; Tracked objects:
   955 ;;		On entry : 0/0
   956 ;;		On exit  : 0/0
   957 ;;		Unchanged: 0/0
   958 ;; Data sizes:     COMRAM   BANK5   BANK6   BANK7   BANK8   BANK9  BANK10  BANK11  BANK12  BANK13  BANK14  BANK15  BANK1
      +6  BANK17  BANK18  BANK19  BANK20  BANK21  BANK22  BANK23  BANK24  BANK25  BANK26  BANK27  BANK28  BANK29  BANK30  BANK3
      +1  BANK32  BANK33  BANK34  BANK35  BANK36  BANK37  BANK38  BANK39  BANK40  BANK41  BANK42  BANK43  BANK44  BANK45  BANK4
      +6  BANK47  BANK48  BANK49  BANK50  BANK51  BANK52  BANK53  BANK54
   959 ;;      Params:         0       0       0       0       0       0       0       0       0       0       0       0       
      +0       0       0       0       0       0       0       0       0       0       0       0       0       0       0       
      +0       0       0       0       0       0       0       0       0       0       0       0       0       0       0       
      +0       0       0       0       0       0       0       0       0
   960 ;;      Locals:         0       0       0       0       0       0       0       0       0       0       0       0       
      +0       0       0       0       0       0       0       0       0       0       0       0       0       0       0       
      +0       0       0       0       0       0       0       0       0       0       0       0       0       0       0       
      +0       0       0       0       0       0       0       0       0
   961 ;;      Temps:          0       2       0       0       0       0       0       0       0       0       0       0       
      +0       0       0       0       0       0       0       0       0       0       0       0       0       0       0       
      +0       0       0       0       0       0       0       0       0       0       0       0       0       0       0       
      +0       0       0       0       0       0       0       0       0
   962 ;;      Totals:         0       2       0       0       0       0       0       0       0       0       0       0       
      +0       0       0       0       0       0       0       0       0       0       0       0       0       0       0       
      +0       0       0       0       0       0       0       0       0       0       0       0       0       0       0       
      +0       0       0       0       0       0       0       0       0
   963 ;;Total ram usage:        2 bytes
   964 ;; Hardware stack levels required when called: 17
   965 ;; This function calls:
   966 ;;		_ADC_GetSingleConversion
   967 ;;		_SYSTEM_Initialize
   968 ;;		_lcd_init
   969 ;;		_lcd_puts
   970 ;;		_printf
   971 ;;		_sprintf
   972 ;; This function is called by:
   973 ;;		Startup code after reset
   974 ;; This function uses a non-reentrant model
   975 ;;
   976                           
   977                           	psect	text0
   978  0046D6                     __ptext0:
   979                           	callstack 0
   980  0046D6                     _main:
   981                           	callstack 110
   982  0046D6                     
   983                           ;main.c: 15:     SYSTEM_Initialize();
   984  0046D6  ECC9  F028         	call	_SYSTEM_Initialize	;wreg free
   985  0046DA                     
   986                           ;main.c: 16:     lcd_init();
   987  0046DA  EC73  F022         	call	_lcd_init	;wreg free
   988  0046DE                     
   989                           ;main.c: 17:     sprintf(buffer,"\fLCD i2c\nIET 3A");
   990  0046DE  0E00               	movlw	low _buffer
   991  0046E0  0105               	movlb	5	; () banked
   992  0046E2  6FCA               	movwf	sprintf@s& (0+255),b
   993  0046E4  0E06               	movlw	high _buffer
   994  0046E6  6FCB               	movwf	(sprintf@s+1)& (0+255),b
   995  0046E8  0E60               	movlw	low STR_1
   996  0046EA  6FCC               	movwf	sprintf@fmt& (0+255),b
   997  0046EC  0E37               	movlw	high STR_1
   998  0046EE  6FCD               	movwf	(sprintf@fmt+1)& (0+255),b
   999  0046F0  EC51  F026         	call	_sprintf	;wreg free
  1000  0046F4                     l4772:
  1001                           
  1002                           ;main.c: 18:     lcd_puts(buffer);
  1003  0046F4  0E00               	movlw	low _buffer
  1004  0046F6  6E24               	movwf	lcd_puts@dato^(0+1280),c
  1005  0046F8  0E06               	movlw	high _buffer
  1006  0046FA  6E25               	movwf	(lcd_puts@dato+1)^(0+1280),c
  1007  0046FC  EC03  F021         	call	_lcd_puts	;wreg free
  1008  004700                     
  1009                           ;main.c: 31:     {;main.c: 32:         lecturaADC = ADC_GetSingleConversion(LM35);
  1010  004700  0E05               	movlw	5
  1011  004702  EC53  F027         	call	_ADC_GetSingleConversion
  1012  004706  C501  F592         	movff	?_ADC_GetSingleConversion,_lecturaADC
  1013  00470A  C502  F593         	movff	?_ADC_GetSingleConversion+1,_lecturaADC+1
  1014                           
  1015                           ;main.c: 33:         printf("cont=%d, ADC=%i\n",contador++,lecturaADC);
  1016  00470E  0E3E               	movlw	low STR_2
  1017  004710  6E5A               	movwf	printf@fmt^(0+1280),c
  1018  004712  0E37               	movlw	high STR_2
  1019  004714  6E5B               	movwf	(printf@fmt+1)^(0+1280),c
  1020  004716  C594  F55C         	movff	_contador,?_printf+2
  1021  00471A  6A5D               	clrf	(?_printf+3)^(0+1280),c
  1022  00471C  C592  F55E         	movff	_lecturaADC,?_printf+4
  1023  004720  C593  F55F         	movff	_lecturaADC+1,?_printf+5
  1024  004724  EC25  F028         	call	_printf	;wreg free
  1025  004728  0105               	movlb	5	; () banked
  1026  00472A  2B94               	incf	_contador& (0+255),f,b
  1027  00472C                     
  1028                           ; BSR set to: 5
  1029                           ;main.c: 34:         _delay((unsigned long)((500)*(10000000/4000.0)));
  1030  00472C  0E07               	movlw	7
  1031  00472E  0105               	movlb	5	; () banked
  1032  004730  6FDB               	movwf	(??_main+1)& (0+255),b
  1033  004732  0E58               	movlw	88
  1034  004734  6FDA               	movwf	??_main& (0+255),b
  1035  004736  0E59               	movlw	89
  1036  004738                     u2487:
  1037  004738  2EE8               	decfsz	wreg,f,c
  1038  00473A  D7FE               	bra	u2487
  1039  00473C  2FDA               	decfsz	??_main& (0+255),f,b
  1040  00473E  D7FC               	bra	u2487
  1041  004740  2FDB               	decfsz	(??_main+1)& (0+255),f,b
  1042  004742  D7FA               	bra	u2487
  1043  004744  D000               	nop2	
  1044  004746                     
  1045                           ;main.c: 35:         sprintf(buffer,"\fcont=%d\n ADC=%i",contador++,lecturaADC);
  1046  004746  0E00               	movlw	low _buffer
  1047  004748  0105               	movlb	5	; () banked
  1048  00474A  6FCA               	movwf	sprintf@s& (0+255),b
  1049  00474C  0E06               	movlw	high _buffer
  1050  00474E  6FCB               	movwf	(sprintf@s+1)& (0+255),b
  1051  004750  0E4F               	movlw	low STR_3
  1052  004752  6FCC               	movwf	sprintf@fmt& (0+255),b
  1053  004754  0E37               	movlw	high STR_3
  1054  004756  6FCD               	movwf	(sprintf@fmt+1)& (0+255),b
  1055  004758  C594  F5CE         	movff	_contador,?_sprintf+4
  1056  00475C  6BCF               	clrf	(?_sprintf+5)& (0+255),b
  1057  00475E  C592  F5D0         	movff	_lecturaADC,?_sprintf+6
  1058  004762  C593  F5D1         	movff	_lecturaADC+1,?_sprintf+7
  1059  004766  EC51  F026         	call	_sprintf	;wreg free
  1060  00476A  0105               	movlb	5	; () banked
  1061  00476C  2B94               	incf	_contador& (0+255),f,b
  1062  00476E  EF7A  F023         	goto	l4772
  1063  004772  EFFE  F0FF         	goto	start
  1064  004776                     __end_of_main:
  1065                           	callstack 0
  1066                           
  1067 ;; *************** function _sprintf *****************
  1068 ;; Defined at:
  1069 ;;		line 9 in file "C:\Program Files\Microchip\xc8\v2.32\pic\sources\c99\common\nf_sprintf.c"
  1070 ;; Parameters:    Size  Location     Type
  1071 ;;  s               2    0[BANK5 ] PTR unsigned char 
  1072 ;;		 -> buffer(40), 
  1073 ;;  fmt             2    2[BANK5 ] PTR const unsigned char 
  1074 ;;		 -> STR_3(17), STR_1(16), 
  1075 ;; Auto vars:     Size  Location     Type
  1076 ;;  f               6   10[BANK5 ] struct _IO_FILE
  1077 ;;  ap              2    8[BANK5 ] PTR void [1]
  1078 ;;		 -> ?_printf(2), ?_sprintf(2), 
  1079 ;;  ret             2    0        int 
  1080 ;; Return value:  Size  Location     Type
  1081 ;;                  2    0[BANK5 ] int 
  1082 ;; Registers used:
  1083 ;;		wreg, fsr1l, fsr1h, fsr2l, fsr2h, status,2, status,0, tblptrl, tblptrh, tblptru, cstack
  1084 ;; Tracked objects:
  1085 ;;		On entry : 0/0
  1086 ;;		On exit  : 0/0
  1087 ;;		Unchanged: 0/0
  1088 ;; Data sizes:     COMRAM   BANK5   BANK6   BANK7   BANK8   BANK9  BANK10  BANK11  BANK12  BANK13  BANK14  BANK15  BANK1
      +6  BANK17  BANK18  BANK19  BANK20  BANK21  BANK22  BANK23  BANK24  BANK25  BANK26  BANK27  BANK28  BANK29  BANK30  BANK3
      +1  BANK32  BANK33  BANK34  BANK35  BANK36  BANK37  BANK38  BANK39  BANK40  BANK41  BANK42  BANK43  BANK44  BANK45  BANK4
      +6  BANK47  BANK48  BANK49  BANK50  BANK51  BANK52  BANK53  BANK54
  1089 ;;      Params:         0       8       0       0       0       0       0       0       0       0       0       0       
      +0       0       0       0       0       0       0       0       0       0       0       0       0       0       0       
      +0       0       0       0       0       0       0       0       0       0       0       0       0       0       0       
      +0       0       0       0       0       0       0       0       0
  1090 ;;      Locals:         0       8       0       0       0       0       0       0       0       0       0       0       
      +0       0       0       0       0       0       0       0       0       0       0       0       0       0       0       
      +0       0       0       0       0       0       0       0       0       0       0       0       0       0       0       
      +0       0       0       0       0       0       0       0       0
  1091 ;;      Temps:          0       0       0       0       0       0       0       0       0       0       0       0       
      +0       0       0       0       0       0       0       0       0       0       0       0       0       0       0       
      +0       0       0       0       0       0       0       0       0       0       0       0       0       0       0       
      +0       0       0       0       0       0       0       0       0
  1092 ;;      Totals:         0      16       0       0       0       0       0       0       0       0       0       0       
      +0       0       0       0       0       0       0       0       0       0       0       0       0       0       0       
      +0       0       0       0       0       0       0       0       0       0       0       0       0       0       0       
      +0       0       0       0       0       0       0       0       0
  1093 ;;Total ram usage:       16 bytes
  1094 ;; Hardware stack levels used: 1
  1095 ;; Hardware stack levels required when called: 8
  1096 ;; This function calls:
  1097 ;;		_vfprintf
  1098 ;; This function is called by:
  1099 ;;		_main
  1100 ;; This function uses a non-reentrant model
  1101 ;;
  1102                           
  1103                           	psect	text1
  1104  004CA2                     __ptext1:
  1105                           	callstack 0
  1106  004CA2                     _sprintf:
  1107                           	callstack 118
  1108  004CA2  0ECE               	movlw	low (?_sprintf+4)
  1109  004CA4  0105               	movlb	5	; () banked
  1110  004CA6  6FD2               	movwf	sprintf@ap& (0+255),b
  1111  004CA8  0E05               	movlw	high (?_sprintf+4)
  1112  004CAA  6FD3               	movwf	(sprintf@ap+1)& (0+255),b
  1113  004CAC  C5CA  F5D4         	movff	sprintf@s,sprintf@f
  1114  004CB0  C5CB  F5D5         	movff	sprintf@s+1,sprintf@f+1
  1115  004CB4                     
  1116                           ; BSR set to: 5
  1117  004CB4  0E00               	movlw	0
  1118  004CB6  6FD7               	movwf	(sprintf@f+3)& (0+255),b
  1119  004CB8  0E00               	movlw	0
  1120  004CBA  6FD6               	movwf	(sprintf@f+2)& (0+255),b
  1121  004CBC                     
  1122                           ; BSR set to: 5
  1123  004CBC  0E00               	movlw	0
  1124  004CBE  6FD9               	movwf	(sprintf@f+5)& (0+255),b
  1125  004CC0  0E00               	movlw	0
  1126  004CC2  6FD8               	movwf	(sprintf@f+4)& (0+255),b
  1127  004CC4                     
  1128                           ; BSR set to: 5
  1129  004CC4  0ED4               	movlw	low sprintf@f
  1130  004CC6  6E52               	movwf	vfprintf@fp^(0+1280),c
  1131  004CC8  0E05               	movlw	high sprintf@f
  1132  004CCA  6E53               	movwf	(vfprintf@fp+1)^(0+1280),c
  1133  004CCC  C5CC  F554         	movff	sprintf@fmt,vfprintf@fmt
  1134  004CD0  C5CD  F555         	movff	sprintf@fmt+1,vfprintf@fmt+1
  1135  004CD4  0ED2               	movlw	low sprintf@ap
  1136  004CD6  6E56               	movwf	vfprintf@ap^(0+1280),c
  1137  004CD8  0E05               	movlw	high sprintf@ap
  1138  004CDA  6E57               	movwf	(vfprintf@ap+1)^(0+1280),c
  1139  004CDC  ECEF  F025         	call	_vfprintf	;wreg free
  1140  004CE0  0105               	movlb	5	; () banked
  1141  004CE2  51D6               	movf	(sprintf@f+2)& (0+255),w,b
  1142  004CE4  25CA               	addwf	sprintf@s& (0+255),w,b
  1143  004CE6  6ED9               	movwf	fsr2l,c
  1144  004CE8  51D7               	movf	(sprintf@f+3)& (0+255),w,b
  1145  004CEA  21CB               	addwfc	(sprintf@s+1)& (0+255),w,b
  1146  004CEC  6EDA               	movwf	fsr2h,c
  1147  004CEE  0E00               	movlw	0
  1148  004CF0  6EDF               	movwf	indf2,c
  1149  004CF2                     
  1150                           ; BSR set to: 5
  1151  004CF2  0012               	return		;funcret
  1152  004CF4                     __end_of_sprintf:
  1153                           	callstack 0
  1154                           
  1155 ;; *************** function _printf *****************
  1156 ;; Defined at:
  1157 ;;		line 5 in file "C:\Program Files\Microchip\xc8\v2.32\pic\sources\c99\common\printf.c"
  1158 ;; Parameters:    Size  Location     Type
  1159 ;;  fmt             2   89[COMRAM] PTR const unsigned char 
  1160 ;;		 -> STR_2(17), 
  1161 ;; Auto vars:     Size  Location     Type
  1162 ;;  ap              2    0[BANK5 ] PTR void [1]
  1163 ;;		 -> ?_printf(2), ?_sprintf(2), 
  1164 ;;  ret             2    0        int 
  1165 ;; Return value:  Size  Location     Type
  1166 ;;                  2   89[COMRAM] int 
  1167 ;; Registers used:
  1168 ;;		wreg, fsr1l, fsr1h, fsr2l, fsr2h, status,2, status,0, tblptrl, tblptrh, tblptru, cstack
  1169 ;; Tracked objects:
  1170 ;;		On entry : 0/0
  1171 ;;		On exit  : 0/0
  1172 ;;		Unchanged: 0/0
  1173 ;; Data sizes:     COMRAM   BANK5   BANK6   BANK7   BANK8   BANK9  BANK10  BANK11  BANK12  BANK13  BANK14  BANK15  BANK1
      +6  BANK17  BANK18  BANK19  BANK20  BANK21  BANK22  BANK23  BANK24  BANK25  BANK26  BANK27  BANK28  BANK29  BANK30  BANK3
      +1  BANK32  BANK33  BANK34  BANK35  BANK36  BANK37  BANK38  BANK39  BANK40  BANK41  BANK42  BANK43  BANK44  BANK45  BANK4
      +6  BANK47  BANK48  BANK49  BANK50  BANK51  BANK52  BANK53  BANK54
  1174 ;;      Params:         6       0       0       0       0       0       0       0       0       0       0       0       
      +0       0       0       0       0       0       0       0       0       0       0       0       0       0       0       
      +0       0       0       0       0       0       0       0       0       0       0       0       0       0       0       
      +0       0       0       0       0       0       0       0       0
  1175 ;;      Locals:         0       2       0       0       0       0       0       0       0       0       0       0       
      +0       0       0       0       0       0       0       0       0       0       0       0       0       0       0       
      +0       0       0       0       0       0       0       0       0       0       0       0       0       0       0       
      +0       0       0       0       0       0       0       0       0
  1176 ;;      Temps:          0       0       0       0       0       0       0       0       0       0       0       0       
      +0       0       0       0       0       0       0       0       0       0       0       0       0       0       0       
      +0       0       0       0       0       0       0       0       0       0       0       0       0       0       0       
      +0       0       0       0       0       0       0       0       0
  1177 ;;      Totals:         6       2       0       0       0       0       0       0       0       0       0       0       
      +0       0       0       0       0       0       0       0       0       0       0       0       0       0       0       
      +0       0       0       0       0       0       0       0       0       0       0       0       0       0       0       
      +0       0       0       0       0       0       0       0       0
  1178 ;;Total ram usage:        8 bytes
  1179 ;; Hardware stack levels used: 1
  1180 ;; Hardware stack levels required when called: 8
  1181 ;; This function calls:
  1182 ;;		_vfprintf
  1183 ;; This function is called by:
  1184 ;;		_main
  1185 ;; This function uses a non-reentrant model
  1186 ;;
  1187                           
  1188                           	psect	text2
  1189  00504A                     __ptext2:
  1190                           	callstack 0
  1191  00504A                     _printf:
  1192                           	callstack 118
  1193  00504A  0E5C               	movlw	low (?_printf+2)
  1194  00504C  0105               	movlb	5	; () banked
  1195  00504E  6FCA               	movwf	printf@ap& (0+255),b
  1196  005050  0E05               	movlw	high (?_printf+2)
  1197  005052  6FCB               	movwf	(printf@ap+1)& (0+255),b
  1198  005054                     
  1199                           ; BSR set to: 5
  1200  005054  0E00               	movlw	0
  1201  005056  6E52               	movwf	vfprintf@fp^(0+1280),c
  1202  005058  0E00               	movlw	0
  1203  00505A  6E53               	movwf	(vfprintf@fp+1)^(0+1280),c
  1204  00505C  C55A  F554         	movff	printf@fmt,vfprintf@fmt
  1205  005060  C55B  F555         	movff	printf@fmt+1,vfprintf@fmt+1
  1206  005064  0ECA               	movlw	low printf@ap
  1207  005066  6E56               	movwf	vfprintf@ap^(0+1280),c
  1208  005068  0E05               	movlw	high printf@ap
  1209  00506A  6E57               	movwf	(vfprintf@ap+1)^(0+1280),c
  1210  00506C  ECEF  F025         	call	_vfprintf	;wreg free
  1211  005070  0012               	return		;funcret
  1212  005072                     __end_of_printf:
  1213                           	callstack 0
  1214                           
  1215 ;; *************** function _vfprintf *****************
  1216 ;; Defined at:
  1217 ;;		line 1390 in file "C:\Program Files\Microchip\xc8\v2.32\pic\sources\c99\common\doprnt.c"
  1218 ;; Parameters:    Size  Location     Type
  1219 ;;  fp              2   81[COMRAM] PTR struct _IO_FILE
  1220 ;;		 -> sprintf@f(6), NULL(0), 
  1221 ;;  fmt             2   83[COMRAM] PTR const unsigned char 
  1222 ;;		 -> STR_3(17), STR_2(17), STR_1(16), 
  1223 ;;  ap              2   85[COMRAM] PTR PTR void 
  1224 ;;		 -> printf@ap(2), sprintf@ap(2), 
  1225 ;; Auto vars:     Size  Location     Type
  1226 ;;  cfmt            2   87[COMRAM] PTR unsigned char 
  1227 ;;		 -> STR_3(17), STR_2(17), STR_1(16), 
  1228 ;; Return value:  Size  Location     Type
  1229 ;;                  2   81[COMRAM] int 
  1230 ;; Registers used:
  1231 ;;		wreg, fsr1l, fsr1h, fsr2l, fsr2h, status,2, status,0, tblptrl, tblptrh, tblptru, cstack
  1232 ;; Tracked objects:
  1233 ;;		On entry : 0/0
  1234 ;;		On exit  : 0/0
  1235 ;;		Unchanged: 0/0
  1236 ;; Data sizes:     COMRAM   BANK5   BANK6   BANK7   BANK8   BANK9  BANK10  BANK11  BANK12  BANK13  BANK14  BANK15  BANK1
      +6  BANK17  BANK18  BANK19  BANK20  BANK21  BANK22  BANK23  BANK24  BANK25  BANK26  BANK27  BANK28  BANK29  BANK30  BANK3
      +1  BANK32  BANK33  BANK34  BANK35  BANK36  BANK37  BANK38  BANK39  BANK40  BANK41  BANK42  BANK43  BANK44  BANK45  BANK4
      +6  BANK47  BANK48  BANK49  BANK50  BANK51  BANK52  BANK53  BANK54
  1237 ;;      Params:         6       0       0       0       0       0       0       0       0       0       0       0       
      +0       0       0       0       0       0       0       0       0       0       0       0       0       0       0       
      +0       0       0       0       0       0       0       0       0       0       0       0       0       0       0       
      +0       0       0       0       0       0       0       0       0
  1238 ;;      Locals:         2       0       0       0       0       0       0       0       0       0       0       0       
      +0       0       0       0       0       0       0       0       0       0       0       0       0       0       0       
      +0       0       0       0       0       0       0       0       0       0       0       0       0       0       0       
      +0       0       0       0       0       0       0       0       0
  1239 ;;      Temps:          0       0       0       0       0       0       0       0       0       0       0       0       
      +0       0       0       0       0       0       0       0       0       0       0       0       0       0       0       
      +0       0       0       0       0       0       0       0       0       0       0       0       0       0       0       
      +0       0       0       0       0       0       0       0       0
  1240 ;;      Totals:         8       0       0       0       0       0       0       0       0       0       0       0       
      +0       0       0       0       0       0       0       0       0       0       0       0       0       0       0       
      +0       0       0       0       0       0       0       0       0       0       0       0       0       0       0       
      +0       0       0       0       0       0       0       0       0
  1241 ;;Total ram usage:        8 bytes
  1242 ;; Hardware stack levels used: 1
  1243 ;; Hardware stack levels required when called: 7
  1244 ;; This function calls:
  1245 ;;		_vfpfcnvrt
  1246 ;; This function is called by:
  1247 ;;		_sprintf
  1248 ;;		_printf
  1249 ;; This function uses a non-reentrant model
  1250 ;;
  1251                           
  1252                           	psect	text3
  1253  004BDE                     __ptext3:
  1254                           	callstack 0
  1255  004BDE                     _vfprintf:
  1256                           	callstack 118
  1257  004BDE                     
  1258                           ;C:\Program Files\Microchip\xc8\v2.32\pic\sources\c99\common\doprnt.c: 1390: int vfprint
      +                          f(FILE *fp, const char *fmt, va_list ap);C:\Program Files\Microchip\xc8\v2.32\pic\source
      +                          s\c99\common\doprnt.c: 1391: {;C:\Program Files\Microchip\xc8\v2.32\pic\sources\c99\comm
      +                          on\doprnt.c: 1393:     char *cfmt;;C:\Program Files\Microchip\xc8\v2.32\pic\sources\c99\
      +                          common\doprnt.c: 1395:     cfmt = (char *)fmt;
  1259  004BDE  C554  F558         	movff	vfprintf@fmt,vfprintf@cfmt
  1260  004BE2  C555  F559         	movff	vfprintf@fmt+1,vfprintf@cfmt+1
  1261  004BE6                     
  1262                           ;C:\Program Files\Microchip\xc8\v2.32\pic\sources\c99\common\doprnt.c: 1396:     nout = 
      +                          0;
  1263  004BE6  0E00               	movlw	0
  1264  004BE8  0105               	movlb	5	; () banked
  1265  004BEA  6F8B               	movwf	(_nout+1)& (0+255),b
  1266  004BEC  0E00               	movlw	0
  1267  004BEE  6F8A               	movwf	_nout& (0+255),b
  1268                           
  1269                           ;C:\Program Files\Microchip\xc8\v2.32\pic\sources\c99\common\doprnt.c: 1397:     while (
      +                          *cfmt) {
  1270  004BF0  EF0D  F026         	goto	l4516
  1271  004BF4                     l4514:
  1272                           
  1273                           ; BSR set to: 5
  1274                           ;C:\Program Files\Microchip\xc8\v2.32\pic\sources\c99\common\doprnt.c: 1398:         nou
      +                          t += vfpfcnvrt(fp, &cfmt, ap);
  1275  004BF4  C552  F542         	movff	vfprintf@fp,vfpfcnvrt@fp
  1276  004BF8  C553  F543         	movff	vfprintf@fp+1,vfpfcnvrt@fp+1
  1277  004BFC  0E58               	movlw	low vfprintf@cfmt
  1278  004BFE  6E44               	movwf	vfpfcnvrt@fmt^(0+1280),c
  1279  004C00  0E05               	movlw	high vfprintf@cfmt
  1280  004C02  6E45               	movwf	(vfpfcnvrt@fmt+1)^(0+1280),c
  1281  004C04  C556  F546         	movff	vfprintf@ap,vfpfcnvrt@ap
  1282  004C08  C557  F547         	movff	vfprintf@ap+1,vfpfcnvrt@ap+1
  1283  004C0C  EC2B  F01D         	call	_vfpfcnvrt	;wreg free
  1284  004C10  5042               	movf	?_vfpfcnvrt^(0+1280),w,c
  1285  004C12  0105               	movlb	5	; () banked
  1286  004C14  278A               	addwf	_nout& (0+255),f,b
  1287  004C16  5043               	movf	(?_vfpfcnvrt+1)^(0+1280),w,c
  1288  004C18  238B               	addwfc	(_nout+1)& (0+255),f,b
  1289  004C1A                     l4516:
  1290                           
  1291                           ; BSR set to: 5
  1292                           ;C:\Program Files\Microchip\xc8\v2.32\pic\sources\c99\common\doprnt.c: 1397:     while (
      +                          *cfmt) {
  1293  004C1A  0061  F560  F4F6   	movff	vfprintf@cfmt,tblptrl
  1294  004C20  0061  F564  F4F7   	movff	vfprintf@cfmt+1,tblptrh
  1295  004C26                     	if	0	;tblptru may be non-zero
  1296  004C26                     	endif
  1297  004C26                     	if	1	;Program memory is > 0xFFFF, there are 3 active tblptr bytes
  1298  004C26  0E00               	movlw	low (__mediumconst shr (0+16))
  1299  004C28  6EF8               	movwf	tblptru,c
  1300  004C2A                     	endif
  1301  004C2A  0008               	tblrd		*
  1302  004C2C  50F5               	movf	tablat,w,c
  1303  004C2E  0900               	iorlw	0
  1304  004C30  A4D8               	btfss	status,2,c
  1305  004C32  EF1D  F026         	goto	u2181
  1306  004C36  EF1F  F026         	goto	u2180
  1307  004C3A                     u2181:
  1308  004C3A  EFFA  F025         	goto	l4514
  1309  004C3E                     u2180:
  1310  004C3E                     
  1311                           ; BSR set to: 5
  1312                           ;C:\Program Files\Microchip\xc8\v2.32\pic\sources\c99\common\doprnt.c: 1400:     return 
      +                          nout;
  1313  004C3E  C58A  F552         	movff	_nout,?_vfprintf
  1314  004C42  C58B  F553         	movff	_nout+1,?_vfprintf+1
  1315  004C46                     
  1316                           ; BSR set to: 5
  1317  004C46  0012               	return		;funcret
  1318  004C48                     __end_of_vfprintf:
  1319                           	callstack 0
  1320                           
  1321 ;; *************** function _vfpfcnvrt *****************
  1322 ;; Defined at:
  1323 ;;		line 692 in file "C:\Program Files\Microchip\xc8\v2.32\pic\sources\c99\common\doprnt.c"
  1324 ;; Parameters:    Size  Location     Type
  1325 ;;  fp              2   65[COMRAM] PTR struct _IO_FILE
  1326 ;;		 -> sprintf@f(6), NULL(0), 
  1327 ;;  fmt             2   67[COMRAM] PTR PTR unsigned char 
  1328 ;;		 -> vfprintf@cfmt(2), 
  1329 ;;  ap              2   69[COMRAM] PTR PTR void 
  1330 ;;		 -> printf@ap(2), sprintf@ap(2), 
  1331 ;; Auto vars:     Size  Location     Type
  1332 ;;  ll              8   73[COMRAM] long long 
  1333 ;;  llu             8    0        unsigned long long 
  1334 ;;  f               4    0        unsigned long long 
  1335 ;;  vp              3    0        PTR void 
  1336 ;;  ct              3    0        unsigned char [3]
  1337 ;;  cp              3    0        PTR unsigned char 
  1338 ;;  i               2    0        int 
  1339 ;;  done            2    0        int 
  1340 ;;  c               1    0        unsigned char 
  1341 ;; Return value:  Size  Location     Type
  1342 ;;                  2   65[COMRAM] int 
  1343 ;; Registers used:
  1344 ;;		wreg, fsr1l, fsr1h, fsr2l, fsr2h, status,2, status,0, tblptrl, tblptrh, tblptru, cstack
  1345 ;; Tracked objects:
  1346 ;;		On entry : 0/0
  1347 ;;		On exit  : 0/0
  1348 ;;		Unchanged: 0/0
  1349 ;; Data sizes:     COMRAM   BANK5   BANK6   BANK7   BANK8   BANK9  BANK10  BANK11  BANK12  BANK13  BANK14  BANK15  BANK1
      +6  BANK17  BANK18  BANK19  BANK20  BANK21  BANK22  BANK23  BANK24  BANK25  BANK26  BANK27  BANK28  BANK29  BANK30  BANK3
      +1  BANK32  BANK33  BANK34  BANK35  BANK36  BANK37  BANK38  BANK39  BANK40  BANK41  BANK42  BANK43  BANK44  BANK45  BANK4
      +6  BANK47  BANK48  BANK49  BANK50  BANK51  BANK52  BANK53  BANK54
  1350 ;;      Params:         6       0       0       0       0       0       0       0       0       0       0       0       
      +0       0       0       0       0       0       0       0       0       0       0       0       0       0       0       
      +0       0       0       0       0       0       0       0       0       0       0       0       0       0       0       
      +0       0       0       0       0       0       0       0       0
  1351 ;;      Locals:         8       0       0       0       0       0       0       0       0       0       0       0       
      +0       0       0       0       0       0       0       0       0       0       0       0       0       0       0       
      +0       0       0       0       0       0       0       0       0       0       0       0       0       0       0       
      +0       0       0       0       0       0       0       0       0
  1352 ;;      Temps:          2       0       0       0       0       0       0       0       0       0       0       0       
      +0       0       0       0       0       0       0       0       0       0       0       0       0       0       0       
      +0       0       0       0       0       0       0       0       0       0       0       0       0       0       0       
      +0       0       0       0       0       0       0       0       0
  1353 ;;      Totals:        16       0       0       0       0       0       0       0       0       0       0       0       
      +0       0       0       0       0       0       0       0       0       0       0       0       0       0       0       
      +0       0       0       0       0       0       0       0       0       0       0       0       0       0       0       
      +0       0       0       0       0       0       0       0       0
  1354 ;;Total ram usage:       16 bytes
  1355 ;; Hardware stack levels used: 1
  1356 ;; Hardware stack levels required when called: 6
  1357 ;; This function calls:
  1358 ;;		_dtoa
  1359 ;;		_fputc
  1360 ;; This function is called by:
  1361 ;;		_vfprintf
  1362 ;; This function uses a non-reentrant model
  1363 ;;
  1364                           
  1365                           	psect	text4
  1366  003A56                     __ptext4:
  1367                           	callstack 0
  1368  003A56                     _vfpfcnvrt:
  1369                           	callstack 118
  1370  003A56                     
  1371                           ;C:\Program Files\Microchip\xc8\v2.32\pic\sources\c99\common\doprnt.c: 692: static int v
      +                          fpfcnvrt(FILE *fp, char *fmt[], va_list ap);C:\Program Files\Microchip\xc8\v2.32\pic\sou
      +                          rces\c99\common\doprnt.c: 693: {;C:\Program Files\Microchip\xc8\v2.32\pic\sources\c99\co
      +                          mmon\doprnt.c: 694:     char c, *cp, ct[3];;C:\Program Files\Microchip\xc8\v2.32\pic\sou
      +                          rces\c99\common\doprnt.c: 695:     int done, i;;C:\Program Files\Microchip\xc8\v2.32\pic
      +                          \sources\c99\common\doprnt.c: 696:     long long ll;;C:\Program Files\Microchip\xc8\v2.3
      +                          2\pic\sources\c99\common\doprnt.c: 697:     unsigned long long llu;
  1372  003A56  0061  F510  F4D9   	movff	vfpfcnvrt@fmt,fsr2l
  1373  003A5C  0061  F514  F4DA   	movff	vfpfcnvrt@fmt+1,fsr2h
  1374  003A62  C4DE F4F6          	movff	postinc2,tblptrl
  1375  003A66  C4DD F4F7          	movff	postdec2,tblptrh
  1376  003A6A                     	if	0	;tblptru may be non-zero
  1377  003A6A                     	endif
  1378  003A6A                     	if	1	;Program memory is > 0xFFFF, there are 3 active tblptr bytes
  1379  003A6A  0E00               	movlw	low (__mediumconst shr (0+16))
  1380  003A6C  6EF8               	movwf	tblptru,c
  1381  003A6E                     	endif
  1382  003A6E  0008               	tblrd		*
  1383  003A70  50F5               	movf	tablat,w,c
  1384  003A72  0A25               	xorlw	37
  1385  003A74  A4D8               	btfss	status,2,c
  1386  003A76  EF3F  F01D         	goto	u2141
  1387  003A7A  EF41  F01D         	goto	u2140
  1388  003A7E                     u2141:
  1389  003A7E  EF09  F01E         	goto	l4408
  1390  003A82                     u2140:
  1391  003A82                     
  1392                           ;C:\Program Files\Microchip\xc8\v2.32\pic\sources\c99\common\doprnt.c: 703:         ++*f
      +                          mt;
  1393  003A82  0061  F510  F4D9   	movff	vfpfcnvrt@fmt,fsr2l
  1394  003A88  0061  F514  F4DA   	movff	vfpfcnvrt@fmt+1,fsr2h
  1395  003A8E  2ADE               	incf	postinc2,f,c
  1396  003A90  0E00               	movlw	0
  1397  003A92  22DD               	addwfc	postdec2,f,c
  1398  003A94                     
  1399                           ;C:\Program Files\Microchip\xc8\v2.32\pic\sources\c99\common\doprnt.c: 705:         flag
      +                          s = width = 0;
  1400  003A94  0E00               	movlw	0
  1401  003A96  0105               	movlb	5	; () banked
  1402  003A98  6F8D               	movwf	(_width+1)& (0+255),b
  1403  003A9A  0E00               	movlw	0
  1404  003A9C  6F8C               	movwf	_width& (0+255),b
  1405  003A9E  C58C  F590         	movff	_width,_flags
  1406  003AA2  C58D  F591         	movff	_width+1,_flags+1
  1407  003AA6                     
  1408                           ; BSR set to: 5
  1409                           ;C:\Program Files\Microchip\xc8\v2.32\pic\sources\c99\common\doprnt.c: 706:         prec
      +                           = -1;
  1410  003AA6  698E               	setf	_prec& (0+255),b
  1411  003AA8  698F               	setf	(_prec+1)& (0+255),b
  1412  003AAA                     
  1413                           ; BSR set to: 5
  1414                           ;C:\Program Files\Microchip\xc8\v2.32\pic\sources\c99\common\doprnt.c: 847:         if (
      +                          (*fmt[0] == 'd') || (*fmt[0] == 'i')) {
  1415  003AAA  0061  F510  F4D9   	movff	vfpfcnvrt@fmt,fsr2l
  1416  003AB0  0061  F514  F4DA   	movff	vfpfcnvrt@fmt+1,fsr2h
  1417  003AB6  C4DE F4F6          	movff	postinc2,tblptrl
  1418  003ABA  C4DD F4F7          	movff	postdec2,tblptrh
  1419  003ABE                     	if	0	;tblptru may be non-zero
  1420  003ABE                     	endif
  1421  003ABE                     	if	1	;Program memory is > 0xFFFF, there are 3 active tblptr bytes
  1422  003ABE  0E00               	movlw	low (__mediumconst shr (0+16))
  1423  003AC0  6EF8               	movwf	tblptru,c
  1424  003AC2                     	endif
  1425  003AC2  0008               	tblrd		*
  1426  003AC4  50F5               	movf	tablat,w,c
  1427  003AC6  0A64               	xorlw	100
  1428  003AC8  B4D8               	btfsc	status,2,c
  1429  003ACA  EF69  F01D         	goto	u2151
  1430  003ACE  EF6B  F01D         	goto	u2150
  1431  003AD2                     u2151:
  1432  003AD2  EF81  F01D         	goto	l4386
  1433  003AD6                     u2150:
  1434  003AD6                     
  1435                           ; BSR set to: 5
  1436  003AD6  0061  F510  F4D9   	movff	vfpfcnvrt@fmt,fsr2l
  1437  003ADC  0061  F514  F4DA   	movff	vfpfcnvrt@fmt+1,fsr2h
  1438  003AE2  C4DE F4F6          	movff	postinc2,tblptrl
  1439  003AE6  C4DD F4F7          	movff	postdec2,tblptrh
  1440  003AEA                     	if	0	;tblptru may be non-zero
  1441  003AEA                     	endif
  1442  003AEA                     	if	1	;Program memory is > 0xFFFF, there are 3 active tblptr bytes
  1443  003AEA  0E00               	movlw	low (__mediumconst shr (0+16))
  1444  003AEC  6EF8               	movwf	tblptru,c
  1445  003AEE                     	endif
  1446  003AEE  0008               	tblrd		*
  1447  003AF0  50F5               	movf	tablat,w,c
  1448  003AF2  0A69               	xorlw	105
  1449  003AF4  A4D8               	btfss	status,2,c
  1450  003AF6  EF7F  F01D         	goto	u2161
  1451  003AFA  EF81  F01D         	goto	u2160
  1452  003AFE                     u2161:
  1453  003AFE  EFCB  F01D         	goto	l4392
  1454  003B02                     u2160:
  1455  003B02                     l4386:
  1456                           
  1457                           ; BSR set to: 5
  1458                           ;C:\Program Files\Microchip\xc8\v2.32\pic\sources\c99\common\doprnt.c: 849:             
      +                          ++*fmt;
  1459  003B02  0061  F510  F4D9   	movff	vfpfcnvrt@fmt,fsr2l
  1460  003B08  0061  F514  F4DA   	movff	vfpfcnvrt@fmt+1,fsr2h
  1461  003B0E  2ADE               	incf	postinc2,f,c
  1462  003B10  0E00               	movlw	0
  1463  003B12  22DD               	addwfc	postdec2,f,c
  1464                           
  1465                           ;C:\Program Files\Microchip\xc8\v2.32\pic\sources\c99\common\doprnt.c: 850:             
      +                          ll = (long long)(*(int *)__va_arg(*(int **)ap, (int)0));
  1466  003B14  0061  F518  F4D9   	movff	vfpfcnvrt@ap,fsr2l
  1467  003B1A  0061  F51C  F4DA   	movff	vfpfcnvrt@ap+1,fsr2h
  1468  003B20  0061 F37C  F548    	movff	indf2,??_vfpfcnvrt
  1469  003B26  0E02               	movlw	2
  1470  003B28  26DE               	addwf	postinc2,f,c
  1471  003B2A  0061 F37C  F549    	movff	indf2,??_vfpfcnvrt+1
  1472  003B30  0E00               	movlw	0
  1473  003B32  22DD               	addwfc	postdec2,f,c
  1474  003B34  0061  F520  F4D9   	movff	??_vfpfcnvrt,fsr2l
  1475  003B3A  0061  F524  F4DA   	movff	??_vfpfcnvrt+1,fsr2h
  1476  003B40  0061 F378  F54A    	movff	postinc2,vfpfcnvrt@ll
  1477  003B46  0061 F374  F54B    	movff	postdec2,vfpfcnvrt@ll+1
  1478  003B4C  0E00               	movlw	0
  1479  003B4E  BE4B               	btfsc	(vfpfcnvrt@ll+1)^(0+1280),7,c
  1480  003B50  0EFF               	movlw	-1
  1481  003B52  6E4C               	movwf	(vfpfcnvrt@ll+2)^(0+1280),c
  1482  003B54  6E4D               	movwf	(vfpfcnvrt@ll+3)^(0+1280),c
  1483  003B56  6E4E               	movwf	(vfpfcnvrt@ll+4)^(0+1280),c
  1484  003B58  6E4F               	movwf	(vfpfcnvrt@ll+5)^(0+1280),c
  1485  003B5A  6E50               	movwf	(vfpfcnvrt@ll+6)^(0+1280),c
  1486  003B5C  6E51               	movwf	(vfpfcnvrt@ll+7)^(0+1280),c
  1487  003B5E                     
  1488                           ; BSR set to: 5
  1489                           ;C:\Program Files\Microchip\xc8\v2.32\pic\sources\c99\common\doprnt.c: 852:             
      +                          return dtoa(fp, ll);
  1490  003B5E  C542  F51E         	movff	vfpfcnvrt@fp,dtoa@fp
  1491  003B62  C543  F51F         	movff	vfpfcnvrt@fp+1,dtoa@fp+1
  1492  003B66  C54A  F520         	movff	vfpfcnvrt@ll,dtoa@d
  1493  003B6A  C54B  F521         	movff	vfpfcnvrt@ll+1,dtoa@d+1
  1494  003B6E  C54C  F522         	movff	vfpfcnvrt@ll+2,dtoa@d+2
  1495  003B72  C54D  F523         	movff	vfpfcnvrt@ll+3,dtoa@d+3
  1496  003B76  C54E  F524         	movff	vfpfcnvrt@ll+4,dtoa@d+4
  1497  003B7A  C54F  F525         	movff	vfpfcnvrt@ll+5,dtoa@d+5
  1498  003B7E  C550  F526         	movff	vfpfcnvrt@ll+6,dtoa@d+6
  1499  003B82  C551  F527         	movff	vfpfcnvrt@ll+7,dtoa@d+7
  1500  003B86  ECB9  F01B         	call	_dtoa	;wreg free
  1501  003B8A  C51E  F542         	movff	?_dtoa,?_vfpfcnvrt
  1502  003B8E  C51F  F543         	movff	?_dtoa+1,?_vfpfcnvrt+1
  1503  003B92  EF2A  F01E         	goto	l1903
  1504  003B96                     l4392:
  1505                           
  1506                           ; BSR set to: 5
  1507                           ;C:\Program Files\Microchip\xc8\v2.32\pic\sources\c99\common\doprnt.c: 1372:         if 
      +                          ((*fmt)[0] == '%') {
  1508  003B96  0061  F510  F4D9   	movff	vfpfcnvrt@fmt,fsr2l
  1509  003B9C  0061  F514  F4DA   	movff	vfpfcnvrt@fmt+1,fsr2h
  1510  003BA2  C4DE F4F6          	movff	postinc2,tblptrl
  1511  003BA6  C4DD F4F7          	movff	postdec2,tblptrh
  1512  003BAA                     	if	0	;tblptru may be non-zero
  1513  003BAA                     	endif
  1514  003BAA                     	if	1	;Program memory is > 0xFFFF, there are 3 active tblptr bytes
  1515  003BAA  0E00               	movlw	low (__mediumconst shr (0+16))
  1516  003BAC  6EF8               	movwf	tblptru,c
  1517  003BAE                     	endif
  1518  003BAE  0008               	tblrd		*
  1519  003BB0  50F5               	movf	tablat,w,c
  1520  003BB2  0A25               	xorlw	37
  1521  003BB4  A4D8               	btfss	status,2,c
  1522  003BB6  EFDF  F01D         	goto	u2171
  1523  003BBA  EFE1  F01D         	goto	u2170
  1524  003BBE                     u2171:
  1525  003BBE  EFFA  F01D         	goto	l4402
  1526  003BC2                     u2170:
  1527  003BC2                     
  1528                           ; BSR set to: 5
  1529                           ;C:\Program Files\Microchip\xc8\v2.32\pic\sources\c99\common\doprnt.c: 1373:            
      +                           ++*fmt;
  1530  003BC2  0061  F510  F4D9   	movff	vfpfcnvrt@fmt,fsr2l
  1531  003BC8  0061  F514  F4DA   	movff	vfpfcnvrt@fmt+1,fsr2h
  1532  003BCE  2ADE               	incf	postinc2,f,c
  1533  003BD0  0E00               	movlw	0
  1534  003BD2  22DD               	addwfc	postdec2,f,c
  1535  003BD4                     
  1536                           ; BSR set to: 5
  1537                           ;C:\Program Files\Microchip\xc8\v2.32\pic\sources\c99\common\doprnt.c: 1374:            
      +                           fputc((int)'%', fp);
  1538  003BD4  0E00               	movlw	0
  1539  003BD6  6E04               	movwf	(fputc@c+1)^(0+1280),c
  1540  003BD8  0E25               	movlw	37
  1541  003BDA  6E03               	movwf	fputc@c^(0+1280),c
  1542  003BDC  C542  F505         	movff	vfpfcnvrt@fp,fputc@fp
  1543  003BE0  C543  F506         	movff	vfpfcnvrt@fp+1,fputc@fp+1
  1544  003BE4  EC34  F020         	call	_fputc	;wreg free
  1545  003BE8                     l4398:
  1546                           
  1547                           ;C:\Program Files\Microchip\xc8\v2.32\pic\sources\c99\common\doprnt.c: 1375:            
      +                           return 1;
  1548  003BE8  0E00               	movlw	0
  1549  003BEA  6E43               	movwf	(?_vfpfcnvrt+1)^(0+1280),c
  1550  003BEC  0E01               	movlw	1
  1551  003BEE  6E42               	movwf	?_vfpfcnvrt^(0+1280),c
  1552  003BF0  EF2A  F01E         	goto	l1903
  1553  003BF4                     l4402:
  1554                           
  1555                           ; BSR set to: 5
  1556                           ;C:\Program Files\Microchip\xc8\v2.32\pic\sources\c99\common\doprnt.c: 1379:         ++*
      +                          fmt;
  1557  003BF4  0061  F510  F4D9   	movff	vfpfcnvrt@fmt,fsr2l
  1558  003BFA  0061  F514  F4DA   	movff	vfpfcnvrt@fmt+1,fsr2h
  1559  003C00  2ADE               	incf	postinc2,f,c
  1560  003C02  0E00               	movlw	0
  1561  003C04  22DD               	addwfc	postdec2,f,c
  1562  003C06                     
  1563                           ; BSR set to: 5
  1564                           ;C:\Program Files\Microchip\xc8\v2.32\pic\sources\c99\common\doprnt.c: 1380:         ret
      +                          urn 0;
  1565  003C06  0E00               	movlw	0
  1566  003C08  6E43               	movwf	(?_vfpfcnvrt+1)^(0+1280),c
  1567  003C0A  0E00               	movlw	0
  1568  003C0C  6E42               	movwf	?_vfpfcnvrt^(0+1280),c
  1569  003C0E  EF2A  F01E         	goto	l1903
  1570  003C12                     l4408:
  1571                           
  1572                           ;C:\Program Files\Microchip\xc8\v2.32\pic\sources\c99\common\doprnt.c: 1384:     fputc((
      +                          int)(*fmt)[0], fp);
  1573  003C12  0061  F510  F4D9   	movff	vfpfcnvrt@fmt,fsr2l
  1574  003C18  0061  F514  F4DA   	movff	vfpfcnvrt@fmt+1,fsr2h
  1575  003C1E  C4DE F4F6          	movff	postinc2,tblptrl
  1576  003C22  C4DD F4F7          	movff	postdec2,tblptrh
  1577  003C26                     	if	0	;tblptru may be non-zero
  1578  003C26                     	endif
  1579  003C26                     	if	1	;Program memory is > 0xFFFF, there are 3 active tblptr bytes
  1580  003C26  0E00               	movlw	low (__mediumconst shr (0+16))
  1581  003C28  6EF8               	movwf	tblptru,c
  1582  003C2A                     	endif
  1583  003C2A  0008               	tblrd		*
  1584  003C2C  50F5               	movf	tablat,w,c
  1585  003C2E  6E03               	movwf	fputc@c^(0+1280),c
  1586  003C30  6A04               	clrf	(fputc@c+1)^(0+1280),c
  1587  003C32  C542  F505         	movff	vfpfcnvrt@fp,fputc@fp
  1588  003C36  C543  F506         	movff	vfpfcnvrt@fp+1,fputc@fp+1
  1589  003C3A  EC34  F020         	call	_fputc	;wreg free
  1590  003C3E                     
  1591                           ;C:\Program Files\Microchip\xc8\v2.32\pic\sources\c99\common\doprnt.c: 1385:     ++*fmt;
  1592  003C3E  0061  F510  F4D9   	movff	vfpfcnvrt@fmt,fsr2l
  1593  003C44  0061  F514  F4DA   	movff	vfpfcnvrt@fmt+1,fsr2h
  1594  003C4A  2ADE               	incf	postinc2,f,c
  1595  003C4C  0E00               	movlw	0
  1596  003C4E  22DD               	addwfc	postdec2,f,c
  1597  003C50  EFF4  F01D         	goto	l4398
  1598  003C54                     l1903:
  1599  003C54  0012               	return		;funcret
  1600  003C56                     __end_of_vfpfcnvrt:
  1601                           	callstack 0
  1602                           
  1603 ;; *************** function _dtoa *****************
  1604 ;; Defined at:
  1605 ;;		line 287 in file "C:\Program Files\Microchip\xc8\v2.32\pic\sources\c99\common\doprnt.c"
  1606 ;; Parameters:    Size  Location     Type
  1607 ;;  fp              2   29[COMRAM] PTR struct _IO_FILE
  1608 ;;		 -> sprintf@f(6), NULL(0), 
  1609 ;;  d               8   31[COMRAM] long long 
  1610 ;; Auto vars:     Size  Location     Type
  1611 ;;  n               8   55[COMRAM] long long 
  1612 ;;  i               2   63[COMRAM] int 
  1613 ;;  s               2   53[COMRAM] int 
  1614 ;;  w               2   51[COMRAM] int 
  1615 ;;  p               2   49[COMRAM] int 
  1616 ;; Return value:  Size  Location     Type
  1617 ;;                  2   29[COMRAM] int 
  1618 ;; Registers used:
  1619 ;;		wreg, fsr1l, fsr1h, fsr2l, fsr2h, status,2, status,0, cstack
  1620 ;; Tracked objects:
  1621 ;;		On entry : 0/0
  1622 ;;		On exit  : 0/0
  1623 ;;		Unchanged: 0/0
  1624 ;; Data sizes:     COMRAM   BANK5   BANK6   BANK7   BANK8   BANK9  BANK10  BANK11  BANK12  BANK13  BANK14  BANK15  BANK1
      +6  BANK17  BANK18  BANK19  BANK20  BANK21  BANK22  BANK23  BANK24  BANK25  BANK26  BANK27  BANK28  BANK29  BANK30  BANK3
      +1  BANK32  BANK33  BANK34  BANK35  BANK36  BANK37  BANK38  BANK39  BANK40  BANK41  BANK42  BANK43  BANK44  BANK45  BANK4
      +6  BANK47  BANK48  BANK49  BANK50  BANK51  BANK52  BANK53  BANK54
  1625 ;;      Params:        10       0       0       0       0       0       0       0       0       0       0       0       
      +0       0       0       0       0       0       0       0       0       0       0       0       0       0       0       
      +0       0       0       0       0       0       0       0       0       0       0       0       0       0       0       
      +0       0       0       0       0       0       0       0       0
  1626 ;;      Locals:        18       0       0       0       0       0       0       0       0       0       0       0       
      +0       0       0       0       0       0       0       0       0       0       0       0       0       0       0       
      +0       0       0       0       0       0       0       0       0       0       0       0       0       0       0       
      +0       0       0       0       0       0       0       0       0
  1627 ;;      Temps:          8       0       0       0       0       0       0       0       0       0       0       0       
      +0       0       0       0       0       0       0       0       0       0       0       0       0       0       0       
      +0       0       0       0       0       0       0       0       0       0       0       0       0       0       0       
      +0       0       0       0       0       0       0       0       0
  1628 ;;      Totals:        36       0       0       0       0       0       0       0       0       0       0       0       
      +0       0       0       0       0       0       0       0       0       0       0       0       0       0       0       
      +0       0       0       0       0       0       0       0       0       0       0       0       0       0       0       
      +0       0       0       0       0       0       0       0       0
  1629 ;;Total ram usage:       36 bytes
  1630 ;; Hardware stack levels used: 1
  1631 ;; Hardware stack levels required when called: 5
  1632 ;; This function calls:
  1633 ;;		___aodiv
  1634 ;;		___aomod
  1635 ;;		_abs
  1636 ;;		_pad
  1637 ;; This function is called by:
  1638 ;;		_vfpfcnvrt
  1639 ;; This function uses a non-reentrant model
  1640 ;;
  1641                           
  1642                           	psect	text5
  1643  003772                     __ptext5:
  1644                           	callstack 0
  1645  003772                     _dtoa:
  1646                           	callstack 118
  1647  003772                     
  1648                           ;C:\Program Files\Microchip\xc8\v2.32\pic\sources\c99\common\doprnt.c: 287: static int d
      +                          toa(FILE *fp, long long d);C:\Program Files\Microchip\xc8\v2.32\pic\sources\c99\common\d
      +                          oprnt.c: 288: {;C:\Program Files\Microchip\xc8\v2.32\pic\sources\c99\common\doprnt.c: 28
      +                          9:     int i, p, s, w;;C:\Program Files\Microchip\xc8\v2.32\pic\sources\c99\common\doprn
      +                          t.c: 290:     long long n;;C:\Program Files\Microchip\xc8\v2.32\pic\sources\c99\common\d
      +                          oprnt.c: 293:     n = d;
  1649  003772  C520  F538         	movff	dtoa@d,dtoa@n
  1650  003776  C521  F539         	movff	dtoa@d+1,dtoa@n+1
  1651  00377A  C522  F53A         	movff	dtoa@d+2,dtoa@n+2
  1652  00377E  C523  F53B         	movff	dtoa@d+3,dtoa@n+3
  1653  003782  C524  F53C         	movff	dtoa@d+4,dtoa@n+4
  1654  003786  C525  F53D         	movff	dtoa@d+5,dtoa@n+5
  1655  00378A  C526  F53E         	movff	dtoa@d+6,dtoa@n+6
  1656  00378E  C527  F53F         	movff	dtoa@d+7,dtoa@n+7
  1657  003792                     
  1658                           ;C:\Program Files\Microchip\xc8\v2.32\pic\sources\c99\common\doprnt.c: 294:     s = n < 
      +                          0 ? 1 : 0;
  1659  003792  BE3F               	btfsc	(dtoa@n+7)^(0+1280),7,c
  1660  003794  EFCE  F01B         	goto	u1991
  1661  003798  EFD1  F01B         	goto	u1990
  1662  00379C                     u1991:
  1663  00379C  0E01               	movlw	1
  1664  00379E  EFD2  F01B         	goto	u2000
  1665  0037A2                     u1990:
  1666  0037A2  0E00               	movlw	0
  1667  0037A4                     u2000:
  1668  0037A4  6E36               	movwf	dtoa@s^(0+1280),c
  1669  0037A6  6A37               	clrf	(dtoa@s+1)^(0+1280),c
  1670                           
  1671                           ;C:\Program Files\Microchip\xc8\v2.32\pic\sources\c99\common\doprnt.c: 295:     if (s) {
  1672  0037A8  5036               	movf	dtoa@s^(0+1280),w,c
  1673  0037AA  1037               	iorwf	(dtoa@s+1)^(0+1280),w,c
  1674  0037AC  B4D8               	btfsc	status,2,c
  1675  0037AE  EFDB  F01B         	goto	u2011
  1676  0037B2  EFDD  F01B         	goto	u2010
  1677  0037B6                     u2011:
  1678  0037B6  EFED  F01B         	goto	l4304
  1679  0037BA                     u2010:
  1680  0037BA                     
  1681                           ;C:\Program Files\Microchip\xc8\v2.32\pic\sources\c99\common\doprnt.c: 296:         n = 
      +                          -n;
  1682  0037BA  1E3F               	comf	(dtoa@n+7)^(0+1280),f,c
  1683  0037BC  1E3E               	comf	(dtoa@n+6)^(0+1280),f,c
  1684  0037BE  1E3D               	comf	(dtoa@n+5)^(0+1280),f,c
  1685  0037C0  1E3C               	comf	(dtoa@n+4)^(0+1280),f,c
  1686  0037C2  1E3B               	comf	(dtoa@n+3)^(0+1280),f,c
  1687  0037C4  1E3A               	comf	(dtoa@n+2)^(0+1280),f,c
  1688  0037C6  1E39               	comf	(dtoa@n+1)^(0+1280),f,c
  1689  0037C8  6C38               	negf	dtoa@n^(0+1280),c
  1690  0037CA  0E00               	movlw	0
  1691  0037CC  2239               	addwfc	(dtoa@n+1)^(0+1280),f,c
  1692  0037CE  223A               	addwfc	(dtoa@n+2)^(0+1280),f,c
  1693  0037D0  223B               	addwfc	(dtoa@n+3)^(0+1280),f,c
  1694  0037D2  223C               	addwfc	(dtoa@n+4)^(0+1280),f,c
  1695  0037D4  223D               	addwfc	(dtoa@n+5)^(0+1280),f,c
  1696  0037D6  223E               	addwfc	(dtoa@n+6)^(0+1280),f,c
  1697  0037D8  223F               	addwfc	(dtoa@n+7)^(0+1280),f,c
  1698  0037DA                     l4304:
  1699                           
  1700                           ;C:\Program Files\Microchip\xc8\v2.32\pic\sources\c99\common\doprnt.c: 300:     if (!(pr
      +                          ec < 0)) {
  1701  0037DA  0105               	movlb	5	; () banked
  1702  0037DC  BF8F               	btfsc	(_prec+1)& (0+255),7,b
  1703  0037DE  EFF3  F01B         	goto	u2021
  1704  0037E2  EFF5  F01B         	goto	u2020
  1705  0037E6                     u2021:
  1706  0037E6  EFF6  F01B         	goto	l4308
  1707  0037EA                     u2020:
  1708  0037EA                     
  1709                           ; BSR set to: 5
  1710                           ;C:\Program Files\Microchip\xc8\v2.32\pic\sources\c99\common\doprnt.c: 301:         flag
      +                          s &= ~(1 << 1);
  1711  0037EA  9390               	bcf	_flags& (0+255),1,b
  1712  0037EC                     l4308:
  1713                           
  1714                           ; BSR set to: 5
  1715                           ;C:\Program Files\Microchip\xc8\v2.32\pic\sources\c99\common\doprnt.c: 303:     p = (0 <
      +                           prec) ? prec : 1;
  1716  0037EC  BF8F               	btfsc	(_prec+1)& (0+255),7,b
  1717  0037EE  EF03  F01C         	goto	u2030
  1718  0037F2  518F               	movf	(_prec+1)& (0+255),w,b
  1719  0037F4  E106               	bnz	u2031
  1720  0037F6  058E               	decf	_prec& (0+255),w,b
  1721  0037F8  B0D8               	btfsc	status,0,c
  1722  0037FA  EF01  F01C         	goto	u2031
  1723  0037FE  EF03  F01C         	goto	u2030
  1724  003802                     u2031:
  1725  003802  EF09  F01C         	goto	l1876
  1726  003806                     u2030:
  1727  003806                     
  1728                           ; BSR set to: 5
  1729  003806  0E00               	movlw	0
  1730  003808  6E33               	movwf	(dtoa@p+1)^(0+1280),c
  1731  00380A  0E01               	movlw	1
  1732  00380C  6E32               	movwf	dtoa@p^(0+1280),c
  1733  00380E  EF0D  F01C         	goto	l1878
  1734  003812                     l1876:
  1735                           
  1736                           ; BSR set to: 5
  1737  003812  C58E  F532         	movff	_prec,dtoa@p
  1738  003816  C58F  F533         	movff	_prec+1,dtoa@p+1
  1739  00381A                     l1878:
  1740                           
  1741                           ; BSR set to: 5
  1742                           ;C:\Program Files\Microchip\xc8\v2.32\pic\sources\c99\common\doprnt.c: 304:     w = widt
      +                          h;
  1743  00381A  C58C  F534         	movff	_width,dtoa@w
  1744  00381E  C58D  F535         	movff	_width+1,dtoa@w+1
  1745  003822                     
  1746                           ; BSR set to: 5
  1747                           ;C:\Program Files\Microchip\xc8\v2.32\pic\sources\c99\common\doprnt.c: 305:     if (s ||
      +                           (flags & (1 << 2))) {
  1748  003822  5036               	movf	dtoa@s^(0+1280),w,c
  1749  003824  1037               	iorwf	(dtoa@s+1)^(0+1280),w,c
  1750  003826  A4D8               	btfss	status,2,c
  1751  003828  EF18  F01C         	goto	u2041
  1752  00382C  EF1A  F01C         	goto	u2040
  1753  003830                     u2041:
  1754  003830  EF21  F01C         	goto	l4316
  1755  003834                     u2040:
  1756  003834                     
  1757                           ; BSR set to: 5
  1758  003834  A590               	btfss	_flags& (0+255),2,b
  1759  003836  EF1F  F01C         	goto	u2051
  1760  00383A  EF21  F01C         	goto	u2050
  1761  00383E                     u2051:
  1762  00383E  EF24  F01C         	goto	l4318
  1763  003842                     u2050:
  1764  003842                     l4316:
  1765                           
  1766                           ; BSR set to: 5
  1767                           ;C:\Program Files\Microchip\xc8\v2.32\pic\sources\c99\common\doprnt.c: 306:         --w;
  1768  003842  0634               	decf	dtoa@w^(0+1280),f,c
  1769  003844  A0D8               	btfss	status,0,c
  1770  003846  0635               	decf	(dtoa@w+1)^(0+1280),f,c
  1771  003848                     l4318:
  1772                           
  1773                           ; BSR set to: 5
  1774                           ;C:\Program Files\Microchip\xc8\v2.32\pic\sources\c99\common\doprnt.c: 310:     i = size
      +                          of(dbuf) - 1;
  1775  003848  0E00               	movlw	0
  1776  00384A  6E41               	movwf	(dtoa@i+1)^(0+1280),c
  1777  00384C  0E1F               	movlw	31
  1778  00384E  6E40               	movwf	dtoa@i^(0+1280),c
  1779  003850                     
  1780                           ; BSR set to: 5
  1781                           ;C:\Program Files\Microchip\xc8\v2.32\pic\sources\c99\common\doprnt.c: 311:     dbuf[i] 
      +                          = '\0';
  1782  003850  0E00               	movlw	0
  1783  003852  6FB7               	movwf	(_dbuf+31)& (0+255),b
  1784                           
  1785                           ;C:\Program Files\Microchip\xc8\v2.32\pic\sources\c99\common\doprnt.c: 312:     while (!
      +                          (i < 1) && (n || (0 < p) || ((0 < w) && (flags & (1 << 1))))) {
  1786  003854  EFA8  F01C         	goto	l4332
  1787  003858                     l4322:
  1788                           
  1789                           ;C:\Program Files\Microchip\xc8\v2.32\pic\sources\c99\common\doprnt.c: 313:         --i;
  1790  003858  0640               	decf	dtoa@i^(0+1280),f,c
  1791  00385A  A0D8               	btfss	status,0,c
  1792  00385C  0641               	decf	(dtoa@i+1)^(0+1280),f,c
  1793  00385E                     
  1794                           ;C:\Program Files\Microchip\xc8\v2.32\pic\sources\c99\common\doprnt.c: 314:         dbuf
      +                          [i] = (char)((int)'0' + abs(n % 10));
  1795  00385E  0E98               	movlw	low _dbuf
  1796  003860  2440               	addwf	dtoa@i^(0+1280),w,c
  1797  003862  6ED9               	movwf	fsr2l,c
  1798  003864  0E05               	movlw	high _dbuf
  1799  003866  2041               	addwfc	(dtoa@i+1)^(0+1280),w,c
  1800  003868  6EDA               	movwf	fsr2h,c
  1801  00386A  C538  F501         	movff	dtoa@n,___aomod@dividend
  1802  00386E  C539  F502         	movff	dtoa@n+1,___aomod@dividend+1
  1803  003872  C53A  F503         	movff	dtoa@n+2,___aomod@dividend+2
  1804  003876  C53B  F504         	movff	dtoa@n+3,___aomod@dividend+3
  1805  00387A  C53C  F505         	movff	dtoa@n+4,___aomod@dividend+4
  1806  00387E  C53D  F506         	movff	dtoa@n+5,___aomod@dividend+5
  1807  003882  C53E  F507         	movff	dtoa@n+6,___aomod@dividend+6
  1808  003886  C53F  F508         	movff	dtoa@n+7,___aomod@dividend+7
  1809  00388A  0E0A               	movlw	10
  1810  00388C  6E09               	movwf	___aomod@divisor^(0+1280),c
  1811  00388E  0E00               	movlw	0
  1812  003890  6E0A               	movwf	(___aomod@divisor+1)^(0+1280),c
  1813  003892  0E00               	movlw	0
  1814  003894  6E0B               	movwf	(___aomod@divisor+2)^(0+1280),c
  1815  003896  0E00               	movlw	0
  1816  003898  6E0C               	movwf	(___aomod@divisor+3)^(0+1280),c
  1817  00389A  0E00               	movlw	0
  1818  00389C  6E0D               	movwf	(___aomod@divisor+4)^(0+1280),c
  1819  00389E  0E00               	movlw	0
  1820  0038A0  6E0E               	movwf	(___aomod@divisor+5)^(0+1280),c
  1821  0038A2  0E00               	movlw	0
  1822  0038A4  6E0F               	movwf	(___aomod@divisor+6)^(0+1280),c
  1823  0038A6  0E00               	movlw	0
  1824  0038A8  6E10               	movwf	(___aomod@divisor+7)^(0+1280),c
  1825  0038AA  ECEF  F01E         	call	___aomod	;wreg free
  1826  0038AE  C501  F528         	movff	?___aomod,??_dtoa
  1827  0038B2  C502  F529         	movff	?___aomod+1,??_dtoa+1
  1828  0038B6  C503  F52A         	movff	?___aomod+2,??_dtoa+2
  1829  0038BA  C504  F52B         	movff	?___aomod+3,??_dtoa+3
  1830  0038BE  C505  F52C         	movff	?___aomod+4,??_dtoa+4
  1831  0038C2  C506  F52D         	movff	?___aomod+5,??_dtoa+5
  1832  0038C6  C507  F52E         	movff	?___aomod+6,??_dtoa+6
  1833  0038CA  C508  F52F         	movff	?___aomod+7,??_dtoa+7
  1834  0038CE  C528  F513         	movff	??_dtoa,abs@a
  1835  0038D2  C52A  F514         	movff	??_dtoa+2,abs@a+1
  1836  0038D6  EC16  F027         	call	_abs	;wreg free
  1837  0038DA  5013               	movf	?_abs^(0+1280),w,c
  1838  0038DC  0F30               	addlw	48
  1839  0038DE  6EDF               	movwf	indf2,c
  1840  0038E0                     
  1841                           ;C:\Program Files\Microchip\xc8\v2.32\pic\sources\c99\common\doprnt.c: 315:         --p;
  1842  0038E0  0632               	decf	dtoa@p^(0+1280),f,c
  1843  0038E2  A0D8               	btfss	status,0,c
  1844  0038E4  0633               	decf	(dtoa@p+1)^(0+1280),f,c
  1845  0038E6                     
  1846                           ;C:\Program Files\Microchip\xc8\v2.32\pic\sources\c99\common\doprnt.c: 316:         --w;
  1847  0038E6  0634               	decf	dtoa@w^(0+1280),f,c
  1848  0038E8  A0D8               	btfss	status,0,c
  1849  0038EA  0635               	decf	(dtoa@w+1)^(0+1280),f,c
  1850  0038EC                     
  1851                           ;C:\Program Files\Microchip\xc8\v2.32\pic\sources\c99\common\doprnt.c: 317:         n = 
      +                          n / 10;
  1852  0038EC  C538  F501         	movff	dtoa@n,___aodiv@dividend
  1853  0038F0  C539  F502         	movff	dtoa@n+1,___aodiv@dividend+1
  1854  0038F4  C53A  F503         	movff	dtoa@n+2,___aodiv@dividend+2
  1855  0038F8  C53B  F504         	movff	dtoa@n+3,___aodiv@dividend+3
  1856  0038FC  C53C  F505         	movff	dtoa@n+4,___aodiv@dividend+4
  1857  003900  C53D  F506         	movff	dtoa@n+5,___aodiv@dividend+5
  1858  003904  C53E  F507         	movff	dtoa@n+6,___aodiv@dividend+6
  1859  003908  C53F  F508         	movff	dtoa@n+7,___aodiv@dividend+7
  1860  00390C  0E0A               	movlw	10
  1861  00390E  6E09               	movwf	___aodiv@divisor^(0+1280),c
  1862  003910  0E00               	movlw	0
  1863  003912  6E0A               	movwf	(___aodiv@divisor+1)^(0+1280),c
  1864  003914  0E00               	movlw	0
  1865  003916  6E0B               	movwf	(___aodiv@divisor+2)^(0+1280),c
  1866  003918  0E00               	movlw	0
  1867  00391A  6E0C               	movwf	(___aodiv@divisor+3)^(0+1280),c
  1868  00391C  0E00               	movlw	0
  1869  00391E  6E0D               	movwf	(___aodiv@divisor+4)^(0+1280),c
  1870  003920  0E00               	movlw	0
  1871  003922  6E0E               	movwf	(___aodiv@divisor+5)^(0+1280),c
  1872  003924  0E00               	movlw	0
  1873  003926  6E0F               	movwf	(___aodiv@divisor+6)^(0+1280),c
  1874  003928  0E00               	movlw	0
  1875  00392A  6E10               	movwf	(___aodiv@divisor+7)^(0+1280),c
  1876  00392C  EC2B  F01E         	call	___aodiv	;wreg free
  1877  003930  C501  F538         	movff	?___aodiv,dtoa@n
  1878  003934  C502  F539         	movff	?___aodiv+1,dtoa@n+1
  1879  003938  C503  F53A         	movff	?___aodiv+2,dtoa@n+2
  1880  00393C  C504  F53B         	movff	?___aodiv+3,dtoa@n+3
  1881  003940  C505  F53C         	movff	?___aodiv+4,dtoa@n+4
  1882  003944  C506  F53D         	movff	?___aodiv+5,dtoa@n+5
  1883  003948  C507  F53E         	movff	?___aodiv+6,dtoa@n+6
  1884  00394C  C508  F53F         	movff	?___aodiv+7,dtoa@n+7
  1885  003950                     l4332:
  1886                           
  1887                           ;C:\Program Files\Microchip\xc8\v2.32\pic\sources\c99\common\doprnt.c: 312:     while (!
      +                          (i < 1) && (n || (0 < p) || ((0 < w) && (flags & (1 << 1))))) {
  1888  003950  BE41               	btfsc	(dtoa@i+1)^(0+1280),7,c
  1889  003952  EFB3  F01C         	goto	u2061
  1890  003956  5041               	movf	(dtoa@i+1)^(0+1280),w,c
  1891  003958  E108               	bnz	u2060
  1892  00395A  0440               	decf	dtoa@i^(0+1280),w,c
  1893  00395C  A0D8               	btfss	status,0,c
  1894  00395E  EFB3  F01C         	goto	u2061
  1895  003962  EFB5  F01C         	goto	u2060
  1896  003966                     u2061:
  1897  003966  EFE6  F01C         	goto	l4342
  1898  00396A                     u2060:
  1899  00396A  5038               	movf	dtoa@n^(0+1280),w,c
  1900  00396C  1039               	iorwf	(dtoa@n+1)^(0+1280),w,c
  1901  00396E  103A               	iorwf	(dtoa@n+2)^(0+1280),w,c
  1902  003970  103B               	iorwf	(dtoa@n+3)^(0+1280),w,c
  1903  003972  103C               	iorwf	(dtoa@n+4)^(0+1280),w,c
  1904  003974  103D               	iorwf	(dtoa@n+5)^(0+1280),w,c
  1905  003976  103E               	iorwf	(dtoa@n+6)^(0+1280),w,c
  1906  003978  103F               	iorwf	(dtoa@n+7)^(0+1280),w,c
  1907  00397A  A4D8               	btfss	status,2,c
  1908  00397C  EFC2  F01C         	goto	u2071
  1909  003980  EFC4  F01C         	goto	u2070
  1910  003984                     u2071:
  1911  003984  EF2C  F01C         	goto	l4322
  1912  003988                     u2070:
  1913  003988  BE33               	btfsc	(dtoa@p+1)^(0+1280),7,c
  1914  00398A  EFD1  F01C         	goto	u2080
  1915  00398E  5033               	movf	(dtoa@p+1)^(0+1280),w,c
  1916  003990  E106               	bnz	u2081
  1917  003992  0432               	decf	dtoa@p^(0+1280),w,c
  1918  003994  B0D8               	btfsc	status,0,c
  1919  003996  EFCF  F01C         	goto	u2081
  1920  00399A  EFD1  F01C         	goto	u2080
  1921  00399E                     u2081:
  1922  00399E  EF2C  F01C         	goto	l4322
  1923  0039A2                     u2080:
  1924  0039A2  BE35               	btfsc	(dtoa@w+1)^(0+1280),7,c
  1925  0039A4  EFDC  F01C         	goto	u2091
  1926  0039A8  5035               	movf	(dtoa@w+1)^(0+1280),w,c
  1927  0039AA  E108               	bnz	u2090
  1928  0039AC  0434               	decf	dtoa@w^(0+1280),w,c
  1929  0039AE  A0D8               	btfss	status,0,c
  1930  0039B0  EFDC  F01C         	goto	u2091
  1931  0039B4  EFDE  F01C         	goto	u2090
  1932  0039B8                     u2091:
  1933  0039B8  EFE6  F01C         	goto	l4342
  1934  0039BC                     u2090:
  1935  0039BC  0105               	movlb	5	; () banked
  1936  0039BE  B390               	btfsc	_flags& (0+255),1,b
  1937  0039C0  EFE4  F01C         	goto	u2101
  1938  0039C4  EFE6  F01C         	goto	u2100
  1939  0039C8                     u2101:
  1940  0039C8  EF2C  F01C         	goto	l4322
  1941  0039CC                     u2100:
  1942  0039CC                     l4342:
  1943                           
  1944                           ;C:\Program Files\Microchip\xc8\v2.32\pic\sources\c99\common\doprnt.c: 321:     if (s ||
      +                           (flags & (1 << 2))) {
  1945  0039CC  5036               	movf	dtoa@s^(0+1280),w,c
  1946  0039CE  1037               	iorwf	(dtoa@s+1)^(0+1280),w,c
  1947  0039D0  A4D8               	btfss	status,2,c
  1948  0039D2  EFED  F01C         	goto	u2111
  1949  0039D6  EFEF  F01C         	goto	u2110
  1950  0039DA                     u2111:
  1951  0039DA  EFF7  F01C         	goto	l4346
  1952  0039DE                     u2110:
  1953  0039DE  0105               	movlb	5	; () banked
  1954  0039E0  A590               	btfss	_flags& (0+255),2,b
  1955  0039E2  EFF5  F01C         	goto	u2121
  1956  0039E6  EFF7  F01C         	goto	u2120
  1957  0039EA                     u2121:
  1958  0039EA  EF16  F01D         	goto	l4356
  1959  0039EE                     u2120:
  1960  0039EE                     l4346:
  1961                           
  1962                           ;C:\Program Files\Microchip\xc8\v2.32\pic\sources\c99\common\doprnt.c: 322:         --i;
  1963  0039EE  0640               	decf	dtoa@i^(0+1280),f,c
  1964  0039F0  A0D8               	btfss	status,0,c
  1965  0039F2  0641               	decf	(dtoa@i+1)^(0+1280),f,c
  1966  0039F4                     
  1967                           ;C:\Program Files\Microchip\xc8\v2.32\pic\sources\c99\common\doprnt.c: 323:         dbuf
      +                          [i] = s ? '-' : '+';
  1968  0039F4  5036               	movf	dtoa@s^(0+1280),w,c
  1969  0039F6  1037               	iorwf	(dtoa@s+1)^(0+1280),w,c
  1970  0039F8  A4D8               	btfss	status,2,c
  1971  0039FA  EF01  F01D         	goto	u2131
  1972  0039FE  EF03  F01D         	goto	u2130
  1973  003A02                     u2131:
  1974  003A02  EF09  F01D         	goto	l4352
  1975  003A06                     u2130:
  1976  003A06  0E00               	movlw	0
  1977  003A08  6E31               	movwf	(_dtoa$2441+1)^(0+1280),c
  1978  003A0A  0E2B               	movlw	43
  1979  003A0C  6E30               	movwf	_dtoa$2441^(0+1280),c
  1980  003A0E  EF0D  F01D         	goto	l4354
  1981  003A12                     l4352:
  1982  003A12  0E00               	movlw	0
  1983  003A14  6E31               	movwf	(_dtoa$2441+1)^(0+1280),c
  1984  003A16  0E2D               	movlw	45
  1985  003A18  6E30               	movwf	_dtoa$2441^(0+1280),c
  1986  003A1A                     l4354:
  1987  003A1A  0E98               	movlw	low _dbuf
  1988  003A1C  2440               	addwf	dtoa@i^(0+1280),w,c
  1989  003A1E  6ED9               	movwf	fsr2l,c
  1990  003A20  0E05               	movlw	high _dbuf
  1991  003A22  2041               	addwfc	(dtoa@i+1)^(0+1280),w,c
  1992  003A24  6EDA               	movwf	fsr2h,c
  1993  003A26  0061  F4C0  F4DF   	movff	_dtoa$2441,indf2
  1994  003A2C                     l4356:
  1995                           
  1996                           ;C:\Program Files\Microchip\xc8\v2.32\pic\sources\c99\common\doprnt.c: 327:     return p
      +                          ad(fp, &dbuf[i], w);
  1997  003A2C  C51E  F513         	movff	dtoa@fp,pad@fp
  1998  003A30  C51F  F514         	movff	dtoa@fp+1,pad@fp+1
  1999  003A34  0E98               	movlw	low _dbuf
  2000  003A36  2440               	addwf	dtoa@i^(0+1280),w,c
  2001  003A38  6E15               	movwf	pad@buf^(0+1280),c
  2002  003A3A  0E05               	movlw	high _dbuf
  2003  003A3C  2041               	addwfc	(dtoa@i+1)^(0+1280),w,c
  2004  003A3E  6E16               	movwf	(pad@buf+1)^(0+1280),c
  2005  003A40  C534  F517         	movff	dtoa@w,pad@p
  2006  003A44  C535  F518         	movff	dtoa@w+1,pad@p+1
  2007  003A48  ECA0  F020         	call	_pad	;wreg free
  2008  003A4C  C513  F51E         	movff	?_pad,?_dtoa
  2009  003A50  C514  F51F         	movff	?_pad+1,?_dtoa+1
  2010  003A54  0012               	return		;funcret
  2011  003A56                     __end_of_dtoa:
  2012                           	callstack 0
  2013                           
  2014 ;; *************** function _pad *****************
  2015 ;; Defined at:
  2016 ;;		line 72 in file "C:\Program Files\Microchip\xc8\v2.32\pic\sources\c99\common\doprnt.c"
  2017 ;; Parameters:    Size  Location     Type
  2018 ;;  fp              2   18[COMRAM] PTR struct _IO_FILE
  2019 ;;		 -> sprintf@f(6), NULL(0), 
  2020 ;;  buf             2   20[COMRAM] PTR unsigned char 
  2021 ;;		 -> dbuf(32), 
  2022 ;;  p               2   22[COMRAM] int 
  2023 ;; Auto vars:     Size  Location     Type
  2024 ;;  w               2   27[COMRAM] int 
  2025 ;;  i               2   25[COMRAM] int 
  2026 ;; Return value:  Size  Location     Type
  2027 ;;                  2   18[COMRAM] int 
  2028 ;; Registers used:
  2029 ;;		wreg, fsr1l, fsr1h, fsr2l, fsr2h, status,2, status,0, cstack
  2030 ;; Tracked objects:
  2031 ;;		On entry : 0/0
  2032 ;;		On exit  : 0/0
  2033 ;;		Unchanged: 0/0
  2034 ;; Data sizes:     COMRAM   BANK5   BANK6   BANK7   BANK8   BANK9  BANK10  BANK11  BANK12  BANK13  BANK14  BANK15  BANK1
      +6  BANK17  BANK18  BANK19  BANK20  BANK21  BANK22  BANK23  BANK24  BANK25  BANK26  BANK27  BANK28  BANK29  BANK30  BANK3
      +1  BANK32  BANK33  BANK34  BANK35  BANK36  BANK37  BANK38  BANK39  BANK40  BANK41  BANK42  BANK43  BANK44  BANK45  BANK4
      +6  BANK47  BANK48  BANK49  BANK50  BANK51  BANK52  BANK53  BANK54
  2035 ;;      Params:         6       0       0       0       0       0       0       0       0       0       0       0       
      +0       0       0       0       0       0       0       0       0       0       0       0       0       0       0       
      +0       0       0       0       0       0       0       0       0       0       0       0       0       0       0       
      +0       0       0       0       0       0       0       0       0
  2036 ;;      Locals:         4       0       0       0       0       0       0       0       0       0       0       0       
      +0       0       0       0       0       0       0       0       0       0       0       0       0       0       0       
      +0       0       0       0       0       0       0       0       0       0       0       0       0       0       0       
      +0       0       0       0       0       0       0       0       0
  2037 ;;      Temps:          1       0       0       0       0       0       0       0       0       0       0       0       
      +0       0       0       0       0       0       0       0       0       0       0       0       0       0       0       
      +0       0       0       0       0       0       0       0       0       0       0       0       0       0       0       
      +0       0       0       0       0       0       0       0       0
  2038 ;;      Totals:        11       0       0       0       0       0       0       0       0       0       0       0       
      +0       0       0       0       0       0       0       0       0       0       0       0       0       0       0       
      +0       0       0       0       0       0       0       0       0       0       0       0       0       0       0       
      +0       0       0       0       0       0       0       0       0
  2039 ;;Total ram usage:       11 bytes
  2040 ;; Hardware stack levels used: 1
  2041 ;; Hardware stack levels required when called: 4
  2042 ;; This function calls:
  2043 ;;		_fputc
  2044 ;;		_fputs
  2045 ;;		_strlen
  2046 ;; This function is called by:
  2047 ;;		_dtoa
  2048 ;; This function uses a non-reentrant model
  2049 ;;
  2050                           
  2051                           	psect	text6
  2052  004140                     __ptext6:
  2053                           	callstack 0
  2054  004140                     _pad:
  2055                           	callstack 118
  2056  004140                     
  2057                           ;C:\Program Files\Microchip\xc8\v2.32\pic\sources\c99\common\doprnt.c: 72: static int pa
      +                          d(FILE *fp, char *buf, int p);C:\Program Files\Microchip\xc8\v2.32\pic\sources\c99\commo
      +                          n\doprnt.c: 73: {;C:\Program Files\Microchip\xc8\v2.32\pic\sources\c99\common\doprnt.c: 
      +                          74:     int i, w;;C:\Program Files\Microchip\xc8\v2.32\pic\sources\c99\common\doprnt.c: 
      +                          77:     if (flags & (1 << 0)) {
  2058  004140  0105               	movlb	5	; () banked
  2059  004142  A190               	btfss	_flags& (0+255),0,b
  2060  004144  EFA6  F020         	goto	u1891
  2061  004148  EFA8  F020         	goto	u1890
  2062  00414C                     u1891:
  2063  00414C  EFB2  F020         	goto	l4236
  2064  004150                     u1890:
  2065  004150                     
  2066                           ; BSR set to: 5
  2067                           ;C:\Program Files\Microchip\xc8\v2.32\pic\sources\c99\common\doprnt.c: 78:         fputs
      +                          ((const char *)buf, fp);
  2068  004150  C515  F50C         	movff	pad@buf,fputs@s
  2069  004154  C516  F50D         	movff	pad@buf+1,fputs@s+1
  2070  004158  C513  F50E         	movff	pad@fp,fputs@fp
  2071  00415C  C514  F50F         	movff	pad@fp+1,fputs@fp+1
  2072  004160  ECF4  F026         	call	_fputs	;wreg free
  2073  004164                     l4236:
  2074                           
  2075                           ;C:\Program Files\Microchip\xc8\v2.32\pic\sources\c99\common\doprnt.c: 82:     w = (p < 
      +                          0) ? 0 : p;
  2076  004164  BE18               	btfsc	(pad@p+1)^(0+1280),7,c
  2077  004166  EFB7  F020         	goto	u1901
  2078  00416A  EFB9  F020         	goto	u1900
  2079  00416E                     u1901:
  2080  00416E  EFBF  F020         	goto	l4240
  2081  004172                     u1900:
  2082  004172  C517  F51C         	movff	pad@p,pad@w
  2083  004176  C518  F51D         	movff	pad@p+1,pad@w+1
  2084  00417A  EFC3  F020         	goto	l1865
  2085  00417E                     l4240:
  2086  00417E  0E00               	movlw	0
  2087  004180  6E1D               	movwf	(pad@w+1)^(0+1280),c
  2088  004182  0E00               	movlw	0
  2089  004184  6E1C               	movwf	pad@w^(0+1280),c
  2090  004186                     l1865:
  2091                           
  2092                           ;C:\Program Files\Microchip\xc8\v2.32\pic\sources\c99\common\doprnt.c: 83:     i = 0;
  2093  004186  0E00               	movlw	0
  2094  004188  6E1B               	movwf	(pad@i+1)^(0+1280),c
  2095  00418A  0E00               	movlw	0
  2096  00418C  6E1A               	movwf	pad@i^(0+1280),c
  2097                           
  2098                           ;C:\Program Files\Microchip\xc8\v2.32\pic\sources\c99\common\doprnt.c: 84:     while (i 
      +                          < w) {
  2099  00418E  EFD5  F020         	goto	l4246
  2100  004192                     l4242:
  2101                           
  2102                           ;C:\Program Files\Microchip\xc8\v2.32\pic\sources\c99\common\doprnt.c: 85:         fputc
      +                          (' ', fp);
  2103  004192  0E00               	movlw	0
  2104  004194  6E04               	movwf	(fputc@c+1)^(0+1280),c
  2105  004196  0E20               	movlw	32
  2106  004198  6E03               	movwf	fputc@c^(0+1280),c
  2107  00419A  C513  F505         	movff	pad@fp,fputc@fp
  2108  00419E  C514  F506         	movff	pad@fp+1,fputc@fp+1
  2109  0041A2  EC34  F020         	call	_fputc	;wreg free
  2110  0041A6                     
  2111                           ;C:\Program Files\Microchip\xc8\v2.32\pic\sources\c99\common\doprnt.c: 86:         ++i;
  2112  0041A6  4A1A               	infsnz	pad@i^(0+1280),f,c
  2113  0041A8  2A1B               	incf	(pad@i+1)^(0+1280),f,c
  2114  0041AA                     l4246:
  2115                           
  2116                           ;C:\Program Files\Microchip\xc8\v2.32\pic\sources\c99\common\doprnt.c: 84:     while (i 
      +                          < w) {
  2117  0041AA  501C               	movf	pad@w^(0+1280),w,c
  2118  0041AC  5C1A               	subwf	pad@i^(0+1280),w,c
  2119  0041AE  501B               	movf	(pad@i+1)^(0+1280),w,c
  2120  0041B0  0A80               	xorlw	128
  2121  0041B2  6E19               	movwf	??_pad^(0+1280),c
  2122  0041B4  501D               	movf	(pad@w+1)^(0+1280),w,c
  2123  0041B6  0A80               	xorlw	128
  2124  0041B8  5819               	subwfb	??_pad^(0+1280),w,c
  2125  0041BA  A0D8               	btfss	status,0,c
  2126  0041BC  EFE2  F020         	goto	u1911
  2127  0041C0  EFE4  F020         	goto	u1910
  2128  0041C4                     u1911:
  2129  0041C4  EFC9  F020         	goto	l4242
  2130  0041C8                     u1910:
  2131  0041C8                     
  2132                           ;C:\Program Files\Microchip\xc8\v2.32\pic\sources\c99\common\doprnt.c: 90:     if (!(fla
      +                          gs & (1 << 0))) {
  2133  0041C8  0105               	movlb	5	; () banked
  2134  0041CA  B190               	btfsc	_flags& (0+255),0,b
  2135  0041CC  EFEA  F020         	goto	u1921
  2136  0041D0  EFEC  F020         	goto	u1920
  2137  0041D4                     u1921:
  2138  0041D4  EFF6  F020         	goto	l4250
  2139  0041D8                     u1920:
  2140  0041D8                     
  2141                           ; BSR set to: 5
  2142                           ;C:\Program Files\Microchip\xc8\v2.32\pic\sources\c99\common\doprnt.c: 91:         fputs
      +                          ((const char *)buf, fp);
  2143  0041D8  C515  F50C         	movff	pad@buf,fputs@s
  2144  0041DC  C516  F50D         	movff	pad@buf+1,fputs@s+1
  2145  0041E0  C513  F50E         	movff	pad@fp,fputs@fp
  2146  0041E4  C514  F50F         	movff	pad@fp+1,fputs@fp+1
  2147  0041E8  ECF4  F026         	call	_fputs	;wreg free
  2148  0041EC                     l4250:
  2149                           
  2150                           ;C:\Program Files\Microchip\xc8\v2.32\pic\sources\c99\common\doprnt.c: 94:     return (i
      +                          nt)(strlen(buf) + (size_t)w);
  2151  0041EC  C515  F501         	movff	pad@buf,strlen@s
  2152  0041F0  C516  F502         	movff	pad@buf+1,strlen@s+1
  2153  0041F4  EC36  F027         	call	_strlen	;wreg free
  2154  0041F8  501C               	movf	pad@w^(0+1280),w,c
  2155  0041FA  2401               	addwf	?_strlen^(0+1280),w,c
  2156  0041FC  6E13               	movwf	?_pad^(0+1280),c
  2157  0041FE  501D               	movf	(pad@w+1)^(0+1280),w,c
  2158  004200  2002               	addwfc	(?_strlen+1)^(0+1280),w,c
  2159  004202  6E14               	movwf	(?_pad+1)^(0+1280),c
  2160  004204  0012               	return		;funcret
  2161  004206                     __end_of_pad:
  2162                           	callstack 0
  2163                           
  2164 ;; *************** function _strlen *****************
  2165 ;; Defined at:
  2166 ;;		line 5 in file "C:\Program Files\Microchip\xc8\v2.32\pic\sources\c99\common\strlen.c"
  2167 ;; Parameters:    Size  Location     Type
  2168 ;;  s               2    0[COMRAM] PTR const unsigned char 
  2169 ;;		 -> dbuf(32), 
  2170 ;; Auto vars:     Size  Location     Type
  2171 ;;  a               2    2[COMRAM] PTR const unsigned char 
  2172 ;;		 -> dbuf(32), 
  2173 ;; Return value:  Size  Location     Type
  2174 ;;                  2    0[COMRAM] unsigned int 
  2175 ;; Registers used:
  2176 ;;		wreg, fsr2l, fsr2h, status,2, status,0
  2177 ;; Tracked objects:
  2178 ;;		On entry : 0/0
  2179 ;;		On exit  : 0/0
  2180 ;;		Unchanged: 0/0
  2181 ;; Data sizes:     COMRAM   BANK5   BANK6   BANK7   BANK8   BANK9  BANK10  BANK11  BANK12  BANK13  BANK14  BANK15  BANK1
      +6  BANK17  BANK18  BANK19  BANK20  BANK21  BANK22  BANK23  BANK24  BANK25  BANK26  BANK27  BANK28  BANK29  BANK30  BANK3
      +1  BANK32  BANK33  BANK34  BANK35  BANK36  BANK37  BANK38  BANK39  BANK40  BANK41  BANK42  BANK43  BANK44  BANK45  BANK4
      +6  BANK47  BANK48  BANK49  BANK50  BANK51  BANK52  BANK53  BANK54
  2182 ;;      Params:         2       0       0       0       0       0       0       0       0       0       0       0       
      +0       0       0       0       0       0       0       0       0       0       0       0       0       0       0       
      +0       0       0       0       0       0       0       0       0       0       0       0       0       0       0       
      +0       0       0       0       0       0       0       0       0
  2183 ;;      Locals:         2       0       0       0       0       0       0       0       0       0       0       0       
      +0       0       0       0       0       0       0       0       0       0       0       0       0       0       0       
      +0       0       0       0       0       0       0       0       0       0       0       0       0       0       0       
      +0       0       0       0       0       0       0       0       0
  2184 ;;      Temps:          0       0       0       0       0       0       0       0       0       0       0       0       
      +0       0       0       0       0       0       0       0       0       0       0       0       0       0       0       
      +0       0       0       0       0       0       0       0       0       0       0       0       0       0       0       
      +0       0       0       0       0       0       0       0       0
  2185 ;;      Totals:         4       0       0       0       0       0       0       0       0       0       0       0       
      +0       0       0       0       0       0       0       0       0       0       0       0       0       0       0       
      +0       0       0       0       0       0       0       0       0       0       0       0       0       0       0       
      +0       0       0       0       0       0       0       0       0
  2186 ;;Total ram usage:        4 bytes
  2187 ;; Hardware stack levels used: 1
  2188 ;; This function calls:
  2189 ;;		Nothing
  2190 ;; This function is called by:
  2191 ;;		_pad
  2192 ;; This function uses a non-reentrant model
  2193 ;;
  2194                           
  2195                           	psect	text7
  2196  004E6C                     __ptext7:
  2197                           	callstack 0
  2198  004E6C                     _strlen:
  2199                           	callstack 121
  2200  004E6C  C501  F503         	movff	strlen@s,strlen@a
  2201  004E70  C502  F504         	movff	strlen@s+1,strlen@a+1
  2202  004E74  EF3E  F027         	goto	l4144
  2203  004E78                     l4142:
  2204  004E78  4A01               	infsnz	strlen@s^(0+1280),f,c
  2205  004E7A  2A02               	incf	(strlen@s+1)^(0+1280),f,c
  2206  004E7C                     l4144:
  2207  004E7C  0061  F404  F4D9   	movff	strlen@s,fsr2l
  2208  004E82  0061  F408  F4DA   	movff	strlen@s+1,fsr2h
  2209  004E88  50DF               	movf	indf2,w,c
  2210  004E8A  A4D8               	btfss	status,2,c
  2211  004E8C  EF4A  F027         	goto	u1751
  2212  004E90  EF4C  F027         	goto	u1750
  2213  004E94                     u1751:
  2214  004E94  EF3C  F027         	goto	l4142
  2215  004E98                     u1750:
  2216  004E98  5003               	movf	strlen@a^(0+1280),w,c
  2217  004E9A  5C01               	subwf	strlen@s^(0+1280),w,c
  2218  004E9C  6E01               	movwf	?_strlen^(0+1280),c
  2219  004E9E  5004               	movf	(strlen@a+1)^(0+1280),w,c
  2220  004EA0  5802               	subwfb	(strlen@s+1)^(0+1280),w,c
  2221  004EA2  6E02               	movwf	(?_strlen+1)^(0+1280),c
  2222  004EA4  0012               	return		;funcret
  2223  004EA6                     __end_of_strlen:
  2224                           	callstack 0
  2225                           
  2226 ;; *************** function _fputs *****************
  2227 ;; Defined at:
  2228 ;;		line 8 in file "C:\Program Files\Microchip\xc8\v2.32\pic\sources\c99\common\nf_fputs.c"
  2229 ;; Parameters:    Size  Location     Type
  2230 ;;  s               2   11[COMRAM] PTR const unsigned char 
  2231 ;;		 -> dbuf(32), 
  2232 ;;  fp              2   13[COMRAM] PTR struct _IO_FILE
  2233 ;;		 -> sprintf@f(6), NULL(0), 
  2234 ;; Auto vars:     Size  Location     Type
  2235 ;;  i               2   16[COMRAM] int 
  2236 ;;  c               1   15[COMRAM] unsigned char 
  2237 ;; Return value:  Size  Location     Type
  2238 ;;                  2   11[COMRAM] int 
  2239 ;; Registers used:
  2240 ;;		wreg, fsr1l, fsr1h, fsr2l, fsr2h, status,2, status,0, cstack
  2241 ;; Tracked objects:
  2242 ;;		On entry : 0/0
  2243 ;;		On exit  : 0/0
  2244 ;;		Unchanged: 0/0
  2245 ;; Data sizes:     COMRAM   BANK5   BANK6   BANK7   BANK8   BANK9  BANK10  BANK11  BANK12  BANK13  BANK14  BANK15  BANK1
      +6  BANK17  BANK18  BANK19  BANK20  BANK21  BANK22  BANK23  BANK24  BANK25  BANK26  BANK27  BANK28  BANK29  BANK30  BANK3
      +1  BANK32  BANK33  BANK34  BANK35  BANK36  BANK37  BANK38  BANK39  BANK40  BANK41  BANK42  BANK43  BANK44  BANK45  BANK4
      +6  BANK47  BANK48  BANK49  BANK50  BANK51  BANK52  BANK53  BANK54
  2246 ;;      Params:         4       0       0       0       0       0       0       0       0       0       0       0       
      +0       0       0       0       0       0       0       0       0       0       0       0       0       0       0       
      +0       0       0       0       0       0       0       0       0       0       0       0       0       0       0       
      +0       0       0       0       0       0       0       0       0
  2247 ;;      Locals:         3       0       0       0       0       0       0       0       0       0       0       0       
      +0       0       0       0       0       0       0       0       0       0       0       0       0       0       0       
      +0       0       0       0       0       0       0       0       0       0       0       0       0       0       0       
      +0       0       0       0       0       0       0       0       0
  2248 ;;      Temps:          0       0       0       0       0       0       0       0       0       0       0       0       
      +0       0       0       0       0       0       0       0       0       0       0       0       0       0       0       
      +0       0       0       0       0       0       0       0       0       0       0       0       0       0       0       
      +0       0       0       0       0       0       0       0       0
  2249 ;;      Totals:         7       0       0       0       0       0       0       0       0       0       0       0       
      +0       0       0       0       0       0       0       0       0       0       0       0       0       0       0       
      +0       0       0       0       0       0       0       0       0       0       0       0       0       0       0       
      +0       0       0       0       0       0       0       0       0
  2250 ;;Total ram usage:        7 bytes
  2251 ;; Hardware stack levels used: 1
  2252 ;; Hardware stack levels required when called: 3
  2253 ;; This function calls:
  2254 ;;		_fputc
  2255 ;; This function is called by:
  2256 ;;		_pad
  2257 ;; This function uses a non-reentrant model
  2258 ;;
  2259                           
  2260                           	psect	text8
  2261  004DE8                     __ptext8:
  2262                           	callstack 0
  2263  004DE8                     _fputs:
  2264                           	callstack 118
  2265  004DE8  0E00               	movlw	0
  2266  004DEA  6E12               	movwf	(fputs@i+1)^(0+1280),c
  2267  004DEC  0E00               	movlw	0
  2268  004DEE  6E11               	movwf	fputs@i^(0+1280),c
  2269  004DF0  EF05  F027         	goto	l4138
  2270  004DF4                     l4134:
  2271  004DF4  C510  F503         	movff	fputs@c,fputc@c
  2272  004DF8  6A04               	clrf	(fputc@c+1)^(0+1280),c
  2273  004DFA  C50E  F505         	movff	fputs@fp,fputc@fp
  2274  004DFE  C50F  F506         	movff	fputs@fp+1,fputc@fp+1
  2275  004E02  EC34  F020         	call	_fputc	;wreg free
  2276  004E06  4A11               	infsnz	fputs@i^(0+1280),f,c
  2277  004E08  2A12               	incf	(fputs@i+1)^(0+1280),f,c
  2278  004E0A                     l4138:
  2279  004E0A  5011               	movf	fputs@i^(0+1280),w,c
  2280  004E0C  240C               	addwf	fputs@s^(0+1280),w,c
  2281  004E0E  6ED9               	movwf	fsr2l,c
  2282  004E10  5012               	movf	(fputs@i+1)^(0+1280),w,c
  2283  004E12  200D               	addwfc	(fputs@s+1)^(0+1280),w,c
  2284  004E14  6EDA               	movwf	fsr2h,c
  2285  004E16  50DF               	movf	indf2,w,c
  2286  004E18  6E10               	movwf	fputs@c^(0+1280),c
  2287  004E1A  5010               	movf	fputs@c^(0+1280),w,c
  2288  004E1C  A4D8               	btfss	status,2,c
  2289  004E1E  EF13  F027         	goto	u1741
  2290  004E22  EF15  F027         	goto	u1740
  2291  004E26                     u1741:
  2292  004E26  EFFA  F026         	goto	l4134
  2293  004E2A                     u1740:
  2294  004E2A  0012               	return		;funcret
  2295  004E2C                     __end_of_fputs:
  2296                           	callstack 0
  2297                           
  2298 ;; *************** function _fputc *****************
  2299 ;; Defined at:
  2300 ;;		line 8 in file "C:\Program Files\Microchip\xc8\v2.32\pic\sources\c99\common\nf_fputc.c"
  2301 ;; Parameters:    Size  Location     Type
  2302 ;;  c               2    2[COMRAM] int 
  2303 ;;  fp              2    4[COMRAM] PTR struct _IO_FILE
  2304 ;;		 -> sprintf@f(6), NULL(0), 
  2305 ;; Auto vars:     Size  Location     Type
  2306 ;;		None
  2307 ;; Return value:  Size  Location     Type
  2308 ;;                  2    2[COMRAM] int 
  2309 ;; Registers used:
  2310 ;;		wreg, fsr1l, fsr1h, fsr2l, fsr2h, status,2, status,0, cstack
  2311 ;; Tracked objects:
  2312 ;;		On entry : 0/0
  2313 ;;		On exit  : 0/0
  2314 ;;		Unchanged: 0/0
  2315 ;; Data sizes:     COMRAM   BANK5   BANK6   BANK7   BANK8   BANK9  BANK10  BANK11  BANK12  BANK13  BANK14  BANK15  BANK1
      +6  BANK17  BANK18  BANK19  BANK20  BANK21  BANK22  BANK23  BANK24  BANK25  BANK26  BANK27  BANK28  BANK29  BANK30  BANK3
      +1  BANK32  BANK33  BANK34  BANK35  BANK36  BANK37  BANK38  BANK39  BANK40  BANK41  BANK42  BANK43  BANK44  BANK45  BANK4
      +6  BANK47  BANK48  BANK49  BANK50  BANK51  BANK52  BANK53  BANK54
  2316 ;;      Params:         4       0       0       0       0       0       0       0       0       0       0       0       
      +0       0       0       0       0       0       0       0       0       0       0       0       0       0       0       
      +0       0       0       0       0       0       0       0       0       0       0       0       0       0       0       
      +0       0       0       0       0       0       0       0       0
  2317 ;;      Locals:         0       0       0       0       0       0       0       0       0       0       0       0       
      +0       0       0       0       0       0       0       0       0       0       0       0       0       0       0       
      +0       0       0       0       0       0       0       0       0       0       0       0       0       0       0       
      +0       0       0       0       0       0       0       0       0
  2318 ;;      Temps:          5       0       0       0       0       0       0       0       0       0       0       0       
      +0       0       0       0       0       0       0       0       0       0       0       0       0       0       0       
      +0       0       0       0       0       0       0       0       0       0       0       0       0       0       0       
      +0       0       0       0       0       0       0       0       0
  2319 ;;      Totals:         9       0       0       0       0       0       0       0       0       0       0       0       
      +0       0       0       0       0       0       0       0       0       0       0       0       0       0       0       
      +0       0       0       0       0       0       0       0       0       0       0       0       0       0       0       
      +0       0       0       0       0       0       0       0       0
  2320 ;;Total ram usage:        9 bytes
  2321 ;; Hardware stack levels used: 1
  2322 ;; Hardware stack levels required when called: 2
  2323 ;; This function calls:
  2324 ;;		_putch
  2325 ;; This function is called by:
  2326 ;;		_pad
  2327 ;;		_vfpfcnvrt
  2328 ;;		_fputs
  2329 ;; This function uses a non-reentrant model
  2330 ;;
  2331                           
  2332                           	psect	text9
  2333  004068                     __ptext9:
  2334                           	callstack 0
  2335  004068                     _fputc:
  2336                           	callstack 121
  2337  004068  5005               	movf	fputc@fp^(0+1280),w,c
  2338  00406A  1006               	iorwf	(fputc@fp+1)^(0+1280),w,c
  2339  00406C  B4D8               	btfsc	status,2,c
  2340  00406E  EF3B  F020         	goto	u1681
  2341  004072  EF3D  F020         	goto	u1680
  2342  004076                     u1681:
  2343  004076  EF46  F020         	goto	l4108
  2344  00407A                     u1680:
  2345  00407A  5005               	movf	fputc@fp^(0+1280),w,c
  2346  00407C  1006               	iorwf	(fputc@fp+1)^(0+1280),w,c
  2347  00407E  A4D8               	btfss	status,2,c
  2348  004080  EF44  F020         	goto	u1691
  2349  004084  EF46  F020         	goto	u1690
  2350  004088                     u1691:
  2351  004088  EF4B  F020         	goto	l4110
  2352  00408C                     u1690:
  2353  00408C                     l4108:
  2354  00408C  5003               	movf	fputc@c^(0+1280),w,c
  2355  00408E  ECA1  F029         	call	_putch
  2356  004092  EF9F  F020         	goto	l1929
  2357  004096                     l4110:
  2358  004096  EE20 F004          	lfsr	2,4
  2359  00409A  5005               	movf	fputc@fp^(0+1280),w,c
  2360  00409C  26D9               	addwf	fsr2l,f,c
  2361  00409E  5006               	movf	(fputc@fp+1)^(0+1280),w,c
  2362  0040A0  22DA               	addwfc	fsr2h,f,c
  2363  0040A2  50DE               	movf	postinc2,w,c
  2364  0040A4  10DE               	iorwf	postinc2,w,c
  2365  0040A6  B4D8               	btfsc	status,2,c
  2366  0040A8  EF58  F020         	goto	u1701
  2367  0040AC  EF5A  F020         	goto	u1700
  2368  0040B0                     u1701:
  2369  0040B0  EF75  F020         	goto	l4114
  2370  0040B4                     u1700:
  2371  0040B4  EE20 F004          	lfsr	2,4
  2372  0040B8  5005               	movf	fputc@fp^(0+1280),w,c
  2373  0040BA  26D9               	addwf	fsr2l,f,c
  2374  0040BC  5006               	movf	(fputc@fp+1)^(0+1280),w,c
  2375  0040BE  22DA               	addwfc	fsr2h,f,c
  2376  0040C0  EE10 F002          	lfsr	1,2
  2377  0040C4  5005               	movf	fputc@fp^(0+1280),w,c
  2378  0040C6  26E1               	addwf	fsr1l,f,c
  2379  0040C8  5006               	movf	(fputc@fp+1)^(0+1280),w,c
  2380  0040CA  22E2               	addwfc	fsr1h,f,c
  2381  0040CC  50DE               	movf	postinc2,w,c
  2382  0040CE  5CE6               	subwf	postinc1,w,c
  2383  0040D0  50E6               	movf	postinc1,w,c
  2384  0040D2  0A80               	xorlw	128
  2385  0040D4  6E0B               	movwf	(??_fputc+4)^(0+1280),c
  2386  0040D6  50DE               	movf	postinc2,w,c
  2387  0040D8  0A80               	xorlw	128
  2388  0040DA  580B               	subwfb	(??_fputc+4)^(0+1280),w,c
  2389  0040DC  B0D8               	btfsc	status,0,c
  2390  0040DE  EF73  F020         	goto	u1711
  2391  0040E2  EF75  F020         	goto	u1710
  2392  0040E6                     u1711:
  2393  0040E6  EF9F  F020         	goto	l1929
  2394  0040EA                     u1710:
  2395  0040EA                     l4114:
  2396  0040EA  EE20 F002          	lfsr	2,2
  2397  0040EE  5005               	movf	fputc@fp^(0+1280),w,c
  2398  0040F0  26D9               	addwf	fsr2l,f,c
  2399  0040F2  5006               	movf	(fputc@fp+1)^(0+1280),w,c
  2400  0040F4  22DA               	addwfc	fsr2h,f,c
  2401  0040F6  0061 F378  F507    	movff	postinc2,??_fputc
  2402  0040FC  0061 F374  F508    	movff	postdec2,??_fputc+1
  2403  004102  0061  F414  F4D9   	movff	fputc@fp,fsr2l
  2404  004108  0061  F418  F4DA   	movff	fputc@fp+1,fsr2h
  2405  00410E  0061 F378  F509    	movff	postinc2,??_fputc+2
  2406  004114  0061 F374  F50A    	movff	postdec2,??_fputc+3
  2407  00411A  5007               	movf	??_fputc^(0+1280),w,c
  2408  00411C  2409               	addwf	(??_fputc+2)^(0+1280),w,c
  2409  00411E  6ED9               	movwf	fsr2l,c
  2410  004120  5008               	movf	(??_fputc+1)^(0+1280),w,c
  2411  004122  200A               	addwfc	(??_fputc+3)^(0+1280),w,c
  2412  004124  6EDA               	movwf	fsr2h,c
  2413  004126  0061  F40C  F4DF   	movff	fputc@c,indf2
  2414  00412C  EE20 F002          	lfsr	2,2
  2415  004130  5005               	movf	fputc@fp^(0+1280),w,c
  2416  004132  26D9               	addwf	fsr2l,f,c
  2417  004134  5006               	movf	(fputc@fp+1)^(0+1280),w,c
  2418  004136  22DA               	addwfc	fsr2h,f,c
  2419  004138  2ADE               	incf	postinc2,f,c
  2420  00413A  0E00               	movlw	0
  2421  00413C  22DD               	addwfc	postdec2,f,c
  2422  00413E                     l1929:
  2423  00413E  0012               	return		;funcret
  2424  004140                     __end_of_fputc:
  2425                           	callstack 0
  2426                           
  2427 ;; *************** function _putch *****************
  2428 ;; Defined at:
  2429 ;;		line 184 in file "mcc_generated_files/uart1.c"
  2430 ;; Parameters:    Size  Location     Type
  2431 ;;  txData          1    wreg     unsigned char 
  2432 ;; Auto vars:     Size  Location     Type
  2433 ;;  txData          1    1[COMRAM] unsigned char 
  2434 ;; Return value:  Size  Location     Type
  2435 ;;                  1    wreg      void 
  2436 ;; Registers used:
  2437 ;;		wreg, status,2, cstack
  2438 ;; Tracked objects:
  2439 ;;		On entry : 0/0
  2440 ;;		On exit  : 0/0
  2441 ;;		Unchanged: 0/0
  2442 ;; Data sizes:     COMRAM   BANK5   BANK6   BANK7   BANK8   BANK9  BANK10  BANK11  BANK12  BANK13  BANK14  BANK15  BANK1
      +6  BANK17  BANK18  BANK19  BANK20  BANK21  BANK22  BANK23  BANK24  BANK25  BANK26  BANK27  BANK28  BANK29  BANK30  BANK3
      +1  BANK32  BANK33  BANK34  BANK35  BANK36  BANK37  BANK38  BANK39  BANK40  BANK41  BANK42  BANK43  BANK44  BANK45  BANK4
      +6  BANK47  BANK48  BANK49  BANK50  BANK51  BANK52  BANK53  BANK54
  2443 ;;      Params:         0       0       0       0       0       0       0       0       0       0       0       0       
      +0       0       0       0       0       0       0       0       0       0       0       0       0       0       0       
      +0       0       0       0       0       0       0       0       0       0       0       0       0       0       0       
      +0       0       0       0       0       0       0       0       0
  2444 ;;      Locals:         1       0       0       0       0       0       0       0       0       0       0       0       
      +0       0       0       0       0       0       0       0       0       0       0       0       0       0       0       
      +0       0       0       0       0       0       0       0       0       0       0       0       0       0       0       
      +0       0       0       0       0       0       0       0       0
  2445 ;;      Temps:          0       0       0       0       0       0       0       0       0       0       0       0       
      +0       0       0       0       0       0       0       0       0       0       0       0       0       0       0       
      +0       0       0       0       0       0       0       0       0       0       0       0       0       0       0       
      +0       0       0       0       0       0       0       0       0
  2446 ;;      Totals:         1       0       0       0       0       0       0       0       0       0       0       0       
      +0       0       0       0       0       0       0       0       0       0       0       0       0       0       0       
      +0       0       0       0       0       0       0       0       0       0       0       0       0       0       0       
      +0       0       0       0       0       0       0       0       0
  2447 ;;Total ram usage:        1 bytes
  2448 ;; Hardware stack levels used: 1
  2449 ;; Hardware stack levels required when called: 1
  2450 ;; This function calls:
  2451 ;;		_UART1_Write
  2452 ;; This function is called by:
  2453 ;;		_fputc
  2454 ;; This function uses a non-reentrant model
  2455 ;;
  2456                           
  2457                           	psect	text10
  2458  005342                     __ptext10:
  2459                           	callstack 0
  2460  005342                     _putch:
  2461                           	callstack 121
  2462                           
  2463                           ;incstack = 0
  2464                           ;putch@txData stored from wreg
  2465  005342  6E02               	movwf	putch@txData^(0+1280),c
  2466  005344                     
  2467                           ;mcc_generated_files/uart1.c: 184: void putch(char txData);mcc_generated_files/uart1.c: 
      +                          185: {;mcc_generated_files/uart1.c: 186:     UART1_Write(txData);
  2468  005344  5002               	movf	putch@txData^(0+1280),w,c
  2469  005346  ECD6  F028         	call	_UART1_Write
  2470  00534A  0012               	return		;funcret
  2471  00534C                     __end_of_putch:
  2472                           	callstack 0
  2473                           
  2474 ;; *************** function _UART1_Write *****************
  2475 ;; Defined at:
  2476 ;;		line 170 in file "mcc_generated_files/uart1.c"
  2477 ;; Parameters:    Size  Location     Type
  2478 ;;  txData          1    wreg     unsigned char 
  2479 ;; Auto vars:     Size  Location     Type
  2480 ;;  txData          1    0[COMRAM] unsigned char 
  2481 ;; Return value:  Size  Location     Type
  2482 ;;                  1    wreg      void 
  2483 ;; Registers used:
  2484 ;;		wreg
  2485 ;; Tracked objects:
  2486 ;;		On entry : 0/0
  2487 ;;		On exit  : 0/0
  2488 ;;		Unchanged: 0/0
  2489 ;; Data sizes:     COMRAM   BANK5   BANK6   BANK7   BANK8   BANK9  BANK10  BANK11  BANK12  BANK13  BANK14  BANK15  BANK1
      +6  BANK17  BANK18  BANK19  BANK20  BANK21  BANK22  BANK23  BANK24  BANK25  BANK26  BANK27  BANK28  BANK29  BANK30  BANK3
      +1  BANK32  BANK33  BANK34  BANK35  BANK36  BANK37  BANK38  BANK39  BANK40  BANK41  BANK42  BANK43  BANK44  BANK45  BANK4
      +6  BANK47  BANK48  BANK49  BANK50  BANK51  BANK52  BANK53  BANK54
  2490 ;;      Params:         0       0       0       0       0       0       0       0       0       0       0       0       
      +0       0       0       0       0       0       0       0       0       0       0       0       0       0       0       
      +0       0       0       0       0       0       0       0       0       0       0       0       0       0       0       
      +0       0       0       0       0       0       0       0       0
  2491 ;;      Locals:         1       0       0       0       0       0       0       0       0       0       0       0       
      +0       0       0       0       0       0       0       0       0       0       0       0       0       0       0       
      +0       0       0       0       0       0       0       0       0       0       0       0       0       0       0       
      +0       0       0       0       0       0       0       0       0
  2492 ;;      Temps:          0       0       0       0       0       0       0       0       0       0       0       0       
      +0       0       0       0       0       0       0       0       0       0       0       0       0       0       0       
      +0       0       0       0       0       0       0       0       0       0       0       0       0       0       0       
      +0       0       0       0       0       0       0       0       0
  2493 ;;      Totals:         1       0       0       0       0       0       0       0       0       0       0       0       
      +0       0       0       0       0       0       0       0       0       0       0       0       0       0       0       
      +0       0       0       0       0       0       0       0       0       0       0       0       0       0       0       
      +0       0       0       0       0       0       0       0       0
  2494 ;;Total ram usage:        1 bytes
  2495 ;; Hardware stack levels used: 1
  2496 ;; This function calls:
  2497 ;;		Nothing
  2498 ;; This function is called by:
  2499 ;;		_putch
  2500 ;; This function uses a non-reentrant model
  2501 ;;
  2502                           
  2503                           	psect	text11
  2504  0051AC                     __ptext11:
  2505                           	callstack 0
  2506  0051AC                     _UART1_Write:
  2507                           	callstack 121
  2508                           
  2509                           ;incstack = 0
  2510                           ;UART1_Write@txData stored from wreg
  2511  0051AC  6E01               	movwf	UART1_Write@txData^(0+1280),c
  2512  0051AE                     l768:
  2513                           
  2514                           ;mcc_generated_files/uart1.c: 172:     while(0 == PIR4bits.U1TXIF)
  2515  0051AE  A2B2               	btfss	178,1,c	;volatile
  2516  0051B0  EFDC  F028         	goto	u1621
  2517  0051B4  EFDE  F028         	goto	u1620
  2518  0051B8                     u1621:
  2519  0051B8  EFD7  F028         	goto	l768
  2520  0051BC                     u1620:
  2521  0051BC                     
  2522                           ;mcc_generated_files/uart1.c: 176:     U1TXB = txData;
  2523  0051BC  0061  F404  F2A3   	movff	UART1_Write@txData,675	;volatile
  2524  0051C2  0012               	return		;funcret
  2525  0051C4                     __end_of_UART1_Write:
  2526                           	callstack 0
  2527                           
  2528 ;; *************** function _abs *****************
  2529 ;; Defined at:
  2530 ;;		line 1 in file "C:\Program Files\Microchip\xc8\v2.32\pic\sources\c99\common\abs.c"
  2531 ;; Parameters:    Size  Location     Type
  2532 ;;  a               2   18[COMRAM] int 
  2533 ;; Auto vars:     Size  Location     Type
  2534 ;;		None
  2535 ;; Return value:  Size  Location     Type
  2536 ;;                  2   18[COMRAM] int 
  2537 ;; Registers used:
  2538 ;;		wreg, status,2, status,0
  2539 ;; Tracked objects:
  2540 ;;		On entry : 0/0
  2541 ;;		On exit  : 0/0
  2542 ;;		Unchanged: 0/0
  2543 ;; Data sizes:     COMRAM   BANK5   BANK6   BANK7   BANK8   BANK9  BANK10  BANK11  BANK12  BANK13  BANK14  BANK15  BANK1
      +6  BANK17  BANK18  BANK19  BANK20  BANK21  BANK22  BANK23  BANK24  BANK25  BANK26  BANK27  BANK28  BANK29  BANK30  BANK3
      +1  BANK32  BANK33  BANK34  BANK35  BANK36  BANK37  BANK38  BANK39  BANK40  BANK41  BANK42  BANK43  BANK44  BANK45  BANK4
      +6  BANK47  BANK48  BANK49  BANK50  BANK51  BANK52  BANK53  BANK54
  2544 ;;      Params:         2       0       0       0       0       0       0       0       0       0       0       0       
      +0       0       0       0       0       0       0       0       0       0       0       0       0       0       0       
      +0       0       0       0       0       0       0       0       0       0       0       0       0       0       0       
      +0       0       0       0       0       0       0       0       0
  2545 ;;      Locals:         0       0       0       0       0       0       0       0       0       0       0       0       
      +0       0       0       0       0       0       0       0       0       0       0       0       0       0       0       
      +0       0       0       0       0       0       0       0       0       0       0       0       0       0       0       
      +0       0       0       0       0       0       0       0       0
  2546 ;;      Temps:          2       0       0       0       0       0       0       0       0       0       0       0       
      +0       0       0       0       0       0       0       0       0       0       0       0       0       0       0       
      +0       0       0       0       0       0       0       0       0       0       0       0       0       0       0       
      +0       0       0       0       0       0       0       0       0
  2547 ;;      Totals:         4       0       0       0       0       0       0       0       0       0       0       0       
      +0       0       0       0       0       0       0       0       0       0       0       0       0       0       0       
      +0       0       0       0       0       0       0       0       0       0       0       0       0       0       0       
      +0       0       0       0       0       0       0       0       0
  2548 ;;Total ram usage:        4 bytes
  2549 ;; Hardware stack levels used: 1
  2550 ;; This function calls:
  2551 ;;		Nothing
  2552 ;; This function is called by:
  2553 ;;		_dtoa
  2554 ;; This function uses a non-reentrant model
  2555 ;;
  2556                           
  2557                           	psect	text12
  2558  004E2C                     __ptext12:
  2559                           	callstack 0
  2560  004E2C                     _abs:
  2561                           	callstack 122
  2562  004E2C  BE14               	btfsc	(abs@a+1)^(0+1280),7,c
  2563  004E2E  EF23  F027         	goto	u1930
  2564  004E32  5014               	movf	(abs@a+1)^(0+1280),w,c
  2565  004E34  E106               	bnz	u1931
  2566  004E36  0413               	decf	abs@a^(0+1280),w,c
  2567  004E38  B0D8               	btfsc	status,0,c
  2568  004E3A  EF21  F027         	goto	u1931
  2569  004E3E  EF23  F027         	goto	u1930
  2570  004E42                     u1931:
  2571  004E42  EF31  F027         	goto	l1914
  2572  004E46                     u1930:
  2573  004E46  C513  F515         	movff	abs@a,??_abs
  2574  004E4A  C514  F516         	movff	abs@a+1,??_abs+1
  2575  004E4E  1E15               	comf	??_abs^(0+1280),f,c
  2576  004E50  1E16               	comf	(??_abs+1)^(0+1280),f,c
  2577  004E52  4A15               	infsnz	??_abs^(0+1280),f,c
  2578  004E54  2A16               	incf	(??_abs+1)^(0+1280),f,c
  2579  004E56  C515  F513         	movff	??_abs,?_abs
  2580  004E5A  C516  F514         	movff	??_abs+1,?_abs+1
  2581  004E5E  EF35  F027         	goto	l1917
  2582  004E62                     l1914:
  2583  004E62  C513  F513         	movff	abs@a,?_abs
  2584  004E66  C514  F514         	movff	abs@a+1,?_abs+1
  2585  004E6A                     l1917:
  2586  004E6A  0012               	return		;funcret
  2587  004E6C                     __end_of_abs:
  2588                           	callstack 0
  2589                           
  2590 ;; *************** function ___aomod *****************
  2591 ;; Defined at:
  2592 ;;		line 9 in file "C:\Program Files\Microchip\xc8\v2.32\pic\sources\c99\common\aomod.c"
  2593 ;; Parameters:    Size  Location     Type
  2594 ;;  dividend        8    0[COMRAM] long long 
  2595 ;;  divisor         8    8[COMRAM] long long 
  2596 ;; Auto vars:     Size  Location     Type
  2597 ;;  sign            1   17[COMRAM] unsigned char 
  2598 ;;  counter         1   16[COMRAM] unsigned char 
  2599 ;; Return value:  Size  Location     Type
  2600 ;;                  8    0[COMRAM] long long 
  2601 ;; Registers used:
  2602 ;;		wreg, status,2, status,0
  2603 ;; Tracked objects:
  2604 ;;		On entry : 0/0
  2605 ;;		On exit  : 0/0
  2606 ;;		Unchanged: 0/0
  2607 ;; Data sizes:     COMRAM   BANK5   BANK6   BANK7   BANK8   BANK9  BANK10  BANK11  BANK12  BANK13  BANK14  BANK15  BANK1
      +6  BANK17  BANK18  BANK19  BANK20  BANK21  BANK22  BANK23  BANK24  BANK25  BANK26  BANK27  BANK28  BANK29  BANK30  BANK3
      +1  BANK32  BANK33  BANK34  BANK35  BANK36  BANK37  BANK38  BANK39  BANK40  BANK41  BANK42  BANK43  BANK44  BANK45  BANK4
      +6  BANK47  BANK48  BANK49  BANK50  BANK51  BANK52  BANK53  BANK54
  2608 ;;      Params:        16       0       0       0       0       0       0       0       0       0       0       0       
      +0       0       0       0       0       0       0       0       0       0       0       0       0       0       0       
      +0       0       0       0       0       0       0       0       0       0       0       0       0       0       0       
      +0       0       0       0       0       0       0       0       0
  2609 ;;      Locals:         2       0       0       0       0       0       0       0       0       0       0       0       
      +0       0       0       0       0       0       0       0       0       0       0       0       0       0       0       
      +0       0       0       0       0       0       0       0       0       0       0       0       0       0       0       
      +0       0       0       0       0       0       0       0       0
  2610 ;;      Temps:          0       0       0       0       0       0       0       0       0       0       0       0       
      +0       0       0       0       0       0       0       0       0       0       0       0       0       0       0       
      +0       0       0       0       0       0       0       0       0       0       0       0       0       0       0       
      +0       0       0       0       0       0       0       0       0
  2611 ;;      Totals:        18       0       0       0       0       0       0       0       0       0       0       0       
      +0       0       0       0       0       0       0       0       0       0       0       0       0       0       0       
      +0       0       0       0       0       0       0       0       0       0       0       0       0       0       0       
      +0       0       0       0       0       0       0       0       0
  2612 ;;Total ram usage:       18 bytes
  2613 ;; Hardware stack levels used: 1
  2614 ;; This function calls:
  2615 ;;		Nothing
  2616 ;; This function is called by:
  2617 ;;		_dtoa
  2618 ;; This function uses a non-reentrant model
  2619 ;;
  2620                           
  2621                           	psect	text13
  2622  003DDE                     __ptext13:
  2623                           	callstack 0
  2624  003DDE                     ___aomod:
  2625                           	callstack 122
  2626  003DDE  0E00               	movlw	0
  2627  003DE0  6E12               	movwf	___aomod@sign^(0+1280),c
  2628  003DE2  BE08               	btfsc	(___aomod@dividend+7)^(0+1280),7,c
  2629  003DE4  EFF8  F01E         	goto	u1830
  2630  003DE8  EFF6  F01E         	goto	u1831
  2631  003DEC                     u1831:
  2632  003DEC  EF0A  F01F         	goto	l4204
  2633  003DF0                     u1830:
  2634  003DF0  1E08               	comf	(___aomod@dividend+7)^(0+1280),f,c
  2635  003DF2  1E07               	comf	(___aomod@dividend+6)^(0+1280),f,c
  2636  003DF4  1E06               	comf	(___aomod@dividend+5)^(0+1280),f,c
  2637  003DF6  1E05               	comf	(___aomod@dividend+4)^(0+1280),f,c
  2638  003DF8  1E04               	comf	(___aomod@dividend+3)^(0+1280),f,c
  2639  003DFA  1E03               	comf	(___aomod@dividend+2)^(0+1280),f,c
  2640  003DFC  1E02               	comf	(___aomod@dividend+1)^(0+1280),f,c
  2641  003DFE  6C01               	negf	___aomod@dividend^(0+1280),c
  2642  003E00  0E00               	movlw	0
  2643  003E02  2202               	addwfc	(___aomod@dividend+1)^(0+1280),f,c
  2644  003E04  2203               	addwfc	(___aomod@dividend+2)^(0+1280),f,c
  2645  003E06  2204               	addwfc	(___aomod@dividend+3)^(0+1280),f,c
  2646  003E08  2205               	addwfc	(___aomod@dividend+4)^(0+1280),f,c
  2647  003E0A  2206               	addwfc	(___aomod@dividend+5)^(0+1280),f,c
  2648  003E0C  2207               	addwfc	(___aomod@dividend+6)^(0+1280),f,c
  2649  003E0E  2208               	addwfc	(___aomod@dividend+7)^(0+1280),f,c
  2650  003E10  0E01               	movlw	1
  2651  003E12  6E12               	movwf	___aomod@sign^(0+1280),c
  2652  003E14                     l4204:
  2653  003E14  BE10               	btfsc	(___aomod@divisor+7)^(0+1280),7,c
  2654  003E16  EF11  F01F         	goto	u1840
  2655  003E1A  EF0F  F01F         	goto	u1841
  2656  003E1E                     u1841:
  2657  003E1E  EF21  F01F         	goto	l4208
  2658  003E22                     u1840:
  2659  003E22  1E10               	comf	(___aomod@divisor+7)^(0+1280),f,c
  2660  003E24  1E0F               	comf	(___aomod@divisor+6)^(0+1280),f,c
  2661  003E26  1E0E               	comf	(___aomod@divisor+5)^(0+1280),f,c
  2662  003E28  1E0D               	comf	(___aomod@divisor+4)^(0+1280),f,c
  2663  003E2A  1E0C               	comf	(___aomod@divisor+3)^(0+1280),f,c
  2664  003E2C  1E0B               	comf	(___aomod@divisor+2)^(0+1280),f,c
  2665  003E2E  1E0A               	comf	(___aomod@divisor+1)^(0+1280),f,c
  2666  003E30  6C09               	negf	___aomod@divisor^(0+1280),c
  2667  003E32  0E00               	movlw	0
  2668  003E34  220A               	addwfc	(___aomod@divisor+1)^(0+1280),f,c
  2669  003E36  220B               	addwfc	(___aomod@divisor+2)^(0+1280),f,c
  2670  003E38  220C               	addwfc	(___aomod@divisor+3)^(0+1280),f,c
  2671  003E3A  220D               	addwfc	(___aomod@divisor+4)^(0+1280),f,c
  2672  003E3C  220E               	addwfc	(___aomod@divisor+5)^(0+1280),f,c
  2673  003E3E  220F               	addwfc	(___aomod@divisor+6)^(0+1280),f,c
  2674  003E40  2210               	addwfc	(___aomod@divisor+7)^(0+1280),f,c
  2675  003E42                     l4208:
  2676  003E42  5009               	movf	___aomod@divisor^(0+1280),w,c
  2677  003E44  100A               	iorwf	(___aomod@divisor+1)^(0+1280),w,c
  2678  003E46  100B               	iorwf	(___aomod@divisor+2)^(0+1280),w,c
  2679  003E48  100C               	iorwf	(___aomod@divisor+3)^(0+1280),w,c
  2680  003E4A  100D               	iorwf	(___aomod@divisor+4)^(0+1280),w,c
  2681  003E4C  100E               	iorwf	(___aomod@divisor+5)^(0+1280),w,c
  2682  003E4E  100F               	iorwf	(___aomod@divisor+6)^(0+1280),w,c
  2683  003E50  1010               	iorwf	(___aomod@divisor+7)^(0+1280),w,c
  2684  003E52  B4D8               	btfsc	status,2,c
  2685  003E54  EF2E  F01F         	goto	u1851
  2686  003E58  EF30  F01F         	goto	u1850
  2687  003E5C                     u1851:
  2688  003E5C  EF78  F01F         	goto	l4224
  2689  003E60                     u1850:
  2690  003E60  0E01               	movlw	1
  2691  003E62  6E11               	movwf	___aomod@counter^(0+1280),c
  2692  003E64  EF3E  F01F         	goto	l4214
  2693  003E68                     l4212:
  2694  003E68  90D8               	bcf	status,0,c
  2695  003E6A  3609               	rlcf	___aomod@divisor^(0+1280),f,c
  2696  003E6C  360A               	rlcf	(___aomod@divisor+1)^(0+1280),f,c
  2697  003E6E  360B               	rlcf	(___aomod@divisor+2)^(0+1280),f,c
  2698  003E70  360C               	rlcf	(___aomod@divisor+3)^(0+1280),f,c
  2699  003E72  360D               	rlcf	(___aomod@divisor+4)^(0+1280),f,c
  2700  003E74  360E               	rlcf	(___aomod@divisor+5)^(0+1280),f,c
  2701  003E76  360F               	rlcf	(___aomod@divisor+6)^(0+1280),f,c
  2702  003E78  3610               	rlcf	(___aomod@divisor+7)^(0+1280),f,c
  2703  003E7A  2A11               	incf	___aomod@counter^(0+1280),f,c
  2704  003E7C                     l4214:
  2705  003E7C  AE10               	btfss	(___aomod@divisor+7)^(0+1280),7,c
  2706  003E7E  EF43  F01F         	goto	u1861
  2707  003E82  EF45  F01F         	goto	u1860
  2708  003E86                     u1861:
  2709  003E86  EF34  F01F         	goto	l4212
  2710  003E8A                     u1860:
  2711  003E8A                     l4216:
  2712  003E8A  5009               	movf	___aomod@divisor^(0+1280),w,c
  2713  003E8C  5C01               	subwf	___aomod@dividend^(0+1280),w,c
  2714  003E8E  500A               	movf	(___aomod@divisor+1)^(0+1280),w,c
  2715  003E90  5802               	subwfb	(___aomod@dividend+1)^(0+1280),w,c
  2716  003E92  500B               	movf	(___aomod@divisor+2)^(0+1280),w,c
  2717  003E94  5803               	subwfb	(___aomod@dividend+2)^(0+1280),w,c
  2718  003E96  500C               	movf	(___aomod@divisor+3)^(0+1280),w,c
  2719  003E98  5804               	subwfb	(___aomod@dividend+3)^(0+1280),w,c
  2720  003E9A  500D               	movf	(___aomod@divisor+4)^(0+1280),w,c
  2721  003E9C  5805               	subwfb	(___aomod@dividend+4)^(0+1280),w,c
  2722  003E9E  500E               	movf	(___aomod@divisor+5)^(0+1280),w,c
  2723  003EA0  5806               	subwfb	(___aomod@dividend+5)^(0+1280),w,c
  2724  003EA2  500F               	movf	(___aomod@divisor+6)^(0+1280),w,c
  2725  003EA4  5807               	subwfb	(___aomod@dividend+6)^(0+1280),w,c
  2726  003EA6  5010               	movf	(___aomod@divisor+7)^(0+1280),w,c
  2727  003EA8  5808               	subwfb	(___aomod@dividend+7)^(0+1280),w,c
  2728  003EAA  A0D8               	btfss	status,0,c
  2729  003EAC  EF5A  F01F         	goto	u1871
  2730  003EB0  EF5C  F01F         	goto	u1870
  2731  003EB4                     u1871:
  2732  003EB4  EF6C  F01F         	goto	l4220
  2733  003EB8                     u1870:
  2734  003EB8  5009               	movf	___aomod@divisor^(0+1280),w,c
  2735  003EBA  5E01               	subwf	___aomod@dividend^(0+1280),f,c
  2736  003EBC  500A               	movf	(___aomod@divisor+1)^(0+1280),w,c
  2737  003EBE  5A02               	subwfb	(___aomod@dividend+1)^(0+1280),f,c
  2738  003EC0  500B               	movf	(___aomod@divisor+2)^(0+1280),w,c
  2739  003EC2  5A03               	subwfb	(___aomod@dividend+2)^(0+1280),f,c
  2740  003EC4  500C               	movf	(___aomod@divisor+3)^(0+1280),w,c
  2741  003EC6  5A04               	subwfb	(___aomod@dividend+3)^(0+1280),f,c
  2742  003EC8  500D               	movf	(___aomod@divisor+4)^(0+1280),w,c
  2743  003ECA  5A05               	subwfb	(___aomod@dividend+4)^(0+1280),f,c
  2744  003ECC  500E               	movf	(___aomod@divisor+5)^(0+1280),w,c
  2745  003ECE  5A06               	subwfb	(___aomod@dividend+5)^(0+1280),f,c
  2746  003ED0  500F               	movf	(___aomod@divisor+6)^(0+1280),w,c
  2747  003ED2  5A07               	subwfb	(___aomod@dividend+6)^(0+1280),f,c
  2748  003ED4  5010               	movf	(___aomod@divisor+7)^(0+1280),w,c
  2749  003ED6  5A08               	subwfb	(___aomod@dividend+7)^(0+1280),f,c
  2750  003ED8                     l4220:
  2751  003ED8  90D8               	bcf	status,0,c
  2752  003EDA  3210               	rrcf	(___aomod@divisor+7)^(0+1280),f,c
  2753  003EDC  320F               	rrcf	(___aomod@divisor+6)^(0+1280),f,c
  2754  003EDE  320E               	rrcf	(___aomod@divisor+5)^(0+1280),f,c
  2755  003EE0  320D               	rrcf	(___aomod@divisor+4)^(0+1280),f,c
  2756  003EE2  320C               	rrcf	(___aomod@divisor+3)^(0+1280),f,c
  2757  003EE4  320B               	rrcf	(___aomod@divisor+2)^(0+1280),f,c
  2758  003EE6  320A               	rrcf	(___aomod@divisor+1)^(0+1280),f,c
  2759  003EE8  3209               	rrcf	___aomod@divisor^(0+1280),f,c
  2760  003EEA  2E11               	decfsz	___aomod@counter^(0+1280),f,c
  2761  003EEC  EF45  F01F         	goto	l4216
  2762  003EF0                     l4224:
  2763  003EF0  5012               	movf	___aomod@sign^(0+1280),w,c
  2764  003EF2  B4D8               	btfsc	status,2,c
  2765  003EF4  EF7E  F01F         	goto	u1881
  2766  003EF8  EF80  F01F         	goto	u1880
  2767  003EFC                     u1881:
  2768  003EFC  EF90  F01F         	goto	l4228
  2769  003F00                     u1880:
  2770  003F00  1E08               	comf	(___aomod@dividend+7)^(0+1280),f,c
  2771  003F02  1E07               	comf	(___aomod@dividend+6)^(0+1280),f,c
  2772  003F04  1E06               	comf	(___aomod@dividend+5)^(0+1280),f,c
  2773  003F06  1E05               	comf	(___aomod@dividend+4)^(0+1280),f,c
  2774  003F08  1E04               	comf	(___aomod@dividend+3)^(0+1280),f,c
  2775  003F0A  1E03               	comf	(___aomod@dividend+2)^(0+1280),f,c
  2776  003F0C  1E02               	comf	(___aomod@dividend+1)^(0+1280),f,c
  2777  003F0E  6C01               	negf	___aomod@dividend^(0+1280),c
  2778  003F10  0E00               	movlw	0
  2779  003F12  2202               	addwfc	(___aomod@dividend+1)^(0+1280),f,c
  2780  003F14  2203               	addwfc	(___aomod@dividend+2)^(0+1280),f,c
  2781  003F16  2204               	addwfc	(___aomod@dividend+3)^(0+1280),f,c
  2782  003F18  2205               	addwfc	(___aomod@dividend+4)^(0+1280),f,c
  2783  003F1A  2206               	addwfc	(___aomod@dividend+5)^(0+1280),f,c
  2784  003F1C  2207               	addwfc	(___aomod@dividend+6)^(0+1280),f,c
  2785  003F1E  2208               	addwfc	(___aomod@dividend+7)^(0+1280),f,c
  2786  003F20                     l4228:
  2787  003F20  C501  F501         	movff	___aomod@dividend,?___aomod
  2788  003F24  C502  F502         	movff	___aomod@dividend+1,?___aomod+1
  2789  003F28  C503  F503         	movff	___aomod@dividend+2,?___aomod+2
  2790  003F2C  C504  F504         	movff	___aomod@dividend+3,?___aomod+3
  2791  003F30  C505  F505         	movff	___aomod@dividend+4,?___aomod+4
  2792  003F34  C506  F506         	movff	___aomod@dividend+5,?___aomod+5
  2793  003F38  C507  F507         	movff	___aomod@dividend+6,?___aomod+6
  2794  003F3C  C508  F508         	movff	___aomod@dividend+7,?___aomod+7
  2795  003F40  0012               	return		;funcret
  2796  003F42                     __end_of___aomod:
  2797                           	callstack 0
  2798                           
  2799 ;; *************** function ___aodiv *****************
  2800 ;; Defined at:
  2801 ;;		line 9 in file "C:\Program Files\Microchip\xc8\v2.32\pic\sources\c99\common\aodiv.c"
  2802 ;; Parameters:    Size  Location     Type
  2803 ;;  dividend        8    0[COMRAM] long long 
  2804 ;;  divisor         8    8[COMRAM] long long 
  2805 ;; Auto vars:     Size  Location     Type
  2806 ;;  quotient        8   18[COMRAM] long long 
  2807 ;;  sign            1   17[COMRAM] unsigned char 
  2808 ;;  counter         1   16[COMRAM] unsigned char 
  2809 ;; Return value:  Size  Location     Type
  2810 ;;                  8    0[COMRAM] long long 
  2811 ;; Registers used:
  2812 ;;		wreg, fsr2l, fsr2h, status,2, status,0
  2813 ;; Tracked objects:
  2814 ;;		On entry : 0/0
  2815 ;;		On exit  : 0/0
  2816 ;;		Unchanged: 0/0
  2817 ;; Data sizes:     COMRAM   BANK5   BANK6   BANK7   BANK8   BANK9  BANK10  BANK11  BANK12  BANK13  BANK14  BANK15  BANK1
      +6  BANK17  BANK18  BANK19  BANK20  BANK21  BANK22  BANK23  BANK24  BANK25  BANK26  BANK27  BANK28  BANK29  BANK30  BANK3
      +1  BANK32  BANK33  BANK34  BANK35  BANK36  BANK37  BANK38  BANK39  BANK40  BANK41  BANK42  BANK43  BANK44  BANK45  BANK4
      +6  BANK47  BANK48  BANK49  BANK50  BANK51  BANK52  BANK53  BANK54
  2818 ;;      Params:        16       0       0       0       0       0       0       0       0       0       0       0       
      +0       0       0       0       0       0       0       0       0       0       0       0       0       0       0       
      +0       0       0       0       0       0       0       0       0       0       0       0       0       0       0       
      +0       0       0       0       0       0       0       0       0
  2819 ;;      Locals:        10       0       0       0       0       0       0       0       0       0       0       0       
      +0       0       0       0       0       0       0       0       0       0       0       0       0       0       0       
      +0       0       0       0       0       0       0       0       0       0       0       0       0       0       0       
      +0       0       0       0       0       0       0       0       0
  2820 ;;      Temps:          0       0       0       0       0       0       0       0       0       0       0       0       
      +0       0       0       0       0       0       0       0       0       0       0       0       0       0       0       
      +0       0       0       0       0       0       0       0       0       0       0       0       0       0       0       
      +0       0       0       0       0       0       0       0       0
  2821 ;;      Totals:        26       0       0       0       0       0       0       0       0       0       0       0       
      +0       0       0       0       0       0       0       0       0       0       0       0       0       0       0       
      +0       0       0       0       0       0       0       0       0       0       0       0       0       0       0       
      +0       0       0       0       0       0       0       0       0
  2822 ;;Total ram usage:       26 bytes
  2823 ;; Hardware stack levels used: 1
  2824 ;; This function calls:
  2825 ;;		Nothing
  2826 ;; This function is called by:
  2827 ;;		_dtoa
  2828 ;; This function uses a non-reentrant model
  2829 ;;
  2830                           
  2831                           	psect	text14
  2832  003C56                     __ptext14:
  2833                           	callstack 0
  2834  003C56                     ___aodiv:
  2835                           	callstack 122
  2836  003C56  0E00               	movlw	0
  2837  003C58  6E12               	movwf	___aodiv@sign^(0+1280),c
  2838  003C5A  BE10               	btfsc	(___aodiv@divisor+7)^(0+1280),7,c
  2839  003C5C  EF34  F01E         	goto	u1760
  2840  003C60  EF32  F01E         	goto	u1761
  2841  003C64                     u1761:
  2842  003C64  EF46  F01E         	goto	l4160
  2843  003C68                     u1760:
  2844  003C68  1E10               	comf	(___aodiv@divisor+7)^(0+1280),f,c
  2845  003C6A  1E0F               	comf	(___aodiv@divisor+6)^(0+1280),f,c
  2846  003C6C  1E0E               	comf	(___aodiv@divisor+5)^(0+1280),f,c
  2847  003C6E  1E0D               	comf	(___aodiv@divisor+4)^(0+1280),f,c
  2848  003C70  1E0C               	comf	(___aodiv@divisor+3)^(0+1280),f,c
  2849  003C72  1E0B               	comf	(___aodiv@divisor+2)^(0+1280),f,c
  2850  003C74  1E0A               	comf	(___aodiv@divisor+1)^(0+1280),f,c
  2851  003C76  6C09               	negf	___aodiv@divisor^(0+1280),c
  2852  003C78  0E00               	movlw	0
  2853  003C7A  220A               	addwfc	(___aodiv@divisor+1)^(0+1280),f,c
  2854  003C7C  220B               	addwfc	(___aodiv@divisor+2)^(0+1280),f,c
  2855  003C7E  220C               	addwfc	(___aodiv@divisor+3)^(0+1280),f,c
  2856  003C80  220D               	addwfc	(___aodiv@divisor+4)^(0+1280),f,c
  2857  003C82  220E               	addwfc	(___aodiv@divisor+5)^(0+1280),f,c
  2858  003C84  220F               	addwfc	(___aodiv@divisor+6)^(0+1280),f,c
  2859  003C86  2210               	addwfc	(___aodiv@divisor+7)^(0+1280),f,c
  2860  003C88  0E01               	movlw	1
  2861  003C8A  6E12               	movwf	___aodiv@sign^(0+1280),c
  2862  003C8C                     l4160:
  2863  003C8C  BE08               	btfsc	(___aodiv@dividend+7)^(0+1280),7,c
  2864  003C8E  EF4D  F01E         	goto	u1770
  2865  003C92  EF4B  F01E         	goto	u1771
  2866  003C96                     u1771:
  2867  003C96  EF5F  F01E         	goto	l4166
  2868  003C9A                     u1770:
  2869  003C9A  1E08               	comf	(___aodiv@dividend+7)^(0+1280),f,c
  2870  003C9C  1E07               	comf	(___aodiv@dividend+6)^(0+1280),f,c
  2871  003C9E  1E06               	comf	(___aodiv@dividend+5)^(0+1280),f,c
  2872  003CA0  1E05               	comf	(___aodiv@dividend+4)^(0+1280),f,c
  2873  003CA2  1E04               	comf	(___aodiv@dividend+3)^(0+1280),f,c
  2874  003CA4  1E03               	comf	(___aodiv@dividend+2)^(0+1280),f,c
  2875  003CA6  1E02               	comf	(___aodiv@dividend+1)^(0+1280),f,c
  2876  003CA8  6C01               	negf	___aodiv@dividend^(0+1280),c
  2877  003CAA  0E00               	movlw	0
  2878  003CAC  2202               	addwfc	(___aodiv@dividend+1)^(0+1280),f,c
  2879  003CAE  2203               	addwfc	(___aodiv@dividend+2)^(0+1280),f,c
  2880  003CB0  2204               	addwfc	(___aodiv@dividend+3)^(0+1280),f,c
  2881  003CB2  2205               	addwfc	(___aodiv@dividend+4)^(0+1280),f,c
  2882  003CB4  2206               	addwfc	(___aodiv@dividend+5)^(0+1280),f,c
  2883  003CB6  2207               	addwfc	(___aodiv@dividend+6)^(0+1280),f,c
  2884  003CB8  2208               	addwfc	(___aodiv@dividend+7)^(0+1280),f,c
  2885  003CBA  0E01               	movlw	1
  2886  003CBC  1A12               	xorwf	___aodiv@sign^(0+1280),f,c
  2887  003CBE                     l4166:
  2888  003CBE  EE21  F113         	lfsr	2,___aodiv@quotient
  2889  003CC2  0E07               	movlw	7
  2890  003CC4                     u1781:
  2891  003CC4  6ADE               	clrf	postinc2,c
  2892  003CC6  06E8               	decf	wreg,f,c
  2893  003CC8  E2FD               	bc	u1781
  2894  003CCA  5009               	movf	___aodiv@divisor^(0+1280),w,c
  2895  003CCC  100A               	iorwf	(___aodiv@divisor+1)^(0+1280),w,c
  2896  003CCE  100B               	iorwf	(___aodiv@divisor+2)^(0+1280),w,c
  2897  003CD0  100C               	iorwf	(___aodiv@divisor+3)^(0+1280),w,c
  2898  003CD2  100D               	iorwf	(___aodiv@divisor+4)^(0+1280),w,c
  2899  003CD4  100E               	iorwf	(___aodiv@divisor+5)^(0+1280),w,c
  2900  003CD6  100F               	iorwf	(___aodiv@divisor+6)^(0+1280),w,c
  2901  003CD8  1010               	iorwf	(___aodiv@divisor+7)^(0+1280),w,c
  2902  003CDA  B4D8               	btfsc	status,2,c
  2903  003CDC  EF72  F01E         	goto	u1791
  2904  003CE0  EF74  F01E         	goto	u1790
  2905  003CE4                     u1791:
  2906  003CE4  EFC6  F01E         	goto	l4188
  2907  003CE8                     u1790:
  2908  003CE8  0E01               	movlw	1
  2909  003CEA  6E11               	movwf	___aodiv@counter^(0+1280),c
  2910  003CEC  EF82  F01E         	goto	l4174
  2911  003CF0                     l4172:
  2912  003CF0  90D8               	bcf	status,0,c
  2913  003CF2  3609               	rlcf	___aodiv@divisor^(0+1280),f,c
  2914  003CF4  360A               	rlcf	(___aodiv@divisor+1)^(0+1280),f,c
  2915  003CF6  360B               	rlcf	(___aodiv@divisor+2)^(0+1280),f,c
  2916  003CF8  360C               	rlcf	(___aodiv@divisor+3)^(0+1280),f,c
  2917  003CFA  360D               	rlcf	(___aodiv@divisor+4)^(0+1280),f,c
  2918  003CFC  360E               	rlcf	(___aodiv@divisor+5)^(0+1280),f,c
  2919  003CFE  360F               	rlcf	(___aodiv@divisor+6)^(0+1280),f,c
  2920  003D00  3610               	rlcf	(___aodiv@divisor+7)^(0+1280),f,c
  2921  003D02  2A11               	incf	___aodiv@counter^(0+1280),f,c
  2922  003D04                     l4174:
  2923  003D04  AE10               	btfss	(___aodiv@divisor+7)^(0+1280),7,c
  2924  003D06  EF87  F01E         	goto	u1801
  2925  003D0A  EF89  F01E         	goto	u1800
  2926  003D0E                     u1801:
  2927  003D0E  EF78  F01E         	goto	l4172
  2928  003D12                     u1800:
  2929  003D12                     l4176:
  2930  003D12  90D8               	bcf	status,0,c
  2931  003D14  3613               	rlcf	___aodiv@quotient^(0+1280),f,c
  2932  003D16  3614               	rlcf	(___aodiv@quotient+1)^(0+1280),f,c
  2933  003D18  3615               	rlcf	(___aodiv@quotient+2)^(0+1280),f,c
  2934  003D1A  3616               	rlcf	(___aodiv@quotient+3)^(0+1280),f,c
  2935  003D1C  3617               	rlcf	(___aodiv@quotient+4)^(0+1280),f,c
  2936  003D1E  3618               	rlcf	(___aodiv@quotient+5)^(0+1280),f,c
  2937  003D20  3619               	rlcf	(___aodiv@quotient+6)^(0+1280),f,c
  2938  003D22  361A               	rlcf	(___aodiv@quotient+7)^(0+1280),f,c
  2939  003D24  5009               	movf	___aodiv@divisor^(0+1280),w,c
  2940  003D26  5C01               	subwf	___aodiv@dividend^(0+1280),w,c
  2941  003D28  500A               	movf	(___aodiv@divisor+1)^(0+1280),w,c
  2942  003D2A  5802               	subwfb	(___aodiv@dividend+1)^(0+1280),w,c
  2943  003D2C  500B               	movf	(___aodiv@divisor+2)^(0+1280),w,c
  2944  003D2E  5803               	subwfb	(___aodiv@dividend+2)^(0+1280),w,c
  2945  003D30  500C               	movf	(___aodiv@divisor+3)^(0+1280),w,c
  2946  003D32  5804               	subwfb	(___aodiv@dividend+3)^(0+1280),w,c
  2947  003D34  500D               	movf	(___aodiv@divisor+4)^(0+1280),w,c
  2948  003D36  5805               	subwfb	(___aodiv@dividend+4)^(0+1280),w,c
  2949  003D38  500E               	movf	(___aodiv@divisor+5)^(0+1280),w,c
  2950  003D3A  5806               	subwfb	(___aodiv@dividend+5)^(0+1280),w,c
  2951  003D3C  500F               	movf	(___aodiv@divisor+6)^(0+1280),w,c
  2952  003D3E  5807               	subwfb	(___aodiv@dividend+6)^(0+1280),w,c
  2953  003D40  5010               	movf	(___aodiv@divisor+7)^(0+1280),w,c
  2954  003D42  5808               	subwfb	(___aodiv@dividend+7)^(0+1280),w,c
  2955  003D44  A0D8               	btfss	status,0,c
  2956  003D46  EFA7  F01E         	goto	u1811
  2957  003D4A  EFA9  F01E         	goto	u1810
  2958  003D4E                     u1811:
  2959  003D4E  EFBA  F01E         	goto	l4184
  2960  003D52                     u1810:
  2961  003D52  5009               	movf	___aodiv@divisor^(0+1280),w,c
  2962  003D54  5E01               	subwf	___aodiv@dividend^(0+1280),f,c
  2963  003D56  500A               	movf	(___aodiv@divisor+1)^(0+1280),w,c
  2964  003D58  5A02               	subwfb	(___aodiv@dividend+1)^(0+1280),f,c
  2965  003D5A  500B               	movf	(___aodiv@divisor+2)^(0+1280),w,c
  2966  003D5C  5A03               	subwfb	(___aodiv@dividend+2)^(0+1280),f,c
  2967  003D5E  500C               	movf	(___aodiv@divisor+3)^(0+1280),w,c
  2968  003D60  5A04               	subwfb	(___aodiv@dividend+3)^(0+1280),f,c
  2969  003D62  500D               	movf	(___aodiv@divisor+4)^(0+1280),w,c
  2970  003D64  5A05               	subwfb	(___aodiv@dividend+4)^(0+1280),f,c
  2971  003D66  500E               	movf	(___aodiv@divisor+5)^(0+1280),w,c
  2972  003D68  5A06               	subwfb	(___aodiv@dividend+5)^(0+1280),f,c
  2973  003D6A  500F               	movf	(___aodiv@divisor+6)^(0+1280),w,c
  2974  003D6C  5A07               	subwfb	(___aodiv@dividend+6)^(0+1280),f,c
  2975  003D6E  5010               	movf	(___aodiv@divisor+7)^(0+1280),w,c
  2976  003D70  5A08               	subwfb	(___aodiv@dividend+7)^(0+1280),f,c
  2977  003D72  8013               	bsf	___aodiv@quotient^(0+1280),0,c
  2978  003D74                     l4184:
  2979  003D74  90D8               	bcf	status,0,c
  2980  003D76  3210               	rrcf	(___aodiv@divisor+7)^(0+1280),f,c
  2981  003D78  320F               	rrcf	(___aodiv@divisor+6)^(0+1280),f,c
  2982  003D7A  320E               	rrcf	(___aodiv@divisor+5)^(0+1280),f,c
  2983  003D7C  320D               	rrcf	(___aodiv@divisor+4)^(0+1280),f,c
  2984  003D7E  320C               	rrcf	(___aodiv@divisor+3)^(0+1280),f,c
  2985  003D80  320B               	rrcf	(___aodiv@divisor+2)^(0+1280),f,c
  2986  003D82  320A               	rrcf	(___aodiv@divisor+1)^(0+1280),f,c
  2987  003D84  3209               	rrcf	___aodiv@divisor^(0+1280),f,c
  2988  003D86  2E11               	decfsz	___aodiv@counter^(0+1280),f,c
  2989  003D88  EF89  F01E         	goto	l4176
  2990  003D8C                     l4188:
  2991  003D8C  5012               	movf	___aodiv@sign^(0+1280),w,c
  2992  003D8E  B4D8               	btfsc	status,2,c
  2993  003D90  EFCC  F01E         	goto	u1821
  2994  003D94  EFCE  F01E         	goto	u1820
  2995  003D98                     u1821:
  2996  003D98  EFDE  F01E         	goto	l4192
  2997  003D9C                     u1820:
  2998  003D9C  1E1A               	comf	(___aodiv@quotient+7)^(0+1280),f,c
  2999  003D9E  1E19               	comf	(___aodiv@quotient+6)^(0+1280),f,c
  3000  003DA0  1E18               	comf	(___aodiv@quotient+5)^(0+1280),f,c
  3001  003DA2  1E17               	comf	(___aodiv@quotient+4)^(0+1280),f,c
  3002  003DA4  1E16               	comf	(___aodiv@quotient+3)^(0+1280),f,c
  3003  003DA6  1E15               	comf	(___aodiv@quotient+2)^(0+1280),f,c
  3004  003DA8  1E14               	comf	(___aodiv@quotient+1)^(0+1280),f,c
  3005  003DAA  6C13               	negf	___aodiv@quotient^(0+1280),c
  3006  003DAC  0E00               	movlw	0
  3007  003DAE  2214               	addwfc	(___aodiv@quotient+1)^(0+1280),f,c
  3008  003DB0  2215               	addwfc	(___aodiv@quotient+2)^(0+1280),f,c
  3009  003DB2  2216               	addwfc	(___aodiv@quotient+3)^(0+1280),f,c
  3010  003DB4  2217               	addwfc	(___aodiv@quotient+4)^(0+1280),f,c
  3011  003DB6  2218               	addwfc	(___aodiv@quotient+5)^(0+1280),f,c
  3012  003DB8  2219               	addwfc	(___aodiv@quotient+6)^(0+1280),f,c
  3013  003DBA  221A               	addwfc	(___aodiv@quotient+7)^(0+1280),f,c
  3014  003DBC                     l4192:
  3015  003DBC  C513  F501         	movff	___aodiv@quotient,?___aodiv
  3016  003DC0  C514  F502         	movff	___aodiv@quotient+1,?___aodiv+1
  3017  003DC4  C515  F503         	movff	___aodiv@quotient+2,?___aodiv+2
  3018  003DC8  C516  F504         	movff	___aodiv@quotient+3,?___aodiv+3
  3019  003DCC  C517  F505         	movff	___aodiv@quotient+4,?___aodiv+4
  3020  003DD0  C518  F506         	movff	___aodiv@quotient+5,?___aodiv+5
  3021  003DD4  C519  F507         	movff	___aodiv@quotient+6,?___aodiv+6
  3022  003DD8  C51A  F508         	movff	___aodiv@quotient+7,?___aodiv+7
  3023  003DDC  0012               	return		;funcret
  3024  003DDE                     __end_of___aodiv:
  3025                           	callstack 0
  3026                           
  3027 ;; *************** function _lcd_puts *****************
  3028 ;; Defined at:
  3029 ;;		line 119 in file "LCD_i2c.c"
  3030 ;; Parameters:    Size  Location     Type
  3031 ;;  dato            2   35[COMRAM] PTR unsigned char 
  3032 ;;		 -> buffer(40), 
  3033 ;; Auto vars:     Size  Location     Type
  3034 ;;		None
  3035 ;; Return value:  Size  Location     Type
  3036 ;;                  1    wreg      void 
  3037 ;; Registers used:
  3038 ;;		wreg, fsr2l, fsr2h, status,2, status,0, pclath, tosl, tblptrl, tblptrh, tblptru, prodl, prodh, cstack
  3039 ;; Tracked objects:
  3040 ;;		On entry : 0/0
  3041 ;;		On exit  : 0/0
  3042 ;;		Unchanged: 0/0
  3043 ;; Data sizes:     COMRAM   BANK5   BANK6   BANK7   BANK8   BANK9  BANK10  BANK11  BANK12  BANK13  BANK14  BANK15  BANK1
      +6  BANK17  BANK18  BANK19  BANK20  BANK21  BANK22  BANK23  BANK24  BANK25  BANK26  BANK27  BANK28  BANK29  BANK30  BANK3
      +1  BANK32  BANK33  BANK34  BANK35  BANK36  BANK37  BANK38  BANK39  BANK40  BANK41  BANK42  BANK43  BANK44  BANK45  BANK4
      +6  BANK47  BANK48  BANK49  BANK50  BANK51  BANK52  BANK53  BANK54
  3044 ;;      Params:         2       0       0       0       0       0       0       0       0       0       0       0       
      +0       0       0       0       0       0       0       0       0       0       0       0       0       0       0       
      +0       0       0       0       0       0       0       0       0       0       0       0       0       0       0       
      +0       0       0       0       0       0       0       0       0
  3045 ;;      Locals:         0       0       0       0       0       0       0       0       0       0       0       0       
      +0       0       0       0       0       0       0       0       0       0       0       0       0       0       0       
      +0       0       0       0       0       0       0       0       0       0       0       0       0       0       0       
      +0       0       0       0       0       0       0       0       0
  3046 ;;      Temps:          2       0       0       0       0       0       0       0       0       0       0       0       
      +0       0       0       0       0       0       0       0       0       0       0       0       0       0       0       
      +0       0       0       0       0       0       0       0       0       0       0       0       0       0       0       
      +0       0       0       0       0       0       0       0       0
  3047 ;;      Totals:         4       0       0       0       0       0       0       0       0       0       0       0       
      +0       0       0       0       0       0       0       0       0       0       0       0       0       0       0       
      +0       0       0       0       0       0       0       0       0       0       0       0       0       0       0       
      +0       0       0       0       0       0       0       0       0
  3048 ;;Total ram usage:        4 bytes
  3049 ;; Hardware stack levels used: 1
  3050 ;; Hardware stack levels required when called: 16
  3051 ;; This function calls:
  3052 ;;		_lcd_gotoxy
  3053 ;;		_lcd_send_byte
  3054 ;; This function is called by:
  3055 ;;		_main
  3056 ;; This function uses a non-reentrant model
  3057 ;;
  3058                           
  3059                           	psect	text15
  3060  004206                     __ptext15:
  3061                           	callstack 0
  3062  004206                     _lcd_puts:
  3063                           	callstack 110
  3064  004206                     
  3065                           ;LCD_i2c.c: 120:     while (*dato){
  3066  004206  EF54  F021         	goto	l4630
  3067  00420A                     l4610:
  3068                           
  3069                           ;LCD_i2c.c: 123:                 lcd_send_byte(0,1);
  3070  00420A  0E01               	movlw	1
  3071  00420C  6E1D               	movwf	lcd_send_byte@n^(0+1280),c
  3072  00420E  0E00               	movlw	0
  3073  004210  EC91  F028         	call	_lcd_send_byte
  3074  004214                     
  3075                           ;LCD_i2c.c: 124:                 _delay((unsigned long)((2)*(10000000/4000.0)));
  3076  004214  0E07               	movlw	7
  3077  004216  6E26               	movwf	??_lcd_puts^(0+1280),c
  3078  004218  0E7D               	movlw	125
  3079  00421A                     u2497:
  3080  00421A  2EE8               	decfsz	wreg,f,c
  3081  00421C  D7FE               	bra	u2497
  3082  00421E  2E26               	decfsz	??_lcd_puts^(0+1280),f,c
  3083  004220  D7FC               	bra	u2497
  3084  004222  F000               	nop	
  3085  004224                     
  3086                           ;LCD_i2c.c: 125:                 g_LcdX = 0;
  3087  004224  0E00               	movlw	0
  3088  004226  0105               	movlb	5	; () banked
  3089  004228  6F96               	movwf	_g_LcdX& (0+255),b
  3090  00422A                     
  3091                           ; BSR set to: 5
  3092                           ;LCD_i2c.c: 126:                 g_LcdY = 0;
  3093  00422A  0E00               	movlw	0
  3094  00422C  6F95               	movwf	_g_LcdY& (0+255),b
  3095  00422E                     
  3096                           ; BSR set to: 5
  3097                           ;LCD_i2c.c: 127:                 _delay((unsigned long)((2)*(10000000/4000.0)));
  3098  00422E  0E07               	movlw	7
  3099  004230  6E26               	movwf	??_lcd_puts^(0+1280),c
  3100  004232  0E7D               	movlw	125
  3101  004234                     u2507:
  3102  004234  2EE8               	decfsz	wreg,f,c
  3103  004236  D7FE               	bra	u2507
  3104  004238  2E26               	decfsz	??_lcd_puts^(0+1280),f,c
  3105  00423A  D7FC               	bra	u2507
  3106  00423C  F000               	nop	
  3107                           
  3108                           ;LCD_i2c.c: 128:                 break;
  3109  00423E  EF52  F021         	goto	l4628
  3110  004242                     l4620:
  3111                           
  3112                           ;LCD_i2c.c: 130:                 lcd_gotoxy(1, g_LcdY+2);
  3113  004242  0105               	movlb	5	; () banked
  3114  004244  5195               	movf	_g_LcdY& (0+255),w,b
  3115  004246  0F02               	addlw	2
  3116  004248  6E1F               	movwf	lcd_gotoxy@y^(0+1280),c
  3117  00424A  0E01               	movlw	1
  3118  00424C  EC90  F024         	call	_lcd_gotoxy
  3119                           
  3120                           ;LCD_i2c.c: 131:                 break;
  3121  004250  EF52  F021         	goto	l4628
  3122  004254                     l4622:
  3123                           
  3124                           ;LCD_i2c.c: 133:                 lcd_send_byte(1,*dato);
  3125  004254  0061  F490  F4D9   	movff	lcd_puts@dato,fsr2l
  3126  00425A  0061  F494  F4DA   	movff	lcd_puts@dato+1,fsr2h
  3127  004260  50DF               	movf	indf2,w,c
  3128  004262  6E1D               	movwf	lcd_send_byte@n^(0+1280),c
  3129  004264  0E01               	movlw	1
  3130  004266  EC91  F028         	call	_lcd_send_byte
  3131                           
  3132                           ;LCD_i2c.c: 134:                 break;
  3133  00426A  EF52  F021         	goto	l4628
  3134  00426E                     l4626:
  3135  00426E  0061  F490  F4D9   	movff	lcd_puts@dato,fsr2l
  3136  004274  0061  F494  F4DA   	movff	lcd_puts@dato+1,fsr2h
  3137  00427A  50DF               	movf	indf2,w,c
  3138  00427C  6E26               	movwf	??_lcd_puts^(0+1280),c
  3139  00427E  6A27               	clrf	(??_lcd_puts+1)^(0+1280),c
  3140                           
  3141                           ; Switch on 2 bytes has been partitioned into a top level switch of size 1, and 1 sub-sw
      +                          itches
  3142                           ; Switch size 1, requested type "simple"
  3143                           ; Number of cases is 1, Range of values is 0 to 0
  3144                           ; switch strategies available:
  3145                           ; Name         Instructions Cycles
  3146                           ; simple_byte            4     3 (average)
  3147                           ;	Chosen strategy is simple_byte
  3148  004280  5027               	movf	(??_lcd_puts+1)^(0+1280),w,c
  3149  004282  0A00               	xorlw	0	; case 0
  3150  004284  B4D8               	btfsc	status,2,c
  3151  004286  EF47  F021         	goto	l4998
  3152  00428A  EF2A  F021         	goto	l4622
  3153  00428E                     l4998:
  3154                           
  3155                           ; Switch size 1, requested type "simple"
  3156                           ; Number of cases is 2, Range of values is 10 to 12
  3157                           ; switch strategies available:
  3158                           ; Name         Instructions Cycles
  3159                           ; simple_byte            7     4 (average)
  3160                           ;	Chosen strategy is simple_byte
  3161  00428E  5026               	movf	??_lcd_puts^(0+1280),w,c
  3162  004290  0A0A               	xorlw	10	; case 10
  3163  004292  B4D8               	btfsc	status,2,c
  3164  004294  EF21  F021         	goto	l4620
  3165  004298  0A06               	xorlw	6	; case 12
  3166  00429A  B4D8               	btfsc	status,2,c
  3167  00429C  EF05  F021         	goto	l4610
  3168  0042A0  EF2A  F021         	goto	l4622
  3169  0042A4                     l4628:
  3170                           
  3171                           ;LCD_i2c.c: 138:         dato++;
  3172  0042A4  4A24               	infsnz	lcd_puts@dato^(0+1280),f,c
  3173  0042A6  2A25               	incf	(lcd_puts@dato+1)^(0+1280),f,c
  3174  0042A8                     l4630:
  3175                           
  3176                           ;LCD_i2c.c: 120:     while (*dato){
  3177  0042A8  0061  F490  F4D9   	movff	lcd_puts@dato,fsr2l
  3178  0042AE  0061  F494  F4DA   	movff	lcd_puts@dato+1,fsr2h
  3179  0042B4  50DF               	movf	indf2,w,c
  3180  0042B6  A4D8               	btfss	status,2,c
  3181  0042B8  EF60  F021         	goto	u2291
  3182  0042BC  EF62  F021         	goto	u2290
  3183  0042C0                     u2291:
  3184  0042C0  EF37  F021         	goto	l4626
  3185  0042C4                     u2290:
  3186  0042C4  0012               	return		;funcret
  3187  0042C6                     __end_of_lcd_puts:
  3188                           	callstack 0
  3189                           
  3190 ;; *************** function _lcd_gotoxy *****************
  3191 ;; Defined at:
  3192 ;;		line 74 in file "LCD_i2c.c"
  3193 ;; Parameters:    Size  Location     Type
  3194 ;;  x               1    wreg     unsigned char 
  3195 ;;  y               1   30[COMRAM] unsigned char 
  3196 ;; Auto vars:     Size  Location     Type
  3197 ;;  x               1   33[COMRAM] unsigned char 
  3198 ;;  address         1   34[COMRAM] unsigned char 
  3199 ;; Return value:  Size  Location     Type
  3200 ;;                  1    wreg      void 
  3201 ;; Registers used:
  3202 ;;		wreg, fsr2l, fsr2h, status,2, status,0, pclath, tosl, tblptrl, tblptrh, tblptru, prodl, prodh, cstack
  3203 ;; Tracked objects:
  3204 ;;		On entry : 0/0
  3205 ;;		On exit  : 0/0
  3206 ;;		Unchanged: 0/0
  3207 ;; Data sizes:     COMRAM   BANK5   BANK6   BANK7   BANK8   BANK9  BANK10  BANK11  BANK12  BANK13  BANK14  BANK15  BANK1
      +6  BANK17  BANK18  BANK19  BANK20  BANK21  BANK22  BANK23  BANK24  BANK25  BANK26  BANK27  BANK28  BANK29  BANK30  BANK3
      +1  BANK32  BANK33  BANK34  BANK35  BANK36  BANK37  BANK38  BANK39  BANK40  BANK41  BANK42  BANK43  BANK44  BANK45  BANK4
      +6  BANK47  BANK48  BANK49  BANK50  BANK51  BANK52  BANK53  BANK54
  3208 ;;      Params:         1       0       0       0       0       0       0       0       0       0       0       0       
      +0       0       0       0       0       0       0       0       0       0       0       0       0       0       0       
      +0       0       0       0       0       0       0       0       0       0       0       0       0       0       0       
      +0       0       0       0       0       0       0       0       0
  3209 ;;      Locals:         2       0       0       0       0       0       0       0       0       0       0       0       
      +0       0       0       0       0       0       0       0       0       0       0       0       0       0       0       
      +0       0       0       0       0       0       0       0       0       0       0       0       0       0       0       
      +0       0       0       0       0       0       0       0       0
  3210 ;;      Temps:          2       0       0       0       0       0       0       0       0       0       0       0       
      +0       0       0       0       0       0       0       0       0       0       0       0       0       0       0       
      +0       0       0       0       0       0       0       0       0       0       0       0       0       0       0       
      +0       0       0       0       0       0       0       0       0
  3211 ;;      Totals:         5       0       0       0       0       0       0       0       0       0       0       0       
      +0       0       0       0       0       0       0       0       0       0       0       0       0       0       0       
      +0       0       0       0       0       0       0       0       0       0       0       0       0       0       0       
      +0       0       0       0       0       0       0       0       0
  3212 ;;Total ram usage:        5 bytes
  3213 ;; Hardware stack levels used: 1
  3214 ;; Hardware stack levels required when called: 15
  3215 ;; This function calls:
  3216 ;;		_lcd_send_byte
  3217 ;; This function is called by:
  3218 ;;		_lcd_puts
  3219 ;;		_lcd_putc
  3220 ;; This function uses a non-reentrant model
  3221 ;;
  3222                           
  3223                           	psect	text16
  3224  004920                     __ptext16:
  3225                           	callstack 0
  3226  004920                     _lcd_gotoxy:
  3227                           	callstack 110
  3228                           
  3229                           ;incstack = 0
  3230                           ;lcd_gotoxy@x stored from wreg
  3231  004920  6E22               	movwf	lcd_gotoxy@x^(0+1280),c
  3232  004922                     
  3233                           ;LCD_i2c.c: 75:    int8 address;;LCD_i2c.c: 76:    switch(y)
  3234  004922  EFA3  F024         	goto	l4496
  3235  004926                     l4484:
  3236                           
  3237                           ;LCD_i2c.c: 79:          address = 0x00;
  3238  004926  0E00               	movlw	0
  3239  004928  6E23               	movwf	lcd_gotoxy@address^(0+1280),c
  3240                           
  3241                           ;LCD_i2c.c: 80:          break;
  3242  00492A  EFC0  F024         	goto	l4498
  3243  00492E                     l4486:
  3244                           
  3245                           ;LCD_i2c.c: 82:          address = 0x40;
  3246  00492E  0E40               	movlw	64
  3247  004930  6E23               	movwf	lcd_gotoxy@address^(0+1280),c
  3248                           
  3249                           ;LCD_i2c.c: 83:          break;
  3250  004932  EFC0  F024         	goto	l4498
  3251  004936                     l4488:
  3252                           
  3253                           ;LCD_i2c.c: 85:          address = 0x14;
  3254  004936  0E14               	movlw	20
  3255  004938  6E23               	movwf	lcd_gotoxy@address^(0+1280),c
  3256                           
  3257                           ;LCD_i2c.c: 86:          break;
  3258  00493A  EFC0  F024         	goto	l4498
  3259  00493E                     l4490:
  3260                           
  3261                           ;LCD_i2c.c: 88:          address = 0x54;
  3262  00493E  0E54               	movlw	84
  3263  004940  6E23               	movwf	lcd_gotoxy@address^(0+1280),c
  3264                           
  3265                           ;LCD_i2c.c: 89:          break;
  3266  004942  EFC0  F024         	goto	l4498
  3267  004946                     l4496:
  3268  004946  501F               	movf	lcd_gotoxy@y^(0+1280),w,c
  3269  004948  6E20               	movwf	??_lcd_gotoxy^(0+1280),c
  3270  00494A  6A21               	clrf	(??_lcd_gotoxy+1)^(0+1280),c
  3271                           
  3272                           ; Switch on 2 bytes has been partitioned into a top level switch of size 1, and 1 sub-sw
      +                          itches
  3273                           ; Switch size 1, requested type "simple"
  3274                           ; Number of cases is 1, Range of values is 0 to 0
  3275                           ; switch strategies available:
  3276                           ; Name         Instructions Cycles
  3277                           ; simple_byte            4     3 (average)
  3278                           ;	Chosen strategy is simple_byte
  3279  00494C  5021               	movf	(??_lcd_gotoxy+1)^(0+1280),w,c
  3280  00494E  0A00               	xorlw	0	; case 0
  3281  004950  B4D8               	btfsc	status,2,c
  3282  004952  EFAD  F024         	goto	l5000
  3283  004956  EF93  F024         	goto	l4484
  3284  00495A                     l5000:
  3285                           
  3286                           ; Switch size 1, requested type "simple"
  3287                           ; Number of cases is 4, Range of values is 1 to 4
  3288                           ; switch strategies available:
  3289                           ; Name         Instructions Cycles
  3290                           ; simple_byte           13     7 (average)
  3291                           ;	Chosen strategy is simple_byte
  3292  00495A  5020               	movf	??_lcd_gotoxy^(0+1280),w,c
  3293  00495C  0A01               	xorlw	1	; case 1
  3294  00495E  B4D8               	btfsc	status,2,c
  3295  004960  EF93  F024         	goto	l4484
  3296  004964  0A03               	xorlw	3	; case 2
  3297  004966  B4D8               	btfsc	status,2,c
  3298  004968  EF97  F024         	goto	l4486
  3299  00496C  0A01               	xorlw	1	; case 3
  3300  00496E  B4D8               	btfsc	status,2,c
  3301  004970  EF9B  F024         	goto	l4488
  3302  004974  0A07               	xorlw	7	; case 4
  3303  004976  B4D8               	btfsc	status,2,c
  3304  004978  EF9F  F024         	goto	l4490
  3305  00497C  EF93  F024         	goto	l4484
  3306  004980                     l4498:
  3307                           
  3308                           ;LCD_i2c.c: 94:    address += x-1;
  3309  004980  0422               	decf	lcd_gotoxy@x^(0+1280),w,c
  3310  004982  2623               	addwf	lcd_gotoxy@address^(0+1280),f,c
  3311  004984                     
  3312                           ;LCD_i2c.c: 95:    lcd_send_byte(0, 0x80 | address);
  3313  004984  5023               	movf	lcd_gotoxy@address^(0+1280),w,c
  3314  004986  0980               	iorlw	128
  3315  004988  6E1D               	movwf	lcd_send_byte@n^(0+1280),c
  3316  00498A  0E00               	movlw	0
  3317  00498C  EC91  F028         	call	_lcd_send_byte
  3318  004990                     
  3319                           ;LCD_i2c.c: 97:    g_LcdX = x - 1;
  3320  004990  0422               	decf	lcd_gotoxy@x^(0+1280),w,c
  3321  004992  0105               	movlb	5	; () banked
  3322  004994  6F96               	movwf	_g_LcdX& (0+255),b
  3323  004996                     
  3324                           ; BSR set to: 5
  3325                           ;LCD_i2c.c: 98:    g_LcdY = y - 1;
  3326  004996  041F               	decf	lcd_gotoxy@y^(0+1280),w,c
  3327  004998  6F95               	movwf	_g_LcdY& (0+255),b
  3328  00499A                     
  3329                           ; BSR set to: 5
  3330  00499A  0012               	return		;funcret
  3331  00499C                     __end_of_lcd_gotoxy:
  3332                           	callstack 0
  3333                           
  3334 ;; *************** function _lcd_init *****************
  3335 ;; Defined at:
  3336 ;;		line 37 in file "LCD_i2c.c"
  3337 ;; Parameters:    Size  Location     Type
  3338 ;;		None
  3339 ;; Auto vars:     Size  Location     Type
  3340 ;;  i               1   31[COMRAM] unsigned char 
  3341 ;; Return value:  Size  Location     Type
  3342 ;;                  1    wreg      void 
  3343 ;; Registers used:
  3344 ;;		wreg, fsr2l, fsr2h, status,2, status,0, pclath, tosl, tblptrl, tblptrh, tblptru, prodl, prodh, cstack
  3345 ;; Tracked objects:
  3346 ;;		On entry : 0/0
  3347 ;;		On exit  : 0/0
  3348 ;;		Unchanged: 0/0
  3349 ;; Data sizes:     COMRAM   BANK5   BANK6   BANK7   BANK8   BANK9  BANK10  BANK11  BANK12  BANK13  BANK14  BANK15  BANK1
      +6  BANK17  BANK18  BANK19  BANK20  BANK21  BANK22  BANK23  BANK24  BANK25  BANK26  BANK27  BANK28  BANK29  BANK30  BANK3
      +1  BANK32  BANK33  BANK34  BANK35  BANK36  BANK37  BANK38  BANK39  BANK40  BANK41  BANK42  BANK43  BANK44  BANK45  BANK4
      +6  BANK47  BANK48  BANK49  BANK50  BANK51  BANK52  BANK53  BANK54
  3350 ;;      Params:         0       0       0       0       0       0       0       0       0       0       0       0       
      +0       0       0       0       0       0       0       0       0       0       0       0       0       0       0       
      +0       0       0       0       0       0       0       0       0       0       0       0       0       0       0       
      +0       0       0       0       0       0       0       0       0
  3351 ;;      Locals:         1       0       0       0       0       0       0       0       0       0       0       0       
      +0       0       0       0       0       0       0       0       0       0       0       0       0       0       0       
      +0       0       0       0       0       0       0       0       0       0       0       0       0       0       0       
      +0       0       0       0       0       0       0       0       0
  3352 ;;      Temps:          1       0       0       0       0       0       0       0       0       0       0       0       
      +0       0       0       0       0       0       0       0       0       0       0       0       0       0       0       
      +0       0       0       0       0       0       0       0       0       0       0       0       0       0       0       
      +0       0       0       0       0       0       0       0       0
  3353 ;;      Totals:         2       0       0       0       0       0       0       0       0       0       0       0       
      +0       0       0       0       0       0       0       0       0       0       0       0       0       0       0       
      +0       0       0       0       0       0       0       0       0       0       0       0       0       0       0       
      +0       0       0       0       0       0       0       0       0
  3354 ;;Total ram usage:        2 bytes
  3355 ;; Hardware stack levels used: 1
  3356 ;; Hardware stack levels required when called: 15
  3357 ;; This function calls:
  3358 ;;		_I2C1_Write1ByteRegister
  3359 ;;		_Send_D7_D4
  3360 ;;		_lcd_send_byte
  3361 ;; This function is called by:
  3362 ;;		_main
  3363 ;; This function uses a non-reentrant model
  3364 ;;
  3365                           
  3366                           	psect	text17
  3367  0044E6                     __ptext17:
  3368                           	callstack 0
  3369  0044E6                     _lcd_init:
  3370                           	callstack 111
  3371  0044E6                     
  3372                           ;LCD_i2c.c: 38:    int8 i;;LCD_i2c.c: 44:    I2C1_Write1ByteRegister(32|(7),0,0);
  3373  0044E6  0E00               	movlw	0
  3374  0044E8  6E16               	movwf	I2C1_Write1ByteRegister@reg^(0+1280),c
  3375  0044EA  0E00               	movlw	0
  3376  0044EC  6E17               	movwf	I2C1_Write1ByteRegister@data^(0+1280),c
  3377  0044EE  0E27               	movlw	39
  3378  0044F0  ECCE  F024         	call	_I2C1_Write1ByteRegister
  3379  0044F4                     
  3380                           ;LCD_i2c.c: 46:    _delay((unsigned long)((35)*(10000000/4000.0)));
  3381  0044F4  0E72               	movlw	114
  3382  0044F6  6E1F               	movwf	??_lcd_init^(0+1280),c
  3383  0044F8  0EA2               	movlw	162
  3384  0044FA                     u2517:
  3385  0044FA  2EE8               	decfsz	wreg,f,c
  3386  0044FC  D7FE               	bra	u2517
  3387  0044FE  2E1F               	decfsz	??_lcd_init^(0+1280),f,c
  3388  004500  D7FC               	bra	u2517
  3389  004502                     
  3390                           ;LCD_i2c.c: 48:    for(i=0 ;i < 3; i++){
  3391  004502  0E00               	movlw	0
  3392  004504  6E20               	movwf	lcd_init@i^(0+1280),c
  3393  004506                     l4570:
  3394                           
  3395                           ;LCD_i2c.c: 49:       Send_D7_D4(0,0x03);
  3396  004506  0E03               	movlw	3
  3397  004508  6E1A               	movwf	Send_D7_D4@nibble^(0+1280),c
  3398  00450A  0E00               	movlw	0
  3399  00450C  EC63  F021         	call	_Send_D7_D4
  3400  004510                     
  3401                           ;LCD_i2c.c: 50:       _delay((unsigned long)((5)*(10000000/4000.0)));
  3402  004510  0E11               	movlw	17
  3403  004512  6E1F               	movwf	??_lcd_init^(0+1280),c
  3404  004514  0E3A               	movlw	58
  3405  004516                     u2527:
  3406  004516  2EE8               	decfsz	wreg,f,c
  3407  004518  D7FE               	bra	u2527
  3408  00451A  2E1F               	decfsz	??_lcd_init^(0+1280),f,c
  3409  00451C  D7FC               	bra	u2527
  3410  00451E  D000               	nop2	
  3411  004520                     
  3412                           ;LCD_i2c.c: 51:    }
  3413  004520  2A20               	incf	lcd_init@i^(0+1280),f,c
  3414  004522  0E02               	movlw	2
  3415  004524  6420               	cpfsgt	lcd_init@i^(0+1280),c
  3416  004526  EF97  F022         	goto	u2271
  3417  00452A  EF99  F022         	goto	u2270
  3418  00452E                     u2271:
  3419  00452E  EF83  F022         	goto	l4570
  3420  004532                     u2270:
  3421  004532                     
  3422                           ;LCD_i2c.c: 52:     Send_D7_D4(0,0x02);
  3423  004532  0E02               	movlw	2
  3424  004534  6E1A               	movwf	Send_D7_D4@nibble^(0+1280),c
  3425  004536  0E00               	movlw	0
  3426  004538  EC63  F021         	call	_Send_D7_D4
  3427  00453C                     
  3428                           ;LCD_i2c.c: 65:    for(i=0; i < sizeof(LCD_INIT_STRING); i++)
  3429  00453C  0E00               	movlw	0
  3430  00453E  6E20               	movwf	lcd_init@i^(0+1280),c
  3431  004540                     l4586:
  3432                           
  3433                           ;LCD_i2c.c: 66:    {;LCD_i2c.c: 67:       lcd_send_byte(0, LCD_INIT_STRING[i]);
  3434  004540  0E3A               	movlw	low _LCD_INIT_STRING
  3435  004542  2420               	addwf	lcd_init@i^(0+1280),w,c
  3436  004544  6EF6               	movwf	tblptrl,c
  3437  004546  6AF7               	clrf	tblptrh,c
  3438  004548  0E37               	movlw	high _LCD_INIT_STRING
  3439  00454A  22F7               	addwfc	tblptrh,f,c
  3440  00454C                     	if	1	;There are 3 active tblptr bytes
  3441  00454C  6AF8               	clrf	tblptru,c
  3442  00454E  0E00               	movlw	low (__mediumconst shr (0+16))
  3443  004550  22F8               	addwfc	tblptru,f,c
  3444  004552                     	endif
  3445  004552  0008               	tblrd		*
  3446  004554  0061 F3D4  F51D    	movff	tablat,lcd_send_byte@n
  3447  00455A  0E00               	movlw	0
  3448  00455C  EC91  F028         	call	_lcd_send_byte
  3449  004560                     
  3450                           ;LCD_i2c.c: 68:       _delay((unsigned long)((5)*(10000000/4000.0)));
  3451  004560  0E11               	movlw	17
  3452  004562  6E1F               	movwf	??_lcd_init^(0+1280),c
  3453  004564  0E3A               	movlw	58
  3454  004566                     u2537:
  3455  004566  2EE8               	decfsz	wreg,f,c
  3456  004568  D7FE               	bra	u2537
  3457  00456A  2E1F               	decfsz	??_lcd_init^(0+1280),f,c
  3458  00456C  D7FC               	bra	u2537
  3459  00456E  D000               	nop2	
  3460  004570                     
  3461                           ;LCD_i2c.c: 69:    }
  3462  004570  2A20               	incf	lcd_init@i^(0+1280),f,c
  3463  004572  0E03               	movlw	3
  3464  004574  6420               	cpfsgt	lcd_init@i^(0+1280),c
  3465  004576  EFBF  F022         	goto	u2281
  3466  00457A  EFC1  F022         	goto	u2280
  3467  00457E                     u2281:
  3468  00457E  EFA0  F022         	goto	l4586
  3469  004582                     u2280:
  3470  004582                     
  3471                           ;LCD_i2c.c: 70:    g_LcdX = 0;
  3472  004582  0E00               	movlw	0
  3473  004584  0105               	movlb	5	; () banked
  3474  004586  6F96               	movwf	_g_LcdX& (0+255),b
  3475                           
  3476                           ;LCD_i2c.c: 71:    g_LcdY = 0;
  3477  004588  0E00               	movlw	0
  3478  00458A  6F95               	movwf	_g_LcdY& (0+255),b
  3479  00458C                     
  3480                           ; BSR set to: 5
  3481  00458C  0012               	return		;funcret
  3482  00458E                     __end_of_lcd_init:
  3483                           	callstack 0
  3484                           
  3485 ;; *************** function _lcd_send_byte *****************
  3486 ;; Defined at:
  3487 ;;		line 32 in file "LCD_i2c.c"
  3488 ;; Parameters:    Size  Location     Type
  3489 ;;  address         1    wreg     unsigned char 
  3490 ;;  n               1   28[COMRAM] unsigned char 
  3491 ;; Auto vars:     Size  Location     Type
  3492 ;;  address         1   29[COMRAM] unsigned char 
  3493 ;; Return value:  Size  Location     Type
  3494 ;;                  1    wreg      void 
  3495 ;; Registers used:
  3496 ;;		wreg, fsr2l, fsr2h, status,2, status,0, pclath, tosl, tblptrl, tblptrh, tblptru, prodl, prodh, cstack
  3497 ;; Tracked objects:
  3498 ;;		On entry : 0/0
  3499 ;;		On exit  : 0/0
  3500 ;;		Unchanged: 0/0
  3501 ;; Data sizes:     COMRAM   BANK5   BANK6   BANK7   BANK8   BANK9  BANK10  BANK11  BANK12  BANK13  BANK14  BANK15  BANK1
      +6  BANK17  BANK18  BANK19  BANK20  BANK21  BANK22  BANK23  BANK24  BANK25  BANK26  BANK27  BANK28  BANK29  BANK30  BANK3
      +1  BANK32  BANK33  BANK34  BANK35  BANK36  BANK37  BANK38  BANK39  BANK40  BANK41  BANK42  BANK43  BANK44  BANK45  BANK4
      +6  BANK47  BANK48  BANK49  BANK50  BANK51  BANK52  BANK53  BANK54
  3502 ;;      Params:         1       0       0       0       0       0       0       0       0       0       0       0       
      +0       0       0       0       0       0       0       0       0       0       0       0       0       0       0       
      +0       0       0       0       0       0       0       0       0       0       0       0       0       0       0       
      +0       0       0       0       0       0       0       0       0
  3503 ;;      Locals:         1       0       0       0       0       0       0       0       0       0       0       0       
      +0       0       0       0       0       0       0       0       0       0       0       0       0       0       0       
      +0       0       0       0       0       0       0       0       0       0       0       0       0       0       0       
      +0       0       0       0       0       0       0       0       0
  3504 ;;      Temps:          0       0       0       0       0       0       0       0       0       0       0       0       
      +0       0       0       0       0       0       0       0       0       0       0       0       0       0       0       
      +0       0       0       0       0       0       0       0       0       0       0       0       0       0       0       
      +0       0       0       0       0       0       0       0       0
  3505 ;;      Totals:         2       0       0       0       0       0       0       0       0       0       0       0       
      +0       0       0       0       0       0       0       0       0       0       0       0       0       0       0       
      +0       0       0       0       0       0       0       0       0       0       0       0       0       0       0       
      +0       0       0       0       0       0       0       0       0
  3506 ;;Total ram usage:        2 bytes
  3507 ;; Hardware stack levels used: 1
  3508 ;; Hardware stack levels required when called: 14
  3509 ;; This function calls:
  3510 ;;		_Send_D7_D4
  3511 ;; This function is called by:
  3512 ;;		_lcd_init
  3513 ;;		_lcd_gotoxy
  3514 ;;		_lcd_puts
  3515 ;;		_lcd_putc
  3516 ;;		_Clear_LCD
  3517 ;;		_CGRAM
  3518 ;;		_CGRAM_x
  3519 ;; This function uses a non-reentrant model
  3520 ;;
  3521                           
  3522                           	psect	text18
  3523  005122                     __ptext18:
  3524                           	callstack 0
  3525  005122                     _lcd_send_byte:
  3526                           	callstack 111
  3527                           
  3528                           ; BSR set to: 5
  3529                           ;incstack = 0
  3530                           ;lcd_send_byte@address stored from wreg
  3531  005122  6E1E               	movwf	lcd_send_byte@address^(0+1280),c
  3532  005124                     
  3533                           ;LCD_i2c.c: 33:    Send_D7_D4(address,n >> 4);
  3534  005124  381D               	swapf	lcd_send_byte@n^(0+1280),w,c
  3535  005126  0B0F               	andlw	15
  3536  005128  6E1A               	movwf	Send_D7_D4@nibble^(0+1280),c
  3537  00512A  501E               	movf	lcd_send_byte@address^(0+1280),w,c
  3538  00512C  EC63  F021         	call	_Send_D7_D4
  3539                           
  3540                           ;LCD_i2c.c: 34:    Send_D7_D4(address,n & 0xf);
  3541  005130  501D               	movf	lcd_send_byte@n^(0+1280),w,c
  3542  005132  0B0F               	andlw	15
  3543  005134  6E1A               	movwf	Send_D7_D4@nibble^(0+1280),c
  3544  005136  501E               	movf	lcd_send_byte@address^(0+1280),w,c
  3545  005138  EC63  F021         	call	_Send_D7_D4
  3546  00513C  0012               	return		;funcret
  3547  00513E                     __end_of_lcd_send_byte:
  3548                           	callstack 0
  3549                           
  3550 ;; *************** function _Send_D7_D4 *****************
  3551 ;; Defined at:
  3552 ;;		line 13 in file "LCD_i2c.c"
  3553 ;; Parameters:    Size  Location     Type
  3554 ;;  address         1    wreg     unsigned char 
  3555 ;;  nibble          1   25[COMRAM] unsigned char 
  3556 ;; Auto vars:     Size  Location     Type
  3557 ;;  address         1   26[COMRAM] unsigned char 
  3558 ;;  datos           1   27[COMRAM] unsigned char 
  3559 ;; Return value:  Size  Location     Type
  3560 ;;                  1    wreg      void 
  3561 ;; Registers used:
  3562 ;;		wreg, fsr2l, fsr2h, status,2, status,0, pclath, tosl, tblptrl, tblptrh, tblptru, prodl, prodh, cstack
  3563 ;; Tracked objects:
  3564 ;;		On entry : 0/0
  3565 ;;		On exit  : 0/0
  3566 ;;		Unchanged: 0/0
  3567 ;; Data sizes:     COMRAM   BANK5   BANK6   BANK7   BANK8   BANK9  BANK10  BANK11  BANK12  BANK13  BANK14  BANK15  BANK1
      +6  BANK17  BANK18  BANK19  BANK20  BANK21  BANK22  BANK23  BANK24  BANK25  BANK26  BANK27  BANK28  BANK29  BANK30  BANK3
      +1  BANK32  BANK33  BANK34  BANK35  BANK36  BANK37  BANK38  BANK39  BANK40  BANK41  BANK42  BANK43  BANK44  BANK45  BANK4
      +6  BANK47  BANK48  BANK49  BANK50  BANK51  BANK52  BANK53  BANK54
  3568 ;;      Params:         1       0       0       0       0       0       0       0       0       0       0       0       
      +0       0       0       0       0       0       0       0       0       0       0       0       0       0       0       
      +0       0       0       0       0       0       0       0       0       0       0       0       0       0       0       
      +0       0       0       0       0       0       0       0       0
  3569 ;;      Locals:         2       0       0       0       0       0       0       0       0       0       0       0       
      +0       0       0       0       0       0       0       0       0       0       0       0       0       0       0       
      +0       0       0       0       0       0       0       0       0       0       0       0       0       0       0       
      +0       0       0       0       0       0       0       0       0
  3570 ;;      Temps:          0       0       0       0       0       0       0       0       0       0       0       0       
      +0       0       0       0       0       0       0       0       0       0       0       0       0       0       0       
      +0       0       0       0       0       0       0       0       0       0       0       0       0       0       0       
      +0       0       0       0       0       0       0       0       0
  3571 ;;      Totals:         3       0       0       0       0       0       0       0       0       0       0       0       
      +0       0       0       0       0       0       0       0       0       0       0       0       0       0       0       
      +0       0       0       0       0       0       0       0       0       0       0       0       0       0       0       
      +0       0       0       0       0       0       0       0       0
  3572 ;;Total ram usage:        3 bytes
  3573 ;; Hardware stack levels used: 1
  3574 ;; Hardware stack levels required when called: 13
  3575 ;; This function calls:
  3576 ;;		_Write_PCF
  3577 ;; This function is called by:
  3578 ;;		_lcd_send_byte
  3579 ;;		_lcd_init
  3580 ;; This function uses a non-reentrant model
  3581 ;;
  3582                           
  3583                           	psect	text19
  3584  0042C6                     __ptext19:
  3585                           	callstack 0
  3586  0042C6                     _Send_D7_D4:
  3587                           	callstack 111
  3588                           
  3589                           ;incstack = 0
  3590                           ;Send_D7_D4@address stored from wreg
  3591  0042C6  6E1B               	movwf	Send_D7_D4@address^(0+1280),c
  3592  0042C8                     
  3593                           ;LCD_i2c.c: 14:    char datos=0;
  3594  0042C8  0E00               	movlw	0
  3595  0042CA  6E1C               	movwf	Send_D7_D4@datos^(0+1280),c
  3596  0042CC                     
  3597                           ;LCD_i2c.c: 16:    if((nibble & 1)==1) datos= datos|16; else datos = datos&~16;
  3598  0042CC  A01A               	btfss	Send_D7_D4@nibble^(0+1280),0,c
  3599  0042CE  EF6B  F021         	goto	u1941
  3600  0042D2  EF6D  F021         	goto	u1940
  3601  0042D6                     u1941:
  3602  0042D6  EF72  F021         	goto	l4264
  3603  0042DA                     u1940:
  3604  0042DA  501C               	movf	Send_D7_D4@datos^(0+1280),w,c
  3605  0042DC  0910               	iorlw	16
  3606  0042DE  6E1C               	movwf	Send_D7_D4@datos^(0+1280),c
  3607  0042E0  EF75  F021         	goto	l4266
  3608  0042E4                     l4264:
  3609  0042E4  501C               	movf	Send_D7_D4@datos^(0+1280),w,c
  3610  0042E6  0BEF               	andlw	239
  3611  0042E8  6E1C               	movwf	Send_D7_D4@datos^(0+1280),c
  3612  0042EA                     l4266:
  3613                           
  3614                           ;LCD_i2c.c: 17:    if((nibble & 2)==2) datos= datos|32; else datos = datos&~32;
  3615  0042EA  A21A               	btfss	Send_D7_D4@nibble^(0+1280),1,c
  3616  0042EC  EF7A  F021         	goto	u1951
  3617  0042F0  EF7C  F021         	goto	u1950
  3618  0042F4                     u1951:
  3619  0042F4  EF81  F021         	goto	l4270
  3620  0042F8                     u1950:
  3621  0042F8  501C               	movf	Send_D7_D4@datos^(0+1280),w,c
  3622  0042FA  0920               	iorlw	32
  3623  0042FC  6E1C               	movwf	Send_D7_D4@datos^(0+1280),c
  3624  0042FE  EF84  F021         	goto	l4272
  3625  004302                     l4270:
  3626  004302  501C               	movf	Send_D7_D4@datos^(0+1280),w,c
  3627  004304  0BDF               	andlw	223
  3628  004306  6E1C               	movwf	Send_D7_D4@datos^(0+1280),c
  3629  004308                     l4272:
  3630                           
  3631                           ;LCD_i2c.c: 18:    if((nibble & 4)==4) datos= datos|64; else datos = datos&~64;
  3632  004308  A41A               	btfss	Send_D7_D4@nibble^(0+1280),2,c
  3633  00430A  EF89  F021         	goto	u1961
  3634  00430E  EF8B  F021         	goto	u1960
  3635  004312                     u1961:
  3636  004312  EF90  F021         	goto	l4276
  3637  004316                     u1960:
  3638  004316  501C               	movf	Send_D7_D4@datos^(0+1280),w,c
  3639  004318  0940               	iorlw	64
  3640  00431A  6E1C               	movwf	Send_D7_D4@datos^(0+1280),c
  3641  00431C  EF93  F021         	goto	l4278
  3642  004320                     l4276:
  3643  004320  501C               	movf	Send_D7_D4@datos^(0+1280),w,c
  3644  004322  0BBF               	andlw	191
  3645  004324  6E1C               	movwf	Send_D7_D4@datos^(0+1280),c
  3646  004326                     l4278:
  3647                           
  3648                           ;LCD_i2c.c: 19:    if((nibble & 8)==8) datos= datos|128; else datos = datos&~128;
  3649  004326  A61A               	btfss	Send_D7_D4@nibble^(0+1280),3,c
  3650  004328  EF98  F021         	goto	u1971
  3651  00432C  EF9A  F021         	goto	u1970
  3652  004330                     u1971:
  3653  004330  EF9F  F021         	goto	l4282
  3654  004334                     u1970:
  3655  004334  501C               	movf	Send_D7_D4@datos^(0+1280),w,c
  3656  004336  0980               	iorlw	128
  3657  004338  6E1C               	movwf	Send_D7_D4@datos^(0+1280),c
  3658  00433A  EFA2  F021         	goto	l4284
  3659  00433E                     l4282:
  3660  00433E  501C               	movf	Send_D7_D4@datos^(0+1280),w,c
  3661  004340  0B7F               	andlw	127
  3662  004342  6E1C               	movwf	Send_D7_D4@datos^(0+1280),c
  3663  004344                     l4284:
  3664                           
  3665                           ;LCD_i2c.c: 20:       _delay((unsigned long)((60)*(10000000/4000000.0)));
  3666  004344  0E32               	movlw	50
  3667  004346                     u2547:
  3668  004346  2EE8               	decfsz	wreg,f,c
  3669  004348  D7FE               	bra	u2547
  3670  00434A                     
  3671                           ;LCD_i2c.c: 21:    if(address)
  3672  00434A  501B               	movf	Send_D7_D4@address^(0+1280),w,c
  3673  00434C  B4D8               	btfsc	status,2,c
  3674  00434E  EFAB  F021         	goto	u1981
  3675  004352  EFAD  F021         	goto	u1980
  3676  004356                     u1981:
  3677  004356  EFB2  F021         	goto	l4290
  3678  00435A                     u1980:
  3679  00435A                     
  3680                           ;LCD_i2c.c: 22:       datos= datos |1;
  3681  00435A  501C               	movf	Send_D7_D4@datos^(0+1280),w,c
  3682  00435C  0901               	iorlw	1
  3683  00435E  6E1C               	movwf	Send_D7_D4@datos^(0+1280),c
  3684  004360  EFB5  F021         	goto	l4292
  3685  004364                     l4290:
  3686                           
  3687                           ;LCD_i2c.c: 24:      datos = datos &~1;
  3688  004364  501C               	movf	Send_D7_D4@datos^(0+1280),w,c
  3689  004366  0BFE               	andlw	254
  3690  004368  6E1C               	movwf	Send_D7_D4@datos^(0+1280),c
  3691  00436A                     l4292:
  3692                           
  3693                           ;LCD_i2c.c: 27:    Write_PCF( datos | 4);
  3694  00436A  501C               	movf	Send_D7_D4@datos^(0+1280),w,c
  3695  00436C  0904               	iorlw	4
  3696  00436E  EC3B  F029         	call	_Write_PCF
  3697  004372                     
  3698                           ;LCD_i2c.c: 28:    _delay((unsigned long)((2)*(10000000/4000000.0)));
  3699  004372  D000               	nop2		;2 cycle nop
  3700  004374  D000               	nop2		;2 cycle nop
  3701  004376  F000               	nop	
  3702  004378                     
  3703                           ;LCD_i2c.c: 29:    Write_PCF( datos & ~4);
  3704  004378  501C               	movf	Send_D7_D4@datos^(0+1280),w,c
  3705  00437A  0BFB               	andlw	251
  3706  00437C  EC3B  F029         	call	_Write_PCF
  3707  004380  0012               	return		;funcret
  3708  004382                     __end_of_Send_D7_D4:
  3709                           	callstack 0
  3710                           
  3711 ;; *************** function _Write_PCF *****************
  3712 ;; Defined at:
  3713 ;;		line 3 in file "LCD_i2c.c"
  3714 ;; Parameters:    Size  Location     Type
  3715 ;;  dato            1    wreg     unsigned char 
  3716 ;; Auto vars:     Size  Location     Type
  3717 ;;  dato            1   24[COMRAM] unsigned char 
  3718 ;; Return value:  Size  Location     Type
  3719 ;;                  1    wreg      void 
  3720 ;; Registers used:
  3721 ;;		wreg, fsr2l, fsr2h, status,2, status,0, pclath, tosl, tblptrl, tblptrh, tblptru, prodl, prodh, cstack
  3722 ;; Tracked objects:
  3723 ;;		On entry : 0/0
  3724 ;;		On exit  : 0/0
  3725 ;;		Unchanged: 0/0
  3726 ;; Data sizes:     COMRAM   BANK5   BANK6   BANK7   BANK8   BANK9  BANK10  BANK11  BANK12  BANK13  BANK14  BANK15  BANK1
      +6  BANK17  BANK18  BANK19  BANK20  BANK21  BANK22  BANK23  BANK24  BANK25  BANK26  BANK27  BANK28  BANK29  BANK30  BANK3
      +1  BANK32  BANK33  BANK34  BANK35  BANK36  BANK37  BANK38  BANK39  BANK40  BANK41  BANK42  BANK43  BANK44  BANK45  BANK4
      +6  BANK47  BANK48  BANK49  BANK50  BANK51  BANK52  BANK53  BANK54
  3727 ;;      Params:         0       0       0       0       0       0       0       0       0       0       0       0       
      +0       0       0       0       0       0       0       0       0       0       0       0       0       0       0       
      +0       0       0       0       0       0       0       0       0       0       0       0       0       0       0       
      +0       0       0       0       0       0       0       0       0
  3728 ;;      Locals:         1       0       0       0       0       0       0       0       0       0       0       0       
      +0       0       0       0       0       0       0       0       0       0       0       0       0       0       0       
      +0       0       0       0       0       0       0       0       0       0       0       0       0       0       0       
      +0       0       0       0       0       0       0       0       0
  3729 ;;      Temps:          0       0       0       0       0       0       0       0       0       0       0       0       
      +0       0       0       0       0       0       0       0       0       0       0       0       0       0       0       
      +0       0       0       0       0       0       0       0       0       0       0       0       0       0       0       
      +0       0       0       0       0       0       0       0       0
  3730 ;;      Totals:         1       0       0       0       0       0       0       0       0       0       0       0       
      +0       0       0       0       0       0       0       0       0       0       0       0       0       0       0       
      +0       0       0       0       0       0       0       0       0       0       0       0       0       0       0       
      +0       0       0       0       0       0       0       0       0
  3731 ;;Total ram usage:        1 bytes
  3732 ;; Hardware stack levels used: 1
  3733 ;; Hardware stack levels required when called: 12
  3734 ;; This function calls:
  3735 ;;		_I2C1_Write1ByteRegister
  3736 ;; This function is called by:
  3737 ;;		_Send_D7_D4
  3738 ;; This function uses a non-reentrant model
  3739 ;;
  3740                           
  3741                           	psect	text20
  3742  005276                     __ptext20:
  3743                           	callstack 0
  3744  005276                     _Write_PCF:
  3745                           	callstack 111
  3746                           
  3747                           ;incstack = 0
  3748                           ;Write_PCF@dato stored from wreg
  3749  005276  6E19               	movwf	Write_PCF@dato^(0+1280),c
  3750  005278                     
  3751                           ;LCD_i2c.c: 9:    I2C1_Write1ByteRegister( 32|(7),0,(dato|8) );
  3752  005278  0E00               	movlw	0
  3753  00527A  6E16               	movwf	I2C1_Write1ByteRegister@reg^(0+1280),c
  3754  00527C  5019               	movf	Write_PCF@dato^(0+1280),w,c
  3755  00527E  0908               	iorlw	8
  3756  005280  6E17               	movwf	I2C1_Write1ByteRegister@data^(0+1280),c
  3757  005282  0E27               	movlw	39
  3758  005284  ECCE  F024         	call	_I2C1_Write1ByteRegister
  3759  005288  0012               	return		;funcret
  3760  00528A                     __end_of_Write_PCF:
  3761                           	callstack 0
  3762                           
  3763 ;; *************** function _I2C1_Write1ByteRegister *****************
  3764 ;; Defined at:
  3765 ;;		line 91 in file "mcc_generated_files/examples/i2c1_master_example.c"
  3766 ;; Parameters:    Size  Location     Type
  3767 ;;  address         1    wreg     unsigned char 
  3768 ;;  reg             1   21[COMRAM] unsigned char 
  3769 ;;  data            1   22[COMRAM] unsigned char 
  3770 ;; Auto vars:     Size  Location     Type
  3771 ;;  address         1   23[COMRAM] unsigned char 
  3772 ;; Return value:  Size  Location     Type
  3773 ;;                  1    wreg      void 
  3774 ;; Registers used:
  3775 ;;		wreg, fsr2l, fsr2h, status,2, status,0, pclath, tosl, tblptrl, tblptrh, tblptru, prodl, prodh, cstack
  3776 ;; Tracked objects:
  3777 ;;		On entry : 0/0
  3778 ;;		On exit  : 0/0
  3779 ;;		Unchanged: 0/0
  3780 ;; Data sizes:     COMRAM   BANK5   BANK6   BANK7   BANK8   BANK9  BANK10  BANK11  BANK12  BANK13  BANK14  BANK15  BANK1
      +6  BANK17  BANK18  BANK19  BANK20  BANK21  BANK22  BANK23  BANK24  BANK25  BANK26  BANK27  BANK28  BANK29  BANK30  BANK3
      +1  BANK32  BANK33  BANK34  BANK35  BANK36  BANK37  BANK38  BANK39  BANK40  BANK41  BANK42  BANK43  BANK44  BANK45  BANK4
      +6  BANK47  BANK48  BANK49  BANK50  BANK51  BANK52  BANK53  BANK54
  3781 ;;      Params:         2       0       0       0       0       0       0       0       0       0       0       0       
      +0       0       0       0       0       0       0       0       0       0       0       0       0       0       0       
      +0       0       0       0       0       0       0       0       0       0       0       0       0       0       0       
      +0       0       0       0       0       0       0       0       0
  3782 ;;      Locals:         1       0       0       0       0       0       0       0       0       0       0       0       
      +0       0       0       0       0       0       0       0       0       0       0       0       0       0       0       
      +0       0       0       0       0       0       0       0       0       0       0       0       0       0       0       
      +0       0       0       0       0       0       0       0       0
  3783 ;;      Temps:          0       0       0       0       0       0       0       0       0       0       0       0       
      +0       0       0       0       0       0       0       0       0       0       0       0       0       0       0       
      +0       0       0       0       0       0       0       0       0       0       0       0       0       0       0       
      +0       0       0       0       0       0       0       0       0
  3784 ;;      Totals:         3       0       0       0       0       0       0       0       0       0       0       0       
      +0       0       0       0       0       0       0       0       0       0       0       0       0       0       0       
      +0       0       0       0       0       0       0       0       0       0       0       0       0       0       0       
      +0       0       0       0       0       0       0       0       0
  3785 ;;Total ram usage:        3 bytes
  3786 ;; Hardware stack levels used: 1
  3787 ;; Hardware stack levels required when called: 11
  3788 ;; This function calls:
  3789 ;;		_I2C1_Close
  3790 ;;		_I2C1_MasterWrite
  3791 ;;		_I2C1_Open
  3792 ;;		_I2C1_SetAddressNackCallback
  3793 ;;		_I2C1_SetBuffer
  3794 ;;		_I2C1_SetDataCompleteCallback
  3795 ;; This function is called by:
  3796 ;;		_Write_PCF
  3797 ;;		_lcd_init
  3798 ;; This function uses a non-reentrant model
  3799 ;;
  3800                           
  3801                           	psect	text21
  3802  00499C                     __ptext21:
  3803                           	callstack 0
  3804  00499C                     _I2C1_Write1ByteRegister:
  3805                           	callstack 111
  3806                           
  3807                           ;incstack = 0
  3808                           ;I2C1_Write1ByteRegister@address stored from wreg
  3809  00499C  6E18               	movwf	I2C1_Write1ByteRegister@address^(0+1280),c
  3810  00499E                     l4120:
  3811  00499E  5018               	movf	I2C1_Write1ByteRegister@address^(0+1280),w,c
  3812  0049A0  ECC7  F022         	call	_I2C1_Open
  3813  0049A4  0900               	iorlw	0
  3814  0049A6  B4D8               	btfsc	status,2,c
  3815  0049A8  EFD8  F024         	goto	u1721
  3816  0049AC  EFDA  F024         	goto	u1720
  3817  0049B0                     u1721:
  3818  0049B0  EFCF  F024         	goto	l4120
  3819  0049B4                     u1720:
  3820  0049B4                     
  3821                           ;mcc_generated_files/examples/i2c1_master_example.c: 94:     I2C1_SetDataCompleteCallbac
      +                          k(wr1RegCompleteHandler,&data);
  3822  0049B4  0ED8               	movlw	low _wr1RegCompleteHandler
  3823  0049B6  6E07               	movwf	I2C1_SetDataCompleteCallback@cb^(0+1280),c
  3824  0049B8  0E4E               	movlw	high _wr1RegCompleteHandler
  3825  0049BA  6E08               	movwf	(I2C1_SetDataCompleteCallback@cb+1)^(0+1280),c
  3826  0049BC  0E00               	movlw	low (_wr1RegCompleteHandler shr (0+16))
  3827  0049BE  6E09               	movwf	(I2C1_SetDataCompleteCallback@cb+2)^(0+1280),c
  3828  0049C0  0E17               	movlw	low I2C1_Write1ByteRegister@data
  3829  0049C2  6E0A               	movwf	I2C1_SetDataCompleteCallback@ptr^(0+1280),c
  3830  0049C4  0E05               	movlw	high I2C1_Write1ByteRegister@data
  3831  0049C6  6E0B               	movwf	(I2C1_SetDataCompleteCallback@ptr+1)^(0+1280),c
  3832  0049C8  ECAD  F028         	call	_I2C1_SetDataCompleteCallback	;wreg free
  3833  0049CC                     
  3834                           ;mcc_generated_files/examples/i2c1_master_example.c: 95:     I2C1_SetBuffer(&reg,1);
  3835  0049CC  0E16               	movlw	low I2C1_Write1ByteRegister@reg
  3836  0049CE  6E01               	movwf	I2C1_SetBuffer@buffer^(0+1280),c
  3837  0049D0  0E05               	movlw	high I2C1_Write1ByteRegister@reg
  3838  0049D2  6E02               	movwf	(I2C1_SetBuffer@buffer+1)^(0+1280),c
  3839  0049D4  0E00               	movlw	0
  3840  0049D6  6E04               	movwf	(I2C1_SetBuffer@bufferSize+1)^(0+1280),c
  3841  0049D8  0E01               	movlw	1
  3842  0049DA  6E03               	movwf	I2C1_SetBuffer@bufferSize^(0+1280),c
  3843  0049DC  EC61  F028         	call	_I2C1_SetBuffer	;wreg free
  3844  0049E0                     
  3845                           ;mcc_generated_files/examples/i2c1_master_example.c: 96:     I2C1_SetAddressNackCallback
      +                          (((void*)0),((void*)0));
  3846  0049E0  0E00               	movlw	0
  3847  0049E2  6E07               	movwf	I2C1_SetAddressNackCallback@cb^(0+1280),c
  3848  0049E4  0E00               	movlw	0
  3849  0049E6  6E08               	movwf	(I2C1_SetAddressNackCallback@cb+1)^(0+1280),c
  3850  0049E8  0E00               	movlw	0
  3851  0049EA  6E09               	movwf	(I2C1_SetAddressNackCallback@cb+2)^(0+1280),c
  3852  0049EC  0E00               	movlw	0
  3853  0049EE  6E0A               	movwf	I2C1_SetAddressNackCallback@ptr^(0+1280),c
  3854  0049F0  0E00               	movlw	0
  3855  0049F2  6E0B               	movwf	(I2C1_SetAddressNackCallback@ptr+1)^(0+1280),c
  3856  0049F4  EC9F  F028         	call	_I2C1_SetAddressNackCallback	;wreg free
  3857  0049F8                     
  3858                           ;mcc_generated_files/examples/i2c1_master_example.c: 97:     I2C1_MasterWrite();
  3859  0049F8  ECB0  F029         	call	_I2C1_MasterWrite	;wreg free
  3860  0049FC                     l4130:
  3861  0049FC  ECF9  F027         	call	_I2C1_Close	;wreg free
  3862  004A00  06E8               	decf	wreg,f,c
  3863  004A02  B4D8               	btfsc	status,2,c
  3864  004A04  EF06  F025         	goto	u1731
  3865  004A08  EF08  F025         	goto	u1730
  3866  004A0C                     u1731:
  3867  004A0C  EFFE  F024         	goto	l4130
  3868  004A10                     u1730:
  3869  004A10  0012               	return		;funcret
  3870  004A12                     __end_of_I2C1_Write1ByteRegister:
  3871                           	callstack 0
  3872                           
  3873 ;; *************** function _I2C1_SetAddressNackCallback *****************
  3874 ;; Defined at:
  3875 ;;		line 316 in file "mcc_generated_files/i2c1_master.c"
  3876 ;; Parameters:    Size  Location     Type
  3877 ;;  cb              3    6[COMRAM] PTR FTN(PTR void ,)enum 
  3878 ;;		 -> Absolute function(1), 
  3879 ;;  ptr             2    9[COMRAM] PTR void 
  3880 ;;		 -> NULL(0), 
  3881 ;; Auto vars:     Size  Location     Type
  3882 ;;		None
  3883 ;; Return value:  Size  Location     Type
  3884 ;;                  1    wreg      void 
  3885 ;; Registers used:
  3886 ;;		wreg, fsr2l, fsr2h, status,2, status,0, prodl, prodh, cstack
  3887 ;; Tracked objects:
  3888 ;;		On entry : 0/0
  3889 ;;		On exit  : 0/0
  3890 ;;		Unchanged: 0/0
  3891 ;; Data sizes:     COMRAM   BANK5   BANK6   BANK7   BANK8   BANK9  BANK10  BANK11  BANK12  BANK13  BANK14  BANK15  BANK1
      +6  BANK17  BANK18  BANK19  BANK20  BANK21  BANK22  BANK23  BANK24  BANK25  BANK26  BANK27  BANK28  BANK29  BANK30  BANK3
      +1  BANK32  BANK33  BANK34  BANK35  BANK36  BANK37  BANK38  BANK39  BANK40  BANK41  BANK42  BANK43  BANK44  BANK45  BANK4
      +6  BANK47  BANK48  BANK49  BANK50  BANK51  BANK52  BANK53  BANK54
  3892 ;;      Params:         5       0       0       0       0       0       0       0       0       0       0       0       
      +0       0       0       0       0       0       0       0       0       0       0       0       0       0       0       
      +0       0       0       0       0       0       0       0       0       0       0       0       0       0       0       
      +0       0       0       0       0       0       0       0       0
  3893 ;;      Locals:         0       0       0       0       0       0       0       0       0       0       0       0       
      +0       0       0       0       0       0       0       0       0       0       0       0       0       0       0       
      +0       0       0       0       0       0       0       0       0       0       0       0       0       0       0       
      +0       0       0       0       0       0       0       0       0
  3894 ;;      Temps:          0       0       0       0       0       0       0       0       0       0       0       0       
      +0       0       0       0       0       0       0       0       0       0       0       0       0       0       0       
      +0       0       0       0       0       0       0       0       0       0       0       0       0       0       0       
      +0       0       0       0       0       0       0       0       0
  3895 ;;      Totals:         5       0       0       0       0       0       0       0       0       0       0       0       
      +0       0       0       0       0       0       0       0       0       0       0       0       0       0       0       
      +0       0       0       0       0       0       0       0       0       0       0       0       0       0       0       
      +0       0       0       0       0       0       0       0       0
  3896 ;;Total ram usage:        5 bytes
  3897 ;; Hardware stack levels used: 1
  3898 ;; Hardware stack levels required when called: 1
  3899 ;; This function calls:
  3900 ;;		_I2C1_SetCallback
  3901 ;; This function is called by:
  3902 ;;		_I2C1_Write1ByteRegister
  3903 ;;		_I2C1_Read1ByteRegister
  3904 ;;		_I2C1_Read2ByteRegister
  3905 ;;		_I2C1_Write2ByteRegister
  3906 ;;		_I2C1_WriteNBytes
  3907 ;;		_I2C1_ReadDataBlock
  3908 ;; This function uses a non-reentrant model
  3909 ;;
  3910                           
  3911                           	psect	text22
  3912  00513E                     __ptext22:
  3913                           	callstack 0
  3914  00513E                     _I2C1_SetAddressNackCallback:
  3915                           	callstack 120
  3916  00513E                     
  3917                           ;mcc_generated_files/i2c1_master.c: 316: void I2C1_SetAddressNackCallback(i2c1_callback_
      +                          t cb, void *ptr);mcc_generated_files/i2c1_master.c: 317: {;mcc_generated_files/i2c1_mast
      +                          er.c: 318:     I2C1_SetCallback(I2C1_ADDR_NACK, cb, ptr);
  3918  00513E  C507  F501         	movff	I2C1_SetAddressNackCallback@cb,I2C1_SetCallback@cb
  3919  005142  C508  F502         	movff	I2C1_SetAddressNackCallback@cb+1,I2C1_SetCallback@cb+1
  3920  005146  C509  F503         	movff	I2C1_SetAddressNackCallback@cb+2,I2C1_SetCallback@cb+2
  3921  00514A  C50A  F504         	movff	I2C1_SetAddressNackCallback@ptr,I2C1_SetCallback@ptr
  3922  00514E  C50B  F505         	movff	I2C1_SetAddressNackCallback@ptr+1,I2C1_SetCallback@ptr+1
  3923  005152  0E02               	movlw	2
  3924  005154  EC0A  F024         	call	_I2C1_SetCallback
  3925  005158  0012               	return		;funcret
  3926  00515A                     __end_of_I2C1_SetAddressNackCallback:
  3927                           	callstack 0
  3928                           
  3929 ;; *************** function _I2C1_Open *****************
  3930 ;; Defined at:
  3931 ;;		line 207 in file "mcc_generated_files/i2c1_master.c"
  3932 ;; Parameters:    Size  Location     Type
  3933 ;;  address         1    wreg     unsigned char 
  3934 ;; Auto vars:     Size  Location     Type
  3935 ;;  address         1    0[COMRAM] unsigned char 
  3936 ;;  returnValue     1    1[COMRAM] enum E355
  3937 ;; Return value:  Size  Location     Type
  3938 ;;                  1    wreg      enum E355
  3939 ;; Registers used:
  3940 ;;		wreg, status,2, status,0, cstack
  3941 ;; Tracked objects:
  3942 ;;		On entry : 0/0
  3943 ;;		On exit  : 0/0
  3944 ;;		Unchanged: 0/0
  3945 ;; Data sizes:     COMRAM   BANK5   BANK6   BANK7   BANK8   BANK9  BANK10  BANK11  BANK12  BANK13  BANK14  BANK15  BANK1
      +6  BANK17  BANK18  BANK19  BANK20  BANK21  BANK22  BANK23  BANK24  BANK25  BANK26  BANK27  BANK28  BANK29  BANK30  BANK3
      +1  BANK32  BANK33  BANK34  BANK35  BANK36  BANK37  BANK38  BANK39  BANK40  BANK41  BANK42  BANK43  BANK44  BANK45  BANK4
      +6  BANK47  BANK48  BANK49  BANK50  BANK51  BANK52  BANK53  BANK54
  3946 ;;      Params:         0       0       0       0       0       0       0       0       0       0       0       0       
      +0       0       0       0       0       0       0       0       0       0       0       0       0       0       0       
      +0       0       0       0       0       0       0       0       0       0       0       0       0       0       0       
      +0       0       0       0       0       0       0       0       0
  3947 ;;      Locals:         2       0       0       0       0       0       0       0       0       0       0       0       
      +0       0       0       0       0       0       0       0       0       0       0       0       0       0       0       
      +0       0       0       0       0       0       0       0       0       0       0       0       0       0       0       
      +0       0       0       0       0       0       0       0       0
  3948 ;;      Temps:          0       0       0       0       0       0       0       0       0       0       0       0       
      +0       0       0       0       0       0       0       0       0       0       0       0       0       0       0       
      +0       0       0       0       0       0       0       0       0       0       0       0       0       0       0       
      +0       0       0       0       0       0       0       0       0
  3949 ;;      Totals:         2       0       0       0       0       0       0       0       0       0       0       0       
      +0       0       0       0       0       0       0       0       0       0       0       0       0       0       0       
      +0       0       0       0       0       0       0       0       0       0       0       0       0       0       0       
      +0       0       0       0       0       0       0       0       0
  3950 ;;Total ram usage:        2 bytes
  3951 ;; Hardware stack levels used: 1
  3952 ;; Hardware stack levels required when called: 1
  3953 ;; This function calls:
  3954 ;;		_I2C1_MasterClearIrq
  3955 ;;		_I2C1_MasterOpen
  3956 ;; This function is called by:
  3957 ;;		_I2C1_Write1ByteRegister
  3958 ;;		_I2C1_Read1ByteRegister
  3959 ;;		_I2C1_Read2ByteRegister
  3960 ;;		_I2C1_Write2ByteRegister
  3961 ;;		_I2C1_WriteNBytes
  3962 ;;		_I2C1_ReadNBytes
  3963 ;;		_I2C1_ReadDataBlock
  3964 ;; This function uses a non-reentrant model
  3965 ;;
  3966                           
  3967                           	psect	text23
  3968  00458E                     __ptext23:
  3969                           	callstack 0
  3970  00458E                     _I2C1_Open:
  3971                           	callstack 120
  3972                           
  3973                           ;incstack = 0
  3974                           ;I2C1_Open@address stored from wreg
  3975  00458E  6E01               	movwf	I2C1_Open@address^(0+1280),c
  3976  004590                     
  3977                           ;mcc_generated_files/i2c1_master.c: 207: i2c1_error_t I2C1_Open(i2c1_address_t address);
      +                          mcc_generated_files/i2c1_master.c: 208: {;mcc_generated_files/i2c1_master.c: 209:     i2
      +                          c1_error_t returnValue = I2C1_BUSY;
  3978  004590  0E01               	movlw	1
  3979  004592  6E02               	movwf	I2C1_Open@returnValue^(0+1280),c
  3980  004594                     
  3981                           ;mcc_generated_files/i2c1_master.c: 211:     if(!I2C1_Status.inUse)
  3982  004594  0105               	movlb	5	; () banked
  3983  004596  B789               	btfsc	(_I2C1_Status+41)& (0+255),3,b
  3984  004598  EFD0  F022         	goto	u1661
  3985  00459C  EFD2  F022         	goto	u1660
  3986  0045A0                     u1661:
  3987  0045A0  EF17  F023         	goto	l4076
  3988  0045A4                     u1660:
  3989  0045A4                     
  3990                           ; BSR set to: 5
  3991                           ;mcc_generated_files/i2c1_master.c: 212:     {;mcc_generated_files/i2c1_master.c: 213:  
      +                                 I2C1_Status.address = address;
  3992  0045A4  C501  F582         	movff	I2C1_Open@address,_I2C1_Status+34
  3993  0045A8                     
  3994                           ; BSR set to: 5
  3995                           ;mcc_generated_files/i2c1_master.c: 214:         I2C1_Status.busy = 0;
  3996  0045A8  9589               	bcf	(_I2C1_Status+41)& (0+255),2,b
  3997  0045AA                     
  3998                           ; BSR set to: 5
  3999                           ;mcc_generated_files/i2c1_master.c: 215:         I2C1_Status.inUse = 1;
  4000  0045AA  8789               	bsf	(_I2C1_Status+41)& (0+255),3,b
  4001  0045AC                     
  4002                           ; BSR set to: 5
  4003                           ;mcc_generated_files/i2c1_master.c: 216:         I2C1_Status.addressNackCheck = 0;
  4004  0045AC  0EFC               	movlw	-4
  4005  0045AE  1789               	andwf	(_I2C1_Status+41)& (0+255),f,b
  4006  0045B0                     
  4007                           ; BSR set to: 5
  4008                           ;mcc_generated_files/i2c1_master.c: 217:         I2C1_Status.state = I2C1_RESET;
  4009  0045B0  0E0F               	movlw	15
  4010  0045B2  6F87               	movwf	(_I2C1_Status+39)& (0+255),b
  4011  0045B4                     
  4012                           ; BSR set to: 5
  4013                           ;mcc_generated_files/i2c1_master.c: 218:         I2C1_Status.time_out_value = 500;
  4014  0045B4  0E01               	movlw	1
  4015  0045B6  6F81               	movwf	(_I2C1_Status+33)& (0+255),b
  4016  0045B8  0EF4               	movlw	244
  4017  0045BA  6F80               	movwf	(_I2C1_Status+32)& (0+255),b
  4018  0045BC                     
  4019                           ; BSR set to: 5
  4020                           ;mcc_generated_files/i2c1_master.c: 219:         I2C1_Status.bufferFree = 1;
  4021  0045BC  8989               	bsf	(_I2C1_Status+41)& (0+255),4,b
  4022  0045BE                     
  4023                           ; BSR set to: 5
  4024                           ;mcc_generated_files/i2c1_master.c: 222:         I2C1_Status.callbackTable[I2C1_DATA_COM
      +                          PLETE]=I2C1_CallbackReturnStop;
  4025  0045BE  0ED0               	movlw	low _I2C1_CallbackReturnStop
  4026  0045C0  6F60               	movwf	_I2C1_Status& (0+255),b
  4027  0045C2  0E53               	movlw	high _I2C1_CallbackReturnStop
  4028  0045C4  6F61               	movwf	(_I2C1_Status+1)& (0+255),b
  4029  0045C6  0E00               	movlw	low (_I2C1_CallbackReturnStop shr (0+16))
  4030  0045C8  6F62               	movwf	(_I2C1_Status+2)& (0+255),b
  4031  0045CA                     
  4032                           ; BSR set to: 5
  4033                           ;mcc_generated_files/i2c1_master.c: 223:         I2C1_Status.callbackPayload[I2C1_DATA_C
      +                          OMPLETE] = ((void*)0);
  4034  0045CA  0E00               	movlw	0
  4035  0045CC  6F72               	movwf	(_I2C1_Status+18)& (0+255),b
  4036  0045CE  0E00               	movlw	0
  4037  0045D0  6F73               	movwf	(_I2C1_Status+19)& (0+255),b
  4038  0045D2                     
  4039                           ; BSR set to: 5
  4040                           ;mcc_generated_files/i2c1_master.c: 224:         I2C1_Status.callbackTable[I2C1_WRITE_CO
      +                          LLISION]=I2C1_CallbackReturnStop;
  4041  0045D2  0ED0               	movlw	low _I2C1_CallbackReturnStop
  4042  0045D4  6F63               	movwf	(_I2C1_Status+3)& (0+255),b
  4043  0045D6  0E53               	movlw	high _I2C1_CallbackReturnStop
  4044  0045D8  6F64               	movwf	(_I2C1_Status+4)& (0+255),b
  4045  0045DA  0E00               	movlw	low (_I2C1_CallbackReturnStop shr (0+16))
  4046  0045DC  6F65               	movwf	(_I2C1_Status+5)& (0+255),b
  4047  0045DE                     
  4048                           ; BSR set to: 5
  4049                           ;mcc_generated_files/i2c1_master.c: 225:         I2C1_Status.callbackPayload[I2C1_WRITE_
      +                          COLLISION] = ((void*)0);
  4050  0045DE  0E00               	movlw	0
  4051  0045E0  6F74               	movwf	(_I2C1_Status+20)& (0+255),b
  4052  0045E2  0E00               	movlw	0
  4053  0045E4  6F75               	movwf	(_I2C1_Status+21)& (0+255),b
  4054  0045E6                     
  4055                           ; BSR set to: 5
  4056                           ;mcc_generated_files/i2c1_master.c: 226:         I2C1_Status.callbackTable[I2C1_ADDR_NAC
      +                          K]=I2C1_CallbackReturnStop;
  4057  0045E6  0ED0               	movlw	low _I2C1_CallbackReturnStop
  4058  0045E8  6F66               	movwf	(_I2C1_Status+6)& (0+255),b
  4059  0045EA  0E53               	movlw	high _I2C1_CallbackReturnStop
  4060  0045EC  6F67               	movwf	(_I2C1_Status+7)& (0+255),b
  4061  0045EE  0E00               	movlw	low (_I2C1_CallbackReturnStop shr (0+16))
  4062  0045F0  6F68               	movwf	(_I2C1_Status+8)& (0+255),b
  4063  0045F2                     
  4064                           ; BSR set to: 5
  4065                           ;mcc_generated_files/i2c1_master.c: 227:         I2C1_Status.callbackPayload[I2C1_ADDR_N
      +                          ACK] = ((void*)0);
  4066  0045F2  0E00               	movlw	0
  4067  0045F4  6F76               	movwf	(_I2C1_Status+22)& (0+255),b
  4068  0045F6  0E00               	movlw	0
  4069  0045F8  6F77               	movwf	(_I2C1_Status+23)& (0+255),b
  4070  0045FA                     
  4071                           ; BSR set to: 5
  4072                           ;mcc_generated_files/i2c1_master.c: 228:         I2C1_Status.callbackTable[I2C1_DATA_NAC
      +                          K]=I2C1_CallbackReturnStop;
  4073  0045FA  0ED0               	movlw	low _I2C1_CallbackReturnStop
  4074  0045FC  6F69               	movwf	(_I2C1_Status+9)& (0+255),b
  4075  0045FE  0E53               	movlw	high _I2C1_CallbackReturnStop
  4076  004600  6F6A               	movwf	(_I2C1_Status+10)& (0+255),b
  4077  004602  0E00               	movlw	low (_I2C1_CallbackReturnStop shr (0+16))
  4078  004604  6F6B               	movwf	(_I2C1_Status+11)& (0+255),b
  4079  004606                     
  4080                           ; BSR set to: 5
  4081                           ;mcc_generated_files/i2c1_master.c: 229:         I2C1_Status.callbackPayload[I2C1_DATA_N
      +                          ACK] = ((void*)0);
  4082  004606  0E00               	movlw	0
  4083  004608  6F78               	movwf	(_I2C1_Status+24)& (0+255),b
  4084  00460A  0E00               	movlw	0
  4085  00460C  6F79               	movwf	(_I2C1_Status+25)& (0+255),b
  4086  00460E                     
  4087                           ; BSR set to: 5
  4088                           ;mcc_generated_files/i2c1_master.c: 230:         I2C1_Status.callbackTable[I2C1_TIMEOUT]
      +                          =I2C1_CallbackReturnReset;
  4089  00460E  0ECC               	movlw	low _I2C1_CallbackReturnReset
  4090  004610  6F6C               	movwf	(_I2C1_Status+12)& (0+255),b
  4091  004612  0E53               	movlw	high _I2C1_CallbackReturnReset
  4092  004614  6F6D               	movwf	(_I2C1_Status+13)& (0+255),b
  4093  004616  0E00               	movlw	low (_I2C1_CallbackReturnReset shr (0+16))
  4094  004618  6F6E               	movwf	(_I2C1_Status+14)& (0+255),b
  4095  00461A                     
  4096                           ; BSR set to: 5
  4097                           ;mcc_generated_files/i2c1_master.c: 231:         I2C1_Status.callbackPayload[I2C1_TIMEOU
      +                          T] = ((void*)0);
  4098  00461A  0E00               	movlw	0
  4099  00461C  6F7A               	movwf	(_I2C1_Status+26)& (0+255),b
  4100  00461E  0E00               	movlw	0
  4101  004620  6F7B               	movwf	(_I2C1_Status+27)& (0+255),b
  4102  004622                     
  4103                           ; BSR set to: 5
  4104                           ;mcc_generated_files/i2c1_master.c: 233:         I2C1_MasterClearIrq();
  4105  004622  ECC0  F029         	call	_I2C1_MasterClearIrq	;wreg free
  4106  004626                     
  4107                           ;mcc_generated_files/i2c1_master.c: 234:         I2C1_MasterOpen();
  4108  004626  ECE3  F027         	call	_I2C1_MasterOpen	;wreg free
  4109  00462A                     
  4110                           ;mcc_generated_files/i2c1_master.c: 235:         returnValue = I2C1_NOERR;
  4111  00462A  0E00               	movlw	0
  4112  00462C  6E02               	movwf	I2C1_Open@returnValue^(0+1280),c
  4113  00462E                     l4076:
  4114                           
  4115                           ;mcc_generated_files/i2c1_master.c: 237:     return returnValue;
  4116  00462E  5002               	movf	I2C1_Open@returnValue^(0+1280),w,c
  4117  004630  0012               	return		;funcret
  4118  004632                     __end_of_I2C1_Open:
  4119                           	callstack 0
  4120                           
  4121 ;; *************** function _I2C1_MasterOpen *****************
  4122 ;; Defined at:
  4123 ;;		line 635 in file "mcc_generated_files/i2c1_master.c"
  4124 ;; Parameters:    Size  Location     Type
  4125 ;;		None
  4126 ;; Auto vars:     Size  Location     Type
  4127 ;;		None
  4128 ;; Return value:  Size  Location     Type
  4129 ;;                  1    wreg      _Bool 
  4130 ;; Registers used:
  4131 ;;		wreg, status,2
  4132 ;; Tracked objects:
  4133 ;;		On entry : 0/0
  4134 ;;		On exit  : 0/0
  4135 ;;		Unchanged: 0/0
  4136 ;; Data sizes:     COMRAM   BANK5   BANK6   BANK7   BANK8   BANK9  BANK10  BANK11  BANK12  BANK13  BANK14  BANK15  BANK1
      +6  BANK17  BANK18  BANK19  BANK20  BANK21  BANK22  BANK23  BANK24  BANK25  BANK26  BANK27  BANK28  BANK29  BANK30  BANK3
      +1  BANK32  BANK33  BANK34  BANK35  BANK36  BANK37  BANK38  BANK39  BANK40  BANK41  BANK42  BANK43  BANK44  BANK45  BANK4
      +6  BANK47  BANK48  BANK49  BANK50  BANK51  BANK52  BANK53  BANK54
  4137 ;;      Params:         0       0       0       0       0       0       0       0       0       0       0       0       
      +0       0       0       0       0       0       0       0       0       0       0       0       0       0       0       
      +0       0       0       0       0       0       0       0       0       0       0       0       0       0       0       
      +0       0       0       0       0       0       0       0       0
  4138 ;;      Locals:         0       0       0       0       0       0       0       0       0       0       0       0       
      +0       0       0       0       0       0       0       0       0       0       0       0       0       0       0       
      +0       0       0       0       0       0       0       0       0       0       0       0       0       0       0       
      +0       0       0       0       0       0       0       0       0
  4139 ;;      Temps:          0       0       0       0       0       0       0       0       0       0       0       0       
      +0       0       0       0       0       0       0       0       0       0       0       0       0       0       0       
      +0       0       0       0       0       0       0       0       0       0       0       0       0       0       0       
      +0       0       0       0       0       0       0       0       0
  4140 ;;      Totals:         0       0       0       0       0       0       0       0       0       0       0       0       
      +0       0       0       0       0       0       0       0       0       0       0       0       0       0       0       
      +0       0       0       0       0       0       0       0       0       0       0       0       0       0       0       
      +0       0       0       0       0       0       0       0       0
  4141 ;;Total ram usage:        0 bytes
  4142 ;; Hardware stack levels used: 1
  4143 ;; This function calls:
  4144 ;;		Nothing
  4145 ;; This function is called by:
  4146 ;;		_I2C1_Open
  4147 ;; This function uses a non-reentrant model
  4148 ;;
  4149                           
  4150                           	psect	text24
  4151  004FC6                     __ptext24:
  4152                           	callstack 0
  4153  004FC6                     _I2C1_MasterOpen:
  4154                           	callstack 120
  4155  004FC6                     
  4156                           ;mcc_generated_files/i2c1_master.c: 637:     if(!I2C1CON0bits.EN)
  4157  004FC6  0102               	movlb	2	; () banked
  4158  004FC8  BF94               	btfsc	148,7,b	;volatile
  4159  004FCA  EFE9  F027         	goto	u1631
  4160  004FCE  EFEB  F027         	goto	u1630
  4161  004FD2                     u1631:
  4162  004FD2  EFF8  F027         	goto	l487
  4163  004FD6                     u1630:
  4164  004FD6                     
  4165                           ; BSR set to: 2
  4166                           ;mcc_generated_files/i2c1_master.c: 638:     {;mcc_generated_files/i2c1_master.c: 640:  
      +                                 I2C1PIR = 0x00;
  4167  004FD6  0E00               	movlw	0
  4168  004FD8  6F9A               	movwf	154,b	;volatile
  4169                           
  4170                           ;mcc_generated_files/i2c1_master.c: 642:         I2C1PIE = 0x00;
  4171  004FDA  0E00               	movlw	0
  4172  004FDC  6F9B               	movwf	155,b	;volatile
  4173                           
  4174                           ;mcc_generated_files/i2c1_master.c: 644:         I2C1ERR = 0x00;
  4175  004FDE  0E00               	movlw	0
  4176  004FE0  6F97               	movwf	151,b	;volatile
  4177                           
  4178                           ;mcc_generated_files/i2c1_master.c: 646:         I2C1CNTL = 0x00;
  4179  004FE2  0E00               	movlw	0
  4180  004FE4  6F8C               	movwf	140,b	;volatile
  4181                           
  4182                           ;mcc_generated_files/i2c1_master.c: 647:         I2C1CNTH = 0x00;
  4183  004FE6  0E00               	movlw	0
  4184  004FE8  6F8D               	movwf	141,b	;volatile
  4185                           
  4186                           ;mcc_generated_files/i2c1_master.c: 649:         I2C1BAUD = 0x00;
  4187  004FEA  0E00               	movlw	0
  4188  004FEC  6F9D               	movwf	157,b	;volatile
  4189  004FEE                     
  4190                           ; BSR set to: 2
  4191                           ;mcc_generated_files/i2c1_master.c: 651:         I2C1CON0bits.EN = 1;
  4192  004FEE  8F94               	bsf	148,7,b	;volatile
  4193  004FF0                     l487:
  4194                           
  4195                           ; BSR set to: 2
  4196  004FF0  0012               	return		;funcret
  4197  004FF2                     __end_of_I2C1_MasterOpen:
  4198                           	callstack 0
  4199                           
  4200 ;; *************** function _I2C1_MasterWrite *****************
  4201 ;; Defined at:
  4202 ;;		line 284 in file "mcc_generated_files/i2c1_master.c"
  4203 ;; Parameters:    Size  Location     Type
  4204 ;;		None
  4205 ;; Auto vars:     Size  Location     Type
  4206 ;;		None
  4207 ;; Return value:  Size  Location     Type
  4208 ;;                  1    wreg      enum E355
  4209 ;; Registers used:
  4210 ;;		wreg, fsr2l, fsr2h, status,2, status,0, pclath, tosl, tblptrl, tblptrh, tblptru, prodl, prodh, cstack
  4211 ;; Tracked objects:
  4212 ;;		On entry : 0/0
  4213 ;;		On exit  : 0/0
  4214 ;;		Unchanged: 0/0
  4215 ;; Data sizes:     COMRAM   BANK5   BANK6   BANK7   BANK8   BANK9  BANK10  BANK11  BANK12  BANK13  BANK14  BANK15  BANK1
      +6  BANK17  BANK18  BANK19  BANK20  BANK21  BANK22  BANK23  BANK24  BANK25  BANK26  BANK27  BANK28  BANK29  BANK30  BANK3
      +1  BANK32  BANK33  BANK34  BANK35  BANK36  BANK37  BANK38  BANK39  BANK40  BANK41  BANK42  BANK43  BANK44  BANK45  BANK4
      +6  BANK47  BANK48  BANK49  BANK50  BANK51  BANK52  BANK53  BANK54
  4216 ;;      Params:         0       0       0       0       0       0       0       0       0       0       0       0       
      +0       0       0       0       0       0       0       0       0       0       0       0       0       0       0       
      +0       0       0       0       0       0       0       0       0       0       0       0       0       0       0       
      +0       0       0       0       0       0       0       0       0
  4217 ;;      Locals:         0       0       0       0       0       0       0       0       0       0       0       0       
      +0       0       0       0       0       0       0       0       0       0       0       0       0       0       0       
      +0       0       0       0       0       0       0       0       0       0       0       0       0       0       0       
      +0       0       0       0       0       0       0       0       0
  4218 ;;      Temps:          0       0       0       0       0       0       0       0       0       0       0       0       
      +0       0       0       0       0       0       0       0       0       0       0       0       0       0       0       
      +0       0       0       0       0       0       0       0       0       0       0       0       0       0       0       
      +0       0       0       0       0       0       0       0       0
  4219 ;;      Totals:         0       0       0       0       0       0       0       0       0       0       0       0       
      +0       0       0       0       0       0       0       0       0       0       0       0       0       0       0       
      +0       0       0       0       0       0       0       0       0       0       0       0       0       0       0       
      +0       0       0       0       0       0       0       0       0
  4220 ;;Total ram usage:        0 bytes
  4221 ;; Hardware stack levels used: 1
  4222 ;; Hardware stack levels required when called: 10
  4223 ;; This function calls:
  4224 ;;		_I2C1_MasterOperation
  4225 ;; This function is called by:
  4226 ;;		_I2C1_Write1ByteRegister
  4227 ;;		_I2C1_Read1ByteRegister
  4228 ;;		_I2C1_Read2ByteRegister
  4229 ;;		_I2C1_Write2ByteRegister
  4230 ;;		_I2C1_WriteNBytes
  4231 ;;		_I2C1_ReadDataBlock
  4232 ;; This function uses a non-reentrant model
  4233 ;;
  4234                           
  4235                           	psect	text25
  4236  005360                     __ptext25:
  4237                           	callstack 0
  4238  005360                     _I2C1_MasterWrite:
  4239                           	callstack 111
  4240  005360                     
  4241                           ;mcc_generated_files/i2c1_master.c: 286:     return I2C1_MasterOperation(0);;	Return val
      +                          ue of _I2C1_MasterWrite is never used
  4242  005360  0E00               	movlw	0
  4243  005362  EC7A  F026         	call	_I2C1_MasterOperation
  4244  005366  0012               	return		;funcret
  4245  005368                     __end_of_I2C1_MasterWrite:
  4246                           	callstack 0
  4247                           
  4248 ;; *************** function _I2C1_MasterOperation *****************
  4249 ;; Defined at:
  4250 ;;		line 255 in file "mcc_generated_files/i2c1_master.c"
  4251 ;; Parameters:    Size  Location     Type
  4252 ;;  read            1    wreg     _Bool 
  4253 ;; Auto vars:     Size  Location     Type
  4254 ;;  read            1   19[COMRAM] _Bool 
  4255 ;;  returnValue     1   20[COMRAM] enum E355
  4256 ;; Return value:  Size  Location     Type
  4257 ;;                  1    wreg      enum E355
  4258 ;; Registers used:
  4259 ;;		wreg, fsr2l, fsr2h, status,2, status,0, pclath, tosl, tblptrl, tblptrh, tblptru, prodl, prodh, cstack
  4260 ;; Tracked objects:
  4261 ;;		On entry : 0/0
  4262 ;;		On exit  : 0/0
  4263 ;;		Unchanged: 0/0
  4264 ;; Data sizes:     COMRAM   BANK5   BANK6   BANK7   BANK8   BANK9  BANK10  BANK11  BANK12  BANK13  BANK14  BANK15  BANK1
      +6  BANK17  BANK18  BANK19  BANK20  BANK21  BANK22  BANK23  BANK24  BANK25  BANK26  BANK27  BANK28  BANK29  BANK30  BANK3
      +1  BANK32  BANK33  BANK34  BANK35  BANK36  BANK37  BANK38  BANK39  BANK40  BANK41  BANK42  BANK43  BANK44  BANK45  BANK4
      +6  BANK47  BANK48  BANK49  BANK50  BANK51  BANK52  BANK53  BANK54
  4265 ;;      Params:         0       0       0       0       0       0       0       0       0       0       0       0       
      +0       0       0       0       0       0       0       0       0       0       0       0       0       0       0       
      +0       0       0       0       0       0       0       0       0       0       0       0       0       0       0       
      +0       0       0       0       0       0       0       0       0
  4266 ;;      Locals:         2       0       0       0       0       0       0       0       0       0       0       0       
      +0       0       0       0       0       0       0       0       0       0       0       0       0       0       0       
      +0       0       0       0       0       0       0       0       0       0       0       0       0       0       0       
      +0       0       0       0       0       0       0       0       0
  4267 ;;      Temps:          0       0       0       0       0       0       0       0       0       0       0       0       
      +0       0       0       0       0       0       0       0       0       0       0       0       0       0       0       
      +0       0       0       0       0       0       0       0       0       0       0       0       0       0       0       
      +0       0       0       0       0       0       0       0       0
  4268 ;;      Totals:         2       0       0       0       0       0       0       0       0       0       0       0       
      +0       0       0       0       0       0       0       0       0       0       0       0       0       0       0       
      +0       0       0       0       0       0       0       0       0       0       0       0       0       0       0       
      +0       0       0       0       0       0       0       0       0
  4269 ;;Total ram usage:        2 bytes
  4270 ;; Hardware stack levels used: 1
  4271 ;; Hardware stack levels required when called: 9
  4272 ;; This function calls:
  4273 ;;		_I2C1_DO_SEND_ADR_READ
  4274 ;;		_I2C1_DO_SEND_ADR_WRITE
  4275 ;;		_I2C1_MasterSetCounter
  4276 ;;		_I2C1_Poller
  4277 ;; This function is called by:
  4278 ;;		_I2C1_MasterWrite
  4279 ;;		_I2C1_MasterRead
  4280 ;; This function uses a non-reentrant model
  4281 ;;
  4282                           
  4283                           	psect	text26
  4284  004CF4                     __ptext26:
  4285                           	callstack 0
  4286  004CF4                     _I2C1_MasterOperation:
  4287                           	callstack 111
  4288                           
  4289                           ;incstack = 0
  4290                           ;I2C1_MasterOperation@read stored from wreg
  4291  004CF4  6E14               	movwf	I2C1_MasterOperation@read^(0+1280),c
  4292  004CF6                     
  4293                           ;mcc_generated_files/i2c1_master.c: 255: i2c1_error_t I2C1_MasterOperation(_Bool read);m
      +                          cc_generated_files/i2c1_master.c: 256: {;mcc_generated_files/i2c1_master.c: 257:     i2c
      +                          1_error_t returnValue = I2C1_BUSY;
  4294  004CF6  0E01               	movlw	1
  4295  004CF8  6E15               	movwf	I2C1_MasterOperation@returnValue^(0+1280),c
  4296  004CFA                     
  4297                           ;mcc_generated_files/i2c1_master.c: 258:     if(!I2C1_Status.busy)
  4298  004CFA  0105               	movlb	5	; () banked
  4299  004CFC  B589               	btfsc	(_I2C1_Status+41)& (0+255),2,b
  4300  004CFE  EF83  F026         	goto	u1641
  4301  004D02  EF85  F026         	goto	u1640
  4302  004D06                     u1641:
  4303  004D06  EFA1  F026         	goto	l4026
  4304  004D0A                     u1640:
  4305  004D0A                     
  4306                           ; BSR set to: 5
  4307                           ;mcc_generated_files/i2c1_master.c: 259:     {;mcc_generated_files/i2c1_master.c: 260:  
      +                                 I2C1_Status.busy = 1;
  4308  004D0A  8589               	bsf	(_I2C1_Status+41)& (0+255),2,b
  4309  004D0C                     
  4310                           ; BSR set to: 5
  4311                           ;mcc_generated_files/i2c1_master.c: 261:         returnValue = I2C1_NOERR;
  4312  004D0C  0E00               	movlw	0
  4313  004D0E  6E15               	movwf	I2C1_MasterOperation@returnValue^(0+1280),c
  4314  004D10                     
  4315                           ; BSR set to: 5
  4316                           ;mcc_generated_files/i2c1_master.c: 262:         I2C1_MasterSetCounter((uint8_t) I2C1_St
      +                          atus.data_length);
  4317  004D10  5185               	movf	(_I2C1_Status+37)& (0+255),w,b
  4318  004D12  EC55  F029         	call	_I2C1_MasterSetCounter
  4319  004D16                     
  4320                           ;mcc_generated_files/i2c1_master.c: 264:         if(read)
  4321  004D16  5014               	movf	I2C1_MasterOperation@read^(0+1280),w,c
  4322  004D18  B4D8               	btfsc	status,2,c
  4323  004D1A  EF91  F026         	goto	u1651
  4324  004D1E  EF93  F026         	goto	u1650
  4325  004D22                     u1651:
  4326  004D22  EF9A  F026         	goto	l4020
  4327  004D26                     u1650:
  4328  004D26                     
  4329                           ;mcc_generated_files/i2c1_master.c: 265:         {;mcc_generated_files/i2c1_master.c: 26
      +                          6:             I2C1_Status.state = I2C1_RX;
  4330  004D26  0E04               	movlw	4
  4331  004D28  0105               	movlb	5	; () banked
  4332  004D2A  6F87               	movwf	(_I2C1_Status+39)& (0+255),b
  4333  004D2C                     
  4334                           ; BSR set to: 5
  4335                           ;mcc_generated_files/i2c1_master.c: 267:             I2C1_DO_SEND_ADR_READ();
  4336  004D2C  ECCC  F027         	call	_I2C1_DO_SEND_ADR_READ	;wreg free
  4337                           
  4338                           ;mcc_generated_files/i2c1_master.c: 268:         }
  4339  004D30  EF9F  F026         	goto	l4024
  4340  004D34                     l4020:
  4341                           
  4342                           ;mcc_generated_files/i2c1_master.c: 270:         {;mcc_generated_files/i2c1_master.c: 27
      +                          1:             I2C1_Status.state = I2C1_TX;
  4343  004D34  0E03               	movlw	3
  4344  004D36  0105               	movlb	5	; () banked
  4345  004D38  6F87               	movwf	(_I2C1_Status+39)& (0+255),b
  4346  004D3A                     
  4347                           ; BSR set to: 5
  4348                           ;mcc_generated_files/i2c1_master.c: 272:             I2C1_DO_SEND_ADR_WRITE();
  4349  004D3A  ECEE  F028         	call	_I2C1_DO_SEND_ADR_WRITE	;wreg free
  4350  004D3E                     l4024:
  4351                           
  4352                           ;mcc_generated_files/i2c1_master.c: 274:         I2C1_Poller();
  4353  004D3E  EC82  F028         	call	_I2C1_Poller	;wreg free
  4354  004D42                     l4026:
  4355                           
  4356                           ;mcc_generated_files/i2c1_master.c: 276:     return returnValue;
  4357  004D42  5015               	movf	I2C1_MasterOperation@returnValue^(0+1280),w,c
  4358  004D44  0012               	return		;funcret
  4359  004D46                     __end_of_I2C1_MasterOperation:
  4360                           	callstack 0
  4361                           
  4362 ;; *************** function _I2C1_Poller *****************
  4363 ;; Defined at:
  4364 ;;		line 345 in file "mcc_generated_files/i2c1_master.c"
  4365 ;; Parameters:    Size  Location     Type
  4366 ;;		None
  4367 ;; Auto vars:     Size  Location     Type
  4368 ;;		None
  4369 ;; Return value:  Size  Location     Type
  4370 ;;                  1    wreg      void 
  4371 ;; Registers used:
  4372 ;;		wreg, fsr2l, fsr2h, status,2, status,0, pclath, tosl, tblptrl, tblptrh, tblptru, prodl, prodh, cstack
  4373 ;; Tracked objects:
  4374 ;;		On entry : 0/0
  4375 ;;		On exit  : 0/0
  4376 ;;		Unchanged: 0/0
  4377 ;; Data sizes:     COMRAM   BANK5   BANK6   BANK7   BANK8   BANK9  BANK10  BANK11  BANK12  BANK13  BANK14  BANK15  BANK1
      +6  BANK17  BANK18  BANK19  BANK20  BANK21  BANK22  BANK23  BANK24  BANK25  BANK26  BANK27  BANK28  BANK29  BANK30  BANK3
      +1  BANK32  BANK33  BANK34  BANK35  BANK36  BANK37  BANK38  BANK39  BANK40  BANK41  BANK42  BANK43  BANK44  BANK45  BANK4
      +6  BANK47  BANK48  BANK49  BANK50  BANK51  BANK52  BANK53  BANK54
  4378 ;;      Params:         0       0       0       0       0       0       0       0       0       0       0       0       
      +0       0       0       0       0       0       0       0       0       0       0       0       0       0       0       
      +0       0       0       0       0       0       0       0       0       0       0       0       0       0       0       
      +0       0       0       0       0       0       0       0       0
  4379 ;;      Locals:         0       0       0       0       0       0       0       0       0       0       0       0       
      +0       0       0       0       0       0       0       0       0       0       0       0       0       0       0       
      +0       0       0       0       0       0       0       0       0       0       0       0       0       0       0       
      +0       0       0       0       0       0       0       0       0
  4380 ;;      Temps:          0       0       0       0       0       0       0       0       0       0       0       0       
      +0       0       0       0       0       0       0       0       0       0       0       0       0       0       0       
      +0       0       0       0       0       0       0       0       0       0       0       0       0       0       0       
      +0       0       0       0       0       0       0       0       0
  4381 ;;      Totals:         0       0       0       0       0       0       0       0       0       0       0       0       
      +0       0       0       0       0       0       0       0       0       0       0       0       0       0       0       
      +0       0       0       0       0       0       0       0       0       0       0       0       0       0       0       
      +0       0       0       0       0       0       0       0       0
  4382 ;;Total ram usage:        0 bytes
  4383 ;; Hardware stack levels used: 1
  4384 ;; Hardware stack levels required when called: 8
  4385 ;; This function calls:
  4386 ;;		_I2C1_MasterFsm
  4387 ;;		_I2C1_MasterWaitForEvent
  4388 ;; This function is called by:
  4389 ;;		_I2C1_MasterOperation
  4390 ;; This function uses a non-reentrant model
  4391 ;;
  4392                           
  4393                           	psect	text27
  4394  005104                     __ptext27:
  4395                           	callstack 0
  4396  005104                     _I2C1_Poller:
  4397                           	callstack 111
  4398  005104                     
  4399                           ;mcc_generated_files/i2c1_master.c: 347:     while(I2C1_Status.busy)
  4400  005104  EF88  F028         	goto	l3982
  4401  005108                     l3978:
  4402                           
  4403                           ; BSR set to: 5
  4404                           ;mcc_generated_files/i2c1_master.c: 348:     {;mcc_generated_files/i2c1_master.c: 349:  
      +                                 I2C1_MasterWaitForEvent();
  4405  005108  EC24  F026         	call	_I2C1_MasterWaitForEvent	;wreg free
  4406  00510C                     
  4407                           ;mcc_generated_files/i2c1_master.c: 350:         I2C1_MasterFsm();
  4408  00510C  EC7F  F025         	call	_I2C1_MasterFsm	;wreg free
  4409  005110                     l3982:
  4410                           
  4411                           ;mcc_generated_files/i2c1_master.c: 347:     while(I2C1_Status.busy)
  4412  005110  0105               	movlb	5	; () banked
  4413  005112  B589               	btfsc	(_I2C1_Status+41)& (0+255),2,b
  4414  005114  EF8E  F028         	goto	u1611
  4415  005118  EF90  F028         	goto	u1610
  4416  00511C                     u1611:
  4417  00511C  EF84  F028         	goto	l3978
  4418  005120                     u1610:
  4419  005120                     
  4420                           ; BSR set to: 5
  4421  005120  0012               	return		;funcret
  4422  005122                     __end_of_I2C1_Poller:
  4423                           	callstack 0
  4424                           
  4425 ;; *************** function _I2C1_MasterWaitForEvent *****************
  4426 ;; Defined at:
  4427 ;;		line 816 in file "mcc_generated_files/i2c1_master.c"
  4428 ;; Parameters:    Size  Location     Type
  4429 ;;		None
  4430 ;; Auto vars:     Size  Location     Type
  4431 ;;		None
  4432 ;; Return value:  Size  Location     Type
  4433 ;;                  1    wreg      void 
  4434 ;; Registers used:
  4435 ;;		None
  4436 ;; Tracked objects:
  4437 ;;		On entry : 0/0
  4438 ;;		On exit  : 0/0
  4439 ;;		Unchanged: 0/0
  4440 ;; Data sizes:     COMRAM   BANK5   BANK6   BANK7   BANK8   BANK9  BANK10  BANK11  BANK12  BANK13  BANK14  BANK15  BANK1
      +6  BANK17  BANK18  BANK19  BANK20  BANK21  BANK22  BANK23  BANK24  BANK25  BANK26  BANK27  BANK28  BANK29  BANK30  BANK3
      +1  BANK32  BANK33  BANK34  BANK35  BANK36  BANK37  BANK38  BANK39  BANK40  BANK41  BANK42  BANK43  BANK44  BANK45  BANK4
      +6  BANK47  BANK48  BANK49  BANK50  BANK51  BANK52  BANK53  BANK54
  4441 ;;      Params:         0       0       0       0       0       0       0       0       0       0       0       0       
      +0       0       0       0       0       0       0       0       0       0       0       0       0       0       0       
      +0       0       0       0       0       0       0       0       0       0       0       0       0       0       0       
      +0       0       0       0       0       0       0       0       0
  4442 ;;      Locals:         0       0       0       0       0       0       0       0       0       0       0       0       
      +0       0       0       0       0       0       0       0       0       0       0       0       0       0       0       
      +0       0       0       0       0       0       0       0       0       0       0       0       0       0       0       
      +0       0       0       0       0       0       0       0       0
  4443 ;;      Temps:          0       0       0       0       0       0       0       0       0       0       0       0       
      +0       0       0       0       0       0       0       0       0       0       0       0       0       0       0       
      +0       0       0       0       0       0       0       0       0       0       0       0       0       0       0       
      +0       0       0       0       0       0       0       0       0
  4444 ;;      Totals:         0       0       0       0       0       0       0       0       0       0       0       0       
      +0       0       0       0       0       0       0       0       0       0       0       0       0       0       0       
      +0       0       0       0       0       0       0       0       0       0       0       0       0       0       0       
      +0       0       0       0       0       0       0       0       0
  4445 ;;Total ram usage:        0 bytes
  4446 ;; Hardware stack levels used: 1
  4447 ;; This function calls:
  4448 ;;		Nothing
  4449 ;; This function is called by:
  4450 ;;		_I2C1_Poller
  4451 ;; This function uses a non-reentrant model
  4452 ;;
  4453                           
  4454                           	psect	text28
  4455  004C48                     __ptext28:
  4456                           	callstack 0
  4457  004C48                     _I2C1_MasterWaitForEvent:
  4458                           	callstack 118
  4459  004C48                     l567:
  4460                           
  4461                           ;mcc_generated_files/i2c1_master.c: 819:     {;mcc_generated_files/i2c1_master.c: 820:  
      +                                 if(PIR7bits.I2C1TXIF)
  4462  004C48  A2B5               	btfss	181,1,c	;volatile
  4463  004C4A  EF29  F026         	goto	u1531
  4464  004C4E  EF2B  F026         	goto	u1530
  4465  004C52                     u1531:
  4466  004C52  EF2D  F026         	goto	l568
  4467  004C56                     u1530:
  4468  004C56  EF50  F026         	goto	l575
  4469  004C5A                     l568:
  4470                           
  4471                           ;mcc_generated_files/i2c1_master.c: 824:         if(PIR7bits.I2C1RXIF)
  4472  004C5A  A0B5               	btfss	181,0,c	;volatile
  4473  004C5C  EF32  F026         	goto	u1541
  4474  004C60  EF34  F026         	goto	u1540
  4475  004C64                     u1541:
  4476  004C64  EF36  F026         	goto	l570
  4477  004C68                     u1540:
  4478  004C68  EF50  F026         	goto	l575
  4479  004C6C                     l570:
  4480                           
  4481                           ;mcc_generated_files/i2c1_master.c: 828:         if(I2C1PIRbits.PCIF)
  4482  004C6C  0102               	movlb	2	; () banked
  4483  004C6E  A59A               	btfss	154,2,b	;volatile
  4484  004C70  EF3C  F026         	goto	u1551
  4485  004C74  EF3E  F026         	goto	u1550
  4486  004C78                     u1551:
  4487  004C78  EF40  F026         	goto	l571
  4488  004C7C                     u1550:
  4489  004C7C  EF50  F026         	goto	l575
  4490  004C80                     l571:
  4491                           
  4492                           ; BSR set to: 2
  4493                           ;mcc_generated_files/i2c1_master.c: 832:         if(I2C1PIRbits.CNTIF)
  4494  004C80  AF9A               	btfss	154,7,b	;volatile
  4495  004C82  EF45  F026         	goto	u1561
  4496  004C86  EF47  F026         	goto	u1560
  4497  004C8A                     u1561:
  4498  004C8A  EF49  F026         	goto	l572
  4499  004C8E                     u1560:
  4500  004C8E  EF50  F026         	goto	l575
  4501  004C92                     l572:
  4502                           
  4503                           ; BSR set to: 2
  4504                           ;mcc_generated_files/i2c1_master.c: 836:         if(I2C1ERRbits.NACKIF)
  4505  004C92  A997               	btfss	151,4,b	;volatile
  4506  004C94  EF4E  F026         	goto	u1571
  4507  004C98  EF50  F026         	goto	u1570
  4508  004C9C                     u1571:
  4509  004C9C  EF24  F026         	goto	l567
  4510  004CA0                     u1570:
  4511  004CA0                     l575:
  4512  004CA0  0012               	return		;funcret
  4513  004CA2                     __end_of_I2C1_MasterWaitForEvent:
  4514                           	callstack 0
  4515                           
  4516 ;; *************** function _I2C1_MasterFsm *****************
  4517 ;; Defined at:
  4518 ;;		line 354 in file "mcc_generated_files/i2c1_master.c"
  4519 ;; Parameters:    Size  Location     Type
  4520 ;;		None
  4521 ;; Auto vars:     Size  Location     Type
  4522 ;;		None
  4523 ;; Return value:  Size  Location     Type
  4524 ;;                  1    wreg      void 
  4525 ;; Registers used:
  4526 ;;		wreg, fsr2l, fsr2h, status,2, status,0, pclath, tosl, tblptrl, tblptrh, tblptru, prodl, prodh, cstack
  4527 ;; Tracked objects:
  4528 ;;		On entry : 0/0
  4529 ;;		On exit  : 0/0
  4530 ;;		Unchanged: 0/0
  4531 ;; Data sizes:     COMRAM   BANK5   BANK6   BANK7   BANK8   BANK9  BANK10  BANK11  BANK12  BANK13  BANK14  BANK15  BANK1
      +6  BANK17  BANK18  BANK19  BANK20  BANK21  BANK22  BANK23  BANK24  BANK25  BANK26  BANK27  BANK28  BANK29  BANK30  BANK3
      +1  BANK32  BANK33  BANK34  BANK35  BANK36  BANK37  BANK38  BANK39  BANK40  BANK41  BANK42  BANK43  BANK44  BANK45  BANK4
      +6  BANK47  BANK48  BANK49  BANK50  BANK51  BANK52  BANK53  BANK54
  4532 ;;      Params:         0       0       0       0       0       0       0       0       0       0       0       0       
      +0       0       0       0       0       0       0       0       0       0       0       0       0       0       0       
      +0       0       0       0       0       0       0       0       0       0       0       0       0       0       0       
      +0       0       0       0       0       0       0       0       0
  4533 ;;      Locals:         0       0       0       0       0       0       0       0       0       0       0       0       
      +0       0       0       0       0       0       0       0       0       0       0       0       0       0       0       
      +0       0       0       0       0       0       0       0       0       0       0       0       0       0       0       
      +0       0       0       0       0       0       0       0       0
  4534 ;;      Temps:          0       0       0       0       0       0       0       0       0       0       0       0       
      +0       0       0       0       0       0       0       0       0       0       0       0       0       0       0       
      +0       0       0       0       0       0       0       0       0       0       0       0       0       0       0       
      +0       0       0       0       0       0       0       0       0
  4535 ;;      Totals:         0       0       0       0       0       0       0       0       0       0       0       0       
      +0       0       0       0       0       0       0       0       0       0       0       0       0       0       0       
      +0       0       0       0       0       0       0       0       0       0       0       0       0       0       0       
      +0       0       0       0       0       0       0       0       0
  4536 ;;Total ram usage:        0 bytes
  4537 ;; Hardware stack levels used: 1
  4538 ;; Hardware stack levels required when called: 7
  4539 ;; This function calls:
  4540 ;;		_I2C1_ClearInterruptFlags
  4541 ;;		_I2C1_DO_ADDRESS_NACK
  4542 ;;		_I2C1_DO_BUS_COLLISION
  4543 ;;		_I2C1_DO_BUS_ERROR
  4544 ;;		_I2C1_DO_IDLE
  4545 ;;		_I2C1_DO_RESET
  4546 ;;		_I2C1_DO_RX
  4547 ;;		_I2C1_DO_RX_ACK
  4548 ;;		_I2C1_DO_RX_EMPTY
  4549 ;;		_I2C1_DO_RX_NACK_RESTART
  4550 ;;		_I2C1_DO_RX_NACK_STOP
  4551 ;;		_I2C1_DO_SEND_ADR_READ
  4552 ;;		_I2C1_DO_SEND_ADR_WRITE
  4553 ;;		_I2C1_DO_SEND_RESTART
  4554 ;;		_I2C1_DO_SEND_RESTART_READ
  4555 ;;		_I2C1_DO_SEND_RESTART_WRITE
  4556 ;;		_I2C1_DO_SEND_STOP
  4557 ;;		_I2C1_DO_TX
  4558 ;;		_I2C1_DO_TX_ACK
  4559 ;;		_I2C1_DO_TX_EMPTY
  4560 ;;		_I2C1_MasterIsNack
  4561 ;; This function is called by:
  4562 ;;		_I2C1_Poller
  4563 ;; This function uses a non-reentrant model
  4564 ;;
  4565                           
  4566                           	psect	text29
  4567  004AFE                     __ptext29:
  4568                           	callstack 0
  4569  004AFE                     _I2C1_MasterFsm:
  4570                           	callstack 111
  4571  004AFE                     
  4572                           ;mcc_generated_files/i2c1_master.c: 356:     I2C1_ClearInterruptFlags();
  4573  004AFE  ECA3  F026         	call	_I2C1_ClearInterruptFlags	;wreg free
  4574  004B02                     
  4575                           ;mcc_generated_files/i2c1_master.c: 358:     if(I2C1_Status.addressNackCheck && I2C1_Mas
      +                          terIsNack())
  4576  004B02  0105               	movlb	5	; () banked
  4577  004B04  5189               	movf	(_I2C1_Status+41)& (0+255),w,b
  4578  004B06  0B03               	andlw	3
  4579  004B08  0900               	iorlw	0
  4580  004B0A  B4D8               	btfsc	status,2,c
  4581  004B0C  EF8A  F025         	goto	u1581
  4582  004B10  EF8C  F025         	goto	u1580
  4583  004B14                     u1581:
  4584  004B14  EF99  F025         	goto	l3974
  4585  004B18                     u1580:
  4586  004B18                     
  4587                           ; BSR set to: 5
  4588  004B18  EC04  F029         	call	_I2C1_MasterIsNack	;wreg free
  4589  004B1C  0900               	iorlw	0
  4590  004B1E  B4D8               	btfsc	status,2,c
  4591  004B20  EF94  F025         	goto	u1591
  4592  004B24  EF96  F025         	goto	u1590
  4593  004B28                     u1591:
  4594  004B28  EF99  F025         	goto	l3974
  4595  004B2C                     u1590:
  4596  004B2C                     
  4597                           ;mcc_generated_files/i2c1_master.c: 359:     {;mcc_generated_files/i2c1_master.c: 360:  
      +                                 I2C1_Status.state = I2C1_ADDRESS_NACK;
  4598  004B2C  0E10               	movlw	16
  4599  004B2E  0105               	movlb	5	; () banked
  4600  004B30  6F87               	movwf	(_I2C1_Status+39)& (0+255),b
  4601  004B32                     l3974:
  4602                           
  4603                           ;mcc_generated_files/i2c1_master.c: 362:     I2C1_Status.state = i2c1_fsmStateTable[I2C1
      +                          _Status.state]();
  4604  004B32  0105               	movlb	5	; () banked
  4605  004B34  5187               	movf	(_I2C1_Status+39)& (0+255),w,b
  4606  004B36  0D03               	mullw	3
  4607  004B38  0E01               	movlw	low _i2c1_fsmStateTable
  4608  004B3A  24F3               	addwf	243,w,c
  4609  004B3C  6EF6               	movwf	tblptrl,c
  4610  004B3E  0E37               	movlw	high _i2c1_fsmStateTable
  4611  004B40  20F4               	addwfc	244,w,c
  4612  004B42  6EF7               	movwf	tblptrh,c
  4613  004B44                     	if	1	;There are 3 active tblptr bytes
  4614  004B44  6AF8               	clrf	tblptru,c
  4615  004B46  0E00               	movlw	low (__mediumconst shr (0+16))
  4616  004B48  22F8               	addwfc	tblptru,f,c
  4617  004B4A                     	endif
  4618  004B4A  D802               	call	u1608
  4619  004B4C  EFB5  F025         	goto	u1609
  4620  004B50                     u1608:
  4621  004B50  0005               	push	
  4622  004B52  6EFA               	movwf	pclath,c
  4623  004B54  0009               	tblrd		*+
  4624  004B56  50F5               	movf	tablat,w,c
  4625  004B58  6EFD               	movwf	tosl,c
  4626  004B5A  0009               	tblrd		*+
  4627  004B5C  50F5               	movf	tablat,w,c
  4628  004B5E  6EFE               	movwf	tosh,c
  4629  004B60  0009               	tblrd		*+
  4630  004B62  50F5               	movf	tablat,w,c
  4631  004B64  6EFF               	movwf	tosu,c
  4632  004B66  50FA               	movf	pclath,w,c
  4633  004B68  0012               	return		;indir
  4634  004B6A                     u1609:
  4635  004B6A  0105               	movlb	5	; () banked
  4636  004B6C  6F87               	movwf	(_I2C1_Status+39)& (0+255),b
  4637  004B6E                     
  4638                           ; BSR set to: 5
  4639  004B6E  0012               	return		;funcret
  4640  004B70                     __end_of_I2C1_MasterFsm:
  4641                           	callstack 0
  4642                           
  4643 ;; *************** function _I2C1_DO_BUS_ERROR *****************
  4644 ;; Defined at:
  4645 ;;		line 598 in file "mcc_generated_files/i2c1_master.c"
  4646 ;; Parameters:    Size  Location     Type
  4647 ;;		None
  4648 ;; Auto vars:     Size  Location     Type
  4649 ;;		None
  4650 ;; Return value:  Size  Location     Type
  4651 ;;                  1    wreg      enum E23252
  4652 ;; Registers used:
  4653 ;;		wreg, status,2, cstack
  4654 ;; Tracked objects:
  4655 ;;		On entry : 0/0
  4656 ;;		On exit  : 0/0
  4657 ;;		Unchanged: 0/0
  4658 ;; Data sizes:     COMRAM   BANK5   BANK6   BANK7   BANK8   BANK9  BANK10  BANK11  BANK12  BANK13  BANK14  BANK15  BANK1
      +6  BANK17  BANK18  BANK19  BANK20  BANK21  BANK22  BANK23  BANK24  BANK25  BANK26  BANK27  BANK28  BANK29  BANK30  BANK3
      +1  BANK32  BANK33  BANK34  BANK35  BANK36  BANK37  BANK38  BANK39  BANK40  BANK41  BANK42  BANK43  BANK44  BANK45  BANK4
      +6  BANK47  BANK48  BANK49  BANK50  BANK51  BANK52  BANK53  BANK54
  4659 ;;      Params:         0       0       0       0       0       0       0       0       0       0       0       0       
      +0       0       0       0       0       0       0       0       0       0       0       0       0       0       0       
      +0       0       0       0       0       0       0       0       0       0       0       0       0       0       0       
      +0       0       0       0       0       0       0       0       0
  4660 ;;      Locals:         0       0       0       0       0       0       0       0       0       0       0       0       
      +0       0       0       0       0       0       0       0       0       0       0       0       0       0       0       
      +0       0       0       0       0       0       0       0       0       0       0       0       0       0       0       
      +0       0       0       0       0       0       0       0       0
  4661 ;;      Temps:          0       0       0       0       0       0       0       0       0       0       0       0       
      +0       0       0       0       0       0       0       0       0       0       0       0       0       0       0       
      +0       0       0       0       0       0       0       0       0       0       0       0       0       0       0       
      +0       0       0       0       0       0       0       0       0
  4662 ;;      Totals:         0       0       0       0       0       0       0       0       0       0       0       0       
      +0       0       0       0       0       0       0       0       0       0       0       0       0       0       0       
      +0       0       0       0       0       0       0       0       0       0       0       0       0       0       0       
      +0       0       0       0       0       0       0       0       0
  4663 ;;Total ram usage:        0 bytes
  4664 ;; Hardware stack levels used: 1
  4665 ;; Hardware stack levels required when called: 1
  4666 ;; This function calls:
  4667 ;;		_I2C1_MasterResetBus
  4668 ;; This function is called by:
  4669 ;;		_I2C1_MasterFsm
  4670 ;; This function uses a non-reentrant model
  4671 ;;
  4672                           
  4673                           	psect	text30
  4674  00528A                     __ptext30:
  4675                           	callstack 0
  4676  00528A                     _I2C1_DO_BUS_ERROR:
  4677                           	callstack 116
  4678  00528A                     
  4679                           ;mcc_generated_files/i2c1_master.c: 600:     I2C1_MasterResetBus();
  4680  00528A  ECAB  F029         	call	_I2C1_MasterResetBus	;wreg free
  4681  00528E                     
  4682                           ;mcc_generated_files/i2c1_master.c: 601:     I2C1_Status.busy = 0;
  4683  00528E  0105               	movlb	5	; () banked
  4684  005290  9589               	bcf	(_I2C1_Status+41)& (0+255),2,b
  4685  005292                     
  4686                           ; BSR set to: 5
  4687                           ;mcc_generated_files/i2c1_master.c: 602:     I2C1_Status.error = I2C1_FAIL;
  4688  005292  0E02               	movlw	2
  4689  005294  6F88               	movwf	(_I2C1_Status+40)& (0+255),b
  4690  005296                     
  4691                           ; BSR set to: 5
  4692                           ;mcc_generated_files/i2c1_master.c: 603:     return I2C1_RESET;
  4693  005296  0E0F               	movlw	15
  4694  005298                     
  4695                           ; BSR set to: 5
  4696  005298  0012               	return		;funcret
  4697  00529A                     __end_of_I2C1_DO_BUS_ERROR:
  4698                           	callstack 0
  4699                           
  4700 ;; *************** function _I2C1_DO_BUS_COLLISION *****************
  4701 ;; Defined at:
  4702 ;;		line 582 in file "mcc_generated_files/i2c1_master.c"
  4703 ;; Parameters:    Size  Location     Type
  4704 ;;		None
  4705 ;; Auto vars:     Size  Location     Type
  4706 ;;		None
  4707 ;; Return value:  Size  Location     Type
  4708 ;;                  1    wreg      enum E23252
  4709 ;; Registers used:
  4710 ;;		wreg, fsr2l, fsr2h, status,2, status,0, pclath, tosl, prodl, prodh, cstack
  4711 ;; Tracked objects:
  4712 ;;		On entry : 0/0
  4713 ;;		On exit  : 0/0
  4714 ;;		Unchanged: 0/0
  4715 ;; Data sizes:     COMRAM   BANK5   BANK6   BANK7   BANK8   BANK9  BANK10  BANK11  BANK12  BANK13  BANK14  BANK15  BANK1
      +6  BANK17  BANK18  BANK19  BANK20  BANK21  BANK22  BANK23  BANK24  BANK25  BANK26  BANK27  BANK28  BANK29  BANK30  BANK3
      +1  BANK32  BANK33  BANK34  BANK35  BANK36  BANK37  BANK38  BANK39  BANK40  BANK41  BANK42  BANK43  BANK44  BANK45  BANK4
      +6  BANK47  BANK48  BANK49  BANK50  BANK51  BANK52  BANK53  BANK54
  4716 ;;      Params:         0       0       0       0       0       0       0       0       0       0       0       0       
      +0       0       0       0       0       0       0       0       0       0       0       0       0       0       0       
      +0       0       0       0       0       0       0       0       0       0       0       0       0       0       0       
      +0       0       0       0       0       0       0       0       0
  4717 ;;      Locals:         0       0       0       0       0       0       0       0       0       0       0       0       
      +0       0       0       0       0       0       0       0       0       0       0       0       0       0       0       
      +0       0       0       0       0       0       0       0       0       0       0       0       0       0       0       
      +0       0       0       0       0       0       0       0       0
  4718 ;;      Temps:          2       0       0       0       0       0       0       0       0       0       0       0       
      +0       0       0       0       0       0       0       0       0       0       0       0       0       0       0       
      +0       0       0       0       0       0       0       0       0       0       0       0       0       0       0       
      +0       0       0       0       0       0       0       0       0
  4719 ;;      Totals:         2       0       0       0       0       0       0       0       0       0       0       0       
      +0       0       0       0       0       0       0       0       0       0       0       0       0       0       0       
      +0       0       0       0       0       0       0       0       0       0       0       0       0       0       0       
      +0       0       0       0       0       0       0       0       0
  4720 ;;Total ram usage:        2 bytes
  4721 ;; Hardware stack levels used: 1
  4722 ;; Hardware stack levels required when called: 6
  4723 ;; This function calls:
  4724 ;;		Absolute function
  4725 ;;		_I2C1_CallbackReturnReset
  4726 ;;		_I2C1_CallbackReturnStop
  4727 ;;		_I2C1_DO_RESET
  4728 ;;		_I2C1_DO_SEND_RESTART_READ
  4729 ;;		_I2C1_DO_SEND_RESTART_WRITE
  4730 ;;		_I2C1_MasterClearIrq
  4731 ;;		_rd1RegCompleteHandler
  4732 ;;		_rd2RegCompleteHandler
  4733 ;;		_rdBlkRegCompleteHandler
  4734 ;;		_wr1RegCompleteHandler
  4735 ;;		_wr2RegCompleteHandler
  4736 ;; This function is called by:
  4737 ;;		_I2C1_MasterFsm
  4738 ;; This function uses a non-reentrant model
  4739 ;;
  4740                           
  4741                           	psect	text31
  4742  004A12                     __ptext31:
  4743                           	callstack 0
  4744  004A12                     _I2C1_DO_BUS_COLLISION:
  4745                           	callstack 111
  4746  004A12                     
  4747                           ;mcc_generated_files/i2c1_master.c: 585:     I2C1_MasterClearIrq();
  4748  004A12  ECC0  F029         	call	_I2C1_MasterClearIrq	;wreg free
  4749  004A16                     
  4750                           ;mcc_generated_files/i2c1_master.c: 587:     I2C1_Status.error = I2C1_FAIL;
  4751  004A16  0E02               	movlw	2
  4752  004A18  0105               	movlb	5	; () banked
  4753  004A1A  6F88               	movwf	(_I2C1_Status+40)& (0+255),b
  4754                           
  4755                           ;mcc_generated_files/i2c1_master.c: 588:     switch (I2C1_Status.callbackTable[I2C1_WRIT
      +                          E_COLLISION](I2C1_Status.callbackPayload[I2C1_WRITE_COLLISION])) {
  4756  004A1C  EF1C  F025         	goto	l3938
  4757  004A20                     l3924:
  4758                           
  4759                           ;mcc_generated_files/i2c1_master.c: 590:         return I2C1_DO_SEND_RESTART_READ();
  4760  004A20  EC64  F029         	call	_I2C1_DO_SEND_RESTART_READ	;wreg free
  4761  004A24  EF43  F025         	goto	l462
  4762  004A28                     l3928:
  4763                           
  4764                           ;mcc_generated_files/i2c1_master.c: 592:         return I2C1_DO_SEND_RESTART_WRITE();
  4765  004A28  ECE4  F029         	call	_I2C1_DO_SEND_RESTART_WRITE	;wreg free
  4766  004A2C  EF43  F025         	goto	l462
  4767  004A30                     l3932:
  4768                           
  4769                           ;mcc_generated_files/i2c1_master.c: 594:         return I2C1_DO_RESET();
  4770  004A30  EC4D  F029         	call	_I2C1_DO_RESET	;wreg free
  4771  004A34  EF43  F025         	goto	l462
  4772  004A38                     l3938:
  4773                           
  4774                           ; BSR set to: 5
  4775  004A38  C574  F50C         	movff	_I2C1_Status+20,I2C1_CallbackReturnReset@funPtr
  4776  004A3C  C575  F50D         	movff	_I2C1_Status+21,I2C1_CallbackReturnReset@funPtr+1
  4777  004A40  EE21  F163         	lfsr	2,_I2C1_Status+3
  4778  004A44  D802               	call	u1528
  4779  004A46  EF2F  F025         	goto	u1529
  4780  004A4A                     u1528:
  4781  004A4A  0005               	push	
  4782  004A4C  6EFA               	movwf	pclath,c
  4783  004A4E  50DE               	movf	postinc2,w,c
  4784  004A50  6EFD               	movwf	tosl,c
  4785  004A52  50DE               	movf	postinc2,w,c
  4786  004A54  6EFE               	movwf	tosh,c
  4787  004A56  50DE               	movf	postinc2,w,c
  4788  004A58  6EFF               	movwf	tosu,c
  4789  004A5A  50FA               	movf	pclath,w,c
  4790  004A5C  0012               	return		;indir
  4791  004A5E                     u1529:
  4792  004A5E  6E0E               	movwf	??_I2C1_DO_BUS_COLLISION^(0+1280),c
  4793  004A60  6A0F               	clrf	(??_I2C1_DO_BUS_COLLISION+1)^(0+1280),c
  4794                           
  4795                           ; Switch on 2 bytes has been partitioned into a top level switch of size 1, and 1 sub-sw
      +                          itches
  4796                           ; Switch size 1, requested type "simple"
  4797                           ; Number of cases is 1, Range of values is 0 to 0
  4798                           ; switch strategies available:
  4799                           ; Name         Instructions Cycles
  4800                           ; simple_byte            4     3 (average)
  4801                           ;	Chosen strategy is simple_byte
  4802  004A62  500F               	movf	(??_I2C1_DO_BUS_COLLISION+1)^(0+1280),w,c
  4803  004A64  0A00               	xorlw	0	; case 0
  4804  004A66  B4D8               	btfsc	status,2,c
  4805  004A68  EF38  F025         	goto	l5002
  4806  004A6C  EF18  F025         	goto	l3932
  4807  004A70                     l5002:
  4808                           
  4809                           ; Switch size 1, requested type "simple"
  4810                           ; Number of cases is 2, Range of values is 2 to 3
  4811                           ; switch strategies available:
  4812                           ; Name         Instructions Cycles
  4813                           ; simple_byte            7     4 (average)
  4814                           ;	Chosen strategy is simple_byte
  4815  004A70  500E               	movf	??_I2C1_DO_BUS_COLLISION^(0+1280),w,c
  4816  004A72  0A02               	xorlw	2	; case 2
  4817  004A74  B4D8               	btfsc	status,2,c
  4818  004A76  EF10  F025         	goto	l3924
  4819  004A7A  0A01               	xorlw	1	; case 3
  4820  004A7C  B4D8               	btfsc	status,2,c
  4821  004A7E  EF14  F025         	goto	l3928
  4822  004A82  EF18  F025         	goto	l3932
  4823  004A86                     l462:
  4824  004A86  0012               	return		;funcret
  4825  004A88                     __end_of_I2C1_DO_BUS_COLLISION:
  4826                           	callstack 0
  4827                           
  4828 ;; *************** function _I2C1_DO_ADDRESS_NACK *****************
  4829 ;; Defined at:
  4830 ;;		line 567 in file "mcc_generated_files/i2c1_master.c"
  4831 ;; Parameters:    Size  Location     Type
  4832 ;;		None
  4833 ;; Auto vars:     Size  Location     Type
  4834 ;;		None
  4835 ;; Return value:  Size  Location     Type
  4836 ;;                  1    wreg      enum E23252
  4837 ;; Registers used:
  4838 ;;		wreg, fsr2l, fsr2h, status,2, status,0, pclath, tosl, prodl, prodh, cstack
  4839 ;; Tracked objects:
  4840 ;;		On entry : 0/0
  4841 ;;		On exit  : 0/0
  4842 ;;		Unchanged: 0/0
  4843 ;; Data sizes:     COMRAM   BANK5   BANK6   BANK7   BANK8   BANK9  BANK10  BANK11  BANK12  BANK13  BANK14  BANK15  BANK1
      +6  BANK17  BANK18  BANK19  BANK20  BANK21  BANK22  BANK23  BANK24  BANK25  BANK26  BANK27  BANK28  BANK29  BANK30  BANK3
      +1  BANK32  BANK33  BANK34  BANK35  BANK36  BANK37  BANK38  BANK39  BANK40  BANK41  BANK42  BANK43  BANK44  BANK45  BANK4
      +6  BANK47  BANK48  BANK49  BANK50  BANK51  BANK52  BANK53  BANK54
  4844 ;;      Params:         0       0       0       0       0       0       0       0       0       0       0       0       
      +0       0       0       0       0       0       0       0       0       0       0       0       0       0       0       
      +0       0       0       0       0       0       0       0       0       0       0       0       0       0       0       
      +0       0       0       0       0       0       0       0       0
  4845 ;;      Locals:         0       0       0       0       0       0       0       0       0       0       0       0       
      +0       0       0       0       0       0       0       0       0       0       0       0       0       0       0       
      +0       0       0       0       0       0       0       0       0       0       0       0       0       0       0       
      +0       0       0       0       0       0       0       0       0
  4846 ;;      Temps:          2       0       0       0       0       0       0       0       0       0       0       0       
      +0       0       0       0       0       0       0       0       0       0       0       0       0       0       0       
      +0       0       0       0       0       0       0       0       0       0       0       0       0       0       0       
      +0       0       0       0       0       0       0       0       0
  4847 ;;      Totals:         2       0       0       0       0       0       0       0       0       0       0       0       
      +0       0       0       0       0       0       0       0       0       0       0       0       0       0       0       
      +0       0       0       0       0       0       0       0       0       0       0       0       0       0       0       
      +0       0       0       0       0       0       0       0       0
  4848 ;;Total ram usage:        2 bytes
  4849 ;; Hardware stack levels used: 1
  4850 ;; Hardware stack levels required when called: 3
  4851 ;; This function calls:
  4852 ;;		Absolute function
  4853 ;;		_I2C1_CallbackReturnReset
  4854 ;;		_I2C1_CallbackReturnStop
  4855 ;;		_I2C1_DO_SEND_RESTART
  4856 ;;		_rd1RegCompleteHandler
  4857 ;;		_rd2RegCompleteHandler
  4858 ;;		_rdBlkRegCompleteHandler
  4859 ;;		_wr1RegCompleteHandler
  4860 ;;		_wr2RegCompleteHandler
  4861 ;; This function is called by:
  4862 ;;		_I2C1_MasterFsm
  4863 ;; This function uses a non-reentrant model
  4864 ;;
  4865                           
  4866                           	psect	text32
  4867  004B70                     __ptext32:
  4868                           	callstack 0
  4869  004B70                     _I2C1_DO_ADDRESS_NACK:
  4870                           	callstack 114
  4871  004B70                     
  4872                           ;mcc_generated_files/i2c1_master.c: 569:     I2C1_Status.addressNackCheck = 0;
  4873  004B70  0EFC               	movlw	-4
  4874  004B72  0105               	movlb	5	; () banked
  4875  004B74  1789               	andwf	(_I2C1_Status+41)& (0+255),f,b
  4876                           
  4877                           ;mcc_generated_files/i2c1_master.c: 570:     I2C1_Status.error = I2C1_FAIL;
  4878  004B76  0E02               	movlw	2
  4879  004B78  6F88               	movwf	(_I2C1_Status+40)& (0+255),b
  4880  004B7A                     
  4881                           ; BSR set to: 5
  4882                           ;mcc_generated_files/i2c1_master.c: 571:     I2C1_Status.busy = 0;
  4883  004B7A  9589               	bcf	(_I2C1_Status+41)& (0+255),2,b
  4884                           
  4885                           ;mcc_generated_files/i2c1_master.c: 572:     switch(I2C1_Status.callbackTable[I2C1_ADDR_
      +                          NACK](I2C1_Status.callbackPayload[I2C1_ADDR_NACK]))
  4886  004B7C  EFC7  F025         	goto	l3912
  4887  004B80                     l3902:
  4888                           
  4889                           ;mcc_generated_files/i2c1_master.c: 576:             return I2C1_DO_SEND_RESTART();
  4890  004B80  ECE2  F029         	call	_I2C1_DO_SEND_RESTART	;wreg free
  4891  004B84  EFEE  F025         	goto	l455
  4892  004B88                     l3906:
  4893                           
  4894                           ;mcc_generated_files/i2c1_master.c: 578:             return I2C1_RESET;
  4895  004B88  0E0F               	movlw	15
  4896  004B8A  EFEE  F025         	goto	l455
  4897  004B8E                     l3912:
  4898                           
  4899                           ; BSR set to: 5
  4900  004B8E  C576  F50C         	movff	_I2C1_Status+22,I2C1_CallbackReturnReset@funPtr
  4901  004B92  C577  F50D         	movff	_I2C1_Status+23,I2C1_CallbackReturnReset@funPtr+1
  4902  004B96  EE21  F166         	lfsr	2,_I2C1_Status+6
  4903  004B9A  D802               	call	u1518
  4904  004B9C  EFDA  F025         	goto	u1519
  4905  004BA0                     u1518:
  4906  004BA0  0005               	push	
  4907  004BA2  6EFA               	movwf	pclath,c
  4908  004BA4  50DE               	movf	postinc2,w,c
  4909  004BA6  6EFD               	movwf	tosl,c
  4910  004BA8  50DE               	movf	postinc2,w,c
  4911  004BAA  6EFE               	movwf	tosh,c
  4912  004BAC  50DE               	movf	postinc2,w,c
  4913  004BAE  6EFF               	movwf	tosu,c
  4914  004BB0  50FA               	movf	pclath,w,c
  4915  004BB2  0012               	return		;indir
  4916  004BB4                     u1519:
  4917  004BB4  6E0E               	movwf	??_I2C1_DO_ADDRESS_NACK^(0+1280),c
  4918  004BB6  6A0F               	clrf	(??_I2C1_DO_ADDRESS_NACK+1)^(0+1280),c
  4919                           
  4920                           ; Switch on 2 bytes has been partitioned into a top level switch of size 1, and 1 sub-sw
      +                          itches
  4921                           ; Switch size 1, requested type "simple"
  4922                           ; Number of cases is 1, Range of values is 0 to 0
  4923                           ; switch strategies available:
  4924                           ; Name         Instructions Cycles
  4925                           ; simple_byte            4     3 (average)
  4926                           ;	Chosen strategy is simple_byte
  4927  004BB8  500F               	movf	(??_I2C1_DO_ADDRESS_NACK+1)^(0+1280),w,c
  4928  004BBA  0A00               	xorlw	0	; case 0
  4929  004BBC  B4D8               	btfsc	status,2,c
  4930  004BBE  EFE3  F025         	goto	l5004
  4931  004BC2  EFC4  F025         	goto	l3906
  4932  004BC6                     l5004:
  4933                           
  4934                           ; Switch size 1, requested type "simple"
  4935                           ; Number of cases is 2, Range of values is 2 to 3
  4936                           ; switch strategies available:
  4937                           ; Name         Instructions Cycles
  4938                           ; simple_byte            7     4 (average)
  4939                           ;	Chosen strategy is simple_byte
  4940  004BC6  500E               	movf	??_I2C1_DO_ADDRESS_NACK^(0+1280),w,c
  4941  004BC8  0A02               	xorlw	2	; case 2
  4942  004BCA  B4D8               	btfsc	status,2,c
  4943  004BCC  EFC0  F025         	goto	l3902
  4944  004BD0  0A01               	xorlw	1	; case 3
  4945  004BD2  B4D8               	btfsc	status,2,c
  4946  004BD4  EFC0  F025         	goto	l3902
  4947  004BD8  EFC4  F025         	goto	l3906
  4948  004BDC                     l455:
  4949  004BDC  0012               	return		;funcret
  4950  004BDE                     __end_of_I2C1_DO_ADDRESS_NACK:
  4951                           	callstack 0
  4952                           
  4953 ;; *************** function _I2C1_DO_RESET *****************
  4954 ;; Defined at:
  4955 ;;		line 560 in file "mcc_generated_files/i2c1_master.c"
  4956 ;; Parameters:    Size  Location     Type
  4957 ;;		None
  4958 ;; Auto vars:     Size  Location     Type
  4959 ;;		None
  4960 ;; Return value:  Size  Location     Type
  4961 ;;                  1    wreg      enum E23252
  4962 ;; Registers used:
  4963 ;;		wreg, status,2, cstack
  4964 ;; Tracked objects:
  4965 ;;		On entry : 0/0
  4966 ;;		On exit  : 0/0
  4967 ;;		Unchanged: 0/0
  4968 ;; Data sizes:     COMRAM   BANK5   BANK6   BANK7   BANK8   BANK9  BANK10  BANK11  BANK12  BANK13  BANK14  BANK15  BANK1
      +6  BANK17  BANK18  BANK19  BANK20  BANK21  BANK22  BANK23  BANK24  BANK25  BANK26  BANK27  BANK28  BANK29  BANK30  BANK3
      +1  BANK32  BANK33  BANK34  BANK35  BANK36  BANK37  BANK38  BANK39  BANK40  BANK41  BANK42  BANK43  BANK44  BANK45  BANK4
      +6  BANK47  BANK48  BANK49  BANK50  BANK51  BANK52  BANK53  BANK54
  4969 ;;      Params:         0       0       0       0       0       0       0       0       0       0       0       0       
      +0       0       0       0       0       0       0       0       0       0       0       0       0       0       0       
      +0       0       0       0       0       0       0       0       0       0       0       0       0       0       0       
      +0       0       0       0       0       0       0       0       0
  4970 ;;      Locals:         0       0       0       0       0       0       0       0       0       0       0       0       
      +0       0       0       0       0       0       0       0       0       0       0       0       0       0       0       
      +0       0       0       0       0       0       0       0       0       0       0       0       0       0       0       
      +0       0       0       0       0       0       0       0       0
  4971 ;;      Temps:          0       0       0       0       0       0       0       0       0       0       0       0       
      +0       0       0       0       0       0       0       0       0       0       0       0       0       0       0       
      +0       0       0       0       0       0       0       0       0       0       0       0       0       0       0       
      +0       0       0       0       0       0       0       0       0
  4972 ;;      Totals:         0       0       0       0       0       0       0       0       0       0       0       0       
      +0       0       0       0       0       0       0       0       0       0       0       0       0       0       0       
      +0       0       0       0       0       0       0       0       0       0       0       0       0       0       0       
      +0       0       0       0       0       0       0       0       0
  4973 ;;Total ram usage:        0 bytes
  4974 ;; Hardware stack levels used: 1
  4975 ;; Hardware stack levels required when called: 1
  4976 ;; This function calls:
  4977 ;;		_I2C1_MasterResetBus
  4978 ;; This function is called by:
  4979 ;;		_I2C1_DO_BUS_COLLISION
  4980 ;;		_I2C1_MasterFsm
  4981 ;; This function uses a non-reentrant model
  4982 ;;
  4983                           
  4984                           	psect	text33
  4985  00529A                     __ptext33:
  4986                           	callstack 0
  4987  00529A                     _I2C1_DO_RESET:
  4988                           	callstack 116
  4989  00529A                     
  4990                           ;mcc_generated_files/i2c1_master.c: 562:     I2C1_MasterResetBus();
  4991  00529A  ECAB  F029         	call	_I2C1_MasterResetBus	;wreg free
  4992  00529E                     
  4993                           ;mcc_generated_files/i2c1_master.c: 563:     I2C1_Status.busy = 0;
  4994  00529E  0105               	movlb	5	; () banked
  4995  0052A0  9589               	bcf	(_I2C1_Status+41)& (0+255),2,b
  4996  0052A2                     
  4997                           ; BSR set to: 5
  4998                           ;mcc_generated_files/i2c1_master.c: 564:     I2C1_Status.error = I2C1_NOERR;
  4999  0052A2  0E00               	movlw	0
  5000  0052A4  6F88               	movwf	(_I2C1_Status+40)& (0+255),b
  5001  0052A6                     
  5002                           ; BSR set to: 5
  5003                           ;mcc_generated_files/i2c1_master.c: 565:     return I2C1_RESET;
  5004  0052A6  0E0F               	movlw	15
  5005  0052A8                     
  5006                           ; BSR set to: 5
  5007  0052A8  0012               	return		;funcret
  5008  0052AA                     __end_of_I2C1_DO_RESET:
  5009                           	callstack 0
  5010                           
  5011 ;; *************** function _I2C1_DO_RX_NACK_RESTART *****************
  5012 ;; Defined at:
  5013 ;;		line 554 in file "mcc_generated_files/i2c1_master.c"
  5014 ;; Parameters:    Size  Location     Type
  5015 ;;		None
  5016 ;; Auto vars:     Size  Location     Type
  5017 ;;		None
  5018 ;; Return value:  Size  Location     Type
  5019 ;;                  1    wreg      enum E23252
  5020 ;; Registers used:
  5021 ;;		wreg, cstack
  5022 ;; Tracked objects:
  5023 ;;		On entry : 0/0
  5024 ;;		On exit  : 0/0
  5025 ;;		Unchanged: 0/0
  5026 ;; Data sizes:     COMRAM   BANK5   BANK6   BANK7   BANK8   BANK9  BANK10  BANK11  BANK12  BANK13  BANK14  BANK15  BANK1
      +6  BANK17  BANK18  BANK19  BANK20  BANK21  BANK22  BANK23  BANK24  BANK25  BANK26  BANK27  BANK28  BANK29  BANK30  BANK3
      +1  BANK32  BANK33  BANK34  BANK35  BANK36  BANK37  BANK38  BANK39  BANK40  BANK41  BANK42  BANK43  BANK44  BANK45  BANK4
      +6  BANK47  BANK48  BANK49  BANK50  BANK51  BANK52  BANK53  BANK54
  5027 ;;      Params:         0       0       0       0       0       0       0       0       0       0       0       0       
      +0       0       0       0       0       0       0       0       0       0       0       0       0       0       0       
      +0       0       0       0       0       0       0       0       0       0       0       0       0       0       0       
      +0       0       0       0       0       0       0       0       0
  5028 ;;      Locals:         0       0       0       0       0       0       0       0       0       0       0       0       
      +0       0       0       0       0       0       0       0       0       0       0       0       0       0       0       
      +0       0       0       0       0       0       0       0       0       0       0       0       0       0       0       
      +0       0       0       0       0       0       0       0       0
  5029 ;;      Temps:          0       0       0       0       0       0       0       0       0       0       0       0       
      +0       0       0       0       0       0       0       0       0       0       0       0       0       0       0       
      +0       0       0       0       0       0       0       0       0       0       0       0       0       0       0       
      +0       0       0       0       0       0       0       0       0
  5030 ;;      Totals:         0       0       0       0       0       0       0       0       0       0       0       0       
      +0       0       0       0       0       0       0       0       0       0       0       0       0       0       0       
      +0       0       0       0       0       0       0       0       0       0       0       0       0       0       0       
      +0       0       0       0       0       0       0       0       0
  5031 ;;Total ram usage:        0 bytes
  5032 ;; Hardware stack levels used: 1
  5033 ;; Hardware stack levels required when called: 1
  5034 ;; This function calls:
  5035 ;;		_I2C1_MasterSendNack
  5036 ;; This function is called by:
  5037 ;;		_I2C1_MasterFsm
  5038 ;; This function uses a non-reentrant model
  5039 ;;
  5040                           
  5041                           	psect	text34
  5042  005368                     __ptext34:
  5043                           	callstack 0
  5044  005368                     _I2C1_DO_RX_NACK_RESTART:
  5045                           	callstack 116
  5046  005368                     
  5047                           ;mcc_generated_files/i2c1_master.c: 556:     I2C1_MasterSendNack();
  5048  005368  ECCA  F029         	call	_I2C1_MasterSendNack	;wreg free
  5049  00536C                     
  5050                           ;mcc_generated_files/i2c1_master.c: 557:     return I2C1_SEND_RESTART;
  5051  00536C  0E09               	movlw	9
  5052  00536E  0012               	return		;funcret
  5053  005370                     __end_of_I2C1_DO_RX_NACK_RESTART:
  5054                           	callstack 0
  5055                           
  5056 ;; *************** function _I2C1_DO_RX_NACK_STOP *****************
  5057 ;; Defined at:
  5058 ;;		line 547 in file "mcc_generated_files/i2c1_master.c"
  5059 ;; Parameters:    Size  Location     Type
  5060 ;;		None
  5061 ;; Auto vars:     Size  Location     Type
  5062 ;;		None
  5063 ;; Return value:  Size  Location     Type
  5064 ;;                  1    wreg      enum E23252
  5065 ;; Registers used:
  5066 ;;		wreg, status,2, cstack
  5067 ;; Tracked objects:
  5068 ;;		On entry : 0/0
  5069 ;;		On exit  : 0/0
  5070 ;;		Unchanged: 0/0
  5071 ;; Data sizes:     COMRAM   BANK5   BANK6   BANK7   BANK8   BANK9  BANK10  BANK11  BANK12  BANK13  BANK14  BANK15  BANK1
      +6  BANK17  BANK18  BANK19  BANK20  BANK21  BANK22  BANK23  BANK24  BANK25  BANK26  BANK27  BANK28  BANK29  BANK30  BANK3
      +1  BANK32  BANK33  BANK34  BANK35  BANK36  BANK37  BANK38  BANK39  BANK40  BANK41  BANK42  BANK43  BANK44  BANK45  BANK4
      +6  BANK47  BANK48  BANK49  BANK50  BANK51  BANK52  BANK53  BANK54
  5072 ;;      Params:         0       0       0       0       0       0       0       0       0       0       0       0       
      +0       0       0       0       0       0       0       0       0       0       0       0       0       0       0       
      +0       0       0       0       0       0       0       0       0       0       0       0       0       0       0       
      +0       0       0       0       0       0       0       0       0
  5073 ;;      Locals:         0       0       0       0       0       0       0       0       0       0       0       0       
      +0       0       0       0       0       0       0       0       0       0       0       0       0       0       0       
      +0       0       0       0       0       0       0       0       0       0       0       0       0       0       0       
      +0       0       0       0       0       0       0       0       0
  5074 ;;      Temps:          0       0       0       0       0       0       0       0       0       0       0       0       
      +0       0       0       0       0       0       0       0       0       0       0       0       0       0       0       
      +0       0       0       0       0       0       0       0       0       0       0       0       0       0       0       
      +0       0       0       0       0       0       0       0       0
  5075 ;;      Totals:         0       0       0       0       0       0       0       0       0       0       0       0       
      +0       0       0       0       0       0       0       0       0       0       0       0       0       0       0       
      +0       0       0       0       0       0       0       0       0       0       0       0       0       0       0       
      +0       0       0       0       0       0       0       0       0
  5076 ;;Total ram usage:        0 bytes
  5077 ;; Hardware stack levels used: 1
  5078 ;; Hardware stack levels required when called: 1
  5079 ;; This function calls:
  5080 ;;		_I2C1_DO_IDLE
  5081 ;;		_I2C1_MasterSendNack
  5082 ;;		_I2C1_MasterStop
  5083 ;; This function is called by:
  5084 ;;		_I2C1_MasterFsm
  5085 ;; This function uses a non-reentrant model
  5086 ;;
  5087                           
  5088                           	psect	text35
  5089  0052BA                     __ptext35:
  5090                           	callstack 0
  5091  0052BA                     _I2C1_DO_RX_NACK_STOP:
  5092                           	callstack 116
  5093  0052BA                     
  5094                           ;mcc_generated_files/i2c1_master.c: 549:     I2C1_MasterSendNack();
  5095  0052BA  ECCA  F029         	call	_I2C1_MasterSendNack	;wreg free
  5096                           
  5097                           ;mcc_generated_files/i2c1_master.c: 550:     I2C1_MasterStop();
  5098  0052BE  ECC7  F029         	call	_I2C1_MasterStop	;wreg free
  5099  0052C2                     
  5100                           ;mcc_generated_files/i2c1_master.c: 551:     return I2C1_DO_IDLE();
  5101  0052C2  EC95  F029         	call	_I2C1_DO_IDLE	;wreg free
  5102  0052C6  0012               	return		;funcret
  5103  0052C8                     __end_of_I2C1_DO_RX_NACK_STOP:
  5104                           	callstack 0
  5105                           
  5106 ;; *************** function _I2C1_DO_RX_ACK *****************
  5107 ;; Defined at:
  5108 ;;		line 535 in file "mcc_generated_files/i2c1_master.c"
  5109 ;; Parameters:    Size  Location     Type
  5110 ;;		None
  5111 ;; Auto vars:     Size  Location     Type
  5112 ;;		None
  5113 ;; Return value:  Size  Location     Type
  5114 ;;                  1    wreg      enum E23252
  5115 ;; Registers used:
  5116 ;;		wreg, cstack
  5117 ;; Tracked objects:
  5118 ;;		On entry : 0/0
  5119 ;;		On exit  : 0/0
  5120 ;;		Unchanged: 0/0
  5121 ;; Data sizes:     COMRAM   BANK5   BANK6   BANK7   BANK8   BANK9  BANK10  BANK11  BANK12  BANK13  BANK14  BANK15  BANK1
      +6  BANK17  BANK18  BANK19  BANK20  BANK21  BANK22  BANK23  BANK24  BANK25  BANK26  BANK27  BANK28  BANK29  BANK30  BANK3
      +1  BANK32  BANK33  BANK34  BANK35  BANK36  BANK37  BANK38  BANK39  BANK40  BANK41  BANK42  BANK43  BANK44  BANK45  BANK4
      +6  BANK47  BANK48  BANK49  BANK50  BANK51  BANK52  BANK53  BANK54
  5122 ;;      Params:         0       0       0       0       0       0       0       0       0       0       0       0       
      +0       0       0       0       0       0       0       0       0       0       0       0       0       0       0       
      +0       0       0       0       0       0       0       0       0       0       0       0       0       0       0       
      +0       0       0       0       0       0       0       0       0
  5123 ;;      Locals:         0       0       0       0       0       0       0       0       0       0       0       0       
      +0       0       0       0       0       0       0       0       0       0       0       0       0       0       0       
      +0       0       0       0       0       0       0       0       0       0       0       0       0       0       0       
      +0       0       0       0       0       0       0       0       0
  5124 ;;      Temps:          0       0       0       0       0       0       0       0       0       0       0       0       
      +0       0       0       0       0       0       0       0       0       0       0       0       0       0       0       
      +0       0       0       0       0       0       0       0       0       0       0       0       0       0       0       
      +0       0       0       0       0       0       0       0       0
  5125 ;;      Totals:         0       0       0       0       0       0       0       0       0       0       0       0       
      +0       0       0       0       0       0       0       0       0       0       0       0       0       0       0       
      +0       0       0       0       0       0       0       0       0       0       0       0       0       0       0       
      +0       0       0       0       0       0       0       0       0
  5126 ;;Total ram usage:        0 bytes
  5127 ;; Hardware stack levels used: 1
  5128 ;; Hardware stack levels required when called: 1
  5129 ;; This function calls:
  5130 ;;		_I2C1_MasterSendAck
  5131 ;; This function is called by:
  5132 ;;		_I2C1_MasterFsm
  5133 ;; This function uses a non-reentrant model
  5134 ;;
  5135                           
  5136                           	psect	text36
  5137  005370                     __ptext36:
  5138                           	callstack 0
  5139  005370                     _I2C1_DO_RX_ACK:
  5140                           	callstack 116
  5141  005370                     
  5142                           ;mcc_generated_files/i2c1_master.c: 537:     I2C1_MasterSendAck();
  5143  005370  ECCD  F029         	call	_I2C1_MasterSendAck	;wreg free
  5144  005374                     
  5145                           ;mcc_generated_files/i2c1_master.c: 538:     return I2C1_RX;
  5146  005374  0E04               	movlw	4
  5147  005376  0012               	return		;funcret
  5148  005378                     __end_of_I2C1_DO_RX_ACK:
  5149                           	callstack 0
  5150                           
  5151 ;; *************** function _I2C1_DO_SEND_STOP *****************
  5152 ;; Defined at:
  5153 ;;		line 524 in file "mcc_generated_files/i2c1_master.c"
  5154 ;; Parameters:    Size  Location     Type
  5155 ;;		None
  5156 ;; Auto vars:     Size  Location     Type
  5157 ;;		None
  5158 ;; Return value:  Size  Location     Type
  5159 ;;                  1    wreg      enum E23252
  5160 ;; Registers used:
  5161 ;;		wreg, status,2, cstack
  5162 ;; Tracked objects:
  5163 ;;		On entry : 0/0
  5164 ;;		On exit  : 0/0
  5165 ;;		Unchanged: 0/0
  5166 ;; Data sizes:     COMRAM   BANK5   BANK6   BANK7   BANK8   BANK9  BANK10  BANK11  BANK12  BANK13  BANK14  BANK15  BANK1
      +6  BANK17  BANK18  BANK19  BANK20  BANK21  BANK22  BANK23  BANK24  BANK25  BANK26  BANK27  BANK28  BANK29  BANK30  BANK3
      +1  BANK32  BANK33  BANK34  BANK35  BANK36  BANK37  BANK38  BANK39  BANK40  BANK41  BANK42  BANK43  BANK44  BANK45  BANK4
      +6  BANK47  BANK48  BANK49  BANK50  BANK51  BANK52  BANK53  BANK54
  5167 ;;      Params:         0       0       0       0       0       0       0       0       0       0       0       0       
      +0       0       0       0       0       0       0       0       0       0       0       0       0       0       0       
      +0       0       0       0       0       0       0       0       0       0       0       0       0       0       0       
      +0       0       0       0       0       0       0       0       0
  5168 ;;      Locals:         0       0       0       0       0       0       0       0       0       0       0       0       
      +0       0       0       0       0       0       0       0       0       0       0       0       0       0       0       
      +0       0       0       0       0       0       0       0       0       0       0       0       0       0       0       
      +0       0       0       0       0       0       0       0       0
  5169 ;;      Temps:          0       0       0       0       0       0       0       0       0       0       0       0       
      +0       0       0       0       0       0       0       0       0       0       0       0       0       0       0       
      +0       0       0       0       0       0       0       0       0       0       0       0       0       0       0       
      +0       0       0       0       0       0       0       0       0
  5170 ;;      Totals:         0       0       0       0       0       0       0       0       0       0       0       0       
      +0       0       0       0       0       0       0       0       0       0       0       0       0       0       0       
      +0       0       0       0       0       0       0       0       0       0       0       0       0       0       0       
      +0       0       0       0       0       0       0       0       0
  5171 ;;Total ram usage:        0 bytes
  5172 ;; Hardware stack levels used: 1
  5173 ;; Hardware stack levels required when called: 1
  5174 ;; This function calls:
  5175 ;;		_I2C1_MasterGetCounter
  5176 ;;		_I2C1_MasterSendTxData
  5177 ;;		_I2C1_MasterSetCounter
  5178 ;;		_I2C1_MasterStop
  5179 ;; This function is called by:
  5180 ;;		_I2C1_MasterFsm
  5181 ;; This function uses a non-reentrant model
  5182 ;;
  5183                           
  5184                           	psect	text37
  5185  005072                     __ptext37:
  5186                           	callstack 0
  5187  005072                     _I2C1_DO_SEND_STOP:
  5188                           	callstack 116
  5189  005072                     
  5190                           ;mcc_generated_files/i2c1_master.c: 526:     I2C1_MasterStop();
  5191  005072  ECC7  F029         	call	_I2C1_MasterStop	;wreg free
  5192  005076                     
  5193                           ;mcc_generated_files/i2c1_master.c: 527:     if(I2C1_MasterGetCounter())
  5194  005076  ECC4  F029         	call	_I2C1_MasterGetCounter	;wreg free
  5195  00507A  0900               	iorlw	0
  5196  00507C  B4D8               	btfsc	status,2,c
  5197  00507E  EF43  F028         	goto	u1501
  5198  005082  EF45  F028         	goto	u1500
  5199  005086                     u1501:
  5200  005086  EF4B  F028         	goto	l3870
  5201  00508A                     u1500:
  5202  00508A                     
  5203                           ;mcc_generated_files/i2c1_master.c: 528:     {;mcc_generated_files/i2c1_master.c: 529:  
      +                                 I2C1_MasterSetCounter(0);
  5204  00508A  0E00               	movlw	0
  5205  00508C  EC55  F029         	call	_I2C1_MasterSetCounter
  5206  005090                     
  5207                           ;mcc_generated_files/i2c1_master.c: 530:         I2C1_MasterSendTxData(0);
  5208  005090  0E00               	movlw	0
  5209  005092  ECA6  F029         	call	_I2C1_MasterSendTxData
  5210  005096                     l3870:
  5211                           
  5212                           ;mcc_generated_files/i2c1_master.c: 532:     return I2C1_IDLE;
  5213  005096  0E00               	movlw	0
  5214  005098  0012               	return		;funcret
  5215  00509A                     __end_of_I2C1_DO_SEND_STOP:
  5216                           	callstack 0
  5217                           
  5218 ;; *************** function _I2C1_DO_SEND_RESTART *****************
  5219 ;; Defined at:
  5220 ;;		line 519 in file "mcc_generated_files/i2c1_master.c"
  5221 ;; Parameters:    Size  Location     Type
  5222 ;;		None
  5223 ;; Auto vars:     Size  Location     Type
  5224 ;;		None
  5225 ;; Return value:  Size  Location     Type
  5226 ;;                  1    wreg      enum E23252
  5227 ;; Registers used:
  5228 ;;		wreg
  5229 ;; Tracked objects:
  5230 ;;		On entry : 0/0
  5231 ;;		On exit  : 0/0
  5232 ;;		Unchanged: 0/0
  5233 ;; Data sizes:     COMRAM   BANK5   BANK6   BANK7   BANK8   BANK9  BANK10  BANK11  BANK12  BANK13  BANK14  BANK15  BANK1
      +6  BANK17  BANK18  BANK19  BANK20  BANK21  BANK22  BANK23  BANK24  BANK25  BANK26  BANK27  BANK28  BANK29  BANK30  BANK3
      +1  BANK32  BANK33  BANK34  BANK35  BANK36  BANK37  BANK38  BANK39  BANK40  BANK41  BANK42  BANK43  BANK44  BANK45  BANK4
      +6  BANK47  BANK48  BANK49  BANK50  BANK51  BANK52  BANK53  BANK54
  5234 ;;      Params:         0       0       0       0       0       0       0       0       0       0       0       0       
      +0       0       0       0       0       0       0       0       0       0       0       0       0       0       0       
      +0       0       0       0       0       0       0       0       0       0       0       0       0       0       0       
      +0       0       0       0       0       0       0       0       0
  5235 ;;      Locals:         0       0       0       0       0       0       0       0       0       0       0       0       
      +0       0       0       0       0       0       0       0       0       0       0       0       0       0       0       
      +0       0       0       0       0       0       0       0       0       0       0       0       0       0       0       
      +0       0       0       0       0       0       0       0       0
  5236 ;;      Temps:          0       0       0       0       0       0       0       0       0       0       0       0       
      +0       0       0       0       0       0       0       0       0       0       0       0       0       0       0       
      +0       0       0       0       0       0       0       0       0       0       0       0       0       0       0       
      +0       0       0       0       0       0       0       0       0
  5237 ;;      Totals:         0       0       0       0       0       0       0       0       0       0       0       0       
      +0       0       0       0       0       0       0       0       0       0       0       0       0       0       0       
      +0       0       0       0       0       0       0       0       0       0       0       0       0       0       0       
      +0       0       0       0       0       0       0       0       0
  5238 ;;Total ram usage:        0 bytes
  5239 ;; Hardware stack levels used: 1
  5240 ;; This function calls:
  5241 ;;		Nothing
  5242 ;; This function is called by:
  5243 ;;		_I2C1_DO_ADDRESS_NACK
  5244 ;;		_I2C1_MasterFsm
  5245 ;; This function uses a non-reentrant model
  5246 ;;
  5247                           
  5248                           	psect	text38
  5249  0053C4                     __ptext38:
  5250                           	callstack 0
  5251  0053C4                     _I2C1_DO_SEND_RESTART:
  5252                           	callstack 117
  5253  0053C4                     
  5254                           ;mcc_generated_files/i2c1_master.c: 521:     return I2C1_SEND_ADR_READ;
  5255  0053C4  0E01               	movlw	1
  5256  0053C6  0012               	return		;funcret
  5257  0053C8                     __end_of_I2C1_DO_SEND_RESTART:
  5258                           	callstack 0
  5259                           
  5260 ;; *************** function _I2C1_DO_SEND_RESTART_WRITE *****************
  5261 ;; Defined at:
  5262 ;;		line 513 in file "mcc_generated_files/i2c1_master.c"
  5263 ;; Parameters:    Size  Location     Type
  5264 ;;		None
  5265 ;; Auto vars:     Size  Location     Type
  5266 ;;		None
  5267 ;; Return value:  Size  Location     Type
  5268 ;;                  1    wreg      enum E23252
  5269 ;; Registers used:
  5270 ;;		wreg
  5271 ;; Tracked objects:
  5272 ;;		On entry : 0/0
  5273 ;;		On exit  : 0/0
  5274 ;;		Unchanged: 0/0
  5275 ;; Data sizes:     COMRAM   BANK5   BANK6   BANK7   BANK8   BANK9  BANK10  BANK11  BANK12  BANK13  BANK14  BANK15  BANK1
      +6  BANK17  BANK18  BANK19  BANK20  BANK21  BANK22  BANK23  BANK24  BANK25  BANK26  BANK27  BANK28  BANK29  BANK30  BANK3
      +1  BANK32  BANK33  BANK34  BANK35  BANK36  BANK37  BANK38  BANK39  BANK40  BANK41  BANK42  BANK43  BANK44  BANK45  BANK4
      +6  BANK47  BANK48  BANK49  BANK50  BANK51  BANK52  BANK53  BANK54
  5276 ;;      Params:         0       0       0       0       0       0       0       0       0       0       0       0       
      +0       0       0       0       0       0       0       0       0       0       0       0       0       0       0       
      +0       0       0       0       0       0       0       0       0       0       0       0       0       0       0       
      +0       0       0       0       0       0       0       0       0
  5277 ;;      Locals:         0       0       0       0       0       0       0       0       0       0       0       0       
      +0       0       0       0       0       0       0       0       0       0       0       0       0       0       0       
      +0       0       0       0       0       0       0       0       0       0       0       0       0       0       0       
      +0       0       0       0       0       0       0       0       0
  5278 ;;      Temps:          0       0       0       0       0       0       0       0       0       0       0       0       
      +0       0       0       0       0       0       0       0       0       0       0       0       0       0       0       
      +0       0       0       0       0       0       0       0       0       0       0       0       0       0       0       
      +0       0       0       0       0       0       0       0       0
  5279 ;;      Totals:         0       0       0       0       0       0       0       0       0       0       0       0       
      +0       0       0       0       0       0       0       0       0       0       0       0       0       0       0       
      +0       0       0       0       0       0       0       0       0       0       0       0       0       0       0       
      +0       0       0       0       0       0       0       0       0
  5280 ;;Total ram usage:        0 bytes
  5281 ;; Hardware stack levels used: 1
  5282 ;; This function calls:
  5283 ;;		Nothing
  5284 ;; This function is called by:
  5285 ;;		_I2C1_DO_TX
  5286 ;;		_I2C1_DO_BUS_COLLISION
  5287 ;;		_I2C1_MasterFsm
  5288 ;; This function uses a non-reentrant model
  5289 ;;
  5290                           
  5291                           	psect	text39
  5292  0053C8                     __ptext39:
  5293                           	callstack 0
  5294  0053C8                     _I2C1_DO_SEND_RESTART_WRITE:
  5295                           	callstack 116
  5296  0053C8                     
  5297                           ;mcc_generated_files/i2c1_master.c: 515:     return I2C1_SEND_ADR_WRITE;
  5298  0053C8  0E02               	movlw	2
  5299  0053CA  0012               	return		;funcret
  5300  0053CC                     __end_of_I2C1_DO_SEND_RESTART_WRITE:
  5301                           	callstack 0
  5302                           
  5303 ;; *************** function _I2C1_DO_SEND_RESTART_READ *****************
  5304 ;; Defined at:
  5305 ;;		line 507 in file "mcc_generated_files/i2c1_master.c"
  5306 ;; Parameters:    Size  Location     Type
  5307 ;;		None
  5308 ;; Auto vars:     Size  Location     Type
  5309 ;;		None
  5310 ;; Return value:  Size  Location     Type
  5311 ;;                  1    wreg      enum E23252
  5312 ;; Registers used:
  5313 ;;		wreg, fsr2l, fsr2h, status,2, status,0, pclath, tosl, prodl, prodh, cstack
  5314 ;; Tracked objects:
  5315 ;;		On entry : 0/0
  5316 ;;		On exit  : 0/0
  5317 ;;		Unchanged: 0/0
  5318 ;; Data sizes:     COMRAM   BANK5   BANK6   BANK7   BANK8   BANK9  BANK10  BANK11  BANK12  BANK13  BANK14  BANK15  BANK1
      +6  BANK17  BANK18  BANK19  BANK20  BANK21  BANK22  BANK23  BANK24  BANK25  BANK26  BANK27  BANK28  BANK29  BANK30  BANK3
      +1  BANK32  BANK33  BANK34  BANK35  BANK36  BANK37  BANK38  BANK39  BANK40  BANK41  BANK42  BANK43  BANK44  BANK45  BANK4
      +6  BANK47  BANK48  BANK49  BANK50  BANK51  BANK52  BANK53  BANK54
  5319 ;;      Params:         0       0       0       0       0       0       0       0       0       0       0       0       
      +0       0       0       0       0       0       0       0       0       0       0       0       0       0       0       
      +0       0       0       0       0       0       0       0       0       0       0       0       0       0       0       
      +0       0       0       0       0       0       0       0       0
  5320 ;;      Locals:         0       0       0       0       0       0       0       0       0       0       0       0       
      +0       0       0       0       0       0       0       0       0       0       0       0       0       0       0       
      +0       0       0       0       0       0       0       0       0       0       0       0       0       0       0       
      +0       0       0       0       0       0       0       0       0
  5321 ;;      Temps:          0       0       0       0       0       0       0       0       0       0       0       0       
      +0       0       0       0       0       0       0       0       0       0       0       0       0       0       0       
      +0       0       0       0       0       0       0       0       0       0       0       0       0       0       0       
      +0       0       0       0       0       0       0       0       0
  5322 ;;      Totals:         0       0       0       0       0       0       0       0       0       0       0       0       
      +0       0       0       0       0       0       0       0       0       0       0       0       0       0       0       
      +0       0       0       0       0       0       0       0       0       0       0       0       0       0       0       
      +0       0       0       0       0       0       0       0       0
  5323 ;;Total ram usage:        0 bytes
  5324 ;; Hardware stack levels used: 1
  5325 ;; Hardware stack levels required when called: 5
  5326 ;; This function calls:
  5327 ;;		_I2C1_DO_SEND_ADR_READ
  5328 ;;		_I2C1_MasterSetCounter
  5329 ;; This function is called by:
  5330 ;;		_I2C1_DO_TX
  5331 ;;		_I2C1_DO_BUS_COLLISION
  5332 ;;		_I2C1_MasterFsm
  5333 ;; This function uses a non-reentrant model
  5334 ;;
  5335                           
  5336                           	psect	text40
  5337  0052C8                     __ptext40:
  5338                           	callstack 0
  5339  0052C8                     _I2C1_DO_SEND_RESTART_READ:
  5340                           	callstack 111
  5341  0052C8                     
  5342                           ;mcc_generated_files/i2c1_master.c: 509:     I2C1_MasterSetCounter((uint8_t) I2C1_Status
      +                          .data_length);
  5343  0052C8  0105               	movlb	5	; () banked
  5344  0052CA  5185               	movf	(_I2C1_Status+37)& (0+255),w,b
  5345  0052CC  EC55  F029         	call	_I2C1_MasterSetCounter
  5346  0052D0                     
  5347                           ;mcc_generated_files/i2c1_master.c: 510:     return I2C1_DO_SEND_ADR_READ();
  5348  0052D0  ECCC  F027         	call	_I2C1_DO_SEND_ADR_READ	;wreg free
  5349  0052D4  0012               	return		;funcret
  5350  0052D6                     __end_of_I2C1_DO_SEND_RESTART_READ:
  5351                           	callstack 0
  5352                           
  5353 ;; *************** function _I2C1_DO_RX_EMPTY *****************
  5354 ;; Defined at:
  5355 ;;		line 482 in file "mcc_generated_files/i2c1_master.c"
  5356 ;; Parameters:    Size  Location     Type
  5357 ;;		None
  5358 ;; Auto vars:     Size  Location     Type
  5359 ;;		None
  5360 ;; Return value:  Size  Location     Type
  5361 ;;                  1    wreg      enum E23252
  5362 ;; Registers used:
  5363 ;;		wreg, fsr2l, fsr2h, status,2, status,0, pclath, tosl, prodl, prodh, cstack
  5364 ;; Tracked objects:
  5365 ;;		On entry : 0/0
  5366 ;;		On exit  : 0/0
  5367 ;;		Unchanged: 0/0
  5368 ;; Data sizes:     COMRAM   BANK5   BANK6   BANK7   BANK8   BANK9  BANK10  BANK11  BANK12  BANK13  BANK14  BANK15  BANK1
      +6  BANK17  BANK18  BANK19  BANK20  BANK21  BANK22  BANK23  BANK24  BANK25  BANK26  BANK27  BANK28  BANK29  BANK30  BANK3
      +1  BANK32  BANK33  BANK34  BANK35  BANK36  BANK37  BANK38  BANK39  BANK40  BANK41  BANK42  BANK43  BANK44  BANK45  BANK4
      +6  BANK47  BANK48  BANK49  BANK50  BANK51  BANK52  BANK53  BANK54
  5369 ;;      Params:         0       0       0       0       0       0       0       0       0       0       0       0       
      +0       0       0       0       0       0       0       0       0       0       0       0       0       0       0       
      +0       0       0       0       0       0       0       0       0       0       0       0       0       0       0       
      +0       0       0       0       0       0       0       0       0
  5370 ;;      Locals:         0       0       0       0       0       0       0       0       0       0       0       0       
      +0       0       0       0       0       0       0       0       0       0       0       0       0       0       0       
      +0       0       0       0       0       0       0       0       0       0       0       0       0       0       0       
      +0       0       0       0       0       0       0       0       0
  5371 ;;      Temps:          2       0       0       0       0       0       0       0       0       0       0       0       
      +0       0       0       0       0       0       0       0       0       0       0       0       0       0       0       
      +0       0       0       0       0       0       0       0       0       0       0       0       0       0       0       
      +0       0       0       0       0       0       0       0       0
  5372 ;;      Totals:         2       0       0       0       0       0       0       0       0       0       0       0       
      +0       0       0       0       0       0       0       0       0       0       0       0       0       0       0       
      +0       0       0       0       0       0       0       0       0       0       0       0       0       0       0       
      +0       0       0       0       0       0       0       0       0
  5373 ;;Total ram usage:        2 bytes
  5374 ;; Hardware stack levels used: 1
  5375 ;; Hardware stack levels required when called: 3
  5376 ;; This function calls:
  5377 ;;		Absolute function
  5378 ;;		_I2C1_CallbackReturnReset
  5379 ;;		_I2C1_CallbackReturnStop
  5380 ;;		_I2C1_MasterDisableRestart
  5381 ;;		_I2C1_MasterEnableRestart
  5382 ;;		_I2C1_MasterSetCounter
  5383 ;;		_rd1RegCompleteHandler
  5384 ;;		_rd2RegCompleteHandler
  5385 ;;		_rdBlkRegCompleteHandler
  5386 ;;		_wr1RegCompleteHandler
  5387 ;;		_wr2RegCompleteHandler
  5388 ;; This function is called by:
  5389 ;;		_I2C1_DO_SEND_ADR_READ
  5390 ;;		_I2C1_DO_RX
  5391 ;;		_I2C1_MasterFsm
  5392 ;; This function uses a non-reentrant model
  5393 ;;
  5394                           
  5395                           	psect	text41
  5396  004632                     __ptext41:
  5397                           	callstack 0
  5398  004632                     _I2C1_DO_RX_EMPTY:
  5399                           	callstack 111
  5400  004632                     
  5401                           ;mcc_generated_files/i2c1_master.c: 484:     I2C1_Status.bufferFree = 1;
  5402  004632  0105               	movlb	5	; () banked
  5403  004634  8989               	bsf	(_I2C1_Status+41)& (0+255),4,b
  5404                           
  5405                           ;mcc_generated_files/i2c1_master.c: 485:     switch(I2C1_Status.callbackTable[I2C1_DATA_
      +                          COMPLETE](I2C1_Status.callbackPayload[I2C1_DATA_COMPLETE]))
  5406  004636  EF3D  F023         	goto	l3626
  5407  00463A                     l3598:
  5408                           
  5409                           ;mcc_generated_files/i2c1_master.c: 488:             I2C1_MasterEnableRestart();
  5410  00463A  ECD3  F029         	call	_I2C1_MasterEnableRestart	;wreg free
  5411  00463E                     
  5412                           ;mcc_generated_files/i2c1_master.c: 489:             return I2C1_SEND_RESTART_WRITE;
  5413  00463E  0E08               	movlw	8
  5414  004640  EF6A  F023         	goto	l415
  5415  004644                     l3604:
  5416                           
  5417                           ;mcc_generated_files/i2c1_master.c: 491:             I2C1_MasterEnableRestart();
  5418  004644  ECD3  F029         	call	_I2C1_MasterEnableRestart	;wreg free
  5419  004648                     
  5420                           ;mcc_generated_files/i2c1_master.c: 492:             return I2C1_SEND_RESTART_READ;
  5421  004648  0E07               	movlw	7
  5422  00464A  EF6A  F023         	goto	l415
  5423  00464E                     l3610:
  5424                           
  5425                           ;mcc_generated_files/i2c1_master.c: 495:             I2C1_MasterSetCounter((uint8_t) (I2
      +                          C1_Status.data_length + 1));
  5426  00464E  0105               	movlb	5	; () banked
  5427  004650  2985               	incf	(_I2C1_Status+37)& (0+255),w,b
  5428  004652  EC55  F029         	call	_I2C1_MasterSetCounter
  5429  004656                     
  5430                           ;mcc_generated_files/i2c1_master.c: 496:             return I2C1_RX;
  5431  004656  0E04               	movlw	4
  5432  004658  EF6A  F023         	goto	l415
  5433  00465C                     l3616:
  5434                           
  5435                           ;mcc_generated_files/i2c1_master.c: 499:             if(I2C1_Status.state != I2C1_SEND_R
      +                          ESTART_READ)
  5436  00465C  0E07               	movlw	7
  5437  00465E  0105               	movlb	5	; () banked
  5438  004660  1987               	xorwf	(_I2C1_Status+39)& (0+255),w,b
  5439  004662  B4D8               	btfsc	status,2,c
  5440  004664  EF36  F023         	goto	u1291
  5441  004668  EF38  F023         	goto	u1290
  5442  00466C                     u1291:
  5443  00466C  EF3A  F023         	goto	l3620
  5444  004670                     u1290:
  5445  004670                     
  5446                           ; BSR set to: 5
  5447                           ;mcc_generated_files/i2c1_master.c: 500:             {;mcc_generated_files/i2c1_master.c
      +                          : 501:                 I2C1_MasterDisableRestart();
  5448  004670  ECD6  F029         	call	_I2C1_MasterDisableRestart	;wreg free
  5449  004674                     l3620:
  5450                           
  5451                           ;mcc_generated_files/i2c1_master.c: 503:             return I2C1_RESET;
  5452  004674  0E0F               	movlw	15
  5453  004676  EF6A  F023         	goto	l415
  5454  00467A                     l3626:
  5455                           
  5456                           ; BSR set to: 5
  5457  00467A  C572  F50C         	movff	_I2C1_Status+18,I2C1_CallbackReturnReset@funPtr
  5458  00467E  C573  F50D         	movff	_I2C1_Status+19,I2C1_CallbackReturnReset@funPtr+1
  5459  004682  D802               	call	u1308
  5460  004684  EF4E  F023         	goto	u1309
  5461  004688                     u1308:
  5462  004688  0005               	push	
  5463  00468A  6EFA               	movwf	pclath,c
  5464  00468C  5160               	movf	_I2C1_Status& (0+255),w,b
  5465  00468E  6EFD               	movwf	tosl,c
  5466  004690  5161               	movf	(_I2C1_Status+1)& (0+255),w,b
  5467  004692  6EFE               	movwf	tosh,c
  5468  004694  5162               	movf	(_I2C1_Status+2)& (0+255),w,b
  5469  004696  6EFF               	movwf	tosu,c
  5470  004698  50FA               	movf	pclath,w,c
  5471  00469A  0012               	return		;indir
  5472  00469C                     u1309:
  5473  00469C  6E0E               	movwf	??_I2C1_DO_RX_EMPTY^(0+1280),c
  5474  00469E  6A0F               	clrf	(??_I2C1_DO_RX_EMPTY+1)^(0+1280),c
  5475                           
  5476                           ; Switch on 2 bytes has been partitioned into a top level switch of size 1, and 1 sub-sw
      +                          itches
  5477                           ; Switch size 1, requested type "simple"
  5478                           ; Number of cases is 1, Range of values is 0 to 0
  5479                           ; switch strategies available:
  5480                           ; Name         Instructions Cycles
  5481                           ; simple_byte            4     3 (average)
  5482                           ;	Chosen strategy is simple_byte
  5483  0046A0  500F               	movf	(??_I2C1_DO_RX_EMPTY+1)^(0+1280),w,c
  5484  0046A2  0A00               	xorlw	0	; case 0
  5485  0046A4  B4D8               	btfsc	status,2,c
  5486  0046A6  EF57  F023         	goto	l5006
  5487  0046AA  EF2E  F023         	goto	l3616
  5488  0046AE                     l5006:
  5489                           
  5490                           ; Switch size 1, requested type "simple"
  5491                           ; Number of cases is 4, Range of values is 1 to 4
  5492                           ; switch strategies available:
  5493                           ; Name         Instructions Cycles
  5494                           ; simple_byte           13     7 (average)
  5495                           ;	Chosen strategy is simple_byte
  5496  0046AE  500E               	movf	??_I2C1_DO_RX_EMPTY^(0+1280),w,c
  5497  0046B0  0A01               	xorlw	1	; case 1
  5498  0046B2  B4D8               	btfsc	status,2,c
  5499  0046B4  EF2E  F023         	goto	l3616
  5500  0046B8  0A03               	xorlw	3	; case 2
  5501  0046BA  B4D8               	btfsc	status,2,c
  5502  0046BC  EF22  F023         	goto	l3604
  5503  0046C0  0A01               	xorlw	1	; case 3
  5504  0046C2  B4D8               	btfsc	status,2,c
  5505  0046C4  EF1D  F023         	goto	l3598
  5506  0046C8  0A07               	xorlw	7	; case 4
  5507  0046CA  B4D8               	btfsc	status,2,c
  5508  0046CC  EF27  F023         	goto	l3610
  5509  0046D0  EF2E  F023         	goto	l3616
  5510  0046D4                     l415:
  5511  0046D4  0012               	return		;funcret
  5512  0046D6                     __end_of_I2C1_DO_RX_EMPTY:
  5513                           	callstack 0
  5514                           
  5515 ;; *************** function _I2C1_DO_TX_EMPTY *****************
  5516 ;; Defined at:
  5517 ;;		line 463 in file "mcc_generated_files/i2c1_master.c"
  5518 ;; Parameters:    Size  Location     Type
  5519 ;;		None
  5520 ;; Auto vars:     Size  Location     Type
  5521 ;;		None
  5522 ;; Return value:  Size  Location     Type
  5523 ;;                  1    wreg      enum E23252
  5524 ;; Registers used:
  5525 ;;		wreg, fsr2l, fsr2h, status,2, status,0, pclath, tosl, prodl, prodh, cstack
  5526 ;; Tracked objects:
  5527 ;;		On entry : 0/0
  5528 ;;		On exit  : 0/0
  5529 ;;		Unchanged: 0/0
  5530 ;; Data sizes:     COMRAM   BANK5   BANK6   BANK7   BANK8   BANK9  BANK10  BANK11  BANK12  BANK13  BANK14  BANK15  BANK1
      +6  BANK17  BANK18  BANK19  BANK20  BANK21  BANK22  BANK23  BANK24  BANK25  BANK26  BANK27  BANK28  BANK29  BANK30  BANK3
      +1  BANK32  BANK33  BANK34  BANK35  BANK36  BANK37  BANK38  BANK39  BANK40  BANK41  BANK42  BANK43  BANK44  BANK45  BANK4
      +6  BANK47  BANK48  BANK49  BANK50  BANK51  BANK52  BANK53  BANK54
  5531 ;;      Params:         0       0       0       0       0       0       0       0       0       0       0       0       
      +0       0       0       0       0       0       0       0       0       0       0       0       0       0       0       
      +0       0       0       0       0       0       0       0       0       0       0       0       0       0       0       
      +0       0       0       0       0       0       0       0       0
  5532 ;;      Locals:         0       0       0       0       0       0       0       0       0       0       0       0       
      +0       0       0       0       0       0       0       0       0       0       0       0       0       0       0       
      +0       0       0       0       0       0       0       0       0       0       0       0       0       0       0       
      +0       0       0       0       0       0       0       0       0
  5533 ;;      Temps:          2       0       0       0       0       0       0       0       0       0       0       0       
      +0       0       0       0       0       0       0       0       0       0       0       0       0       0       0       
      +0       0       0       0       0       0       0       0       0       0       0       0       0       0       0       
      +0       0       0       0       0       0       0       0       0
  5534 ;;      Totals:         2       0       0       0       0       0       0       0       0       0       0       0       
      +0       0       0       0       0       0       0       0       0       0       0       0       0       0       0       
      +0       0       0       0       0       0       0       0       0       0       0       0       0       0       0       
      +0       0       0       0       0       0       0       0       0
  5535 ;;Total ram usage:        2 bytes
  5536 ;; Hardware stack levels used: 1
  5537 ;; Hardware stack levels required when called: 3
  5538 ;; This function calls:
  5539 ;;		Absolute function
  5540 ;;		_I2C1_CallbackReturnReset
  5541 ;;		_I2C1_CallbackReturnStop
  5542 ;;		_I2C1_MasterDisableRestart
  5543 ;;		_I2C1_MasterEnableRestart
  5544 ;;		_I2C1_MasterSetCounter
  5545 ;;		_rd1RegCompleteHandler
  5546 ;;		_rd2RegCompleteHandler
  5547 ;;		_rdBlkRegCompleteHandler
  5548 ;;		_wr1RegCompleteHandler
  5549 ;;		_wr2RegCompleteHandler
  5550 ;; This function is called by:
  5551 ;;		_I2C1_DO_TX
  5552 ;;		_I2C1_MasterFsm
  5553 ;; This function uses a non-reentrant model
  5554 ;;
  5555                           
  5556                           	psect	text42
  5557  0048A2                     __ptext42:
  5558                           	callstack 0
  5559  0048A2                     _I2C1_DO_TX_EMPTY:
  5560                           	callstack 114
  5561  0048A2                     
  5562                           ;mcc_generated_files/i2c1_master.c: 465:     I2C1_Status.bufferFree = 1;
  5563  0048A2  0105               	movlb	5	; () banked
  5564  0048A4  8989               	bsf	(_I2C1_Status+41)& (0+255),4,b
  5565                           
  5566                           ;mcc_generated_files/i2c1_master.c: 466:     switch(I2C1_Status.callbackTable[I2C1_DATA_
      +                          COMPLETE](I2C1_Status.callbackPayload[I2C1_DATA_COMPLETE]))
  5567  0048A6  EF66  F024         	goto	l3718
  5568  0048AA                     l3698:
  5569                           
  5570                           ;mcc_generated_files/i2c1_master.c: 469:             I2C1_MasterEnableRestart();
  5571  0048AA  ECD3  F029         	call	_I2C1_MasterEnableRestart	;wreg free
  5572  0048AE                     
  5573                           ;mcc_generated_files/i2c1_master.c: 470:             return I2C1_SEND_RESTART_READ;
  5574  0048AE  0E07               	movlw	7
  5575  0048B0  EF8F  F024         	goto	l406
  5576  0048B4                     l3704:
  5577                           
  5578                           ;mcc_generated_files/i2c1_master.c: 473:             I2C1_MasterSetCounter((uint8_t) I2C
      +                          1_Status.data_length + 1);
  5579  0048B4  0105               	movlb	5	; () banked
  5580  0048B6  2985               	incf	(_I2C1_Status+37)& (0+255),w,b
  5581  0048B8  EC55  F029         	call	_I2C1_MasterSetCounter
  5582  0048BC                     
  5583                           ;mcc_generated_files/i2c1_master.c: 474:             return I2C1_TX;
  5584  0048BC  0E03               	movlw	3
  5585  0048BE  EF8F  F024         	goto	l406
  5586  0048C2                     l3710:
  5587                           
  5588                           ;mcc_generated_files/i2c1_master.c: 477:             I2C1_MasterDisableRestart();
  5589  0048C2  ECD6  F029         	call	_I2C1_MasterDisableRestart	;wreg free
  5590  0048C6                     
  5591                           ;mcc_generated_files/i2c1_master.c: 478:             return I2C1_SEND_STOP;
  5592  0048C6  0E0A               	movlw	10
  5593  0048C8  EF8F  F024         	goto	l406
  5594  0048CC                     l3718:
  5595                           
  5596                           ; BSR set to: 5
  5597  0048CC  C572  F50C         	movff	_I2C1_Status+18,I2C1_CallbackReturnReset@funPtr
  5598  0048D0  C573  F50D         	movff	_I2C1_Status+19,I2C1_CallbackReturnReset@funPtr+1
  5599  0048D4  D802               	call	u1378
  5600  0048D6  EF77  F024         	goto	u1379
  5601  0048DA                     u1378:
  5602  0048DA  0005               	push	
  5603  0048DC  6EFA               	movwf	pclath,c
  5604  0048DE  5160               	movf	_I2C1_Status& (0+255),w,b
  5605  0048E0  6EFD               	movwf	tosl,c
  5606  0048E2  5161               	movf	(_I2C1_Status+1)& (0+255),w,b
  5607  0048E4  6EFE               	movwf	tosh,c
  5608  0048E6  5162               	movf	(_I2C1_Status+2)& (0+255),w,b
  5609  0048E8  6EFF               	movwf	tosu,c
  5610  0048EA  50FA               	movf	pclath,w,c
  5611  0048EC  0012               	return		;indir
  5612  0048EE                     u1379:
  5613  0048EE  6E0E               	movwf	??_I2C1_DO_TX_EMPTY^(0+1280),c
  5614  0048F0  6A0F               	clrf	(??_I2C1_DO_TX_EMPTY+1)^(0+1280),c
  5615                           
  5616                           ; Switch on 2 bytes has been partitioned into a top level switch of size 1, and 1 sub-sw
      +                          itches
  5617                           ; Switch size 1, requested type "simple"
  5618                           ; Number of cases is 1, Range of values is 0 to 0
  5619                           ; switch strategies available:
  5620                           ; Name         Instructions Cycles
  5621                           ; simple_byte            4     3 (average)
  5622                           ;	Chosen strategy is simple_byte
  5623  0048F2  500F               	movf	(??_I2C1_DO_TX_EMPTY+1)^(0+1280),w,c
  5624  0048F4  0A00               	xorlw	0	; case 0
  5625  0048F6  B4D8               	btfsc	status,2,c
  5626  0048F8  EF80  F024         	goto	l5008
  5627  0048FC  EF61  F024         	goto	l3710
  5628  004900                     l5008:
  5629                           
  5630                           ; Switch size 1, requested type "simple"
  5631                           ; Number of cases is 3, Range of values is 1 to 4
  5632                           ; switch strategies available:
  5633                           ; Name         Instructions Cycles
  5634                           ; simple_byte           10     6 (average)
  5635                           ;	Chosen strategy is simple_byte
  5636  004900  500E               	movf	??_I2C1_DO_TX_EMPTY^(0+1280),w,c
  5637  004902  0A01               	xorlw	1	; case 1
  5638  004904  B4D8               	btfsc	status,2,c
  5639  004906  EF61  F024         	goto	l3710
  5640  00490A  0A03               	xorlw	3	; case 2
  5641  00490C  B4D8               	btfsc	status,2,c
  5642  00490E  EF55  F024         	goto	l3698
  5643  004912  0A06               	xorlw	6	; case 4
  5644  004914  B4D8               	btfsc	status,2,c
  5645  004916  EF5A  F024         	goto	l3704
  5646  00491A  EF61  F024         	goto	l3710
  5647  00491E                     l406:
  5648  00491E  0012               	return		;funcret
  5649  004920                     __end_of_I2C1_DO_TX_EMPTY:
  5650                           	callstack 0
  5651                           
  5652 ;; *************** function _I2C1_DO_RX *****************
  5653 ;; Defined at:
  5654 ;;		line 439 in file "mcc_generated_files/i2c1_master.c"
  5655 ;; Parameters:    Size  Location     Type
  5656 ;;		None
  5657 ;; Auto vars:     Size  Location     Type
  5658 ;;  retFsmState     1   17[COMRAM] enum E23252
  5659 ;; Return value:  Size  Location     Type
  5660 ;;                  1    wreg      enum E23252
  5661 ;; Registers used:
  5662 ;;		wreg, fsr2l, fsr2h, status,2, status,0, pclath, tosl, prodl, prodh, cstack
  5663 ;; Tracked objects:
  5664 ;;		On entry : 0/0
  5665 ;;		On exit  : 0/0
  5666 ;;		Unchanged: 0/0
  5667 ;; Data sizes:     COMRAM   BANK5   BANK6   BANK7   BANK8   BANK9  BANK10  BANK11  BANK12  BANK13  BANK14  BANK15  BANK1
      +6  BANK17  BANK18  BANK19  BANK20  BANK21  BANK22  BANK23  BANK24  BANK25  BANK26  BANK27  BANK28  BANK29  BANK30  BANK3
      +1  BANK32  BANK33  BANK34  BANK35  BANK36  BANK37  BANK38  BANK39  BANK40  BANK41  BANK42  BANK43  BANK44  BANK45  BANK4
      +6  BANK47  BANK48  BANK49  BANK50  BANK51  BANK52  BANK53  BANK54
  5668 ;;      Params:         0       0       0       0       0       0       0       0       0       0       0       0       
      +0       0       0       0       0       0       0       0       0       0       0       0       0       0       0       
      +0       0       0       0       0       0       0       0       0       0       0       0       0       0       0       
      +0       0       0       0       0       0       0       0       0
  5669 ;;      Locals:         1       0       0       0       0       0       0       0       0       0       0       0       
      +0       0       0       0       0       0       0       0       0       0       0       0       0       0       0       
      +0       0       0       0       0       0       0       0       0       0       0       0       0       0       0       
      +0       0       0       0       0       0       0       0       0
  5670 ;;      Temps:          2       0       0       0       0       0       0       0       0       0       0       0       
      +0       0       0       0       0       0       0       0       0       0       0       0       0       0       0       
      +0       0       0       0       0       0       0       0       0       0       0       0       0       0       0       
      +0       0       0       0       0       0       0       0       0
  5671 ;;      Totals:         3       0       0       0       0       0       0       0       0       0       0       0       
      +0       0       0       0       0       0       0       0       0       0       0       0       0       0       0       
      +0       0       0       0       0       0       0       0       0       0       0       0       0       0       0       
      +0       0       0       0       0       0       0       0       0
  5672 ;;Total ram usage:        3 bytes
  5673 ;; Hardware stack levels used: 1
  5674 ;; Hardware stack levels required when called: 4
  5675 ;; This function calls:
  5676 ;;		_I2C1_DO_RX_EMPTY
  5677 ;;		_I2C1_MasterGetRxData
  5678 ;;		_I2C1_MasterIsRxBufFull
  5679 ;; This function is called by:
  5680 ;;		_I2C1_MasterFsm
  5681 ;; This function uses a non-reentrant model
  5682 ;;
  5683                           
  5684                           	psect	text43
  5685  004776                     __ptext43:
  5686                           	callstack 0
  5687  004776                     _I2C1_DO_RX:
  5688                           	callstack 113
  5689  004776                     
  5690                           ;mcc_generated_files/i2c1_master.c: 441:     if(!I2C1_MasterIsRxBufFull())
  5691  004776  EC0F  F029         	call	_I2C1_MasterIsRxBufFull	;wreg free
  5692  00477A  0900               	iorlw	0
  5693  00477C  A4D8               	btfss	status,2,c
  5694  00477E  EFC3  F023         	goto	u1471
  5695  004782  EFC5  F023         	goto	u1470
  5696  004786                     u1471:
  5697  004786  EFC8  F023         	goto	l3838
  5698  00478A                     u1470:
  5699  00478A                     l3834:
  5700                           
  5701                           ;mcc_generated_files/i2c1_master.c: 442:     {;mcc_generated_files/i2c1_master.c: 443:  
      +                                 return I2C1_RX;
  5702  00478A  0E04               	movlw	4
  5703  00478C  EF09  F024         	goto	l398
  5704  004790                     l3838:
  5705                           
  5706                           ;mcc_generated_files/i2c1_master.c: 445:     if(I2C1_Status.addressNackCheck)
  5707  004790  0105               	movlb	5	; () banked
  5708  004792  5189               	movf	(_I2C1_Status+41)& (0+255),w,b
  5709  004794  0B03               	andlw	3
  5710  004796  0900               	iorlw	0
  5711  004798  B4D8               	btfsc	status,2,c
  5712  00479A  EFD1  F023         	goto	u1481
  5713  00479E  EFD3  F023         	goto	u1480
  5714  0047A2                     u1481:
  5715  0047A2  EFDF  F023         	goto	l399
  5716  0047A6                     u1480:
  5717  0047A6                     
  5718                           ; BSR set to: 5
  5719                           ;mcc_generated_files/i2c1_master.c: 446:     {;mcc_generated_files/i2c1_master.c: 447:  
      +                                 I2C1_Status.addressNackCheck--;
  5720  0047A6  0E01               	movlw	1
  5721  0047A8  6E10               	movwf	??_I2C1_DO_RX^(0+1280),c
  5722  0047AA  5189               	movf	(_I2C1_Status+41)& (0+255),w,b
  5723  0047AC  0B03               	andlw	3
  5724  0047AE  6E11               	movwf	(??_I2C1_DO_RX+1)^(0+1280),c
  5725  0047B0  5010               	movf	??_I2C1_DO_RX^(0+1280),w,c
  5726  0047B2  5E11               	subwf	(??_I2C1_DO_RX+1)^(0+1280),f,c
  5727  0047B4  5189               	movf	(_I2C1_Status+41)& (0+255),w,b
  5728  0047B6  1811               	xorwf	(??_I2C1_DO_RX+1)^(0+1280),w,c
  5729  0047B8  0BFC               	andlw	-4
  5730  0047BA  1811               	xorwf	(??_I2C1_DO_RX+1)^(0+1280),w,c
  5731  0047BC  6F89               	movwf	(_I2C1_Status+41)& (0+255),b
  5732  0047BE                     l399:
  5733                           
  5734                           ; BSR set to: 5
  5735                           ;mcc_generated_files/i2c1_master.c: 450:     if(--I2C1_Status.data_length)
  5736  0047BE  0785               	decf	(_I2C1_Status+37)& (0+255),f,b
  5737  0047C0  A0D8               	btfss	status,0,c
  5738  0047C2  0786               	decf	(_I2C1_Status+38)& (0+255),f,b
  5739  0047C4  5185               	movf	(_I2C1_Status+37)& (0+255),w,b
  5740  0047C6  1186               	iorwf	(_I2C1_Status+38)& (0+255),w,b
  5741  0047C8  B4D8               	btfsc	status,2,c
  5742  0047CA  EFE9  F023         	goto	u1491
  5743  0047CE  EFEB  F023         	goto	u1490
  5744  0047D2                     u1491:
  5745  0047D2  EFF9  F023         	goto	l3852
  5746  0047D6                     u1490:
  5747  0047D6                     
  5748                           ; BSR set to: 5
  5749                           ;mcc_generated_files/i2c1_master.c: 451:     {;mcc_generated_files/i2c1_master.c: 452:  
      +                                 *I2C1_Status.data_ptr++ = I2C1_MasterGetRxData();
  5750  0047D6  ECD0  F029         	call	_I2C1_MasterGetRxData	;wreg free
  5751  0047DA  0061  F60C  F4D9   	movff	_I2C1_Status+35,fsr2l
  5752  0047E0  0061  F610  F4DA   	movff	_I2C1_Status+36,fsr2h
  5753  0047E6  6EDF               	movwf	indf2,c
  5754  0047E8  0105               	movlb	5	; () banked
  5755  0047EA  4B83               	infsnz	(_I2C1_Status+35)& (0+255),f,b
  5756  0047EC  2B84               	incf	(_I2C1_Status+36)& (0+255),f,b
  5757  0047EE  EFC5  F023         	goto	l3834
  5758  0047F2                     l3852:
  5759                           
  5760                           ; BSR set to: 5
  5761                           ;mcc_generated_files/i2c1_master.c: 456:     {;mcc_generated_files/i2c1_master.c: 457:  
      +                                 i2c1_fsm_states_t retFsmState = I2C1_DO_RX_EMPTY();
  5762  0047F2  EC19  F023         	call	_I2C1_DO_RX_EMPTY	;wreg free
  5763  0047F6  6E12               	movwf	I2C1_DO_RX@retFsmState^(0+1280),c
  5764  0047F8                     
  5765                           ;mcc_generated_files/i2c1_master.c: 458:         *I2C1_Status.data_ptr++ = I2C1_MasterGe
      +                          tRxData();
  5766  0047F8  ECD0  F029         	call	_I2C1_MasterGetRxData	;wreg free
  5767  0047FC  0061  F60C  F4D9   	movff	_I2C1_Status+35,fsr2l
  5768  004802  0061  F610  F4DA   	movff	_I2C1_Status+36,fsr2h
  5769  004808  6EDF               	movwf	indf2,c
  5770  00480A  0105               	movlb	5	; () banked
  5771  00480C  4B83               	infsnz	(_I2C1_Status+35)& (0+255),f,b
  5772  00480E  2B84               	incf	(_I2C1_Status+36)& (0+255),f,b
  5773  004810                     
  5774                           ; BSR set to: 5
  5775                           ;mcc_generated_files/i2c1_master.c: 459:         return retFsmState;
  5776  004810  5012               	movf	I2C1_DO_RX@retFsmState^(0+1280),w,c
  5777  004812                     l398:
  5778  004812  0012               	return		;funcret
  5779  004814                     __end_of_I2C1_DO_RX:
  5780                           	callstack 0
  5781                           
  5782 ;; *************** function _I2C1_DO_TX *****************
  5783 ;; Defined at:
  5784 ;;		line 406 in file "mcc_generated_files/i2c1_master.c"
  5785 ;; Parameters:    Size  Location     Type
  5786 ;;		None
  5787 ;; Auto vars:     Size  Location     Type
  5788 ;;  retFsmState     1   18[COMRAM] enum E23252
  5789 ;;  dataTx          1   17[COMRAM] unsigned char 
  5790 ;; Return value:  Size  Location     Type
  5791 ;;                  1    wreg      enum E23252
  5792 ;; Registers used:
  5793 ;;		wreg, fsr2l, fsr2h, status,2, status,0, pclath, tosl, prodl, prodh, cstack
  5794 ;; Tracked objects:
  5795 ;;		On entry : 0/0
  5796 ;;		On exit  : 0/0
  5797 ;;		Unchanged: 0/0
  5798 ;; Data sizes:     COMRAM   BANK5   BANK6   BANK7   BANK8   BANK9  BANK10  BANK11  BANK12  BANK13  BANK14  BANK15  BANK1
      +6  BANK17  BANK18  BANK19  BANK20  BANK21  BANK22  BANK23  BANK24  BANK25  BANK26  BANK27  BANK28  BANK29  BANK30  BANK3
      +1  BANK32  BANK33  BANK34  BANK35  BANK36  BANK37  BANK38  BANK39  BANK40  BANK41  BANK42  BANK43  BANK44  BANK45  BANK4
      +6  BANK47  BANK48  BANK49  BANK50  BANK51  BANK52  BANK53  BANK54
  5799 ;;      Params:         0       0       0       0       0       0       0       0       0       0       0       0       
      +0       0       0       0       0       0       0       0       0       0       0       0       0       0       0       
      +0       0       0       0       0       0       0       0       0       0       0       0       0       0       0       
      +0       0       0       0       0       0       0       0       0
  5800 ;;      Locals:         4       0       0       0       0       0       0       0       0       0       0       0       
      +0       0       0       0       0       0       0       0       0       0       0       0       0       0       0       
      +0       0       0       0       0       0       0       0       0       0       0       0       0       0       0       
      +0       0       0       0       0       0       0       0       0
  5801 ;;      Temps:          2       0       0       0       0       0       0       0       0       0       0       0       
      +0       0       0       0       0       0       0       0       0       0       0       0       0       0       0       
      +0       0       0       0       0       0       0       0       0       0       0       0       0       0       0       
      +0       0       0       0       0       0       0       0       0
  5802 ;;      Totals:         6       0       0       0       0       0       0       0       0       0       0       0       
      +0       0       0       0       0       0       0       0       0       0       0       0       0       0       0       
      +0       0       0       0       0       0       0       0       0       0       0       0       0       0       0       
      +0       0       0       0       0       0       0       0       0
  5803 ;;Total ram usage:        6 bytes
  5804 ;; Hardware stack levels used: 1
  5805 ;; Hardware stack levels required when called: 6
  5806 ;; This function calls:
  5807 ;;		Absolute function
  5808 ;;		_I2C1_CallbackReturnReset
  5809 ;;		_I2C1_CallbackReturnStop
  5810 ;;		_I2C1_DO_SEND_RESTART_READ
  5811 ;;		_I2C1_DO_SEND_RESTART_WRITE
  5812 ;;		_I2C1_DO_TX_EMPTY
  5813 ;;		_I2C1_MasterIsNack
  5814 ;;		_I2C1_MasterIsTxBufEmpty
  5815 ;;		_I2C1_MasterSendTxData
  5816 ;;		_rd1RegCompleteHandler
  5817 ;;		_rd2RegCompleteHandler
  5818 ;;		_rdBlkRegCompleteHandler
  5819 ;;		_wr1RegCompleteHandler
  5820 ;;		_wr2RegCompleteHandler
  5821 ;; This function is called by:
  5822 ;;		_I2C1_MasterFsm
  5823 ;; This function uses a non-reentrant model
  5824 ;;
  5825                           
  5826                           	psect	text44
  5827  003F42                     __ptext44:
  5828                           	callstack 0
  5829  003F42                     _I2C1_DO_TX:
  5830                           	callstack 111
  5831  003F42                     
  5832                           ;mcc_generated_files/i2c1_master.c: 408:     if(I2C1_MasterIsNack())
  5833  003F42  EC04  F029         	call	_I2C1_MasterIsNack	;wreg free
  5834  003F46  0900               	iorlw	0
  5835  003F48  B4D8               	btfsc	status,2,c
  5836  003F4A  EFA9  F01F         	goto	u1421
  5837  003F4E  EFAB  F01F         	goto	u1420
  5838  003F52                     u1421:
  5839  003F52  EFE7  F01F         	goto	l3798
  5840  003F56                     u1420:
  5841  003F56  EFB8  F01F         	goto	l3796
  5842  003F5A                     l3782:
  5843                           
  5844                           ;mcc_generated_files/i2c1_master.c: 413:                 return I2C1_DO_SEND_RESTART_REA
      +                          D();
  5845  003F5A  EC64  F029         	call	_I2C1_DO_SEND_RESTART_READ	;wreg free
  5846  003F5E  EF33  F020         	goto	l381
  5847  003F62                     l3786:
  5848                           
  5849                           ;mcc_generated_files/i2c1_master.c: 415:                   return I2C1_DO_SEND_RESTART_W
      +                          RITE();
  5850  003F62  ECE4  F029         	call	_I2C1_DO_SEND_RESTART_WRITE	;wreg free
  5851  003F66  EF33  F020         	goto	l381
  5852  003F6A                     l3790:
  5853                           
  5854                           ;mcc_generated_files/i2c1_master.c: 419:                 return I2C1_IDLE;
  5855  003F6A  0E00               	movlw	0
  5856  003F6C  EF33  F020         	goto	l381
  5857  003F70                     l3796:
  5858  003F70  C578  F50C         	movff	_I2C1_Status+24,I2C1_CallbackReturnReset@funPtr
  5859  003F74  C579  F50D         	movff	_I2C1_Status+25,I2C1_CallbackReturnReset@funPtr+1
  5860  003F78  EE21  F169         	lfsr	2,_I2C1_Status+9
  5861  003F7C  D802               	call	u1438
  5862  003F7E  EFCB  F01F         	goto	u1439
  5863  003F82                     u1438:
  5864  003F82  0005               	push	
  5865  003F84  6EFA               	movwf	pclath,c
  5866  003F86  50DE               	movf	postinc2,w,c
  5867  003F88  6EFD               	movwf	tosl,c
  5868  003F8A  50DE               	movf	postinc2,w,c
  5869  003F8C  6EFE               	movwf	tosh,c
  5870  003F8E  50DE               	movf	postinc2,w,c
  5871  003F90  6EFF               	movwf	tosu,c
  5872  003F92  50FA               	movf	pclath,w,c
  5873  003F94  0012               	return		;indir
  5874  003F96                     u1439:
  5875  003F96  6E0E               	movwf	??_I2C1_DO_TX^(0+1280),c
  5876  003F98  6A0F               	clrf	(??_I2C1_DO_TX+1)^(0+1280),c
  5877                           
  5878                           ; Switch on 2 bytes has been partitioned into a top level switch of size 1, and 1 sub-sw
      +                          itches
  5879                           ; Switch size 1, requested type "simple"
  5880                           ; Number of cases is 1, Range of values is 0 to 0
  5881                           ; switch strategies available:
  5882                           ; Name         Instructions Cycles
  5883                           ; simple_byte            4     3 (average)
  5884                           ;	Chosen strategy is simple_byte
  5885  003F9A  500F               	movf	(??_I2C1_DO_TX+1)^(0+1280),w,c
  5886  003F9C  0A00               	xorlw	0	; case 0
  5887  003F9E  B4D8               	btfsc	status,2,c
  5888  003FA0  EFD4  F01F         	goto	l5010
  5889  003FA4  EFB5  F01F         	goto	l3790
  5890  003FA8                     l5010:
  5891                           
  5892                           ; Switch size 1, requested type "simple"
  5893                           ; Number of cases is 4, Range of values is 1 to 4
  5894                           ; switch strategies available:
  5895                           ; Name         Instructions Cycles
  5896                           ; simple_byte           13     7 (average)
  5897                           ;	Chosen strategy is simple_byte
  5898  003FA8  500E               	movf	??_I2C1_DO_TX^(0+1280),w,c
  5899  003FAA  0A01               	xorlw	1	; case 1
  5900  003FAC  B4D8               	btfsc	status,2,c
  5901  003FAE  EFB5  F01F         	goto	l3790
  5902  003FB2  0A03               	xorlw	3	; case 2
  5903  003FB4  B4D8               	btfsc	status,2,c
  5904  003FB6  EFAD  F01F         	goto	l3782
  5905  003FBA  0A01               	xorlw	1	; case 3
  5906  003FBC  B4D8               	btfsc	status,2,c
  5907  003FBE  EFB1  F01F         	goto	l3786
  5908  003FC2  0A07               	xorlw	7	; case 4
  5909  003FC4  B4D8               	btfsc	status,2,c
  5910  003FC6  EFB5  F01F         	goto	l3790
  5911  003FCA  EFB5  F01F         	goto	l3790
  5912  003FCE                     l3798:
  5913  003FCE  ECF9  F028         	call	_I2C1_MasterIsTxBufEmpty	;wreg free
  5914  003FD2  0900               	iorlw	0
  5915  003FD4  B4D8               	btfsc	status,2,c
  5916  003FD6  EFEF  F01F         	goto	u1441
  5917  003FDA  EFF1  F01F         	goto	u1440
  5918  003FDE                     u1441:
  5919  003FDE  EF32  F020         	goto	l3824
  5920  003FE2                     u1440:
  5921  003FE2                     
  5922                           ;mcc_generated_files/i2c1_master.c: 423:     {;mcc_generated_files/i2c1_master.c: 424:  
      +                                 if(I2C1_Status.addressNackCheck)
  5923  003FE2  0105               	movlb	5	; () banked
  5924  003FE4  5189               	movf	(_I2C1_Status+41)& (0+255),w,b
  5925  003FE6  0B03               	andlw	3
  5926  003FE8  0900               	iorlw	0
  5927  003FEA  B4D8               	btfsc	status,2,c
  5928  003FEC  EFFA  F01F         	goto	u1451
  5929  003FF0  EFFC  F01F         	goto	u1450
  5930  003FF4                     u1451:
  5931  003FF4  EF08  F020         	goto	l3804
  5932  003FF8                     u1450:
  5933  003FF8                     
  5934                           ; BSR set to: 5
  5935                           ;mcc_generated_files/i2c1_master.c: 425:         {;mcc_generated_files/i2c1_master.c: 42
      +                          6:             I2C1_Status.addressNackCheck--;
  5936  003FF8  0E01               	movlw	1
  5937  003FFA  6E0E               	movwf	??_I2C1_DO_TX^(0+1280),c
  5938  003FFC  5189               	movf	(_I2C1_Status+41)& (0+255),w,b
  5939  003FFE  0B03               	andlw	3
  5940  004000  6E0F               	movwf	(??_I2C1_DO_TX+1)^(0+1280),c
  5941  004002  500E               	movf	??_I2C1_DO_TX^(0+1280),w,c
  5942  004004  5E0F               	subwf	(??_I2C1_DO_TX+1)^(0+1280),f,c
  5943  004006  5189               	movf	(_I2C1_Status+41)& (0+255),w,b
  5944  004008  180F               	xorwf	(??_I2C1_DO_TX+1)^(0+1280),w,c
  5945  00400A  0BFC               	andlw	-4
  5946  00400C  180F               	xorwf	(??_I2C1_DO_TX+1)^(0+1280),w,c
  5947  00400E  6F89               	movwf	(_I2C1_Status+41)& (0+255),b
  5948  004010                     l3804:
  5949                           
  5950                           ; BSR set to: 5
  5951                           ;mcc_generated_files/i2c1_master.c: 428:         uint8_t dataTx = *I2C1_Status.data_ptr+
      +                          +;
  5952  004010  0061  F60C  F4D9   	movff	_I2C1_Status+35,fsr2l
  5953  004016  0061  F610  F4DA   	movff	_I2C1_Status+36,fsr2h
  5954  00401C  50DF               	movf	indf2,w,c
  5955  00401E  6E12               	movwf	I2C1_DO_TX@dataTx^(0+1280),c
  5956  004020                     
  5957                           ; BSR set to: 5
  5958  004020  4B83               	infsnz	(_I2C1_Status+35)& (0+255),f,b
  5959  004022  2B84               	incf	(_I2C1_Status+36)& (0+255),f,b
  5960  004024                     
  5961                           ; BSR set to: 5
  5962                           ;mcc_generated_files/i2c1_master.c: 429:         i2c1_fsm_states_t retFsmState = (--I2C1
      +                          _Status.data_length)?I2C1_TX:I2C1_DO_TX_EMPTY();
  5963  004024  0785               	decf	(_I2C1_Status+37)& (0+255),f,b
  5964  004026  A0D8               	btfss	status,0,c
  5965  004028  0786               	decf	(_I2C1_Status+38)& (0+255),f,b
  5966  00402A  5185               	movf	(_I2C1_Status+37)& (0+255),w,b
  5967  00402C  1186               	iorwf	(_I2C1_Status+38)& (0+255),w,b
  5968  00402E  A4D8               	btfss	status,2,c
  5969  004030  EF1C  F020         	goto	u1461
  5970  004034  EF1E  F020         	goto	u1460
  5971  004038                     u1461:
  5972  004038  EF26  F020         	goto	l3812
  5973  00403C                     u1460:
  5974  00403C                     
  5975                           ; BSR set to: 5
  5976  00403C  EC51  F024         	call	_I2C1_DO_TX_EMPTY	;wreg free
  5977  004040  6E0E               	movwf	??_I2C1_DO_TX^(0+1280),c
  5978  004042  500E               	movf	??_I2C1_DO_TX^(0+1280),w,c
  5979  004044  6E10               	movwf	_I2C1_DO_TX$845^(0+1280),c
  5980  004046  6A11               	clrf	(_I2C1_DO_TX$845+1)^(0+1280),c
  5981  004048  EF2A  F020         	goto	l3814
  5982  00404C                     l3812:
  5983                           
  5984                           ; BSR set to: 5
  5985  00404C  0E00               	movlw	0
  5986  00404E  6E11               	movwf	(_I2C1_DO_TX$845+1)^(0+1280),c
  5987  004050  0E03               	movlw	3
  5988  004052  6E10               	movwf	_I2C1_DO_TX$845^(0+1280),c
  5989  004054                     l3814:
  5990  004054  C510  F513         	movff	_I2C1_DO_TX$845,I2C1_DO_TX@retFsmState
  5991  004058                     
  5992                           ;mcc_generated_files/i2c1_master.c: 430:         I2C1_MasterSendTxData(dataTx);
  5993  004058  5012               	movf	I2C1_DO_TX@dataTx^(0+1280),w,c
  5994  00405A  ECA6  F029         	call	_I2C1_MasterSendTxData
  5995  00405E                     
  5996                           ;mcc_generated_files/i2c1_master.c: 431:         return retFsmState;
  5997  00405E  5013               	movf	I2C1_DO_TX@retFsmState^(0+1280),w,c
  5998  004060  EF33  F020         	goto	l381
  5999  004064                     l3824:
  6000                           
  6001                           ;mcc_generated_files/i2c1_master.c: 434:     {;mcc_generated_files/i2c1_master.c: 435:  
      +                                 return I2C1_TX;
  6002  004064  0E03               	movlw	3
  6003  004066                     l381:
  6004  004066  0012               	return		;funcret
  6005  004068                     __end_of_I2C1_DO_TX:
  6006                           	callstack 0
  6007                           
  6008 ;; *************** function _I2C1_DO_SEND_ADR_WRITE *****************
  6009 ;; Defined at:
  6010 ;;		line 399 in file "mcc_generated_files/i2c1_master.c"
  6011 ;; Parameters:    Size  Location     Type
  6012 ;;		None
  6013 ;; Auto vars:     Size  Location     Type
  6014 ;;		None
  6015 ;; Return value:  Size  Location     Type
  6016 ;;                  1    wreg      enum E23252
  6017 ;; Registers used:
  6018 ;;		wreg, status,2, status,0, cstack
  6019 ;; Tracked objects:
  6020 ;;		On entry : 0/0
  6021 ;;		On exit  : 0/0
  6022 ;;		Unchanged: 0/0
  6023 ;; Data sizes:     COMRAM   BANK5   BANK6   BANK7   BANK8   BANK9  BANK10  BANK11  BANK12  BANK13  BANK14  BANK15  BANK1
      +6  BANK17  BANK18  BANK19  BANK20  BANK21  BANK22  BANK23  BANK24  BANK25  BANK26  BANK27  BANK28  BANK29  BANK30  BANK3
      +1  BANK32  BANK33  BANK34  BANK35  BANK36  BANK37  BANK38  BANK39  BANK40  BANK41  BANK42  BANK43  BANK44  BANK45  BANK4
      +6  BANK47  BANK48  BANK49  BANK50  BANK51  BANK52  BANK53  BANK54
  6024 ;;      Params:         0       0       0       0       0       0       0       0       0       0       0       0       
      +0       0       0       0       0       0       0       0       0       0       0       0       0       0       0       
      +0       0       0       0       0       0       0       0       0       0       0       0       0       0       0       
      +0       0       0       0       0       0       0       0       0
  6025 ;;      Locals:         0       0       0       0       0       0       0       0       0       0       0       0       
      +0       0       0       0       0       0       0       0       0       0       0       0       0       0       0       
      +0       0       0       0       0       0       0       0       0       0       0       0       0       0       0       
      +0       0       0       0       0       0       0       0       0
  6026 ;;      Temps:          0       0       0       0       0       0       0       0       0       0       0       0       
      +0       0       0       0       0       0       0       0       0       0       0       0       0       0       0       
      +0       0       0       0       0       0       0       0       0       0       0       0       0       0       0       
      +0       0       0       0       0       0       0       0       0
  6027 ;;      Totals:         0       0       0       0       0       0       0       0       0       0       0       0       
      +0       0       0       0       0       0       0       0       0       0       0       0       0       0       0       
      +0       0       0       0       0       0       0       0       0       0       0       0       0       0       0       
      +0       0       0       0       0       0       0       0       0
  6028 ;;Total ram usage:        0 bytes
  6029 ;; Hardware stack levels used: 1
  6030 ;; Hardware stack levels required when called: 1
  6031 ;; This function calls:
  6032 ;;		_I2C1_MasterSendTxData
  6033 ;; This function is called by:
  6034 ;;		_I2C1_MasterOperation
  6035 ;;		_I2C1_MasterFsm
  6036 ;; This function uses a non-reentrant model
  6037 ;;
  6038                           
  6039                           	psect	text45
  6040  0051DC                     __ptext45:
  6041                           	callstack 0
  6042  0051DC                     _I2C1_DO_SEND_ADR_WRITE:
  6043                           	callstack 116
  6044  0051DC                     
  6045                           ;mcc_generated_files/i2c1_master.c: 401:     I2C1_Status.addressNackCheck = 2;
  6046  0051DC  0105               	movlb	5	; () banked
  6047  0051DE  5189               	movf	(_I2C1_Status+41)& (0+255),w,b
  6048  0051E0  0BFC               	andlw	-4
  6049  0051E2  0902               	iorlw	2
  6050  0051E4  6F89               	movwf	(_I2C1_Status+41)& (0+255),b
  6051  0051E6                     
  6052                           ; BSR set to: 5
  6053                           ;mcc_generated_files/i2c1_master.c: 402:     I2C1_MasterSendTxData((uint8_t) (I2C1_Statu
      +                          s.address << 1));
  6054  0051E6  5182               	movf	(_I2C1_Status+34)& (0+255),w,b
  6055  0051E8  2582               	addwf	(_I2C1_Status+34)& (0+255),w,b
  6056  0051EA  ECA6  F029         	call	_I2C1_MasterSendTxData
  6057  0051EE                     
  6058                           ;mcc_generated_files/i2c1_master.c: 403:     return I2C1_TX;
  6059  0051EE  0E03               	movlw	3
  6060  0051F0  0012               	return		;funcret
  6061  0051F2                     __end_of_I2C1_DO_SEND_ADR_WRITE:
  6062                           	callstack 0
  6063                           
  6064 ;; *************** function _I2C1_DO_SEND_ADR_READ *****************
  6065 ;; Defined at:
  6066 ;;		line 388 in file "mcc_generated_files/i2c1_master.c"
  6067 ;; Parameters:    Size  Location     Type
  6068 ;;		None
  6069 ;; Auto vars:     Size  Location     Type
  6070 ;;		None
  6071 ;; Return value:  Size  Location     Type
  6072 ;;                  1    wreg      enum E23252
  6073 ;; Registers used:
  6074 ;;		wreg, fsr2l, fsr2h, status,2, status,0, pclath, tosl, prodl, prodh, cstack
  6075 ;; Tracked objects:
  6076 ;;		On entry : 0/0
  6077 ;;		On exit  : 0/0
  6078 ;;		Unchanged: 0/0
  6079 ;; Data sizes:     COMRAM   BANK5   BANK6   BANK7   BANK8   BANK9  BANK10  BANK11  BANK12  BANK13  BANK14  BANK15  BANK1
      +6  BANK17  BANK18  BANK19  BANK20  BANK21  BANK22  BANK23  BANK24  BANK25  BANK26  BANK27  BANK28  BANK29  BANK30  BANK3
      +1  BANK32  BANK33  BANK34  BANK35  BANK36  BANK37  BANK38  BANK39  BANK40  BANK41  BANK42  BANK43  BANK44  BANK45  BANK4
      +6  BANK47  BANK48  BANK49  BANK50  BANK51  BANK52  BANK53  BANK54
  6080 ;;      Params:         0       0       0       0       0       0       0       0       0       0       0       0       
      +0       0       0       0       0       0       0       0       0       0       0       0       0       0       0       
      +0       0       0       0       0       0       0       0       0       0       0       0       0       0       0       
      +0       0       0       0       0       0       0       0       0
  6081 ;;      Locals:         0       0       0       0       0       0       0       0       0       0       0       0       
      +0       0       0       0       0       0       0       0       0       0       0       0       0       0       0       
      +0       0       0       0       0       0       0       0       0       0       0       0       0       0       0       
      +0       0       0       0       0       0       0       0       0
  6082 ;;      Temps:          0       0       0       0       0       0       0       0       0       0       0       0       
      +0       0       0       0       0       0       0       0       0       0       0       0       0       0       0       
      +0       0       0       0       0       0       0       0       0       0       0       0       0       0       0       
      +0       0       0       0       0       0       0       0       0
  6083 ;;      Totals:         0       0       0       0       0       0       0       0       0       0       0       0       
      +0       0       0       0       0       0       0       0       0       0       0       0       0       0       0       
      +0       0       0       0       0       0       0       0       0       0       0       0       0       0       0       
      +0       0       0       0       0       0       0       0       0
  6084 ;;Total ram usage:        0 bytes
  6085 ;; Hardware stack levels used: 1
  6086 ;; Hardware stack levels required when called: 4
  6087 ;; This function calls:
  6088 ;;		_I2C1_DO_RX_EMPTY
  6089 ;;		_I2C1_MasterSendTxData
  6090 ;; This function is called by:
  6091 ;;		_I2C1_MasterOperation
  6092 ;;		_I2C1_DO_SEND_RESTART_READ
  6093 ;;		_I2C1_MasterFsm
  6094 ;; This function uses a non-reentrant model
  6095 ;;
  6096                           
  6097                           	psect	text46
  6098  004F98                     __ptext46:
  6099                           	callstack 0
  6100  004F98                     _I2C1_DO_SEND_ADR_READ:
  6101                           	callstack 111
  6102  004F98                     
  6103                           ;mcc_generated_files/i2c1_master.c: 390:     I2C1_Status.addressNackCheck = 2;
  6104  004F98  0105               	movlb	5	; () banked
  6105  004F9A  5189               	movf	(_I2C1_Status+41)& (0+255),w,b
  6106  004F9C  0BFC               	andlw	-4
  6107  004F9E  0902               	iorlw	2
  6108  004FA0  6F89               	movwf	(_I2C1_Status+41)& (0+255),b
  6109  004FA2                     
  6110                           ; BSR set to: 5
  6111                           ;mcc_generated_files/i2c1_master.c: 391:     if(I2C1_Status.data_length == 1)
  6112  004FA2  0585               	decf	(_I2C1_Status+37)& (0+255),w,b
  6113  004FA4  1186               	iorwf	(_I2C1_Status+38)& (0+255),w,b
  6114  004FA6  A4D8               	btfss	status,2,c
  6115  004FA8  EFD8  F027         	goto	u1311
  6116  004FAC  EFDA  F027         	goto	u1310
  6117  004FB0                     u1311:
  6118  004FB0  EFDC  F027         	goto	l3642
  6119  004FB4                     u1310:
  6120  004FB4                     
  6121                           ; BSR set to: 5
  6122                           ;mcc_generated_files/i2c1_master.c: 392:     {;mcc_generated_files/i2c1_master.c: 393:  
      +                                 I2C1_DO_RX_EMPTY();
  6123  004FB4  EC19  F023         	call	_I2C1_DO_RX_EMPTY	;wreg free
  6124  004FB8                     l3642:
  6125                           
  6126                           ;mcc_generated_files/i2c1_master.c: 395:     I2C1_MasterSendTxData((uint8_t) (I2C1_Statu
      +                          s.address << 1 | 1));
  6127  004FB8  80D8               	bsf	status,0,c
  6128  004FBA  0105               	movlb	5	; () banked
  6129  004FBC  3582               	rlcf	(_I2C1_Status+34)& (0+255),w,b
  6130  004FBE  ECA6  F029         	call	_I2C1_MasterSendTxData
  6131  004FC2                     
  6132                           ;mcc_generated_files/i2c1_master.c: 396:     return I2C1_RX;
  6133  004FC2  0E04               	movlw	4
  6134  004FC4  0012               	return		;funcret
  6135  004FC6                     __end_of_I2C1_DO_SEND_ADR_READ:
  6136                           	callstack 0
  6137                           
  6138 ;; *************** function _I2C1_DO_IDLE *****************
  6139 ;; Defined at:
  6140 ;;		line 381 in file "mcc_generated_files/i2c1_master.c"
  6141 ;; Parameters:    Size  Location     Type
  6142 ;;		None
  6143 ;; Auto vars:     Size  Location     Type
  6144 ;;		None
  6145 ;; Return value:  Size  Location     Type
  6146 ;;                  1    wreg      enum E23252
  6147 ;; Registers used:
  6148 ;;		wreg, status,2
  6149 ;; Tracked objects:
  6150 ;;		On entry : 0/0
  6151 ;;		On exit  : 0/0
  6152 ;;		Unchanged: 0/0
  6153 ;; Data sizes:     COMRAM   BANK5   BANK6   BANK7   BANK8   BANK9  BANK10  BANK11  BANK12  BANK13  BANK14  BANK15  BANK1
      +6  BANK17  BANK18  BANK19  BANK20  BANK21  BANK22  BANK23  BANK24  BANK25  BANK26  BANK27  BANK28  BANK29  BANK30  BANK3
      +1  BANK32  BANK33  BANK34  BANK35  BANK36  BANK37  BANK38  BANK39  BANK40  BANK41  BANK42  BANK43  BANK44  BANK45  BANK4
      +6  BANK47  BANK48  BANK49  BANK50  BANK51  BANK52  BANK53  BANK54
  6154 ;;      Params:         0       0       0       0       0       0       0       0       0       0       0       0       
      +0       0       0       0       0       0       0       0       0       0       0       0       0       0       0       
      +0       0       0       0       0       0       0       0       0       0       0       0       0       0       0       
      +0       0       0       0       0       0       0       0       0
  6155 ;;      Locals:         0       0       0       0       0       0       0       0       0       0       0       0       
      +0       0       0       0       0       0       0       0       0       0       0       0       0       0       0       
      +0       0       0       0       0       0       0       0       0       0       0       0       0       0       0       
      +0       0       0       0       0       0       0       0       0
  6156 ;;      Temps:          0       0       0       0       0       0       0       0       0       0       0       0       
      +0       0       0       0       0       0       0       0       0       0       0       0       0       0       0       
      +0       0       0       0       0       0       0       0       0       0       0       0       0       0       0       
      +0       0       0       0       0       0       0       0       0
  6157 ;;      Totals:         0       0       0       0       0       0       0       0       0       0       0       0       
      +0       0       0       0       0       0       0       0       0       0       0       0       0       0       0       
      +0       0       0       0       0       0       0       0       0       0       0       0       0       0       0       
      +0       0       0       0       0       0       0       0       0
  6158 ;;Total ram usage:        0 bytes
  6159 ;; Hardware stack levels used: 1
  6160 ;; This function calls:
  6161 ;;		Nothing
  6162 ;; This function is called by:
  6163 ;;		_I2C1_DO_RX_NACK_STOP
  6164 ;;		_I2C1_MasterFsm
  6165 ;; This function uses a non-reentrant model
  6166 ;;
  6167                           
  6168                           	psect	text47
  6169  00532A                     __ptext47:
  6170                           	callstack 0
  6171  00532A                     _I2C1_DO_IDLE:
  6172                           	callstack 116
  6173  00532A                     
  6174                           ;mcc_generated_files/i2c1_master.c: 383:     I2C1_Status.busy = 0;
  6175  00532A  0105               	movlb	5	; () banked
  6176  00532C  9589               	bcf	(_I2C1_Status+41)& (0+255),2,b
  6177  00532E                     
  6178                           ; BSR set to: 5
  6179                           ;mcc_generated_files/i2c1_master.c: 384:     I2C1_Status.error = I2C1_NOERR;
  6180  00532E  0E00               	movlw	0
  6181  005330  6F88               	movwf	(_I2C1_Status+40)& (0+255),b
  6182  005332                     
  6183                           ; BSR set to: 5
  6184                           ;mcc_generated_files/i2c1_master.c: 385:     return I2C1_RESET;
  6185  005332  0E0F               	movlw	15
  6186  005334                     
  6187                           ; BSR set to: 5
  6188  005334  0012               	return		;funcret
  6189  005336                     __end_of_I2C1_DO_IDLE:
  6190                           	callstack 0
  6191                           
  6192 ;; *************** function _I2C1_DO_TX_ACK *****************
  6193 ;; Defined at:
  6194 ;;		line 541 in file "mcc_generated_files/i2c1_master.c"
  6195 ;; Parameters:    Size  Location     Type
  6196 ;;		None
  6197 ;; Auto vars:     Size  Location     Type
  6198 ;;		None
  6199 ;; Return value:  Size  Location     Type
  6200 ;;                  1    wreg      enum E23252
  6201 ;; Registers used:
  6202 ;;		wreg, cstack
  6203 ;; Tracked objects:
  6204 ;;		On entry : 0/0
  6205 ;;		On exit  : 0/0
  6206 ;;		Unchanged: 0/0
  6207 ;; Data sizes:     COMRAM   BANK5   BANK6   BANK7   BANK8   BANK9  BANK10  BANK11  BANK12  BANK13  BANK14  BANK15  BANK1
      +6  BANK17  BANK18  BANK19  BANK20  BANK21  BANK22  BANK23  BANK24  BANK25  BANK26  BANK27  BANK28  BANK29  BANK30  BANK3
      +1  BANK32  BANK33  BANK34  BANK35  BANK36  BANK37  BANK38  BANK39  BANK40  BANK41  BANK42  BANK43  BANK44  BANK45  BANK4
      +6  BANK47  BANK48  BANK49  BANK50  BANK51  BANK52  BANK53  BANK54
  6208 ;;      Params:         0       0       0       0       0       0       0       0       0       0       0       0       
      +0       0       0       0       0       0       0       0       0       0       0       0       0       0       0       
      +0       0       0       0       0       0       0       0       0       0       0       0       0       0       0       
      +0       0       0       0       0       0       0       0       0
  6209 ;;      Locals:         0       0       0       0       0       0       0       0       0       0       0       0       
      +0       0       0       0       0       0       0       0       0       0       0       0       0       0       0       
      +0       0       0       0       0       0       0       0       0       0       0       0       0       0       0       
      +0       0       0       0       0       0       0       0       0
  6210 ;;      Temps:          0       0       0       0       0       0       0       0       0       0       0       0       
      +0       0       0       0       0       0       0       0       0       0       0       0       0       0       0       
      +0       0       0       0       0       0       0       0       0       0       0       0       0       0       0       
      +0       0       0       0       0       0       0       0       0
  6211 ;;      Totals:         0       0       0       0       0       0       0       0       0       0       0       0       
      +0       0       0       0       0       0       0       0       0       0       0       0       0       0       0       
      +0       0       0       0       0       0       0       0       0       0       0       0       0       0       0       
      +0       0       0       0       0       0       0       0       0
  6212 ;;Total ram usage:        0 bytes
  6213 ;; Hardware stack levels used: 1
  6214 ;; Hardware stack levels required when called: 1
  6215 ;; This function calls:
  6216 ;;		_I2C1_MasterSendAck
  6217 ;; This function is called by:
  6218 ;;		_I2C1_MasterFsm
  6219 ;; This function uses a non-reentrant model
  6220 ;;
  6221                           
  6222                           	psect	text48
  6223  005378                     __ptext48:
  6224                           	callstack 0
  6225  005378                     _I2C1_DO_TX_ACK:
  6226                           	callstack 116
  6227  005378                     
  6228                           ;mcc_generated_files/i2c1_master.c: 543:     I2C1_MasterSendAck();
  6229  005378  ECCD  F029         	call	_I2C1_MasterSendAck	;wreg free
  6230  00537C                     
  6231                           ;mcc_generated_files/i2c1_master.c: 544:     return I2C1_TX;
  6232  00537C  0E03               	movlw	3
  6233  00537E  0012               	return		;funcret
  6234  005380                     __end_of_I2C1_DO_TX_ACK:
  6235                           	callstack 0
  6236                           
  6237 ;; *************** function _I2C1_MasterIsTxBufEmpty *****************
  6238 ;; Defined at:
  6239 ;;		line 743 in file "mcc_generated_files/i2c1_master.c"
  6240 ;; Parameters:    Size  Location     Type
  6241 ;;		None
  6242 ;; Auto vars:     Size  Location     Type
  6243 ;;		None
  6244 ;; Return value:  Size  Location     Type
  6245 ;;                  1    wreg      _Bool 
  6246 ;; Registers used:
  6247 ;;		wreg
  6248 ;; Tracked objects:
  6249 ;;		On entry : 0/0
  6250 ;;		On exit  : 0/0
  6251 ;;		Unchanged: 0/0
  6252 ;; Data sizes:     COMRAM   BANK5   BANK6   BANK7   BANK8   BANK9  BANK10  BANK11  BANK12  BANK13  BANK14  BANK15  BANK1
      +6  BANK17  BANK18  BANK19  BANK20  BANK21  BANK22  BANK23  BANK24  BANK25  BANK26  BANK27  BANK28  BANK29  BANK30  BANK3
      +1  BANK32  BANK33  BANK34  BANK35  BANK36  BANK37  BANK38  BANK39  BANK40  BANK41  BANK42  BANK43  BANK44  BANK45  BANK4
      +6  BANK47  BANK48  BANK49  BANK50  BANK51  BANK52  BANK53  BANK54
  6253 ;;      Params:         0       0       0       0       0       0       0       0       0       0       0       0       
      +0       0       0       0       0       0       0       0       0       0       0       0       0       0       0       
      +0       0       0       0       0       0       0       0       0       0       0       0       0       0       0       
      +0       0       0       0       0       0       0       0       0
  6254 ;;      Locals:         0       0       0       0       0       0       0       0       0       0       0       0       
      +0       0       0       0       0       0       0       0       0       0       0       0       0       0       0       
      +0       0       0       0       0       0       0       0       0       0       0       0       0       0       0       
      +0       0       0       0       0       0       0       0       0
  6255 ;;      Temps:          0       0       0       0       0       0       0       0       0       0       0       0       
      +0       0       0       0       0       0       0       0       0       0       0       0       0       0       0       
      +0       0       0       0       0       0       0       0       0       0       0       0       0       0       0       
      +0       0       0       0       0       0       0       0       0
  6256 ;;      Totals:         0       0       0       0       0       0       0       0       0       0       0       0       
      +0       0       0       0       0       0       0       0       0       0       0       0       0       0       0       
      +0       0       0       0       0       0       0       0       0       0       0       0       0       0       0       
      +0       0       0       0       0       0       0       0       0
  6257 ;;Total ram usage:        0 bytes
  6258 ;; Hardware stack levels used: 1
  6259 ;; This function calls:
  6260 ;;		Nothing
  6261 ;; This function is called by:
  6262 ;;		_I2C1_DO_TX
  6263 ;; This function uses a non-reentrant model
  6264 ;;
  6265                           
  6266                           	psect	text49
  6267  0051F2                     __ptext49:
  6268                           	callstack 0
  6269  0051F2                     _I2C1_MasterIsTxBufEmpty:
  6270                           	callstack 116
  6271  0051F2                     
  6272                           ;mcc_generated_files/i2c1_master.c: 745:     return I2C1STAT1bits.TXBE;
  6273  0051F2  0102               	movlb	2	; () banked
  6274  0051F4  BB99               	btfsc	153,5,b	;volatile
  6275  0051F6  EFFF  F028         	goto	u1361
  6276  0051FA  EF02  F029         	goto	u1360
  6277  0051FE                     u1361:
  6278  0051FE  0E01               	movlw	1
  6279  005200  EF03  F029         	goto	u1366
  6280  005204                     u1360:
  6281  005204  0E00               	movlw	0
  6282  005206                     u1366:
  6283  005206                     
  6284                           ; BSR set to: 2
  6285  005206  0012               	return		;funcret
  6286  005208                     __end_of_I2C1_MasterIsTxBufEmpty:
  6287                           	callstack 0
  6288                           
  6289 ;; *************** function _I2C1_MasterIsNack *****************
  6290 ;; Defined at:
  6291 ;;		line 716 in file "mcc_generated_files/i2c1_master.c"
  6292 ;; Parameters:    Size  Location     Type
  6293 ;;		None
  6294 ;; Auto vars:     Size  Location     Type
  6295 ;;		None
  6296 ;; Return value:  Size  Location     Type
  6297 ;;                  1    wreg      _Bool 
  6298 ;; Registers used:
  6299 ;;		wreg
  6300 ;; Tracked objects:
  6301 ;;		On entry : 0/0
  6302 ;;		On exit  : 0/0
  6303 ;;		Unchanged: 0/0
  6304 ;; Data sizes:     COMRAM   BANK5   BANK6   BANK7   BANK8   BANK9  BANK10  BANK11  BANK12  BANK13  BANK14  BANK15  BANK1
      +6  BANK17  BANK18  BANK19  BANK20  BANK21  BANK22  BANK23  BANK24  BANK25  BANK26  BANK27  BANK28  BANK29  BANK30  BANK3
      +1  BANK32  BANK33  BANK34  BANK35  BANK36  BANK37  BANK38  BANK39  BANK40  BANK41  BANK42  BANK43  BANK44  BANK45  BANK4
      +6  BANK47  BANK48  BANK49  BANK50  BANK51  BANK52  BANK53  BANK54
  6305 ;;      Params:         0       0       0       0       0       0       0       0       0       0       0       0       
      +0       0       0       0       0       0       0       0       0       0       0       0       0       0       0       
      +0       0       0       0       0       0       0       0       0       0       0       0       0       0       0       
      +0       0       0       0       0       0       0       0       0
  6306 ;;      Locals:         0       0       0       0       0       0       0       0       0       0       0       0       
      +0       0       0       0       0       0       0       0       0       0       0       0       0       0       0       
      +0       0       0       0       0       0       0       0       0       0       0       0       0       0       0       
      +0       0       0       0       0       0       0       0       0
  6307 ;;      Temps:          0       0       0       0       0       0       0       0       0       0       0       0       
      +0       0       0       0       0       0       0       0       0       0       0       0       0       0       0       
      +0       0       0       0       0       0       0       0       0       0       0       0       0       0       0       
      +0       0       0       0       0       0       0       0       0
  6308 ;;      Totals:         0       0       0       0       0       0       0       0       0       0       0       0       
      +0       0       0       0       0       0       0       0       0       0       0       0       0       0       0       
      +0       0       0       0       0       0       0       0       0       0       0       0       0       0       0       
      +0       0       0       0       0       0       0       0       0
  6309 ;;Total ram usage:        0 bytes
  6310 ;; Hardware stack levels used: 1
  6311 ;; This function calls:
  6312 ;;		Nothing
  6313 ;; This function is called by:
  6314 ;;		_I2C1_MasterFsm
  6315 ;;		_I2C1_DO_TX
  6316 ;; This function uses a non-reentrant model
  6317 ;;
  6318                           
  6319                           	psect	text50
  6320  005208                     __ptext50:
  6321                           	callstack 0
  6322  005208                     _I2C1_MasterIsNack:
  6323                           	callstack 117
  6324  005208                     
  6325                           ;mcc_generated_files/i2c1_master.c: 718:     return I2C1CON1bits.ACKSTAT;
  6326  005208  0102               	movlb	2	; () banked
  6327  00520A  BB95               	btfsc	149,5,b	;volatile
  6328  00520C  EF0A  F029         	goto	u1321
  6329  005210  EF0D  F029         	goto	u1320
  6330  005214                     u1321:
  6331  005214  0E01               	movlw	1
  6332  005216  EF0E  F029         	goto	u1326
  6333  00521A                     u1320:
  6334  00521A  0E00               	movlw	0
  6335  00521C                     u1326:
  6336  00521C                     
  6337                           ; BSR set to: 2
  6338  00521C  0012               	return		;funcret
  6339  00521E                     __end_of_I2C1_MasterIsNack:
  6340                           	callstack 0
  6341                           
  6342 ;; *************** function _I2C1_MasterGetCounter *****************
  6343 ;; Defined at:
  6344 ;;		line 677 in file "mcc_generated_files/i2c1_master.c"
  6345 ;; Parameters:    Size  Location     Type
  6346 ;;		None
  6347 ;; Auto vars:     Size  Location     Type
  6348 ;;		None
  6349 ;; Return value:  Size  Location     Type
  6350 ;;                  1    wreg      unsigned char 
  6351 ;; Registers used:
  6352 ;;		wreg, status,2
  6353 ;; Tracked objects:
  6354 ;;		On entry : 0/0
  6355 ;;		On exit  : 0/0
  6356 ;;		Unchanged: 0/0
  6357 ;; Data sizes:     COMRAM   BANK5   BANK6   BANK7   BANK8   BANK9  BANK10  BANK11  BANK12  BANK13  BANK14  BANK15  BANK1
      +6  BANK17  BANK18  BANK19  BANK20  BANK21  BANK22  BANK23  BANK24  BANK25  BANK26  BANK27  BANK28  BANK29  BANK30  BANK3
      +1  BANK32  BANK33  BANK34  BANK35  BANK36  BANK37  BANK38  BANK39  BANK40  BANK41  BANK42  BANK43  BANK44  BANK45  BANK4
      +6  BANK47  BANK48  BANK49  BANK50  BANK51  BANK52  BANK53  BANK54
  6358 ;;      Params:         0       0       0       0       0       0       0       0       0       0       0       0       
      +0       0       0       0       0       0       0       0       0       0       0       0       0       0       0       
      +0       0       0       0       0       0       0       0       0       0       0       0       0       0       0       
      +0       0       0       0       0       0       0       0       0
  6359 ;;      Locals:         0       0       0       0       0       0       0       0       0       0       0       0       
      +0       0       0       0       0       0       0       0       0       0       0       0       0       0       0       
      +0       0       0       0       0       0       0       0       0       0       0       0       0       0       0       
      +0       0       0       0       0       0       0       0       0
  6360 ;;      Temps:          0       0       0       0       0       0       0       0       0       0       0       0       
      +0       0       0       0       0       0       0       0       0       0       0       0       0       0       0       
      +0       0       0       0       0       0       0       0       0       0       0       0       0       0       0       
      +0       0       0       0       0       0       0       0       0
  6361 ;;      Totals:         0       0       0       0       0       0       0       0       0       0       0       0       
      +0       0       0       0       0       0       0       0       0       0       0       0       0       0       0       
      +0       0       0       0       0       0       0       0       0       0       0       0       0       0       0       
      +0       0       0       0       0       0       0       0       0
  6362 ;;Total ram usage:        0 bytes
  6363 ;; Hardware stack levels used: 1
  6364 ;; This function calls:
  6365 ;;		Nothing
  6366 ;; This function is called by:
  6367 ;;		_I2C1_DO_SEND_STOP
  6368 ;; This function uses a non-reentrant model
  6369 ;;
  6370                           
  6371                           	psect	text51
  6372  005388                     __ptext51:
  6373                           	callstack 0
  6374  005388                     _I2C1_MasterGetCounter:
  6375                           	callstack 116
  6376  005388                     
  6377                           ;mcc_generated_files/i2c1_master.c: 679:     return I2C1CNTL;
  6378  005388  0102               	movlb	2	; () banked
  6379  00538A  518C               	movf	140,w,b	;volatile
  6380  00538C                     
  6381                           ; BSR set to: 2
  6382  00538C  0012               	return		;funcret
  6383  00538E                     __end_of_I2C1_MasterGetCounter:
  6384                           	callstack 0
  6385                           
  6386 ;; *************** function _I2C1_MasterStop *****************
  6387 ;; Defined at:
  6388 ;;		line 710 in file "mcc_generated_files/i2c1_master.c"
  6389 ;; Parameters:    Size  Location     Type
  6390 ;;		None
  6391 ;; Auto vars:     Size  Location     Type
  6392 ;;		None
  6393 ;; Return value:  Size  Location     Type
  6394 ;;                  1    wreg      void 
  6395 ;; Registers used:
  6396 ;;		None
  6397 ;; Tracked objects:
  6398 ;;		On entry : 0/0
  6399 ;;		On exit  : 0/0
  6400 ;;		Unchanged: 0/0
  6401 ;; Data sizes:     COMRAM   BANK5   BANK6   BANK7   BANK8   BANK9  BANK10  BANK11  BANK12  BANK13  BANK14  BANK15  BANK1
      +6  BANK17  BANK18  BANK19  BANK20  BANK21  BANK22  BANK23  BANK24  BANK25  BANK26  BANK27  BANK28  BANK29  BANK30  BANK3
      +1  BANK32  BANK33  BANK34  BANK35  BANK36  BANK37  BANK38  BANK39  BANK40  BANK41  BANK42  BANK43  BANK44  BANK45  BANK4
      +6  BANK47  BANK48  BANK49  BANK50  BANK51  BANK52  BANK53  BANK54
  6402 ;;      Params:         0       0       0       0       0       0       0       0       0       0       0       0       
      +0       0       0       0       0       0       0       0       0       0       0       0       0       0       0       
      +0       0       0       0       0       0       0       0       0       0       0       0       0       0       0       
      +0       0       0       0       0       0       0       0       0
  6403 ;;      Locals:         0       0       0       0       0       0       0       0       0       0       0       0       
      +0       0       0       0       0       0       0       0       0       0       0       0       0       0       0       
      +0       0       0       0       0       0       0       0       0       0       0       0       0       0       0       
      +0       0       0       0       0       0       0       0       0
  6404 ;;      Temps:          0       0       0       0       0       0       0       0       0       0       0       0       
      +0       0       0       0       0       0       0       0       0       0       0       0       0       0       0       
      +0       0       0       0       0       0       0       0       0       0       0       0       0       0       0       
      +0       0       0       0       0       0       0       0       0
  6405 ;;      Totals:         0       0       0       0       0       0       0       0       0       0       0       0       
      +0       0       0       0       0       0       0       0       0       0       0       0       0       0       0       
      +0       0       0       0       0       0       0       0       0       0       0       0       0       0       0       
      +0       0       0       0       0       0       0       0       0
  6406 ;;Total ram usage:        0 bytes
  6407 ;; Hardware stack levels used: 1
  6408 ;; This function calls:
  6409 ;;		Nothing
  6410 ;; This function is called by:
  6411 ;;		_I2C1_DO_SEND_STOP
  6412 ;;		_I2C1_DO_RX_NACK_STOP
  6413 ;; This function uses a non-reentrant model
  6414 ;;
  6415                           
  6416                           	psect	text52
  6417  00538E                     __ptext52:
  6418                           	callstack 0
  6419  00538E                     _I2C1_MasterStop:
  6420                           	callstack 116
  6421  00538E                     
  6422                           ;mcc_generated_files/i2c1_master.c: 713:     I2C1CON0bits.S = 0;
  6423  00538E  0102               	movlb	2	; () banked
  6424  005390  9B94               	bcf	148,5,b	;volatile
  6425  005392                     
  6426                           ; BSR set to: 2
  6427  005392  0012               	return		;funcret
  6428  005394                     __end_of_I2C1_MasterStop:
  6429                           	callstack 0
  6430                           
  6431 ;; *************** function _I2C1_MasterSendNack *****************
  6432 ;; Defined at:
  6433 ;;		line 726 in file "mcc_generated_files/i2c1_master.c"
  6434 ;; Parameters:    Size  Location     Type
  6435 ;;		None
  6436 ;; Auto vars:     Size  Location     Type
  6437 ;;		None
  6438 ;; Return value:  Size  Location     Type
  6439 ;;                  1    wreg      void 
  6440 ;; Registers used:
  6441 ;;		None
  6442 ;; Tracked objects:
  6443 ;;		On entry : 0/0
  6444 ;;		On exit  : 0/0
  6445 ;;		Unchanged: 0/0
  6446 ;; Data sizes:     COMRAM   BANK5   BANK6   BANK7   BANK8   BANK9  BANK10  BANK11  BANK12  BANK13  BANK14  BANK15  BANK1
      +6  BANK17  BANK18  BANK19  BANK20  BANK21  BANK22  BANK23  BANK24  BANK25  BANK26  BANK27  BANK28  BANK29  BANK30  BANK3
      +1  BANK32  BANK33  BANK34  BANK35  BANK36  BANK37  BANK38  BANK39  BANK40  BANK41  BANK42  BANK43  BANK44  BANK45  BANK4
      +6  BANK47  BANK48  BANK49  BANK50  BANK51  BANK52  BANK53  BANK54
  6447 ;;      Params:         0       0       0       0       0       0       0       0       0       0       0       0       
      +0       0       0       0       0       0       0       0       0       0       0       0       0       0       0       
      +0       0       0       0       0       0       0       0       0       0       0       0       0       0       0       
      +0       0       0       0       0       0       0       0       0
  6448 ;;      Locals:         0       0       0       0       0       0       0       0       0       0       0       0       
      +0       0       0       0       0       0       0       0       0       0       0       0       0       0       0       
      +0       0       0       0       0       0       0       0       0       0       0       0       0       0       0       
      +0       0       0       0       0       0       0       0       0
  6449 ;;      Temps:          0       0       0       0       0       0       0       0       0       0       0       0       
      +0       0       0       0       0       0       0       0       0       0       0       0       0       0       0       
      +0       0       0       0       0       0       0       0       0       0       0       0       0       0       0       
      +0       0       0       0       0       0       0       0       0
  6450 ;;      Totals:         0       0       0       0       0       0       0       0       0       0       0       0       
      +0       0       0       0       0       0       0       0       0       0       0       0       0       0       0       
      +0       0       0       0       0       0       0       0       0       0       0       0       0       0       0       
      +0       0       0       0       0       0       0       0       0
  6451 ;;Total ram usage:        0 bytes
  6452 ;; Hardware stack levels used: 1
  6453 ;; This function calls:
  6454 ;;		Nothing
  6455 ;; This function is called by:
  6456 ;;		_I2C1_DO_RX_NACK_STOP
  6457 ;;		_I2C1_DO_RX_NACK_RESTART
  6458 ;; This function uses a non-reentrant model
  6459 ;;
  6460                           
  6461                           	psect	text53
  6462  005394                     __ptext53:
  6463                           	callstack 0
  6464  005394                     _I2C1_MasterSendNack:
  6465                           	callstack 116
  6466  005394                     
  6467                           ;mcc_generated_files/i2c1_master.c: 728:     I2C1CON1bits.ACKDT = 1;
  6468  005394  0102               	movlb	2	; () banked
  6469  005396  8D95               	bsf	149,6,b	;volatile
  6470  005398                     
  6471                           ; BSR set to: 2
  6472  005398  0012               	return		;funcret
  6473  00539A                     __end_of_I2C1_MasterSendNack:
  6474                           	callstack 0
  6475                           
  6476 ;; *************** function _I2C1_MasterSendAck *****************
  6477 ;; Defined at:
  6478 ;;		line 721 in file "mcc_generated_files/i2c1_master.c"
  6479 ;; Parameters:    Size  Location     Type
  6480 ;;		None
  6481 ;; Auto vars:     Size  Location     Type
  6482 ;;		None
  6483 ;; Return value:  Size  Location     Type
  6484 ;;                  1    wreg      void 
  6485 ;; Registers used:
  6486 ;;		None
  6487 ;; Tracked objects:
  6488 ;;		On entry : 0/0
  6489 ;;		On exit  : 0/0
  6490 ;;		Unchanged: 0/0
  6491 ;; Data sizes:     COMRAM   BANK5   BANK6   BANK7   BANK8   BANK9  BANK10  BANK11  BANK12  BANK13  BANK14  BANK15  BANK1
      +6  BANK17  BANK18  BANK19  BANK20  BANK21  BANK22  BANK23  BANK24  BANK25  BANK26  BANK27  BANK28  BANK29  BANK30  BANK3
      +1  BANK32  BANK33  BANK34  BANK35  BANK36  BANK37  BANK38  BANK39  BANK40  BANK41  BANK42  BANK43  BANK44  BANK45  BANK4
      +6  BANK47  BANK48  BANK49  BANK50  BANK51  BANK52  BANK53  BANK54
  6492 ;;      Params:         0       0       0       0       0       0       0       0       0       0       0       0       
      +0       0       0       0       0       0       0       0       0       0       0       0       0       0       0       
      +0       0       0       0       0       0       0       0       0       0       0       0       0       0       0       
      +0       0       0       0       0       0       0       0       0
  6493 ;;      Locals:         0       0       0       0       0       0       0       0       0       0       0       0       
      +0       0       0       0       0       0       0       0       0       0       0       0       0       0       0       
      +0       0       0       0       0       0       0       0       0       0       0       0       0       0       0       
      +0       0       0       0       0       0       0       0       0
  6494 ;;      Temps:          0       0       0       0       0       0       0       0       0       0       0       0       
      +0       0       0       0       0       0       0       0       0       0       0       0       0       0       0       
      +0       0       0       0       0       0       0       0       0       0       0       0       0       0       0       
      +0       0       0       0       0       0       0       0       0
  6495 ;;      Totals:         0       0       0       0       0       0       0       0       0       0       0       0       
      +0       0       0       0       0       0       0       0       0       0       0       0       0       0       0       
      +0       0       0       0       0       0       0       0       0       0       0       0       0       0       0       
      +0       0       0       0       0       0       0       0       0
  6496 ;;Total ram usage:        0 bytes
  6497 ;; Hardware stack levels used: 1
  6498 ;; This function calls:
  6499 ;;		Nothing
  6500 ;; This function is called by:
  6501 ;;		_I2C1_DO_RX_ACK
  6502 ;;		_I2C1_DO_TX_ACK
  6503 ;; This function uses a non-reentrant model
  6504 ;;
  6505                           
  6506                           	psect	text54
  6507  00539A                     __ptext54:
  6508                           	callstack 0
  6509  00539A                     _I2C1_MasterSendAck:
  6510                           	callstack 116
  6511  00539A                     
  6512                           ;mcc_generated_files/i2c1_master.c: 723:     I2C1CON1bits.ACKDT = 0;
  6513  00539A  0102               	movlb	2	; () banked
  6514  00539C  9D95               	bcf	149,6,b	;volatile
  6515  00539E                     
  6516                           ; BSR set to: 2
  6517  00539E  0012               	return		;funcret
  6518  0053A0                     __end_of_I2C1_MasterSendAck:
  6519                           	callstack 0
  6520                           
  6521 ;; *************** function _I2C1_MasterIsRxBufFull *****************
  6522 ;; Defined at:
  6523 ;;		line 738 in file "mcc_generated_files/i2c1_master.c"
  6524 ;; Parameters:    Size  Location     Type
  6525 ;;		None
  6526 ;; Auto vars:     Size  Location     Type
  6527 ;;		None
  6528 ;; Return value:  Size  Location     Type
  6529 ;;                  1    wreg      _Bool 
  6530 ;; Registers used:
  6531 ;;		wreg
  6532 ;; Tracked objects:
  6533 ;;		On entry : 0/0
  6534 ;;		On exit  : 0/0
  6535 ;;		Unchanged: 0/0
  6536 ;; Data sizes:     COMRAM   BANK5   BANK6   BANK7   BANK8   BANK9  BANK10  BANK11  BANK12  BANK13  BANK14  BANK15  BANK1
      +6  BANK17  BANK18  BANK19  BANK20  BANK21  BANK22  BANK23  BANK24  BANK25  BANK26  BANK27  BANK28  BANK29  BANK30  BANK3
      +1  BANK32  BANK33  BANK34  BANK35  BANK36  BANK37  BANK38  BANK39  BANK40  BANK41  BANK42  BANK43  BANK44  BANK45  BANK4
      +6  BANK47  BANK48  BANK49  BANK50  BANK51  BANK52  BANK53  BANK54
  6537 ;;      Params:         0       0       0       0       0       0       0       0       0       0       0       0       
      +0       0       0       0       0       0       0       0       0       0       0       0       0       0       0       
      +0       0       0       0       0       0       0       0       0       0       0       0       0       0       0       
      +0       0       0       0       0       0       0       0       0
  6538 ;;      Locals:         0       0       0       0       0       0       0       0       0       0       0       0       
      +0       0       0       0       0       0       0       0       0       0       0       0       0       0       0       
      +0       0       0       0       0       0       0       0       0       0       0       0       0       0       0       
      +0       0       0       0       0       0       0       0       0
  6539 ;;      Temps:          0       0       0       0       0       0       0       0       0       0       0       0       
      +0       0       0       0       0       0       0       0       0       0       0       0       0       0       0       
      +0       0       0       0       0       0       0       0       0       0       0       0       0       0       0       
      +0       0       0       0       0       0       0       0       0
  6540 ;;      Totals:         0       0       0       0       0       0       0       0       0       0       0       0       
      +0       0       0       0       0       0       0       0       0       0       0       0       0       0       0       
      +0       0       0       0       0       0       0       0       0       0       0       0       0       0       0       
      +0       0       0       0       0       0       0       0       0
  6541 ;;Total ram usage:        0 bytes
  6542 ;; Hardware stack levels used: 1
  6543 ;; This function calls:
  6544 ;;		Nothing
  6545 ;; This function is called by:
  6546 ;;		_I2C1_DO_RX
  6547 ;; This function uses a non-reentrant model
  6548 ;;
  6549                           
  6550                           	psect	text55
  6551  00521E                     __ptext55:
  6552                           	callstack 0
  6553  00521E                     _I2C1_MasterIsRxBufFull:
  6554                           	callstack 116
  6555  00521E                     
  6556                           ;mcc_generated_files/i2c1_master.c: 740:     return I2C1STAT1bits.RXBF;
  6557  00521E  0102               	movlb	2	; () banked
  6558  005220  B199               	btfsc	153,0,b	;volatile
  6559  005222  EF15  F029         	goto	u1381
  6560  005226  EF18  F029         	goto	u1380
  6561  00522A                     u1381:
  6562  00522A  0E01               	movlw	1
  6563  00522C  EF19  F029         	goto	u1386
  6564  005230                     u1380:
  6565  005230  0E00               	movlw	0
  6566  005232                     u1386:
  6567  005232                     
  6568                           ; BSR set to: 2
  6569  005232  0012               	return		;funcret
  6570  005234                     __end_of_I2C1_MasterIsRxBufFull:
  6571                           	callstack 0
  6572                           
  6573 ;; *************** function _I2C1_MasterGetRxData *****************
  6574 ;; Defined at:
  6575 ;;		line 667 in file "mcc_generated_files/i2c1_master.c"
  6576 ;; Parameters:    Size  Location     Type
  6577 ;;		None
  6578 ;; Auto vars:     Size  Location     Type
  6579 ;;		None
  6580 ;; Return value:  Size  Location     Type
  6581 ;;                  1    wreg      unsigned char 
  6582 ;; Registers used:
  6583 ;;		wreg, status,2
  6584 ;; Tracked objects:
  6585 ;;		On entry : 0/0
  6586 ;;		On exit  : 0/0
  6587 ;;		Unchanged: 0/0
  6588 ;; Data sizes:     COMRAM   BANK5   BANK6   BANK7   BANK8   BANK9  BANK10  BANK11  BANK12  BANK13  BANK14  BANK15  BANK1
      +6  BANK17  BANK18  BANK19  BANK20  BANK21  BANK22  BANK23  BANK24  BANK25  BANK26  BANK27  BANK28  BANK29  BANK30  BANK3
      +1  BANK32  BANK33  BANK34  BANK35  BANK36  BANK37  BANK38  BANK39  BANK40  BANK41  BANK42  BANK43  BANK44  BANK45  BANK4
      +6  BANK47  BANK48  BANK49  BANK50  BANK51  BANK52  BANK53  BANK54
  6589 ;;      Params:         0       0       0       0       0       0       0       0       0       0       0       0       
      +0       0       0       0       0       0       0       0       0       0       0       0       0       0       0       
      +0       0       0       0       0       0       0       0       0       0       0       0       0       0       0       
      +0       0       0       0       0       0       0       0       0
  6590 ;;      Locals:         0       0       0       0       0       0       0       0       0       0       0       0       
      +0       0       0       0       0       0       0       0       0       0       0       0       0       0       0       
      +0       0       0       0       0       0       0       0       0       0       0       0       0       0       0       
      +0       0       0       0       0       0       0       0       0
  6591 ;;      Temps:          0       0       0       0       0       0       0       0       0       0       0       0       
      +0       0       0       0       0       0       0       0       0       0       0       0       0       0       0       
      +0       0       0       0       0       0       0       0       0       0       0       0       0       0       0       
      +0       0       0       0       0       0       0       0       0
  6592 ;;      Totals:         0       0       0       0       0       0       0       0       0       0       0       0       
      +0       0       0       0       0       0       0       0       0       0       0       0       0       0       0       
      +0       0       0       0       0       0       0       0       0       0       0       0       0       0       0       
      +0       0       0       0       0       0       0       0       0
  6593 ;;Total ram usage:        0 bytes
  6594 ;; Hardware stack levels used: 1
  6595 ;; This function calls:
  6596 ;;		Nothing
  6597 ;; This function is called by:
  6598 ;;		_I2C1_DO_RX
  6599 ;; This function uses a non-reentrant model
  6600 ;;
  6601                           
  6602                           	psect	text56
  6603  0053A0                     __ptext56:
  6604                           	callstack 0
  6605  0053A0                     _I2C1_MasterGetRxData:
  6606                           	callstack 116
  6607  0053A0                     
  6608                           ;mcc_generated_files/i2c1_master.c: 669:     return I2C1RXB;
  6609  0053A0  0102               	movlb	2	; () banked
  6610  0053A2  518A               	movf	138,w,b	;volatile
  6611  0053A4                     
  6612                           ; BSR set to: 2
  6613  0053A4  0012               	return		;funcret
  6614  0053A6                     __end_of_I2C1_MasterGetRxData:
  6615                           	callstack 0
  6616                           
  6617 ;; *************** function _I2C1_MasterSendTxData *****************
  6618 ;; Defined at:
  6619 ;;		line 672 in file "mcc_generated_files/i2c1_master.c"
  6620 ;; Parameters:    Size  Location     Type
  6621 ;;  data            1    wreg     unsigned char 
  6622 ;; Auto vars:     Size  Location     Type
  6623 ;;  data            1    0[COMRAM] unsigned char 
  6624 ;; Return value:  Size  Location     Type
  6625 ;;                  1    wreg      void 
  6626 ;; Registers used:
  6627 ;;		wreg
  6628 ;; Tracked objects:
  6629 ;;		On entry : 0/0
  6630 ;;		On exit  : 0/0
  6631 ;;		Unchanged: 0/0
  6632 ;; Data sizes:     COMRAM   BANK5   BANK6   BANK7   BANK8   BANK9  BANK10  BANK11  BANK12  BANK13  BANK14  BANK15  BANK1
      +6  BANK17  BANK18  BANK19  BANK20  BANK21  BANK22  BANK23  BANK24  BANK25  BANK26  BANK27  BANK28  BANK29  BANK30  BANK3
      +1  BANK32  BANK33  BANK34  BANK35  BANK36  BANK37  BANK38  BANK39  BANK40  BANK41  BANK42  BANK43  BANK44  BANK45  BANK4
      +6  BANK47  BANK48  BANK49  BANK50  BANK51  BANK52  BANK53  BANK54
  6633 ;;      Params:         0       0       0       0       0       0       0       0       0       0       0       0       
      +0       0       0       0       0       0       0       0       0       0       0       0       0       0       0       
      +0       0       0       0       0       0       0       0       0       0       0       0       0       0       0       
      +0       0       0       0       0       0       0       0       0
  6634 ;;      Locals:         1       0       0       0       0       0       0       0       0       0       0       0       
      +0       0       0       0       0       0       0       0       0       0       0       0       0       0       0       
      +0       0       0       0       0       0       0       0       0       0       0       0       0       0       0       
      +0       0       0       0       0       0       0       0       0
  6635 ;;      Temps:          0       0       0       0       0       0       0       0       0       0       0       0       
      +0       0       0       0       0       0       0       0       0       0       0       0       0       0       0       
      +0       0       0       0       0       0       0       0       0       0       0       0       0       0       0       
      +0       0       0       0       0       0       0       0       0
  6636 ;;      Totals:         1       0       0       0       0       0       0       0       0       0       0       0       
      +0       0       0       0       0       0       0       0       0       0       0       0       0       0       0       
      +0       0       0       0       0       0       0       0       0       0       0       0       0       0       0       
      +0       0       0       0       0       0       0       0       0
  6637 ;;Total ram usage:        1 bytes
  6638 ;; Hardware stack levels used: 1
  6639 ;; This function calls:
  6640 ;;		Nothing
  6641 ;; This function is called by:
  6642 ;;		_I2C1_DO_SEND_ADR_READ
  6643 ;;		_I2C1_DO_SEND_ADR_WRITE
  6644 ;;		_I2C1_DO_TX
  6645 ;;		_I2C1_DO_SEND_STOP
  6646 ;; This function uses a non-reentrant model
  6647 ;;
  6648                           
  6649                           	psect	text57
  6650  00534C                     __ptext57:
  6651                           	callstack 0
  6652  00534C                     _I2C1_MasterSendTxData:
  6653                           	callstack 116
  6654                           
  6655                           ; BSR set to: 2
  6656                           ;incstack = 0
  6657                           ;I2C1_MasterSendTxData@data stored from wreg
  6658  00534C  6E01               	movwf	I2C1_MasterSendTxData@data^(0+1280),c
  6659  00534E                     
  6660                           ;mcc_generated_files/i2c1_master.c: 672: static __attribute__((inline)) void I2C1_Master
      +                          SendTxData(uint8_t data);mcc_generated_files/i2c1_master.c: 673: {;mcc_generated_files/i
      +                          2c1_master.c: 674:     I2C1TXB = data;
  6661  00534E  0061  F404  F28B   	movff	I2C1_MasterSendTxData@data,651	;volatile
  6662  005354  0012               	return		;funcret
  6663  005356                     __end_of_I2C1_MasterSendTxData:
  6664                           	callstack 0
  6665                           
  6666 ;; *************** function _I2C1_MasterSetCounter *****************
  6667 ;; Defined at:
  6668 ;;		line 682 in file "mcc_generated_files/i2c1_master.c"
  6669 ;; Parameters:    Size  Location     Type
  6670 ;;  counter         1    wreg     unsigned char 
  6671 ;; Auto vars:     Size  Location     Type
  6672 ;;  counter         1    0[COMRAM] unsigned char 
  6673 ;; Return value:  Size  Location     Type
  6674 ;;                  1    wreg      void 
  6675 ;; Registers used:
  6676 ;;		wreg, status,2
  6677 ;; Tracked objects:
  6678 ;;		On entry : 0/0
  6679 ;;		On exit  : 0/0
  6680 ;;		Unchanged: 0/0
  6681 ;; Data sizes:     COMRAM   BANK5   BANK6   BANK7   BANK8   BANK9  BANK10  BANK11  BANK12  BANK13  BANK14  BANK15  BANK1
      +6  BANK17  BANK18  BANK19  BANK20  BANK21  BANK22  BANK23  BANK24  BANK25  BANK26  BANK27  BANK28  BANK29  BANK30  BANK3
      +1  BANK32  BANK33  BANK34  BANK35  BANK36  BANK37  BANK38  BANK39  BANK40  BANK41  BANK42  BANK43  BANK44  BANK45  BANK4
      +6  BANK47  BANK48  BANK49  BANK50  BANK51  BANK52  BANK53  BANK54
  6682 ;;      Params:         0       0       0       0       0       0       0       0       0       0       0       0       
      +0       0       0       0       0       0       0       0       0       0       0       0       0       0       0       
      +0       0       0       0       0       0       0       0       0       0       0       0       0       0       0       
      +0       0       0       0       0       0       0       0       0
  6683 ;;      Locals:         1       0       0       0       0       0       0       0       0       0       0       0       
      +0       0       0       0       0       0       0       0       0       0       0       0       0       0       0       
      +0       0       0       0       0       0       0       0       0       0       0       0       0       0       0       
      +0       0       0       0       0       0       0       0       0
  6684 ;;      Temps:          0       0       0       0       0       0       0       0       0       0       0       0       
      +0       0       0       0       0       0       0       0       0       0       0       0       0       0       0       
      +0       0       0       0       0       0       0       0       0       0       0       0       0       0       0       
      +0       0       0       0       0       0       0       0       0
  6685 ;;      Totals:         1       0       0       0       0       0       0       0       0       0       0       0       
      +0       0       0       0       0       0       0       0       0       0       0       0       0       0       0       
      +0       0       0       0       0       0       0       0       0       0       0       0       0       0       0       
      +0       0       0       0       0       0       0       0       0
  6686 ;;Total ram usage:        1 bytes
  6687 ;; Hardware stack levels used: 1
  6688 ;; This function calls:
  6689 ;;		Nothing
  6690 ;; This function is called by:
  6691 ;;		_I2C1_MasterOperation
  6692 ;;		_I2C1_DO_TX_EMPTY
  6693 ;;		_I2C1_DO_RX_EMPTY
  6694 ;;		_I2C1_DO_SEND_RESTART_READ
  6695 ;;		_I2C1_DO_SEND_STOP
  6696 ;; This function uses a non-reentrant model
  6697 ;;
  6698                           
  6699                           	psect	text58
  6700  0052AA                     __ptext58:
  6701                           	callstack 0
  6702  0052AA                     _I2C1_MasterSetCounter:
  6703                           	callstack 116
  6704                           
  6705                           ;incstack = 0
  6706                           ;I2C1_MasterSetCounter@counter stored from wreg
  6707  0052AA  6E01               	movwf	I2C1_MasterSetCounter@counter^(0+1280),c
  6708  0052AC                     
  6709                           ;mcc_generated_files/i2c1_master.c: 682: static __attribute__((inline)) void I2C1_Master
      +                          SetCounter(uint8_t counter);mcc_generated_files/i2c1_master.c: 683: {;mcc_generated_file
      +                          s/i2c1_master.c: 684:     I2C1CNTL = counter;
  6710  0052AC  0061  F404  F28C   	movff	I2C1_MasterSetCounter@counter,652	;volatile
  6711  0052B2                     
  6712                           ;mcc_generated_files/i2c1_master.c: 685:     I2C1CNTH = 0x00;
  6713  0052B2  0E00               	movlw	0
  6714  0052B4  0102               	movlb	2	; () banked
  6715  0052B6  6F8D               	movwf	141,b	;volatile
  6716  0052B8                     
  6717                           ; BSR set to: 2
  6718  0052B8  0012               	return		;funcret
  6719  0052BA                     __end_of_I2C1_MasterSetCounter:
  6720                           	callstack 0
  6721                           
  6722 ;; *************** function _I2C1_MasterEnableRestart *****************
  6723 ;; Defined at:
  6724 ;;		line 698 in file "mcc_generated_files/i2c1_master.c"
  6725 ;; Parameters:    Size  Location     Type
  6726 ;;		None
  6727 ;; Auto vars:     Size  Location     Type
  6728 ;;		None
  6729 ;; Return value:  Size  Location     Type
  6730 ;;                  1    wreg      void 
  6731 ;; Registers used:
  6732 ;;		None
  6733 ;; Tracked objects:
  6734 ;;		On entry : 0/0
  6735 ;;		On exit  : 0/0
  6736 ;;		Unchanged: 0/0
  6737 ;; Data sizes:     COMRAM   BANK5   BANK6   BANK7   BANK8   BANK9  BANK10  BANK11  BANK12  BANK13  BANK14  BANK15  BANK1
      +6  BANK17  BANK18  BANK19  BANK20  BANK21  BANK22  BANK23  BANK24  BANK25  BANK26  BANK27  BANK28  BANK29  BANK30  BANK3
      +1  BANK32  BANK33  BANK34  BANK35  BANK36  BANK37  BANK38  BANK39  BANK40  BANK41  BANK42  BANK43  BANK44  BANK45  BANK4
      +6  BANK47  BANK48  BANK49  BANK50  BANK51  BANK52  BANK53  BANK54
  6738 ;;      Params:         0       0       0       0       0       0       0       0       0       0       0       0       
      +0       0       0       0       0       0       0       0       0       0       0       0       0       0       0       
      +0       0       0       0       0       0       0       0       0       0       0       0       0       0       0       
      +0       0       0       0       0       0       0       0       0
  6739 ;;      Locals:         0       0       0       0       0       0       0       0       0       0       0       0       
      +0       0       0       0       0       0       0       0       0       0       0       0       0       0       0       
      +0       0       0       0       0       0       0       0       0       0       0       0       0       0       0       
      +0       0       0       0       0       0       0       0       0
  6740 ;;      Temps:          0       0       0       0       0       0       0       0       0       0       0       0       
      +0       0       0       0       0       0       0       0       0       0       0       0       0       0       0       
      +0       0       0       0       0       0       0       0       0       0       0       0       0       0       0       
      +0       0       0       0       0       0       0       0       0
  6741 ;;      Totals:         0       0       0       0       0       0       0       0       0       0       0       0       
      +0       0       0       0       0       0       0       0       0       0       0       0       0       0       0       
      +0       0       0       0       0       0       0       0       0       0       0       0       0       0       0       
      +0       0       0       0       0       0       0       0       0
  6742 ;;Total ram usage:        0 bytes
  6743 ;; Hardware stack levels used: 1
  6744 ;; This function calls:
  6745 ;;		Nothing
  6746 ;; This function is called by:
  6747 ;;		_I2C1_DO_TX_EMPTY
  6748 ;;		_I2C1_DO_RX_EMPTY
  6749 ;; This function uses a non-reentrant model
  6750 ;;
  6751                           
  6752                           	psect	text59
  6753  0053A6                     __ptext59:
  6754                           	callstack 0
  6755  0053A6                     _I2C1_MasterEnableRestart:
  6756                           	callstack 116
  6757  0053A6                     
  6758                           ;mcc_generated_files/i2c1_master.c: 701:     I2C1CON0bits.RSEN = 1;
  6759  0053A6  0102               	movlb	2	; () banked
  6760  0053A8  8D94               	bsf	148,6,b	;volatile
  6761  0053AA                     
  6762                           ; BSR set to: 2
  6763  0053AA  0012               	return		;funcret
  6764  0053AC                     __end_of_I2C1_MasterEnableRestart:
  6765                           	callstack 0
  6766                           
  6767 ;; *************** function _I2C1_MasterDisableRestart *****************
  6768 ;; Defined at:
  6769 ;;		line 704 in file "mcc_generated_files/i2c1_master.c"
  6770 ;; Parameters:    Size  Location     Type
  6771 ;;		None
  6772 ;; Auto vars:     Size  Location     Type
  6773 ;;		None
  6774 ;; Return value:  Size  Location     Type
  6775 ;;                  1    wreg      void 
  6776 ;; Registers used:
  6777 ;;		None
  6778 ;; Tracked objects:
  6779 ;;		On entry : 0/0
  6780 ;;		On exit  : 0/0
  6781 ;;		Unchanged: 0/0
  6782 ;; Data sizes:     COMRAM   BANK5   BANK6   BANK7   BANK8   BANK9  BANK10  BANK11  BANK12  BANK13  BANK14  BANK15  BANK1
      +6  BANK17  BANK18  BANK19  BANK20  BANK21  BANK22  BANK23  BANK24  BANK25  BANK26  BANK27  BANK28  BANK29  BANK30  BANK3
      +1  BANK32  BANK33  BANK34  BANK35  BANK36  BANK37  BANK38  BANK39  BANK40  BANK41  BANK42  BANK43  BANK44  BANK45  BANK4
      +6  BANK47  BANK48  BANK49  BANK50  BANK51  BANK52  BANK53  BANK54
  6783 ;;      Params:         0       0       0       0       0       0       0       0       0       0       0       0       
      +0       0       0       0       0       0       0       0       0       0       0       0       0       0       0       
      +0       0       0       0       0       0       0       0       0       0       0       0       0       0       0       
      +0       0       0       0       0       0       0       0       0
  6784 ;;      Locals:         0       0       0       0       0       0       0       0       0       0       0       0       
      +0       0       0       0       0       0       0       0       0       0       0       0       0       0       0       
      +0       0       0       0       0       0       0       0       0       0       0       0       0       0       0       
      +0       0       0       0       0       0       0       0       0
  6785 ;;      Temps:          0       0       0       0       0       0       0       0       0       0       0       0       
      +0       0       0       0       0       0       0       0       0       0       0       0       0       0       0       
      +0       0       0       0       0       0       0       0       0       0       0       0       0       0       0       
      +0       0       0       0       0       0       0       0       0
  6786 ;;      Totals:         0       0       0       0       0       0       0       0       0       0       0       0       
      +0       0       0       0       0       0       0       0       0       0       0       0       0       0       0       
      +0       0       0       0       0       0       0       0       0       0       0       0       0       0       0       
      +0       0       0       0       0       0       0       0       0
  6787 ;;Total ram usage:        0 bytes
  6788 ;; Hardware stack levels used: 1
  6789 ;; This function calls:
  6790 ;;		Nothing
  6791 ;; This function is called by:
  6792 ;;		_I2C1_DO_TX_EMPTY
  6793 ;;		_I2C1_DO_RX_EMPTY
  6794 ;; This function uses a non-reentrant model
  6795 ;;
  6796                           
  6797                           	psect	text60
  6798  0053AC                     __ptext60:
  6799                           	callstack 0
  6800  0053AC                     _I2C1_MasterDisableRestart:
  6801                           	callstack 116
  6802  0053AC                     
  6803                           ;mcc_generated_files/i2c1_master.c: 707:     I2C1CON0bits.RSEN = 0;
  6804  0053AC  0102               	movlb	2	; () banked
  6805  0053AE  9D94               	bcf	148,6,b	;volatile
  6806  0053B0                     
  6807                           ; BSR set to: 2
  6808  0053B0  0012               	return		;funcret
  6809  0053B2                     __end_of_I2C1_MasterDisableRestart:
  6810                           	callstack 0
  6811                           
  6812 ;; *************** function _I2C1_MasterResetBus *****************
  6813 ;; Defined at:
  6814 ;;		line 688 in file "mcc_generated_files/i2c1_master.c"
  6815 ;; Parameters:    Size  Location     Type
  6816 ;;		None
  6817 ;; Auto vars:     Size  Location     Type
  6818 ;;		None
  6819 ;; Return value:  Size  Location     Type
  6820 ;;                  1    wreg      void 
  6821 ;; Registers used:
  6822 ;;		None
  6823 ;; Tracked objects:
  6824 ;;		On entry : 0/0
  6825 ;;		On exit  : 0/0
  6826 ;;		Unchanged: 0/0
  6827 ;; Data sizes:     COMRAM   BANK5   BANK6   BANK7   BANK8   BANK9  BANK10  BANK11  BANK12  BANK13  BANK14  BANK15  BANK1
      +6  BANK17  BANK18  BANK19  BANK20  BANK21  BANK22  BANK23  BANK24  BANK25  BANK26  BANK27  BANK28  BANK29  BANK30  BANK3
      +1  BANK32  BANK33  BANK34  BANK35  BANK36  BANK37  BANK38  BANK39  BANK40  BANK41  BANK42  BANK43  BANK44  BANK45  BANK4
      +6  BANK47  BANK48  BANK49  BANK50  BANK51  BANK52  BANK53  BANK54
  6828 ;;      Params:         0       0       0       0       0       0       0       0       0       0       0       0       
      +0       0       0       0       0       0       0       0       0       0       0       0       0       0       0       
      +0       0       0       0       0       0       0       0       0       0       0       0       0       0       0       
      +0       0       0       0       0       0       0       0       0
  6829 ;;      Locals:         0       0       0       0       0       0       0       0       0       0       0       0       
      +0       0       0       0       0       0       0       0       0       0       0       0       0       0       0       
      +0       0       0       0       0       0       0       0       0       0       0       0       0       0       0       
      +0       0       0       0       0       0       0       0       0
  6830 ;;      Temps:          0       0       0       0       0       0       0       0       0       0       0       0       
      +0       0       0       0       0       0       0       0       0       0       0       0       0       0       0       
      +0       0       0       0       0       0       0       0       0       0       0       0       0       0       0       
      +0       0       0       0       0       0       0       0       0
  6831 ;;      Totals:         0       0       0       0       0       0       0       0       0       0       0       0       
      +0       0       0       0       0       0       0       0       0       0       0       0       0       0       0       
      +0       0       0       0       0       0       0       0       0       0       0       0       0       0       0       
      +0       0       0       0       0       0       0       0       0
  6832 ;;Total ram usage:        0 bytes
  6833 ;; Hardware stack levels used: 1
  6834 ;; This function calls:
  6835 ;;		Nothing
  6836 ;; This function is called by:
  6837 ;;		_I2C1_DO_RESET
  6838 ;;		_I2C1_DO_BUS_ERROR
  6839 ;; This function uses a non-reentrant model
  6840 ;;
  6841                           
  6842                           	psect	text61
  6843  005356                     __ptext61:
  6844                           	callstack 0
  6845  005356                     _I2C1_MasterResetBus:
  6846                           	callstack 116
  6847  005356                     
  6848                           ;mcc_generated_files/i2c1_master.c: 691:     I2C1CON0bits.EN = 0;
  6849  005356  0102               	movlb	2	; () banked
  6850  005358  9F94               	bcf	148,7,b	;volatile
  6851                           
  6852                           ;mcc_generated_files/i2c1_master.c: 693:     I2C1STAT1bits.CLRBF = 1;
  6853  00535A  8599               	bsf	153,2,b	;volatile
  6854                           
  6855                           ;mcc_generated_files/i2c1_master.c: 695:     I2C1CON0bits.EN = 1;
  6856  00535C  8F94               	bsf	148,7,b	;volatile
  6857  00535E                     
  6858                           ; BSR set to: 2
  6859  00535E  0012               	return		;funcret
  6860  005360                     __end_of_I2C1_MasterResetBus:
  6861                           	callstack 0
  6862                           
  6863 ;; *************** function _I2C1_CallbackReturnReset *****************
  6864 ;; Defined at:
  6865 ;;		line 617 in file "mcc_generated_files/i2c1_master.c"
  6866 ;; Parameters:    Size  Location     Type
  6867 ;;  funPtr          2   11[COMRAM] PTR void 
  6868 ;;		 -> I2C1_ReadDataBlock@bufferBlock(4), I2C1_Write2ByteRegister@data(2), I2C1_Write1ByteRegister@data(1), I2C1_Read2B
      +yteRegister@returnValue(2), 
  6869 ;;		 -> NULL(0), I2C1_Read1ByteRegister@returnValue(1), 
  6870 ;; Auto vars:     Size  Location     Type
  6871 ;;		None
  6872 ;; Return value:  Size  Location     Type
  6873 ;;                  1    wreg      enum E360
  6874 ;; Registers used:
  6875 ;;		wreg
  6876 ;; Tracked objects:
  6877 ;;		On entry : 0/0
  6878 ;;		On exit  : 0/0
  6879 ;;		Unchanged: 0/0
  6880 ;; Data sizes:     COMRAM   BANK5   BANK6   BANK7   BANK8   BANK9  BANK10  BANK11  BANK12  BANK13  BANK14  BANK15  BANK1
      +6  BANK17  BANK18  BANK19  BANK20  BANK21  BANK22  BANK23  BANK24  BANK25  BANK26  BANK27  BANK28  BANK29  BANK30  BANK3
      +1  BANK32  BANK33  BANK34  BANK35  BANK36  BANK37  BANK38  BANK39  BANK40  BANK41  BANK42  BANK43  BANK44  BANK45  BANK4
      +6  BANK47  BANK48  BANK49  BANK50  BANK51  BANK52  BANK53  BANK54
  6881 ;;      Params:         2       0       0       0       0       0       0       0       0       0       0       0       
      +0       0       0       0       0       0       0       0       0       0       0       0       0       0       0       
      +0       0       0       0       0       0       0       0       0       0       0       0       0       0       0       
      +0       0       0       0       0       0       0       0       0
  6882 ;;      Locals:         0       0       0       0       0       0       0       0       0       0       0       0       
      +0       0       0       0       0       0       0       0       0       0       0       0       0       0       0       
      +0       0       0       0       0       0       0       0       0       0       0       0       0       0       0       
      +0       0       0       0       0       0       0       0       0
  6883 ;;      Temps:          0       0       0       0       0       0       0       0       0       0       0       0       
      +0       0       0       0       0       0       0       0       0       0       0       0       0       0       0       
      +0       0       0       0       0       0       0       0       0       0       0       0       0       0       0       
      +0       0       0       0       0       0       0       0       0
  6884 ;;      Totals:         2       0       0       0       0       0       0       0       0       0       0       0       
      +0       0       0       0       0       0       0       0       0       0       0       0       0       0       0       
      +0       0       0       0       0       0       0       0       0       0       0       0       0       0       0       
      +0       0       0       0       0       0       0       0       0
  6885 ;;Total ram usage:        2 bytes
  6886 ;; Hardware stack levels used: 1
  6887 ;; This function calls:
  6888 ;;		Nothing
  6889 ;; This function is called by:
  6890 ;;		_I2C1_Open
  6891 ;;		_I2C1_DO_RX_EMPTY
  6892 ;;		_I2C1_DO_TX_EMPTY
  6893 ;;		_I2C1_DO_TX
  6894 ;;		_I2C1_DO_ADDRESS_NACK
  6895 ;;		_I2C1_DO_BUS_COLLISION
  6896 ;; This function uses a non-reentrant model
  6897 ;;
  6898                           
  6899                           	psect	text62
  6900  0053CC                     __ptext62:
  6901                           	callstack 0
  6902  0053CC                     _I2C1_CallbackReturnReset:
  6903                           	callstack 116
  6904  0053CC                     
  6905                           ;mcc_generated_files/i2c1_master.c: 617: i2c1_operations_t I2C1_CallbackReturnReset(void
      +                           *funPtr);mcc_generated_files/i2c1_master.c: 618: {;mcc_generated_files/i2c1_master.c: 6
      +                          19:     return I2C1_RESET_LINK;
  6906  0053CC  0E05               	movlw	5
  6907  0053CE  0012               	return		;funcret
  6908  0053D0                     __end_of_I2C1_CallbackReturnReset:
  6909                           	callstack 0
  6910                           
  6911 ;; *************** function _I2C1_CallbackReturnStop *****************
  6912 ;; Defined at:
  6913 ;;		line 612 in file "mcc_generated_files/i2c1_master.c"
  6914 ;; Parameters:    Size  Location     Type
  6915 ;;  funPtr          2   11[COMRAM] PTR void 
  6916 ;;		 -> I2C1_ReadDataBlock@bufferBlock(4), I2C1_Write2ByteRegister@data(2), I2C1_Write1ByteRegister@data(1), I2C1_Read2B
      +yteRegister@returnValue(2), 
  6917 ;;		 -> NULL(0), I2C1_Read1ByteRegister@returnValue(1), 
  6918 ;; Auto vars:     Size  Location     Type
  6919 ;;		None
  6920 ;; Return value:  Size  Location     Type
  6921 ;;                  1    wreg      enum E360
  6922 ;; Registers used:
  6923 ;;		wreg
  6924 ;; Tracked objects:
  6925 ;;		On entry : 0/0
  6926 ;;		On exit  : 0/0
  6927 ;;		Unchanged: 0/0
  6928 ;; Data sizes:     COMRAM   BANK5   BANK6   BANK7   BANK8   BANK9  BANK10  BANK11  BANK12  BANK13  BANK14  BANK15  BANK1
      +6  BANK17  BANK18  BANK19  BANK20  BANK21  BANK22  BANK23  BANK24  BANK25  BANK26  BANK27  BANK28  BANK29  BANK30  BANK3
      +1  BANK32  BANK33  BANK34  BANK35  BANK36  BANK37  BANK38  BANK39  BANK40  BANK41  BANK42  BANK43  BANK44  BANK45  BANK4
      +6  BANK47  BANK48  BANK49  BANK50  BANK51  BANK52  BANK53  BANK54
  6929 ;;      Params:         2       0       0       0       0       0       0       0       0       0       0       0       
      +0       0       0       0       0       0       0       0       0       0       0       0       0       0       0       
      +0       0       0       0       0       0       0       0       0       0       0       0       0       0       0       
      +0       0       0       0       0       0       0       0       0
  6930 ;;      Locals:         0       0       0       0       0       0       0       0       0       0       0       0       
      +0       0       0       0       0       0       0       0       0       0       0       0       0       0       0       
      +0       0       0       0       0       0       0       0       0       0       0       0       0       0       0       
      +0       0       0       0       0       0       0       0       0
  6931 ;;      Temps:          0       0       0       0       0       0       0       0       0       0       0       0       
      +0       0       0       0       0       0       0       0       0       0       0       0       0       0       0       
      +0       0       0       0       0       0       0       0       0       0       0       0       0       0       0       
      +0       0       0       0       0       0       0       0       0
  6932 ;;      Totals:         2       0       0       0       0       0       0       0       0       0       0       0       
      +0       0       0       0       0       0       0       0       0       0       0       0       0       0       0       
      +0       0       0       0       0       0       0       0       0       0       0       0       0       0       0       
      +0       0       0       0       0       0       0       0       0
  6933 ;;Total ram usage:        2 bytes
  6934 ;; Hardware stack levels used: 1
  6935 ;; This function calls:
  6936 ;;		Nothing
  6937 ;; This function is called by:
  6938 ;;		_I2C1_Open
  6939 ;;		_I2C1_SetCallback
  6940 ;;		_I2C1_DO_RX_EMPTY
  6941 ;;		_I2C1_DO_TX_EMPTY
  6942 ;;		_I2C1_DO_TX
  6943 ;;		_I2C1_DO_ADDRESS_NACK
  6944 ;;		_I2C1_DO_BUS_COLLISION
  6945 ;; This function uses a non-reentrant model
  6946 ;;
  6947                           
  6948                           	psect	text63
  6949  0053D0                     __ptext63:
  6950                           	callstack 0
  6951  0053D0                     _I2C1_CallbackReturnStop:
  6952                           	callstack 116
  6953  0053D0                     
  6954                           ;mcc_generated_files/i2c1_master.c: 612: i2c1_operations_t I2C1_CallbackReturnStop(void 
      +                          *funPtr);mcc_generated_files/i2c1_master.c: 613: {;mcc_generated_files/i2c1_master.c: 61
      +                          4:     return I2C1_STOP;
  6955  0053D0  0E01               	movlw	1
  6956  0053D2  0012               	return		;funcret
  6957  0053D4                     __end_of_I2C1_CallbackReturnStop:
  6958                           	callstack 0
  6959                           
  6960 ;; *************** function _rdBlkRegCompleteHandler *****************
  6961 ;; Defined at:
  6962 ;;		line 170 in file "mcc_generated_files/examples/i2c1_master_example.c"
  6963 ;; Parameters:    Size  Location     Type
  6964 ;;  ptr             2   11[COMRAM] PTR void 
  6965 ;;		 -> I2C1_ReadDataBlock@bufferBlock(4), I2C1_Write2ByteRegister@data(2), I2C1_Write1ByteRegister@data(1), I2C1_Read2B
      +yteRegister@returnValue(2), 
  6966 ;;		 -> NULL(0), I2C1_Read1ByteRegister@returnValue(1), 
  6967 ;; Auto vars:     Size  Location     Type
  6968 ;;		None
  6969 ;; Return value:  Size  Location     Type
  6970 ;;                  1    wreg      enum E360
  6971 ;; Registers used:
  6972 ;;		wreg, fsr2l, fsr2h, status,2, status,0, prodl, prodh, cstack
  6973 ;; Tracked objects:
  6974 ;;		On entry : 0/0
  6975 ;;		On exit  : 0/0
  6976 ;;		Unchanged: 0/0
  6977 ;; Data sizes:     COMRAM   BANK5   BANK6   BANK7   BANK8   BANK9  BANK10  BANK11  BANK12  BANK13  BANK14  BANK15  BANK1
      +6  BANK17  BANK18  BANK19  BANK20  BANK21  BANK22  BANK23  BANK24  BANK25  BANK26  BANK27  BANK28  BANK29  BANK30  BANK3
      +1  BANK32  BANK33  BANK34  BANK35  BANK36  BANK37  BANK38  BANK39  BANK40  BANK41  BANK42  BANK43  BANK44  BANK45  BANK4
      +6  BANK47  BANK48  BANK49  BANK50  BANK51  BANK52  BANK53  BANK54
  6978 ;;      Params:         2       0       0       0       0       0       0       0       0       0       0       0       
      +0       0       0       0       0       0       0       0       0       0       0       0       0       0       0       
      +0       0       0       0       0       0       0       0       0       0       0       0       0       0       0       
      +0       0       0       0       0       0       0       0       0
  6979 ;;      Locals:         0       0       0       0       0       0       0       0       0       0       0       0       
      +0       0       0       0       0       0       0       0       0       0       0       0       0       0       0       
      +0       0       0       0       0       0       0       0       0       0       0       0       0       0       0       
      +0       0       0       0       0       0       0       0       0
  6980 ;;      Temps:          0       0       0       0       0       0       0       0       0       0       0       0       
      +0       0       0       0       0       0       0       0       0       0       0       0       0       0       0       
      +0       0       0       0       0       0       0       0       0       0       0       0       0       0       0       
      +0       0       0       0       0       0       0       0       0
  6981 ;;      Totals:         2       0       0       0       0       0       0       0       0       0       0       0       
      +0       0       0       0       0       0       0       0       0       0       0       0       0       0       0       
      +0       0       0       0       0       0       0       0       0       0       0       0       0       0       0       
      +0       0       0       0       0       0       0       0       0
  6982 ;;Total ram usage:        2 bytes
  6983 ;; Hardware stack levels used: 1
  6984 ;; Hardware stack levels required when called: 2
  6985 ;; This function calls:
  6986 ;;		_I2C1_SetBuffer
  6987 ;;		_I2C1_SetDataCompleteCallback
  6988 ;; This function is called by:
  6989 ;;		_I2C1_ReadDataBlock
  6990 ;;		_I2C1_DO_RX_EMPTY
  6991 ;;		_I2C1_DO_TX_EMPTY
  6992 ;;		_I2C1_DO_TX
  6993 ;;		_I2C1_DO_ADDRESS_NACK
  6994 ;;		_I2C1_DO_BUS_COLLISION
  6995 ;; This function uses a non-reentrant model
  6996 ;;
  6997                           
  6998                           	psect	text64
  6999  004D98                     __ptext64:
  7000                           	callstack 0
  7001  004D98                     _rdBlkRegCompleteHandler:
  7002                           	callstack 114
  7003  004D98                     
  7004                           ;mcc_generated_files/examples/i2c1_master_example.c: 170: static i2c1_operations_t rdBlk
      +                          RegCompleteHandler(void *ptr);mcc_generated_files/examples/i2c1_master_example.c: 171: {
      +                          ;mcc_generated_files/examples/i2c1_master_example.c: 172:     I2C1_SetBuffer(((i2c1_buff
      +                          er_t *)ptr)->data,((i2c1_buffer_t*)ptr)->len);
  7005  004D98  EE20 F002          	lfsr	2,2
  7006  004D9C  500C               	movf	rdBlkRegCompleteHandler@ptr^(0+1280),w,c
  7007  004D9E  26D9               	addwf	fsr2l,f,c
  7008  004DA0  500D               	movf	(rdBlkRegCompleteHandler@ptr+1)^(0+1280),w,c
  7009  004DA2  22DA               	addwfc	fsr2h,f,c
  7010  004DA4  0061 F378  F501    	movff	postinc2,I2C1_SetBuffer@buffer
  7011  004DAA  0061 F374  F502    	movff	postdec2,I2C1_SetBuffer@buffer+1
  7012  004DB0  0061  F430  F4D9   	movff	rdBlkRegCompleteHandler@ptr,fsr2l
  7013  004DB6  0061  F434  F4DA   	movff	rdBlkRegCompleteHandler@ptr+1,fsr2h
  7014  004DBC  0061 F378  F503    	movff	postinc2,I2C1_SetBuffer@bufferSize
  7015  004DC2  0061 F374  F504    	movff	postdec2,I2C1_SetBuffer@bufferSize+1
  7016  004DC8  EC61  F028         	call	_I2C1_SetBuffer	;wreg free
  7017  004DCC                     
  7018                           ;mcc_generated_files/examples/i2c1_master_example.c: 173:     I2C1_SetDataCompleteCallba
      +                          ck(((void*)0),((void*)0));
  7019  004DCC  0E00               	movlw	0
  7020  004DCE  6E07               	movwf	I2C1_SetDataCompleteCallback@cb^(0+1280),c
  7021  004DD0  0E00               	movlw	0
  7022  004DD2  6E08               	movwf	(I2C1_SetDataCompleteCallback@cb+1)^(0+1280),c
  7023  004DD4  0E00               	movlw	0
  7024  004DD6  6E09               	movwf	(I2C1_SetDataCompleteCallback@cb+2)^(0+1280),c
  7025  004DD8  0E00               	movlw	0
  7026  004DDA  6E0A               	movwf	I2C1_SetDataCompleteCallback@ptr^(0+1280),c
  7027  004DDC  0E00               	movlw	0
  7028  004DDE  6E0B               	movwf	(I2C1_SetDataCompleteCallback@ptr+1)^(0+1280),c
  7029  004DE0  ECAD  F028         	call	_I2C1_SetDataCompleteCallback	;wreg free
  7030  004DE4                     
  7031                           ;mcc_generated_files/examples/i2c1_master_example.c: 174:     return I2C1_RESTART_READ;
  7032  004DE4  0E02               	movlw	2
  7033  004DE6  0012               	return		;funcret
  7034  004DE8                     __end_of_rdBlkRegCompleteHandler:
  7035                           	callstack 0
  7036                           
  7037 ;; *************** function _wr1RegCompleteHandler *****************
  7038 ;; Defined at:
  7039 ;;		line 156 in file "mcc_generated_files/examples/i2c1_master_example.c"
  7040 ;; Parameters:    Size  Location     Type
  7041 ;;  ptr             2   11[COMRAM] PTR void 
  7042 ;;		 -> I2C1_ReadDataBlock@bufferBlock(4), I2C1_Write2ByteRegister@data(2), I2C1_Write1ByteRegister@data(1), I2C1_Read2B
      +yteRegister@returnValue(2), 
  7043 ;;		 -> NULL(0), I2C1_Read1ByteRegister@returnValue(1), 
  7044 ;; Auto vars:     Size  Location     Type
  7045 ;;		None
  7046 ;; Return value:  Size  Location     Type
  7047 ;;                  1    wreg      enum E360
  7048 ;; Registers used:
  7049 ;;		wreg, fsr2l, fsr2h, status,2, status,0, prodl, prodh, cstack
  7050 ;; Tracked objects:
  7051 ;;		On entry : 0/0
  7052 ;;		On exit  : 0/0
  7053 ;;		Unchanged: 0/0
  7054 ;; Data sizes:     COMRAM   BANK5   BANK6   BANK7   BANK8   BANK9  BANK10  BANK11  BANK12  BANK13  BANK14  BANK15  BANK1
      +6  BANK17  BANK18  BANK19  BANK20  BANK21  BANK22  BANK23  BANK24  BANK25  BANK26  BANK27  BANK28  BANK29  BANK30  BANK3
      +1  BANK32  BANK33  BANK34  BANK35  BANK36  BANK37  BANK38  BANK39  BANK40  BANK41  BANK42  BANK43  BANK44  BANK45  BANK4
      +6  BANK47  BANK48  BANK49  BANK50  BANK51  BANK52  BANK53  BANK54
  7055 ;;      Params:         2       0       0       0       0       0       0       0       0       0       0       0       
      +0       0       0       0       0       0       0       0       0       0       0       0       0       0       0       
      +0       0       0       0       0       0       0       0       0       0       0       0       0       0       0       
      +0       0       0       0       0       0       0       0       0
  7056 ;;      Locals:         0       0       0       0       0       0       0       0       0       0       0       0       
      +0       0       0       0       0       0       0       0       0       0       0       0       0       0       0       
      +0       0       0       0       0       0       0       0       0       0       0       0       0       0       0       
      +0       0       0       0       0       0       0       0       0
  7057 ;;      Temps:          0       0       0       0       0       0       0       0       0       0       0       0       
      +0       0       0       0       0       0       0       0       0       0       0       0       0       0       0       
      +0       0       0       0       0       0       0       0       0       0       0       0       0       0       0       
      +0       0       0       0       0       0       0       0       0
  7058 ;;      Totals:         2       0       0       0       0       0       0       0       0       0       0       0       
      +0       0       0       0       0       0       0       0       0       0       0       0       0       0       0       
      +0       0       0       0       0       0       0       0       0       0       0       0       0       0       0       
      +0       0       0       0       0       0       0       0       0
  7059 ;;Total ram usage:        2 bytes
  7060 ;; Hardware stack levels used: 1
  7061 ;; Hardware stack levels required when called: 2
  7062 ;; This function calls:
  7063 ;;		_I2C1_SetBuffer
  7064 ;;		_I2C1_SetDataCompleteCallback
  7065 ;; This function is called by:
  7066 ;;		_I2C1_Write1ByteRegister
  7067 ;;		_I2C1_DO_RX_EMPTY
  7068 ;;		_I2C1_DO_TX_EMPTY
  7069 ;;		_I2C1_DO_TX
  7070 ;;		_I2C1_DO_ADDRESS_NACK
  7071 ;;		_I2C1_DO_BUS_COLLISION
  7072 ;; This function uses a non-reentrant model
  7073 ;;
  7074                           
  7075                           	psect	text65
  7076  004ED8                     __ptext65:
  7077                           	callstack 0
  7078  004ED8                     _wr1RegCompleteHandler:
  7079                           	callstack 114
  7080  004ED8                     
  7081                           ;mcc_generated_files/examples/i2c1_master_example.c: 156: static i2c1_operations_t wr1Re
      +                          gCompleteHandler(void *ptr);mcc_generated_files/examples/i2c1_master_example.c: 157: {;m
      +                          cc_generated_files/examples/i2c1_master_example.c: 158:     I2C1_SetBuffer(ptr,1);
  7082  004ED8  C50C  F501         	movff	wr1RegCompleteHandler@ptr,I2C1_SetBuffer@buffer
  7083  004EDC  C50D  F502         	movff	wr1RegCompleteHandler@ptr+1,I2C1_SetBuffer@buffer+1
  7084  004EE0  0E00               	movlw	0
  7085  004EE2  6E04               	movwf	(I2C1_SetBuffer@bufferSize+1)^(0+1280),c
  7086  004EE4  0E01               	movlw	1
  7087  004EE6  6E03               	movwf	I2C1_SetBuffer@bufferSize^(0+1280),c
  7088  004EE8  EC61  F028         	call	_I2C1_SetBuffer	;wreg free
  7089  004EEC                     
  7090                           ;mcc_generated_files/examples/i2c1_master_example.c: 159:     I2C1_SetDataCompleteCallba
      +                          ck(((void*)0),((void*)0));
  7091  004EEC  0E00               	movlw	0
  7092  004EEE  6E07               	movwf	I2C1_SetDataCompleteCallback@cb^(0+1280),c
  7093  004EF0  0E00               	movlw	0
  7094  004EF2  6E08               	movwf	(I2C1_SetDataCompleteCallback@cb+1)^(0+1280),c
  7095  004EF4  0E00               	movlw	0
  7096  004EF6  6E09               	movwf	(I2C1_SetDataCompleteCallback@cb+2)^(0+1280),c
  7097  004EF8  0E00               	movlw	0
  7098  004EFA  6E0A               	movwf	I2C1_SetDataCompleteCallback@ptr^(0+1280),c
  7099  004EFC  0E00               	movlw	0
  7100  004EFE  6E0B               	movwf	(I2C1_SetDataCompleteCallback@ptr+1)^(0+1280),c
  7101  004F00  ECAD  F028         	call	_I2C1_SetDataCompleteCallback	;wreg free
  7102  004F04                     
  7103                           ;mcc_generated_files/examples/i2c1_master_example.c: 160:     return I2C1_CONTINUE;
  7104  004F04  0E04               	movlw	4
  7105  004F06  0012               	return		;funcret
  7106  004F08                     __end_of_wr1RegCompleteHandler:
  7107                           	callstack 0
  7108                           
  7109 ;; *************** function _rd2RegCompleteHandler *****************
  7110 ;; Defined at:
  7111 ;;		line 149 in file "mcc_generated_files/examples/i2c1_master_example.c"
  7112 ;; Parameters:    Size  Location     Type
  7113 ;;  ptr             2   11[COMRAM] PTR void 
  7114 ;;		 -> I2C1_ReadDataBlock@bufferBlock(4), I2C1_Write2ByteRegister@data(2), I2C1_Write1ByteRegister@data(1), I2C1_Read2B
      +yteRegister@returnValue(2), 
  7115 ;;		 -> NULL(0), I2C1_Read1ByteRegister@returnValue(1), 
  7116 ;; Auto vars:     Size  Location     Type
  7117 ;;		None
  7118 ;; Return value:  Size  Location     Type
  7119 ;;                  1    wreg      enum E360
  7120 ;; Registers used:
  7121 ;;		wreg, fsr2l, fsr2h, status,2, status,0, prodl, prodh, cstack
  7122 ;; Tracked objects:
  7123 ;;		On entry : 0/0
  7124 ;;		On exit  : 0/0
  7125 ;;		Unchanged: 0/0
  7126 ;; Data sizes:     COMRAM   BANK5   BANK6   BANK7   BANK8   BANK9  BANK10  BANK11  BANK12  BANK13  BANK14  BANK15  BANK1
      +6  BANK17  BANK18  BANK19  BANK20  BANK21  BANK22  BANK23  BANK24  BANK25  BANK26  BANK27  BANK28  BANK29  BANK30  BANK3
      +1  BANK32  BANK33  BANK34  BANK35  BANK36  BANK37  BANK38  BANK39  BANK40  BANK41  BANK42  BANK43  BANK44  BANK45  BANK4
      +6  BANK47  BANK48  BANK49  BANK50  BANK51  BANK52  BANK53  BANK54
  7127 ;;      Params:         2       0       0       0       0       0       0       0       0       0       0       0       
      +0       0       0       0       0       0       0       0       0       0       0       0       0       0       0       
      +0       0       0       0       0       0       0       0       0       0       0       0       0       0       0       
      +0       0       0       0       0       0       0       0       0
  7128 ;;      Locals:         0       0       0       0       0       0       0       0       0       0       0       0       
      +0       0       0       0       0       0       0       0       0       0       0       0       0       0       0       
      +0       0       0       0       0       0       0       0       0       0       0       0       0       0       0       
      +0       0       0       0       0       0       0       0       0
  7129 ;;      Temps:          0       0       0       0       0       0       0       0       0       0       0       0       
      +0       0       0       0       0       0       0       0       0       0       0       0       0       0       0       
      +0       0       0       0       0       0       0       0       0       0       0       0       0       0       0       
      +0       0       0       0       0       0       0       0       0
  7130 ;;      Totals:         2       0       0       0       0       0       0       0       0       0       0       0       
      +0       0       0       0       0       0       0       0       0       0       0       0       0       0       0       
      +0       0       0       0       0       0       0       0       0       0       0       0       0       0       0       
      +0       0       0       0       0       0       0       0       0
  7131 ;;Total ram usage:        2 bytes
  7132 ;; Hardware stack levels used: 1
  7133 ;; Hardware stack levels required when called: 2
  7134 ;; This function calls:
  7135 ;;		_I2C1_SetBuffer
  7136 ;;		_I2C1_SetDataCompleteCallback
  7137 ;; This function is called by:
  7138 ;;		_I2C1_Read2ByteRegister
  7139 ;;		_I2C1_DO_RX_EMPTY
  7140 ;;		_I2C1_DO_TX_EMPTY
  7141 ;;		_I2C1_DO_TX
  7142 ;;		_I2C1_DO_ADDRESS_NACK
  7143 ;;		_I2C1_DO_BUS_COLLISION
  7144 ;; This function uses a non-reentrant model
  7145 ;;
  7146                           
  7147                           	psect	text66
  7148  004F08                     __ptext66:
  7149                           	callstack 0
  7150  004F08                     _rd2RegCompleteHandler:
  7151                           	callstack 114
  7152  004F08                     
  7153                           ;mcc_generated_files/examples/i2c1_master_example.c: 149: static i2c1_operations_t rd2Re
      +                          gCompleteHandler(void *ptr);mcc_generated_files/examples/i2c1_master_example.c: 150: {;m
      +                          cc_generated_files/examples/i2c1_master_example.c: 151:     I2C1_SetBuffer(ptr,2);
  7154  004F08  C50C  F501         	movff	rd2RegCompleteHandler@ptr,I2C1_SetBuffer@buffer
  7155  004F0C  C50D  F502         	movff	rd2RegCompleteHandler@ptr+1,I2C1_SetBuffer@buffer+1
  7156  004F10  0E00               	movlw	0
  7157  004F12  6E04               	movwf	(I2C1_SetBuffer@bufferSize+1)^(0+1280),c
  7158  004F14  0E02               	movlw	2
  7159  004F16  6E03               	movwf	I2C1_SetBuffer@bufferSize^(0+1280),c
  7160  004F18  EC61  F028         	call	_I2C1_SetBuffer	;wreg free
  7161  004F1C                     
  7162                           ;mcc_generated_files/examples/i2c1_master_example.c: 152:     I2C1_SetDataCompleteCallba
      +                          ck(((void*)0),((void*)0));
  7163  004F1C  0E00               	movlw	0
  7164  004F1E  6E07               	movwf	I2C1_SetDataCompleteCallback@cb^(0+1280),c
  7165  004F20  0E00               	movlw	0
  7166  004F22  6E08               	movwf	(I2C1_SetDataCompleteCallback@cb+1)^(0+1280),c
  7167  004F24  0E00               	movlw	0
  7168  004F26  6E09               	movwf	(I2C1_SetDataCompleteCallback@cb+2)^(0+1280),c
  7169  004F28  0E00               	movlw	0
  7170  004F2A  6E0A               	movwf	I2C1_SetDataCompleteCallback@ptr^(0+1280),c
  7171  004F2C  0E00               	movlw	0
  7172  004F2E  6E0B               	movwf	(I2C1_SetDataCompleteCallback@ptr+1)^(0+1280),c
  7173  004F30  ECAD  F028         	call	_I2C1_SetDataCompleteCallback	;wreg free
  7174  004F34                     
  7175                           ;mcc_generated_files/examples/i2c1_master_example.c: 153:     return I2C1_RESTART_READ;
  7176  004F34  0E02               	movlw	2
  7177  004F36  0012               	return		;funcret
  7178  004F38                     __end_of_rd2RegCompleteHandler:
  7179                           	callstack 0
  7180                           
  7181 ;; *************** function _rd1RegCompleteHandler *****************
  7182 ;; Defined at:
  7183 ;;		line 142 in file "mcc_generated_files/examples/i2c1_master_example.c"
  7184 ;; Parameters:    Size  Location     Type
  7185 ;;  ptr             2   11[COMRAM] PTR void 
  7186 ;;		 -> I2C1_ReadDataBlock@bufferBlock(4), I2C1_Write2ByteRegister@data(2), I2C1_Write1ByteRegister@data(1), I2C1_Read2B
      +yteRegister@returnValue(2), 
  7187 ;;		 -> NULL(0), I2C1_Read1ByteRegister@returnValue(1), 
  7188 ;; Auto vars:     Size  Location     Type
  7189 ;;		None
  7190 ;; Return value:  Size  Location     Type
  7191 ;;                  1    wreg      enum E360
  7192 ;; Registers used:
  7193 ;;		wreg, fsr2l, fsr2h, status,2, status,0, prodl, prodh, cstack
  7194 ;; Tracked objects:
  7195 ;;		On entry : 0/0
  7196 ;;		On exit  : 0/0
  7197 ;;		Unchanged: 0/0
  7198 ;; Data sizes:     COMRAM   BANK5   BANK6   BANK7   BANK8   BANK9  BANK10  BANK11  BANK12  BANK13  BANK14  BANK15  BANK1
      +6  BANK17  BANK18  BANK19  BANK20  BANK21  BANK22  BANK23  BANK24  BANK25  BANK26  BANK27  BANK28  BANK29  BANK30  BANK3
      +1  BANK32  BANK33  BANK34  BANK35  BANK36  BANK37  BANK38  BANK39  BANK40  BANK41  BANK42  BANK43  BANK44  BANK45  BANK4
      +6  BANK47  BANK48  BANK49  BANK50  BANK51  BANK52  BANK53  BANK54
  7199 ;;      Params:         2       0       0       0       0       0       0       0       0       0       0       0       
      +0       0       0       0       0       0       0       0       0       0       0       0       0       0       0       
      +0       0       0       0       0       0       0       0       0       0       0       0       0       0       0       
      +0       0       0       0       0       0       0       0       0
  7200 ;;      Locals:         0       0       0       0       0       0       0       0       0       0       0       0       
      +0       0       0       0       0       0       0       0       0       0       0       0       0       0       0       
      +0       0       0       0       0       0       0       0       0       0       0       0       0       0       0       
      +0       0       0       0       0       0       0       0       0
  7201 ;;      Temps:          0       0       0       0       0       0       0       0       0       0       0       0       
      +0       0       0       0       0       0       0       0       0       0       0       0       0       0       0       
      +0       0       0       0       0       0       0       0       0       0       0       0       0       0       0       
      +0       0       0       0       0       0       0       0       0
  7202 ;;      Totals:         2       0       0       0       0       0       0       0       0       0       0       0       
      +0       0       0       0       0       0       0       0       0       0       0       0       0       0       0       
      +0       0       0       0       0       0       0       0       0       0       0       0       0       0       0       
      +0       0       0       0       0       0       0       0       0
  7203 ;;Total ram usage:        2 bytes
  7204 ;; Hardware stack levels used: 1
  7205 ;; Hardware stack levels required when called: 2
  7206 ;; This function calls:
  7207 ;;		_I2C1_SetBuffer
  7208 ;;		_I2C1_SetDataCompleteCallback
  7209 ;; This function is called by:
  7210 ;;		_I2C1_Read1ByteRegister
  7211 ;;		_I2C1_DO_RX_EMPTY
  7212 ;;		_I2C1_DO_TX_EMPTY
  7213 ;;		_I2C1_DO_TX
  7214 ;;		_I2C1_DO_ADDRESS_NACK
  7215 ;;		_I2C1_DO_BUS_COLLISION
  7216 ;; This function uses a non-reentrant model
  7217 ;;
  7218                           
  7219                           	psect	text67
  7220  004F38                     __ptext67:
  7221                           	callstack 0
  7222  004F38                     _rd1RegCompleteHandler:
  7223                           	callstack 114
  7224  004F38                     
  7225                           ;mcc_generated_files/examples/i2c1_master_example.c: 142: static i2c1_operations_t rd1Re
      +                          gCompleteHandler(void *ptr);mcc_generated_files/examples/i2c1_master_example.c: 143: {;m
      +                          cc_generated_files/examples/i2c1_master_example.c: 144:     I2C1_SetBuffer(ptr,1);
  7226  004F38  C50C  F501         	movff	rd1RegCompleteHandler@ptr,I2C1_SetBuffer@buffer
  7227  004F3C  C50D  F502         	movff	rd1RegCompleteHandler@ptr+1,I2C1_SetBuffer@buffer+1
  7228  004F40  0E00               	movlw	0
  7229  004F42  6E04               	movwf	(I2C1_SetBuffer@bufferSize+1)^(0+1280),c
  7230  004F44  0E01               	movlw	1
  7231  004F46  6E03               	movwf	I2C1_SetBuffer@bufferSize^(0+1280),c
  7232  004F48  EC61  F028         	call	_I2C1_SetBuffer	;wreg free
  7233  004F4C                     
  7234                           ;mcc_generated_files/examples/i2c1_master_example.c: 145:     I2C1_SetDataCompleteCallba
      +                          ck(((void*)0),((void*)0));
  7235  004F4C  0E00               	movlw	0
  7236  004F4E  6E07               	movwf	I2C1_SetDataCompleteCallback@cb^(0+1280),c
  7237  004F50  0E00               	movlw	0
  7238  004F52  6E08               	movwf	(I2C1_SetDataCompleteCallback@cb+1)^(0+1280),c
  7239  004F54  0E00               	movlw	0
  7240  004F56  6E09               	movwf	(I2C1_SetDataCompleteCallback@cb+2)^(0+1280),c
  7241  004F58  0E00               	movlw	0
  7242  004F5A  6E0A               	movwf	I2C1_SetDataCompleteCallback@ptr^(0+1280),c
  7243  004F5C  0E00               	movlw	0
  7244  004F5E  6E0B               	movwf	(I2C1_SetDataCompleteCallback@ptr+1)^(0+1280),c
  7245  004F60  ECAD  F028         	call	_I2C1_SetDataCompleteCallback	;wreg free
  7246  004F64                     
  7247                           ;mcc_generated_files/examples/i2c1_master_example.c: 146:     return I2C1_RESTART_READ;
  7248  004F64  0E02               	movlw	2
  7249  004F66  0012               	return		;funcret
  7250  004F68                     __end_of_rd1RegCompleteHandler:
  7251                           	callstack 0
  7252                           
  7253 ;; *************** function _wr2RegCompleteHandler *****************
  7254 ;; Defined at:
  7255 ;;		line 163 in file "mcc_generated_files/examples/i2c1_master_example.c"
  7256 ;; Parameters:    Size  Location     Type
  7257 ;;  ptr             2   11[COMRAM] PTR void 
  7258 ;;		 -> I2C1_ReadDataBlock@bufferBlock(4), I2C1_Write2ByteRegister@data(2), I2C1_Write1ByteRegister@data(1), I2C1_Read2B
      +yteRegister@returnValue(2), 
  7259 ;;		 -> NULL(0), I2C1_Read1ByteRegister@returnValue(1), 
  7260 ;; Auto vars:     Size  Location     Type
  7261 ;;		None
  7262 ;; Return value:  Size  Location     Type
  7263 ;;                  1    wreg      enum E360
  7264 ;; Registers used:
  7265 ;;		wreg, fsr2l, fsr2h, status,2, status,0, prodl, prodh, cstack
  7266 ;; Tracked objects:
  7267 ;;		On entry : 0/0
  7268 ;;		On exit  : 0/0
  7269 ;;		Unchanged: 0/0
  7270 ;; Data sizes:     COMRAM   BANK5   BANK6   BANK7   BANK8   BANK9  BANK10  BANK11  BANK12  BANK13  BANK14  BANK15  BANK1
      +6  BANK17  BANK18  BANK19  BANK20  BANK21  BANK22  BANK23  BANK24  BANK25  BANK26  BANK27  BANK28  BANK29  BANK30  BANK3
      +1  BANK32  BANK33  BANK34  BANK35  BANK36  BANK37  BANK38  BANK39  BANK40  BANK41  BANK42  BANK43  BANK44  BANK45  BANK4
      +6  BANK47  BANK48  BANK49  BANK50  BANK51  BANK52  BANK53  BANK54
  7271 ;;      Params:         2       0       0       0       0       0       0       0       0       0       0       0       
      +0       0       0       0       0       0       0       0       0       0       0       0       0       0       0       
      +0       0       0       0       0       0       0       0       0       0       0       0       0       0       0       
      +0       0       0       0       0       0       0       0       0
  7272 ;;      Locals:         0       0       0       0       0       0       0       0       0       0       0       0       
      +0       0       0       0       0       0       0       0       0       0       0       0       0       0       0       
      +0       0       0       0       0       0       0       0       0       0       0       0       0       0       0       
      +0       0       0       0       0       0       0       0       0
  7273 ;;      Temps:          0       0       0       0       0       0       0       0       0       0       0       0       
      +0       0       0       0       0       0       0       0       0       0       0       0       0       0       0       
      +0       0       0       0       0       0       0       0       0       0       0       0       0       0       0       
      +0       0       0       0       0       0       0       0       0
  7274 ;;      Totals:         2       0       0       0       0       0       0       0       0       0       0       0       
      +0       0       0       0       0       0       0       0       0       0       0       0       0       0       0       
      +0       0       0       0       0       0       0       0       0       0       0       0       0       0       0       
      +0       0       0       0       0       0       0       0       0
  7275 ;;Total ram usage:        2 bytes
  7276 ;; Hardware stack levels used: 1
  7277 ;; Hardware stack levels required when called: 2
  7278 ;; This function calls:
  7279 ;;		_I2C1_SetBuffer
  7280 ;;		_I2C1_SetDataCompleteCallback
  7281 ;; This function is called by:
  7282 ;;		_I2C1_Write2ByteRegister
  7283 ;;		_I2C1_DO_RX_EMPTY
  7284 ;;		_I2C1_DO_TX_EMPTY
  7285 ;;		_I2C1_DO_TX
  7286 ;;		_I2C1_DO_ADDRESS_NACK
  7287 ;;		_I2C1_DO_BUS_COLLISION
  7288 ;; This function uses a non-reentrant model
  7289 ;;
  7290                           
  7291                           	psect	text68
  7292  004F68                     __ptext68:
  7293                           	callstack 0
  7294  004F68                     _wr2RegCompleteHandler:
  7295                           	callstack 114
  7296  004F68                     
  7297                           ;mcc_generated_files/examples/i2c1_master_example.c: 163: static i2c1_operations_t wr2Re
      +                          gCompleteHandler(void *ptr);mcc_generated_files/examples/i2c1_master_example.c: 164: {;m
      +                          cc_generated_files/examples/i2c1_master_example.c: 165:     I2C1_SetBuffer(ptr,2);
  7298  004F68  C50C  F501         	movff	wr2RegCompleteHandler@ptr,I2C1_SetBuffer@buffer
  7299  004F6C  C50D  F502         	movff	wr2RegCompleteHandler@ptr+1,I2C1_SetBuffer@buffer+1
  7300  004F70  0E00               	movlw	0
  7301  004F72  6E04               	movwf	(I2C1_SetBuffer@bufferSize+1)^(0+1280),c
  7302  004F74  0E02               	movlw	2
  7303  004F76  6E03               	movwf	I2C1_SetBuffer@bufferSize^(0+1280),c
  7304  004F78  EC61  F028         	call	_I2C1_SetBuffer	;wreg free
  7305  004F7C                     
  7306                           ;mcc_generated_files/examples/i2c1_master_example.c: 166:     I2C1_SetDataCompleteCallba
      +                          ck(((void*)0),((void*)0));
  7307  004F7C  0E00               	movlw	0
  7308  004F7E  6E07               	movwf	I2C1_SetDataCompleteCallback@cb^(0+1280),c
  7309  004F80  0E00               	movlw	0
  7310  004F82  6E08               	movwf	(I2C1_SetDataCompleteCallback@cb+1)^(0+1280),c
  7311  004F84  0E00               	movlw	0
  7312  004F86  6E09               	movwf	(I2C1_SetDataCompleteCallback@cb+2)^(0+1280),c
  7313  004F88  0E00               	movlw	0
  7314  004F8A  6E0A               	movwf	I2C1_SetDataCompleteCallback@ptr^(0+1280),c
  7315  004F8C  0E00               	movlw	0
  7316  004F8E  6E0B               	movwf	(I2C1_SetDataCompleteCallback@ptr+1)^(0+1280),c
  7317  004F90  ECAD  F028         	call	_I2C1_SetDataCompleteCallback	;wreg free
  7318  004F94                     
  7319                           ;mcc_generated_files/examples/i2c1_master_example.c: 167:     return I2C1_CONTINUE;
  7320  004F94  0E04               	movlw	4
  7321  004F96  0012               	return		;funcret
  7322  004F98                     __end_of_wr2RegCompleteHandler:
  7323                           	callstack 0
  7324                           
  7325 ;; *************** function _I2C1_SetDataCompleteCallback *****************
  7326 ;; Defined at:
  7327 ;;		line 306 in file "mcc_generated_files/i2c1_master.c"
  7328 ;; Parameters:    Size  Location     Type
  7329 ;;  cb              3    6[COMRAM] PTR FTN(PTR void ,)enum 
  7330 ;;		 -> Absolute function(1), rdBlkRegCompleteHandler(1), wr2RegCompleteHandler(1), wr1RegCompleteHandler(1), 
  7331 ;;		 -> rd2RegCompleteHandler(1), rd1RegCompleteHandler(1), 
  7332 ;;  ptr             2    9[COMRAM] PTR void 
  7333 ;;		 -> I2C1_ReadDataBlock@bufferBlock(4), I2C1_Write2ByteRegister@data(2), I2C1_Write1ByteRegister@data(1), I2C1_Read2B
      +yteRegister@returnValue(2), 
  7334 ;;		 -> NULL(0), I2C1_Read1ByteRegister@returnValue(1), 
  7335 ;; Auto vars:     Size  Location     Type
  7336 ;;		None
  7337 ;; Return value:  Size  Location     Type
  7338 ;;                  1    wreg      void 
  7339 ;; Registers used:
  7340 ;;		wreg, fsr2l, fsr2h, status,2, status,0, prodl, prodh, cstack
  7341 ;; Tracked objects:
  7342 ;;		On entry : 0/0
  7343 ;;		On exit  : 0/0
  7344 ;;		Unchanged: 0/0
  7345 ;; Data sizes:     COMRAM   BANK5   BANK6   BANK7   BANK8   BANK9  BANK10  BANK11  BANK12  BANK13  BANK14  BANK15  BANK1
      +6  BANK17  BANK18  BANK19  BANK20  BANK21  BANK22  BANK23  BANK24  BANK25  BANK26  BANK27  BANK28  BANK29  BANK30  BANK3
      +1  BANK32  BANK33  BANK34  BANK35  BANK36  BANK37  BANK38  BANK39  BANK40  BANK41  BANK42  BANK43  BANK44  BANK45  BANK4
      +6  BANK47  BANK48  BANK49  BANK50  BANK51  BANK52  BANK53  BANK54
  7346 ;;      Params:         5       0       0       0       0       0       0       0       0       0       0       0       
      +0       0       0       0       0       0       0       0       0       0       0       0       0       0       0       
      +0       0       0       0       0       0       0       0       0       0       0       0       0       0       0       
      +0       0       0       0       0       0       0       0       0
  7347 ;;      Locals:         0       0       0       0       0       0       0       0       0       0       0       0       
      +0       0       0       0       0       0       0       0       0       0       0       0       0       0       0       
      +0       0       0       0       0       0       0       0       0       0       0       0       0       0       0       
      +0       0       0       0       0       0       0       0       0
  7348 ;;      Temps:          0       0       0       0       0       0       0       0       0       0       0       0       
      +0       0       0       0       0       0       0       0       0       0       0       0       0       0       0       
      +0       0       0       0       0       0       0       0       0       0       0       0       0       0       0       
      +0       0       0       0       0       0       0       0       0
  7349 ;;      Totals:         5       0       0       0       0       0       0       0       0       0       0       0       
      +0       0       0       0       0       0       0       0       0       0       0       0       0       0       0       
      +0       0       0       0       0       0       0       0       0       0       0       0       0       0       0       
      +0       0       0       0       0       0       0       0       0
  7350 ;;Total ram usage:        5 bytes
  7351 ;; Hardware stack levels used: 1
  7352 ;; Hardware stack levels required when called: 1
  7353 ;; This function calls:
  7354 ;;		_I2C1_SetCallback
  7355 ;; This function is called by:
  7356 ;;		_I2C1_Write1ByteRegister
  7357 ;;		_rd1RegCompleteHandler
  7358 ;;		_rd2RegCompleteHandler
  7359 ;;		_wr1RegCompleteHandler
  7360 ;;		_wr2RegCompleteHandler
  7361 ;;		_rdBlkRegCompleteHandler
  7362 ;;		_I2C1_Read1ByteRegister
  7363 ;;		_I2C1_Read2ByteRegister
  7364 ;;		_I2C1_Write2ByteRegister
  7365 ;;		_I2C1_ReadDataBlock
  7366 ;; This function uses a non-reentrant model
  7367 ;;
  7368                           
  7369                           	psect	text69
  7370  00515A                     __ptext69:
  7371                           	callstack 0
  7372  00515A                     _I2C1_SetDataCompleteCallback:
  7373                           	callstack 120
  7374  00515A                     
  7375                           ;mcc_generated_files/i2c1_master.c: 306: void I2C1_SetDataCompleteCallback(i2c1_callback
      +                          _t cb, void *ptr);mcc_generated_files/i2c1_master.c: 307: {;mcc_generated_files/i2c1_mas
      +                          ter.c: 308:     I2C1_SetCallback(I2C1_DATA_COMPLETE, cb, ptr);
  7376  00515A  C507  F501         	movff	I2C1_SetDataCompleteCallback@cb,I2C1_SetCallback@cb
  7377  00515E  C508  F502         	movff	I2C1_SetDataCompleteCallback@cb+1,I2C1_SetCallback@cb+1
  7378  005162  C509  F503         	movff	I2C1_SetDataCompleteCallback@cb+2,I2C1_SetCallback@cb+2
  7379  005166  C50A  F504         	movff	I2C1_SetDataCompleteCallback@ptr,I2C1_SetCallback@ptr
  7380  00516A  C50B  F505         	movff	I2C1_SetDataCompleteCallback@ptr+1,I2C1_SetCallback@ptr+1
  7381  00516E  0E00               	movlw	0
  7382  005170  EC0A  F024         	call	_I2C1_SetCallback
  7383  005174  0012               	return		;funcret
  7384  005176                     __end_of_I2C1_SetDataCompleteCallback:
  7385                           	callstack 0
  7386                           
  7387 ;; *************** function _I2C1_SetCallback *****************
  7388 ;; Defined at:
  7389 ;;		line 331 in file "mcc_generated_files/i2c1_master.c"
  7390 ;; Parameters:    Size  Location     Type
  7391 ;;  idx             1    wreg     enum E23273
  7392 ;;  cb              3    0[COMRAM] PTR FTN(PTR void ,)enum 
  7393 ;;		 -> Absolute function(1), rdBlkRegCompleteHandler(1), wr2RegCompleteHandler(1), wr1RegCompleteHandler(1), 
  7394 ;;		 -> rd2RegCompleteHandler(1), rd1RegCompleteHandler(1), 
  7395 ;;  ptr             2    3[COMRAM] PTR void 
  7396 ;;		 -> I2C1_ReadDataBlock@bufferBlock(4), I2C1_Write2ByteRegister@data(2), I2C1_Write1ByteRegister@data(1), I2C1_Read2B
      +yteRegister@returnValue(2), 
  7397 ;;		 -> NULL(0), I2C1_Read1ByteRegister@returnValue(1), 
  7398 ;; Auto vars:     Size  Location     Type
  7399 ;;  idx             1    5[COMRAM] enum E23273
  7400 ;; Return value:  Size  Location     Type
  7401 ;;                  1    wreg      void 
  7402 ;; Registers used:
  7403 ;;		wreg, fsr2l, fsr2h, status,2, status,0, prodl, prodh
  7404 ;; Tracked objects:
  7405 ;;		On entry : 0/0
  7406 ;;		On exit  : 0/0
  7407 ;;		Unchanged: 0/0
  7408 ;; Data sizes:     COMRAM   BANK5   BANK6   BANK7   BANK8   BANK9  BANK10  BANK11  BANK12  BANK13  BANK14  BANK15  BANK1
      +6  BANK17  BANK18  BANK19  BANK20  BANK21  BANK22  BANK23  BANK24  BANK25  BANK26  BANK27  BANK28  BANK29  BANK30  BANK3
      +1  BANK32  BANK33  BANK34  BANK35  BANK36  BANK37  BANK38  BANK39  BANK40  BANK41  BANK42  BANK43  BANK44  BANK45  BANK4
      +6  BANK47  BANK48  BANK49  BANK50  BANK51  BANK52  BANK53  BANK54
  7409 ;;      Params:         5       0       0       0       0       0       0       0       0       0       0       0       
      +0       0       0       0       0       0       0       0       0       0       0       0       0       0       0       
      +0       0       0       0       0       0       0       0       0       0       0       0       0       0       0       
      +0       0       0       0       0       0       0       0       0
  7410 ;;      Locals:         1       0       0       0       0       0       0       0       0       0       0       0       
      +0       0       0       0       0       0       0       0       0       0       0       0       0       0       0       
      +0       0       0       0       0       0       0       0       0       0       0       0       0       0       0       
      +0       0       0       0       0       0       0       0       0
  7411 ;;      Temps:          0       0       0       0       0       0       0       0       0       0       0       0       
      +0       0       0       0       0       0       0       0       0       0       0       0       0       0       0       
      +0       0       0       0       0       0       0       0       0       0       0       0       0       0       0       
      +0       0       0       0       0       0       0       0       0
  7412 ;;      Totals:         6       0       0       0       0       0       0       0       0       0       0       0       
      +0       0       0       0       0       0       0       0       0       0       0       0       0       0       0       
      +0       0       0       0       0       0       0       0       0       0       0       0       0       0       0       
      +0       0       0       0       0       0       0       0       0
  7413 ;;Total ram usage:        6 bytes
  7414 ;; Hardware stack levels used: 1
  7415 ;; This function calls:
  7416 ;;		Nothing
  7417 ;; This function is called by:
  7418 ;;		_I2C1_SetDataCompleteCallback
  7419 ;;		_I2C1_SetAddressNackCallback
  7420 ;;		_I2C1_SetWriteCollisionCallback
  7421 ;;		_I2C1_SetDataNackCallback
  7422 ;;		_I2C1_SetTimeoutCallback
  7423 ;; This function uses a non-reentrant model
  7424 ;;
  7425                           
  7426                           	psect	text70
  7427  004814                     __ptext70:
  7428                           	callstack 0
  7429  004814                     _I2C1_SetCallback:
  7430                           	callstack 120
  7431                           
  7432                           ;incstack = 0
  7433                           ;I2C1_SetCallback@idx stored from wreg
  7434  004814  6E06               	movwf	I2C1_SetCallback@idx^(0+1280),c
  7435  004816                     
  7436                           ;mcc_generated_files/i2c1_master.c: 331: static void I2C1_SetCallback(i2c1_callbackIndex
      +                          _t idx, i2c1_callback_t cb, void *ptr);mcc_generated_files/i2c1_master.c: 332: {;mcc_gen
      +                          erated_files/i2c1_master.c: 333:     if(cb)
  7437  004816  5001               	movf	I2C1_SetCallback@cb^(0+1280),w,c
  7438  004818  1002               	iorwf	(I2C1_SetCallback@cb+1)^(0+1280),w,c
  7439  00481A  1003               	iorwf	(I2C1_SetCallback@cb+2)^(0+1280),w,c
  7440  00481C  B4D8               	btfsc	status,2,c
  7441  00481E  EF13  F024         	goto	u1271
  7442  004822  EF15  F024         	goto	u1270
  7443  004826                     u1271:
  7444  004826  EF36  F024         	goto	l3528
  7445  00482A                     u1270:
  7446  00482A                     
  7447                           ;mcc_generated_files/i2c1_master.c: 334:     {;mcc_generated_files/i2c1_master.c: 335:  
      +                                 I2C1_Status.callbackTable[idx] = cb;
  7448  00482A  5006               	movf	I2C1_SetCallback@idx^(0+1280),w,c
  7449  00482C  0D03               	mullw	3
  7450  00482E  0E60               	movlw	low _I2C1_Status
  7451  004830  24F3               	addwf	243,w,c
  7452  004832  6ED9               	movwf	fsr2l,c
  7453  004834  0E05               	movlw	high _I2C1_Status
  7454  004836  20F4               	addwfc	prodh,w,c
  7455  004838  6EDA               	movwf	fsr2h,c
  7456  00483A  0061  F404  F4DE   	movff	I2C1_SetCallback@cb,postinc2
  7457  004840  0061  F408  F4DE   	movff	I2C1_SetCallback@cb+1,postinc2
  7458  004846  0061  F40C  F4DE   	movff	I2C1_SetCallback@cb+2,postinc2
  7459                           
  7460                           ;mcc_generated_files/i2c1_master.c: 336:         I2C1_Status.callbackPayload[idx] = ptr;
  7461  00484C  5006               	movf	I2C1_SetCallback@idx^(0+1280),w,c
  7462  00484E  0D02               	mullw	2
  7463  004850  0E72               	movlw	low (_I2C1_Status+18)
  7464  004852  24F3               	addwf	243,w,c
  7465  004854  6ED9               	movwf	fsr2l,c
  7466  004856  0E05               	movlw	high (_I2C1_Status+18)
  7467  004858  20F4               	addwfc	prodh,w,c
  7468  00485A  6EDA               	movwf	fsr2h,c
  7469  00485C  0061  F410  F4DE   	movff	I2C1_SetCallback@ptr,postinc2
  7470  004862  0061  F414  F4DD   	movff	I2C1_SetCallback@ptr+1,postdec2
  7471                           
  7472                           ;mcc_generated_files/i2c1_master.c: 337:     }
  7473  004868  EF50  F024         	goto	l347
  7474  00486C                     l3528:
  7475                           
  7476                           ;mcc_generated_files/i2c1_master.c: 339:     {;mcc_generated_files/i2c1_master.c: 340:  
      +                                 I2C1_Status.callbackTable[idx] = I2C1_CallbackReturnStop;
  7477  00486C  5006               	movf	I2C1_SetCallback@idx^(0+1280),w,c
  7478  00486E  0D03               	mullw	3
  7479  004870  0E60               	movlw	low _I2C1_Status
  7480  004872  24F3               	addwf	243,w,c
  7481  004874  6ED9               	movwf	fsr2l,c
  7482  004876  0E05               	movlw	high _I2C1_Status
  7483  004878  20F4               	addwfc	prodh,w,c
  7484  00487A  6EDA               	movwf	fsr2h,c
  7485  00487C  0ED0               	movlw	low _I2C1_CallbackReturnStop
  7486  00487E  6EDE               	movwf	postinc2,c
  7487  004880  0E53               	movlw	high _I2C1_CallbackReturnStop
  7488  004882  6EDE               	movwf	postinc2,c
  7489  004884  0E00               	movlw	low (_I2C1_CallbackReturnStop shr (0+16))
  7490  004886  6EDE               	movwf	postinc2,c
  7491                           
  7492                           ;mcc_generated_files/i2c1_master.c: 341:         I2C1_Status.callbackPayload[idx] = ((vo
      +                          id*)0);
  7493  004888  5006               	movf	I2C1_SetCallback@idx^(0+1280),w,c
  7494  00488A  0D02               	mullw	2
  7495  00488C  0E72               	movlw	low (_I2C1_Status+18)
  7496  00488E  24F3               	addwf	243,w,c
  7497  004890  6ED9               	movwf	fsr2l,c
  7498  004892  0E05               	movlw	high (_I2C1_Status+18)
  7499  004894  20F4               	addwfc	prodh,w,c
  7500  004896  6EDA               	movwf	fsr2h,c
  7501  004898  0E00               	movlw	0
  7502  00489A  6EDE               	movwf	postinc2,c
  7503  00489C  0E00               	movlw	0
  7504  00489E  6EDD               	movwf	postdec2,c
  7505  0048A0                     l347:
  7506  0048A0  0012               	return		;funcret
  7507  0048A2                     __end_of_I2C1_SetCallback:
  7508                           	callstack 0
  7509                           
  7510 ;; *************** function _I2C1_SetBuffer *****************
  7511 ;; Defined at:
  7512 ;;		line 296 in file "mcc_generated_files/i2c1_master.c"
  7513 ;; Parameters:    Size  Location     Type
  7514 ;;  buffer          2    0[COMRAM] PTR void 
  7515 ;;		 -> I2C1_ReadDataBlock@reg(1), I2C1_ReadDataBlock@bufferBlock(4), I2C1_Write2ByteRegister@reg(1), I2C1_Write2ByteReg
      +ister@data(2), 
  7516 ;;		 -> I2C1_Write1ByteRegister@reg(1), I2C1_Write1ByteRegister@data(1), I2C1_Read2ByteRegister@reg(1), I2C1_Read2ByteRe
      +gister@returnValue(2), 
  7517 ;;		 -> NULL(0), I2C1_Read1ByteRegister@reg(1), I2C1_Read1ByteRegister@returnValue(1), 
  7518 ;;  bufferSize      2    2[COMRAM] unsigned int 
  7519 ;; Auto vars:     Size  Location     Type
  7520 ;;		None
  7521 ;; Return value:  Size  Location     Type
  7522 ;;                  1    wreg      void 
  7523 ;; Registers used:
  7524 ;;		wreg, status,2, status,0
  7525 ;; Tracked objects:
  7526 ;;		On entry : 0/0
  7527 ;;		On exit  : 0/0
  7528 ;;		Unchanged: 0/0
  7529 ;; Data sizes:     COMRAM   BANK5   BANK6   BANK7   BANK8   BANK9  BANK10  BANK11  BANK12  BANK13  BANK14  BANK15  BANK1
      +6  BANK17  BANK18  BANK19  BANK20  BANK21  BANK22  BANK23  BANK24  BANK25  BANK26  BANK27  BANK28  BANK29  BANK30  BANK3
      +1  BANK32  BANK33  BANK34  BANK35  BANK36  BANK37  BANK38  BANK39  BANK40  BANK41  BANK42  BANK43  BANK44  BANK45  BANK4
      +6  BANK47  BANK48  BANK49  BANK50  BANK51  BANK52  BANK53  BANK54
  7530 ;;      Params:         4       0       0       0       0       0       0       0       0       0       0       0       
      +0       0       0       0       0       0       0       0       0       0       0       0       0       0       0       
      +0       0       0       0       0       0       0       0       0       0       0       0       0       0       0       
      +0       0       0       0       0       0       0       0       0
  7531 ;;      Locals:         0       0       0       0       0       0       0       0       0       0       0       0       
      +0       0       0       0       0       0       0       0       0       0       0       0       0       0       0       
      +0       0       0       0       0       0       0       0       0       0       0       0       0       0       0       
      +0       0       0       0       0       0       0       0       0
  7532 ;;      Temps:          0       0       0       0       0       0       0       0       0       0       0       0       
      +0       0       0       0       0       0       0       0       0       0       0       0       0       0       0       
      +0       0       0       0       0       0       0       0       0       0       0       0       0       0       0       
      +0       0       0       0       0       0       0       0       0
  7533 ;;      Totals:         4       0       0       0       0       0       0       0       0       0       0       0       
      +0       0       0       0       0       0       0       0       0       0       0       0       0       0       0       
      +0       0       0       0       0       0       0       0       0       0       0       0       0       0       0       
      +0       0       0       0       0       0       0       0       0
  7534 ;;Total ram usage:        4 bytes
  7535 ;; Hardware stack levels used: 1
  7536 ;; This function calls:
  7537 ;;		Nothing
  7538 ;; This function is called by:
  7539 ;;		_I2C1_Write1ByteRegister
  7540 ;;		_rd1RegCompleteHandler
  7541 ;;		_rd2RegCompleteHandler
  7542 ;;		_wr1RegCompleteHandler
  7543 ;;		_wr2RegCompleteHandler
  7544 ;;		_rdBlkRegCompleteHandler
  7545 ;;		_I2C1_Read1ByteRegister
  7546 ;;		_I2C1_Read2ByteRegister
  7547 ;;		_I2C1_Write2ByteRegister
  7548 ;;		_I2C1_WriteNBytes
  7549 ;;		_I2C1_ReadNBytes
  7550 ;;		_I2C1_ReadDataBlock
  7551 ;; This function uses a non-reentrant model
  7552 ;;
  7553                           
  7554                           	psect	text71
  7555  0050C2                     __ptext71:
  7556                           	callstack 0
  7557  0050C2                     _I2C1_SetBuffer:
  7558                           	callstack 121
  7559  0050C2                     
  7560                           ;mcc_generated_files/i2c1_master.c: 296: void I2C1_SetBuffer(void *buffer, size_t buffer
      +                          Size);mcc_generated_files/i2c1_master.c: 297: {;mcc_generated_files/i2c1_master.c: 298: 
      +                              if(I2C1_Status.bufferFree)
  7561  0050C2  0105               	movlb	5	; () banked
  7562  0050C4  A989               	btfss	(_I2C1_Status+41)& (0+255),4,b
  7563  0050C6  EF67  F028         	goto	u1281
  7564  0050CA  EF69  F028         	goto	u1280
  7565  0050CE                     u1281:
  7566  0050CE  EF72  F028         	goto	l327
  7567  0050D2                     u1280:
  7568  0050D2                     
  7569                           ; BSR set to: 5
  7570                           ;mcc_generated_files/i2c1_master.c: 299:     {;mcc_generated_files/i2c1_master.c: 300:  
      +                                 I2C1_Status.data_ptr = buffer;
  7571  0050D2  C501  F583         	movff	I2C1_SetBuffer@buffer,_I2C1_Status+35
  7572  0050D6  C502  F584         	movff	I2C1_SetBuffer@buffer+1,_I2C1_Status+36
  7573  0050DA                     
  7574                           ; BSR set to: 5
  7575                           ;mcc_generated_files/i2c1_master.c: 301:         I2C1_Status.data_length = bufferSize;
  7576  0050DA  C503  F585         	movff	I2C1_SetBuffer@bufferSize,_I2C1_Status+37
  7577  0050DE  C504  F586         	movff	I2C1_SetBuffer@bufferSize+1,_I2C1_Status+38
  7578  0050E2                     
  7579                           ; BSR set to: 5
  7580                           ;mcc_generated_files/i2c1_master.c: 302:         I2C1_Status.bufferFree = 0;
  7581  0050E2  9989               	bcf	(_I2C1_Status+41)& (0+255),4,b
  7582  0050E4                     l327:
  7583                           
  7584                           ; BSR set to: 5
  7585  0050E4  0012               	return		;funcret
  7586  0050E6                     __end_of_I2C1_SetBuffer:
  7587                           	callstack 0
  7588                           
  7589 ;; *************** function _I2C1_ClearInterruptFlags *****************
  7590 ;; Defined at:
  7591 ;;		line 365 in file "mcc_generated_files/i2c1_master.c"
  7592 ;; Parameters:    Size  Location     Type
  7593 ;;		None
  7594 ;; Auto vars:     Size  Location     Type
  7595 ;;		None
  7596 ;; Return value:  Size  Location     Type
  7597 ;;                  1    wreg      void 
  7598 ;; Registers used:
  7599 ;;		wreg, status,2, cstack
  7600 ;; Tracked objects:
  7601 ;;		On entry : 0/0
  7602 ;;		On exit  : 0/0
  7603 ;;		Unchanged: 0/0
  7604 ;; Data sizes:     COMRAM   BANK5   BANK6   BANK7   BANK8   BANK9  BANK10  BANK11  BANK12  BANK13  BANK14  BANK15  BANK1
      +6  BANK17  BANK18  BANK19  BANK20  BANK21  BANK22  BANK23  BANK24  BANK25  BANK26  BANK27  BANK28  BANK29  BANK30  BANK3
      +1  BANK32  BANK33  BANK34  BANK35  BANK36  BANK37  BANK38  BANK39  BANK40  BANK41  BANK42  BANK43  BANK44  BANK45  BANK4
      +6  BANK47  BANK48  BANK49  BANK50  BANK51  BANK52  BANK53  BANK54
  7605 ;;      Params:         0       0       0       0       0       0       0       0       0       0       0       0       
      +0       0       0       0       0       0       0       0       0       0       0       0       0       0       0       
      +0       0       0       0       0       0       0       0       0       0       0       0       0       0       0       
      +0       0       0       0       0       0       0       0       0
  7606 ;;      Locals:         0       0       0       0       0       0       0       0       0       0       0       0       
      +0       0       0       0       0       0       0       0       0       0       0       0       0       0       0       
      +0       0       0       0       0       0       0       0       0       0       0       0       0       0       0       
      +0       0       0       0       0       0       0       0       0
  7607 ;;      Temps:          0       0       0       0       0       0       0       0       0       0       0       0       
      +0       0       0       0       0       0       0       0       0       0       0       0       0       0       0       
      +0       0       0       0       0       0       0       0       0       0       0       0       0       0       0       
      +0       0       0       0       0       0       0       0       0
  7608 ;;      Totals:         0       0       0       0       0       0       0       0       0       0       0       0       
      +0       0       0       0       0       0       0       0       0       0       0       0       0       0       0       
      +0       0       0       0       0       0       0       0       0       0       0       0       0       0       0       
      +0       0       0       0       0       0       0       0       0
  7609 ;;Total ram usage:        0 bytes
  7610 ;; Hardware stack levels used: 1
  7611 ;; Hardware stack levels required when called: 1
  7612 ;; This function calls:
  7613 ;;		_I2C1_MasterClearCountFlag
  7614 ;;		_I2C1_MasterClearNackFlag
  7615 ;;		_I2C1_MasterClearStopFlag
  7616 ;;		_I2C1_MasterIsCountFlagSet
  7617 ;;		_I2C1_MasterIsNackFlagSet
  7618 ;;		_I2C1_MasterIsStopFlagSet
  7619 ;; This function is called by:
  7620 ;;		_I2C1_MasterFsm
  7621 ;; This function uses a non-reentrant model
  7622 ;;
  7623                           
  7624                           	psect	text72
  7625  004D46                     __ptext72:
  7626                           	callstack 0
  7627  004D46                     _I2C1_ClearInterruptFlags:
  7628                           	callstack 116
  7629  004D46                     
  7630                           ;mcc_generated_files/i2c1_master.c: 367:     if(I2C1_MasterIsCountFlagSet())
  7631  004D46  EC30  F029         	call	_I2C1_MasterIsCountFlagSet	;wreg free
  7632  004D4A  0900               	iorlw	0
  7633  004D4C  B4D8               	btfsc	status,2,c
  7634  004D4E  EFAB  F026         	goto	u1391
  7635  004D52  EFAD  F026         	goto	u1390
  7636  004D56                     u1391:
  7637  004D56  EFB1  F026         	goto	l3770
  7638  004D5A                     u1390:
  7639  004D5A                     
  7640                           ;mcc_generated_files/i2c1_master.c: 368:     {;mcc_generated_files/i2c1_master.c: 369:  
      +                                 I2C1_MasterClearCountFlag();
  7641  004D5A  ECDF  F029         	call	_I2C1_MasterClearCountFlag	;wreg free
  7642                           
  7643                           ;mcc_generated_files/i2c1_master.c: 370:     }
  7644  004D5E  EFCB  F026         	goto	l365
  7645  004D62                     l3770:
  7646  004D62  EC1A  F029         	call	_I2C1_MasterIsStopFlagSet	;wreg free
  7647  004D66  0900               	iorlw	0
  7648  004D68  B4D8               	btfsc	status,2,c
  7649  004D6A  EFB9  F026         	goto	u1401
  7650  004D6E  EFBB  F026         	goto	u1400
  7651  004D72                     u1401:
  7652  004D72  EFBF  F026         	goto	l3774
  7653  004D76                     u1400:
  7654  004D76                     
  7655                           ;mcc_generated_files/i2c1_master.c: 372:     {;mcc_generated_files/i2c1_master.c: 373:  
      +                                 I2C1_MasterClearStopFlag();
  7656  004D76  ECD9  F029         	call	_I2C1_MasterClearStopFlag	;wreg free
  7657                           
  7658                           ;mcc_generated_files/i2c1_master.c: 374:     }
  7659  004D7A  EFCB  F026         	goto	l365
  7660  004D7E                     l3774:
  7661  004D7E  EC25  F029         	call	_I2C1_MasterIsNackFlagSet	;wreg free
  7662  004D82  0900               	iorlw	0
  7663  004D84  B4D8               	btfsc	status,2,c
  7664  004D86  EFC7  F026         	goto	u1411
  7665  004D8A  EFC9  F026         	goto	u1410
  7666  004D8E                     u1411:
  7667  004D8E  EFCB  F026         	goto	l365
  7668  004D92                     u1410:
  7669  004D92                     
  7670                           ;mcc_generated_files/i2c1_master.c: 376:     {;mcc_generated_files/i2c1_master.c: 377:  
      +                                 I2C1_MasterClearNackFlag();
  7671  004D92  ECDC  F029         	call	_I2C1_MasterClearNackFlag	;wreg free
  7672  004D96                     l365:
  7673  004D96  0012               	return		;funcret
  7674  004D98                     __end_of_I2C1_ClearInterruptFlags:
  7675                           	callstack 0
  7676                           
  7677 ;; *************** function _I2C1_MasterIsStopFlagSet *****************
  7678 ;; Defined at:
  7679 ;;		line 748 in file "mcc_generated_files/i2c1_master.c"
  7680 ;; Parameters:    Size  Location     Type
  7681 ;;		None
  7682 ;; Auto vars:     Size  Location     Type
  7683 ;;		None
  7684 ;; Return value:  Size  Location     Type
  7685 ;;                  1    wreg      _Bool 
  7686 ;; Registers used:
  7687 ;;		wreg
  7688 ;; Tracked objects:
  7689 ;;		On entry : 0/0
  7690 ;;		On exit  : 0/0
  7691 ;;		Unchanged: 0/0
  7692 ;; Data sizes:     COMRAM   BANK5   BANK6   BANK7   BANK8   BANK9  BANK10  BANK11  BANK12  BANK13  BANK14  BANK15  BANK1
      +6  BANK17  BANK18  BANK19  BANK20  BANK21  BANK22  BANK23  BANK24  BANK25  BANK26  BANK27  BANK28  BANK29  BANK30  BANK3
      +1  BANK32  BANK33  BANK34  BANK35  BANK36  BANK37  BANK38  BANK39  BANK40  BANK41  BANK42  BANK43  BANK44  BANK45  BANK4
      +6  BANK47  BANK48  BANK49  BANK50  BANK51  BANK52  BANK53  BANK54
  7693 ;;      Params:         0       0       0       0       0       0       0       0       0       0       0       0       
      +0       0       0       0       0       0       0       0       0       0       0       0       0       0       0       
      +0       0       0       0       0       0       0       0       0       0       0       0       0       0       0       
      +0       0       0       0       0       0       0       0       0
  7694 ;;      Locals:         0       0       0       0       0       0       0       0       0       0       0       0       
      +0       0       0       0       0       0       0       0       0       0       0       0       0       0       0       
      +0       0       0       0       0       0       0       0       0       0       0       0       0       0       0       
      +0       0       0       0       0       0       0       0       0
  7695 ;;      Temps:          0       0       0       0       0       0       0       0       0       0       0       0       
      +0       0       0       0       0       0       0       0       0       0       0       0       0       0       0       
      +0       0       0       0       0       0       0       0       0       0       0       0       0       0       0       
      +0       0       0       0       0       0       0       0       0
  7696 ;;      Totals:         0       0       0       0       0       0       0       0       0       0       0       0       
      +0       0       0       0       0       0       0       0       0       0       0       0       0       0       0       
      +0       0       0       0       0       0       0       0       0       0       0       0       0       0       0       
      +0       0       0       0       0       0       0       0       0
  7697 ;;Total ram usage:        0 bytes
  7698 ;; Hardware stack levels used: 1
  7699 ;; This function calls:
  7700 ;;		Nothing
  7701 ;; This function is called by:
  7702 ;;		_I2C1_ClearInterruptFlags
  7703 ;; This function uses a non-reentrant model
  7704 ;;
  7705                           
  7706                           	psect	text73
  7707  005234                     __ptext73:
  7708                           	callstack 0
  7709  005234                     _I2C1_MasterIsStopFlagSet:
  7710                           	callstack 116
  7711  005234                     
  7712                           ;mcc_generated_files/i2c1_master.c: 750:     return I2C1PIRbits.PCIF;
  7713  005234  0102               	movlb	2	; () banked
  7714  005236  B59A               	btfsc	154,2,b	;volatile
  7715  005238  EF20  F029         	goto	u1341
  7716  00523C  EF23  F029         	goto	u1340
  7717  005240                     u1341:
  7718  005240  0E01               	movlw	1
  7719  005242  EF24  F029         	goto	u1346
  7720  005246                     u1340:
  7721  005246  0E00               	movlw	0
  7722  005248                     u1346:
  7723  005248                     
  7724                           ; BSR set to: 2
  7725  005248  0012               	return		;funcret
  7726  00524A                     __end_of_I2C1_MasterIsStopFlagSet:
  7727                           	callstack 0
  7728                           
  7729 ;; *************** function _I2C1_MasterIsNackFlagSet *****************
  7730 ;; Defined at:
  7731 ;;		line 758 in file "mcc_generated_files/i2c1_master.c"
  7732 ;; Parameters:    Size  Location     Type
  7733 ;;		None
  7734 ;; Auto vars:     Size  Location     Type
  7735 ;;		None
  7736 ;; Return value:  Size  Location     Type
  7737 ;;                  1    wreg      _Bool 
  7738 ;; Registers used:
  7739 ;;		wreg
  7740 ;; Tracked objects:
  7741 ;;		On entry : 0/0
  7742 ;;		On exit  : 0/0
  7743 ;;		Unchanged: 0/0
  7744 ;; Data sizes:     COMRAM   BANK5   BANK6   BANK7   BANK8   BANK9  BANK10  BANK11  BANK12  BANK13  BANK14  BANK15  BANK1
      +6  BANK17  BANK18  BANK19  BANK20  BANK21  BANK22  BANK23  BANK24  BANK25  BANK26  BANK27  BANK28  BANK29  BANK30  BANK3
      +1  BANK32  BANK33  BANK34  BANK35  BANK36  BANK37  BANK38  BANK39  BANK40  BANK41  BANK42  BANK43  BANK44  BANK45  BANK4
      +6  BANK47  BANK48  BANK49  BANK50  BANK51  BANK52  BANK53  BANK54
  7745 ;;      Params:         0       0       0       0       0       0       0       0       0       0       0       0       
      +0       0       0       0       0       0       0       0       0       0       0       0       0       0       0       
      +0       0       0       0       0       0       0       0       0       0       0       0       0       0       0       
      +0       0       0       0       0       0       0       0       0
  7746 ;;      Locals:         0       0       0       0       0       0       0       0       0       0       0       0       
      +0       0       0       0       0       0       0       0       0       0       0       0       0       0       0       
      +0       0       0       0       0       0       0       0       0       0       0       0       0       0       0       
      +0       0       0       0       0       0       0       0       0
  7747 ;;      Temps:          0       0       0       0       0       0       0       0       0       0       0       0       
      +0       0       0       0       0       0       0       0       0       0       0       0       0       0       0       
      +0       0       0       0       0       0       0       0       0       0       0       0       0       0       0       
      +0       0       0       0       0       0       0       0       0
  7748 ;;      Totals:         0       0       0       0       0       0       0       0       0       0       0       0       
      +0       0       0       0       0       0       0       0       0       0       0       0       0       0       0       
      +0       0       0       0       0       0       0       0       0       0       0       0       0       0       0       
      +0       0       0       0       0       0       0       0       0
  7749 ;;Total ram usage:        0 bytes
  7750 ;; Hardware stack levels used: 1
  7751 ;; This function calls:
  7752 ;;		Nothing
  7753 ;; This function is called by:
  7754 ;;		_I2C1_ClearInterruptFlags
  7755 ;; This function uses a non-reentrant model
  7756 ;;
  7757                           
  7758                           	psect	text74
  7759  00524A                     __ptext74:
  7760                           	callstack 0
  7761  00524A                     _I2C1_MasterIsNackFlagSet:
  7762                           	callstack 116
  7763  00524A                     
  7764                           ;mcc_generated_files/i2c1_master.c: 760:     return I2C1ERRbits.NACKIF;
  7765  00524A  0102               	movlb	2	; () banked
  7766  00524C  B997               	btfsc	151,4,b	;volatile
  7767  00524E  EF2B  F029         	goto	u1351
  7768  005252  EF2E  F029         	goto	u1350
  7769  005256                     u1351:
  7770  005256  0E01               	movlw	1
  7771  005258  EF2F  F029         	goto	u1356
  7772  00525C                     u1350:
  7773  00525C  0E00               	movlw	0
  7774  00525E                     u1356:
  7775  00525E                     
  7776                           ; BSR set to: 2
  7777  00525E  0012               	return		;funcret
  7778  005260                     __end_of_I2C1_MasterIsNackFlagSet:
  7779                           	callstack 0
  7780                           
  7781 ;; *************** function _I2C1_MasterIsCountFlagSet *****************
  7782 ;; Defined at:
  7783 ;;		line 753 in file "mcc_generated_files/i2c1_master.c"
  7784 ;; Parameters:    Size  Location     Type
  7785 ;;		None
  7786 ;; Auto vars:     Size  Location     Type
  7787 ;;		None
  7788 ;; Return value:  Size  Location     Type
  7789 ;;                  1    wreg      _Bool 
  7790 ;; Registers used:
  7791 ;;		wreg
  7792 ;; Tracked objects:
  7793 ;;		On entry : 0/0
  7794 ;;		On exit  : 0/0
  7795 ;;		Unchanged: 0/0
  7796 ;; Data sizes:     COMRAM   BANK5   BANK6   BANK7   BANK8   BANK9  BANK10  BANK11  BANK12  BANK13  BANK14  BANK15  BANK1
      +6  BANK17  BANK18  BANK19  BANK20  BANK21  BANK22  BANK23  BANK24  BANK25  BANK26  BANK27  BANK28  BANK29  BANK30  BANK3
      +1  BANK32  BANK33  BANK34  BANK35  BANK36  BANK37  BANK38  BANK39  BANK40  BANK41  BANK42  BANK43  BANK44  BANK45  BANK4
      +6  BANK47  BANK48  BANK49  BANK50  BANK51  BANK52  BANK53  BANK54
  7797 ;;      Params:         0       0       0       0       0       0       0       0       0       0       0       0       
      +0       0       0       0       0       0       0       0       0       0       0       0       0       0       0       
      +0       0       0       0       0       0       0       0       0       0       0       0       0       0       0       
      +0       0       0       0       0       0       0       0       0
  7798 ;;      Locals:         0       0       0       0       0       0       0       0       0       0       0       0       
      +0       0       0       0       0       0       0       0       0       0       0       0       0       0       0       
      +0       0       0       0       0       0       0       0       0       0       0       0       0       0       0       
      +0       0       0       0       0       0       0       0       0
  7799 ;;      Temps:          0       0       0       0       0       0       0       0       0       0       0       0       
      +0       0       0       0       0       0       0       0       0       0       0       0       0       0       0       
      +0       0       0       0       0       0       0       0       0       0       0       0       0       0       0       
      +0       0       0       0       0       0       0       0       0
  7800 ;;      Totals:         0       0       0       0       0       0       0       0       0       0       0       0       
      +0       0       0       0       0       0       0       0       0       0       0       0       0       0       0       
      +0       0       0       0       0       0       0       0       0       0       0       0       0       0       0       
      +0       0       0       0       0       0       0       0       0
  7801 ;;Total ram usage:        0 bytes
  7802 ;; Hardware stack levels used: 1
  7803 ;; This function calls:
  7804 ;;		Nothing
  7805 ;; This function is called by:
  7806 ;;		_I2C1_ClearInterruptFlags
  7807 ;; This function uses a non-reentrant model
  7808 ;;
  7809                           
  7810                           	psect	text75
  7811  005260                     __ptext75:
  7812                           	callstack 0
  7813  005260                     _I2C1_MasterIsCountFlagSet:
  7814                           	callstack 116
  7815  005260                     
  7816                           ;mcc_generated_files/i2c1_master.c: 755:     return I2C1PIRbits.CNTIF;
  7817  005260  0102               	movlb	2	; () banked
  7818  005262  BF9A               	btfsc	154,7,b	;volatile
  7819  005264  EF36  F029         	goto	u1331
  7820  005268  EF39  F029         	goto	u1330
  7821  00526C                     u1331:
  7822  00526C  0E01               	movlw	1
  7823  00526E  EF3A  F029         	goto	u1336
  7824  005272                     u1330:
  7825  005272  0E00               	movlw	0
  7826  005274                     u1336:
  7827  005274                     
  7828                           ; BSR set to: 2
  7829  005274  0012               	return		;funcret
  7830  005276                     __end_of_I2C1_MasterIsCountFlagSet:
  7831                           	callstack 0
  7832                           
  7833 ;; *************** function _I2C1_MasterClearStopFlag *****************
  7834 ;; Defined at:
  7835 ;;		line 763 in file "mcc_generated_files/i2c1_master.c"
  7836 ;; Parameters:    Size  Location     Type
  7837 ;;		None
  7838 ;; Auto vars:     Size  Location     Type
  7839 ;;		None
  7840 ;; Return value:  Size  Location     Type
  7841 ;;                  1    wreg      void 
  7842 ;; Registers used:
  7843 ;;		None
  7844 ;; Tracked objects:
  7845 ;;		On entry : 0/0
  7846 ;;		On exit  : 0/0
  7847 ;;		Unchanged: 0/0
  7848 ;; Data sizes:     COMRAM   BANK5   BANK6   BANK7   BANK8   BANK9  BANK10  BANK11  BANK12  BANK13  BANK14  BANK15  BANK1
      +6  BANK17  BANK18  BANK19  BANK20  BANK21  BANK22  BANK23  BANK24  BANK25  BANK26  BANK27  BANK28  BANK29  BANK30  BANK3
      +1  BANK32  BANK33  BANK34  BANK35  BANK36  BANK37  BANK38  BANK39  BANK40  BANK41  BANK42  BANK43  BANK44  BANK45  BANK4
      +6  BANK47  BANK48  BANK49  BANK50  BANK51  BANK52  BANK53  BANK54
  7849 ;;      Params:         0       0       0       0       0       0       0       0       0       0       0       0       
      +0       0       0       0       0       0       0       0       0       0       0       0       0       0       0       
      +0       0       0       0       0       0       0       0       0       0       0       0       0       0       0       
      +0       0       0       0       0       0       0       0       0
  7850 ;;      Locals:         0       0       0       0       0       0       0       0       0       0       0       0       
      +0       0       0       0       0       0       0       0       0       0       0       0       0       0       0       
      +0       0       0       0       0       0       0       0       0       0       0       0       0       0       0       
      +0       0       0       0       0       0       0       0       0
  7851 ;;      Temps:          0       0       0       0       0       0       0       0       0       0       0       0       
      +0       0       0       0       0       0       0       0       0       0       0       0       0       0       0       
      +0       0       0       0       0       0       0       0       0       0       0       0       0       0       0       
      +0       0       0       0       0       0       0       0       0
  7852 ;;      Totals:         0       0       0       0       0       0       0       0       0       0       0       0       
      +0       0       0       0       0       0       0       0       0       0       0       0       0       0       0       
      +0       0       0       0       0       0       0       0       0       0       0       0       0       0       0       
      +0       0       0       0       0       0       0       0       0
  7853 ;;Total ram usage:        0 bytes
  7854 ;; Hardware stack levels used: 1
  7855 ;; This function calls:
  7856 ;;		Nothing
  7857 ;; This function is called by:
  7858 ;;		_I2C1_ClearInterruptFlags
  7859 ;; This function uses a non-reentrant model
  7860 ;;
  7861                           
  7862                           	psect	text76
  7863  0053B2                     __ptext76:
  7864                           	callstack 0
  7865  0053B2                     _I2C1_MasterClearStopFlag:
  7866                           	callstack 116
  7867  0053B2                     
  7868                           ;mcc_generated_files/i2c1_master.c: 765:     I2C1PIRbits.PCIF = 0;
  7869  0053B2  0102               	movlb	2	; () banked
  7870  0053B4  959A               	bcf	154,2,b	;volatile
  7871  0053B6                     
  7872                           ; BSR set to: 2
  7873  0053B6  0012               	return		;funcret
  7874  0053B8                     __end_of_I2C1_MasterClearStopFlag:
  7875                           	callstack 0
  7876                           
  7877 ;; *************** function _I2C1_MasterClearNackFlag *****************
  7878 ;; Defined at:
  7879 ;;		line 773 in file "mcc_generated_files/i2c1_master.c"
  7880 ;; Parameters:    Size  Location     Type
  7881 ;;		None
  7882 ;; Auto vars:     Size  Location     Type
  7883 ;;		None
  7884 ;; Return value:  Size  Location     Type
  7885 ;;                  1    wreg      void 
  7886 ;; Registers used:
  7887 ;;		None
  7888 ;; Tracked objects:
  7889 ;;		On entry : 0/0
  7890 ;;		On exit  : 0/0
  7891 ;;		Unchanged: 0/0
  7892 ;; Data sizes:     COMRAM   BANK5   BANK6   BANK7   BANK8   BANK9  BANK10  BANK11  BANK12  BANK13  BANK14  BANK15  BANK1
      +6  BANK17  BANK18  BANK19  BANK20  BANK21  BANK22  BANK23  BANK24  BANK25  BANK26  BANK27  BANK28  BANK29  BANK30  BANK3
      +1  BANK32  BANK33  BANK34  BANK35  BANK36  BANK37  BANK38  BANK39  BANK40  BANK41  BANK42  BANK43  BANK44  BANK45  BANK4
      +6  BANK47  BANK48  BANK49  BANK50  BANK51  BANK52  BANK53  BANK54
  7893 ;;      Params:         0       0       0       0       0       0       0       0       0       0       0       0       
      +0       0       0       0       0       0       0       0       0       0       0       0       0       0       0       
      +0       0       0       0       0       0       0       0       0       0       0       0       0       0       0       
      +0       0       0       0       0       0       0       0       0
  7894 ;;      Locals:         0       0       0       0       0       0       0       0       0       0       0       0       
      +0       0       0       0       0       0       0       0       0       0       0       0       0       0       0       
      +0       0       0       0       0       0       0       0       0       0       0       0       0       0       0       
      +0       0       0       0       0       0       0       0       0
  7895 ;;      Temps:          0       0       0       0       0       0       0       0       0       0       0       0       
      +0       0       0       0       0       0       0       0       0       0       0       0       0       0       0       
      +0       0       0       0       0       0       0       0       0       0       0       0       0       0       0       
      +0       0       0       0       0       0       0       0       0
  7896 ;;      Totals:         0       0       0       0       0       0       0       0       0       0       0       0       
      +0       0       0       0       0       0       0       0       0       0       0       0       0       0       0       
      +0       0       0       0       0       0       0       0       0       0       0       0       0       0       0       
      +0       0       0       0       0       0       0       0       0
  7897 ;;Total ram usage:        0 bytes
  7898 ;; Hardware stack levels used: 1
  7899 ;; This function calls:
  7900 ;;		Nothing
  7901 ;; This function is called by:
  7902 ;;		_I2C1_ClearInterruptFlags
  7903 ;; This function uses a non-reentrant model
  7904 ;;
  7905                           
  7906                           	psect	text77
  7907  0053B8                     __ptext77:
  7908                           	callstack 0
  7909  0053B8                     _I2C1_MasterClearNackFlag:
  7910                           	callstack 116
  7911  0053B8                     
  7912                           ;mcc_generated_files/i2c1_master.c: 775:     I2C1ERRbits.NACKIF = 0;
  7913  0053B8  0102               	movlb	2	; () banked
  7914  0053BA  9997               	bcf	151,4,b	;volatile
  7915  0053BC                     
  7916                           ; BSR set to: 2
  7917  0053BC  0012               	return		;funcret
  7918  0053BE                     __end_of_I2C1_MasterClearNackFlag:
  7919                           	callstack 0
  7920                           
  7921 ;; *************** function _I2C1_MasterClearCountFlag *****************
  7922 ;; Defined at:
  7923 ;;		line 768 in file "mcc_generated_files/i2c1_master.c"
  7924 ;; Parameters:    Size  Location     Type
  7925 ;;		None
  7926 ;; Auto vars:     Size  Location     Type
  7927 ;;		None
  7928 ;; Return value:  Size  Location     Type
  7929 ;;                  1    wreg      void 
  7930 ;; Registers used:
  7931 ;;		None
  7932 ;; Tracked objects:
  7933 ;;		On entry : 0/0
  7934 ;;		On exit  : 0/0
  7935 ;;		Unchanged: 0/0
  7936 ;; Data sizes:     COMRAM   BANK5   BANK6   BANK7   BANK8   BANK9  BANK10  BANK11  BANK12  BANK13  BANK14  BANK15  BANK1
      +6  BANK17  BANK18  BANK19  BANK20  BANK21  BANK22  BANK23  BANK24  BANK25  BANK26  BANK27  BANK28  BANK29  BANK30  BANK3
      +1  BANK32  BANK33  BANK34  BANK35  BANK36  BANK37  BANK38  BANK39  BANK40  BANK41  BANK42  BANK43  BANK44  BANK45  BANK4
      +6  BANK47  BANK48  BANK49  BANK50  BANK51  BANK52  BANK53  BANK54
  7937 ;;      Params:         0       0       0       0       0       0       0       0       0       0       0       0       
      +0       0       0       0       0       0       0       0       0       0       0       0       0       0       0       
      +0       0       0       0       0       0       0       0       0       0       0       0       0       0       0       
      +0       0       0       0       0       0       0       0       0
  7938 ;;      Locals:         0       0       0       0       0       0       0       0       0       0       0       0       
      +0       0       0       0       0       0       0       0       0       0       0       0       0       0       0       
      +0       0       0       0       0       0       0       0       0       0       0       0       0       0       0       
      +0       0       0       0       0       0       0       0       0
  7939 ;;      Temps:          0       0       0       0       0       0       0       0       0       0       0       0       
      +0       0       0       0       0       0       0       0       0       0       0       0       0       0       0       
      +0       0       0       0       0       0       0       0       0       0       0       0       0       0       0       
      +0       0       0       0       0       0       0       0       0
  7940 ;;      Totals:         0       0       0       0       0       0       0       0       0       0       0       0       
      +0       0       0       0       0       0       0       0       0       0       0       0       0       0       0       
      +0       0       0       0       0       0       0       0       0       0       0       0       0       0       0       
      +0       0       0       0       0       0       0       0       0
  7941 ;;Total ram usage:        0 bytes
  7942 ;; Hardware stack levels used: 1
  7943 ;; This function calls:
  7944 ;;		Nothing
  7945 ;; This function is called by:
  7946 ;;		_I2C1_ClearInterruptFlags
  7947 ;; This function uses a non-reentrant model
  7948 ;;
  7949                           
  7950                           	psect	text78
  7951  0053BE                     __ptext78:
  7952                           	callstack 0
  7953  0053BE                     _I2C1_MasterClearCountFlag:
  7954                           	callstack 116
  7955  0053BE                     
  7956                           ;mcc_generated_files/i2c1_master.c: 770:     I2C1PIRbits.CNTIF = 0;
  7957  0053BE  0102               	movlb	2	; () banked
  7958  0053C0  9F9A               	bcf	154,7,b	;volatile
  7959  0053C2                     
  7960                           ; BSR set to: 2
  7961  0053C2  0012               	return		;funcret
  7962  0053C4                     __end_of_I2C1_MasterClearCountFlag:
  7963                           	callstack 0
  7964                           
  7965 ;; *************** function _I2C1_Close *****************
  7966 ;; Defined at:
  7967 ;;		line 240 in file "mcc_generated_files/i2c1_master.c"
  7968 ;; Parameters:    Size  Location     Type
  7969 ;;		None
  7970 ;; Auto vars:     Size  Location     Type
  7971 ;;  returnValue     1    0[COMRAM] enum E355
  7972 ;; Return value:  Size  Location     Type
  7973 ;;                  1    wreg      enum E355
  7974 ;; Registers used:
  7975 ;;		wreg, status,2, cstack
  7976 ;; Tracked objects:
  7977 ;;		On entry : 0/0
  7978 ;;		On exit  : 0/0
  7979 ;;		Unchanged: 0/0
  7980 ;; Data sizes:     COMRAM   BANK5   BANK6   BANK7   BANK8   BANK9  BANK10  BANK11  BANK12  BANK13  BANK14  BANK15  BANK1
      +6  BANK17  BANK18  BANK19  BANK20  BANK21  BANK22  BANK23  BANK24  BANK25  BANK26  BANK27  BANK28  BANK29  BANK30  BANK3
      +1  BANK32  BANK33  BANK34  BANK35  BANK36  BANK37  BANK38  BANK39  BANK40  BANK41  BANK42  BANK43  BANK44  BANK45  BANK4
      +6  BANK47  BANK48  BANK49  BANK50  BANK51  BANK52  BANK53  BANK54
  7981 ;;      Params:         0       0       0       0       0       0       0       0       0       0       0       0       
      +0       0       0       0       0       0       0       0       0       0       0       0       0       0       0       
      +0       0       0       0       0       0       0       0       0       0       0       0       0       0       0       
      +0       0       0       0       0       0       0       0       0
  7982 ;;      Locals:         1       0       0       0       0       0       0       0       0       0       0       0       
      +0       0       0       0       0       0       0       0       0       0       0       0       0       0       0       
      +0       0       0       0       0       0       0       0       0       0       0       0       0       0       0       
      +0       0       0       0       0       0       0       0       0
  7983 ;;      Temps:          0       0       0       0       0       0       0       0       0       0       0       0       
      +0       0       0       0       0       0       0       0       0       0       0       0       0       0       0       
      +0       0       0       0       0       0       0       0       0       0       0       0       0       0       0       
      +0       0       0       0       0       0       0       0       0
  7984 ;;      Totals:         1       0       0       0       0       0       0       0       0       0       0       0       
      +0       0       0       0       0       0       0       0       0       0       0       0       0       0       0       
      +0       0       0       0       0       0       0       0       0       0       0       0       0       0       0       
      +0       0       0       0       0       0       0       0       0
  7985 ;;Total ram usage:        1 bytes
  7986 ;; Hardware stack levels used: 1
  7987 ;; Hardware stack levels required when called: 1
  7988 ;; This function calls:
  7989 ;;		_I2C1_MasterClearIrq
  7990 ;;		_I2C1_MasterClose
  7991 ;;		_I2C1_MasterDisableIrq
  7992 ;; This function is called by:
  7993 ;;		_I2C1_Write1ByteRegister
  7994 ;;		_I2C1_Read1ByteRegister
  7995 ;;		_I2C1_Read2ByteRegister
  7996 ;;		_I2C1_Write2ByteRegister
  7997 ;;		_I2C1_WriteNBytes
  7998 ;;		_I2C1_ReadNBytes
  7999 ;;		_I2C1_ReadDataBlock
  8000 ;; This function uses a non-reentrant model
  8001 ;;
  8002                           
  8003                           	psect	text79
  8004  004FF2                     __ptext79:
  8005                           	callstack 0
  8006  004FF2                     _I2C1_Close:
  8007                           	callstack 120
  8008  004FF2                     
  8009                           ;mcc_generated_files/i2c1_master.c: 242:     i2c1_error_t returnValue = I2C1_BUSY;
  8010  004FF2  0E01               	movlw	1
  8011  004FF4  6E01               	movwf	I2C1_Close@returnValue^(0+1280),c
  8012  004FF6                     
  8013                           ;mcc_generated_files/i2c1_master.c: 243:     if(!I2C1_Status.busy)
  8014  004FF6  0105               	movlb	5	; () banked
  8015  004FF8  B589               	btfsc	(_I2C1_Status+41)& (0+255),2,b
  8016  004FFA  EF01  F028         	goto	u1671
  8017  004FFE  EF03  F028         	goto	u1670
  8018  005002                     u1671:
  8019  005002  EF0D  F028         	goto	l4100
  8020  005006                     u1670:
  8021  005006                     
  8022                           ; BSR set to: 5
  8023                           ;mcc_generated_files/i2c1_master.c: 244:     {;mcc_generated_files/i2c1_master.c: 245:  
      +                                 I2C1_Status.inUse = 0;
  8024  005006  9789               	bcf	(_I2C1_Status+41)& (0+255),3,b
  8025                           
  8026                           ;mcc_generated_files/i2c1_master.c: 246:         I2C1_Status.address = 0xff;
  8027  005008  6982               	setf	(_I2C1_Status+34)& (0+255),b
  8028  00500A                     
  8029                           ; BSR set to: 5
  8030                           ;mcc_generated_files/i2c1_master.c: 247:         I2C1_MasterClearIrq();
  8031  00500A  ECC0  F029         	call	_I2C1_MasterClearIrq	;wreg free
  8032  00500E                     
  8033                           ;mcc_generated_files/i2c1_master.c: 248:         I2C1_MasterDisableIrq();
  8034  00500E  ECBB  F028         	call	_I2C1_MasterDisableIrq	;wreg free
  8035  005012                     
  8036                           ;mcc_generated_files/i2c1_master.c: 249:         I2C1_MasterClose();
  8037  005012  EC9B  F029         	call	_I2C1_MasterClose	;wreg free
  8038  005016                     
  8039                           ;mcc_generated_files/i2c1_master.c: 250:         returnValue = I2C1_Status.error;
  8040  005016  C588  F501         	movff	_I2C1_Status+40,I2C1_Close@returnValue
  8041  00501A                     l4100:
  8042                           
  8043                           ;mcc_generated_files/i2c1_master.c: 252:     return returnValue;
  8044  00501A  5001               	movf	I2C1_Close@returnValue^(0+1280),w,c
  8045  00501C  0012               	return		;funcret
  8046  00501E                     __end_of_I2C1_Close:
  8047                           	callstack 0
  8048                           
  8049 ;; *************** function _I2C1_MasterDisableIrq *****************
  8050 ;; Defined at:
  8051 ;;		line 795 in file "mcc_generated_files/i2c1_master.c"
  8052 ;; Parameters:    Size  Location     Type
  8053 ;;		None
  8054 ;; Auto vars:     Size  Location     Type
  8055 ;;		None
  8056 ;; Return value:  Size  Location     Type
  8057 ;;                  1    wreg      void 
  8058 ;; Registers used:
  8059 ;;		None
  8060 ;; Tracked objects:
  8061 ;;		On entry : 0/0
  8062 ;;		On exit  : 0/0
  8063 ;;		Unchanged: 0/0
  8064 ;; Data sizes:     COMRAM   BANK5   BANK6   BANK7   BANK8   BANK9  BANK10  BANK11  BANK12  BANK13  BANK14  BANK15  BANK1
      +6  BANK17  BANK18  BANK19  BANK20  BANK21  BANK22  BANK23  BANK24  BANK25  BANK26  BANK27  BANK28  BANK29  BANK30  BANK3
      +1  BANK32  BANK33  BANK34  BANK35  BANK36  BANK37  BANK38  BANK39  BANK40  BANK41  BANK42  BANK43  BANK44  BANK45  BANK4
      +6  BANK47  BANK48  BANK49  BANK50  BANK51  BANK52  BANK53  BANK54
  8065 ;;      Params:         0       0       0       0       0       0       0       0       0       0       0       0       
      +0       0       0       0       0       0       0       0       0       0       0       0       0       0       0       
      +0       0       0       0       0       0       0       0       0       0       0       0       0       0       0       
      +0       0       0       0       0       0       0       0       0
  8066 ;;      Locals:         0       0       0       0       0       0       0       0       0       0       0       0       
      +0       0       0       0       0       0       0       0       0       0       0       0       0       0       0       
      +0       0       0       0       0       0       0       0       0       0       0       0       0       0       0       
      +0       0       0       0       0       0       0       0       0
  8067 ;;      Temps:          0       0       0       0       0       0       0       0       0       0       0       0       
      +0       0       0       0       0       0       0       0       0       0       0       0       0       0       0       
      +0       0       0       0       0       0       0       0       0       0       0       0       0       0       0       
      +0       0       0       0       0       0       0       0       0
  8068 ;;      Totals:         0       0       0       0       0       0       0       0       0       0       0       0       
      +0       0       0       0       0       0       0       0       0       0       0       0       0       0       0       
      +0       0       0       0       0       0       0       0       0       0       0       0       0       0       0       
      +0       0       0       0       0       0       0       0       0
  8069 ;;Total ram usage:        0 bytes
  8070 ;; Hardware stack levels used: 1
  8071 ;; This function calls:
  8072 ;;		Nothing
  8073 ;; This function is called by:
  8074 ;;		_I2C1_Close
  8075 ;;		_I2C1_SetTimeOut
  8076 ;; This function uses a non-reentrant model
  8077 ;;
  8078                           
  8079                           	psect	text80
  8080  005176                     __ptext80:
  8081                           	callstack 0
  8082  005176                     _I2C1_MasterDisableIrq:
  8083                           	callstack 120
  8084  005176                     
  8085                           ;mcc_generated_files/i2c1_master.c: 797:     PIE7bits.I2C1IE = 0;
  8086  005176  94A5               	bcf	165,2,c	;volatile
  8087                           
  8088                           ;mcc_generated_files/i2c1_master.c: 798:     PIE7bits.I2C1EIE = 0;
  8089  005178  96A5               	bcf	165,3,c	;volatile
  8090                           
  8091                           ;mcc_generated_files/i2c1_master.c: 799:     PIE7bits.I2C1RXIE = 0;
  8092  00517A  90A5               	bcf	165,0,c	;volatile
  8093                           
  8094                           ;mcc_generated_files/i2c1_master.c: 800:     PIE7bits.I2C1TXIE = 0;
  8095  00517C  92A5               	bcf	165,1,c	;volatile
  8096                           
  8097                           ;mcc_generated_files/i2c1_master.c: 801:     I2C1PIEbits.SCIE = 0;
  8098  00517E  0102               	movlb	2	; () banked
  8099  005180  919B               	bcf	155,0,b	;volatile
  8100                           
  8101                           ;mcc_generated_files/i2c1_master.c: 802:     I2C1PIEbits.PCIE = 0;
  8102  005182  959B               	bcf	155,2,b	;volatile
  8103                           
  8104                           ;mcc_generated_files/i2c1_master.c: 803:     I2C1PIEbits.CNTIE = 0;
  8105  005184  9F9B               	bcf	155,7,b	;volatile
  8106                           
  8107                           ;mcc_generated_files/i2c1_master.c: 804:     I2C1PIEbits.ACKTIE = 0;
  8108  005186  9D9B               	bcf	155,6,b	;volatile
  8109                           
  8110                           ;mcc_generated_files/i2c1_master.c: 805:     I2C1PIEbits.RSCIE = 0;
  8111  005188  939B               	bcf	155,1,b	;volatile
  8112                           
  8113                           ;mcc_generated_files/i2c1_master.c: 806:     I2C1ERRbits.BCLIE = 0;
  8114  00518A  9397               	bcf	151,1,b	;volatile
  8115                           
  8116                           ;mcc_generated_files/i2c1_master.c: 807:     I2C1ERRbits.BTOIE = 0;
  8117  00518C  9597               	bcf	151,2,b	;volatile
  8118                           
  8119                           ;mcc_generated_files/i2c1_master.c: 808:     I2C1ERRbits.NACKIE = 0;
  8120  00518E  9197               	bcf	151,0,b	;volatile
  8121  005190                     
  8122                           ; BSR set to: 2
  8123  005190  0012               	return		;funcret
  8124  005192                     __end_of_I2C1_MasterDisableIrq:
  8125                           	callstack 0
  8126                           
  8127 ;; *************** function _I2C1_MasterClose *****************
  8128 ;; Defined at:
  8129 ;;		line 657 in file "mcc_generated_files/i2c1_master.c"
  8130 ;; Parameters:    Size  Location     Type
  8131 ;;		None
  8132 ;; Auto vars:     Size  Location     Type
  8133 ;;		None
  8134 ;; Return value:  Size  Location     Type
  8135 ;;                  1    wreg      void 
  8136 ;; Registers used:
  8137 ;;		wreg, status,2
  8138 ;; Tracked objects:
  8139 ;;		On entry : 0/0
  8140 ;;		On exit  : 0/0
  8141 ;;		Unchanged: 0/0
  8142 ;; Data sizes:     COMRAM   BANK5   BANK6   BANK7   BANK8   BANK9  BANK10  BANK11  BANK12  BANK13  BANK14  BANK15  BANK1
      +6  BANK17  BANK18  BANK19  BANK20  BANK21  BANK22  BANK23  BANK24  BANK25  BANK26  BANK27  BANK28  BANK29  BANK30  BANK3
      +1  BANK32  BANK33  BANK34  BANK35  BANK36  BANK37  BANK38  BANK39  BANK40  BANK41  BANK42  BANK43  BANK44  BANK45  BANK4
      +6  BANK47  BANK48  BANK49  BANK50  BANK51  BANK52  BANK53  BANK54
  8143 ;;      Params:         0       0       0       0       0       0       0       0       0       0       0       0       
      +0       0       0       0       0       0       0       0       0       0       0       0       0       0       0       
      +0       0       0       0       0       0       0       0       0       0       0       0       0       0       0       
      +0       0       0       0       0       0       0       0       0
  8144 ;;      Locals:         0       0       0       0       0       0       0       0       0       0       0       0       
      +0       0       0       0       0       0       0       0       0       0       0       0       0       0       0       
      +0       0       0       0       0       0       0       0       0       0       0       0       0       0       0       
      +0       0       0       0       0       0       0       0       0
  8145 ;;      Temps:          0       0       0       0       0       0       0       0       0       0       0       0       
      +0       0       0       0       0       0       0       0       0       0       0       0       0       0       0       
      +0       0       0       0       0       0       0       0       0       0       0       0       0       0       0       
      +0       0       0       0       0       0       0       0       0
  8146 ;;      Totals:         0       0       0       0       0       0       0       0       0       0       0       0       
      +0       0       0       0       0       0       0       0       0       0       0       0       0       0       0       
      +0       0       0       0       0       0       0       0       0       0       0       0       0       0       0       
      +0       0       0       0       0       0       0       0       0
  8147 ;;Total ram usage:        0 bytes
  8148 ;; Hardware stack levels used: 1
  8149 ;; This function calls:
  8150 ;;		Nothing
  8151 ;; This function is called by:
  8152 ;;		_I2C1_Close
  8153 ;; This function uses a non-reentrant model
  8154 ;;
  8155                           
  8156                           	psect	text81
  8157  005336                     __ptext81:
  8158                           	callstack 0
  8159  005336                     _I2C1_MasterClose:
  8160                           	callstack 120
  8161  005336                     
  8162                           ;mcc_generated_files/i2c1_master.c: 660:     I2C1CON0bits.EN = 0;
  8163  005336  0102               	movlb	2	; () banked
  8164  005338  9F94               	bcf	148,7,b	;volatile
  8165  00533A                     
  8166                           ; BSR set to: 2
  8167                           ;mcc_generated_files/i2c1_master.c: 662:     I2C1PIR = 0x00;
  8168  00533A  0E00               	movlw	0
  8169  00533C  6F9A               	movwf	154,b	;volatile
  8170  00533E                     
  8171                           ; BSR set to: 2
  8172                           ;mcc_generated_files/i2c1_master.c: 664:     I2C1STAT1bits.CLRBF = 1;
  8173  00533E  8599               	bsf	153,2,b	;volatile
  8174  005340                     
  8175                           ; BSR set to: 2
  8176  005340  0012               	return		;funcret
  8177  005342                     __end_of_I2C1_MasterClose:
  8178                           	callstack 0
  8179                           
  8180 ;; *************** function _I2C1_MasterClearIrq *****************
  8181 ;; Defined at:
  8182 ;;		line 811 in file "mcc_generated_files/i2c1_master.c"
  8183 ;; Parameters:    Size  Location     Type
  8184 ;;		None
  8185 ;; Auto vars:     Size  Location     Type
  8186 ;;		None
  8187 ;; Return value:  Size  Location     Type
  8188 ;;                  1    wreg      void 
  8189 ;; Registers used:
  8190 ;;		wreg, status,2
  8191 ;; Tracked objects:
  8192 ;;		On entry : 0/0
  8193 ;;		On exit  : 0/0
  8194 ;;		Unchanged: 0/0
  8195 ;; Data sizes:     COMRAM   BANK5   BANK6   BANK7   BANK8   BANK9  BANK10  BANK11  BANK12  BANK13  BANK14  BANK15  BANK1
      +6  BANK17  BANK18  BANK19  BANK20  BANK21  BANK22  BANK23  BANK24  BANK25  BANK26  BANK27  BANK28  BANK29  BANK30  BANK3
      +1  BANK32  BANK33  BANK34  BANK35  BANK36  BANK37  BANK38  BANK39  BANK40  BANK41  BANK42  BANK43  BANK44  BANK45  BANK4
      +6  BANK47  BANK48  BANK49  BANK50  BANK51  BANK52  BANK53  BANK54
  8196 ;;      Params:         0       0       0       0       0       0       0       0       0       0       0       0       
      +0       0       0       0       0       0       0       0       0       0       0       0       0       0       0       
      +0       0       0       0       0       0       0       0       0       0       0       0       0       0       0       
      +0       0       0       0       0       0       0       0       0
  8197 ;;      Locals:         0       0       0       0       0       0       0       0       0       0       0       0       
      +0       0       0       0       0       0       0       0       0       0       0       0       0       0       0       
      +0       0       0       0       0       0       0       0       0       0       0       0       0       0       0       
      +0       0       0       0       0       0       0       0       0
  8198 ;;      Temps:          0       0       0       0       0       0       0       0       0       0       0       0       
      +0       0       0       0       0       0       0       0       0       0       0       0       0       0       0       
      +0       0       0       0       0       0       0       0       0       0       0       0       0       0       0       
      +0       0       0       0       0       0       0       0       0
  8199 ;;      Totals:         0       0       0       0       0       0       0       0       0       0       0       0       
      +0       0       0       0       0       0       0       0       0       0       0       0       0       0       0       
      +0       0       0       0       0       0       0       0       0       0       0       0       0       0       0       
      +0       0       0       0       0       0       0       0       0
  8200 ;;Total ram usage:        0 bytes
  8201 ;; Hardware stack levels used: 1
  8202 ;; This function calls:
  8203 ;;		Nothing
  8204 ;; This function is called by:
  8205 ;;		_I2C1_Open
  8206 ;;		_I2C1_Close
  8207 ;;		_I2C1_DO_BUS_COLLISION
  8208 ;; This function uses a non-reentrant model
  8209 ;;
  8210                           
  8211                           	psect	text82
  8212  005380                     __ptext82:
  8213                           	callstack 0
  8214  005380                     _I2C1_MasterClearIrq:
  8215                           	callstack 120
  8216  005380                     
  8217                           ;mcc_generated_files/i2c1_master.c: 813:     I2C1PIR = 0x00;
  8218  005380  0E00               	movlw	0
  8219  005382  0102               	movlb	2	; () banked
  8220  005384  6F9A               	movwf	154,b	;volatile
  8221  005386                     
  8222                           ; BSR set to: 2
  8223  005386  0012               	return		;funcret
  8224  005388                     __end_of_I2C1_MasterClearIrq:
  8225                           	callstack 0
  8226                           
  8227 ;; *************** function _SYSTEM_Initialize *****************
  8228 ;; Defined at:
  8229 ;;		line 50 in file "mcc_generated_files/mcc.c"
  8230 ;; Parameters:    Size  Location     Type
  8231 ;;		None
  8232 ;; Auto vars:     Size  Location     Type
  8233 ;;		None
  8234 ;; Return value:  Size  Location     Type
  8235 ;;                  1    wreg      void 
  8236 ;; Registers used:
  8237 ;;		wreg, status,2, status,0, cstack
  8238 ;; Tracked objects:
  8239 ;;		On entry : 0/0
  8240 ;;		On exit  : 0/0
  8241 ;;		Unchanged: 0/0
  8242 ;; Data sizes:     COMRAM   BANK5   BANK6   BANK7   BANK8   BANK9  BANK10  BANK11  BANK12  BANK13  BANK14  BANK15  BANK1
      +6  BANK17  BANK18  BANK19  BANK20  BANK21  BANK22  BANK23  BANK24  BANK25  BANK26  BANK27  BANK28  BANK29  BANK30  BANK3
      +1  BANK32  BANK33  BANK34  BANK35  BANK36  BANK37  BANK38  BANK39  BANK40  BANK41  BANK42  BANK43  BANK44  BANK45  BANK4
      +6  BANK47  BANK48  BANK49  BANK50  BANK51  BANK52  BANK53  BANK54
  8243 ;;      Params:         0       0       0       0       0       0       0       0       0       0       0       0       
      +0       0       0       0       0       0       0       0       0       0       0       0       0       0       0       
      +0       0       0       0       0       0       0       0       0       0       0       0       0       0       0       
      +0       0       0       0       0       0       0       0       0
  8244 ;;      Locals:         0       0       0       0       0       0       0       0       0       0       0       0       
      +0       0       0       0       0       0       0       0       0       0       0       0       0       0       0       
      +0       0       0       0       0       0       0       0       0       0       0       0       0       0       0       
      +0       0       0       0       0       0       0       0       0
  8245 ;;      Temps:          0       0       0       0       0       0       0       0       0       0       0       0       
      +0       0       0       0       0       0       0       0       0       0       0       0       0       0       0       
      +0       0       0       0       0       0       0       0       0       0       0       0       0       0       0       
      +0       0       0       0       0       0       0       0       0
  8246 ;;      Totals:         0       0       0       0       0       0       0       0       0       0       0       0       
      +0       0       0       0       0       0       0       0       0       0       0       0       0       0       0       
      +0       0       0       0       0       0       0       0       0       0       0       0       0       0       0       
      +0       0       0       0       0       0       0       0       0
  8247 ;;Total ram usage:        0 bytes
  8248 ;; Hardware stack levels used: 1
  8249 ;; Hardware stack levels required when called: 2
  8250 ;; This function calls:
  8251 ;;		_ADC_Initialize
  8252 ;;		_I2C1_Initialize
  8253 ;;		_OSCILLATOR_Initialize
  8254 ;;		_PIN_MANAGER_Initialize
  8255 ;;		_PMD_Initialize
  8256 ;;		_UART1_Initialize
  8257 ;; This function is called by:
  8258 ;;		_main
  8259 ;; This function uses a non-reentrant model
  8260 ;;
  8261                           
  8262                           	psect	text83
  8263  005192                     __ptext83:
  8264                           	callstack 0
  8265  005192                     _SYSTEM_Initialize:
  8266                           	callstack 124
  8267  005192                     
  8268                           ;mcc_generated_files/mcc.c: 52:     PMD_Initialize();
  8269  005192  EC4D  F028         	call	_PMD_Initialize	;wreg free
  8270                           
  8271                           ;mcc_generated_files/mcc.c: 53:     I2C1_Initialize();
  8272  005196  EC0F  F028         	call	_I2C1_Initialize	;wreg free
  8273                           
  8274                           ;mcc_generated_files/mcc.c: 54:     PIN_MANAGER_Initialize();
  8275  00519A  EC1D  F022         	call	_PIN_MANAGER_Initialize	;wreg free
  8276  00519E                     
  8277                           ;mcc_generated_files/mcc.c: 55:     ADC_Initialize();
  8278  00519E  ECC1  F021         	call	_ADC_Initialize	;wreg free
  8279  0051A2                     
  8280                           ;mcc_generated_files/mcc.c: 56:     OSCILLATOR_Initialize();
  8281  0051A2  ECE2  F028         	call	_OSCILLATOR_Initialize	;wreg free
  8282                           
  8283                           ;mcc_generated_files/mcc.c: 57:     UART1_Initialize();
  8284  0051A6  EC44  F025         	call	_UART1_Initialize	;wreg free
  8285  0051AA  0012               	return		;funcret
  8286  0051AC                     __end_of_SYSTEM_Initialize:
  8287                           	callstack 0
  8288                           
  8289 ;; *************** function _UART1_Initialize *****************
  8290 ;; Defined at:
  8291 ;;		line 66 in file "mcc_generated_files/uart1.c"
  8292 ;; Parameters:    Size  Location     Type
  8293 ;;		None
  8294 ;; Auto vars:     Size  Location     Type
  8295 ;;		None
  8296 ;; Return value:  Size  Location     Type
  8297 ;;                  1    wreg      void 
  8298 ;; Registers used:
  8299 ;;		wreg, status,2, status,0, cstack
  8300 ;; Tracked objects:
  8301 ;;		On entry : 0/0
  8302 ;;		On exit  : 0/0
  8303 ;;		Unchanged: 0/0
  8304 ;; Data sizes:     COMRAM   BANK5   BANK6   BANK7   BANK8   BANK9  BANK10  BANK11  BANK12  BANK13  BANK14  BANK15  BANK1
      +6  BANK17  BANK18  BANK19  BANK20  BANK21  BANK22  BANK23  BANK24  BANK25  BANK26  BANK27  BANK28  BANK29  BANK30  BANK3
      +1  BANK32  BANK33  BANK34  BANK35  BANK36  BANK37  BANK38  BANK39  BANK40  BANK41  BANK42  BANK43  BANK44  BANK45  BANK4
      +6  BANK47  BANK48  BANK49  BANK50  BANK51  BANK52  BANK53  BANK54
  8305 ;;      Params:         0       0       0       0       0       0       0       0       0       0       0       0       
      +0       0       0       0       0       0       0       0       0       0       0       0       0       0       0       
      +0       0       0       0       0       0       0       0       0       0       0       0       0       0       0       
      +0       0       0       0       0       0       0       0       0
  8306 ;;      Locals:         0       0       0       0       0       0       0       0       0       0       0       0       
      +0       0       0       0       0       0       0       0       0       0       0       0       0       0       0       
      +0       0       0       0       0       0       0       0       0       0       0       0       0       0       0       
      +0       0       0       0       0       0       0       0       0
  8307 ;;      Temps:          0       0       0       0       0       0       0       0       0       0       0       0       
      +0       0       0       0       0       0       0       0       0       0       0       0       0       0       0       
      +0       0       0       0       0       0       0       0       0       0       0       0       0       0       0       
      +0       0       0       0       0       0       0       0       0
  8308 ;;      Totals:         0       0       0       0       0       0       0       0       0       0       0       0       
      +0       0       0       0       0       0       0       0       0       0       0       0       0       0       0       
      +0       0       0       0       0       0       0       0       0       0       0       0       0       0       0       
      +0       0       0       0       0       0       0       0       0
  8309 ;;Total ram usage:        0 bytes
  8310 ;; Hardware stack levels used: 1
  8311 ;; Hardware stack levels required when called: 1
  8312 ;; This function calls:
  8313 ;;		_UART1_SetErrorHandler
  8314 ;;		_UART1_SetFramingErrorHandler
  8315 ;;		_UART1_SetOverrunErrorHandler
  8316 ;; This function is called by:
  8317 ;;		_SYSTEM_Initialize
  8318 ;; This function uses a non-reentrant model
  8319 ;;
  8320                           
  8321                           	psect	text84
  8322  004A88                     __ptext84:
  8323                           	callstack 0
  8324  004A88                     _UART1_Initialize:
  8325                           	callstack 124
  8326  004A88                     
  8327                           ;mcc_generated_files/uart1.c: 73:     U1P1L = 0x00;
  8328  004A88  0E00               	movlw	0
  8329  004A8A  0102               	movlb	2	; () banked
  8330  004A8C  6FA5               	movwf	165,b	;volatile
  8331                           
  8332                           ;mcc_generated_files/uart1.c: 76:     U1P1H = 0x00;
  8333  004A8E  0E00               	movlw	0
  8334  004A90  6FA6               	movwf	166,b	;volatile
  8335                           
  8336                           ;mcc_generated_files/uart1.c: 79:     U1P2L = 0x00;
  8337  004A92  0E00               	movlw	0
  8338  004A94  6FA7               	movwf	167,b	;volatile
  8339                           
  8340                           ;mcc_generated_files/uart1.c: 82:     U1P2H = 0x00;
  8341  004A96  0E00               	movlw	0
  8342  004A98  6FA8               	movwf	168,b	;volatile
  8343                           
  8344                           ;mcc_generated_files/uart1.c: 85:     U1P3L = 0x00;
  8345  004A9A  0E00               	movlw	0
  8346  004A9C  6FA9               	movwf	169,b	;volatile
  8347                           
  8348                           ;mcc_generated_files/uart1.c: 88:     U1P3H = 0x00;
  8349  004A9E  0E00               	movlw	0
  8350  004AA0  6FAA               	movwf	170,b	;volatile
  8351                           
  8352                           ;mcc_generated_files/uart1.c: 91:     U1CON0 = 0xB0;
  8353  004AA2  0EB0               	movlw	176
  8354  004AA4  6FAB               	movwf	171,b	;volatile
  8355                           
  8356                           ;mcc_generated_files/uart1.c: 94:     U1CON1 = 0x80;
  8357  004AA6  0E80               	movlw	128
  8358  004AA8  6FAC               	movwf	172,b	;volatile
  8359                           
  8360                           ;mcc_generated_files/uart1.c: 97:     U1CON2 = 0x00;
  8361  004AAA  0E00               	movlw	0
  8362  004AAC  6FAD               	movwf	173,b	;volatile
  8363                           
  8364                           ;mcc_generated_files/uart1.c: 100:     U1BRGL = 0x03;
  8365  004AAE  0E03               	movlw	3
  8366  004AB0  6FAE               	movwf	174,b	;volatile
  8367                           
  8368                           ;mcc_generated_files/uart1.c: 103:     U1BRGH = 0x01;
  8369  004AB2  0E01               	movlw	1
  8370  004AB4  6FAF               	movwf	175,b	;volatile
  8371                           
  8372                           ;mcc_generated_files/uart1.c: 106:     U1FIFO = 0x00;
  8373  004AB6  0E00               	movlw	0
  8374  004AB8  6FB0               	movwf	176,b	;volatile
  8375                           
  8376                           ;mcc_generated_files/uart1.c: 109:     U1UIR = 0x00;
  8377  004ABA  0E00               	movlw	0
  8378  004ABC  6FB1               	movwf	177,b	;volatile
  8379                           
  8380                           ;mcc_generated_files/uart1.c: 112:     U1ERRIR = 0x00;
  8381  004ABE  0E00               	movlw	0
  8382  004AC0  6FB2               	movwf	178,b	;volatile
  8383                           
  8384                           ;mcc_generated_files/uart1.c: 115:     U1ERRIE = 0x00;
  8385  004AC2  0E00               	movlw	0
  8386  004AC4  6FB3               	movwf	179,b	;volatile
  8387  004AC6                     
  8388                           ; BSR set to: 2
  8389                           ;mcc_generated_files/uart1.c: 118:     UART1_SetFramingErrorHandler(UART1_DefaultFraming
      +                          ErrorHandler);
  8390  004AC6  0E00               	movlw	0
  8391  004AC8  6E01               	movwf	UART1_SetFramingErrorHandler@interruptHandler^(0+1280),c
  8392  004ACA  0E00               	movlw	0
  8393  004ACC  6E02               	movwf	(UART1_SetFramingErrorHandler@interruptHandler+1)^(0+1280),c
  8394  004ACE  0E00               	movlw	0
  8395  004AD0  6E03               	movwf	(UART1_SetFramingErrorHandler@interruptHandler+2)^(0+1280),c
  8396  004AD2  EC72  F029         	call	_UART1_SetFramingErrorHandler	;wreg free
  8397  004AD6                     
  8398                           ;mcc_generated_files/uart1.c: 119:     UART1_SetOverrunErrorHandler(UART1_DefaultOverrun
      +                          ErrorHandler);
  8399  004AD6  0E00               	movlw	0
  8400  004AD8  6E01               	movwf	UART1_SetOverrunErrorHandler@interruptHandler^(0+1280),c
  8401  004ADA  0E00               	movlw	0
  8402  004ADC  6E02               	movwf	(UART1_SetOverrunErrorHandler@interruptHandler+1)^(0+1280),c
  8403  004ADE  0E00               	movlw	0
  8404  004AE0  6E03               	movwf	(UART1_SetOverrunErrorHandler@interruptHandler+2)^(0+1280),c
  8405  004AE2  EC6B  F029         	call	_UART1_SetOverrunErrorHandler	;wreg free
  8406  004AE6                     
  8407                           ;mcc_generated_files/uart1.c: 120:     UART1_SetErrorHandler(UART1_DefaultErrorHandler);
  8408  004AE6  0E00               	movlw	0
  8409  004AE8  6E01               	movwf	UART1_SetErrorHandler@interruptHandler^(0+1280),c
  8410  004AEA  0E00               	movlw	0
  8411  004AEC  6E02               	movwf	(UART1_SetErrorHandler@interruptHandler+1)^(0+1280),c
  8412  004AEE  0E00               	movlw	0
  8413  004AF0  6E03               	movwf	(UART1_SetErrorHandler@interruptHandler+2)^(0+1280),c
  8414  004AF2  EC79  F029         	call	_UART1_SetErrorHandler	;wreg free
  8415  004AF6                     
  8416                           ;mcc_generated_files/uart1.c: 122:     uart1RxLastError.status = 0;
  8417  004AF6  0E00               	movlw	0
  8418  004AF8  0105               	movlb	5	; () banked
  8419  004AFA  6F97               	movwf	_uart1RxLastError& (0+255),b	;volatile
  8420  004AFC                     
  8421                           ; BSR set to: 5
  8422  004AFC  0012               	return		;funcret
  8423  004AFE                     __end_of_UART1_Initialize:
  8424                           	callstack 0
  8425                           
  8426 ;; *************** function _UART1_SetOverrunErrorHandler *****************
  8427 ;; Defined at:
  8428 ;;		line 204 in file "mcc_generated_files/uart1.c"
  8429 ;; Parameters:    Size  Location     Type
  8430 ;;  interruptHan    3    0[COMRAM] PTR FTN()void 
  8431 ;;		 -> UART1_DefaultOverrunErrorHandler(1), 
  8432 ;; Auto vars:     Size  Location     Type
  8433 ;;		None
  8434 ;; Return value:  Size  Location     Type
  8435 ;;                  1    wreg      void 
  8436 ;; Registers used:
  8437 ;;		wreg, status,2, status,0
  8438 ;; Tracked objects:
  8439 ;;		On entry : 0/0
  8440 ;;		On exit  : 0/0
  8441 ;;		Unchanged: 0/0
  8442 ;; Data sizes:     COMRAM   BANK5   BANK6   BANK7   BANK8   BANK9  BANK10  BANK11  BANK12  BANK13  BANK14  BANK15  BANK1
      +6  BANK17  BANK18  BANK19  BANK20  BANK21  BANK22  BANK23  BANK24  BANK25  BANK26  BANK27  BANK28  BANK29  BANK30  BANK3
      +1  BANK32  BANK33  BANK34  BANK35  BANK36  BANK37  BANK38  BANK39  BANK40  BANK41  BANK42  BANK43  BANK44  BANK45  BANK4
      +6  BANK47  BANK48  BANK49  BANK50  BANK51  BANK52  BANK53  BANK54
  8443 ;;      Params:         3       0       0       0       0       0       0       0       0       0       0       0       
      +0       0       0       0       0       0       0       0       0       0       0       0       0       0       0       
      +0       0       0       0       0       0       0       0       0       0       0       0       0       0       0       
      +0       0       0       0       0       0       0       0       0
  8444 ;;      Locals:         0       0       0       0       0       0       0       0       0       0       0       0       
      +0       0       0       0       0       0       0       0       0       0       0       0       0       0       0       
      +0       0       0       0       0       0       0       0       0       0       0       0       0       0       0       
      +0       0       0       0       0       0       0       0       0
  8445 ;;      Temps:          0       0       0       0       0       0       0       0       0       0       0       0       
      +0       0       0       0       0       0       0       0       0       0       0       0       0       0       0       
      +0       0       0       0       0       0       0       0       0       0       0       0       0       0       0       
      +0       0       0       0       0       0       0       0       0
  8446 ;;      Totals:         3       0       0       0       0       0       0       0       0       0       0       0       
      +0       0       0       0       0       0       0       0       0       0       0       0       0       0       0       
      +0       0       0       0       0       0       0       0       0       0       0       0       0       0       0       
      +0       0       0       0       0       0       0       0       0
  8447 ;;Total ram usage:        3 bytes
  8448 ;; Hardware stack levels used: 1
  8449 ;; This function calls:
  8450 ;;		Nothing
  8451 ;; This function is called by:
  8452 ;;		_UART1_Initialize
  8453 ;; This function uses a non-reentrant model
  8454 ;;
  8455                           
  8456                           	psect	text85
  8457  0052D6                     __ptext85:
  8458                           	callstack 0
  8459  0052D6                     _UART1_SetOverrunErrorHandler:
  8460                           	callstack 124
  8461  0052D6                     
  8462                           ;mcc_generated_files/uart1.c: 205:     UART1_OverrunErrorHandler = interruptHandler;
  8463  0052D6  C501  F5C4         	movff	UART1_SetOverrunErrorHandler@interruptHandler,_UART1_OverrunErrorHandler
  8464  0052DA  C502  F5C5         	movff	UART1_SetOverrunErrorHandler@interruptHandler+1,_UART1_OverrunErrorHandler+1
  8465  0052DE  C503  F5C6         	movff	UART1_SetOverrunErrorHandler@interruptHandler+2,_UART1_OverrunErrorHandler+2
  8466  0052E2  0012               	return		;funcret
  8467  0052E4                     __end_of_UART1_SetOverrunErrorHandler:
  8468                           	callstack 0
  8469                           
  8470 ;; *************** function _UART1_SetFramingErrorHandler *****************
  8471 ;; Defined at:
  8472 ;;		line 200 in file "mcc_generated_files/uart1.c"
  8473 ;; Parameters:    Size  Location     Type
  8474 ;;  interruptHan    3    0[COMRAM] PTR FTN()void 
  8475 ;;		 -> UART1_DefaultFramingErrorHandler(1), 
  8476 ;; Auto vars:     Size  Location     Type
  8477 ;;		None
  8478 ;; Return value:  Size  Location     Type
  8479 ;;                  1    wreg      void 
  8480 ;; Registers used:
  8481 ;;		wreg, status,2, status,0
  8482 ;; Tracked objects:
  8483 ;;		On entry : 0/0
  8484 ;;		On exit  : 0/0
  8485 ;;		Unchanged: 0/0
  8486 ;; Data sizes:     COMRAM   BANK5   BANK6   BANK7   BANK8   BANK9  BANK10  BANK11  BANK12  BANK13  BANK14  BANK15  BANK1
      +6  BANK17  BANK18  BANK19  BANK20  BANK21  BANK22  BANK23  BANK24  BANK25  BANK26  BANK27  BANK28  BANK29  BANK30  BANK3
      +1  BANK32  BANK33  BANK34  BANK35  BANK36  BANK37  BANK38  BANK39  BANK40  BANK41  BANK42  BANK43  BANK44  BANK45  BANK4
      +6  BANK47  BANK48  BANK49  BANK50  BANK51  BANK52  BANK53  BANK54
  8487 ;;      Params:         3       0       0       0       0       0       0       0       0       0       0       0       
      +0       0       0       0       0       0       0       0       0       0       0       0       0       0       0       
      +0       0       0       0       0       0       0       0       0       0       0       0       0       0       0       
      +0       0       0       0       0       0       0       0       0
  8488 ;;      Locals:         0       0       0       0       0       0       0       0       0       0       0       0       
      +0       0       0       0       0       0       0       0       0       0       0       0       0       0       0       
      +0       0       0       0       0       0       0       0       0       0       0       0       0       0       0       
      +0       0       0       0       0       0       0       0       0
  8489 ;;      Temps:          0       0       0       0       0       0       0       0       0       0       0       0       
      +0       0       0       0       0       0       0       0       0       0       0       0       0       0       0       
      +0       0       0       0       0       0       0       0       0       0       0       0       0       0       0       
      +0       0       0       0       0       0       0       0       0
  8490 ;;      Totals:         3       0       0       0       0       0       0       0       0       0       0       0       
      +0       0       0       0       0       0       0       0       0       0       0       0       0       0       0       
      +0       0       0       0       0       0       0       0       0       0       0       0       0       0       0       
      +0       0       0       0       0       0       0       0       0
  8491 ;;Total ram usage:        3 bytes
  8492 ;; Hardware stack levels used: 1
  8493 ;; This function calls:
  8494 ;;		Nothing
  8495 ;; This function is called by:
  8496 ;;		_UART1_Initialize
  8497 ;; This function uses a non-reentrant model
  8498 ;;
  8499                           
  8500                           	psect	text86
  8501  0052E4                     __ptext86:
  8502                           	callstack 0
  8503  0052E4                     _UART1_SetFramingErrorHandler:
  8504                           	callstack 124
  8505  0052E4                     
  8506                           ;mcc_generated_files/uart1.c: 201:     UART1_FramingErrorHandler = interruptHandler;
  8507  0052E4  C501  F5C7         	movff	UART1_SetFramingErrorHandler@interruptHandler,_UART1_FramingErrorHandler
  8508  0052E8  C502  F5C8         	movff	UART1_SetFramingErrorHandler@interruptHandler+1,_UART1_FramingErrorHandler+1
  8509  0052EC  C503  F5C9         	movff	UART1_SetFramingErrorHandler@interruptHandler+2,_UART1_FramingErrorHandler+2
  8510  0052F0  0012               	return		;funcret
  8511  0052F2                     __end_of_UART1_SetFramingErrorHandler:
  8512                           	callstack 0
  8513                           
  8514 ;; *************** function _UART1_SetErrorHandler *****************
  8515 ;; Defined at:
  8516 ;;		line 208 in file "mcc_generated_files/uart1.c"
  8517 ;; Parameters:    Size  Location     Type
  8518 ;;  interruptHan    3    0[COMRAM] PTR FTN()void 
  8519 ;;		 -> UART1_DefaultErrorHandler(1), 
  8520 ;; Auto vars:     Size  Location     Type
  8521 ;;		None
  8522 ;; Return value:  Size  Location     Type
  8523 ;;                  1    wreg      void 
  8524 ;; Registers used:
  8525 ;;		wreg, status,2, status,0
  8526 ;; Tracked objects:
  8527 ;;		On entry : 0/0
  8528 ;;		On exit  : 0/0
  8529 ;;		Unchanged: 0/0
  8530 ;; Data sizes:     COMRAM   BANK5   BANK6   BANK7   BANK8   BANK9  BANK10  BANK11  BANK12  BANK13  BANK14  BANK15  BANK1
      +6  BANK17  BANK18  BANK19  BANK20  BANK21  BANK22  BANK23  BANK24  BANK25  BANK26  BANK27  BANK28  BANK29  BANK30  BANK3
      +1  BANK32  BANK33  BANK34  BANK35  BANK36  BANK37  BANK38  BANK39  BANK40  BANK41  BANK42  BANK43  BANK44  BANK45  BANK4
      +6  BANK47  BANK48  BANK49  BANK50  BANK51  BANK52  BANK53  BANK54
  8531 ;;      Params:         3       0       0       0       0       0       0       0       0       0       0       0       
      +0       0       0       0       0       0       0       0       0       0       0       0       0       0       0       
      +0       0       0       0       0       0       0       0       0       0       0       0       0       0       0       
      +0       0       0       0       0       0       0       0       0
  8532 ;;      Locals:         0       0       0       0       0       0       0       0       0       0       0       0       
      +0       0       0       0       0       0       0       0       0       0       0       0       0       0       0       
      +0       0       0       0       0       0       0       0       0       0       0       0       0       0       0       
      +0       0       0       0       0       0       0       0       0
  8533 ;;      Temps:          0       0       0       0       0       0       0       0       0       0       0       0       
      +0       0       0       0       0       0       0       0       0       0       0       0       0       0       0       
      +0       0       0       0       0       0       0       0       0       0       0       0       0       0       0       
      +0       0       0       0       0       0       0       0       0
  8534 ;;      Totals:         3       0       0       0       0       0       0       0       0       0       0       0       
      +0       0       0       0       0       0       0       0       0       0       0       0       0       0       0       
      +0       0       0       0       0       0       0       0       0       0       0       0       0       0       0       
      +0       0       0       0       0       0       0       0       0
  8535 ;;Total ram usage:        3 bytes
  8536 ;; Hardware stack levels used: 1
  8537 ;; This function calls:
  8538 ;;		Nothing
  8539 ;; This function is called by:
  8540 ;;		_UART1_Initialize
  8541 ;; This function uses a non-reentrant model
  8542 ;;
  8543                           
  8544                           	psect	text87
  8545  0052F2                     __ptext87:
  8546                           	callstack 0
  8547  0052F2                     _UART1_SetErrorHandler:
  8548                           	callstack 124
  8549  0052F2                     
  8550                           ;mcc_generated_files/uart1.c: 209:     UART1_ErrorHandler = interruptHandler;
  8551  0052F2  C501  F5C1         	movff	UART1_SetErrorHandler@interruptHandler,_UART1_ErrorHandler
  8552  0052F6  C502  F5C2         	movff	UART1_SetErrorHandler@interruptHandler+1,_UART1_ErrorHandler+1
  8553  0052FA  C503  F5C3         	movff	UART1_SetErrorHandler@interruptHandler+2,_UART1_ErrorHandler+2
  8554  0052FE  0012               	return		;funcret
  8555  005300                     __end_of_UART1_SetErrorHandler:
  8556                           	callstack 0
  8557                           
  8558 ;; *************** function _PMD_Initialize *****************
  8559 ;; Defined at:
  8560 ;;		line 74 in file "mcc_generated_files/mcc.c"
  8561 ;; Parameters:    Size  Location     Type
  8562 ;;		None
  8563 ;; Auto vars:     Size  Location     Type
  8564 ;;		None
  8565 ;; Return value:  Size  Location     Type
  8566 ;;                  1    wreg      void 
  8567 ;; Registers used:
  8568 ;;		wreg, status,2
  8569 ;; Tracked objects:
  8570 ;;		On entry : 0/0
  8571 ;;		On exit  : 0/0
  8572 ;;		Unchanged: 0/0
  8573 ;; Data sizes:     COMRAM   BANK5   BANK6   BANK7   BANK8   BANK9  BANK10  BANK11  BANK12  BANK13  BANK14  BANK15  BANK1
      +6  BANK17  BANK18  BANK19  BANK20  BANK21  BANK22  BANK23  BANK24  BANK25  BANK26  BANK27  BANK28  BANK29  BANK30  BANK3
      +1  BANK32  BANK33  BANK34  BANK35  BANK36  BANK37  BANK38  BANK39  BANK40  BANK41  BANK42  BANK43  BANK44  BANK45  BANK4
      +6  BANK47  BANK48  BANK49  BANK50  BANK51  BANK52  BANK53  BANK54
  8574 ;;      Params:         0       0       0       0       0       0       0       0       0       0       0       0       
      +0       0       0       0       0       0       0       0       0       0       0       0       0       0       0       
      +0       0       0       0       0       0       0       0       0       0       0       0       0       0       0       
      +0       0       0       0       0       0       0       0       0
  8575 ;;      Locals:         0       0       0       0       0       0       0       0       0       0       0       0       
      +0       0       0       0       0       0       0       0       0       0       0       0       0       0       0       
      +0       0       0       0       0       0       0       0       0       0       0       0       0       0       0       
      +0       0       0       0       0       0       0       0       0
  8576 ;;      Temps:          0       0       0       0       0       0       0       0       0       0       0       0       
      +0       0       0       0       0       0       0       0       0       0       0       0       0       0       0       
      +0       0       0       0       0       0       0       0       0       0       0       0       0       0       0       
      +0       0       0       0       0       0       0       0       0
  8577 ;;      Totals:         0       0       0       0       0       0       0       0       0       0       0       0       
      +0       0       0       0       0       0       0       0       0       0       0       0       0       0       0       
      +0       0       0       0       0       0       0       0       0       0       0       0       0       0       0       
      +0       0       0       0       0       0       0       0       0
  8578 ;;Total ram usage:        0 bytes
  8579 ;; Hardware stack levels used: 1
  8580 ;; This function calls:
  8581 ;;		Nothing
  8582 ;; This function is called by:
  8583 ;;		_SYSTEM_Initialize
  8584 ;; This function uses a non-reentrant model
  8585 ;;
  8586                           
  8587                           	psect	text88
  8588  00509A                     __ptext88:
  8589                           	callstack 0
  8590  00509A                     _PMD_Initialize:
  8591                           	callstack 125
  8592  00509A                     
  8593                           ;mcc_generated_files/mcc.c: 77:     PMD0 = 0x00;
  8594  00509A  0E00               	movlw	0
  8595  00509C  0100               	movlb	0	; () banked
  8596  00509E  6F60               	movwf	96,b	;volatile
  8597                           
  8598                           ;mcc_generated_files/mcc.c: 79:     PMD1 = 0x00;
  8599  0050A0  0E00               	movlw	0
  8600  0050A2  6F61               	movwf	97,b	;volatile
  8601                           
  8602                           ;mcc_generated_files/mcc.c: 81:     PMD2 = 0x00;
  8603  0050A4  0E00               	movlw	0
  8604  0050A6  6F62               	movwf	98,b	;volatile
  8605                           
  8606                           ;mcc_generated_files/mcc.c: 83:     PMD3 = 0x00;
  8607  0050A8  0E00               	movlw	0
  8608  0050AA  6F63               	movwf	99,b	;volatile
  8609                           
  8610                           ;mcc_generated_files/mcc.c: 85:     PMD4 = 0x00;
  8611  0050AC  0E00               	movlw	0
  8612  0050AE  6F64               	movwf	100,b	;volatile
  8613                           
  8614                           ;mcc_generated_files/mcc.c: 87:     PMD5 = 0x00;
  8615  0050B0  0E00               	movlw	0
  8616  0050B2  6F65               	movwf	101,b	;volatile
  8617                           
  8618                           ;mcc_generated_files/mcc.c: 89:     PMD6 = 0x00;
  8619  0050B4  0E00               	movlw	0
  8620  0050B6  6F66               	movwf	102,b	;volatile
  8621                           
  8622                           ;mcc_generated_files/mcc.c: 91:     PMD7 = 0x00;
  8623  0050B8  0E00               	movlw	0
  8624  0050BA  6F67               	movwf	103,b	;volatile
  8625                           
  8626                           ;mcc_generated_files/mcc.c: 93:     PMD8 = 0x00;
  8627  0050BC  0E00               	movlw	0
  8628  0050BE  6F68               	movwf	104,b	;volatile
  8629  0050C0                     
  8630                           ; BSR set to: 0
  8631  0050C0  0012               	return		;funcret
  8632  0050C2                     __end_of_PMD_Initialize:
  8633                           	callstack 0
  8634                           
  8635 ;; *************** function _PIN_MANAGER_Initialize *****************
  8636 ;; Defined at:
  8637 ;;		line 55 in file "mcc_generated_files/pin_manager.c"
  8638 ;; Parameters:    Size  Location     Type
  8639 ;;		None
  8640 ;; Auto vars:     Size  Location     Type
  8641 ;;		None
  8642 ;; Return value:  Size  Location     Type
  8643 ;;                  1    wreg      void 
  8644 ;; Registers used:
  8645 ;;		wreg, status,2
  8646 ;; Tracked objects:
  8647 ;;		On entry : 0/0
  8648 ;;		On exit  : 0/0
  8649 ;;		Unchanged: 0/0
  8650 ;; Data sizes:     COMRAM   BANK5   BANK6   BANK7   BANK8   BANK9  BANK10  BANK11  BANK12  BANK13  BANK14  BANK15  BANK1
      +6  BANK17  BANK18  BANK19  BANK20  BANK21  BANK22  BANK23  BANK24  BANK25  BANK26  BANK27  BANK28  BANK29  BANK30  BANK3
      +1  BANK32  BANK33  BANK34  BANK35  BANK36  BANK37  BANK38  BANK39  BANK40  BANK41  BANK42  BANK43  BANK44  BANK45  BANK4
      +6  BANK47  BANK48  BANK49  BANK50  BANK51  BANK52  BANK53  BANK54
  8651 ;;      Params:         0       0       0       0       0       0       0       0       0       0       0       0       
      +0       0       0       0       0       0       0       0       0       0       0       0       0       0       0       
      +0       0       0       0       0       0       0       0       0       0       0       0       0       0       0       
      +0       0       0       0       0       0       0       0       0
  8652 ;;      Locals:         0       0       0       0       0       0       0       0       0       0       0       0       
      +0       0       0       0       0       0       0       0       0       0       0       0       0       0       0       
      +0       0       0       0       0       0       0       0       0       0       0       0       0       0       0       
      +0       0       0       0       0       0       0       0       0
  8653 ;;      Temps:          0       0       0       0       0       0       0       0       0       0       0       0       
      +0       0       0       0       0       0       0       0       0       0       0       0       0       0       0       
      +0       0       0       0       0       0       0       0       0       0       0       0       0       0       0       
      +0       0       0       0       0       0       0       0       0
  8654 ;;      Totals:         0       0       0       0       0       0       0       0       0       0       0       0       
      +0       0       0       0       0       0       0       0       0       0       0       0       0       0       0       
      +0       0       0       0       0       0       0       0       0       0       0       0       0       0       0       
      +0       0       0       0       0       0       0       0       0
  8655 ;;Total ram usage:        0 bytes
  8656 ;; Hardware stack levels used: 1
  8657 ;; This function calls:
  8658 ;;		Nothing
  8659 ;; This function is called by:
  8660 ;;		_SYSTEM_Initialize
  8661 ;; This function uses a non-reentrant model
  8662 ;;
  8663                           
  8664                           	psect	text89
  8665  00443A                     __ptext89:
  8666                           	callstack 0
  8667  00443A                     _PIN_MANAGER_Initialize:
  8668                           	callstack 125
  8669  00443A                     
  8670                           ;mcc_generated_files/pin_manager.c: 60:     LATE = 0x00;
  8671  00443A  0E00               	movlw	0
  8672  00443C  6EC2               	movwf	194,c	;volatile
  8673                           
  8674                           ;mcc_generated_files/pin_manager.c: 61:     LATD = 0x00;
  8675  00443E  0E00               	movlw	0
  8676  004440  6EC1               	movwf	193,c	;volatile
  8677                           
  8678                           ;mcc_generated_files/pin_manager.c: 62:     LATA = 0x00;
  8679  004442  0E00               	movlw	0
  8680  004444  6EBE               	movwf	190,c	;volatile
  8681                           
  8682                           ;mcc_generated_files/pin_manager.c: 63:     LATF = 0x00;
  8683  004446  0E00               	movlw	0
  8684  004448  6EC3               	movwf	195,c	;volatile
  8685                           
  8686                           ;mcc_generated_files/pin_manager.c: 64:     LATB = 0x00;
  8687  00444A  0E00               	movlw	0
  8688  00444C  6EBF               	movwf	191,c	;volatile
  8689                           
  8690                           ;mcc_generated_files/pin_manager.c: 65:     LATC = 0x00;
  8691  00444E  0E00               	movlw	0
  8692  004450  6EC0               	movwf	192,c	;volatile
  8693                           
  8694                           ;mcc_generated_files/pin_manager.c: 70:     TRISE = 0x07;
  8695  004452  0E07               	movlw	7
  8696  004454  6ECA               	movwf	202,c	;volatile
  8697                           
  8698                           ;mcc_generated_files/pin_manager.c: 71:     TRISF = 0xF6;
  8699  004456  0EF6               	movlw	246
  8700  004458  6ECB               	movwf	203,c	;volatile
  8701  00445A                     
  8702                           ;mcc_generated_files/pin_manager.c: 72:     TRISA = 0xFF;
  8703  00445A  68C6               	setf	198,c	;volatile
  8704                           
  8705                           ;mcc_generated_files/pin_manager.c: 73:     TRISB = 0xF9;
  8706  00445C  0EF9               	movlw	249
  8707  00445E  6EC7               	movwf	199,c	;volatile
  8708  004460                     
  8709                           ;mcc_generated_files/pin_manager.c: 74:     TRISC = 0xFF;
  8710  004460  68C8               	setf	200,c	;volatile
  8711  004462                     
  8712                           ;mcc_generated_files/pin_manager.c: 75:     TRISD = 0xFF;
  8713  004462  68C9               	setf	201,c	;volatile
  8714  004464                     
  8715                           ;mcc_generated_files/pin_manager.c: 80:     ANSELD = 0xFF;
  8716  004464  0104               	movlb	4	; () banked
  8717  004466  6918               	setf	24,b	;volatile
  8718  004468                     
  8719                           ; BSR set to: 4
  8720                           ;mcc_generated_files/pin_manager.c: 81:     ANSELC = 0xFF;
  8721  004468  6910               	setf	16,b	;volatile
  8722                           
  8723                           ;mcc_generated_files/pin_manager.c: 82:     ANSELB = 0xE9;
  8724  00446A  0EE9               	movlw	233
  8725  00446C  6F08               	movwf	8,b	;volatile
  8726                           
  8727                           ;mcc_generated_files/pin_manager.c: 83:     ANSELE = 0x07;
  8728  00446E  0E07               	movlw	7
  8729  004470  6F20               	movwf	32,b	;volatile
  8730                           
  8731                           ;mcc_generated_files/pin_manager.c: 84:     ANSELF = 0xFC;
  8732  004472  0EFC               	movlw	252
  8733  004474  6F28               	movwf	40,b	;volatile
  8734                           
  8735                           ;mcc_generated_files/pin_manager.c: 85:     ANSELA = 0xF7;
  8736  004476  0EF7               	movlw	247
  8737  004478  6F00               	movwf	0,b	;volatile
  8738                           
  8739                           ;mcc_generated_files/pin_manager.c: 90:     WPUD = 0x00;
  8740  00447A  0E00               	movlw	0
  8741  00447C  6F19               	movwf	25,b	;volatile
  8742                           
  8743                           ;mcc_generated_files/pin_manager.c: 91:     WPUF = 0x00;
  8744  00447E  0E00               	movlw	0
  8745  004480  6F29               	movwf	41,b	;volatile
  8746                           
  8747                           ;mcc_generated_files/pin_manager.c: 92:     WPUE = 0x00;
  8748  004482  0E00               	movlw	0
  8749  004484  6F21               	movwf	33,b	;volatile
  8750                           
  8751                           ;mcc_generated_files/pin_manager.c: 93:     WPUB = 0x00;
  8752  004486  0E00               	movlw	0
  8753  004488  6F09               	movwf	9,b	;volatile
  8754                           
  8755                           ;mcc_generated_files/pin_manager.c: 94:     WPUA = 0x00;
  8756  00448A  0E00               	movlw	0
  8757  00448C  6F01               	movwf	1,b	;volatile
  8758                           
  8759                           ;mcc_generated_files/pin_manager.c: 95:     WPUC = 0x00;
  8760  00448E  0E00               	movlw	0
  8761  004490  6F11               	movwf	17,b	;volatile
  8762                           
  8763                           ;mcc_generated_files/pin_manager.c: 100:     ODCONE = 0x00;
  8764  004492  0E00               	movlw	0
  8765  004494  6F22               	movwf	34,b	;volatile
  8766                           
  8767                           ;mcc_generated_files/pin_manager.c: 101:     ODCONF = 0x00;
  8768  004496  0E00               	movlw	0
  8769  004498  6F2A               	movwf	42,b	;volatile
  8770                           
  8771                           ;mcc_generated_files/pin_manager.c: 102:     ODCONA = 0x00;
  8772  00449A  0E00               	movlw	0
  8773  00449C  6F02               	movwf	2,b	;volatile
  8774                           
  8775                           ;mcc_generated_files/pin_manager.c: 103:     ODCONB = 0x06;
  8776  00449E  0E06               	movlw	6
  8777  0044A0  6F0A               	movwf	10,b	;volatile
  8778                           
  8779                           ;mcc_generated_files/pin_manager.c: 104:     ODCONC = 0x18;
  8780  0044A2  0E18               	movlw	24
  8781  0044A4  6F12               	movwf	18,b	;volatile
  8782                           
  8783                           ;mcc_generated_files/pin_manager.c: 105:     ODCOND = 0x00;
  8784  0044A6  0E00               	movlw	0
  8785  0044A8  6F1A               	movwf	26,b	;volatile
  8786  0044AA                     
  8787                           ; BSR set to: 4
  8788                           ;mcc_generated_files/pin_manager.c: 110:     SLRCONA = 0xFF;
  8789  0044AA  6903               	setf	3,b	;volatile
  8790  0044AC                     
  8791                           ; BSR set to: 4
  8792                           ;mcc_generated_files/pin_manager.c: 111:     SLRCONB = 0xFF;
  8793  0044AC  690B               	setf	11,b	;volatile
  8794  0044AE                     
  8795                           ; BSR set to: 4
  8796                           ;mcc_generated_files/pin_manager.c: 112:     SLRCONC = 0xFF;
  8797  0044AE  6913               	setf	19,b	;volatile
  8798  0044B0                     
  8799                           ; BSR set to: 4
  8800                           ;mcc_generated_files/pin_manager.c: 113:     SLRCOND = 0xFF;
  8801  0044B0  691B               	setf	27,b	;volatile
  8802                           
  8803                           ;mcc_generated_files/pin_manager.c: 114:     SLRCONE = 0x07;
  8804  0044B2  0E07               	movlw	7
  8805  0044B4  6F23               	movwf	35,b	;volatile
  8806  0044B6                     
  8807                           ; BSR set to: 4
  8808                           ;mcc_generated_files/pin_manager.c: 115:     SLRCONF = 0xFF;
  8809  0044B6  692B               	setf	43,b	;volatile
  8810  0044B8                     
  8811                           ; BSR set to: 4
  8812                           ;mcc_generated_files/pin_manager.c: 120:     INLVLA = 0xFF;
  8813  0044B8  6904               	setf	4,b	;volatile
  8814  0044BA                     
  8815                           ; BSR set to: 4
  8816                           ;mcc_generated_files/pin_manager.c: 121:     INLVLB = 0xFF;
  8817  0044BA  690C               	setf	12,b	;volatile
  8818  0044BC                     
  8819                           ; BSR set to: 4
  8820                           ;mcc_generated_files/pin_manager.c: 122:     INLVLC = 0xFF;
  8821  0044BC  6914               	setf	20,b	;volatile
  8822  0044BE                     
  8823                           ; BSR set to: 4
  8824                           ;mcc_generated_files/pin_manager.c: 123:     INLVLD = 0xFF;
  8825  0044BE  691C               	setf	28,b	;volatile
  8826                           
  8827                           ;mcc_generated_files/pin_manager.c: 124:     INLVLE = 0x0F;
  8828  0044C0  0E0F               	movlw	15
  8829  0044C2  6F24               	movwf	36,b	;volatile
  8830  0044C4                     
  8831                           ; BSR set to: 4
  8832                           ;mcc_generated_files/pin_manager.c: 125:     INLVLF = 0xFF;
  8833  0044C4  692C               	setf	44,b	;volatile
  8834                           
  8835                           ;mcc_generated_files/pin_manager.c: 134:     ADACTPPS = 0x0C;
  8836  0044C6  0E0C               	movlw	12
  8837  0044C8  0102               	movlb	2	; () banked
  8838  0044CA  6F69               	movwf	105,b	;volatile
  8839                           
  8840                           ;mcc_generated_files/pin_manager.c: 135:     I2C1SDAPPS = 0x0A;
  8841  0044CC  0E0A               	movlw	10
  8842  0044CE  6F70               	movwf	112,b	;volatile
  8843                           
  8844                           ;mcc_generated_files/pin_manager.c: 136:     RB1PPS = 0x37;
  8845  0044D0  0E37               	movlw	55
  8846  0044D2  6F0A               	movwf	10,b	;volatile
  8847                           
  8848                           ;mcc_generated_files/pin_manager.c: 137:     RB2PPS = 0x38;
  8849  0044D4  0E38               	movlw	56
  8850  0044D6  6F0B               	movwf	11,b	;volatile
  8851                           
  8852                           ;mcc_generated_files/pin_manager.c: 138:     RF0PPS = 0x20;
  8853  0044D8  0E20               	movlw	32
  8854  0044DA  6F29               	movwf	41,b	;volatile
  8855                           
  8856                           ;mcc_generated_files/pin_manager.c: 139:     U1RXPPS = 0x29;
  8857  0044DC  0E29               	movlw	41
  8858  0044DE  6F72               	movwf	114,b	;volatile
  8859                           
  8860                           ;mcc_generated_files/pin_manager.c: 140:     I2C1SCLPPS = 0x09;
  8861  0044E0  0E09               	movlw	9
  8862  0044E2  6F71               	movwf	113,b	;volatile
  8863  0044E4                     
  8864                           ; BSR set to: 2
  8865  0044E4  0012               	return		;funcret
  8866  0044E6                     __end_of_PIN_MANAGER_Initialize:
  8867                           	callstack 0
  8868                           
  8869 ;; *************** function _OSCILLATOR_Initialize *****************
  8870 ;; Defined at:
  8871 ;;		line 60 in file "mcc_generated_files/mcc.c"
  8872 ;; Parameters:    Size  Location     Type
  8873 ;;		None
  8874 ;; Auto vars:     Size  Location     Type
  8875 ;;		None
  8876 ;; Return value:  Size  Location     Type
  8877 ;;                  1    wreg      void 
  8878 ;; Registers used:
  8879 ;;		wreg, status,2
  8880 ;; Tracked objects:
  8881 ;;		On entry : 0/0
  8882 ;;		On exit  : 0/0
  8883 ;;		Unchanged: 0/0
  8884 ;; Data sizes:     COMRAM   BANK5   BANK6   BANK7   BANK8   BANK9  BANK10  BANK11  BANK12  BANK13  BANK14  BANK15  BANK1
      +6  BANK17  BANK18  BANK19  BANK20  BANK21  BANK22  BANK23  BANK24  BANK25  BANK26  BANK27  BANK28  BANK29  BANK30  BANK3
      +1  BANK32  BANK33  BANK34  BANK35  BANK36  BANK37  BANK38  BANK39  BANK40  BANK41  BANK42  BANK43  BANK44  BANK45  BANK4
      +6  BANK47  BANK48  BANK49  BANK50  BANK51  BANK52  BANK53  BANK54
  8885 ;;      Params:         0       0       0       0       0       0       0       0       0       0       0       0       
      +0       0       0       0       0       0       0       0       0       0       0       0       0       0       0       
      +0       0       0       0       0       0       0       0       0       0       0       0       0       0       0       
      +0       0       0       0       0       0       0       0       0
  8886 ;;      Locals:         0       0       0       0       0       0       0       0       0       0       0       0       
      +0       0       0       0       0       0       0       0       0       0       0       0       0       0       0       
      +0       0       0       0       0       0       0       0       0       0       0       0       0       0       0       
      +0       0       0       0       0       0       0       0       0
  8887 ;;      Temps:          0       0       0       0       0       0       0       0       0       0       0       0       
      +0       0       0       0       0       0       0       0       0       0       0       0       0       0       0       
      +0       0       0       0       0       0       0       0       0       0       0       0       0       0       0       
      +0       0       0       0       0       0       0       0       0
  8888 ;;      Totals:         0       0       0       0       0       0       0       0       0       0       0       0       
      +0       0       0       0       0       0       0       0       0       0       0       0       0       0       0       
      +0       0       0       0       0       0       0       0       0       0       0       0       0       0       0       
      +0       0       0       0       0       0       0       0       0
  8889 ;;Total ram usage:        0 bytes
  8890 ;; Hardware stack levels used: 1
  8891 ;; This function calls:
  8892 ;;		Nothing
  8893 ;; This function is called by:
  8894 ;;		_SYSTEM_Initialize
  8895 ;; This function uses a non-reentrant model
  8896 ;;
  8897                           
  8898                           	psect	text90
  8899  0051C4                     __ptext90:
  8900                           	callstack 0
  8901  0051C4                     _OSCILLATOR_Initialize:
  8902                           	callstack 125
  8903  0051C4                     
  8904                           ;mcc_generated_files/mcc.c: 63:     OSCCON1 = 0x70;
  8905  0051C4  0E70               	movlw	112
  8906  0051C6  0100               	movlb	0	; () banked
  8907  0051C8  6FAD               	movwf	173,b	;volatile
  8908                           
  8909                           ;mcc_generated_files/mcc.c: 65:     OSCCON3 = 0x00;
  8910  0051CA  0E00               	movlw	0
  8911  0051CC  6FAF               	movwf	175,b	;volatile
  8912                           
  8913                           ;mcc_generated_files/mcc.c: 67:     OSCEN = 0x00;
  8914  0051CE  0E00               	movlw	0
  8915  0051D0  6FB3               	movwf	179,b	;volatile
  8916                           
  8917                           ;mcc_generated_files/mcc.c: 69:     OSCFRQ = 0x02;
  8918  0051D2  0E02               	movlw	2
  8919  0051D4  6FB1               	movwf	177,b	;volatile
  8920                           
  8921                           ;mcc_generated_files/mcc.c: 71:     OSCTUNE = 0x00;
  8922  0051D6  0E00               	movlw	0
  8923  0051D8  6FB0               	movwf	176,b	;volatile
  8924  0051DA                     
  8925                           ; BSR set to: 0
  8926  0051DA  0012               	return		;funcret
  8927  0051DC                     __end_of_OSCILLATOR_Initialize:
  8928                           	callstack 0
  8929                           
  8930 ;; *************** function _I2C1_Initialize *****************
  8931 ;; Defined at:
  8932 ;;		line 183 in file "mcc_generated_files/i2c1_master.c"
  8933 ;; Parameters:    Size  Location     Type
  8934 ;;		None
  8935 ;; Auto vars:     Size  Location     Type
  8936 ;;		None
  8937 ;; Return value:  Size  Location     Type
  8938 ;;                  1    wreg      void 
  8939 ;; Registers used:
  8940 ;;		wreg, status,2
  8941 ;; Tracked objects:
  8942 ;;		On entry : 0/0
  8943 ;;		On exit  : 0/0
  8944 ;;		Unchanged: 0/0
  8945 ;; Data sizes:     COMRAM   BANK5   BANK6   BANK7   BANK8   BANK9  BANK10  BANK11  BANK12  BANK13  BANK14  BANK15  BANK1
      +6  BANK17  BANK18  BANK19  BANK20  BANK21  BANK22  BANK23  BANK24  BANK25  BANK26  BANK27  BANK28  BANK29  BANK30  BANK3
      +1  BANK32  BANK33  BANK34  BANK35  BANK36  BANK37  BANK38  BANK39  BANK40  BANK41  BANK42  BANK43  BANK44  BANK45  BANK4
      +6  BANK47  BANK48  BANK49  BANK50  BANK51  BANK52  BANK53  BANK54
  8946 ;;      Params:         0       0       0       0       0       0       0       0       0       0       0       0       
      +0       0       0       0       0       0       0       0       0       0       0       0       0       0       0       
      +0       0       0       0       0       0       0       0       0       0       0       0       0       0       0       
      +0       0       0       0       0       0       0       0       0
  8947 ;;      Locals:         0       0       0       0       0       0       0       0       0       0       0       0       
      +0       0       0       0       0       0       0       0       0       0       0       0       0       0       0       
      +0       0       0       0       0       0       0       0       0       0       0       0       0       0       0       
      +0       0       0       0       0       0       0       0       0
  8948 ;;      Temps:          0       0       0       0       0       0       0       0       0       0       0       0       
      +0       0       0       0       0       0       0       0       0       0       0       0       0       0       0       
      +0       0       0       0       0       0       0       0       0       0       0       0       0       0       0       
      +0       0       0       0       0       0       0       0       0
  8949 ;;      Totals:         0       0       0       0       0       0       0       0       0       0       0       0       
      +0       0       0       0       0       0       0       0       0       0       0       0       0       0       0       
      +0       0       0       0       0       0       0       0       0       0       0       0       0       0       0       
      +0       0       0       0       0       0       0       0       0
  8950 ;;Total ram usage:        0 bytes
  8951 ;; Hardware stack levels used: 1
  8952 ;; This function calls:
  8953 ;;		Nothing
  8954 ;; This function is called by:
  8955 ;;		_SYSTEM_Initialize
  8956 ;; This function uses a non-reentrant model
  8957 ;;
  8958                           
  8959                           	psect	text91
  8960  00501E                     __ptext91:
  8961                           	callstack 0
  8962  00501E                     _I2C1_Initialize:
  8963                           	callstack 125
  8964  00501E                     
  8965                           ;mcc_generated_files/i2c1_master.c: 186:     I2C1CON0 = 0x04;
  8966  00501E  0E04               	movlw	4
  8967  005020  0102               	movlb	2	; () banked
  8968  005022  6F94               	movwf	148,b	;volatile
  8969                           
  8970                           ;mcc_generated_files/i2c1_master.c: 188:     I2C1CON1 = 0x80;
  8971  005024  0E80               	movlw	128
  8972  005026  6F95               	movwf	149,b	;volatile
  8973                           
  8974                           ;mcc_generated_files/i2c1_master.c: 190:     I2C1CON2 = 0x18;
  8975  005028  0E18               	movlw	24
  8976  00502A  6F96               	movwf	150,b	;volatile
  8977                           
  8978                           ;mcc_generated_files/i2c1_master.c: 192:     I2C1CLK = 0x03;
  8979  00502C  0E03               	movlw	3
  8980  00502E  6F9E               	movwf	158,b	;volatile
  8981                           
  8982                           ;mcc_generated_files/i2c1_master.c: 194:     I2C1PIR = 0x00;
  8983  005030  0E00               	movlw	0
  8984  005032  6F9A               	movwf	154,b	;volatile
  8985                           
  8986                           ;mcc_generated_files/i2c1_master.c: 196:     I2C1PIE = 0x00;
  8987  005034  0E00               	movlw	0
  8988  005036  6F9B               	movwf	155,b	;volatile
  8989                           
  8990                           ;mcc_generated_files/i2c1_master.c: 198:     I2C1ERR = 0x00;
  8991  005038  0E00               	movlw	0
  8992  00503A  6F97               	movwf	151,b	;volatile
  8993                           
  8994                           ;mcc_generated_files/i2c1_master.c: 200:     I2C1CNTL = 0x00;
  8995  00503C  0E00               	movlw	0
  8996  00503E  6F8C               	movwf	140,b	;volatile
  8997                           
  8998                           ;mcc_generated_files/i2c1_master.c: 201:     I2C1CNTH = 0x00;
  8999  005040  0E00               	movlw	0
  9000  005042  6F8D               	movwf	141,b	;volatile
  9001                           
  9002                           ;mcc_generated_files/i2c1_master.c: 203:     I2C1BAUD = 0x00;
  9003  005044  0E00               	movlw	0
  9004  005046  6F9D               	movwf	157,b	;volatile
  9005  005048                     
  9006                           ; BSR set to: 2
  9007  005048  0012               	return		;funcret
  9008  00504A                     __end_of_I2C1_Initialize:
  9009                           	callstack 0
  9010                           
  9011 ;; *************** function _ADC_Initialize *****************
  9012 ;; Defined at:
  9013 ;;		line 65 in file "mcc_generated_files/adc.c"
  9014 ;; Parameters:    Size  Location     Type
  9015 ;;		None
  9016 ;; Auto vars:     Size  Location     Type
  9017 ;;		None
  9018 ;; Return value:  Size  Location     Type
  9019 ;;                  1    wreg      void 
  9020 ;; Registers used:
  9021 ;;		wreg, status,2, status,0, cstack
  9022 ;; Tracked objects:
  9023 ;;		On entry : 0/0
  9024 ;;		On exit  : 0/0
  9025 ;;		Unchanged: 0/0
  9026 ;; Data sizes:     COMRAM   BANK5   BANK6   BANK7   BANK8   BANK9  BANK10  BANK11  BANK12  BANK13  BANK14  BANK15  BANK1
      +6  BANK17  BANK18  BANK19  BANK20  BANK21  BANK22  BANK23  BANK24  BANK25  BANK26  BANK27  BANK28  BANK29  BANK30  BANK3
      +1  BANK32  BANK33  BANK34  BANK35  BANK36  BANK37  BANK38  BANK39  BANK40  BANK41  BANK42  BANK43  BANK44  BANK45  BANK4
      +6  BANK47  BANK48  BANK49  BANK50  BANK51  BANK52  BANK53  BANK54
  9027 ;;      Params:         0       0       0       0       0       0       0       0       0       0       0       0       
      +0       0       0       0       0       0       0       0       0       0       0       0       0       0       0       
      +0       0       0       0       0       0       0       0       0       0       0       0       0       0       0       
      +0       0       0       0       0       0       0       0       0
  9028 ;;      Locals:         0       0       0       0       0       0       0       0       0       0       0       0       
      +0       0       0       0       0       0       0       0       0       0       0       0       0       0       0       
      +0       0       0       0       0       0       0       0       0       0       0       0       0       0       0       
      +0       0       0       0       0       0       0       0       0
  9029 ;;      Temps:          0       0       0       0       0       0       0       0       0       0       0       0       
      +0       0       0       0       0       0       0       0       0       0       0       0       0       0       0       
      +0       0       0       0       0       0       0       0       0       0       0       0       0       0       0       
      +0       0       0       0       0       0       0       0       0
  9030 ;;      Totals:         0       0       0       0       0       0       0       0       0       0       0       0       
      +0       0       0       0       0       0       0       0       0       0       0       0       0       0       0       
      +0       0       0       0       0       0       0       0       0       0       0       0       0       0       0       
      +0       0       0       0       0       0       0       0       0
  9031 ;;Total ram usage:        0 bytes
  9032 ;; Hardware stack levels used: 1
  9033 ;; Hardware stack levels required when called: 1
  9034 ;; This function calls:
  9035 ;;		_ADC_SetADIInterruptHandler
  9036 ;;		_ADC_SetActiveClockTuningInterruptHandler
  9037 ;;		_ADC_SetContext1ThresholdInterruptHandler
  9038 ;; This function is called by:
  9039 ;;		_SYSTEM_Initialize
  9040 ;; This function uses a non-reentrant model
  9041 ;;
  9042                           
  9043                           	psect	text92
  9044  004382                     __ptext92:
  9045                           	callstack 0
  9046  004382                     _ADC_Initialize:
  9047                           	callstack 124
  9048  004382                     
  9049                           ;mcc_generated_files/adc.c: 68:     ADACT = 0x00;
  9050  004382  0E00               	movlw	0
  9051  004384  0103               	movlb	3	; () banked
  9052  004386  6FF9               	movwf	249,b	;volatile
  9053                           
  9054                           ;mcc_generated_files/adc.c: 71:     ADCLK = 0x00;
  9055  004388  0E00               	movlw	0
  9056  00438A  6FFA               	movwf	250,b	;volatile
  9057                           
  9058                           ;mcc_generated_files/adc.c: 74:     ADCP = 0x00;
  9059  00438C  0E00               	movlw	0
  9060  00438E  6FD8               	movwf	216,b	;volatile
  9061                           
  9062                           ;mcc_generated_files/adc.c: 80:     ADCTX = 0x0;
  9063  004390  0E00               	movlw	0
  9064  004392  6FFB               	movwf	251,b	;volatile
  9065                           
  9066                           ;mcc_generated_files/adc.c: 83:     ADLTHL = 0x00;
  9067  004394  0E00               	movlw	0
  9068  004396  6FD9               	movwf	217,b	;volatile
  9069                           
  9070                           ;mcc_generated_files/adc.c: 86:     ADLTHH = 0x00;
  9071  004398  0E00               	movlw	0
  9072  00439A  6FDA               	movwf	218,b	;volatile
  9073                           
  9074                           ;mcc_generated_files/adc.c: 89:     ADUTHL = 0x00;
  9075  00439C  0E00               	movlw	0
  9076  00439E  6FDB               	movwf	219,b	;volatile
  9077                           
  9078                           ;mcc_generated_files/adc.c: 92:     ADUTHH = 0x00;
  9079  0043A0  0E00               	movlw	0
  9080  0043A2  6FDC               	movwf	220,b	;volatile
  9081                           
  9082                           ;mcc_generated_files/adc.c: 95:     ADSTPTL = 0x00;
  9083  0043A4  0E00               	movlw	0
  9084  0043A6  6FDF               	movwf	223,b	;volatile
  9085                           
  9086                           ;mcc_generated_files/adc.c: 98:     ADSTPTH = 0x00;
  9087  0043A8  0E00               	movlw	0
  9088  0043AA  6FE0               	movwf	224,b	;volatile
  9089                           
  9090                           ;mcc_generated_files/adc.c: 101:     ADACCL = 0x00;
  9091  0043AC  0E00               	movlw	0
  9092  0043AE  6FE3               	movwf	227,b	;volatile
  9093                           
  9094                           ;mcc_generated_files/adc.c: 104:     ADACCH = 0x00;
  9095  0043B0  0E00               	movlw	0
  9096  0043B2  6FE4               	movwf	228,b	;volatile
  9097                           
  9098                           ;mcc_generated_files/adc.c: 107:     ADACCU = 0x00;
  9099  0043B4  0E00               	movlw	0
  9100  0043B6  6FE5               	movwf	229,b	;volatile
  9101                           
  9102                           ;mcc_generated_files/adc.c: 110:     ADCNT = 0x00;
  9103  0043B8  0E00               	movlw	0
  9104  0043BA  6FE6               	movwf	230,b	;volatile
  9105                           
  9106                           ;mcc_generated_files/adc.c: 113:     ADRPT = 0x00;
  9107  0043BC  0E00               	movlw	0
  9108  0043BE  6FE7               	movwf	231,b	;volatile
  9109                           
  9110                           ;mcc_generated_files/adc.c: 116:     ADRESL = 0x00;
  9111  0043C0  0E00               	movlw	0
  9112  0043C2  6FEA               	movwf	234,b	;volatile
  9113                           
  9114                           ;mcc_generated_files/adc.c: 119:     ADRESH = 0x00;
  9115  0043C4  0E00               	movlw	0
  9116  0043C6  6FEB               	movwf	235,b	;volatile
  9117                           
  9118                           ;mcc_generated_files/adc.c: 122:     ADPCH = 0x05;
  9119  0043C8  0E05               	movlw	5
  9120  0043CA  6FEC               	movwf	236,b	;volatile
  9121                           
  9122                           ;mcc_generated_files/adc.c: 125:     ADACQL = 0x00;
  9123  0043CC  0E00               	movlw	0
  9124  0043CE  6FEE               	movwf	238,b	;volatile
  9125                           
  9126                           ;mcc_generated_files/adc.c: 128:     ADACQH = 0x00;
  9127  0043D0  0E00               	movlw	0
  9128  0043D2  6FEF               	movwf	239,b	;volatile
  9129                           
  9130                           ;mcc_generated_files/adc.c: 131:     ADCAP = 0x00;
  9131  0043D4  0E00               	movlw	0
  9132  0043D6  6FF0               	movwf	240,b	;volatile
  9133                           
  9134                           ;mcc_generated_files/adc.c: 134:     ADPREL = 0x00;
  9135  0043D8  0E00               	movlw	0
  9136  0043DA  6FF1               	movwf	241,b	;volatile
  9137                           
  9138                           ;mcc_generated_files/adc.c: 137:     ADPREH = 0x00;
  9139  0043DC  0E00               	movlw	0
  9140  0043DE  6FF2               	movwf	242,b	;volatile
  9141                           
  9142                           ;mcc_generated_files/adc.c: 140:     ADCON0 = 0x00;
  9143  0043E0  0E00               	movlw	0
  9144  0043E2  6FF3               	movwf	243,b	;volatile
  9145                           
  9146                           ;mcc_generated_files/adc.c: 143:     ADCON1 = 0x00;
  9147  0043E4  0E00               	movlw	0
  9148  0043E6  6FF4               	movwf	244,b	;volatile
  9149                           
  9150                           ;mcc_generated_files/adc.c: 146:     ADCON2 = 0x10;
  9151  0043E8  0E10               	movlw	16
  9152  0043EA  6FF5               	movwf	245,b	;volatile
  9153                           
  9154                           ;mcc_generated_files/adc.c: 149:     ADCON3 = 0x00;
  9155  0043EC  0E00               	movlw	0
  9156  0043EE  6FF6               	movwf	246,b	;volatile
  9157                           
  9158                           ;mcc_generated_files/adc.c: 152:     ADSTAT = 0x00;
  9159  0043F0  0E00               	movlw	0
  9160  0043F2  6FF7               	movwf	247,b	;volatile
  9161                           
  9162                           ;mcc_generated_files/adc.c: 155:     ADREF = 0x00;
  9163  0043F4  0E00               	movlw	0
  9164  0043F6  6FF8               	movwf	248,b	;volatile
  9165                           
  9166                           ;mcc_generated_files/adc.c: 158:     ADCSEL1 = 0x00;
  9167  0043F8  0E00               	movlw	0
  9168  0043FA  6FFC               	movwf	252,b	;volatile
  9169  0043FC                     
  9170                           ; BSR set to: 3
  9171                           ;mcc_generated_files/adc.c: 161:     PIR1bits.ADIF = 0;
  9172  0043FC  94AF               	bcf	175,2,c	;volatile
  9173  0043FE                     
  9174                           ; BSR set to: 3
  9175                           ;mcc_generated_files/adc.c: 164:     PIR1bits.ACTIF = 0;
  9176  0043FE  96AF               	bcf	175,3,c	;volatile
  9177  004400                     
  9178                           ; BSR set to: 3
  9179                           ;mcc_generated_files/adc.c: 167:     PIR2bits.ADCH1IF = 0;
  9180  004400  90B0               	bcf	176,0,c	;volatile
  9181  004402                     
  9182                           ; BSR set to: 3
  9183                           ;mcc_generated_files/adc.c: 171:     ADC_SetADIInterruptHandler(ADC_DefaultADI_ISR);
  9184  004402  0E00               	movlw	0
  9185  004404  6E01               	movwf	ADC_SetADIInterruptHandler@InterruptHandler^(0+1280),c
  9186  004406  0E00               	movlw	0
  9187  004408  6E02               	movwf	(ADC_SetADIInterruptHandler@InterruptHandler+1)^(0+1280),c
  9188  00440A  0E00               	movlw	0
  9189  00440C  6E03               	movwf	(ADC_SetADIInterruptHandler@InterruptHandler+2)^(0+1280),c
  9190  00440E  EC8E  F029         	call	_ADC_SetADIInterruptHandler	;wreg free
  9191  004412                     
  9192                           ;mcc_generated_files/adc.c: 172:     ADC_SetContext1ThresholdInterruptHandler(ADC_Defaul
      +                          tContext1Threshold_ISR);
  9193  004412  0E00               	movlw	0
  9194  004414  6E01               	movwf	ADC_SetContext1ThresholdInterruptHandler@InterruptHandler^(0+1280),c
  9195  004416  0E00               	movlw	0
  9196  004418  6E02               	movwf	(ADC_SetContext1ThresholdInterruptHandler@InterruptHandler+1)^(0+1280),c
  9197  00441A  0E00               	movlw	0
  9198  00441C  6E03               	movwf	(ADC_SetContext1ThresholdInterruptHandler@InterruptHandler+2)^(0+1280),c
  9199  00441E  EC80  F029         	call	_ADC_SetContext1ThresholdInterruptHandler	;wreg free
  9200  004422                     
  9201                           ;mcc_generated_files/adc.c: 173:     ADC_SetActiveClockTuningInterruptHandler(ADC_Defaul
      +                          tActiveClockTuning_ISR);
  9202  004422  0E00               	movlw	0
  9203  004424  6E01               	movwf	ADC_SetActiveClockTuningInterruptHandler@InterruptHandler^(0+1280),c
  9204  004426  0E00               	movlw	0
  9205  004428  6E02               	movwf	(ADC_SetActiveClockTuningInterruptHandler@InterruptHandler+1)^(0+1280),c
  9206  00442A  0E00               	movlw	0
  9207  00442C  6E03               	movwf	(ADC_SetActiveClockTuningInterruptHandler@InterruptHandler+2)^(0+1280),c
  9208  00442E  EC87  F029         	call	_ADC_SetActiveClockTuningInterruptHandler	;wreg free
  9209  004432                     
  9210                           ;mcc_generated_files/adc.c: 176:     ADCON0 = 0x84;
  9211  004432  0E84               	movlw	132
  9212  004434  0103               	movlb	3	; () banked
  9213  004436  6FF3               	movwf	243,b	;volatile
  9214  004438                     
  9215                           ; BSR set to: 3
  9216  004438  0012               	return		;funcret
  9217  00443A                     __end_of_ADC_Initialize:
  9218                           	callstack 0
  9219                           
  9220 ;; *************** function _ADC_SetContext1ThresholdInterruptHandler *****************
  9221 ;; Defined at:
  9222 ;;		line 423 in file "mcc_generated_files/adc.c"
  9223 ;; Parameters:    Size  Location     Type
  9224 ;;  InterruptHan    3    0[COMRAM] PTR FTN()void 
  9225 ;;		 -> ADC_DefaultContext1Threshold_ISR(1), 
  9226 ;; Auto vars:     Size  Location     Type
  9227 ;;		None
  9228 ;; Return value:  Size  Location     Type
  9229 ;;                  1    wreg      void 
  9230 ;; Registers used:
  9231 ;;		wreg, status,2, status,0
  9232 ;; Tracked objects:
  9233 ;;		On entry : 0/0
  9234 ;;		On exit  : 0/0
  9235 ;;		Unchanged: 0/0
  9236 ;; Data sizes:     COMRAM   BANK5   BANK6   BANK7   BANK8   BANK9  BANK10  BANK11  BANK12  BANK13  BANK14  BANK15  BANK1
      +6  BANK17  BANK18  BANK19  BANK20  BANK21  BANK22  BANK23  BANK24  BANK25  BANK26  BANK27  BANK28  BANK29  BANK30  BANK3
      +1  BANK32  BANK33  BANK34  BANK35  BANK36  BANK37  BANK38  BANK39  BANK40  BANK41  BANK42  BANK43  BANK44  BANK45  BANK4
      +6  BANK47  BANK48  BANK49  BANK50  BANK51  BANK52  BANK53  BANK54
  9237 ;;      Params:         3       0       0       0       0       0       0       0       0       0       0       0       
      +0       0       0       0       0       0       0       0       0       0       0       0       0       0       0       
      +0       0       0       0       0       0       0       0       0       0       0       0       0       0       0       
      +0       0       0       0       0       0       0       0       0
  9238 ;;      Locals:         0       0       0       0       0       0       0       0       0       0       0       0       
      +0       0       0       0       0       0       0       0       0       0       0       0       0       0       0       
      +0       0       0       0       0       0       0       0       0       0       0       0       0       0       0       
      +0       0       0       0       0       0       0       0       0
  9239 ;;      Temps:          0       0       0       0       0       0       0       0       0       0       0       0       
      +0       0       0       0       0       0       0       0       0       0       0       0       0       0       0       
      +0       0       0       0       0       0       0       0       0       0       0       0       0       0       0       
      +0       0       0       0       0       0       0       0       0
  9240 ;;      Totals:         3       0       0       0       0       0       0       0       0       0       0       0       
      +0       0       0       0       0       0       0       0       0       0       0       0       0       0       0       
      +0       0       0       0       0       0       0       0       0       0       0       0       0       0       0       
      +0       0       0       0       0       0       0       0       0
  9241 ;;Total ram usage:        3 bytes
  9242 ;; Hardware stack levels used: 1
  9243 ;; This function calls:
  9244 ;;		Nothing
  9245 ;; This function is called by:
  9246 ;;		_ADC_Initialize
  9247 ;; This function uses a non-reentrant model
  9248 ;;
  9249                           
  9250                           	psect	text93
  9251  005300                     __ptext93:
  9252                           	callstack 0
  9253  005300                     _ADC_SetContext1ThresholdInterruptHandler:
  9254                           	callstack 124
  9255  005300                     
  9256                           ;mcc_generated_files/adc.c: 423: void ADC_SetContext1ThresholdInterruptHandler(void (* I
      +                          nterruptHandler)(void));mcc_generated_files/adc.c: 424: {;mcc_generated_files/adc.c: 425
      +                          :     ADC_Context1Thereshld_ISR = InterruptHandler;
  9257  005300  C501  F5BB         	movff	ADC_SetContext1ThresholdInterruptHandler@InterruptHandler,_ADC_Context1Thereshld_
      +                          ISR
  9258  005304  C502  F5BC         	movff	ADC_SetContext1ThresholdInterruptHandler@InterruptHandler+1,_ADC_Context1Thereshl
      +                          d_ISR+1
  9259  005308  C503  F5BD         	movff	ADC_SetContext1ThresholdInterruptHandler@InterruptHandler+2,_ADC_Context1Thereshl
      +                          d_ISR+2
  9260  00530C  0012               	return		;funcret
  9261  00530E                     __end_of_ADC_SetContext1ThresholdInterruptHandler:
  9262                           	callstack 0
  9263                           
  9264 ;; *************** function _ADC_SetActiveClockTuningInterruptHandler *****************
  9265 ;; Defined at:
  9266 ;;		line 428 in file "mcc_generated_files/adc.c"
  9267 ;; Parameters:    Size  Location     Type
  9268 ;;  InterruptHan    3    0[COMRAM] PTR FTN()void 
  9269 ;;		 -> ADC_DefaultActiveClockTuning_ISR(1), 
  9270 ;; Auto vars:     Size  Location     Type
  9271 ;;		None
  9272 ;; Return value:  Size  Location     Type
  9273 ;;                  1    wreg      void 
  9274 ;; Registers used:
  9275 ;;		wreg, status,2, status,0
  9276 ;; Tracked objects:
  9277 ;;		On entry : 0/0
  9278 ;;		On exit  : 0/0
  9279 ;;		Unchanged: 0/0
  9280 ;; Data sizes:     COMRAM   BANK5   BANK6   BANK7   BANK8   BANK9  BANK10  BANK11  BANK12  BANK13  BANK14  BANK15  BANK1
      +6  BANK17  BANK18  BANK19  BANK20  BANK21  BANK22  BANK23  BANK24  BANK25  BANK26  BANK27  BANK28  BANK29  BANK30  BANK3
      +1  BANK32  BANK33  BANK34  BANK35  BANK36  BANK37  BANK38  BANK39  BANK40  BANK41  BANK42  BANK43  BANK44  BANK45  BANK4
      +6  BANK47  BANK48  BANK49  BANK50  BANK51  BANK52  BANK53  BANK54
  9281 ;;      Params:         3       0       0       0       0       0       0       0       0       0       0       0       
      +0       0       0       0       0       0       0       0       0       0       0       0       0       0       0       
      +0       0       0       0       0       0       0       0       0       0       0       0       0       0       0       
      +0       0       0       0       0       0       0       0       0
  9282 ;;      Locals:         0       0       0       0       0       0       0       0       0       0       0       0       
      +0       0       0       0       0       0       0       0       0       0       0       0       0       0       0       
      +0       0       0       0       0       0       0       0       0       0       0       0       0       0       0       
      +0       0       0       0       0       0       0       0       0
  9283 ;;      Temps:          0       0       0       0       0       0       0       0       0       0       0       0       
      +0       0       0       0       0       0       0       0       0       0       0       0       0       0       0       
      +0       0       0       0       0       0       0       0       0       0       0       0       0       0       0       
      +0       0       0       0       0       0       0       0       0
  9284 ;;      Totals:         3       0       0       0       0       0       0       0       0       0       0       0       
      +0       0       0       0       0       0       0       0       0       0       0       0       0       0       0       
      +0       0       0       0       0       0       0       0       0       0       0       0       0       0       0       
      +0       0       0       0       0       0       0       0       0
  9285 ;;Total ram usage:        3 bytes
  9286 ;; Hardware stack levels used: 1
  9287 ;; This function calls:
  9288 ;;		Nothing
  9289 ;; This function is called by:
  9290 ;;		_ADC_Initialize
  9291 ;; This function uses a non-reentrant model
  9292 ;;
  9293                           
  9294                           	psect	text94
  9295  00530E                     __ptext94:
  9296                           	callstack 0
  9297  00530E                     _ADC_SetActiveClockTuningInterruptHandler:
  9298                           	callstack 124
  9299  00530E                     
  9300                           ;mcc_generated_files/adc.c: 428: void ADC_SetActiveClockTuningInterruptHandler(void (* I
      +                          nterruptHandler)(void));mcc_generated_files/adc.c: 429: {;mcc_generated_files/adc.c: 430
      +                          :     ADC_ActiveClockTuning_ISR = InterruptHandler;
  9301  00530E  C501  F5B8         	movff	ADC_SetActiveClockTuningInterruptHandler@InterruptHandler,_ADC_ActiveClockTuning_
      +                          ISR
  9302  005312  C502  F5B9         	movff	ADC_SetActiveClockTuningInterruptHandler@InterruptHandler+1,_ADC_ActiveClockTunin
      +                          g_ISR+1
  9303  005316  C503  F5BA         	movff	ADC_SetActiveClockTuningInterruptHandler@InterruptHandler+2,_ADC_ActiveClockTunin
      +                          g_ISR+2
  9304  00531A  0012               	return		;funcret
  9305  00531C                     __end_of_ADC_SetActiveClockTuningInterruptHandler:
  9306                           	callstack 0
  9307                           
  9308 ;; *************** function _ADC_SetADIInterruptHandler *****************
  9309 ;; Defined at:
  9310 ;;		line 418 in file "mcc_generated_files/adc.c"
  9311 ;; Parameters:    Size  Location     Type
  9312 ;;  InterruptHan    3    0[COMRAM] PTR FTN()void 
  9313 ;;		 -> ADC_DefaultADI_ISR(1), 
  9314 ;; Auto vars:     Size  Location     Type
  9315 ;;		None
  9316 ;; Return value:  Size  Location     Type
  9317 ;;                  1    wreg      void 
  9318 ;; Registers used:
  9319 ;;		wreg, status,2, status,0
  9320 ;; Tracked objects:
  9321 ;;		On entry : 0/0
  9322 ;;		On exit  : 0/0
  9323 ;;		Unchanged: 0/0
  9324 ;; Data sizes:     COMRAM   BANK5   BANK6   BANK7   BANK8   BANK9  BANK10  BANK11  BANK12  BANK13  BANK14  BANK15  BANK1
      +6  BANK17  BANK18  BANK19  BANK20  BANK21  BANK22  BANK23  BANK24  BANK25  BANK26  BANK27  BANK28  BANK29  BANK30  BANK3
      +1  BANK32  BANK33  BANK34  BANK35  BANK36  BANK37  BANK38  BANK39  BANK40  BANK41  BANK42  BANK43  BANK44  BANK45  BANK4
      +6  BANK47  BANK48  BANK49  BANK50  BANK51  BANK52  BANK53  BANK54
  9325 ;;      Params:         3       0       0       0       0       0       0       0       0       0       0       0       
      +0       0       0       0       0       0       0       0       0       0       0       0       0       0       0       
      +0       0       0       0       0       0       0       0       0       0       0       0       0       0       0       
      +0       0       0       0       0       0       0       0       0
  9326 ;;      Locals:         0       0       0       0       0       0       0       0       0       0       0       0       
      +0       0       0       0       0       0       0       0       0       0       0       0       0       0       0       
      +0       0       0       0       0       0       0       0       0       0       0       0       0       0       0       
      +0       0       0       0       0       0       0       0       0
  9327 ;;      Temps:          0       0       0       0       0       0       0       0       0       0       0       0       
      +0       0       0       0       0       0       0       0       0       0       0       0       0       0       0       
      +0       0       0       0       0       0       0       0       0       0       0       0       0       0       0       
      +0       0       0       0       0       0       0       0       0
  9328 ;;      Totals:         3       0       0       0       0       0       0       0       0       0       0       0       
      +0       0       0       0       0       0       0       0       0       0       0       0       0       0       0       
      +0       0       0       0       0       0       0       0       0       0       0       0       0       0       0       
      +0       0       0       0       0       0       0       0       0
  9329 ;;Total ram usage:        3 bytes
  9330 ;; Hardware stack levels used: 1
  9331 ;; This function calls:
  9332 ;;		Nothing
  9333 ;; This function is called by:
  9334 ;;		_ADC_Initialize
  9335 ;; This function uses a non-reentrant model
  9336 ;;
  9337                           
  9338                           	psect	text95
  9339  00531C                     __ptext95:
  9340                           	callstack 0
  9341  00531C                     _ADC_SetADIInterruptHandler:
  9342                           	callstack 124
  9343  00531C                     
  9344                           ;mcc_generated_files/adc.c: 418: void ADC_SetADIInterruptHandler(void (* InterruptHandle
      +                          r)(void));mcc_generated_files/adc.c: 419: {;mcc_generated_files/adc.c: 420:     ADC_Conv
      +                          ersionComplete_ISR = InterruptHandler;
  9345  00531C  C501  F5BE         	movff	ADC_SetADIInterruptHandler@InterruptHandler,_ADC_ConversionComplete_ISR
  9346  005320  C502  F5BF         	movff	ADC_SetADIInterruptHandler@InterruptHandler+1,_ADC_ConversionComplete_ISR+1
  9347  005324  C503  F5C0         	movff	ADC_SetADIInterruptHandler@InterruptHandler+2,_ADC_ConversionComplete_ISR+2
  9348  005328  0012               	return		;funcret
  9349  00532A                     __end_of_ADC_SetADIInterruptHandler:
  9350                           	callstack 0
  9351                           
  9352 ;; *************** function _ADC_GetSingleConversion *****************
  9353 ;; Defined at:
  9354 ;;		line 246 in file "mcc_generated_files/adc.c"
  9355 ;; Parameters:    Size  Location     Type
  9356 ;;  channel         1    wreg     enum E22863
  9357 ;; Auto vars:     Size  Location     Type
  9358 ;;  channel         1    4[COMRAM] enum E22863
  9359 ;; Return value:  Size  Location     Type
  9360 ;;                  2    0[COMRAM] unsigned short 
  9361 ;; Registers used:
  9362 ;;		wreg, status,2, status,0
  9363 ;; Tracked objects:
  9364 ;;		On entry : 0/0
  9365 ;;		On exit  : 0/0
  9366 ;;		Unchanged: 0/0
  9367 ;; Data sizes:     COMRAM   BANK5   BANK6   BANK7   BANK8   BANK9  BANK10  BANK11  BANK12  BANK13  BANK14  BANK15  BANK1
      +6  BANK17  BANK18  BANK19  BANK20  BANK21  BANK22  BANK23  BANK24  BANK25  BANK26  BANK27  BANK28  BANK29  BANK30  BANK3
      +1  BANK32  BANK33  BANK34  BANK35  BANK36  BANK37  BANK38  BANK39  BANK40  BANK41  BANK42  BANK43  BANK44  BANK45  BANK4
      +6  BANK47  BANK48  BANK49  BANK50  BANK51  BANK52  BANK53  BANK54
  9368 ;;      Params:         2       0       0       0       0       0       0       0       0       0       0       0       
      +0       0       0       0       0       0       0       0       0       0       0       0       0       0       0       
      +0       0       0       0       0       0       0       0       0       0       0       0       0       0       0       
      +0       0       0       0       0       0       0       0       0
  9369 ;;      Locals:         1       0       0       0       0       0       0       0       0       0       0       0       
      +0       0       0       0       0       0       0       0       0       0       0       0       0       0       0       
      +0       0       0       0       0       0       0       0       0       0       0       0       0       0       0       
      +0       0       0       0       0       0       0       0       0
  9370 ;;      Temps:          2       0       0       0       0       0       0       0       0       0       0       0       
      +0       0       0       0       0       0       0       0       0       0       0       0       0       0       0       
      +0       0       0       0       0       0       0       0       0       0       0       0       0       0       0       
      +0       0       0       0       0       0       0       0       0
  9371 ;;      Totals:         5       0       0       0       0       0       0       0       0       0       0       0       
      +0       0       0       0       0       0       0       0       0       0       0       0       0       0       0       
      +0       0       0       0       0       0       0       0       0       0       0       0       0       0       0       
      +0       0       0       0       0       0       0       0       0
  9372 ;;Total ram usage:        5 bytes
  9373 ;; Hardware stack levels used: 1
  9374 ;; This function calls:
  9375 ;;		Nothing
  9376 ;; This function is called by:
  9377 ;;		_main
  9378 ;; This function uses a non-reentrant model
  9379 ;;
  9380                           
  9381                           	psect	text96
  9382  004EA6                     __ptext96:
  9383                           	callstack 0
  9384  004EA6                     _ADC_GetSingleConversion:
  9385                           	callstack 126
  9386                           
  9387                           ;incstack = 0
  9388                           ;ADC_GetSingleConversion@channel stored from wreg
  9389  004EA6  6E05               	movwf	ADC_GetSingleConversion@channel^(0+1280),c
  9390  004EA8                     
  9391                           ;mcc_generated_files/adc.c: 246: adc_result_t ADC_GetSingleConversion(ADC_channel_t chan
      +                          nel);mcc_generated_files/adc.c: 247: {;mcc_generated_files/adc.c: 249:     ADPCH = chann
      +                          el;
  9392  004EA8  0061  F414  F3EC   	movff	ADC_GetSingleConversion@channel,1004	;volatile
  9393  004EAE                     
  9394                           ;mcc_generated_files/adc.c: 252:     ADCON0bits.ON = 1;
  9395  004EAE  0103               	movlb	3	; () banked
  9396  004EB0  8FF3               	bsf	243,7,b	;volatile
  9397  004EB2                     
  9398                           ; BSR set to: 3
  9399                           ;mcc_generated_files/adc.c: 255:     ADCON0bits.CONT = 0;
  9400  004EB2  9DF3               	bcf	243,6,b	;volatile
  9401  004EB4                     
  9402                           ; BSR set to: 3
  9403                           ;mcc_generated_files/adc.c: 258:     ADCON0bits.GO = 1;
  9404  004EB4  81F3               	bsf	243,0,b	;volatile
  9405  004EB6                     l944:
  9406                           
  9407                           ; BSR set to: 3
  9408                           ;mcc_generated_files/adc.c: 261:     while(ADCON0bits.GO)
  9409  004EB6  B1F3               	btfsc	243,0,b	;volatile
  9410  004EB8  EF60  F027         	goto	u2261
  9411  004EBC  EF62  F027         	goto	u2260
  9412  004EC0                     u2261:
  9413  004EC0  EF5B  F027         	goto	l944
  9414  004EC4                     u2260:
  9415  004EC4                     
  9416                           ; BSR set to: 3
  9417                           ;mcc_generated_files/adc.c: 266:     return ((adc_result_t) ((ADRESH << 8) + ADRESL));
  9418  004EC4  51EB               	movf	235,w,b	;volatile
  9419  004EC6  6E04               	movwf	(??_ADC_GetSingleConversion+1)^(0+1280),c
  9420  004EC8  6A03               	clrf	??_ADC_GetSingleConversion^(0+1280),c
  9421  004ECA  51EA               	movf	234,w,b	;volatile
  9422  004ECC  2403               	addwf	??_ADC_GetSingleConversion^(0+1280),w,c
  9423  004ECE  6E01               	movwf	?_ADC_GetSingleConversion^(0+1280),c
  9424  004ED0  0E00               	movlw	0
  9425  004ED2  2004               	addwfc	(??_ADC_GetSingleConversion+1)^(0+1280),w,c
  9426  004ED4  6E02               	movwf	(?_ADC_GetSingleConversion+1)^(0+1280),c
  9427  004ED6                     
  9428                           ; BSR set to: 3
  9429  004ED6  0012               	return		;funcret
  9430  004ED8                     __end_of_ADC_GetSingleConversion:
  9431                           	callstack 0
  9432                           
  9433                           	psect	text97
  9434  000000                     __ptext97:
  9435                           	callstack 0
  9436  000000                     
  9437                           	psect	rparam
  9438  0000                     
  9439                           	psect	idloc
  9440                           
  9441                           ;Config register IDLOC0 @ 0x200000
  9442                           ;	unspecified, using default values
  9443  200000                     	org	2097152
  9444  200000  0FFF               	dw	4095
  9445                           
  9446                           ;Config register IDLOC1 @ 0x200002
  9447                           ;	unspecified, using default values
  9448  200002                     	org	2097154
  9449  200002  0FFF               	dw	4095
  9450                           
  9451                           ;Config register IDLOC2 @ 0x200004
  9452                           ;	unspecified, using default values
  9453  200004                     	org	2097156
  9454  200004  0FFF               	dw	4095
  9455                           
  9456                           ;Config register IDLOC3 @ 0x200006
  9457                           ;	unspecified, using default values
  9458  200006                     	org	2097158
  9459  200006  0FFF               	dw	4095
  9460                           
  9461                           ;Config register IDLOC4 @ 0x200008
  9462                           ;	unspecified, using default values
  9463  200008                     	org	2097160
  9464  200008  0FFF               	dw	4095
  9465                           
  9466                           ;Config register IDLOC5 @ 0x20000A
  9467                           ;	unspecified, using default values
  9468  20000A                     	org	2097162
  9469  20000A  0FFF               	dw	4095
  9470                           
  9471                           ;Config register IDLOC6 @ 0x20000C
  9472                           ;	unspecified, using default values
  9473  20000C                     	org	2097164
  9474  20000C  0FFF               	dw	4095
  9475                           
  9476                           ;Config register IDLOC7 @ 0x20000E
  9477                           ;	unspecified, using default values
  9478  20000E                     	org	2097166
  9479  20000E  0FFF               	dw	4095
  9480                           
  9481                           ;Config register IDLOC8 @ 0x200010
  9482                           ;	unspecified, using default values
  9483  200010                     	org	2097168
  9484  200010  0FFF               	dw	4095
  9485                           
  9486                           ;Config register IDLOC9 @ 0x200012
  9487                           ;	unspecified, using default values
  9488  200012                     	org	2097170
  9489  200012  0FFF               	dw	4095
  9490                           
  9491                           ;Config register IDLOC10 @ 0x200014
  9492                           ;	unspecified, using default values
  9493  200014                     	org	2097172
  9494  200014  0FFF               	dw	4095
  9495                           
  9496                           ;Config register IDLOC11 @ 0x200016
  9497                           ;	unspecified, using default values
  9498  200016                     	org	2097174
  9499  200016  0FFF               	dw	4095
  9500                           
  9501                           ;Config register IDLOC12 @ 0x200018
  9502                           ;	unspecified, using default values
  9503  200018                     	org	2097176
  9504  200018  0FFF               	dw	4095
  9505                           
  9506                           ;Config register IDLOC13 @ 0x20001A
  9507                           ;	unspecified, using default values
  9508  20001A                     	org	2097178
  9509  20001A  0FFF               	dw	4095
  9510                           
  9511                           ;Config register IDLOC14 @ 0x20001C
  9512                           ;	unspecified, using default values
  9513  20001C                     	org	2097180
  9514  20001C  0FFF               	dw	4095
  9515                           
  9516                           ;Config register IDLOC15 @ 0x20001E
  9517                           ;	unspecified, using default values
  9518  20001E                     	org	2097182
  9519  20001E  0FFF               	dw	4095
  9520                           
  9521                           ;Config register IDLOC16 @ 0x200020
  9522                           ;	unspecified, using default values
  9523  200020                     	org	2097184
  9524  200020  0FFF               	dw	4095
  9525                           
  9526                           ;Config register IDLOC17 @ 0x200022
  9527                           ;	unspecified, using default values
  9528  200022                     	org	2097186
  9529  200022  0FFF               	dw	4095
  9530                           
  9531                           ;Config register IDLOC18 @ 0x200024
  9532                           ;	unspecified, using default values
  9533  200024                     	org	2097188
  9534  200024  0FFF               	dw	4095
  9535                           
  9536                           ;Config register IDLOC19 @ 0x200026
  9537                           ;	unspecified, using default values
  9538  200026                     	org	2097190
  9539  200026  0FFF               	dw	4095
  9540                           
  9541                           ;Config register IDLOC20 @ 0x200028
  9542                           ;	unspecified, using default values
  9543  200028                     	org	2097192
  9544  200028  0FFF               	dw	4095
  9545                           
  9546                           ;Config register IDLOC21 @ 0x20002A
  9547                           ;	unspecified, using default values
  9548  20002A                     	org	2097194
  9549  20002A  0FFF               	dw	4095
  9550                           
  9551                           ;Config register IDLOC22 @ 0x20002C
  9552                           ;	unspecified, using default values
  9553  20002C                     	org	2097196
  9554  20002C  0FFF               	dw	4095
  9555                           
  9556                           ;Config register IDLOC23 @ 0x20002E
  9557                           ;	unspecified, using default values
  9558  20002E                     	org	2097198
  9559  20002E  0FFF               	dw	4095
  9560                           
  9561                           ;Config register IDLOC24 @ 0x200030
  9562                           ;	unspecified, using default values
  9563  200030                     	org	2097200
  9564  200030  0FFF               	dw	4095
  9565                           
  9566                           ;Config register IDLOC25 @ 0x200032
  9567                           ;	unspecified, using default values
  9568  200032                     	org	2097202
  9569  200032  0FFF               	dw	4095
  9570                           
  9571                           ;Config register IDLOC26 @ 0x200034
  9572                           ;	unspecified, using default values
  9573  200034                     	org	2097204
  9574  200034  0FFF               	dw	4095
  9575                           
  9576                           ;Config register IDLOC27 @ 0x200036
  9577                           ;	unspecified, using default values
  9578  200036                     	org	2097206
  9579  200036  0FFF               	dw	4095
  9580                           
  9581                           ;Config register IDLOC28 @ 0x200038
  9582                           ;	unspecified, using default values
  9583  200038                     	org	2097208
  9584  200038  0FFF               	dw	4095
  9585                           
  9586                           ;Config register IDLOC29 @ 0x20003A
  9587                           ;	unspecified, using default values
  9588  20003A                     	org	2097210
  9589  20003A  0FFF               	dw	4095
  9590                           
  9591                           ;Config register IDLOC30 @ 0x20003C
  9592                           ;	unspecified, using default values
  9593  20003C                     	org	2097212
  9594  20003C  0FFF               	dw	4095
  9595                           
  9596                           ;Config register IDLOC31 @ 0x20003E
  9597                           ;	unspecified, using default values
  9598  20003E                     	org	2097214
  9599  20003E  0FFF               	dw	4095
  9600                           
  9601                           	psect	config
  9602                           
  9603                           ;Config register CONFIG1 @ 0x300000
  9604                           ;	External Oscillator Selection
  9605                           ;	FEXTOSC = HS, HS (crystal oscillator) above 8 MHz
  9606                           ;	Reset Oscillator Selection
  9607                           ;	RSTOSC = EXTOSC, EXTOSC operating per FEXTOSC bits (device manufacturing default)
  9608  300000                     	org	3145728
  9609  300000  FA                 	db	250
  9610                           
  9611                           ;Config register CONFIG2 @ 0x300001
  9612                           ;	Clock out Enable bit
  9613                           ;	CLKOUTEN = OFF, CLKOUT function is disabled
  9614                           ;	PRLOCKED One-Way Set Enable bit
  9615                           ;	PR1WAY = ON, PRLOCKED bit can be cleared and set only once
  9616                           ;	Clock Switch Enable bit
  9617                           ;	CSWEN = ON, Writing to NOSC and NDIV is allowed
  9618                           ;	JTAG Enable bit
  9619                           ;	JTAGEN = OFF, Disable JTAG Boundary Scan mode, JTAG pins revert to user functions
  9620                           ;	Fail-Safe Clock Monitor Enable bit
  9621                           ;	FCMEN = ON, Fail-Safe Clock Monitor enabled
  9622                           ;	Fail-Safe Clock Monitor -Primary XTAL Enable bit
  9623                           ;	FCMENP = ON, FSCM timer will set FSCMP bit and OSFIF interrupt on Primary XTAL failure
  9624                           ;	Fail-Safe Clock Monitor -Secondary XTAL Enable bit
  9625                           ;	FCMENS = ON, FSCM timer will set FSCMS bit and OSFIF interrupt on Secondary XTAL failu
      +                          re
  9626  300001                     	org	3145729
  9627  300001  EF                 	db	239
  9628                           
  9629                           ;Config register CONFIG3 @ 0x300002
  9630                           ;	MCLR Enable bit
  9631                           ;	MCLRE = EXTMCLR, If LVP = 0, MCLR pin is MCLR; If LVP = 1, RE3 pin function is MCLR
  9632                           ;	Power-up timer selection bits
  9633                           ;	PWRTS = PWRT_OFF, PWRT is disabled
  9634                           ;	Multi-vector enable bit
  9635                           ;	MVECEN = OFF, Interrupt contoller does not use vector table to prioritze interrupts
  9636                           ;	IVTLOCK bit One-way set enable bit
  9637                           ;	IVT1WAY = ON, IVTLOCKED bit can be cleared and set only once
  9638                           ;	Low Power BOR Enable bit
  9639                           ;	LPBOREN = OFF, Low-Power BOR disabled
  9640                           ;	Brown-out Reset Enable bits
  9641                           ;	BOREN = SBORDIS, Brown-out Reset enabled , SBOREN bit is ignored
  9642  300002                     	org	3145730
  9643  300002  F7                 	db	247
  9644                           
  9645                           ;Config register CONFIG4 @ 0x300003
  9646                           ;	Brown-out Reset Voltage Selection bits
  9647                           ;	BORV = VBOR_1P9, Brown-out Reset Voltage (VBOR) set to 1.9V
  9648                           ;	ZCD Disable bit
  9649                           ;	ZCD = OFF, ZCD module is disabled. ZCD can be enabled by setting the ZCDSEN bit of ZCD
      +                          CON
  9650                           ;	PPSLOCK bit One-Way Set Enable bit
  9651                           ;	PPS1WAY = ON, PPSLOCKED bit can be cleared and set only once; PPS registers remain loc
      +                          ked after one clear/set cycle
  9652                           ;	Stack Full/Underflow Reset Enable bit
  9653                           ;	STVREN = ON, Stack full/underflow will cause Reset
  9654                           ;	Low Voltage Programming Enable bit
  9655                           ;	LVP = ON, Low voltage programming enabled. MCLR/VPP pin function is MCLR. MCLRE config
      +                          uration bit is ignored
  9656                           ;	Extended Instruction Set Enable bit
  9657                           ;	XINST = OFF, Extended Instruction Set and Indexed Addressing Mode disabled
  9658  300003                     	org	3145731
  9659  300003  FF                 	db	255
  9660                           
  9661                           ;Config register CONFIG5 @ 0x300004
  9662                           ;	WDT Period selection bits
  9663                           ;	WDTCPS = WDTCPS_31, Divider ratio 1:65536; software control of WDTPS
  9664                           ;	WDT operating mode
  9665                           ;	WDTE = OFF, WDT Disabled; SWDTEN is ignored
  9666  300004                     	org	3145732
  9667  300004  9F                 	db	159
  9668                           
  9669                           ;Config register CONFIG6 @ 0x300005
  9670                           ;	WDT Window Select bits
  9671                           ;	WDTCWS = WDTCWS_7, window always open (100%); software control; keyed access not requi
      +                          red
  9672                           ;	WDT input clock selector
  9673                           ;	WDTCCS = SC, Software Control
  9674  300005                     	org	3145733
  9675  300005  FF                 	db	255
  9676                           
  9677                           ;Config register CONFIG7 @ 0x300006
  9678                           ;	Boot Block Size selection bits
  9679                           ;	BBSIZE = BBSIZE_512, Boot Block size is 512 words
  9680                           ;	Boot Block enable bit
  9681                           ;	BBEN = OFF, Boot block disabled
  9682                           ;	Storage Area Flash enable bit
  9683                           ;	SAFEN = OFF, SAF disabled
  9684  300006                     	org	3145734
  9685  300006  FF                 	db	255
  9686                           
  9687                           ;Config register CONFIG8 @ 0x300007
  9688                           ;	Boot Block Write Protection bit
  9689                           ;	WRTB = OFF, Boot Block not Write protected
  9690                           ;	Configuration Register Write Protection bit
  9691                           ;	WRTC = OFF, Configuration registers not Write protected
  9692                           ;	Data EEPROM Write Protection bit
  9693                           ;	WRTD = OFF, Data EEPROM not Write protected
  9694                           ;	SAF Write protection bit
  9695                           ;	WRTSAF = OFF, SAF not Write Protected
  9696                           ;	Application Block write protection bit
  9697                           ;	WRTAPP = OFF, Application Block not write protected
  9698  300007                     	org	3145735
  9699  300007  FF                 	db	255
  9700                           
  9701                           ;Config register CONFIG9 @ 0x300008
  9702                           ;	CRC on boot output pin selection
  9703                           ;	BOOTPINSEL = RC5, CRC on boot output pin is RC5
  9704                           ;	CRC on boot output pin enable bit
  9705                           ;	BPEN = OFF, CRC on boot output pin disabled
  9706                           ;	CRC on boot output pin open drain bit
  9707                           ;	ODCON = OFF, Pin drives both high-going and low-going signals
  9708  300008                     	org	3145736
  9709  300008  FF                 	db	255
  9710                           
  9711                           ;Config register CONFIG10 @ 0x300009
  9712                           ;	PFM and Data EEPROM Code Protection bit
  9713                           ;	CP = OFF, PFM and Data EEPROM code protection disabled
  9714  300009                     	org	3145737
  9715  300009  FF                 	db	255
  9716                           
  9717                           ;Config register CONFIG11 @ 0x30000A
  9718                           ;	CRC on boot scan enable for boot area
  9719                           ;	BOOTSCEN = OFF, CRC on boot will not include the boot area of program memory in its ca
      +                          lculation
  9720                           ;	CRC on boot Continue on Error for boot areas bit
  9721                           ;	BOOTCOE = HALT, CRC on boot will stop device if error is detected in boot areas
  9722                           ;	CRC on boot application code scan enable
  9723                           ;	APPSCEN = OFF, CRC on boot will not include the application area of program memory in 
      +                          its calculation
  9724                           ;	CRC on boot SAF area scan enable
  9725                           ;	SAFSCEN = OFF, CRC on boot will not include the SAF area of program memory in its calc
      +                          ulation
  9726                           ;	CRC on boot Data EEPROM scan enable
  9727                           ;	DATASCEN = OFF, CRC on boot will not include data EEPROM in its calculation
  9728                           ;	CRC on boot Config fuses scan enable
  9729                           ;	CFGSCEN = OFF, CRC on boot will not include the configuration fuses in its calculation
  9730                           ;	CRC on boot Continue on Error for non-boot areas bit
  9731                           ;	COE = HALT, CRC on boot will stop device if error is detected in non-boot areas
  9732                           ;	Boot on CRC Enable bit
  9733                           ;	BOOTPOR = OFF, CRC on boot will not run
  9734  30000A                     	org	3145738
  9735  30000A  FF                 	db	255
  9736                           
  9737                           ;Config register CONFIG12 @ 0x30000B
  9738                           ;	Boot Sector Polynomial for CRC on boot bits 31-24
  9739                           ;	BCRCPOLT = hFF, Bits 31:24 of BCRCPOL are 0xFF
  9740  30000B                     	org	3145739
  9741  30000B  FF                 	db	255
  9742                           
  9743                           ;Config register CONFIG13 @ 0x30000C
  9744                           ;	Boot Sector Polynomial for CRC on boot bits 23-16
  9745                           ;	BCRCPOLU = hFF, Bits 23:16 of BCRCPOL are 0xFF
  9746  30000C                     	org	3145740
  9747  30000C  FF                 	db	255
  9748                           
  9749                           ;Config register CONFIG14 @ 0x30000D
  9750                           ;	Boot Sector Polynomial for CRC on boot bits 15-8
  9751                           ;	BCRCPOLH = hFF, Bits 15:8 of BCRCPOL are 0xFF
  9752  30000D                     	org	3145741
  9753  30000D  FF                 	db	255
  9754                           
  9755                           ;Config register CONFIG15 @ 0x30000E
  9756                           ;	Boot Sector Polynomial for CRC on boot bits 7-0
  9757                           ;	BCRCPOLL = hFF, Bits 7:0 of BCRCPOL are 0xFF
  9758  30000E                     	org	3145742
  9759  30000E  FF                 	db	255
  9760                           
  9761                           ;Config register CONFIG16 @ 0x30000F
  9762                           ;	Boot Sector Seed for CRC on boot bits 31-24
  9763                           ;	BCRCSEEDT = hFF, Bits 31:24 of BCRCSEED are 0xFF
  9764  30000F                     	org	3145743
  9765  30000F  FF                 	db	255
  9766                           
  9767                           ;Config register CONFIG17 @ 0x300010
  9768                           ;	Boot Sector Seed for CRC on boot bits 23-16
  9769                           ;	BCRCSEEDU = hFF, Bits 23:16 of BCRCSEED are 0xFF
  9770  300010                     	org	3145744
  9771  300010  FF                 	db	255
  9772                           
  9773                           ;Config register CONFIG18 @ 0x300011
  9774                           ;	Boot Sector Seed for CRC on boot bits 15-8
  9775                           ;	BCRCSEEDH = hFF, Bits 15:8 of BCRCSEED are 0xFF
  9776  300011                     	org	3145745
  9777  300011  FF                 	db	255
  9778                           
  9779                           ;Config register CONFIG19 @ 0x300012
  9780                           ;	Boot Sector Seed for CRC on boot bits 7-0
  9781                           ;	BCRCSEEDL = hFF, Bits 7:0 of BCRCSEED are 0xFF
  9782  300012                     	org	3145746
  9783  300012  FF                 	db	255
  9784                           
  9785                           ;Config register CONFIG20 @ 0x300013
  9786                           ;	unspecified, using default values
  9787                           ;	Boot Sector Expected Result for CRC on boot bits 31-24
  9788                           ;	BCRCEREST = 0xFF, unprogrammed default
  9789  300013                     	org	3145747
  9790  300013  FF                 	db	255
  9791                           
  9792                           ;Config register CONFIG21 @ 0x300014
  9793                           ;	unspecified, using default values
  9794                           ;	Boot Sector Expected Result for CRC on boot bits 23-16
  9795                           ;	BCRCERESU = 0xFF, unprogrammed default
  9796  300014                     	org	3145748
  9797  300014  FF                 	db	255
  9798                           
  9799                           ;Config register CONFIG22 @ 0x300015
  9800                           ;	unspecified, using default values
  9801                           ;	Boot Sector Expected Result for CRC on boot bits 15-8
  9802                           ;	BCRCERESH = 0xFF, unprogrammed default
  9803  300015                     	org	3145749
  9804  300015  FF                 	db	255
  9805                           
  9806                           ;Config register CONFIG23 @ 0x300016
  9807                           ;	unspecified, using default values
  9808                           ;	Boot Sector Expected Result for CRC on boot bits 7-0
  9809                           ;	BCRCERESL = 0xFF, unprogrammed default
  9810  300016                     	org	3145750
  9811  300016  FF                 	db	255
  9812                           
  9813                           ;Config register CONFIG24 @ 0x300017
  9814                           ;	Non-Boot Sector Polynomial for CRC on boot bits 31-24
  9815                           ;	CRCPOLT = hFF, Bits 31:24 of CRCPOL are 0xFF
  9816  300017                     	org	3145751
  9817  300017  FF                 	db	255
  9818                           
  9819                           ;Config register CONFIG25 @ 0x300018
  9820                           ;	Non-Boot Sector Polynomial for CRC on boot bits 23-16
  9821                           ;	CRCPOLU = hFF, Bits 23:16 of CRCPOL are 0xFF
  9822  300018                     	org	3145752
  9823  300018  FF                 	db	255
  9824                           
  9825                           ;Config register CONFIG26 @ 0x300019
  9826                           ;	Non-Boot Sector Polynomial for CRC on boot bits 15-8
  9827                           ;	CRCPOLH = hFF, Bits 15:8 of CRCPOL are 0xFF
  9828  300019                     	org	3145753
  9829  300019  FF                 	db	255
  9830                           
  9831                           ;Config register CONFIG27 @ 0x30001A
  9832                           ;	Non-Boot Sector Polynomial for CRC on boot bits 7-0
  9833                           ;	CRCPOLL = hFF, Bits 7:0 of CRCPOL are 0xFF
  9834  30001A                     	org	3145754
  9835  30001A  FF                 	db	255
  9836                           
  9837                           ;Config register CONFIG28 @ 0x30001B
  9838                           ;	Non-Boot Sector Seed for CRC on boot bits 31-24
  9839                           ;	CRCSEEDT = hFF, Bits 31:24 of CRCSEED are 0xFF
  9840  30001B                     	org	3145755
  9841  30001B  FF                 	db	255
  9842                           
  9843                           ;Config register CONFIG29 @ 0x30001C
  9844                           ;	Non-Boot Sector Seed for CRC on boot bits 23-16
  9845                           ;	CRCSEEDU = hFF, Bits 23:16 of CRCSEED are 0xFF
  9846  30001C                     	org	3145756
  9847  30001C  FF                 	db	255
  9848                           
  9849                           ;Config register CONFIG30 @ 0x30001D
  9850                           ;	Non-Boot Sector Seed for CRC on boot bits 15-8
  9851                           ;	CRCSEEDH = hFF, Bits 15:8 of CRCSEED are 0xFF
  9852  30001D                     	org	3145757
  9853  30001D  FF                 	db	255
  9854                           
  9855                           ;Config register CONFIG31 @ 0x30001E
  9856                           ;	Non-Boot Sector Seed for CRC on boot bits 7-0
  9857                           ;	CRCSEEDL = hFF, Bits 7:0 of CRCSEED are 0xFF
  9858  30001E                     	org	3145758
  9859  30001E  FF                 	db	255
  9860                           
  9861                           ;Config register CONFIG32 @ 0x30001F
  9862                           ;	unspecified, using default values
  9863                           ;	Non-Boot Sector Expected Result for CRC on boot bits 31-24
  9864                           ;	CRCEREST = 0xFF, unprogrammed default
  9865  30001F                     	org	3145759
  9866  30001F  FF                 	db	255
  9867                           
  9868                           ;Config register CONFIG33 @ 0x300020
  9869                           ;	unspecified, using default values
  9870                           ;	Non-Boot Sector Expected Result for CRC on boot bits 23-16
  9871                           ;	CRCERESU = 0xFF, unprogrammed default
  9872  300020                     	org	3145760
  9873  300020  FF                 	db	255
  9874                           
  9875                           ;Config register CONFIG34 @ 0x300021
  9876                           ;	unspecified, using default values
  9877                           ;	Non-Boot Sector Expected Result for CRC on boot bits 15-8
  9878                           ;	CRCERESH = 0xFF, unprogrammed default
  9879  300021                     	org	3145761
  9880  300021  FF                 	db	255
  9881                           
  9882                           ;Config register CONFIG35 @ 0x300022
  9883                           ;	unspecified, using default values
  9884                           ;	Non-Boot Sector Expected Result for CRC on boot bits 7-0
  9885                           ;	CRCERESL = 0xFF, unprogrammed default
  9886  300022                     	org	3145762
  9887  300022  FF                 	db	255
  9888                           
  9889                           ; Padding undefined space
  9890  300023                     	org	3145763
  9891  300023  FF                 	db	255
  9892                           tosu	equ	0x4FF
  9893                           tosh	equ	0x4FE
  9894                           tosl	equ	0x4FD
  9895                           stkptr	equ	0x4FC
  9896                           pclatu	equ	0x4FB
  9897                           pclath	equ	0x4FA
  9898                           pcl	equ	0x4F9
  9899                           tblptru	equ	0x4F8
  9900                           tblptrh	equ	0x4F7
  9901                           tblptrl	equ	0x4F6
  9902                           tablat	equ	0x4F5
  9903                           prodh	equ	0x4F4
  9904                           prodl	equ	0x4F3
  9905                           indf0	equ	0x4EF
  9906                           postinc0	equ	0x4EE
  9907                           postdec0	equ	0x4ED
  9908                           preinc0	equ	0x4EC
  9909                           plusw0	equ	0x4EB
  9910                           fsr0h	equ	0x4EA
  9911                           fsr0l	equ	0x4E9
  9912                           wreg	equ	0x4E8
  9913                           indf1	equ	0x4E7
  9914                           postinc1	equ	0x4E6
  9915                           postdec1	equ	0x4E5
  9916                           preinc1	equ	0x4E4
  9917                           plusw1	equ	0x4E3
  9918                           fsr1h	equ	0x4E2
  9919                           fsr1l	equ	0x4E1
  9920                           bsr	equ	0x4E0
  9921                           indf2	equ	0x4DF
  9922                           postinc2	equ	0x4DE
  9923                           postdec2	equ	0x4DD
  9924                           preinc2	equ	0x4DC
  9925                           plusw2	equ	0x4DB
  9926                           fsr2h	equ	0x4DA
  9927                           fsr2l	equ	0x4D9
  9928                           status	equ	0x4D8

Data Sizes:
    Strings     50
    Constant    61
    Data        0
    BSS         128
    Persistent  18
    Stack       0

Auto Spaces:
    Space          Size  Autos    Used
    COMRAM           95     95      95
    BANK5           160     18     124
    BANK6           256      0      40
    BANK7           256      0       0
    BANK8           256      0       0
    BANK9           256      0       0
    BANK10          256      0       0
    BANK11          256      0       0
    BANK12          256      0       0
    BANK13          256      0       0
    BANK14          256      0       0
    BANK15          256      0       0
    BANK16          256      0       0
    BANK17          256      0       0
    BANK18          256      0       0
    BANK19          256      0       0
    BANK20          256      0       0
    BANK21          256      0       0
    BANK22          256      0       0
    BANK23          256      0       0
    BANK24          256      0       0
    BANK25          256      0       0
    BANK26          256      0       0
    BANK27          256      0       0
    BANK28          256      0       0
    BANK29          256      0       0
    BANK30          256      0       0
    BANK31          256      0       0
    BANK32          256      0       0
    BANK33          256      0       0
    BANK34          256      0       0
    BANK35          256      0       0
    BANK36          256      0       0
    BANK37          256      0       0
    BANK38          256      0       0
    BANK39          256      0       0
    BANK40          256      0       0
    BANK41          256      0       0
    BANK42          256      0       0
    BANK43          256      0       0
    BANK44          256      0       0
    BANK45          256      0       0
    BANK46          256      0       0
    BANK47          256      0       0
    BANK48          256      0       0
    BANK49          256      0       0
    BANK50          256      0       0
    BANK51          256      0       0
    BANK52          256      0       0
    BANK53          256      0       0
    BANK54          256      0       0

Pointer List with Targets:

    I2C1_Read1ByteRegister@returnValue.data	PTR unsigned char  size(2) Largest target is 0

    I2C1_Read2ByteRegister@returnValue.data	PTR unsigned char  size(2) Largest target is 0

    I2C1_Write1ByteRegister@data.data	PTR unsigned char  size(2) Largest target is 0

    I2C1_Write2ByteRegister@data.data	PTR unsigned char  size(2) Largest target is 0

    I2C1_DO_TX$2879$0	PTR void  size(2) Largest target is 5
		 -> I2C1_ReadDataBlock@bufferBlock(COMRAM[4]), I2C1_Write2ByteRegister@data(COMRAM[2]), I2C1_Write1ByteRegister@data(COMRAM[1]), I2C1_Read2ByteRegister@returnValue(COMRAM[2]), 
		 -> NULL(NULL[0]), I2C1_Read1ByteRegister@returnValue(COMRAM[1]), 

    I2C1_DO_TX_EMPTY$2885$0	PTR void  size(2) Largest target is 5
		 -> I2C1_ReadDataBlock@bufferBlock(COMRAM[4]), I2C1_Write2ByteRegister@data(COMRAM[2]), I2C1_Write1ByteRegister@data(COMRAM[1]), I2C1_Read2ByteRegister@returnValue(COMRAM[2]), 
		 -> NULL(NULL[0]), I2C1_Read1ByteRegister@returnValue(COMRAM[1]), 

    I2C1_DO_RX_EMPTY$2891$0	PTR void  size(2) Largest target is 5
		 -> I2C1_ReadDataBlock@bufferBlock(COMRAM[4]), I2C1_Write2ByteRegister@data(COMRAM[2]), I2C1_Write1ByteRegister@data(COMRAM[1]), I2C1_Read2ByteRegister@returnValue(COMRAM[2]), 
		 -> NULL(NULL[0]), I2C1_Read1ByteRegister@returnValue(COMRAM[1]), 

    I2C1_DO_RX_EMPTY$2896	PTR void  size(2) Largest target is 5
		 -> I2C1_ReadDataBlock@bufferBlock(COMRAM[4]), I2C1_Write2ByteRegister@data(COMRAM[2]), I2C1_Write1ByteRegister@data(COMRAM[1]), I2C1_Read2ByteRegister@returnValue(COMRAM[2]), 
		 -> NULL(NULL[0]), I2C1_Read1ByteRegister@returnValue(COMRAM[1]), 

    I2C1_DO_RX_EMPTY$2891	PTR FTN(PTR void ,)enum E360 size(3) Largest target is 1
		 -> I2C1_CallbackReturnReset(), I2C1_CallbackReturnStop(), Absolute function(), rdBlkRegCompleteHandler(), 
		 -> wr2RegCompleteHandler(), wr1RegCompleteHandler(), rd2RegCompleteHandler(), rd1RegCompleteHandler(), 

    I2C1_DO_TX_EMPTY$2890	PTR void  size(2) Largest target is 5
		 -> I2C1_ReadDataBlock@bufferBlock(COMRAM[4]), I2C1_Write2ByteRegister@data(COMRAM[2]), I2C1_Write1ByteRegister@data(COMRAM[1]), I2C1_Read2ByteRegister@returnValue(COMRAM[2]), 
		 -> NULL(NULL[0]), I2C1_Read1ByteRegister@returnValue(COMRAM[1]), 

    I2C1_DO_TX_EMPTY$2885	PTR FTN(PTR void ,)enum E360 size(3) Largest target is 1
		 -> I2C1_CallbackReturnReset(), I2C1_CallbackReturnStop(), Absolute function(), rdBlkRegCompleteHandler(), 
		 -> wr2RegCompleteHandler(), wr1RegCompleteHandler(), rd2RegCompleteHandler(), rd1RegCompleteHandler(), 

    I2C1_DO_TX$2884	PTR void  size(2) Largest target is 5
		 -> I2C1_ReadDataBlock@bufferBlock(COMRAM[4]), I2C1_Write2ByteRegister@data(COMRAM[2]), I2C1_Write1ByteRegister@data(COMRAM[1]), I2C1_Read2ByteRegister@returnValue(COMRAM[2]), 
		 -> NULL(NULL[0]), I2C1_Read1ByteRegister@returnValue(COMRAM[1]), 

    I2C1_DO_TX$2879	PTR FTN(PTR void ,)enum E360 size(3) Largest target is 1
		 -> I2C1_CallbackReturnReset(), I2C1_CallbackReturnStop(), Absolute function(), rdBlkRegCompleteHandler(), 
		 -> wr2RegCompleteHandler(), wr1RegCompleteHandler(), rd2RegCompleteHandler(), rd1RegCompleteHandler(), 

    I2C1_MasterFsm$2878	const PTR FTN()enum E23252 size(3) Largest target is 1
		 -> I2C1_DO_BUS_ERROR(), I2C1_DO_BUS_COLLISION(), I2C1_DO_ADDRESS_NACK(), I2C1_DO_RESET(), 
		 -> I2C1_DO_RX_NACK_RESTART(), I2C1_DO_RX_NACK_STOP(), I2C1_DO_TX_ACK(), I2C1_DO_RX_ACK(), 
		 -> I2C1_DO_SEND_STOP(), I2C1_DO_SEND_RESTART(), I2C1_DO_SEND_RESTART_WRITE(), I2C1_DO_SEND_RESTART_READ(), 
		 -> I2C1_DO_RX_EMPTY(), I2C1_DO_TX_EMPTY(), I2C1_DO_RX(), I2C1_DO_TX(), 
		 -> I2C1_DO_SEND_ADR_WRITE(), I2C1_DO_SEND_ADR_READ(), I2C1_DO_IDLE(), 

    I2C1_CallbackReturnStop@funPtr	PTR void  size(2) Largest target is 5
		 -> I2C1_ReadDataBlock@bufferBlock(COMRAM[4]), I2C1_Write2ByteRegister@data(COMRAM[2]), I2C1_Write1ByteRegister@data(COMRAM[1]), I2C1_Read2ByteRegister@returnValue(COMRAM[2]), 
		 -> NULL(NULL[0]), I2C1_Read1ByteRegister@returnValue(COMRAM[1]), 

    I2C1_CallbackReturnReset@funPtr	PTR void  size(2) Largest target is 5
		 -> I2C1_ReadDataBlock@bufferBlock(COMRAM[4]), I2C1_Write2ByteRegister@data(COMRAM[2]), I2C1_Write1ByteRegister@data(COMRAM[1]), I2C1_Read2ByteRegister@returnValue(COMRAM[2]), 
		 -> NULL(NULL[0]), I2C1_Read1ByteRegister@returnValue(COMRAM[1]), 

    cb$0	PTR void  size(2) Largest target is 5
		 -> I2C1_ReadDataBlock@bufferBlock(COMRAM[4]), I2C1_Write2ByteRegister@data(COMRAM[2]), I2C1_Write1ByteRegister@data(COMRAM[1]), I2C1_Read2ByteRegister@returnValue(COMRAM[2]), 
		 -> NULL(NULL[0]), I2C1_Read1ByteRegister@returnValue(COMRAM[1]), 

    Absolute function$0	PTR void  size(2) Largest target is 5
		 -> I2C1_ReadDataBlock@bufferBlock(COMRAM[4]), I2C1_Write2ByteRegister@data(COMRAM[2]), I2C1_Write1ByteRegister@data(COMRAM[1]), I2C1_Read2ByteRegister@returnValue(COMRAM[2]), 
		 -> NULL(NULL[0]), I2C1_Read1ByteRegister@returnValue(COMRAM[1]), 

    cb$0	PTR void  size(2) Largest target is 5
		 -> I2C1_ReadDataBlock@bufferBlock(COMRAM[4]), I2C1_Write2ByteRegister@data(COMRAM[2]), I2C1_Write1ByteRegister@data(COMRAM[1]), I2C1_Read2ByteRegister@returnValue(COMRAM[2]), 
		 -> NULL(NULL[0]), I2C1_Read1ByteRegister@returnValue(COMRAM[1]), 

    S304$0$0	PTR void  size(2) Largest target is 5
		 -> I2C1_ReadDataBlock@bufferBlock(COMRAM[4]), I2C1_Write2ByteRegister@data(COMRAM[2]), I2C1_Write1ByteRegister@data(COMRAM[1]), I2C1_Read2ByteRegister@returnValue(COMRAM[2]), 
		 -> NULL(NULL[0]), I2C1_Read1ByteRegister@returnValue(COMRAM[1]), 

    strlen@s	PTR const unsigned char  size(2) Largest target is 32
		 -> dbuf(BANK5[32]), 

    strlen@a	PTR const unsigned char  size(2) Largest target is 32
		 -> dbuf(BANK5[32]), 

    printf@fmt	PTR const unsigned char  size(2) Largest target is 17
		 -> STR_2(CODE[17]), 

    printf@ap	PTR void [1] size(2) Largest target is 2
		 -> ?_printf(COMRAM[2]), ?_sprintf(BANK5[2]), 

    fputs@s	PTR const unsigned char  size(2) Largest target is 32
		 -> dbuf(BANK5[32]), 

    fputs@fp	PTR struct _IO_FILE size(2) Largest target is 7
		 -> sprintf@f(BANK5[6]), NULL(NULL[0]), 

    fputc@fp.buffer	PTR unsigned char  size(2) Largest target is 40
		 -> buffer(BANK6[40]), 

    fputc@fp	PTR struct _IO_FILE size(2) Largest target is 7
		 -> sprintf@f(BANK5[6]), NULL(NULL[0]), 

    vfprintf@ap	PTR PTR void  size(2) Largest target is 2
		 -> printf@ap(BANK5[2]), sprintf@ap(BANK5[2]), 

    vfprintf@fp	PTR struct _IO_FILE size(2) Largest target is 7
		 -> sprintf@f(BANK5[6]), NULL(NULL[0]), 

    vfprintf@fmt	PTR const unsigned char  size(2) Largest target is 17
		 -> STR_3(CODE[17]), STR_2(CODE[17]), STR_1(CODE[16]), 

    vfprintf@cfmt	PTR unsigned char  size(2) Largest target is 17
		 -> STR_3(CODE[17]), STR_2(CODE[17]), STR_1(CODE[16]), 

    vfpfcnvrt@fp	PTR struct _IO_FILE size(2) Largest target is 7
		 -> sprintf@f(BANK5[6]), NULL(NULL[0]), 

    vfpfcnvrt@ap	PTR PTR void  size(2) Largest target is 2
		 -> printf@ap(BANK5[2]), sprintf@ap(BANK5[2]), 

    vfpfcnvrt@fmt	PTR PTR unsigned char  size(2) Largest target is 2
		 -> vfprintf@cfmt(COMRAM[2]), 

    dtoa@fp	PTR struct _IO_FILE size(2) Largest target is 7
		 -> sprintf@f(BANK5[6]), NULL(NULL[0]), 

    pad@fp	PTR struct _IO_FILE size(2) Largest target is 7
		 -> sprintf@f(BANK5[6]), NULL(NULL[0]), 

    pad@buf	PTR unsigned char  size(2) Largest target is 32
		 -> dbuf(BANK5[32]), 

    sprintf@fmt	PTR const unsigned char  size(2) Largest target is 17
		 -> STR_3(CODE[17]), STR_1(CODE[16]), 

    sprintf@s	PTR unsigned char  size(2) Largest target is 40
		 -> buffer(BANK6[40]), 

    sprintf@ap	PTR void [1] size(2) Largest target is 2
		 -> ?_printf(COMRAM[2]), ?_sprintf(BANK5[2]), 

    S2368_IO_FILE$buffer	PTR unsigned char  size(2) Largest target is 40
		 -> buffer(BANK6[40]), 

    f.buffer	PTR unsigned char  size(2) Largest target is 40
		 -> buffer(BANK6[40]), 

    lcd_puts@dato	PTR unsigned char  size(2) Largest target is 40
		 -> buffer(BANK6[40]), 

    ADC_SetActiveClockTuningInterruptHandler@InterruptHandler	PTR FTN()void  size(3) Largest target is 1
		 -> ADC_DefaultActiveClockTuning_ISR(), 

    ADC_SetContext1ThresholdInterruptHandler@InterruptHandler	PTR FTN()void  size(3) Largest target is 1
		 -> ADC_DefaultContext1Threshold_ISR(), 

    ADC_SetADIInterruptHandler@InterruptHandler	PTR FTN()void  size(3) Largest target is 1
		 -> ADC_DefaultADI_ISR(), 

    ADC_Context1Thereshld_ISR	PTR FTN()void  size(3) Largest target is 1
		 -> ADC_DefaultContext1Threshold_ISR(), Absolute function(), 

    ADC_ActiveClockTuning_ISR	PTR FTN()void  size(3) Largest target is 1
		 -> ADC_DefaultActiveClockTuning_ISR(), Absolute function(), 

    ADC_ConversionComplete_ISR	PTR FTN()void  size(3) Largest target is 1
		 -> ADC_DefaultADI_ISR(), Absolute function(), 

    UART1_SetErrorHandler@interruptHandler	PTR FTN()void  size(3) Largest target is 1
		 -> UART1_DefaultErrorHandler(), 

    UART1_SetOverrunErrorHandler@interruptHandler	PTR FTN()void  size(3) Largest target is 1
		 -> UART1_DefaultOverrunErrorHandler(), 

    UART1_SetFramingErrorHandler@interruptHandler	PTR FTN()void  size(3) Largest target is 1
		 -> UART1_DefaultFramingErrorHandler(), 

    UART1_ErrorHandler	PTR FTN()void  size(3) Largest target is 1
		 -> UART1_DefaultErrorHandler(), Absolute function(), 

    UART1_OverrunErrorHandler	PTR FTN()void  size(3) Largest target is 1
		 -> UART1_DefaultOverrunErrorHandler(), Absolute function(), 

    UART1_FramingErrorHandler	PTR FTN()void  size(3) Largest target is 1
		 -> UART1_DefaultFramingErrorHandler(), Absolute function(), 

    I2C1_SetCallback@ptr	PTR void  size(2) Largest target is 5
		 -> I2C1_ReadDataBlock@bufferBlock(COMRAM[4]), I2C1_Write2ByteRegister@data(COMRAM[2]), I2C1_Write1ByteRegister@data(COMRAM[1]), I2C1_Read2ByteRegister@returnValue(COMRAM[2]), 
		 -> NULL(NULL[0]), I2C1_Read1ByteRegister@returnValue(COMRAM[1]), 

    I2C1_SetCallback@cb	PTR FTN(PTR void ,)enum E360 size(3) Largest target is 1
		 -> Absolute function(), rdBlkRegCompleteHandler(), wr2RegCompleteHandler(), wr1RegCompleteHandler(), 
		 -> rd2RegCompleteHandler(), rd1RegCompleteHandler(), 

    I2C1_SetAddressNackCallback@ptr	PTR void  size(2) Largest target is 0
		 -> NULL(NULL[0]), 

    I2C1_SetAddressNackCallback@cb	PTR FTN(PTR void ,)enum E360 size(3) Largest target is 1
		 -> Absolute function(), 

    I2C1_SetDataCompleteCallback@ptr	PTR void  size(2) Largest target is 5
		 -> I2C1_ReadDataBlock@bufferBlock(COMRAM[4]), I2C1_Write2ByteRegister@data(COMRAM[2]), I2C1_Write1ByteRegister@data(COMRAM[1]), I2C1_Read2ByteRegister@returnValue(COMRAM[2]), 
		 -> NULL(NULL[0]), I2C1_Read1ByteRegister@returnValue(COMRAM[1]), 

    I2C1_SetDataCompleteCallback@cb	PTR FTN(PTR void ,)enum E360 size(3) Largest target is 1
		 -> Absolute function(), rdBlkRegCompleteHandler(), wr2RegCompleteHandler(), wr1RegCompleteHandler(), 
		 -> rd2RegCompleteHandler(), rd1RegCompleteHandler(), 

    I2C1_SetBuffer@buffer	PTR void  size(2) Largest target is 5
		 -> I2C1_ReadDataBlock@reg(COMRAM[1]), I2C1_ReadDataBlock@bufferBlock(COMRAM[4]), I2C1_Write2ByteRegister@reg(COMRAM[1]), I2C1_Write2ByteRegister@data(COMRAM[2]), 
		 -> I2C1_Write1ByteRegister@reg(COMRAM[1]), I2C1_Write1ByteRegister@data(COMRAM[1]), I2C1_Read2ByteRegister@reg(COMRAM[1]), I2C1_Read2ByteRegister@returnValue(COMRAM[2]), 
		 -> NULL(NULL[0]), I2C1_Read1ByteRegister@reg(COMRAM[1]), I2C1_Read1ByteRegister@returnValue(COMRAM[1]), 

    S304$data_ptr	PTR unsigned char  size(2) Largest target is 5
		 -> I2C1_ReadDataBlock@reg(COMRAM[1]), I2C1_ReadDataBlock@bufferBlock(COMRAM[4]), I2C1_Write2ByteRegister@reg(COMRAM[1]), I2C1_Write2ByteRegister@data(COMRAM[2]), 
		 -> I2C1_Write1ByteRegister@reg(COMRAM[1]), I2C1_Write1ByteRegister@data(COMRAM[1]), I2C1_Read2ByteRegister@reg(COMRAM[1]), I2C1_Read2ByteRegister@returnValue(COMRAM[2]), 
		 -> NULL(NULL[0]), I2C1_Read1ByteRegister@reg(COMRAM[1]), I2C1_Read1ByteRegister@returnValue(COMRAM[1]), 

    I2C1_Status.data_ptr	PTR unsigned char  size(2) Largest target is 5
		 -> I2C1_ReadDataBlock@reg(COMRAM[1]), I2C1_ReadDataBlock@bufferBlock(COMRAM[4]), I2C1_Write2ByteRegister@reg(COMRAM[1]), I2C1_Write2ByteRegister@data(COMRAM[2]), 
		 -> I2C1_Write1ByteRegister@reg(COMRAM[1]), I2C1_Write1ByteRegister@data(COMRAM[1]), I2C1_Read2ByteRegister@reg(COMRAM[1]), I2C1_Read2ByteRegister@returnValue(COMRAM[2]), 
		 -> NULL(NULL[0]), I2C1_Read1ByteRegister@reg(COMRAM[1]), I2C1_Read1ByteRegister@returnValue(COMRAM[1]), 

    S304$callbackPayload	PTR void [6] size(2) Largest target is 5
		 -> I2C1_ReadDataBlock@bufferBlock(COMRAM[4]), I2C1_Write2ByteRegister@data(COMRAM[2]), I2C1_Write1ByteRegister@data(COMRAM[1]), I2C1_Read2ByteRegister@returnValue(COMRAM[2]), 
		 -> NULL(NULL[0]), I2C1_Read1ByteRegister@returnValue(COMRAM[1]), 

    I2C1_Status.callbackPayload	PTR void [6] size(2) Largest target is 5
		 -> I2C1_ReadDataBlock@bufferBlock(COMRAM[4]), I2C1_Write2ByteRegister@data(COMRAM[2]), I2C1_Write1ByteRegister@data(COMRAM[1]), I2C1_Read2ByteRegister@returnValue(COMRAM[2]), 
		 -> NULL(NULL[0]), I2C1_Read1ByteRegister@returnValue(COMRAM[1]), 

    S304$callbackTable	PTR FTN(PTR void ,)enum E360[6] size(3) Largest target is 1
		 -> I2C1_CallbackReturnReset(), I2C1_CallbackReturnStop(), Absolute function(), rdBlkRegCompleteHandler(), 
		 -> wr2RegCompleteHandler(), wr1RegCompleteHandler(), rd2RegCompleteHandler(), rd1RegCompleteHandler(), 

    I2C1_Status.callbackTable	PTR FTN(PTR void ,)enum E360[6] size(3) Largest target is 1
		 -> I2C1_CallbackReturnReset(), I2C1_CallbackReturnStop(), Absolute function(), rdBlkRegCompleteHandler(), 
		 -> wr2RegCompleteHandler(), wr1RegCompleteHandler(), rd2RegCompleteHandler(), rd1RegCompleteHandler(), 

    i2c1_fsmStateTable	const PTR FTN()enum E23252[19] size(3) Largest target is 1
		 -> I2C1_DO_BUS_ERROR(), I2C1_DO_BUS_COLLISION(), I2C1_DO_ADDRESS_NACK(), I2C1_DO_RESET(), 
		 -> I2C1_DO_RX_NACK_RESTART(), I2C1_DO_RX_NACK_STOP(), I2C1_DO_TX_ACK(), I2C1_DO_RX_ACK(), 
		 -> I2C1_DO_SEND_STOP(), I2C1_DO_SEND_RESTART(), I2C1_DO_SEND_RESTART_WRITE(), I2C1_DO_SEND_RESTART_READ(), 
		 -> I2C1_DO_RX_EMPTY(), I2C1_DO_TX_EMPTY(), I2C1_DO_RX(), I2C1_DO_TX(), 
		 -> I2C1_DO_SEND_ADR_WRITE(), I2C1_DO_SEND_ADR_READ(), I2C1_DO_IDLE(), 

    rdBlkRegCompleteHandler@ptr.data	PTR unsigned char  size(2) Largest target is 0

    rdBlkRegCompleteHandler@ptr	PTR void  size(2) Largest target is 5
		 -> I2C1_ReadDataBlock@bufferBlock(COMRAM[4]), I2C1_Write2ByteRegister@data(COMRAM[2]), I2C1_Write1ByteRegister@data(COMRAM[1]), I2C1_Read2ByteRegister@returnValue(COMRAM[2]), 
		 -> NULL(NULL[0]), I2C1_Read1ByteRegister@returnValue(COMRAM[1]), 

    wr2RegCompleteHandler@ptr	PTR void  size(2) Largest target is 5
		 -> I2C1_ReadDataBlock@bufferBlock(COMRAM[4]), I2C1_Write2ByteRegister@data(COMRAM[2]), I2C1_Write1ByteRegister@data(COMRAM[1]), I2C1_Read2ByteRegister@returnValue(COMRAM[2]), 
		 -> NULL(NULL[0]), I2C1_Read1ByteRegister@returnValue(COMRAM[1]), 

    wr1RegCompleteHandler@ptr	PTR void  size(2) Largest target is 5
		 -> I2C1_ReadDataBlock@bufferBlock(COMRAM[4]), I2C1_Write2ByteRegister@data(COMRAM[2]), I2C1_Write1ByteRegister@data(COMRAM[1]), I2C1_Read2ByteRegister@returnValue(COMRAM[2]), 
		 -> NULL(NULL[0]), I2C1_Read1ByteRegister@returnValue(COMRAM[1]), 

    rd2RegCompleteHandler@ptr	PTR void  size(2) Largest target is 5
		 -> I2C1_ReadDataBlock@bufferBlock(COMRAM[4]), I2C1_Write2ByteRegister@data(COMRAM[2]), I2C1_Write1ByteRegister@data(COMRAM[1]), I2C1_Read2ByteRegister@returnValue(COMRAM[2]), 
		 -> NULL(NULL[0]), I2C1_Read1ByteRegister@returnValue(COMRAM[1]), 

    rd1RegCompleteHandler@ptr	PTR void  size(2) Largest target is 5
		 -> I2C1_ReadDataBlock@bufferBlock(COMRAM[4]), I2C1_Write2ByteRegister@data(COMRAM[2]), I2C1_Write1ByteRegister@data(COMRAM[1]), I2C1_Read2ByteRegister@returnValue(COMRAM[2]), 
		 -> NULL(NULL[0]), I2C1_Read1ByteRegister@returnValue(COMRAM[1]), 

    S96$data	PTR unsigned char  size(2) Largest target is 0

    bufferBlock.data	PTR unsigned char  size(2) Largest target is 0


Critical Paths under _main in COMRAM

    _main->_printf
    _sprintf->_vfprintf
    _printf->_vfprintf
    _vfprintf->_vfpfcnvrt
    _vfpfcnvrt->_dtoa
    _dtoa->_pad
    _pad->_fputs
    _fputs->_fputc
    _fputc->_putch
    _putch->_UART1_Write
    _abs->___aomod
    _lcd_puts->_lcd_gotoxy
    _lcd_gotoxy->_lcd_send_byte
    _lcd_init->_lcd_send_byte
    _lcd_send_byte->_Send_D7_D4
    _Send_D7_D4->_Write_PCF
    _Write_PCF->_I2C1_Write1ByteRegister
    _I2C1_SetAddressNackCallback->_I2C1_SetCallback
    _I2C1_MasterWrite->_I2C1_MasterOperation
    _I2C1_MasterFsm->_I2C1_DO_TX
    _I2C1_DO_TX->_I2C1_CallbackReturnReset
    _I2C1_DO_TX->_I2C1_CallbackReturnStop
    _I2C1_DO_TX->_rd1RegCompleteHandler
    _I2C1_DO_TX->_rd2RegCompleteHandler
    _I2C1_DO_TX->_rdBlkRegCompleteHandler
    _I2C1_DO_TX->_wr1RegCompleteHandler
    _I2C1_DO_TX->_wr2RegCompleteHandler
    _I2C1_DO_TX_EMPTY->_I2C1_CallbackReturnReset
    _I2C1_DO_TX_EMPTY->_I2C1_CallbackReturnStop
    _I2C1_DO_TX_EMPTY->_rd1RegCompleteHandler
    _I2C1_DO_TX_EMPTY->_rd2RegCompleteHandler
    _I2C1_DO_TX_EMPTY->_rdBlkRegCompleteHandler
    _I2C1_DO_TX_EMPTY->_wr1RegCompleteHandler
    _I2C1_DO_TX_EMPTY->_wr2RegCompleteHandler
    _I2C1_DO_SEND_STOP->_I2C1_MasterSendTxData
    _I2C1_DO_SEND_STOP->_I2C1_MasterSetCounter
    _I2C1_DO_RX->_I2C1_DO_RX_EMPTY
    _I2C1_DO_BUS_COLLISION->_I2C1_CallbackReturnReset
    _I2C1_DO_BUS_COLLISION->_I2C1_CallbackReturnStop
    _I2C1_DO_BUS_COLLISION->_rd1RegCompleteHandler
    _I2C1_DO_BUS_COLLISION->_rd2RegCompleteHandler
    _I2C1_DO_BUS_COLLISION->_rdBlkRegCompleteHandler
    _I2C1_DO_BUS_COLLISION->_wr1RegCompleteHandler
    _I2C1_DO_BUS_COLLISION->_wr2RegCompleteHandler
    _I2C1_DO_SEND_RESTART_READ->_I2C1_MasterSetCounter
    _I2C1_DO_RX_EMPTY->_I2C1_CallbackReturnReset
    _I2C1_DO_RX_EMPTY->_I2C1_CallbackReturnStop
    _I2C1_DO_RX_EMPTY->_rd1RegCompleteHandler
    _I2C1_DO_RX_EMPTY->_rd2RegCompleteHandler
    _I2C1_DO_RX_EMPTY->_rdBlkRegCompleteHandler
    _I2C1_DO_RX_EMPTY->_wr1RegCompleteHandler
    _I2C1_DO_RX_EMPTY->_wr2RegCompleteHandler
    _I2C1_DO_ADDRESS_NACK->_I2C1_CallbackReturnReset
    _I2C1_DO_ADDRESS_NACK->_I2C1_CallbackReturnStop
    _I2C1_DO_ADDRESS_NACK->_rd1RegCompleteHandler
    _I2C1_DO_ADDRESS_NACK->_rd2RegCompleteHandler
    _I2C1_DO_ADDRESS_NACK->_rdBlkRegCompleteHandler
    _I2C1_DO_ADDRESS_NACK->_wr1RegCompleteHandler
    _I2C1_DO_ADDRESS_NACK->_wr2RegCompleteHandler
    _wr2RegCompleteHandler->_I2C1_SetDataCompleteCallback
    _wr1RegCompleteHandler->_I2C1_SetDataCompleteCallback
    _rdBlkRegCompleteHandler->_I2C1_SetDataCompleteCallback
    _rd2RegCompleteHandler->_I2C1_SetDataCompleteCallback
    _rd1RegCompleteHandler->_I2C1_SetDataCompleteCallback
    _I2C1_SetDataCompleteCallback->_I2C1_SetCallback
    _UART1_Initialize->_UART1_SetErrorHandler
    _UART1_Initialize->_UART1_SetFramingErrorHandler
    _UART1_Initialize->_UART1_SetOverrunErrorHandler
    _ADC_Initialize->_ADC_SetADIInterruptHandler
    _ADC_Initialize->_ADC_SetActiveClockTuningInterruptHandler
    _ADC_Initialize->_ADC_SetContext1ThresholdInterruptHandler

Critical Paths under _main in BANK5

    _main->_sprintf

Critical Paths under _main in BANK6

    None.

Critical Paths under _main in BANK7

    None.

Critical Paths under _main in BANK8

    None.

Critical Paths under _main in BANK9

    None.

Critical Paths under _main in BANK10

    None.

Critical Paths under _main in BANK11

    None.

Critical Paths under _main in BANK12

    None.

Critical Paths under _main in BANK13

    None.

Critical Paths under _main in BANK14

    None.

Critical Paths under _main in BANK15

    None.

Critical Paths under _main in BANK16

    None.

Critical Paths under _main in BANK17

    None.

Critical Paths under _main in BANK18

    None.

Critical Paths under _main in BANK19

    None.

Critical Paths under _main in BANK20

    None.

Critical Paths under _main in BANK21

    None.

Critical Paths under _main in BANK22

    None.

Critical Paths under _main in BANK23

    None.

Critical Paths under _main in BANK24

    None.

Critical Paths under _main in BANK25

    None.

Critical Paths under _main in BANK26

    None.

Critical Paths under _main in BANK27

    None.

Critical Paths under _main in BANK28

    None.

Critical Paths under _main in BANK29

    None.

Critical Paths under _main in BANK30

    None.

Critical Paths under _main in BANK31

    None.

Critical Paths under _main in BANK32

    None.

Critical Paths under _main in BANK33

    None.

Critical Paths under _main in BANK34

    None.

Critical Paths under _main in BANK35

    None.

Critical Paths under _main in BANK36

    None.

Critical Paths under _main in BANK37

    None.

Critical Paths under _main in BANK38

    None.

Critical Paths under _main in BANK39

    None.

Critical Paths under _main in BANK40

    None.

Critical Paths under _main in BANK41

    None.

Critical Paths under _main in BANK42

    None.

Critical Paths under _main in BANK43

    None.

Critical Paths under _main in BANK44

    None.

Critical Paths under _main in BANK45

    None.

Critical Paths under _main in BANK46

    None.

Critical Paths under _main in BANK47

    None.

Critical Paths under _main in BANK48

    None.

Critical Paths under _main in BANK49

    None.

Critical Paths under _main in BANK50

    None.

Critical Paths under _main in BANK51

    None.

Critical Paths under _main in BANK52

    None.

Critical Paths under _main in BANK53

    None.

Critical Paths under _main in BANK54

    None.

Call Graph Tables:

 ---------------------------------------------------------------------------------
 (Depth) Function   	        Calls       Base Space   Used Autos Params    Refs
 ---------------------------------------------------------------------------------
 (0) _main                                                 2     2      0 1384119
                                             16 BANK5      2     2      0
            _ADC_GetSingleConversion
                  _SYSTEM_Initialize
                           _lcd_init
                           _lcd_puts
                             _printf
                            _sprintf
 ---------------------------------------------------------------------------------
 (1) _sprintf                                             18    10      8    6968
                                              0 BANK5     16     8      8
                           _vfprintf
 ---------------------------------------------------------------------------------
 (1) _printf                                              10     4      6    6595
                                             89 COMRAM     6     0      6
                                              0 BANK5      2     2      0
                           _vfprintf
 ---------------------------------------------------------------------------------
 (2) _vfprintf                                             8     2      6    6465
                                             81 COMRAM     8     2      6
                          _vfpfcnvrt
 ---------------------------------------------------------------------------------
 (3) _vfpfcnvrt                                           42    36      6    5883
                                             65 COMRAM    16    10      6
                               _dtoa
                              _fputc
 ---------------------------------------------------------------------------------
 (4) _dtoa                                                36    26     10    4446
                                             29 COMRAM    36    26     10
                            ___aodiv
                            ___aomod
                                _abs
                                _pad
 ---------------------------------------------------------------------------------
 (5) _pad                                                 11     5      6    2797
                                             18 COMRAM    11     5      6
                              _fputc
                              _fputs
                             _strlen
 ---------------------------------------------------------------------------------
 (6) _strlen                                               4     2      2     166
                                              0 COMRAM     4     2      2
 ---------------------------------------------------------------------------------
 (6) _fputs                                                7     3      4    1279
                                             11 COMRAM     7     3      4
                              _fputc
 ---------------------------------------------------------------------------------
 (4) _fputc                                                9     5      4     878
                                              2 COMRAM     9     5      4
                              _putch
 ---------------------------------------------------------------------------------
 (5) _putch                                                1     1      0      44
                                              1 COMRAM     1     1      0
                        _UART1_Write
 ---------------------------------------------------------------------------------
 (6) _UART1_Write                                          1     1      0      22
                                              0 COMRAM     1     1      0
 ---------------------------------------------------------------------------------
 (5) _abs                                                  4     2      2     142
                                             18 COMRAM     4     2      2
                            ___aomod (ARG)
 ---------------------------------------------------------------------------------
 (5) ___aomod                                             18     2     16     448
                                              0 COMRAM    18     2     16
 ---------------------------------------------------------------------------------
 (5) ___aodiv                                             26    10     16     452
                                              0 COMRAM    26    10     16
 ---------------------------------------------------------------------------------
 (1) _lcd_puts                                             4     2      2  549127
                                             35 COMRAM     4     2      2
                         _lcd_gotoxy
                      _lcd_send_byte
 ---------------------------------------------------------------------------------
 (2) _lcd_gotoxy                                           5     4      1  274588
                                             30 COMRAM     5     4      1
                      _lcd_send_byte
 ---------------------------------------------------------------------------------
 (1) _lcd_init                                             2     2      0  820819
                                             30 COMRAM     2     2      0
            _I2C1_Write1ByteRegister
                         _Send_D7_D4
                      _lcd_send_byte
 ---------------------------------------------------------------------------------
 (2) _lcd_send_byte                                        2     1      1  274320
                                             28 COMRAM     2     1      1
                         _Send_D7_D4
 ---------------------------------------------------------------------------------
 (3) _Send_D7_D4                                           3     2      1  273548
                                             25 COMRAM     3     2      1
                          _Write_PCF
 ---------------------------------------------------------------------------------
 (4) _Write_PCF                                            1     1      0  272859
                                             24 COMRAM     1     1      0
            _I2C1_Write1ByteRegister
 ---------------------------------------------------------------------------------
 (5) _I2C1_Write1ByteRegister                              3     1      2  272837
                                             21 COMRAM     3     1      2
                         _I2C1_Close
                   _I2C1_MasterWrite
                          _I2C1_Open
        _I2C1_SetAddressNackCallback
                     _I2C1_SetBuffer
       _I2C1_SetDataCompleteCallback
 ---------------------------------------------------------------------------------
 (6) _I2C1_SetAddressNackCallback                          5     0      5    1870
                                              6 COMRAM     5     0      5
                   _I2C1_SetCallback
 ---------------------------------------------------------------------------------
 (6) _I2C1_Open                                            2     2      0      46
                                              0 COMRAM     2     2      0
                _I2C1_MasterClearIrq
                    _I2C1_MasterOpen
 ---------------------------------------------------------------------------------
 (7) _I2C1_MasterOpen                                      0     0      0       0
 ---------------------------------------------------------------------------------
 (6) _I2C1_MasterWrite                                     0     0      0  266169
               _I2C1_MasterOperation
 ---------------------------------------------------------------------------------
 (7) _I2C1_MasterOperation                                 2     2      0  266169
                                             19 COMRAM     2     2      0
              _I2C1_DO_SEND_ADR_READ
             _I2C1_DO_SEND_ADR_WRITE
              _I2C1_MasterSetCounter
                        _I2C1_Poller
 ---------------------------------------------------------------------------------
 (8) _I2C1_Poller                                          0     0      0  243908
                     _I2C1_MasterFsm
            _I2C1_MasterWaitForEvent
 ---------------------------------------------------------------------------------
 (9) _I2C1_MasterWaitForEvent                              0     0      0       0
 ---------------------------------------------------------------------------------
 (9) _I2C1_MasterFsm                                       0     0      0  243908
           _I2C1_ClearInterruptFlags
               _I2C1_DO_ADDRESS_NACK *
              _I2C1_DO_BUS_COLLISION *
                  _I2C1_DO_BUS_ERROR *
                       _I2C1_DO_IDLE *
                      _I2C1_DO_RESET *
                         _I2C1_DO_RX *
                     _I2C1_DO_RX_ACK *
                   _I2C1_DO_RX_EMPTY *
            _I2C1_DO_RX_NACK_RESTART *
               _I2C1_DO_RX_NACK_STOP *
              _I2C1_DO_SEND_ADR_READ *
             _I2C1_DO_SEND_ADR_WRITE *
               _I2C1_DO_SEND_RESTART *
          _I2C1_DO_SEND_RESTART_READ *
         _I2C1_DO_SEND_RESTART_WRITE *
                  _I2C1_DO_SEND_STOP *
                         _I2C1_DO_TX *
                     _I2C1_DO_TX_ACK *
                   _I2C1_DO_TX_EMPTY *
                  _I2C1_MasterIsNack
 ---------------------------------------------------------------------------------
 (10) _I2C1_DO_TX_ACK                                      0     0      0       0
                 _I2C1_MasterSendAck
 ---------------------------------------------------------------------------------
 (10) _I2C1_DO_TX                                          6     6      0   66561
                                             13 COMRAM     6     6      0
                   Absolute function *
           _I2C1_CallbackReturnReset *
            _I2C1_CallbackReturnStop *
          _I2C1_DO_SEND_RESTART_READ
         _I2C1_DO_SEND_RESTART_WRITE
                   _I2C1_DO_TX_EMPTY
                  _I2C1_MasterIsNack
            _I2C1_MasterIsTxBufEmpty
              _I2C1_MasterSendTxData
              _rd1RegCompleteHandler *
              _rd2RegCompleteHandler *
            _rdBlkRegCompleteHandler *
              _wr1RegCompleteHandler *
              _wr2RegCompleteHandler *
 ---------------------------------------------------------------------------------
 (11) _I2C1_MasterIsTxBufEmpty                             0     0      0       0
 ---------------------------------------------------------------------------------
 (10) _I2C1_MasterIsNack                                   0     0      0       0
 ---------------------------------------------------------------------------------
 (10) _I2C1_DO_TX_EMPTY                                    2     2      0   22149
                                             13 COMRAM     2     2      0
                   Absolute function *
           _I2C1_CallbackReturnReset *
            _I2C1_CallbackReturnStop *
          _I2C1_MasterDisableRestart
           _I2C1_MasterEnableRestart
              _I2C1_MasterSetCounter
              _rd1RegCompleteHandler *
              _rd2RegCompleteHandler *
            _rdBlkRegCompleteHandler *
              _wr1RegCompleteHandler *
              _wr2RegCompleteHandler *
 ---------------------------------------------------------------------------------
 (10) _I2C1_DO_SEND_STOP                                   0     0      0      44
              _I2C1_MasterGetCounter
              _I2C1_MasterSendTxData
              _I2C1_MasterSetCounter
                    _I2C1_MasterStop
 ---------------------------------------------------------------------------------
 (11) _I2C1_MasterGetCounter                               0     0      0       0
 ---------------------------------------------------------------------------------
 (10) _I2C1_DO_SEND_ADR_WRITE                              0     0      0      22
              _I2C1_MasterSendTxData
 ---------------------------------------------------------------------------------
 (10) _I2C1_DO_RX_NACK_STOP                                0     0      0       0
                       _I2C1_DO_IDLE
                _I2C1_MasterSendNack
                    _I2C1_MasterStop
 ---------------------------------------------------------------------------------
 (11) _I2C1_MasterStop                                     0     0      0       0
 ---------------------------------------------------------------------------------
 (11) _I2C1_DO_IDLE                                        0     0      0       0
 ---------------------------------------------------------------------------------
 (10) _I2C1_DO_RX_NACK_RESTART                             0     0      0       0
                _I2C1_MasterSendNack
 ---------------------------------------------------------------------------------
 (11) _I2C1_MasterSendNack                                 0     0      0       0
 ---------------------------------------------------------------------------------
 (10) _I2C1_DO_RX_ACK                                      0     0      0       0
                 _I2C1_MasterSendAck
 ---------------------------------------------------------------------------------
 (11) _I2C1_MasterSendAck                                  0     0      0       0
 ---------------------------------------------------------------------------------
 (10) _I2C1_DO_RX                                          3     3      0   22172
                                             15 COMRAM     3     3      0
                   _I2C1_DO_RX_EMPTY
               _I2C1_MasterGetRxData
             _I2C1_MasterIsRxBufFull
 ---------------------------------------------------------------------------------
 (11) _I2C1_MasterIsRxBufFull                              0     0      0       0
 ---------------------------------------------------------------------------------
 (11) _I2C1_MasterGetRxData                                0     0      0       0
 ---------------------------------------------------------------------------------
 (10) _I2C1_DO_BUS_ERROR                                   0     0      0       0
                _I2C1_MasterResetBus
 ---------------------------------------------------------------------------------
 (10) _I2C1_DO_BUS_COLLISION                               2     2      0   44320
                                             13 COMRAM     2     2      0
                   Absolute function *
           _I2C1_CallbackReturnReset *
            _I2C1_CallbackReturnStop *
                      _I2C1_DO_RESET
          _I2C1_DO_SEND_RESTART_READ
         _I2C1_DO_SEND_RESTART_WRITE
                _I2C1_MasterClearIrq
              _rd1RegCompleteHandler *
              _rd2RegCompleteHandler *
            _rdBlkRegCompleteHandler *
              _wr1RegCompleteHandler *
              _wr2RegCompleteHandler *
 ---------------------------------------------------------------------------------
 (11) _I2C1_DO_SEND_RESTART_WRITE                          0     0      0       0
 ---------------------------------------------------------------------------------
 (11) _I2C1_DO_SEND_RESTART_READ                           0     0      0   22193
              _I2C1_DO_SEND_ADR_READ
              _I2C1_MasterSetCounter
 ---------------------------------------------------------------------------------
 (12) _I2C1_DO_SEND_ADR_READ                               0     0      0   22171
                   _I2C1_DO_RX_EMPTY
              _I2C1_MasterSendTxData
 ---------------------------------------------------------------------------------
 (11) _I2C1_MasterSendTxData                               1     1      0      22
                                              0 COMRAM     1     1      0
 ---------------------------------------------------------------------------------
 (13) _I2C1_DO_RX_EMPTY                                    2     2      0   22149
                                             13 COMRAM     2     2      0
                   Absolute function *
           _I2C1_CallbackReturnReset *
            _I2C1_CallbackReturnStop *
          _I2C1_MasterDisableRestart
           _I2C1_MasterEnableRestart
              _I2C1_MasterSetCounter
              _rd1RegCompleteHandler *
              _rd2RegCompleteHandler *
            _rdBlkRegCompleteHandler *
              _wr1RegCompleteHandler *
              _wr2RegCompleteHandler *
 ---------------------------------------------------------------------------------
 (11) _I2C1_MasterSetCounter                               1     1      0      22
                                              0 COMRAM     1     1      0
 ---------------------------------------------------------------------------------
 (11) _I2C1_MasterEnableRestart                            0     0      0       0
 ---------------------------------------------------------------------------------
 (11) _I2C1_MasterDisableRestart                           0     0      0       0
 ---------------------------------------------------------------------------------
 (10) _I2C1_DO_RESET                                       0     0      0       0
                _I2C1_MasterResetBus
 ---------------------------------------------------------------------------------
 (11) _I2C1_MasterResetBus                                 0     0      0       0
 ---------------------------------------------------------------------------------
 (10) _I2C1_DO_ADDRESS_NACK                                2     2      0   22127
                                             13 COMRAM     2     2      0
                   Absolute function *
           _I2C1_CallbackReturnReset *
            _I2C1_CallbackReturnStop *
               _I2C1_DO_SEND_RESTART
              _rd1RegCompleteHandler *
              _rd2RegCompleteHandler *
            _rdBlkRegCompleteHandler *
              _wr1RegCompleteHandler *
              _wr2RegCompleteHandler *
 ---------------------------------------------------------------------------------
 (11) _wr2RegCompleteHandler                               2     0      2    4368
                                             11 COMRAM     2     0      2
                     _I2C1_SetBuffer
       _I2C1_SetDataCompleteCallback
 ---------------------------------------------------------------------------------
 (11) _wr1RegCompleteHandler                               2     0      2    4368
                                             11 COMRAM     2     0      2
                     _I2C1_SetBuffer
       _I2C1_SetDataCompleteCallback
 ---------------------------------------------------------------------------------
 (11) _rdBlkRegCompleteHandler                             2     0      2    4390
                                             11 COMRAM     2     0      2
                     _I2C1_SetBuffer
       _I2C1_SetDataCompleteCallback
 ---------------------------------------------------------------------------------
 (11) _rd2RegCompleteHandler                               2     0      2    4368
                                             11 COMRAM     2     0      2
                     _I2C1_SetBuffer
       _I2C1_SetDataCompleteCallback
 ---------------------------------------------------------------------------------
 (11) _rd1RegCompleteHandler                               2     0      2    4368
                                             11 COMRAM     2     0      2
                     _I2C1_SetBuffer
       _I2C1_SetDataCompleteCallback
 ---------------------------------------------------------------------------------
 (6) _I2C1_SetDataCompleteCallback                         5     0      5    2478
                                              6 COMRAM     5     0      5
                   _I2C1_SetCallback
 ---------------------------------------------------------------------------------
 (7) _I2C1_SetCallback                                     6     1      5     914
                                              0 COMRAM     6     1      5
 ---------------------------------------------------------------------------------
 (6) _I2C1_SetBuffer                                       4     0      4    1868
                                              0 COMRAM     4     0      4
 ---------------------------------------------------------------------------------
 (10) _I2C1_DO_SEND_RESTART                                0     0      0       0
 ---------------------------------------------------------------------------------
 (11) _I2C1_CallbackReturnStop                             2     0      2       0
                                             11 COMRAM     2     0      2
 ---------------------------------------------------------------------------------
 (11) _I2C1_CallbackReturnReset                            2     0      2     265
                                             11 COMRAM     2     0      2
 ---------------------------------------------------------------------------------
 (11) Absolute function(Fake)                              2     0      2       0
 ---------------------------------------------------------------------------------
 (10) _I2C1_ClearInterruptFlags                            0     0      0       0
          _I2C1_MasterClearCountFlag
           _I2C1_MasterClearNackFlag
           _I2C1_MasterClearStopFlag
          _I2C1_MasterIsCountFlagSet
           _I2C1_MasterIsNackFlagSet
           _I2C1_MasterIsStopFlagSet
 ---------------------------------------------------------------------------------
 (11) _I2C1_MasterIsStopFlagSet                            0     0      0       0
 ---------------------------------------------------------------------------------
 (11) _I2C1_MasterIsNackFlagSet                            0     0      0       0
 ---------------------------------------------------------------------------------
 (11) _I2C1_MasterIsCountFlagSet                           0     0      0       0
 ---------------------------------------------------------------------------------
 (11) _I2C1_MasterClearStopFlag                            0     0      0       0
 ---------------------------------------------------------------------------------
 (11) _I2C1_MasterClearNackFlag                            0     0      0       0
 ---------------------------------------------------------------------------------
 (11) _I2C1_MasterClearCountFlag                           0     0      0       0
 ---------------------------------------------------------------------------------
 (6) _I2C1_Close                                           1     1      0      24
                                              0 COMRAM     1     1      0
                _I2C1_MasterClearIrq
                   _I2C1_MasterClose
              _I2C1_MasterDisableIrq
 ---------------------------------------------------------------------------------
 (7) _I2C1_MasterDisableIrq                                0     0      0       0
 ---------------------------------------------------------------------------------
 (7) _I2C1_MasterClose                                     0     0      0       0
 ---------------------------------------------------------------------------------
 (7) _I2C1_MasterClearIrq                                  0     0      0       0
 ---------------------------------------------------------------------------------
 (1) _SYSTEM_Initialize                                    0     0      0     588
                     _ADC_Initialize
                    _I2C1_Initialize
              _OSCILLATOR_Initialize
             _PIN_MANAGER_Initialize
                     _PMD_Initialize
                   _UART1_Initialize
 ---------------------------------------------------------------------------------
 (2) _UART1_Initialize                                     0     0      0     294
              _UART1_SetErrorHandler
       _UART1_SetFramingErrorHandler
       _UART1_SetOverrunErrorHandler
 ---------------------------------------------------------------------------------
 (3) _UART1_SetOverrunErrorHandler                         3     0      3      98
                                              0 COMRAM     3     0      3
 ---------------------------------------------------------------------------------
 (3) _UART1_SetFramingErrorHandler                         3     0      3      98
                                              0 COMRAM     3     0      3
 ---------------------------------------------------------------------------------
 (3) _UART1_SetErrorHandler                                3     0      3      98
                                              0 COMRAM     3     0      3
 ---------------------------------------------------------------------------------
 (2) _PMD_Initialize                                       0     0      0       0
 ---------------------------------------------------------------------------------
 (2) _PIN_MANAGER_Initialize                               0     0      0       0
 ---------------------------------------------------------------------------------
 (2) _OSCILLATOR_Initialize                                0     0      0       0
 ---------------------------------------------------------------------------------
 (2) _I2C1_Initialize                                      0     0      0       0
 ---------------------------------------------------------------------------------
 (2) _ADC_Initialize                                       0     0      0     294
         _ADC_SetADIInterruptHandler
_ADC_SetActiveClockTuningInterruptHa
_ADC_SetContext1ThresholdInterruptHa
 ---------------------------------------------------------------------------------
 (3) _ADC_SetContext1ThresholdInterruptHandler             3     0      3      98
                                              0 COMRAM     3     0      3
 ---------------------------------------------------------------------------------
 (3) _ADC_SetActiveClockTuningInterruptHandler             3     0      3      98
                                              0 COMRAM     3     0      3
 ---------------------------------------------------------------------------------
 (3) _ADC_SetADIInterruptHandler                           3     0      3      98
                                              0 COMRAM     3     0      3
 ---------------------------------------------------------------------------------
 (1) _ADC_GetSingleConversion                              5     3      2      22
                                              0 COMRAM     5     3      2
 ---------------------------------------------------------------------------------
 Estimated maximum stack depth 13
 ---------------------------------------------------------------------------------

 Call Graph Graphs:

 _main (ROOT)
   _ADC_GetSingleConversion
   _SYSTEM_Initialize
     _ADC_Initialize
       _ADC_SetADIInterruptHandler
       _ADC_SetActiveClockTuningInterruptHandler
       _ADC_SetContext1ThresholdInterruptHandler
     _I2C1_Initialize
     _OSCILLATOR_Initialize
     _PIN_MANAGER_Initialize
     _PMD_Initialize
     _UART1_Initialize
       _UART1_SetErrorHandler
       _UART1_SetFramingErrorHandler
       _UART1_SetOverrunErrorHandler
   _lcd_init
     _I2C1_Write1ByteRegister
       _I2C1_Close
         _I2C1_MasterClearIrq
         _I2C1_MasterClose
         _I2C1_MasterDisableIrq
       _I2C1_MasterWrite
         _I2C1_MasterOperation
           _I2C1_DO_SEND_ADR_READ
             _I2C1_DO_RX_EMPTY
               Absolute function(Fake) *
               _I2C1_CallbackReturnReset *
               _I2C1_CallbackReturnStop *
               _I2C1_MasterDisableRestart *
               _I2C1_MasterEnableRestart *
               _I2C1_MasterSetCounter *
               _rd1RegCompleteHandler *
                 _I2C1_SetBuffer
                 _I2C1_SetDataCompleteCallback
                   _I2C1_SetCallback
               _rd2RegCompleteHandler *
                 _I2C1_SetBuffer
                 _I2C1_SetDataCompleteCallback
               _rdBlkRegCompleteHandler *
                 _I2C1_SetBuffer
                 _I2C1_SetDataCompleteCallback
               _wr1RegCompleteHandler *
                 _I2C1_SetBuffer
                 _I2C1_SetDataCompleteCallback
               _wr2RegCompleteHandler *
                 _I2C1_SetBuffer
                 _I2C1_SetDataCompleteCallback
             _I2C1_MasterSendTxData
           _I2C1_DO_SEND_ADR_WRITE
             _I2C1_MasterSendTxData
           _I2C1_MasterSetCounter
           _I2C1_Poller
             _I2C1_MasterFsm
               _I2C1_ClearInterruptFlags
                 _I2C1_MasterClearCountFlag
                 _I2C1_MasterClearNackFlag
                 _I2C1_MasterClearStopFlag
                 _I2C1_MasterIsCountFlagSet
                 _I2C1_MasterIsNackFlagSet
                 _I2C1_MasterIsStopFlagSet
               _I2C1_DO_ADDRESS_NACK *
                 Absolute function(Fake) *
                 _I2C1_CallbackReturnReset *
                 _I2C1_CallbackReturnStop *
                 _I2C1_DO_SEND_RESTART *
                 _rd1RegCompleteHandler *
                 _rd2RegCompleteHandler *
                 _rdBlkRegCompleteHandler *
                 _wr1RegCompleteHandler *
                 _wr2RegCompleteHandler *
               _I2C1_DO_BUS_COLLISION *
                 Absolute function(Fake) *
                 _I2C1_CallbackReturnReset *
                 _I2C1_CallbackReturnStop *
                 _I2C1_DO_RESET *
                   _I2C1_MasterResetBus
                 _I2C1_DO_SEND_RESTART_READ *
                   _I2C1_DO_SEND_ADR_READ
                   _I2C1_MasterSetCounter
                 _I2C1_DO_SEND_RESTART_WRITE *
                 _I2C1_MasterClearIrq *
                 _rd1RegCompleteHandler *
                 _rd2RegCompleteHandler *
                 _rdBlkRegCompleteHandler *
                 _wr1RegCompleteHandler *
                 _wr2RegCompleteHandler *
               _I2C1_DO_BUS_ERROR *
                 _I2C1_MasterResetBus
               _I2C1_DO_IDLE *
               _I2C1_DO_RESET *
               _I2C1_DO_RX *
                 _I2C1_DO_RX_EMPTY
                 _I2C1_MasterGetRxData
                 _I2C1_MasterIsRxBufFull
               _I2C1_DO_RX_ACK *
                 _I2C1_MasterSendAck
               _I2C1_DO_RX_EMPTY *
               _I2C1_DO_RX_NACK_RESTART *
                 _I2C1_MasterSendNack
               _I2C1_DO_RX_NACK_STOP *
                 _I2C1_DO_IDLE
                 _I2C1_MasterSendNack
                 _I2C1_MasterStop
               _I2C1_DO_SEND_ADR_READ *
               _I2C1_DO_SEND_ADR_WRITE *
               _I2C1_DO_SEND_RESTART *
               _I2C1_DO_SEND_RESTART_READ *
               _I2C1_DO_SEND_RESTART_WRITE *
               _I2C1_DO_SEND_STOP *
                 _I2C1_MasterGetCounter
                 _I2C1_MasterSendTxData
                 _I2C1_MasterSetCounter
                 _I2C1_MasterStop
               _I2C1_DO_TX *
                 Absolute function(Fake) *
                 _I2C1_CallbackReturnReset *
                 _I2C1_CallbackReturnStop *
                 _I2C1_DO_SEND_RESTART_READ *
                 _I2C1_DO_SEND_RESTART_WRITE *
                 _I2C1_DO_TX_EMPTY *
                   Absolute function(Fake) *
                   _I2C1_CallbackReturnReset *
                   _I2C1_CallbackReturnStop *
                   _I2C1_MasterDisableRestart *
                   _I2C1_MasterEnableRestart *
                   _I2C1_MasterSetCounter *
                   _rd1RegCompleteHandler *
                   _rd2RegCompleteHandler *
                   _rdBlkRegCompleteHandler *
                   _wr1RegCompleteHandler *
                   _wr2RegCompleteHandler *
                 _I2C1_MasterIsNack *
                 _I2C1_MasterIsTxBufEmpty *
                 _I2C1_MasterSendTxData *
                 _rd1RegCompleteHandler *
                 _rd2RegCompleteHandler *
                 _rdBlkRegCompleteHandler *
                 _wr1RegCompleteHandler *
                 _wr2RegCompleteHandler *
               _I2C1_DO_TX_ACK *
                 _I2C1_MasterSendAck
               _I2C1_DO_TX_EMPTY *
               _I2C1_MasterIsNack *
             _I2C1_MasterWaitForEvent
       _I2C1_Open
         _I2C1_MasterClearIrq
         _I2C1_MasterOpen
       _I2C1_SetAddressNackCallback
         _I2C1_SetCallback
       _I2C1_SetBuffer
       _I2C1_SetDataCompleteCallback
     _Send_D7_D4
       _Write_PCF
         _I2C1_Write1ByteRegister
     _lcd_send_byte
       _Send_D7_D4
   _lcd_puts
     _lcd_gotoxy
       _lcd_send_byte
     _lcd_send_byte
   _printf
     _vfprintf
       _vfpfcnvrt
         _dtoa
           ___aodiv
           ___aomod
           _abs
             ___aomod (ARG)
           _pad
             _fputc
               _putch
                 _UART1_Write
             _fputs
               _fputc
             _strlen
         _fputc
   _sprintf
     _vfprintf

 Address spaces:
Name               Size   Autos  Total    Cost      Usage
BIGRAM            31FF      0       0     105        0.0%
EEDATA             400      0       0       0        0.0%
BITBANK54          100      0       0     103        0.0%
BANK54             100      0       0     104        0.0%
BITBANK53          100      0       0     101        0.0%
BANK53             100      0       0     102        0.0%
BITBANK52          100      0       0      98        0.0%
BANK52             100      0       0      99        0.0%
BITBANK51          100      0       0      96        0.0%
BANK51             100      0       0      97        0.0%
BITBANK50          100      0       0      94        0.0%
BANK50             100      0       0      95        0.0%
BITBANK49          100      0       0      92        0.0%
BANK49             100      0       0      93        0.0%
BITBANK48          100      0       0      90        0.0%
BANK48             100      0       0      91        0.0%
BITBANK47          100      0       0      88        0.0%
BANK47             100      0       0      89        0.0%
BITBANK46          100      0       0      86        0.0%
BANK46             100      0       0      87        0.0%
BITBANK45          100      0       0      84        0.0%
BANK45             100      0       0      85        0.0%
BITBANK44          100      0       0      82        0.0%
BANK44             100      0       0      83        0.0%
BITBANK43          100      0       0      80        0.0%
BANK43             100      0       0      81        0.0%
BITBANK42          100      0       0      78        0.0%
BANK42             100      0       0      79        0.0%
BITBANK41          100      0       0      76        0.0%
BANK41             100      0       0      77        0.0%
BITBANK40          100      0       0      74        0.0%
BANK40             100      0       0      75        0.0%
BITBANK39          100      0       0      72        0.0%
BANK39             100      0       0      73        0.0%
BITBANK38          100      0       0      70        0.0%
BANK38             100      0       0      71        0.0%
BITBANK37          100      0       0      68        0.0%
BANK37             100      0       0      69        0.0%
BITBANK36          100      0       0      66        0.0%
BANK36             100      0       0      67        0.0%
BITBANK35          100      0       0      64        0.0%
BANK35             100      0       0      65        0.0%
BITBANK34          100      0       0      62        0.0%
BANK34             100      0       0      63        0.0%
BITBANK33          100      0       0      60        0.0%
BANK33             100      0       0      61        0.0%
BITBANK32          100      0       0      58        0.0%
BANK32             100      0       0      59        0.0%
BITBANK31          100      0       0      56        0.0%
BANK31             100      0       0      57        0.0%
BITBANK30          100      0       0      54        0.0%
BANK30             100      0       0      55        0.0%
BITBANK29          100      0       0      52        0.0%
BANK29             100      0       0      53        0.0%
BITBANK28          100      0       0      50        0.0%
BANK28             100      0       0      51        0.0%
BITBANK27          100      0       0      48        0.0%
BANK27             100      0       0      49        0.0%
BITBANK26          100      0       0      46        0.0%
BANK26             100      0       0      47        0.0%
BITBANK25          100      0       0      44        0.0%
BANK25             100      0       0      45        0.0%
BITBANK24          100      0       0      42        0.0%
BANK24             100      0       0      43        0.0%
BITBANK23          100      0       0      40        0.0%
BANK23             100      0       0      41        0.0%
BITBANK22          100      0       0      38        0.0%
BANK22             100      0       0      39        0.0%
BITBANK21          100      0       0      36        0.0%
BANK21             100      0       0      37        0.0%
BITBANK20          100      0       0      34        0.0%
BANK20             100      0       0      35        0.0%
BITBANK19          100      0       0      32        0.0%
BANK19             100      0       0      33        0.0%
BITBANK18          100      0       0      30        0.0%
BANK18             100      0       0      31        0.0%
BITBANK17          100      0       0      28        0.0%
BANK17             100      0       0      29        0.0%
BITBANK16          100      0       0      26        0.0%
BANK16             100      0       0      27        0.0%
BITBANK15          100      0       0      24        0.0%
BANK15             100      0       0      25        0.0%
BITBANK14          100      0       0      22        0.0%
BANK14             100      0       0      23        0.0%
BITBANK13          100      0       0      20        0.0%
BANK13             100      0       0      21        0.0%
BITBANK12          100      0       0      18        0.0%
BANK12             100      0       0      19        0.0%
BITBANK11          100      0       0      16        0.0%
BANK11             100      0       0      17        0.0%
BITBANK10          100      0       0      14        0.0%
BANK10             100      0       0      15        0.0%
BITBANK9           100      0       0      12        0.0%
BANK9              100      0       0      13        0.0%
BITBANK8           100      0       0      10        0.0%
BANK8              100      0       0      11        0.0%
BITBANK7           100      0       0       8        0.0%
BANK7              100      0       0       9        0.0%
BITBANK6           100      0       0       6        0.0%
BANK6              100      0      28       7       15.6%
BITBANK5            A0      0       0       4        0.0%
BANK5               A0     12      7C       5       77.5%
BITCOMRAM           5F      0       0       0        0.0%
COMRAM              5F     5F      5F       1      100.0%
BITSFR_14            0      0       0     200        0.0%
SFR_14               0      0       0     200        0.0%
BITSFR_13            0      0       0     200        0.0%
SFR_13               0      0       0     200        0.0%
BITSFR_12            0      0       0     200        0.0%
SFR_12               0      0       0     200        0.0%
BITSFR_11            0      0       0     200        0.0%
SFR_11               0      0       0     200        0.0%
BITSFR_10            0      0       0     200        0.0%
SFR_10               0      0       0     200        0.0%
BITSFR_9             0      0       0     200        0.0%
SFR_9                0      0       0     200        0.0%
BITSFR_8             0      0       0     200        0.0%
SFR_8                0      0       0     200        0.0%
BITSFR_7             0      0       0     200        0.0%
SFR_7                0      0       0     200        0.0%
BITSFR_6             0      0       0     200        0.0%
SFR_6                0      0       0     200        0.0%
BITSFR_5             0      0       0     200        0.0%
SFR_5                0      0       0     200        0.0%
BITSFR_4             0      0       0     200        0.0%
SFR_4                0      0       0     200        0.0%
BITSFR_3             0      0       0     200        0.0%
SFR_3                0      0       0     200        0.0%
BITSFR_2             0      0       0     200        0.0%
SFR_2                0      0       0     200        0.0%
BITSFR_1             0      0       0     200        0.0%
SFR_1                0      0       0     200        0.0%
BITSFR               0      0       0     200        0.0%
SFR                  0      0       0     200        0.0%
STACK                0      0       0       2        0.0%
NULL                 0      0       0       0        0.0%
ABS                  0      0     103     100        0.0%
DATA                 0      0     103       3        0.0%
CODE                 0      0       0       0        0.0%


Microchip Technology PIC18 Macro Assembler V2.32 build 20210201212658 
Symbol Table                                                                                   Tue Jun 21 11:36:17 2022

                                       Send_D7_D4@address 051B  
                                        Send_D7_D4@nibble 051A  
                                                      l51 4A10  
                                                      l90 4F66  
                                                      l93 4F36  
                                                      l96 4F06  
                                                      l99 4F96  
                                          ?_lcd_send_byte 051D  
                                                     l102 4DE6  
                                                     l300 5048  
                                                     l151 50C0  
                                                     l320 5366  
                                                     l304 4630  
                                                     l145 51AA  
                                                     l330 5174  
                                                     l314 4D44  
                                                     l148 51DA  
                                                     l308 501C  
                                                     l502 52B8  
                                                     l406 491E  
                                                     l430 53C6  
                                                     l327 50E4  
                                                     l511 53B0  
                                                     l415 46D4  
                                                     l520 539E  
                                                     l440 537E  
                                                     l424 52D4  
                                                     l336 5158  
                                                     l505 535E  
                                                     l353 5120  
                                                     l514 5392  
                                                     l434 5098  
                                                     l347 48A0  
                                                     l523 5398  
                                                     l427 53CA  
                                                     l443 52C6  
                                                     l508 53AA  
                                                     l532 5206  
                                                     l372 4FC4  
                                                     l541 525E  
                                                     l365 4D96  
                                                     l517 521C  
                                                     l381 4066  
                                                     l437 5376  
                                                     l357 4B6E  
                                                     l550 53BC  
                                                     l446 536E  
                                                     l462 4A86  
                                                     l535 5248  
                                                     l375 51F0  
                                                     l455 4BDC  
                                                     l544 53B6  
                                                     l368 5334  
                                                     l561 5190  
                                                     l529 5232  
                                                     l449 52A8  
                                                     l490 5340  
                                                     l538 5274  
                                                     l474 53D2  
                                                     l570 4C6C  
                                                     l547 53C2  
                                                     l571 4C80  
                                                     l564 5386  
                                                     l468 5298  
                                                     l572 4C92  
                                                     l477 53CE  
                                                     l493 53A4  
                                                     l742 4AFC  
                                                     l398 4812  
                                                     l399 47BE  
                                                     l575 4CA0  
                                                     l567 4C48  
                                                     l487 4FF0  
                                                     l496 5354  
                                                     l568 4C5A  
                                                     l906 4438  
                                                     l499 538C  
                                                     l771 51C2  
                                                     l676 44E4  
                                                     l944 4EB6  
                                                     l792 52E2  
                                                     l768 51AE  
                                                     l777 534A  
                                                     l947 4ED6  
                                                     l795 52FE  
                                                     l789 52F0  
                             ??_I2C1_MasterClearCountFlag 0501  
                                   ?_I2C1_MasterOperation 0501  
                                                     _abs 4E2C  
                                                     _pad 4140  
                                  ?_I2C1_MasterSetCounter 0501  
                                 __size_of_PMD_Initialize 0028  
                                                     prod 0004F3  
                                                     tosl 0004FD  
                                                     wreg 0004E8  
                                  ?_I2C1_MasterSendTxData 0501  
                       __size_of_I2C1_MasterEnableRestart 0006  
                                    _I2C1_DO_RX_NACK_STOP 52BA  
                               ?_I2C1_MasterEnableRestart 0501  
                                fp__I2C1_DO_SEND_ADR_READ 0000  
                                 fp__I2C1_DO_SEND_RESTART 0000  
                                             lcd_gotoxy@x 0522  
                                             lcd_gotoxy@y 051F  
                                    I2C1_SetBuffer@buffer 0501  
                              ??_I2C1_MasterIsStopFlagSet 0501  
                                                    l1040 531A  
                                                    l1112 513C  
                                                    l1034 5328  
                                                    ?_abs 0513  
                                 ??_rd2RegCompleteHandler 050E  
                                                    l1037 530C  
                                                    l1109 4380  
                                                    l1119 458C  
                                                    l1129 499A  
                                                    l1148 42C4  
                                                    l4000 533A  
                                                    l1096 5288  
                                                    l4002 533E  
                                                    l4010 4D0C  
                                                    l1274 3DDC  
                                                    l4100 501A  
                                                    l4020 4D34  
                                                    l4012 4D10  
                                                    l4004 4CF6  
                                                    l4022 4D3A  
                                                    l4014 4D16  
                                                    l4006 4CFA  
                                                    l4030 5344  
                                                    l4110 4096  
                                                    l1287 3F40  
                                                    l4024 4D3E  
                                                    l4016 4D26  
                                                    l4008 4D0A  
                                                    l4040 45AA  
                                                    l4032 4590  
                                                    l4120 499E  
                                                    l5000 495A  
                                                    l4200 3DF0  
                                                    l4112 40B4  
                                                    l4104 4068  
                                                    l5010 3FA8  
                                                    l5002 4A70  
                                                    l4018 4D2C  
                                                    l4026 4D42  
                                                    l4050 45BE  
                                                    l4042 45AC  
                                                    l4034 4594  
                                                    l4130 49FC  
                                                    l4122 49B4  
                                                    l4210 3E60  
                                                    l4202 3E10  
                                                    l4114 40EA  
                                                    l4106 407A  
                                                    l5004 4BC6  
                                                    l4060 45F2  
                                                    l4052 45CA  
                                                    l4044 45B0  
                                                    l4036 45A4  
                                                    l4124 49CC  
                                                    l4220 3ED8  
                                                    l4212 3E68  
                                                    l4204 3E14  
                                                    l4108 408C  
                                                    l4132 4DE8  
                                                    l4140 4E6C  
                                                    l4300 3792  
                                                    l5006 46AE  
                                                    l4070 4622  
                                                    l4062 45FA  
                                                    l4054 45D2  
                                                    l4046 45B4  
                                                    l4038 45A8  
                                                    l4126 49E0  
                                                    l4118 499E  
                                                    l4150 5278  
                                                    l4222 3EEA  
                                                    l4214 3E7C  
                                                    l4206 3E22  
                                                    l4134 4DF4  
                                                    l4142 4E78  
                                                    l4310 3806  
                                                    l4302 37BA  
                                                    l1910 4C46  
                                                    l1903 3C54  
                                                    l5008 4900  
                                                    l3600 463E  
                                                    l4072 4626  
                                                    l4064 4606  
                                                    l4056 45DE  
                                                    l4048 45BC  
                                                    l4080 513E  
                                                    l4128 49F8  
                                                    l4160 3C8C  
                                                    l4152 3C56  
                                                    l4216 3E8A  
                                                    l4224 3EF0  
                                                    l4208 3E42  
                                                    l4136 4E06  
                                                    l4144 4E7C  
                                                    l4240 417E  
                                                    l4232 4140  
                                                    l4320 3850  
                                                    l4312 3822  
                                                    l4304 37DA  
                                                    l4090 5006  
                                                    l3530 515A  
                                                    l3610 464E  
                                                    l4082 5360  
                                                    l4074 462A  
                                                    l4066 460E  
                                                    l4058 45E6  
                                                    l4170 3CE8  
                                                    l4162 3C9A  
                                                    l4154 3C5A  
                                                    l4226 3F00  
                                                    l4218 3EB8  
                                                    l1914 4E62  
                                                    l4138 4E0A  
                                                    l4146 4E98  
                                                    l4250 41EC  
                                                    l4242 4192  
                                                    l4234 4150  
                                                    l4330 38EC  
                                                    l4322 3858  
                                                    l4314 3834  
                                                    l4306 37EA  
                                                    l4410 3C3E  
                                                    l4402 3BF4  
                                                    l4092 500A  
                                                    l3532 50C2  
                                                    l3524 4816  
                                                    l3540 4F38  
                                                    l3700 48AE  
                                                    l3620 4674  
                                                    l3612 4656  
                                                    l3604 4644  
                                                    l4068 461A  
                                                    l4076 462E  
                                                    l4260 42CC  
                                                    l4500 4984  
                                                    l4180 3D52  
                                                    l4172 3CF0  
                                                    l4164 3CBA  
                                                    l4156 3C68  
                                                    l4228 3F20  
                                                    l4244 41A6  
                                                    l4236 4164  
                                                    l4340 39BC  
                                                    l4324 385E  
                                                    l4332 3950  
                                                    l4316 3842  
                                                    l4308 37EC  
                                                    l4404 3C06  
                                                    l1917 4E6A  
                                                    l1909 4C3E  
                                                    l4430 4464  
                                                    l4422 443A  
                                                    l4094 500E  
                                                    l4086 4FF2  
                                                    l3534 50D2  
                                                    l3526 482A  
                                                    l3542 4F4C  
                                                    l3550 4F1C  
                                                    l3710 48C2  
                                                    l3606 4648  
                                                    l4270 4302  
                                                    l4262 42DA  
                                                    l4502 4990  
                                                    l4190 3D9C  
                                                    l4182 3D72  
                                                    l4174 3D04  
                                                    l4166 3CBE  
                                                    l4158 3C88  
                                                    l4254 4E2C  
                                                    l1950 4EA4  
                                                    l1870 4204  
                                                    l4246 41AA  
                                                    l4238 4172  
                                                    l4350 3A06  
                                                    l4334 396A  
                                                    l4342 39CC  
                                                    l4326 38E0  
                                                    l4318 3848  
                                                    l4510 4BDE  
                                                    l1838 4CF2  
                                                    l4440 44B0  
                                                    l4432 4468  
                                                    l4424 445A  
                                                    l4416 509A  
                                                    l4360 52E4  
                                                    l4520 519E  
                                                    l4096 5012  
                                                    l4088 4FF6  
                                                    l3536 50DA  
                                                    l3528 486C  
                                                    l3544 4F64  
                                                    l3552 4F34  
                                                    l3560 4F04  
                                                    l3640 4FB4  
                                                    l3800 3FE2  
                                                    l3712 48C6  
                                                    l3704 48B4  
                                                    l3616 465C  
                                                    l4280 4334  
                                                    l4272 4308  
                                                    l4264 42E4  
                                                    l4504 4996  
                                                    l4192 3DBC  
                                                    l4184 3D74  
                                                    l4176 3D12  
                                                    l4168 3CCA  
                                                    l4256 4E46  
                                                    l4248 41D8  
                                                    l4352 3A12  
                                                    l4344 39DE  
                                                    l4336 3988  
                                                    l4328 38E6  
                                                    l4408 3C12  
                                                    l4512 4BE6  
                                                    l1944 5070  
                                                    l4600 4CBC  
                                                    l1929 413E  
                                                    l1937 4E2A  
                                                    l1865 4186  
                                                    l4370 530E  
                                                    l4418 501E  
                                                    l4450 44BE  
                                                    l4442 44B6  
                                                    l4434 44AA  
                                                    l4426 4460  
                                                    l4362 52D6  
                                                    l4522 51A2  
                                                    l3650 5380  
                                                    l4098 5016  
                                                    l3538 50E2  
                                                    l3634 534E  
                                                    l3730 53A0  
                                                    l3642 4FB8  
                                                    l3810 403C  
                                                    l3802 3FF8  
                                                    l3706 48BC  
                                                    l3618 4670  
                                                    l3626 467A  
                                                    l4290 4364  
                                                    l4282 433E  
                                                    l4274 4316  
                                                    l4266 42EA  
                                                    l4258 42C8  
                                                    l4610 420A  
                                                    l4186 3D86  
                                                    l4178 3D24  
                                                    l4354 3A1A  
                                                    l4346 39EE  
                                                    l4338 39A2  
                                                    l4514 4BF4  
                                                    l4602 4CC4  
                                                    l4460 4400  
                                                    l4452 44C4  
                                                    l4444 44B8  
                                                    l4436 44AC  
                                                    l4428 4462  
                                                    l4364 52F2  
                                                    l3660 53BE  
                                                    l3564 4F68  
                                                    l3548 4F08  
                                                    l3556 4ED8  
                                                    l3572 4D98  
                                                    l3580 52AC  
                                                    l3740 5388  
                                                    l3652 5208  
                                                    l3644 4FC2  
                                                    l3636 4F98  
                                                    l3812 404C  
                                                    l3804 4010  
                                                    l3900 4B7A  
                                                    l4292 436A  
                                                    l4284 4344  
                                                    l4276 4320  
                                                    l4268 42F8  
                                                    l4372 5124  
                                                    l4620 4242  
                                                    l4612 4214  
                                                    l4188 3D8C  
                                                    l4196 3DDE  
                                                    l1868 41C8  
                                                    l4348 39F4  
                                                    l4356 3A2C  
                                                    l1876 3812  
                                                    l4380 3AA6  
                                                    l4516 4C1A  
                                                    l4604 4CE0  
                                                    l4550 4EAE  
                                                    l4366 531C  
                                                    l4462 4402  
                                                    l4454 4382  
                                                    l4470 51C4  
                                                    l4446 44BA  
                                                    l4438 44AE  
                                                    l4518 5192  
                                                    l3662 5234  
                                                    l3566 4F7C  
                                                    l3558 4EEC  
                                                    l3574 4DCC  
                                                    l3582 52B2  
                                                    l3726 521E  
                                                    l3638 4FA2  
                                                    l3814 4054  
                                                    l3806 4020  
                                                    l3718 48CC  
                                                    l3734 53C4  
                                                    l3750 529E  
                                                    l3902 4B80  
                                                    l4294 4372  
                                                    l4286 434A  
                                                    l4278 4326  
                                                    l4622 4254  
                                                    l4614 4224  
                                                    l4630 42A8  
                                                    l4198 3DE2  
                                                    l1878 381A  
                                                    l4382 3AAA  
                                                    l4374 3A56  
                                                    ?_pad 0513  
                                                    l4552 4EB2  
                                                    l4368 5300  
                                                    l4464 4412  
                                                    l4456 43FC  
                                                    l4448 44BC  
                                                    l4480 4AF6  
                                                    l4472 4A88  
                                                    l3672 53B8  
                                                    l3656 5260  
                                                    l3568 4F94  
                                                    l3576 4DE4  
                                                    l3592 53CC  
                                                    l3648 5356  
                                                    l3584 53A6  
                                                    l3744 539A  
                                                    l3760 51E6  
                                                    l3816 4058  
                                                    l3808 4024  
                                                    l3824 4064  
                                                    l3840 47A6  
                                                    l3832 4776  
                                                    l3752 52A2  
                                                    l3912 4B8E  
                                                    l3920 4A12  
                                                    l4296 4378  
                                                    l4288 435A  
                                                    l4560 44E6  
                                                    l4616 422A  
                                                    l4608 4206  
                                                    l1896 3A54  
                                                    l4392 3B96  
                                                    l4384 3AD6  
                                                    l4376 3A82  
                                                    l4554 4EB4  
                                                    l4466 4422  
                                                    l4458 43FE  
                                                    l4474 4AC6  
                                                    l3666 53B2  
                                                    l3770 4D62  
                                                    l3586 53AC  
                                                    l3746 5394  
                                                    l3738 538E  
                                                    l3674 532A  
                                                    l3762 51EE  
                                                    l3818 405E  
                                                    l3842 47D6  
                                                    l3834 478A  
                                                    l3682 52C8  
                                                    l3754 52A6  
                                                    l3906 4B88  
                                                    l3922 4A16  
                                                    l4570 4506  
                                                    l4562 44F4  
                                                    l4490 493E  
                                                    l4482 4922  
                                                    l4626 426E  
                                                    l4618 422E  
                                                    l4298 3772  
                                                    l4394 3BC2  
                                                    l4386 3B02  
                                                    l4378 3A94  
                                                    l4556 4EC4  
                                                    l4548 4EA8  
                                                    l4468 4432  
                                                    l4476 4AD6  
                                                    l3668 524A  
                                                    l3772 4D76  
                                                    l3588 53D0  
                                                    l3692 51F2  
                                                    l3676 532E  
                                                    l3844 47E8  
                                                    l3852 47F2  
                                                    l3596 4632  
                                                    l3684 52D0  
                                                    l3748 529A  
                                                    l3932 4A30  
                                                    l3924 4A20  
                                                    l4580 453C  
                                                    l4572 4510  
                                                    l4564 4502  
                                                    l4484 4926  
                                                    l4628 42A4  
                                                    l4396 3BD4  
                                                    l4388 3B5E  
                                                    l4636 504A  
                                                    l4478 4AE6  
                                                    l3774 4D7E  
                                                    l3766 4D46  
                                                    l3678 5332  
                                                    l3758 51DC  
                                                    l3790 3F6A  
                                                    l3782 3F5A  
                                                    l3854 47F8  
                                                    l3838 4790  
                                                    l3598 463A  
                                                    l3870 5096  
                                                    l3862 5072  
                                                    l3950 5292  
                                                    l4590 4570  
                                                    l4574 4520  
                                                    l4486 492E  
                                                    l4398 3BE8  
                                                    l4638 5054  
                                                    l3776 4D92  
                                                    l3768 4D5A  
                                                    l3880 5378  
                                                    l3856 480A  
                                                    l3696 48A2  
                                                    l3688 53C8  
                                                    l3864 5076  
                                                    l3928 4A28  
                                                    l3952 5296  
                                                    l4592 4572  
                                                    l4576 4522  
                                                    l4488 4936  
                                                    l4496 4946  
                                                    l3882 537C  
                                                    l3786 3F62  
                                                    l3778 3F42  
                                                    l3858 4810  
                                                    l3698 48AA  
                                                    l3866 508A  
                                                    l3874 5370  
                                                    l3938 4A38  
                                                    l3946 528A  
                                                    l3970 4B18  
                                                    l4594 4582  
                                                    l4586 4540  
                                                    l4578 4532  
                                                    l4498 4980  
                                                    l4770 46DE  
                                                    l3796 3F70  
                                                    l3868 5090  
                                                    l3876 5374  
                                                    l3892 5368  
                                                    l3948 528E  
                                                    l3972 4B2C  
                                                    l3980 510C  
                                                    l4588 4560  
                                                    l4596 4CA2  
                                                    l4780 4746  
                                                    l4772 46F4  
                                                    l3798 3FCE  
                                                    l3886 52BA  
                                                    l3894 536C  
                                                    l3974 4B32  
                                                    l3966 4AFE  
                                                    l3982 5110  
                                                    l3990 4FD6  
                                                    l4598 4CB4  
                                                    l4782 476A  
                                                    l4774 4700  
                                                    l4766 46D6  
                                                    _ADCP 0003D8  
                                                    l3888 52C2  
                                                    l3968 4B02  
                                                    l3976 5104  
                                                    l3992 4FEE  
                                                    l3984 51AE  
                                                    l4776 4728  
                                                    l4768 46DA  
                                                    l3898 4B70  
                                                    l3978 5108  
                                                    l3986 51BC  
                                                    l4778 472C  
                                                    l3996 5176  
                                                    l3988 4FC6  
                                                    l3998 5336  
                                                    l4998 428E  
                                                    STR_1 3760  
                                                    STR_2 373E  
                                                    STR_3 374F  
                                                    u2000 37A4  
                                                    u2010 37BA  
                                                    u2011 37B6  
                                                    u2100 39CC  
                                                    u2020 37EA  
                                                    u2101 39C8  
                                                    u2021 37E6  
                                                    u1310 4FB4  
                                                    u2110 39DE  
                                                    u2030 3806  
                                                    u1311 4FB0  
                                                    u2111 39DA  
                                                    u2031 3802  
                                                    u1400 4D76  
                                                    u1320 521A  
                                                    u2120 39EE  
                                                    u2040 3834  
                                                    u1401 4D72  
                                                    u1321 5214  
                                                    u2121 39EA  
                                                    u2041 3830  
                                                    u1330 5272  
                                                    u1410 4D92  
                                                    u2130 3A06  
                                                    u2050 3842  
                                                    u1331 526C  
                                                    u1411 4D8E  
                                                    u2131 3A02  
                                                    u2051 383E  
                                                    u1340 5246  
                                                    u1420 3F56  
                                                    u1308 4688  
                                                    u1500 508A  
                                                    u2060 396A  
                                                    u2140 3A82  
                                                    u1341 5240  
                                                    u1421 3F52  
                                                    u1309 469C  
                                                    u1501 5086  
                                                    u2061 3966  
                                                    u2141 3A7E  
                                                    _LATA 0004BE  
                                                    u1350 525C  
                                                    u1270 482A  
                                                    u1326 521C  
                                                    u2070 3988  
                                                    u2150 3AD6  
                                                    _LATB 0004BF  
                                                    u1351 5256  
                                                    u1271 4826  
                                                    u2071 3984  
                                                    u2151 3AD2  
                                                    _LATC 0004C0  
                                                    u1336 5274  
                                                    u1280 50D2  
                                                    u1360 5204  
                                                    u1440 3FE2  
                                                    u2080 39A2  
                                                    u2160 3B02  
                                                    _LATD 0004C1  
                                                    u1281 50CE  
                                                    u1361 51FE  
                                                    u1441 3FDE  
                                                    u2081 399E  
                                                    u2161 3AFE  
                                                    _LATE 0004C2  
                                                    u1346 5248  
                                                    u1450 3FF8  
                                                    u1290 4670  
                                                    u1530 4C56  
                                                    u1610 5120  
                                                    u2090 39BC  
                                                    u2170 3BC2  
                                                    _LATF 0004C3  
                                                    u1451 3FF4  
                                                    u1291 466C  
                                                    u1531 4C52  
                                                    u1611 511C  
                                                    u2091 39B8  
                                                    u2171 3BBE  
                                                    u2260 4EC4  
                                                    u1356 525E  
                                                    u1380 5230  
                                                    u1460 403C  
                                                    u1540 4C68  
                                                    u1620 51BC  
                                                    u1700 40B4  
                                                    u2180 4C3E  
                                                    u2261 4EC0  
                                                    u1381 522A  
                                                    u1461 4038  
                                                    u1541 4C64  
                                                    u1621 51B8  
                                                    u1701 40B0  
                                                    u2181 4C3A  
                                                    u1390 4D5A  
                                                    u1366 5206  
                                                    u1438 3F82  
                                                    u1470 478A  
                                                    u1518 4BA0  
                                                    u1550 4C7C  
                                                    u1630 4FD6  
                                                    u2270 4532  
                                                    u1710 40EA  
                                                    u1391 4D56  
                                                    u1439 3F96  
                                                    u1471 4786  
                                                    u1519 4BB4  
                                                    u1551 4C78  
                                                    u1631 4FD2  
                                                    u2271 452E  
                                                    u1711 40E6  
                                                    u1480 47A6  
                                                    u1528 4A4A  
                                                    u1608 4B50  
                                                    u1560 4C8E  
                                                    u1640 4D0A  
                                                    u1720 49B4  
                                                    u2280 4582  
                                                    u1800 3D12  
                                                    u1481 47A2  
                                                    u1529 4A5E  
                                                    u1609 4B6A  
                                                    u1561 4C8A  
                                                    u1641 4D06  
                                                    u1721 49B0  
                                                    u2281 457E  
                                                    u1801 3D0E  
                                                    u1386 5232  
                                                    u1490 47D6  
                                                    u1378 48DA  
                                                    u1570 4CA0  
                                                    u1650 4D26  
                                                    u1730 4A10  
                                                    u2290 42C4  
                                                    u1810 3D52  
                                                    u1491 47D2  
                                                    u1379 48EE  
                                                    u1571 4C9C  
                                                    u1651 4D22  
                                                    u1731 4A0C  
                                                    u2291 42C0  
                                                    u2507 4234  
                                                    u1811 3D4E  
                                                    u1580 4B18  
                                                    u1660 45A4  
                                                    u1820 3D9C  
                                                    u1740 4E2A  
                                                    u1900 4172  
                                                    u1581 4B14  
                                                    u1661 45A0  
                                                    u2517 44FA  
                                                    u1821 3D98  
                                                    u1741 4E26  
                                                    u1901 416E  
                                                    u1670 5006  
                                                    u1590 4B2C  
                                                    u1830 3DF0  
                                                    u1750 4E98  
                                                    u1910 41C8  
                                                    u1671 5002  
                                                    u1591 4B28  
                                                    u2527 4516  
                                                    u1831 3DEC  
                                                    u1751 4E94  
                                                    u1911 41C4  
                                                    u1760 3C68  
                                                    u1840 3E22  
                                                    u1680 407A  
                                                    u1920 41D8  
                                                    u2537 4566  
                                                    u1761 3C64  
                                                    u1841 3E1E  
                                                    u1681 4076  
                                                    u1921 41D4  
                                                    u1770 3C9A  
                                                    u1850 3E60  
                                                    u1930 4E46  
                                                    u1690 408C  
                                                    u2547 4346  
                                                    u1771 3C96  
                                                    u1851 3E5C  
                                                    u1931 4E42  
                                                    u1691 4088  
                                                    u1940 42DA  
                                                    u1860 3E8A  
                                                    u1941 42D6  
                                                    u1781 3CC4  
                                                    u1861 3E86  
                                                    u1950 42F8  
                                                    u1790 3CE8  
                                                    u1870 3EB8  
                                                    u1951 42F4  
                                                    u1791 3CE4  
                                                    u1871 3EB4  
                                                    u2487 4738  
                                                    u1960 4316  
                                                    u1880 3F00  
                                                    u1961 4312  
                                                    u2497 421A  
                                                    u1881 3EFC  
                                                    u1970 4334  
                                                    u1890 4150  
                                                    u1971 4330  
                                                    u1891 414C  
                                                    u1980 435A  
                                                    _PMD0 000060  
                                                    u1981 4356  
                                                    _PMD1 000061  
                                                    u1990 37A2  
                                                    _PMD2 000062  
                                                    u1991 379C  
                                                    _PMD3 000063  
                                                    _PMD4 000064  
                                                    _PMD5 000065  
                                                    _PMD6 000066  
                                                    _PMD7 000067  
                                                    _PMD8 000068  
                                                    _WPUA 000401  
                                                    _WPUB 000409  
                                                    _WPUC 000411  
                                                    _WPUD 000419  
                                                    _WPUE 000421  
                                                    _WPUF 000429  
                                 ??_wr2RegCompleteHandler 050E  
                                        ??_I2C1_MasterFsm 0514  
                        __size_of_I2C1_DO_RX_NACK_RESTART 0008  
                               ??_I2C1_CallbackReturnStop 050E  
                                                    abs@a 0513  
                                                    _dbuf 0598  
                                                    _main 46D6  
                                                    _dtoa 3772  
                                                    _prec 058E  
                                                    _nout 058A  
                                                    pad@i 051A  
                                                    pad@p 0517  
                                                    fsr1h 0004E2  
                                                    fsr2h 0004DA  
                                                    indf2 0004DF  
                                                    fsr1l 0004E1  
                                                    pad@w 051C  
                                                    fsr2l 0004D9  
                                                    prodh 0004F4  
                                                    prodl 0004F3  
                                                    start FFFC  
                                        ??_I2C1_SetBuffer 0505  
                                            ___param_bank 000000  
                        __size_of_rdBlkRegCompleteHandler 0050  
                           I2C1_CallbackReturnStop@funPtr 050C  
                                                   ??_abs 0515  
                                                   ??_pad 0519  
                          __size_of_OSCILLATOR_Initialize 0018  
                           __end_of_OSCILLATOR_Initialize 51DC  
                                         __end_of___aodiv 3DDE  
                                       __end_of_I2C1_Open 4632  
                                                   _ADACT 0003F9  
                                                   _ADCAP 0003F0  
                                                   ?_main 0501  
                                                   ?_dtoa 051E  
                                                   _ADCLK 0003FA  
                                         __end_of___aomod 3F42  
                                                   _ADCNT 0003E6  
                                                   _ADCTX 0003FB  
                                                   _ADPCH 0003EC  
                                                   _ADREF 0003F8  
                                                   _ADRPT 0003E7  
                                                   _U1P1H 0002A6  
                                                   _U1P2H 0002A8  
                                                   _U1P1L 0002A5  
                                                   _U1P3H 0002AA  
                                                   _U1P2L 0002A7  
                                                   _U1P3L 0002A9  
                                                   _U1UIR 0002B1  
                                                   _U1RXB 0002A1  
                                                   _U1TXB 0002A3  
                              __end_of_i2c1_fsmStateTable 373A  
                                                   _OSCEN 0000B3  
                                            vfpfcnvrt@fmt 0544  
                                                   _TRISA 0004C6  
                                                   _TRISB 0004C7  
                                                   _TRISC 0004C8  
                                                   _TRISD 0004C9  
                                                   _TRISE 0004CA  
                                                   _TRISF 0004CB  
                                  ??_I2C1_MasterGetRxData 0501  
                               ??_ADC_GetSingleConversion 0503  
                                   ?_I2C1_DO_RX_NACK_STOP 0501  
                              ??_I2C1_CallbackReturnReset 050E  
                                       ??_I2C1_MasterOpen 0501  
                       __size_of_I2C1_MasterIsNackFlagSet 0016  
                                       ??_I2C1_MasterStop 0501  
                                       ??_I2C1_Initialize 0501  
                               ?_I2C1_MasterIsNackFlagSet 0501  
                                                   _flags 0590  
                                                   _fputc 4068  
                                                   _fputs 4DE8  
                                                   pad@fp 0513  
                                                   _width 058C  
                                                   _putch 5342  
                                                   dtoa@d 0520  
                                                   dtoa@i 0540  
                                            lcd_puts@dato 0524  
                                                   dtoa@n 0538  
                                                   dtoa@p 0532  
                                                   dtoa@s 0536  
                                                   dtoa@w 0534  
                        __end_of_I2C1_MasterClearNackFlag 53BE  
                                                   pclath 0004FA  
                                                   tablat 0004F5  
                                                   status 0004D8  
                             __size_of_I2C1_MasterSendAck 0006  
                                         __end_of_sprintf 4CF4  
                                            ??_I2C1_DO_RX 0510  
                                            ??_I2C1_DO_TX 050E  
                               _I2C1_MasterClearCountFlag 53BE  
                        _UART1_DefaultFramingErrorHandler 000000  
                                  ??_I2C1_DO_ADDRESS_NACK 050E  
                                            ??_I2C1_Close 0501  
                                fp__rd1RegCompleteHandler 0000  
                                         __initialization 50E6  
                                            __end_of_main 4776  
                                            __end_of_dtoa 3A56  
                                         ??_lcd_send_byte 051E  
                                fp__wr1RegCompleteHandler 0000  
                      __size_of_I2C1_MasterDisableRestart 0006  
                              ?_I2C1_MasterDisableRestart 0501  
                            I2C1_MasterSetCounter@counter 0501  
                        __size_of_I2C1_MasterIsTxBufEmpty 0016  
                                            ?_UART1_Write 0501  
                        __end_of_I2C1_MasterClearStopFlag 53B8  
                            fp__I2C1_DO_SEND_RESTART_READ 0000  
                                  ??_I2C1_MasterOperation 0514  
                                                  ??_main 05DA  
                                                  ??_dtoa 0528  
                                           __activetblptr 000003  
                           __size_of_I2C1_DO_SEND_RESTART 0004  
                                      __end_of_I2C1_DO_RX 4814  
                                              _Send_D7_D4 42C6  
                                      __end_of_I2C1_DO_TX 4068  
                                        _UART1_Initialize 4A88  
                                      __end_of_I2C1_Close 501E  
                                                  _ADACCH 0003E4  
                                                  _ADACCL 0003E3  
                                                  _ADACCU 0003E5  
                                                  _ADACQH 0003EF  
                                                  _ADACQL 0003EE  
                                                  _ADCON0 0003F3  
                                                  _ADCON1 0003F4  
                                                  _ADCON2 0003F5  
                                                  _ADCON3 0003F6  
                                                  _ADERRH 0003DE  
                                                  _ADERRL 0003DD  
                                                  ?_fputc 0503  
                                                  _ADLTHH 0003DA  
                                                  _ADLTHL 0003D9  
                                                  ?_fputs 050C  
                                                  _ADRESH 0003EB  
                                                  _ADRESL 0003EA  
                                                  _ADPREH 0003F2  
                                                  _ADPREL 0003F1  
                                                  _ADSTAT 0003F7  
                                                  _ADUTHH 0003DC  
                                                  _ADUTHL 0003DB  
                                                  _ANSELA 000400  
                                                  ?_putch 0501  
                                                  _ANSELB 000408  
                                                  _ANSELC 000410  
                                                  _ANSELD 000418  
                                                  _ANSELE 000420  
                                                  _ANSELF 000428  
                                                  _U1CON0 0002AB  
                                                  _U1CON1 0002AC  
                                                  _U1CON2 0002AD  
                                                  _U1BRGH 0002AF  
                                                  _U1FIFO 0002B0  
                                                  _U1BRGL 0002AE  
                                                  _RB1PPS 00020A  
                                                  _RB2PPS 00020B  
                                                  _ODCONA 000402  
                                                  _ODCONB 00040A  
                                                  _ODCONC 000412  
                                                  _RF0PPS 000229  
                                                  _ODCOND 00041A  
                                                  _ODCONE 000422  
                                                  _ODCONF 00042A  
                    __size_of_I2C1_SetAddressNackCallback 001C  
                                                  _INLVLA 000404  
                                                  _INLVLB 00040C  
                                                  _INLVLC 000414  
                                                  _INLVLD 00041C  
                                                  _INLVLE 000424  
                                                  _INLVLF 00042C  
                                 ??_I2C1_MasterGetCounter 0501  
                                                  _OSCFRQ 0000B1  
                                       ?_I2C1_MasterClose 0501  
                                   _UART1_SetErrorHandler 52F2  
                                        _I2C1_DO_RX_EMPTY 4632  
                                      _ADC_DefaultADI_ISR 000000  
                                 ??_I2C1_MasterDisableIrq 0501  
                                       ?_I2C1_MasterWrite 0501  
                                ?_I2C1_MasterWaitForEvent 0501  
                                      ??_I2C1_MasterClose 0501  
                                        _I2C1_DO_TX_EMPTY 48A2  
                                      ??_I2C1_MasterWrite 0516  
                                            vfprintf@cfmt 0558  
                                        __end_of_lcd_init 458E  
                                ?_I2C1_Write1ByteRegister 0516  
                                                  _g_LcdX 0596  
                                                  _g_LcdY 0595  
                                        __end_of_lcd_puts 42C6  
                                               ??___aodiv 0511  
                                               ??___aomod 0511  
                                                  _buffer 0600  
                            __size_of_I2C1_MasterClearIrq 0008  
                       __end_of_I2C1_MasterDisableRestart 53B2  
                                                  clear_0 50EC  
                                                  clear_1 50F8  
                                                  isa$std 000001  
                                                  _printf 504A  
                                                  pad@buf 0515  
                                                  dtoa@fp 051E  
                                ??_I2C1_DO_SEND_ADR_WRITE 0501  
                                                  _strlen 4E6C  
                                       ?_I2C1_SetCallback 0501  
                                  ??_I2C1_DO_RX_NACK_STOP 0501  
                                 ??_I2C1_DO_BUS_COLLISION 050E  
                                   _I2C1_DO_SEND_ADR_READ 4F98  
                                                  fputc@c 0503  
                                          _PMD_Initialize 509A  
                                                  fputs@c 0510  
                                                  fputs@i 0511  
                                                  fputs@s 050C  
                           ?_I2C1_SetDataCompleteCallback 0507  
                                      ??_I2C1_SetCallback 0506  
                                            __mediumconst 0000  
                                                  tblptrh 0004F7  
                                                  tblptrl 0004F6  
                                                  tblptru 0004F8  
                                        __end_of_vfprintf 4C48  
ADC_SetActiveClockTuningInterruptHandler@InterruptHandler 0501  
ADC_SetContext1ThresholdInterruptHandler@InterruptHandler 0501  
              ADC_SetADIInterruptHandler@InterruptHandler 0501  
                    __end_of_UART1_SetOverrunErrorHandler 52E4  
                   __size_of_UART1_SetOverrunErrorHandler 000E  
                            _UART1_SetOverrunErrorHandler 52D6  
                               _UART1_DefaultErrorHandler 000000  
                                               ??_sprintf 055A  
                            __size_of_I2C1_MasterSendNack 0006  
                                 _I2C1_DO_RX_NACK_RESTART 5368  
                              fp__I2C1_DO_RX_NACK_RESTART 0000  
                            __size_of_I2C1_MasterResetBus 000A  
                                       _SYSTEM_Initialize 5192  
                          I2C1_SetDataCompleteCallback@cb 0507  
                                              __accesstop 0560  
                                 __end_of__initialization 50FE  
                                      __size_of_Write_PCF 0014  
                         I2C1_MasterOperation@returnValue 0515  
                                      ?_SYSTEM_Initialize 0501  
                                           ___rparam_used 000001  
                                _I2C1_MasterClearNackFlag 53B8  
                                           ??_I2C1_Poller 0514  
                                 _rdBlkRegCompleteHandler 4D98  
                              fp__rdBlkRegCompleteHandler 0000  
                                          __pcstackCOMRAM 0501  
                                     ??_SYSTEM_Initialize 0504  
                        __end_of_I2C1_MasterEnableRestart 53AC  
                                           __end_of_fputc 4140  
                                           __end_of_fputs 4E2C  
                                           __end_of_putch 534C  
                                 ??_I2C1_MasterSetCounter 0501  
                                  __end_of_PMD_Initialize 50C2  
                            ??_I2C1_DO_SEND_RESTART_WRITE 0501  
                                 ??_I2C1_MasterSendTxData 0501  
                      __size_of_I2C1_MasterIsCountFlagSet 0016  
                              ?_I2C1_MasterIsCountFlagSet 0501  
        __end_of_ADC_SetActiveClockTuningInterruptHandler 531C  
       __size_of_ADC_SetActiveClockTuningInterruptHandler 000E  
              ??_ADC_SetActiveClockTuningInterruptHandler 0504  
               ?_ADC_SetActiveClockTuningInterruptHandler 0501  
                _ADC_SetActiveClockTuningInterruptHandler 530E  
                                             ?_Send_D7_D4 051A  
                               _UART1_FramingErrorHandler 05C7  
                                _I2C1_MasterClearStopFlag 53B2  
                                   __end_of_I2C1_DO_RESET 52AA  
                            ??_ADC_SetADIInterruptHandler 0504  
                                       lcd_gotoxy@address 0523  
                                       _I2C1_DO_BUS_ERROR 528A  
                                                 ??_fputc 0507  
                               __end_of_SYSTEM_Initialize 51AC  
                                                 ??_fputs 0510  
                       __size_of_I2C1_ClearInterruptFlags 0052  
                                                 ??_putch 0502  
                               ?_I2C1_ClearInterruptFlags 0501  
                                              __pbssBANK5 0560  
                                              __pbssBANK6 0600  
                                      ?_I2C1_DO_BUS_ERROR 0501  
                         __end_of_I2C1_MasterWaitForEvent 4CA2  
                           ?_UART1_SetOverrunErrorHandler 0501  
                                  ?_UART1_SetErrorHandler 0501  
                          __size_of_rd2RegCompleteHandler 0030  
                           __end_of_rd2RegCompleteHandler 4F38  
                                    I2C1_Open@returnValue 0502  
                          __size_of_wr2RegCompleteHandler 0030  
                           __end_of_wr2RegCompleteHandler 4F98  
                         __end_of_I2C1_Write1ByteRegister 4A12  
                                   _rd1RegCompleteHandler 4F38  
                                     ??_I2C1_DO_BUS_ERROR 0501  
                                       _I2C1_DO_SEND_STOP 5072  
                                   _wr1RegCompleteHandler 4ED8  
                     __size_of_I2C1_DO_SEND_RESTART_WRITE 0004  
                                rd1RegCompleteHandler@ptr 050C  
                                           fp__I2C1_DO_RX 0000  
                                           fp__I2C1_DO_TX 0000  
                                         fp__I2C1_DO_IDLE 0000  
                                          lcd_send_byte@n 051D  
                                 fp__I2C1_DO_ADDRESS_NACK 0000  
                                      ?_I2C1_DO_SEND_STOP 0501  
                                                 _I2C1CLK 00029E  
                                                 _I2C1ERR 000297  
                                                 _I2C1PIE 00029B  
                                                 _I2C1PIR 00029A  
                                                 _I2C1RXB 00028A  
                                                 _I2C1TXB 00028B  
                        __end_of_I2C1_MasterIsNackFlagSet 5260  
                                         _I2C1_MasterOpen 4FC6  
                                 _I2C1_MasterIsTxBufEmpty 51F2  
                                         _I2C1_MasterStop 538E  
                                         _I2C1_Initialize 501E  
                                                 _ADCSEL1 0003FC  
                                     __end_of_I2C1_Poller 5122  
                                                 _ADFLTRH 0003E2  
                                                 _ADFLTRL 0003E1  
                     __size_of_ADC_SetADIInterruptHandler 000E  
                                                 _ADPREVH 0003E9  
                                                 _ADPREVL 0003E8  
                                 __size_of_I2C1_DO_RX_ACK 0008  
                                                 _ADSTPTH 0003E0  
                                                 _ADSTPTL 0003DF  
                                       fp__I2C1_DO_RX_ACK 0000  
                                 __size_of_I2C1_DO_TX_ACK 0008  
                                       fp__I2C1_DO_TX_ACK 0000  
                                                 ?_printf 055A  
                                         ?_PMD_Initialize 0501  
                                  ?_I2C1_DO_SEND_ADR_READ 0501  
                                 __size_of_ADC_Initialize 00B8  
                                     ??_I2C1_DO_SEND_STOP 0502  
                                                 ?_strlen 0501  
                                       __end_of_Write_PCF 528A  
                                                 _U1ERRIE 0002B3  
                                                 _U1ERRIR 0002B2  
                         __size_of_I2C1_DO_SEND_ADR_WRITE 0016  
                                    __size_of_UART1_Write 0018  
                                                 _U1RXPPS 000272  
                               __end_of_I2C1_DO_BUS_ERROR 529A  
                                       _I2C1_MasterIsNack 5208  
                       __end_of_I2C1_MasterIsCountFlagSet 5276  
                                                 _OSCCON1 0000AD  
                                                 _OSCCON3 0000AF  
                                               _I2C1_Open 458E  
                                      __size_of_vfpfcnvrt 0200  
                               ??_I2C1_DO_RX_NACK_RESTART 0501  
                                              _lcd_gotoxy 4920  
                                                 _OSCTUNE 0000B0  
                      __size_of_I2C1_DO_SEND_RESTART_READ 000E  
                                                 _SLRCONA 000403  
                                                 _SLRCONB 00040B  
                                                 _SLRCONC 000413  
                                                 _SLRCOND 00041B  
                                                 _SLRCONE 000423  
                                                 _SLRCONF 00042B  
                                   I2C1_DO_RX@retFsmState 0512  
                                      ?_I2C1_MasterIsNack 0501  
                              ?_I2C1_DO_SEND_RESTART_READ 0501  
                                               ?_lcd_init 0501  
                          ??_I2C1_SetDataCompleteCallback 050C  
                                               ?_lcd_puts 0524  
                              _ADC_ConversionComplete_ISR 05BE  
                                      _i2c1_fsmStateTable 3701  
                                     ??_I2C1_MasterIsNack 0501  
                               __end_of_I2C1_DO_SEND_STOP 509A  
                               ??_rdBlkRegCompleteHandler 050E  
                                      I2C1_SetCallback@cb 0501  
                                              _lecturaADC 0592  
                                                 __Hparam 0000  
                                                 __Lparam 0000  
                                __end_of_UART1_Initialize 4AFE  
                                     __size_of_Send_D7_D4 00BC  
                                     fp__I2C1_DO_RX_EMPTY 0000  
                       __size_of_I2C1_MasterIsStopFlagSet 0016  
                                                 ___aodiv 3C56  
                                                 ___aomod 3DDE  
                                     fp__I2C1_DO_TX_EMPTY 0000  
                               ?_I2C1_MasterIsStopFlagSet 0501  
                                               ?_vfprintf 0552  
                             ??_I2C1_MasterDisableRestart 0501  
                                            __psmallconst 3700  
                                                 __pcinit 50E6  
                                           ?_I2C1_DO_IDLE 0501  
                                                 __ramtop 3700  
                                                 __ptext0 46D6  
                                                 __ptext1 4CA2  
                                                 __ptext2 504A  
                                                 __ptext3 4BDE  
                                                 __ptext4 3A56  
                                                 __ptext5 3772  
                                                 __ptext6 4140  
                                                 __ptext7 4E6C  
                                                 __ptext8 4DE8  
                                                 __ptext9 4068  
                                _I2C1_MasterEnableRestart 53A6  
                                         __size_of_printf 0028  
                               __end_of_I2C1_MasterIsNack 521E  
                            ?_I2C1_SetAddressNackCallback 0507  
                                         __size_of_strlen 003A  
                                __end_of_I2C1_DO_RX_EMPTY 46D6  
                                   _OSCILLATOR_Initialize 51C4  
                                            __size_of_abs 0040  
                                            __size_of_pad 00C6  
                                             _I2C1ERRbits 000297  
                                __end_of_I2C1_DO_TX_EMPTY 4920  
                                ??_I2C1_MasterIsRxBufFull 0501  
                                ??_PIN_MANAGER_Initialize 0501  
                                             _I2C1PIEbits 00029B  
                                wr1RegCompleteHandler@ptr 050C  
                                              ?_I2C1_Open 0501  
                                             _I2C1PIRbits 00029A  
                           __size_of_I2C1_MasterGetRxData 0006  
                                 fp__I2C1_DO_RX_NACK_STOP 0000  
                                ?_I2C1_CallbackReturnStop 050C  
                              __size_of_SYSTEM_Initialize 001A  
                                                 _sprintf 4CA2  
                                              ??_lcd_init 051F  
                                              ??_lcd_puts 0526  
                       __end_of_I2C1_DO_SEND_RESTART_READ 52D6  
                                    end_of_initialization 50FE  
                              __end_of_I2C1_MasterSendAck 53A0  
                                     _I2C1_MasterClearIrq 5380  
                                    lcd_send_byte@address 051E  
                                                 fputc@fp 0505  
                                                 fputs@fp 050E  
                                  ?_rd1RegCompleteHandler 050C  
                                  _I2C1_DO_SEND_ADR_WRITE 51DC  
                          __size_of_I2C1_MasterGetCounter 0006  
                           __end_of_I2C1_MasterGetCounter 538E  
                            __end_of_I2C1_DO_SEND_RESTART 53C8  
                                 __end_of_I2C1_MasterOpen 4FF2  
                                  ?_wr1RegCompleteHandler 050C  
                                 __end_of_I2C1_MasterStop 5394  
                          ??_UART1_SetOverrunErrorHandler 0504  
                                 __end_of_I2C1_Initialize 504A  
                       __size_of_I2C1_CallbackReturnReset 0004  
                                             _I2C1_Poller 5104  
                          __size_of_I2C1_MasterDisableIrq 001C  
                               ?_I2C1_CallbackReturnReset 050C  
                           __end_of_I2C1_MasterDisableIrq 5192  
                                             _I2C1_Status 0560  
                               ??_I2C1_MasterIsTxBufEmpty 0501  
                           __size_of_I2C1_DO_ADDRESS_NACK 006E  
                                fp__rd2RegCompleteHandler 0000  
                                       __end_of_vfpfcnvrt 3C56  
                                                 postdec2 0004DD  
                                fp__wr2RegCompleteHandler 0000  
                                                 postinc0 0004EE  
                                                 postinc1 0004E6  
                                                 postinc2 0004DE  
                                 __size_of_I2C1_MasterFsm 0072  
                                     _I2C1_MasterSendNack 5394  
                     __end_of_I2C1_SetAddressNackCallback 515A  
                             _I2C1_SetAddressNackCallback 513E  
                                              ??_vfprintf 0558  
                                    ?_I2C1_MasterClearIrq 0501  
                                   __end_of_lcd_send_byte 513E  
                                          ??_I2C1_DO_IDLE 0501  
                                     _I2C1_MasterResetBus 5356  
                                       UART1_Write@txData 0501  
                      __end_of_I2C1_DO_SEND_RESTART_WRITE 53CC  
                              _I2C1_DO_SEND_RESTART_WRITE 53C8  
                                                 strlen@a 0503  
                                                 strlen@s 0501  
                                ?_ADC_GetSingleConversion 0501  
                               __size_of_I2C1_MasterClose 000C  
                                 __size_of_I2C1_SetBuffer 0024  
                         __end_of_rdBlkRegCompleteHandler 4DE8  
                        __size_of_I2C1_MasterWaitForEvent 005A  
                                _I2C1_MasterIsNackFlagSet 524A  
                               __size_of_I2C1_MasterWrite 0008  
                           __size_of_I2C1_MasterOperation 0052  
                      __end_of_ADC_SetADIInterruptHandler 532A  
                              _ADC_SetADIInterruptHandler 531C  
                           ??_I2C1_SetAddressNackCallback 050C  
                              __size_of_I2C1_DO_BUS_ERROR 0010  
                          __size_of_I2C1_DO_BUS_COLLISION 0076  
                        __size_of_I2C1_Write1ByteRegister 0076  
                           __end_of_I2C1_DO_BUS_COLLISION 4A88  
                         I2C1_SetDataCompleteCallback@ptr 050A  
                                             ?_lcd_gotoxy 051F  
                             I2C1_Write1ByteRegister@data 0517  
                                         Send_D7_D4@datos 051C  
                                             _ADCSEL1bits 0003FC  
                          I2C1_CallbackReturnReset@funPtr 050C  
                              ??_I2C1_MasterClearNackFlag 0501  
                                    ?_I2C1_MasterSendNack 0501  
                                         _LCD_INIT_STRING 373A  
                               _I2C1_MasterDisableRestart 53AC  
                                    ?_I2C1_MasterResetBus 0501  
                               __size_of_I2C1_SetCallback 008E  
                              rdBlkRegCompleteHandler@ptr 050C  
                              __size_of_I2C1_DO_SEND_STOP 0028  
                                          _I2C1_DO_TX$845 0510  
                                   ??_I2C1_MasterClearIrq 0501  
                                        I2C1_DO_TX@dataTx 0512  
                              ??_I2C1_MasterClearStopFlag 0501  
                                             vfpfcnvrt@ap 0546  
                                             vfpfcnvrt@fp 0542  
                                             vfpfcnvrt@ll 054A  
                                          _I2C1_DO_RX_ACK 5370  
                                          _I2C1_DO_TX_ACK 5378  
                        __end_of_I2C1_ClearInterruptFlags 4D98  
                                          _ADC_Initialize 4382  
                                  ?_OSCILLATOR_Initialize 0501  
                              __size_of_I2C1_MasterIsNack 0016  
                          __size_of_I2C1_MasterSetCounter 0010  
                         __end_of_I2C1_CallbackReturnStop 53D4  
                           __end_of_I2C1_MasterSetCounter 52BA  
                                          __end_of_printf 5072  
                          __size_of_I2C1_MasterSendTxData 000A  
                           __end_of_I2C1_MasterSendTxData 5356  
                                          __end_of_strlen 4EA6  
                             ??_I2C1_MasterIsCountFlagSet 0501  
                                            ??_Send_D7_D4 051B  
                                     start_initialization 50E6  
                                             ??_I2C1_Open 0501  
                           __size_of_I2C1_DO_RX_NACK_STOP 000E  
                         __size_of_I2C1_MasterIsRxBufFull 0016  
                         __size_of_PIN_MANAGER_Initialize 00AC  
                                             __end_of_abs 4E6C  
                                             __end_of_pad 4206  
                                 ??_UART1_SetErrorHandler 0504  
                                   ??_I2C1_MasterSendNack 0501  
                                   ??_I2C1_MasterResetBus 0501  
                                             putch@txData 0502  
                                I2C1_SetBuffer@bufferSize 0503  
                                        ?_I2C1_MasterOpen 0501  
                                        ?_I2C1_MasterStop 0501  
                          I2C1_Write1ByteRegister@address 0518  
                                        ?_I2C1_Initialize 0501  
                                           Write_PCF@dato 0519  
                                             vfprintf@fmt 0554  
                         __end_of_ADC_GetSingleConversion 4ED8  
                                        ??_PMD_Initialize 0501  
                                      __end_of_Send_D7_D4 4382  
                                     __size_of_lcd_gotoxy 007C  
                                  __end_of_I2C1_DO_RX_ACK 5378  
                                  __end_of_I2C1_DO_TX_ACK 5380  
        __end_of_ADC_SetContext1ThresholdInterruptHandler 530E  
       __size_of_ADC_SetContext1ThresholdInterruptHandler 000E  
              ??_ADC_SetContext1ThresholdInterruptHandler 0504  
               ?_ADC_SetContext1ThresholdInterruptHandler 0501  
                _ADC_SetContext1ThresholdInterruptHandler 5300  
                                 ??_I2C1_DO_SEND_ADR_READ 0501  
                                  __end_of_ADC_Initialize 443A  
                                                ??_printf 0560  
                                                ??_strlen 0503  
                                        I2C1_Open@address 0501  
                                 __end_of_LCD_INIT_STRING 373E  
                                    _I2C1_DO_SEND_RESTART 53C4  
                                      _UART1_ErrorHandler 05C1  
                                           __pcstackBANK5 05CA  
                                        ___aodiv@dividend 0501  
                                               _Write_PCF 5276  
                             ??_I2C1_DO_SEND_RESTART_READ 0502  
                                   I2C1_DO_TX@retFsmState 0513  
                        __end_of_I2C1_MasterIsStopFlagSet 524A  
                                fp__I2C1_DO_BUS_COLLISION 0000  
                                    __end_of_I2C1_DO_IDLE 5336  
                                       __size_of_lcd_init 00A8  
                                       __size_of_lcd_puts 00C0  
                           I2C1_SetAddressNackCallback@cb 0507  
                                               __pnvBANK5 05B8  
                               _I2C1_MasterIsCountFlagSet 5260  
                                   _rd2RegCompleteHandler 4F08  
                               fp__I2C1_DO_SEND_ADR_WRITE 0000  
                                  _I2C1_MasterIsRxBufFull 521E  
                                  _PIN_MANAGER_Initialize 443A  
                                               _dtoa$2441 0530  
                                   _wr2RegCompleteHandler 4F68  
                              ??_I2C1_MasterEnableRestart 0501  
                                       ?_UART1_Initialize 0501  
                                rd2RegCompleteHandler@ptr 050C  
                    __end_of_UART1_SetFramingErrorHandler 52F2  
                   __size_of_UART1_SetFramingErrorHandler 000E  
                            _UART1_SetFramingErrorHandler 52E4  
                                          _I2C1_MasterFsm 4AFE  
                                  __size_of_I2C1_DO_RESET 0010  
                                        fp__I2C1_DO_RESET 0000  
                                                ?___aodiv 0501  
                                                ?___aomod 0501  
                                         ?_I2C1_DO_RX_ACK 0501  
                                        ___aodiv@quotient 0513  
                                         ?_I2C1_DO_TX_ACK 0501  
                                                _I2C1BAUD 00029D  
                                      ??_UART1_Initialize 0504  
                                                _I2C1CON0 000294  
                                                _I2C1CON1 000295  
                                                _I2C1CON2 000296  
                                         ?_ADC_Initialize 0501  
                                                _I2C1CNTH 00028D  
                                                _I2C1CNTL 00028C  
                                        _uart1RxLastError 0597  
                                           ??_UART1_Write 0501  
                                 _I2C1_MasterWaitForEvent 4C48  
                                        _I2C1_MasterClose 5336  
                                          _I2C1_SetBuffer 50C2  
                                                _ADACTPPS 000269  
                                       __size_of_vfprintf 006A  
                                        _I2C1_MasterWrite 5360  
                                             __smallconst 3700  
                                 _I2C1_Write1ByteRegister 499C  
                        _UART1_DefaultOverrunErrorHandler 000000  
                                   ?_I2C1_DO_SEND_RESTART 0501  
                                       ?_I2C1_DO_RX_EMPTY 0501  
                                                _ADCPbits 0003D8  
                                _I2C1_ClearInterruptFlags 4D46  
                                       ?_I2C1_DO_TX_EMPTY 0501  
                                              ?_Write_PCF 0501  
                                      ??_I2C1_DO_RX_EMPTY 050E  
                        __end_of_I2C1_CallbackReturnReset 53D0  
                                      ??_I2C1_DO_TX_EMPTY 050E  
                                                ?_sprintf 05CA  
                                          __size_of_fputc 00D8  
                                          __size_of_fputs 0044  
                                 ??_rd1RegCompleteHandler 050E  
                                             _U1ERRIRbits 0002B2  
                                 ?_I2C1_DO_SEND_ADR_WRITE 0501  
                               I2C1_MasterSendTxData@data 0501  
                                          __size_of_putch 000A  
                                              _I2C1SDAPPS 000270  
                                              _I2C1SCLPPS 000271  
                                 ??_wr1RegCompleteHandler 050E  
                                        _I2C1_SetCallback 4814  
                   UART1_SetErrorHandler@interruptHandler 0501  
                                              _I2C1_DO_RX 4776  
                                              _I2C1_DO_TX 3F42  
                                                _PIE7bits 0004A5  
                                              _I2C1_Close 4FF2  
                                            ?_I2C1_Poller 0501  
                                  __end_of_I2C1_MasterFsm 4B70  
                                    fp__I2C1_DO_BUS_ERROR 0000  
                            __end_of_I2C1_MasterGetRxData 53A6  
                                           _I2C1STAT1bits 000299  
                                                _PIR1bits 0004AF  
                        __size_of_I2C1_CallbackReturnStop 0004  
                                                _PIR2bits 0004B0  
                                                _PIR4bits 0004B2  
                                                _PIR7bits 0004B5  
                              ??_I2C1_MasterIsNackFlagSet 0501  
                               _ADC_ActiveClockTuning_ISR 05B8  
                                      _I2C1_MasterSendAck 539A  
                               _I2C1_DO_SEND_RESTART_READ 52C8  
                        _ADC_DefaultActiveClockTuning_ISR 000000  
                                  __end_of_I2C1_SetBuffer 50E6  
                           ?_UART1_SetFramingErrorHandler 0501  
                    __end_of_I2C1_SetDataCompleteCallback 5176  
                   __size_of_I2C1_SetDataCompleteCallback 001C  
                            _I2C1_SetDataCompleteCallback 515A  
                          ADC_GetSingleConversion@channel 0505  
                                               _vfpfcnvrt 3A56  
                             ?_I2C1_DO_SEND_RESTART_WRITE 0501  
                              I2C1_Write1ByteRegister@reg 0516  
                                     ?_I2C1_MasterSendAck 0501  
                      __size_of_I2C1_MasterClearCountFlag 0006  
                                              _ADCON0bits 0003F3  
                                              _ADCON1bits 0003F4  
                                              _ADCON2bits 0003F5  
                                              _ADCON3bits 0003F6  
                                ?_I2C1_DO_RX_NACK_RESTART 0501  
                                    fp__I2C1_DO_SEND_STOP 0000  
                              ?_I2C1_MasterClearCountFlag 0501  
                                               lcd_init@i 0520  
                            __end_of_I2C1_DO_ADDRESS_NACK 4BDE  
                             ?_ADC_SetADIInterruptHandler 0501  
                                            ??_lcd_gotoxy 0520  
                                     __end_of_UART1_Write 51C4  
                                wr2RegCompleteHandler@ptr 050C  
                          __end_of_I2C1_DO_SEND_ADR_WRITE 51F2  
                                           _I2C1_DO_RESET 529A  
                                   I2C1_Close@returnValue 0501  
                                ?_rdBlkRegCompleteHandler 050C  
                        __size_of_ADC_GetSingleConversion 0032  
                                     I2C1_SetCallback@idx 0506  
                                     I2C1_SetCallback@ptr 0504  
                                    ??_I2C1_MasterSendAck 0501  
                                  ?_rd2RegCompleteHandler 050C  
                            __end_of_I2C1_MasterOperation 4D46  
                                  ?_wr2RegCompleteHandler 050C  
                                              _ADSTATbits 0003F7  
                                _I2C1_MasterIsStopFlagSet 5234  
                                                __Hrparam 0000  
                                         ?_I2C1_MasterFsm 0501  
                                   _I2C1_MasterGetCounter 5388  
                                              vfprintf@ap 0556  
                                                __Lrparam 0000  
                                              vfprintf@fp 0552  
                               ??_I2C1_MasterWaitForEvent 0501  
                                   _I2C1_MasterDisableIrq 5176  
                                      __end_of_lcd_gotoxy 499C  
                                 ??_OSCILLATOR_Initialize 0501  
                                         ?_I2C1_SetBuffer 0501  
                                        __size_of___aodiv 0188  
                                        __size_of___aomod 0164  
                                              ?_vfpfcnvrt 0542  
                               ??_I2C1_Write1ByteRegister 0518  
                                         ___aodiv@divisor 0509  
                                         ___aodiv@counter 0511  
                                  ??_I2C1_DO_SEND_RESTART 0501  
                       __end_of_I2C1_MasterClearCountFlag 53C4  
                                              sprintf@fmt 05CC  
                               _ADC_Context1Thereshld_ISR 05BB  
                                            _I2C1CON0bits 000294  
                                            _I2C1CON1bits 000295  
                                          ?_I2C1_DO_RESET 0501  
                                   __size_of_I2C1_DO_IDLE 000C  
                                             ??_Write_PCF 0519  
                                                __ptext10 5342  
                                                __ptext11 51AC  
                                                __ptext20 5276  
                                                __ptext12 4E2C  
                                                __ptext21 499C  
                                                __ptext13 3DDE  
                                                __ptext30 528A  
                                                __ptext22 513E  
                                                __ptext14 3C56  
                                                __ptext31 4A12  
                                                __ptext23 458E  
                                                __ptext15 4206  
                                                __ptext40 52C8  
                                                __ptext32 4B70  
                                                __ptext24 4FC6  
                                                __ptext16 4920  
                                                __ptext41 4632  
                                                __ptext33 529A  
                                                __ptext25 5360  
                                                __ptext17 44E6  
                                                __ptext50 5208  
                                                __ptext42 48A2  
                                                __ptext34 5368  
                                                __ptext26 4CF4  
                                                __ptext18 5122  
                                                __ptext51 5388  
                                                __ptext43 4776  
                                                __ptext35 52BA  
                                                __ptext27 5104  
                                                __ptext19 42C6  
                                                __ptext60 53AC  
                                                __ptext52 538E  
                                                __ptext44 3F42  
                                                __ptext36 5370  
                                                __ptext28 4C48  
                                                __ptext61 5356  
                                                __ptext53 5394  
                                                __ptext45 51DC  
                                                __ptext37 5072  
                                                __ptext29 4AFE  
                                                __ptext70 4814  
                                                __ptext62 53CC  
                                                __ptext54 539A  
                                                __ptext46 4F98  
                                                __ptext38 53C4  
                                                __ptext71 50C2  
                                                __ptext63 53D0  
                                                __ptext55 521E  
                                                __ptext47 532A  
                                                __ptext39 53C8  
                                                __ptext80 5176  
                                                __ptext72 4D46  
                                                __ptext64 4D98  
                                                __ptext56 53A0  
                                                __ptext48 5378  
                                                __ptext81 5336  
                                                __ptext73 5234  
                                                __ptext65 4ED8  
                                                __ptext57 534C  
                                                __ptext49 51F2  
                                                __ptext90 51C4  
                                                __ptext82 5380  
                                                __ptext74 524A  
                                                __ptext66 4F08  
                                                __ptext58 52AA  
                                                __ptext91 501E  
                                                __ptext83 5192  
                                                __ptext75 5260  
                                                __ptext67 4F38  
                                                __ptext59 53A6  
                                                __ptext92 4382  
                                                __ptext84 4A88  
                                                __ptext76 53B2  
                                                __ptext68 4F68  
                                                __ptext93 5300  
                                                __ptext85 52D6  
                                                __ptext77 53B8  
                                                __ptext69 515A  
                                                __ptext94 530E  
                                                __ptext86 52E4  
                                                __ptext78 53BE  
                                                __ptext95 531C  
                                                __ptext87 52F2  
                                                __ptext79 4FF2  
                                                __ptext96 4EA6  
                                                __ptext88 509A  
                                                __ptext97 0000  
                                                __ptext89 443A  
                                   _I2C1_DO_BUS_COLLISION 4A12  
                                              _U1CON0bits 0002AB  
                                                _lcd_init 44E6  
                          __size_of_UART1_SetErrorHandler 000E  
                                                _lcd_puts 4206  
                                                _contador 0594  
                           __end_of_UART1_SetErrorHandler 5300  
                                        __size_of_sprintf 0052  
                                  __size_of_lcd_send_byte 001C  
                                _I2C1_CallbackReturnReset 53CC  
                             fp__I2C1_CallbackReturnReset 0000  
                                           __size_of_main 00A0  
                                           __size_of_dtoa 02E4  
                                ?_I2C1_MasterIsTxBufEmpty 0501  
                                             ?_I2C1_DO_RX 0501  
                                             ?_I2C1_DO_TX 0501  
                             __end_of_I2C1_MasterClearIrq 5388  
                            __end_of_I2C1_DO_RX_NACK_STOP 52C8  
                                             ?_I2C1_Close 0501  
                               _UART1_OverrunErrorHandler 05C4  
            UART1_SetOverrunErrorHandler@interruptHandler 0501  
                                                isa$xinst 000000  
                       __size_of_I2C1_MasterClearNackFlag 0006  
                               ?_I2C1_MasterClearNackFlag 0501  
                         __end_of_I2C1_DO_RX_NACK_RESTART 5370  
                                I2C1_MasterOperation@read 0514  
                                                _vfprintf 4BDE  
                                               printf@fmt 055A  
                          __size_of_I2C1_DO_SEND_ADR_READ 002E  
                           __end_of_I2C1_DO_SEND_ADR_READ 4FC6  
                                            _I2C1_DO_IDLE 532A  
                                             _UART1_Write 51AC  
                                        ___aomod@dividend 0501  
                             __end_of_I2C1_MasterSendNack 539A  
                          ??_UART1_SetFramingErrorHandler 0504  
                             __end_of_I2C1_MasterResetBus 5360  
                           fp__I2C1_DO_SEND_RESTART_WRITE 0000  
                          I2C1_SetAddressNackCallback@ptr 050A  
                                   _I2C1_MasterSetCounter 52AA  
                                    _I2C1_MasterGetRxData 53A0  
                                   _I2C1_MasterSendTxData 534C  
                       __size_of_I2C1_MasterClearStopFlag 0006  
                               ?_I2C1_MasterClearStopFlag 0501  
                                               sprintf@ap 05D2  
                                __end_of_I2C1_MasterClose 5342  
                                 ?_I2C1_MasterIsRxBufFull 0501  
                                 ?_PIN_MANAGER_Initialize 0501  
                                __end_of_I2C1_MasterWrite 5368  
                                        ??_I2C1_DO_RX_ACK 0501  
                                        ??_I2C1_DO_TX_ACK 0501  
                                  ?_I2C1_MasterGetCounter 0501  
                                 _I2C1_CallbackReturnStop 53D0  
                              fp__I2C1_CallbackReturnStop 0000  
                                        ??_ADC_Initialize 0504  
                                    _I2C1_DO_ADDRESS_NACK 4B70  
                                  ?_I2C1_MasterDisableIrq 0501  
                                    __size_of_I2C1_Poller 001E  
                                                printf@ap 05CA  
            UART1_SetFramingErrorHandler@interruptHandler 0501  
                              ??_I2C1_ClearInterruptFlags 0501  
                                         ___aomod@divisor 0509  
                                             ??_vfpfcnvrt 0548  
                                         ___aomod@counter 0511  
                                __size_of_I2C1_MasterOpen 002C  
                                __size_of_I2C1_MasterStop 0006  
                                           _lcd_send_byte 5122  
                                __size_of_I2C1_Initialize 002C  
                                __end_of_I2C1_SetCallback 48A2  
                                                sprintf@f 05D4  
                                                sprintf@s 05CA  
                                     __size_of_I2C1_DO_RX 009E  
                                     __size_of_I2C1_DO_TX 0126  
                                         ??_I2C1_DO_RESET 0501  
                                    _I2C1_MasterOperation 4CF4  
                               __size_of_UART1_Initialize 0076  
                                     __size_of_I2C1_Close 002C  
                                   ?_I2C1_MasterGetRxData 0501  
                                  ?_I2C1_DO_BUS_COLLISION 0501  
                                 _ADC_GetSingleConversion 4EA6  
                         __end_of_I2C1_MasterIsTxBufEmpty 5208  
                                            ___aodiv@sign 0512  
                          __end_of_I2C1_MasterIsRxBufFull 5234  
                          __end_of_PIN_MANAGER_Initialize 44E6  
                          __size_of_rd1RegCompleteHandler 0030  
                           __end_of_rd1RegCompleteHandler 4F68  
                                      __size_of_I2C1_Open 00A4  
                        _ADC_DefaultContext1Threshold_ISR 000000  
                          __size_of_wr1RegCompleteHandler 0030  
                           __end_of_wr1RegCompleteHandler 4F08  
                               __size_of_I2C1_DO_RX_EMPTY 00A4  
                                            ___aomod@sign 0512  
                               __size_of_I2C1_DO_TX_EMPTY 007E  
                                   ?_I2C1_DO_ADDRESS_NACK 0501  
