

Microchip MPLAB XC8 Assembler V2.32 build 20210201212658 
                                                                                               Thu Jun 23 13:58:08 2022

Microchip MPLAB XC8 C Compiler v2.32 (Free license) build 20210201212658 Og1 
     1                           	processor	16F18855
     2                           	pagewidth 120
     3                           	opt	flic
     4                           	psect	stringtext1,global,class=STRCODE,delta=2,noexec
     5                           	psect	stringtext2,global,class=STRCODE,delta=2,noexec
     6                           	psect	stringtext3,global,class=STRCODE,delta=2,noexec
     7                           	psect	stringtext4,global,class=STRCODE,delta=2,noexec
     8                           	psect	stringtext5,global,class=STRCODE,delta=2,noexec
     9                           	psect	stringtext6,global,class=STRCODE,delta=2,noexec
    10                           	psect	stringtext7,global,class=STRCODE,delta=2,noexec
    11                           	psect	stringtext8,global,class=STRCODE,delta=2,noexec
    12                           	psect	stringtext9,global,class=STRCODE,delta=2,noexec
    13                           	psect	cinit,global,class=CODE,merge=1,delta=2
    14                           	psect	bssBANK2,global,class=BANK2,space=1,delta=1,noexec
    15                           	psect	bssBANK3,global,class=BANK3,space=1,delta=1,noexec
    16                           	psect	clrtext,global,class=CODE,delta=2
    17                           	psect	cstackBANK2,global,class=BANK2,space=1,delta=1,noexec
    18                           	psect	cstackBANK1,global,class=BANK1,space=1,delta=1,noexec
    19                           	psect	cstackCOMMON,global,class=COMMON,space=1,delta=1,noexec
    20                           	psect	cstackBANK0,global,class=BANK0,space=1,delta=1,noexec
    21                           	psect	maintext,global,class=CODE,merge=1,split=1,delta=2
    22                           	psect	text1,local,class=CODE,merge=1,delta=2
    23                           	psect	text2,local,class=CODE,merge=1,delta=2,group=3
    24                           	psect	text3,local,class=CODE,merge=1,delta=2
    25                           	psect	text4,local,class=CODE,merge=1,delta=2,group=2
    26                           	psect	text5,local,class=CODE,merge=1,delta=2,group=3
    27                           	psect	text6,local,class=CODE,merge=1,delta=2,group=1
    28                           	psect	text7,local,class=CODE,merge=1,delta=2,group=1
    29                           	psect	text8,local,class=CODE,merge=1,delta=2,group=3
    30                           	psect	text9,local,class=CODE,merge=1,delta=2,group=1
    31                           	psect	text10,local,class=CODE,merge=1,delta=2,group=3
    32                           	psect	text11,local,class=CODE,merge=1,delta=2,group=3
    33                           	psect	text12,local,class=CODE,merge=1,delta=2,group=3
    34                           	psect	text13,local,class=CODE,merge=1,delta=2,group=3
    35                           	psect	text14,local,class=CODE,merge=1,delta=2,group=3
    36                           	psect	text15,local,class=CODE,merge=1,delta=2,group=2
    37                           	psect	text16,local,class=CODE,merge=1,delta=2,group=2
    38                           	psect	text17,local,class=CODE,merge=1,delta=2,group=2
    39                           	psect	text18,local,class=CODE,merge=1,delta=2,group=2
    40                           	psect	text19,local,class=CODE,merge=1,delta=2,group=2
    41                           	psect	text20,local,class=CODE,merge=1,delta=2,group=2
    42                           	psect	text21,local,class=CODE,merge=1,delta=2,group=2
    43                           	psect	text22,local,class=CODE,merge=1,delta=2,group=2
    44                           	psect	text23,local,class=CODE,merge=1,delta=2,group=2
    45                           	psect	text24,local,class=CODE,merge=1,delta=2,group=2
    46                           	psect	text25,local,class=CODE,merge=1,delta=2,group=2
    47                           	psect	text26,local,class=CODE,merge=1,delta=2,group=1
    48                           	psect	text27,local,class=CODE,merge=1,delta=2,group=1
    49                           	psect	text28,local,class=CODE,merge=1,delta=2,group=3
    50                           	psect	text29,local,class=CODE,merge=1,delta=2,group=3
    51                           	psect	text30,local,class=CODE,merge=1,delta=2,group=3
    52                           	psect	text31,local,class=CODE,merge=1,delta=2
    53                           	psect	text32,local,class=CODE,merge=1,delta=2
    54                           	psect	text33,local,class=CODE,merge=1,delta=2,group=3
    55                           	psect	text34,local,class=CODE,merge=1,delta=2,group=2
    56                           	psect	text35,local,class=CODE,merge=1,delta=2,group=2
    57                           	psect	text36,local,class=CODE,merge=1,delta=2
    58                           	psect	text37,local,class=CODE,merge=1,delta=2
    59                           	psect	text38,local,class=CODE,merge=1,delta=2
    60                           	psect	text39,local,class=CODE,merge=1,delta=2,group=2
    61                           	psect	idloc,global,abs,ovrld,class=IDLOC,space=5,delta=2,noexec
    62                           	psect	config,global,abs,ovrld,class=CONFIG,space=4,delta=2,noexec
    63                           	dabs	1,0x7E,2
    64  0000                     
    65                           ; Version 2.40
    66                           ; Generated 02/12/2021 GMT
    67                           ; 
    68                           ; Copyright © 2021, Microchip Technology Inc. and its subsidiaries ("Microchip")
    69                           ; All rights reserved.
    70                           ; 
    71                           ; This software is developed by Microchip Technology Inc. and its subsidiaries ("Microch
      +                          ip").
    72                           ; 
    73                           ; Redistribution and use in source and binary forms, with or without modification, are
    74                           ; permitted provided that the following conditions are met:
    75                           ; 
    76                           ;     1. Redistributions of source code must retain the above copyright notice, this lis
      +                          t of
    77                           ;        conditions and the following disclaimer.
    78                           ; 
    79                           ;     2. Redistributions in binary form must reproduce the above copyright notice, this 
      +                          list
    80                           ;        of conditions and the following disclaimer in the documentation and/or other
    81                           ;        materials provided with the distribution. Publication is not required when
    82                           ;        this file is used in an embedded application.
    83                           ; 
    84                           ;     3. Microchip's name may not be used to endorse or promote products derived from th
      +                          is
    85                           ;        software without specific prior written permission.
    86                           ; 
    87                           ; THIS SOFTWARE IS PROVIDED BY MICROCHIP "AS IS" AND ANY EXPRESS OR IMPLIED WARRANTIES,
    88                           ; INCLUDING, BUT NOT LIMITED TO, THE IMPLIED WARRANTIES OF MERCHANTABILITY AND FITNESS F
      +                          OR
    89                           ; PURPOSE ARE DISCLAIMED.  IN NO EVENT SHALL MICROCHIP BE LIABLE FOR ANY DIRECT, INDIREC
      +                          T,
    90                           ; INCIDENTAL, SPECIAL, EXEMPLARY, OR CONSEQUENTIAL DAMAGES (INCLUDING BUT NOT LIMITED TO
    91                           ; PROCUREMENT OF SUBSTITUTE GOODS OR SERVICES; LOSS OF USE, DATA OR PROFITS; OR BUSINESS
    92                           ; INTERRUPTION) HOWSOEVER CAUSED AND ON ANY THEORY OF LIABILITY, WHETHER IN CONTRACT, ST
      +                          RICT
    93                           ; LIABILITY, OR TORT (INCLUDING NEGLIGENCE OR OTHERWISE) ARISING IN ANY WAY OUT OF THE U
      +                          SE OF
    94                           ; THIS SOFTWARE, EVEN IF ADVISED OF THE POSSIBILITY OF SUCH DAMAGE.
    95                           ; 
    96                           ; 
    97                           ; Code-generator required, PIC16F18855 Definitions
    98                           ; 
    99                           ; SFR Addresses
   100  0000                     	;# 
   101  0001                     	;# 
   102  0002                     	;# 
   103  0003                     	;# 
   104  0004                     	;# 
   105  0005                     	;# 
   106  0006                     	;# 
   107  0007                     	;# 
   108  0008                     	;# 
   109  0009                     	;# 
   110  000A                     	;# 
   111  000B                     	;# 
   112  000C                     	;# 
   113  000D                     	;# 
   114  000E                     	;# 
   115  0010                     	;# 
   116  0011                     	;# 
   117  0012                     	;# 
   118  0013                     	;# 
   119  0016                     	;# 
   120  0017                     	;# 
   121  0018                     	;# 
   122  001C                     	;# 
   123  001C                     	;# 
   124  001D                     	;# 
   125  001D                     	;# 
   126  001E                     	;# 
   127  001F                     	;# 
   128  008C                     	;# 
   129  008C                     	;# 
   130  008D                     	;# 
   131  008E                     	;# 
   132  008E                     	;# 
   133  008F                     	;# 
   134  0090                     	;# 
   135  0090                     	;# 
   136  0091                     	;# 
   137  0093                     	;# 
   138  0094                     	;# 
   139  0095                     	;# 
   140  0096                     	;# 
   141  0097                     	;# 
   142  0098                     	;# 
   143  0099                     	;# 
   144  009A                     	;# 
   145  009B                     	;# 
   146  009C                     	;# 
   147  009D                     	;# 
   148  009E                     	;# 
   149  010C                     	;# 
   150  010D                     	;# 
   151  010E                     	;# 
   152  010E                     	;# 
   153  010F                     	;# 
   154  0110                     	;# 
   155  0110                     	;# 
   156  0111                     	;# 
   157  0112                     	;# 
   158  0112                     	;# 
   159  0113                     	;# 
   160  0114                     	;# 
   161  0114                     	;# 
   162  0115                     	;# 
   163  0116                     	;# 
   164  0116                     	;# 
   165  0117                     	;# 
   166  0119                     	;# 
   167  0119                     	;# 
   168  0119                     	;# 
   169  011A                     	;# 
   170  011A                     	;# 
   171  011A                     	;# 
   172  011B                     	;# 
   173  011B                     	;# 
   174  011B                     	;# 
   175  011B                     	;# 
   176  011B                     	;# 
   177  011C                     	;# 
   178  011C                     	;# 
   179  011C                     	;# 
   180  011D                     	;# 
   181  011D                     	;# 
   182  011D                     	;# 
   183  011E                     	;# 
   184  011E                     	;# 
   185  011E                     	;# 
   186  011F                     	;# 
   187  011F                     	;# 
   188  011F                     	;# 
   189  011F                     	;# 
   190  011F                     	;# 
   191  018C                     	;# 
   192  018D                     	;# 
   193  018E                     	;# 
   194  018F                     	;# 
   195  0190                     	;# 
   196  0191                     	;# 
   197  0192                     	;# 
   198  0196                     	;# 
   199  0197                     	;# 
   200  0198                     	;# 
   201  0199                     	;# 
   202  019A                     	;# 
   203  019B                     	;# 
   204  019C                     	;# 
   205  020C                     	;# 
   206  020C                     	;# 
   207  020D                     	;# 
   208  020E                     	;# 
   209  020F                     	;# 
   210  020F                     	;# 
   211  0210                     	;# 
   212  0210                     	;# 
   213  0211                     	;# 
   214  0211                     	;# 
   215  0212                     	;# 
   216  0212                     	;# 
   217  0213                     	;# 
   218  0214                     	;# 
   219  0215                     	;# 
   220  0215                     	;# 
   221  0216                     	;# 
   222  0216                     	;# 
   223  0217                     	;# 
   224  0217                     	;# 
   225  0218                     	;# 
   226  0218                     	;# 
   227  0219                     	;# 
   228  021A                     	;# 
   229  021B                     	;# 
   230  021B                     	;# 
   231  021C                     	;# 
   232  021C                     	;# 
   233  021D                     	;# 
   234  021D                     	;# 
   235  021E                     	;# 
   236  021F                     	;# 
   237  028C                     	;# 
   238  028C                     	;# 
   239  028D                     	;# 
   240  028D                     	;# 
   241  028E                     	;# 
   242  028F                     	;# 
   243  0290                     	;# 
   244  0290                     	;# 
   245  0291                     	;# 
   246  0292                     	;# 
   247  0292                     	;# 
   248  0293                     	;# 
   249  0293                     	;# 
   250  0294                     	;# 
   251  0295                     	;# 
   252  0296                     	;# 
   253  0296                     	;# 
   254  0297                     	;# 
   255  0298                     	;# 
   256  0298                     	;# 
   257  0299                     	;# 
   258  0299                     	;# 
   259  029A                     	;# 
   260  029B                     	;# 
   261  029C                     	;# 
   262  029C                     	;# 
   263  029D                     	;# 
   264  030C                     	;# 
   265  030C                     	;# 
   266  030D                     	;# 
   267  030E                     	;# 
   268  030F                     	;# 
   269  0310                     	;# 
   270  0310                     	;# 
   271  0311                     	;# 
   272  0312                     	;# 
   273  0313                     	;# 
   274  0314                     	;# 
   275  0314                     	;# 
   276  0315                     	;# 
   277  0316                     	;# 
   278  0317                     	;# 
   279  0318                     	;# 
   280  0318                     	;# 
   281  0319                     	;# 
   282  031A                     	;# 
   283  031B                     	;# 
   284  031C                     	;# 
   285  031C                     	;# 
   286  031D                     	;# 
   287  031E                     	;# 
   288  031F                     	;# 
   289  038C                     	;# 
   290  038C                     	;# 
   291  038D                     	;# 
   292  038E                     	;# 
   293  0390                     	;# 
   294  0390                     	;# 
   295  0391                     	;# 
   296  0392                     	;# 
   297  040C                     	;# 
   298  040D                     	;# 
   299  040E                     	;# 
   300  040F                     	;# 
   301  0410                     	;# 
   302  0411                     	;# 
   303  0416                     	;# 
   304  0416                     	;# 
   305  0417                     	;# 
   306  0418                     	;# 
   307  0418                     	;# 
   308  0419                     	;# 
   309  041A                     	;# 
   310  041A                     	;# 
   311  041B                     	;# 
   312  041C                     	;# 
   313  041C                     	;# 
   314  041D                     	;# 
   315  041E                     	;# 
   316  041F                     	;# 
   317  048C                     	;# 
   318  048C                     	;# 
   319  048D                     	;# 
   320  048E                     	;# 
   321  048F                     	;# 
   322  048F                     	;# 
   323  0490                     	;# 
   324  0491                     	;# 
   325  0492                     	;# 
   326  0492                     	;# 
   327  0493                     	;# 
   328  0494                     	;# 
   329  0495                     	;# 
   330  0495                     	;# 
   331  0496                     	;# 
   332  0497                     	;# 
   333  0498                     	;# 
   334  0499                     	;# 
   335  049A                     	;# 
   336  049B                     	;# 
   337  049C                     	;# 
   338  049D                     	;# 
   339  050C                     	;# 
   340  050C                     	;# 
   341  050D                     	;# 
   342  050E                     	;# 
   343  050F                     	;# 
   344  050F                     	;# 
   345  0510                     	;# 
   346  0511                     	;# 
   347  0512                     	;# 
   348  0512                     	;# 
   349  0513                     	;# 
   350  0514                     	;# 
   351  0515                     	;# 
   352  0515                     	;# 
   353  0516                     	;# 
   354  0517                     	;# 
   355  0518                     	;# 
   356  0519                     	;# 
   357  051A                     	;# 
   358  051B                     	;# 
   359  051C                     	;# 
   360  051D                     	;# 
   361  058C                     	;# 
   362  058C                     	;# 
   363  058D                     	;# 
   364  058E                     	;# 
   365  058F                     	;# 
   366  058F                     	;# 
   367  0590                     	;# 
   368  0591                     	;# 
   369  0592                     	;# 
   370  0593                     	;# 
   371  060C                     	;# 
   372  060D                     	;# 
   373  060E                     	;# 
   374  060F                     	;# 
   375  0610                     	;# 
   376  0611                     	;# 
   377  0612                     	;# 
   378  0613                     	;# 
   379  0614                     	;# 
   380  0616                     	;# 
   381  0617                     	;# 
   382  0618                     	;# 
   383  0619                     	;# 
   384  061A                     	;# 
   385  061B                     	;# 
   386  061C                     	;# 
   387  061D                     	;# 
   388  061E                     	;# 
   389  068C                     	;# 
   390  068D                     	;# 
   391  068E                     	;# 
   392  068F                     	;# 
   393  0690                     	;# 
   394  0691                     	;# 
   395  0692                     	;# 
   396  0693                     	;# 
   397  0694                     	;# 
   398  070C                     	;# 
   399  070D                     	;# 
   400  070E                     	;# 
   401  070F                     	;# 
   402  0710                     	;# 
   403  0711                     	;# 
   404  0712                     	;# 
   405  0713                     	;# 
   406  0714                     	;# 
   407  0716                     	;# 
   408  0717                     	;# 
   409  0718                     	;# 
   410  0719                     	;# 
   411  071A                     	;# 
   412  071B                     	;# 
   413  071C                     	;# 
   414  071D                     	;# 
   415  071E                     	;# 
   416  0796                     	;# 
   417  0797                     	;# 
   418  0798                     	;# 
   419  0799                     	;# 
   420  079A                     	;# 
   421  079B                     	;# 
   422  080C                     	;# 
   423  080D                     	;# 
   424  080E                     	;# 
   425  080F                     	;# 
   426  0810                     	;# 
   427  0811                     	;# 
   428  0812                     	;# 
   429  0813                     	;# 
   430  0814                     	;# 
   431  081A                     	;# 
   432  081B                     	;# 
   433  081C                     	;# 
   434  081D                     	;# 
   435  081E                     	;# 
   436  081F                     	;# 
   437  088C                     	;# 
   438  088D                     	;# 
   439  088E                     	;# 
   440  088F                     	;# 
   441  0890                     	;# 
   442  0891                     	;# 
   443  0892                     	;# 
   444  0893                     	;# 
   445  0895                     	;# 
   446  0896                     	;# 
   447  0897                     	;# 
   448  0898                     	;# 
   449  0899                     	;# 
   450  089A                     	;# 
   451  089B                     	;# 
   452  090C                     	;# 
   453  090E                     	;# 
   454  090F                     	;# 
   455  091F                     	;# 
   456  091F                     	;# 
   457  098F                     	;# 
   458  098F                     	;# 
   459  0990                     	;# 
   460  0991                     	;# 
   461  0992                     	;# 
   462  0993                     	;# 
   463  0994                     	;# 
   464  0995                     	;# 
   465  0996                     	;# 
   466  0997                     	;# 
   467  0E0F                     	;# 
   468  0E10                     	;# 
   469  0E11                     	;# 
   470  0E12                     	;# 
   471  0E13                     	;# 
   472  0E14                     	;# 
   473  0E15                     	;# 
   474  0E16                     	;# 
   475  0E17                     	;# 
   476  0E18                     	;# 
   477  0E19                     	;# 
   478  0E1A                     	;# 
   479  0E1B                     	;# 
   480  0E1C                     	;# 
   481  0E1D                     	;# 
   482  0E1E                     	;# 
   483  0E1F                     	;# 
   484  0E20                     	;# 
   485  0E21                     	;# 
   486  0E22                     	;# 
   487  0E23                     	;# 
   488  0E24                     	;# 
   489  0E25                     	;# 
   490  0E26                     	;# 
   491  0E27                     	;# 
   492  0E28                     	;# 
   493  0E29                     	;# 
   494  0E2A                     	;# 
   495  0E2B                     	;# 
   496  0E2C                     	;# 
   497  0E2D                     	;# 
   498  0E2E                     	;# 
   499  0E2F                     	;# 
   500  0E30                     	;# 
   501  0E31                     	;# 
   502  0E32                     	;# 
   503  0E33                     	;# 
   504  0E34                     	;# 
   505  0E35                     	;# 
   506  0E36                     	;# 
   507  0E37                     	;# 
   508  0E8F                     	;# 
   509  0E90                     	;# 
   510  0E91                     	;# 
   511  0E92                     	;# 
   512  0E93                     	;# 
   513  0E94                     	;# 
   514  0E95                     	;# 
   515  0E96                     	;# 
   516  0E97                     	;# 
   517  0E9C                     	;# 
   518  0E9D                     	;# 
   519  0E9E                     	;# 
   520  0EA1                     	;# 
   521  0EA2                     	;# 
   522  0EA3                     	;# 
   523  0EA4                     	;# 
   524  0EA5                     	;# 
   525  0EA9                     	;# 
   526  0EAA                     	;# 
   527  0EAB                     	;# 
   528  0EAC                     	;# 
   529  0EB1                     	;# 
   530  0EB2                     	;# 
   531  0EB3                     	;# 
   532  0EB8                     	;# 
   533  0EB9                     	;# 
   534  0EBA                     	;# 
   535  0EBB                     	;# 
   536  0EBC                     	;# 
   537  0EBD                     	;# 
   538  0EBE                     	;# 
   539  0EC3                     	;# 
   540  0EC5                     	;# 
   541  0EC6                     	;# 
   542  0EC7                     	;# 
   543  0EC8                     	;# 
   544  0EC9                     	;# 
   545  0ECA                     	;# 
   546  0ECB                     	;# 
   547  0ECC                     	;# 
   548  0F10                     	;# 
   549  0F11                     	;# 
   550  0F12                     	;# 
   551  0F13                     	;# 
   552  0F14                     	;# 
   553  0F15                     	;# 
   554  0F16                     	;# 
   555  0F17                     	;# 
   556  0F18                     	;# 
   557  0F19                     	;# 
   558  0F1A                     	;# 
   559  0F1B                     	;# 
   560  0F1C                     	;# 
   561  0F1D                     	;# 
   562  0F1E                     	;# 
   563  0F1F                     	;# 
   564  0F20                     	;# 
   565  0F21                     	;# 
   566  0F22                     	;# 
   567  0F23                     	;# 
   568  0F24                     	;# 
   569  0F25                     	;# 
   570  0F26                     	;# 
   571  0F27                     	;# 
   572  0F38                     	;# 
   573  0F39                     	;# 
   574  0F3A                     	;# 
   575  0F3B                     	;# 
   576  0F3C                     	;# 
   577  0F3D                     	;# 
   578  0F3E                     	;# 
   579  0F3F                     	;# 
   580  0F40                     	;# 
   581  0F41                     	;# 
   582  0F43                     	;# 
   583  0F44                     	;# 
   584  0F45                     	;# 
   585  0F46                     	;# 
   586  0F47                     	;# 
   587  0F48                     	;# 
   588  0F49                     	;# 
   589  0F4A                     	;# 
   590  0F4B                     	;# 
   591  0F4C                     	;# 
   592  0F4E                     	;# 
   593  0F4F                     	;# 
   594  0F50                     	;# 
   595  0F51                     	;# 
   596  0F52                     	;# 
   597  0F53                     	;# 
   598  0F54                     	;# 
   599  0F55                     	;# 
   600  0F56                     	;# 
   601  0F57                     	;# 
   602  0F65                     	;# 
   603  0F68                     	;# 
   604  0F69                     	;# 
   605  0F6A                     	;# 
   606  0F6B                     	;# 
   607  0FE4                     	;# 
   608  0FE5                     	;# 
   609  0FE6                     	;# 
   610  0FE7                     	;# 
   611  0FE8                     	;# 
   612  0FE9                     	;# 
   613  0FEA                     	;# 
   614  0FEB                     	;# 
   615  0FED                     	;# 
   616  0FEE                     	;# 
   617  0FEF                     	;# 
   618  0000                     	;# 
   619  0001                     	;# 
   620  0002                     	;# 
   621  0003                     	;# 
   622  0004                     	;# 
   623  0005                     	;# 
   624  0006                     	;# 
   625  0007                     	;# 
   626  0008                     	;# 
   627  0009                     	;# 
   628  000A                     	;# 
   629  000B                     	;# 
   630  000C                     	;# 
   631  000D                     	;# 
   632  000E                     	;# 
   633  0010                     	;# 
   634  0011                     	;# 
   635  0012                     	;# 
   636  0013                     	;# 
   637  0016                     	;# 
   638  0017                     	;# 
   639  0018                     	;# 
   640  001C                     	;# 
   641  001C                     	;# 
   642  001D                     	;# 
   643  001D                     	;# 
   644  001E                     	;# 
   645  001F                     	;# 
   646  008C                     	;# 
   647  008C                     	;# 
   648  008D                     	;# 
   649  008E                     	;# 
   650  008E                     	;# 
   651  008F                     	;# 
   652  0090                     	;# 
   653  0090                     	;# 
   654  0091                     	;# 
   655  0093                     	;# 
   656  0094                     	;# 
   657  0095                     	;# 
   658  0096                     	;# 
   659  0097                     	;# 
   660  0098                     	;# 
   661  0099                     	;# 
   662  009A                     	;# 
   663  009B                     	;# 
   664  009C                     	;# 
   665  009D                     	;# 
   666  009E                     	;# 
   667  010C                     	;# 
   668  010D                     	;# 
   669  010E                     	;# 
   670  010E                     	;# 
   671  010F                     	;# 
   672  0110                     	;# 
   673  0110                     	;# 
   674  0111                     	;# 
   675  0112                     	;# 
   676  0112                     	;# 
   677  0113                     	;# 
   678  0114                     	;# 
   679  0114                     	;# 
   680  0115                     	;# 
   681  0116                     	;# 
   682  0116                     	;# 
   683  0117                     	;# 
   684  0119                     	;# 
   685  0119                     	;# 
   686  0119                     	;# 
   687  011A                     	;# 
   688  011A                     	;# 
   689  011A                     	;# 
   690  011B                     	;# 
   691  011B                     	;# 
   692  011B                     	;# 
   693  011B                     	;# 
   694  011B                     	;# 
   695  011C                     	;# 
   696  011C                     	;# 
   697  011C                     	;# 
   698  011D                     	;# 
   699  011D                     	;# 
   700  011D                     	;# 
   701  011E                     	;# 
   702  011E                     	;# 
   703  011E                     	;# 
   704  011F                     	;# 
   705  011F                     	;# 
   706  011F                     	;# 
   707  011F                     	;# 
   708  011F                     	;# 
   709  018C                     	;# 
   710  018D                     	;# 
   711  018E                     	;# 
   712  018F                     	;# 
   713  0190                     	;# 
   714  0191                     	;# 
   715  0192                     	;# 
   716  0196                     	;# 
   717  0197                     	;# 
   718  0198                     	;# 
   719  0199                     	;# 
   720  019A                     	;# 
   721  019B                     	;# 
   722  019C                     	;# 
   723  020C                     	;# 
   724  020C                     	;# 
   725  020D                     	;# 
   726  020E                     	;# 
   727  020F                     	;# 
   728  020F                     	;# 
   729  0210                     	;# 
   730  0210                     	;# 
   731  0211                     	;# 
   732  0211                     	;# 
   733  0212                     	;# 
   734  0212                     	;# 
   735  0213                     	;# 
   736  0214                     	;# 
   737  0215                     	;# 
   738  0215                     	;# 
   739  0216                     	;# 
   740  0216                     	;# 
   741  0217                     	;# 
   742  0217                     	;# 
   743  0218                     	;# 
   744  0218                     	;# 
   745  0219                     	;# 
   746  021A                     	;# 
   747  021B                     	;# 
   748  021B                     	;# 
   749  021C                     	;# 
   750  021C                     	;# 
   751  021D                     	;# 
   752  021D                     	;# 
   753  021E                     	;# 
   754  021F                     	;# 
   755  028C                     	;# 
   756  028C                     	;# 
   757  028D                     	;# 
   758  028D                     	;# 
   759  028E                     	;# 
   760  028F                     	;# 
   761  0290                     	;# 
   762  0290                     	;# 
   763  0291                     	;# 
   764  0292                     	;# 
   765  0292                     	;# 
   766  0293                     	;# 
   767  0293                     	;# 
   768  0294                     	;# 
   769  0295                     	;# 
   770  0296                     	;# 
   771  0296                     	;# 
   772  0297                     	;# 
   773  0298                     	;# 
   774  0298                     	;# 
   775  0299                     	;# 
   776  0299                     	;# 
   777  029A                     	;# 
   778  029B                     	;# 
   779  029C                     	;# 
   780  029C                     	;# 
   781  029D                     	;# 
   782  030C                     	;# 
   783  030C                     	;# 
   784  030D                     	;# 
   785  030E                     	;# 
   786  030F                     	;# 
   787  0310                     	;# 
   788  0310                     	;# 
   789  0311                     	;# 
   790  0312                     	;# 
   791  0313                     	;# 
   792  0314                     	;# 
   793  0314                     	;# 
   794  0315                     	;# 
   795  0316                     	;# 
   796  0317                     	;# 
   797  0318                     	;# 
   798  0318                     	;# 
   799  0319                     	;# 
   800  031A                     	;# 
   801  031B                     	;# 
   802  031C                     	;# 
   803  031C                     	;# 
   804  031D                     	;# 
   805  031E                     	;# 
   806  031F                     	;# 
   807  038C                     	;# 
   808  038C                     	;# 
   809  038D                     	;# 
   810  038E                     	;# 
   811  0390                     	;# 
   812  0390                     	;# 
   813  0391                     	;# 
   814  0392                     	;# 
   815  040C                     	;# 
   816  040D                     	;# 
   817  040E                     	;# 
   818  040F                     	;# 
   819  0410                     	;# 
   820  0411                     	;# 
   821  0416                     	;# 
   822  0416                     	;# 
   823  0417                     	;# 
   824  0418                     	;# 
   825  0418                     	;# 
   826  0419                     	;# 
   827  041A                     	;# 
   828  041A                     	;# 
   829  041B                     	;# 
   830  041C                     	;# 
   831  041C                     	;# 
   832  041D                     	;# 
   833  041E                     	;# 
   834  041F                     	;# 
   835  048C                     	;# 
   836  048C                     	;# 
   837  048D                     	;# 
   838  048E                     	;# 
   839  048F                     	;# 
   840  048F                     	;# 
   841  0490                     	;# 
   842  0491                     	;# 
   843  0492                     	;# 
   844  0492                     	;# 
   845  0493                     	;# 
   846  0494                     	;# 
   847  0495                     	;# 
   848  0495                     	;# 
   849  0496                     	;# 
   850  0497                     	;# 
   851  0498                     	;# 
   852  0499                     	;# 
   853  049A                     	;# 
   854  049B                     	;# 
   855  049C                     	;# 
   856  049D                     	;# 
   857  050C                     	;# 
   858  050C                     	;# 
   859  050D                     	;# 
   860  050E                     	;# 
   861  050F                     	;# 
   862  050F                     	;# 
   863  0510                     	;# 
   864  0511                     	;# 
   865  0512                     	;# 
   866  0512                     	;# 
   867  0513                     	;# 
   868  0514                     	;# 
   869  0515                     	;# 
   870  0515                     	;# 
   871  0516                     	;# 
   872  0517                     	;# 
   873  0518                     	;# 
   874  0519                     	;# 
   875  051A                     	;# 
   876  051B                     	;# 
   877  051C                     	;# 
   878  051D                     	;# 
   879  058C                     	;# 
   880  058C                     	;# 
   881  058D                     	;# 
   882  058E                     	;# 
   883  058F                     	;# 
   884  058F                     	;# 
   885  0590                     	;# 
   886  0591                     	;# 
   887  0592                     	;# 
   888  0593                     	;# 
   889  060C                     	;# 
   890  060D                     	;# 
   891  060E                     	;# 
   892  060F                     	;# 
   893  0610                     	;# 
   894  0611                     	;# 
   895  0612                     	;# 
   896  0613                     	;# 
   897  0614                     	;# 
   898  0616                     	;# 
   899  0617                     	;# 
   900  0618                     	;# 
   901  0619                     	;# 
   902  061A                     	;# 
   903  061B                     	;# 
   904  061C                     	;# 
   905  061D                     	;# 
   906  061E                     	;# 
   907  068C                     	;# 
   908  068D                     	;# 
   909  068E                     	;# 
   910  068F                     	;# 
   911  0690                     	;# 
   912  0691                     	;# 
   913  0692                     	;# 
   914  0693                     	;# 
   915  0694                     	;# 
   916  070C                     	;# 
   917  070D                     	;# 
   918  070E                     	;# 
   919  070F                     	;# 
   920  0710                     	;# 
   921  0711                     	;# 
   922  0712                     	;# 
   923  0713                     	;# 
   924  0714                     	;# 
   925  0716                     	;# 
   926  0717                     	;# 
   927  0718                     	;# 
   928  0719                     	;# 
   929  071A                     	;# 
   930  071B                     	;# 
   931  071C                     	;# 
   932  071D                     	;# 
   933  071E                     	;# 
   934  0796                     	;# 
   935  0797                     	;# 
   936  0798                     	;# 
   937  0799                     	;# 
   938  079A                     	;# 
   939  079B                     	;# 
   940  080C                     	;# 
   941  080D                     	;# 
   942  080E                     	;# 
   943  080F                     	;# 
   944  0810                     	;# 
   945  0811                     	;# 
   946  0812                     	;# 
   947  0813                     	;# 
   948  0814                     	;# 
   949  081A                     	;# 
   950  081B                     	;# 
   951  081C                     	;# 
   952  081D                     	;# 
   953  081E                     	;# 
   954  081F                     	;# 
   955  088C                     	;# 
   956  088D                     	;# 
   957  088E                     	;# 
   958  088F                     	;# 
   959  0890                     	;# 
   960  0891                     	;# 
   961  0892                     	;# 
   962  0893                     	;# 
   963  0895                     	;# 
   964  0896                     	;# 
   965  0897                     	;# 
   966  0898                     	;# 
   967  0899                     	;# 
   968  089A                     	;# 
   969  089B                     	;# 
   970  090C                     	;# 
   971  090E                     	;# 
   972  090F                     	;# 
   973  091F                     	;# 
   974  091F                     	;# 
   975  098F                     	;# 
   976  098F                     	;# 
   977  0990                     	;# 
   978  0991                     	;# 
   979  0992                     	;# 
   980  0993                     	;# 
   981  0994                     	;# 
   982  0995                     	;# 
   983  0996                     	;# 
   984  0997                     	;# 
   985  0E0F                     	;# 
   986  0E10                     	;# 
   987  0E11                     	;# 
   988  0E12                     	;# 
   989  0E13                     	;# 
   990  0E14                     	;# 
   991  0E15                     	;# 
   992  0E16                     	;# 
   993  0E17                     	;# 
   994  0E18                     	;# 
   995  0E19                     	;# 
   996  0E1A                     	;# 
   997  0E1B                     	;# 
   998  0E1C                     	;# 
   999  0E1D                     	;# 
  1000  0E1E                     	;# 
  1001  0E1F                     	;# 
  1002  0E20                     	;# 
  1003  0E21                     	;# 
  1004  0E22                     	;# 
  1005  0E23                     	;# 
  1006  0E24                     	;# 
  1007  0E25                     	;# 
  1008  0E26                     	;# 
  1009  0E27                     	;# 
  1010  0E28                     	;# 
  1011  0E29                     	;# 
  1012  0E2A                     	;# 
  1013  0E2B                     	;# 
  1014  0E2C                     	;# 
  1015  0E2D                     	;# 
  1016  0E2E                     	;# 
  1017  0E2F                     	;# 
  1018  0E30                     	;# 
  1019  0E31                     	;# 
  1020  0E32                     	;# 
  1021  0E33                     	;# 
  1022  0E34                     	;# 
  1023  0E35                     	;# 
  1024  0E36                     	;# 
  1025  0E37                     	;# 
  1026  0E8F                     	;# 
  1027  0E90                     	;# 
  1028  0E91                     	;# 
  1029  0E92                     	;# 
  1030  0E93                     	;# 
  1031  0E94                     	;# 
  1032  0E95                     	;# 
  1033  0E96                     	;# 
  1034  0E97                     	;# 
  1035  0E9C                     	;# 
  1036  0E9D                     	;# 
  1037  0E9E                     	;# 
  1038  0EA1                     	;# 
  1039  0EA2                     	;# 
  1040  0EA3                     	;# 
  1041  0EA4                     	;# 
  1042  0EA5                     	;# 
  1043  0EA9                     	;# 
  1044  0EAA                     	;# 
  1045  0EAB                     	;# 
  1046  0EAC                     	;# 
  1047  0EB1                     	;# 
  1048  0EB2                     	;# 
  1049  0EB3                     	;# 
  1050  0EB8                     	;# 
  1051  0EB9                     	;# 
  1052  0EBA                     	;# 
  1053  0EBB                     	;# 
  1054  0EBC                     	;# 
  1055  0EBD                     	;# 
  1056  0EBE                     	;# 
  1057  0EC3                     	;# 
  1058  0EC5                     	;# 
  1059  0EC6                     	;# 
  1060  0EC7                     	;# 
  1061  0EC8                     	;# 
  1062  0EC9                     	;# 
  1063  0ECA                     	;# 
  1064  0ECB                     	;# 
  1065  0ECC                     	;# 
  1066  0F10                     	;# 
  1067  0F11                     	;# 
  1068  0F12                     	;# 
  1069  0F13                     	;# 
  1070  0F14                     	;# 
  1071  0F15                     	;# 
  1072  0F16                     	;# 
  1073  0F17                     	;# 
  1074  0F18                     	;# 
  1075  0F19                     	;# 
  1076  0F1A                     	;# 
  1077  0F1B                     	;# 
  1078  0F1C                     	;# 
  1079  0F1D                     	;# 
  1080  0F1E                     	;# 
  1081  0F1F                     	;# 
  1082  0F20                     	;# 
  1083  0F21                     	;# 
  1084  0F22                     	;# 
  1085  0F23                     	;# 
  1086  0F24                     	;# 
  1087  0F25                     	;# 
  1088  0F26                     	;# 
  1089  0F27                     	;# 
  1090  0F38                     	;# 
  1091  0F39                     	;# 
  1092  0F3A                     	;# 
  1093  0F3B                     	;# 
  1094  0F3C                     	;# 
  1095  0F3D                     	;# 
  1096  0F3E                     	;# 
  1097  0F3F                     	;# 
  1098  0F40                     	;# 
  1099  0F41                     	;# 
  1100  0F43                     	;# 
  1101  0F44                     	;# 
  1102  0F45                     	;# 
  1103  0F46                     	;# 
  1104  0F47                     	;# 
  1105  0F48                     	;# 
  1106  0F49                     	;# 
  1107  0F4A                     	;# 
  1108  0F4B                     	;# 
  1109  0F4C                     	;# 
  1110  0F4E                     	;# 
  1111  0F4F                     	;# 
  1112  0F50                     	;# 
  1113  0F51                     	;# 
  1114  0F52                     	;# 
  1115  0F53                     	;# 
  1116  0F54                     	;# 
  1117  0F55                     	;# 
  1118  0F56                     	;# 
  1119  0F57                     	;# 
  1120  0F65                     	;# 
  1121  0F68                     	;# 
  1122  0F69                     	;# 
  1123  0F6A                     	;# 
  1124  0F6B                     	;# 
  1125  0FE4                     	;# 
  1126  0FE5                     	;# 
  1127  0FE6                     	;# 
  1128  0FE7                     	;# 
  1129  0FE8                     	;# 
  1130  0FE9                     	;# 
  1131  0FEA                     	;# 
  1132  0FEB                     	;# 
  1133  0FED                     	;# 
  1134  0FEE                     	;# 
  1135  0FEF                     	;# 
  1136  0000                     	;# 
  1137  0001                     	;# 
  1138  0002                     	;# 
  1139  0003                     	;# 
  1140  0004                     	;# 
  1141  0005                     	;# 
  1142  0006                     	;# 
  1143  0007                     	;# 
  1144  0008                     	;# 
  1145  0009                     	;# 
  1146  000A                     	;# 
  1147  000B                     	;# 
  1148  000C                     	;# 
  1149  000D                     	;# 
  1150  000E                     	;# 
  1151  0010                     	;# 
  1152  0011                     	;# 
  1153  0012                     	;# 
  1154  0013                     	;# 
  1155  0016                     	;# 
  1156  0017                     	;# 
  1157  0018                     	;# 
  1158  001C                     	;# 
  1159  001C                     	;# 
  1160  001D                     	;# 
  1161  001D                     	;# 
  1162  001E                     	;# 
  1163  001F                     	;# 
  1164  008C                     	;# 
  1165  008C                     	;# 
  1166  008D                     	;# 
  1167  008E                     	;# 
  1168  008E                     	;# 
  1169  008F                     	;# 
  1170  0090                     	;# 
  1171  0090                     	;# 
  1172  0091                     	;# 
  1173  0093                     	;# 
  1174  0094                     	;# 
  1175  0095                     	;# 
  1176  0096                     	;# 
  1177  0097                     	;# 
  1178  0098                     	;# 
  1179  0099                     	;# 
  1180  009A                     	;# 
  1181  009B                     	;# 
  1182  009C                     	;# 
  1183  009D                     	;# 
  1184  009E                     	;# 
  1185  010C                     	;# 
  1186  010D                     	;# 
  1187  010E                     	;# 
  1188  010E                     	;# 
  1189  010F                     	;# 
  1190  0110                     	;# 
  1191  0110                     	;# 
  1192  0111                     	;# 
  1193  0112                     	;# 
  1194  0112                     	;# 
  1195  0113                     	;# 
  1196  0114                     	;# 
  1197  0114                     	;# 
  1198  0115                     	;# 
  1199  0116                     	;# 
  1200  0116                     	;# 
  1201  0117                     	;# 
  1202  0119                     	;# 
  1203  0119                     	;# 
  1204  0119                     	;# 
  1205  011A                     	;# 
  1206  011A                     	;# 
  1207  011A                     	;# 
  1208  011B                     	;# 
  1209  011B                     	;# 
  1210  011B                     	;# 
  1211  011B                     	;# 
  1212  011B                     	;# 
  1213  011C                     	;# 
  1214  011C                     	;# 
  1215  011C                     	;# 
  1216  011D                     	;# 
  1217  011D                     	;# 
  1218  011D                     	;# 
  1219  011E                     	;# 
  1220  011E                     	;# 
  1221  011E                     	;# 
  1222  011F                     	;# 
  1223  011F                     	;# 
  1224  011F                     	;# 
  1225  011F                     	;# 
  1226  011F                     	;# 
  1227  018C                     	;# 
  1228  018D                     	;# 
  1229  018E                     	;# 
  1230  018F                     	;# 
  1231  0190                     	;# 
  1232  0191                     	;# 
  1233  0192                     	;# 
  1234  0196                     	;# 
  1235  0197                     	;# 
  1236  0198                     	;# 
  1237  0199                     	;# 
  1238  019A                     	;# 
  1239  019B                     	;# 
  1240  019C                     	;# 
  1241  020C                     	;# 
  1242  020C                     	;# 
  1243  020D                     	;# 
  1244  020E                     	;# 
  1245  020F                     	;# 
  1246  020F                     	;# 
  1247  0210                     	;# 
  1248  0210                     	;# 
  1249  0211                     	;# 
  1250  0211                     	;# 
  1251  0212                     	;# 
  1252  0212                     	;# 
  1253  0213                     	;# 
  1254  0214                     	;# 
  1255  0215                     	;# 
  1256  0215                     	;# 
  1257  0216                     	;# 
  1258  0216                     	;# 
  1259  0217                     	;# 
  1260  0217                     	;# 
  1261  0218                     	;# 
  1262  0218                     	;# 
  1263  0219                     	;# 
  1264  021A                     	;# 
  1265  021B                     	;# 
  1266  021B                     	;# 
  1267  021C                     	;# 
  1268  021C                     	;# 
  1269  021D                     	;# 
  1270  021D                     	;# 
  1271  021E                     	;# 
  1272  021F                     	;# 
  1273  028C                     	;# 
  1274  028C                     	;# 
  1275  028D                     	;# 
  1276  028D                     	;# 
  1277  028E                     	;# 
  1278  028F                     	;# 
  1279  0290                     	;# 
  1280  0290                     	;# 
  1281  0291                     	;# 
  1282  0292                     	;# 
  1283  0292                     	;# 
  1284  0293                     	;# 
  1285  0293                     	;# 
  1286  0294                     	;# 
  1287  0295                     	;# 
  1288  0296                     	;# 
  1289  0296                     	;# 
  1290  0297                     	;# 
  1291  0298                     	;# 
  1292  0298                     	;# 
  1293  0299                     	;# 
  1294  0299                     	;# 
  1295  029A                     	;# 
  1296  029B                     	;# 
  1297  029C                     	;# 
  1298  029C                     	;# 
  1299  029D                     	;# 
  1300  030C                     	;# 
  1301  030C                     	;# 
  1302  030D                     	;# 
  1303  030E                     	;# 
  1304  030F                     	;# 
  1305  0310                     	;# 
  1306  0310                     	;# 
  1307  0311                     	;# 
  1308  0312                     	;# 
  1309  0313                     	;# 
  1310  0314                     	;# 
  1311  0314                     	;# 
  1312  0315                     	;# 
  1313  0316                     	;# 
  1314  0317                     	;# 
  1315  0318                     	;# 
  1316  0318                     	;# 
  1317  0319                     	;# 
  1318  031A                     	;# 
  1319  031B                     	;# 
  1320  031C                     	;# 
  1321  031C                     	;# 
  1322  031D                     	;# 
  1323  031E                     	;# 
  1324  031F                     	;# 
  1325  038C                     	;# 
  1326  038C                     	;# 
  1327  038D                     	;# 
  1328  038E                     	;# 
  1329  0390                     	;# 
  1330  0390                     	;# 
  1331  0391                     	;# 
  1332  0392                     	;# 
  1333  040C                     	;# 
  1334  040D                     	;# 
  1335  040E                     	;# 
  1336  040F                     	;# 
  1337  0410                     	;# 
  1338  0411                     	;# 
  1339  0416                     	;# 
  1340  0416                     	;# 
  1341  0417                     	;# 
  1342  0418                     	;# 
  1343  0418                     	;# 
  1344  0419                     	;# 
  1345  041A                     	;# 
  1346  041A                     	;# 
  1347  041B                     	;# 
  1348  041C                     	;# 
  1349  041C                     	;# 
  1350  041D                     	;# 
  1351  041E                     	;# 
  1352  041F                     	;# 
  1353  048C                     	;# 
  1354  048C                     	;# 
  1355  048D                     	;# 
  1356  048E                     	;# 
  1357  048F                     	;# 
  1358  048F                     	;# 
  1359  0490                     	;# 
  1360  0491                     	;# 
  1361  0492                     	;# 
  1362  0492                     	;# 
  1363  0493                     	;# 
  1364  0494                     	;# 
  1365  0495                     	;# 
  1366  0495                     	;# 
  1367  0496                     	;# 
  1368  0497                     	;# 
  1369  0498                     	;# 
  1370  0499                     	;# 
  1371  049A                     	;# 
  1372  049B                     	;# 
  1373  049C                     	;# 
  1374  049D                     	;# 
  1375  050C                     	;# 
  1376  050C                     	;# 
  1377  050D                     	;# 
  1378  050E                     	;# 
  1379  050F                     	;# 
  1380  050F                     	;# 
  1381  0510                     	;# 
  1382  0511                     	;# 
  1383  0512                     	;# 
  1384  0512                     	;# 
  1385  0513                     	;# 
  1386  0514                     	;# 
  1387  0515                     	;# 
  1388  0515                     	;# 
  1389  0516                     	;# 
  1390  0517                     	;# 
  1391  0518                     	;# 
  1392  0519                     	;# 
  1393  051A                     	;# 
  1394  051B                     	;# 
  1395  051C                     	;# 
  1396  051D                     	;# 
  1397  058C                     	;# 
  1398  058C                     	;# 
  1399  058D                     	;# 
  1400  058E                     	;# 
  1401  058F                     	;# 
  1402  058F                     	;# 
  1403  0590                     	;# 
  1404  0591                     	;# 
  1405  0592                     	;# 
  1406  0593                     	;# 
  1407  060C                     	;# 
  1408  060D                     	;# 
  1409  060E                     	;# 
  1410  060F                     	;# 
  1411  0610                     	;# 
  1412  0611                     	;# 
  1413  0612                     	;# 
  1414  0613                     	;# 
  1415  0614                     	;# 
  1416  0616                     	;# 
  1417  0617                     	;# 
  1418  0618                     	;# 
  1419  0619                     	;# 
  1420  061A                     	;# 
  1421  061B                     	;# 
  1422  061C                     	;# 
  1423  061D                     	;# 
  1424  061E                     	;# 
  1425  068C                     	;# 
  1426  068D                     	;# 
  1427  068E                     	;# 
  1428  068F                     	;# 
  1429  0690                     	;# 
  1430  0691                     	;# 
  1431  0692                     	;# 
  1432  0693                     	;# 
  1433  0694                     	;# 
  1434  070C                     	;# 
  1435  070D                     	;# 
  1436  070E                     	;# 
  1437  070F                     	;# 
  1438  0710                     	;# 
  1439  0711                     	;# 
  1440  0712                     	;# 
  1441  0713                     	;# 
  1442  0714                     	;# 
  1443  0716                     	;# 
  1444  0717                     	;# 
  1445  0718                     	;# 
  1446  0719                     	;# 
  1447  071A                     	;# 
  1448  071B                     	;# 
  1449  071C                     	;# 
  1450  071D                     	;# 
  1451  071E                     	;# 
  1452  0796                     	;# 
  1453  0797                     	;# 
  1454  0798                     	;# 
  1455  0799                     	;# 
  1456  079A                     	;# 
  1457  079B                     	;# 
  1458  080C                     	;# 
  1459  080D                     	;# 
  1460  080E                     	;# 
  1461  080F                     	;# 
  1462  0810                     	;# 
  1463  0811                     	;# 
  1464  0812                     	;# 
  1465  0813                     	;# 
  1466  0814                     	;# 
  1467  081A                     	;# 
  1468  081B                     	;# 
  1469  081C                     	;# 
  1470  081D                     	;# 
  1471  081E                     	;# 
  1472  081F                     	;# 
  1473  088C                     	;# 
  1474  088D                     	;# 
  1475  088E                     	;# 
  1476  088F                     	;# 
  1477  0890                     	;# 
  1478  0891                     	;# 
  1479  0892                     	;# 
  1480  0893                     	;# 
  1481  0895                     	;# 
  1482  0896                     	;# 
  1483  0897                     	;# 
  1484  0898                     	;# 
  1485  0899                     	;# 
  1486  089A                     	;# 
  1487  089B                     	;# 
  1488  090C                     	;# 
  1489  090E                     	;# 
  1490  090F                     	;# 
  1491  091F                     	;# 
  1492  091F                     	;# 
  1493  098F                     	;# 
  1494  098F                     	;# 
  1495  0990                     	;# 
  1496  0991                     	;# 
  1497  0992                     	;# 
  1498  0993                     	;# 
  1499  0994                     	;# 
  1500  0995                     	;# 
  1501  0996                     	;# 
  1502  0997                     	;# 
  1503  0E0F                     	;# 
  1504  0E10                     	;# 
  1505  0E11                     	;# 
  1506  0E12                     	;# 
  1507  0E13                     	;# 
  1508  0E14                     	;# 
  1509  0E15                     	;# 
  1510  0E16                     	;# 
  1511  0E17                     	;# 
  1512  0E18                     	;# 
  1513  0E19                     	;# 
  1514  0E1A                     	;# 
  1515  0E1B                     	;# 
  1516  0E1C                     	;# 
  1517  0E1D                     	;# 
  1518  0E1E                     	;# 
  1519  0E1F                     	;# 
  1520  0E20                     	;# 
  1521  0E21                     	;# 
  1522  0E22                     	;# 
  1523  0E23                     	;# 
  1524  0E24                     	;# 
  1525  0E25                     	;# 
  1526  0E26                     	;# 
  1527  0E27                     	;# 
  1528  0E28                     	;# 
  1529  0E29                     	;# 
  1530  0E2A                     	;# 
  1531  0E2B                     	;# 
  1532  0E2C                     	;# 
  1533  0E2D                     	;# 
  1534  0E2E                     	;# 
  1535  0E2F                     	;# 
  1536  0E30                     	;# 
  1537  0E31                     	;# 
  1538  0E32                     	;# 
  1539  0E33                     	;# 
  1540  0E34                     	;# 
  1541  0E35                     	;# 
  1542  0E36                     	;# 
  1543  0E37                     	;# 
  1544  0E8F                     	;# 
  1545  0E90                     	;# 
  1546  0E91                     	;# 
  1547  0E92                     	;# 
  1548  0E93                     	;# 
  1549  0E94                     	;# 
  1550  0E95                     	;# 
  1551  0E96                     	;# 
  1552  0E97                     	;# 
  1553  0E9C                     	;# 
  1554  0E9D                     	;# 
  1555  0E9E                     	;# 
  1556  0EA1                     	;# 
  1557  0EA2                     	;# 
  1558  0EA3                     	;# 
  1559  0EA4                     	;# 
  1560  0EA5                     	;# 
  1561  0EA9                     	;# 
  1562  0EAA                     	;# 
  1563  0EAB                     	;# 
  1564  0EAC                     	;# 
  1565  0EB1                     	;# 
  1566  0EB2                     	;# 
  1567  0EB3                     	;# 
  1568  0EB8                     	;# 
  1569  0EB9                     	;# 
  1570  0EBA                     	;# 
  1571  0EBB                     	;# 
  1572  0EBC                     	;# 
  1573  0EBD                     	;# 
  1574  0EBE                     	;# 
  1575  0EC3                     	;# 
  1576  0EC5                     	;# 
  1577  0EC6                     	;# 
  1578  0EC7                     	;# 
  1579  0EC8                     	;# 
  1580  0EC9                     	;# 
  1581  0ECA                     	;# 
  1582  0ECB                     	;# 
  1583  0ECC                     	;# 
  1584  0F10                     	;# 
  1585  0F11                     	;# 
  1586  0F12                     	;# 
  1587  0F13                     	;# 
  1588  0F14                     	;# 
  1589  0F15                     	;# 
  1590  0F16                     	;# 
  1591  0F17                     	;# 
  1592  0F18                     	;# 
  1593  0F19                     	;# 
  1594  0F1A                     	;# 
  1595  0F1B                     	;# 
  1596  0F1C                     	;# 
  1597  0F1D                     	;# 
  1598  0F1E                     	;# 
  1599  0F1F                     	;# 
  1600  0F20                     	;# 
  1601  0F21                     	;# 
  1602  0F22                     	;# 
  1603  0F23                     	;# 
  1604  0F24                     	;# 
  1605  0F25                     	;# 
  1606  0F26                     	;# 
  1607  0F27                     	;# 
  1608  0F38                     	;# 
  1609  0F39                     	;# 
  1610  0F3A                     	;# 
  1611  0F3B                     	;# 
  1612  0F3C                     	;# 
  1613  0F3D                     	;# 
  1614  0F3E                     	;# 
  1615  0F3F                     	;# 
  1616  0F40                     	;# 
  1617  0F41                     	;# 
  1618  0F43                     	;# 
  1619  0F44                     	;# 
  1620  0F45                     	;# 
  1621  0F46                     	;# 
  1622  0F47                     	;# 
  1623  0F48                     	;# 
  1624  0F49                     	;# 
  1625  0F4A                     	;# 
  1626  0F4B                     	;# 
  1627  0F4C                     	;# 
  1628  0F4E                     	;# 
  1629  0F4F                     	;# 
  1630  0F50                     	;# 
  1631  0F51                     	;# 
  1632  0F52                     	;# 
  1633  0F53                     	;# 
  1634  0F54                     	;# 
  1635  0F55                     	;# 
  1636  0F56                     	;# 
  1637  0F57                     	;# 
  1638  0F65                     	;# 
  1639  0F68                     	;# 
  1640  0F69                     	;# 
  1641  0F6A                     	;# 
  1642  0F6B                     	;# 
  1643  0FE4                     	;# 
  1644  0FE5                     	;# 
  1645  0FE6                     	;# 
  1646  0FE7                     	;# 
  1647  0FE8                     	;# 
  1648  0FE9                     	;# 
  1649  0FEA                     	;# 
  1650  0FEB                     	;# 
  1651  0FED                     	;# 
  1652  0FEE                     	;# 
  1653  0FEF                     	;# 
  1654  0000                     	;# 
  1655  0001                     	;# 
  1656  0002                     	;# 
  1657  0003                     	;# 
  1658  0004                     	;# 
  1659  0005                     	;# 
  1660  0006                     	;# 
  1661  0007                     	;# 
  1662  0008                     	;# 
  1663  0009                     	;# 
  1664  000A                     	;# 
  1665  000B                     	;# 
  1666  000C                     	;# 
  1667  000D                     	;# 
  1668  000E                     	;# 
  1669  0010                     	;# 
  1670  0011                     	;# 
  1671  0012                     	;# 
  1672  0013                     	;# 
  1673  0016                     	;# 
  1674  0017                     	;# 
  1675  0018                     	;# 
  1676  001C                     	;# 
  1677  001C                     	;# 
  1678  001D                     	;# 
  1679  001D                     	;# 
  1680  001E                     	;# 
  1681  001F                     	;# 
  1682  008C                     	;# 
  1683  008C                     	;# 
  1684  008D                     	;# 
  1685  008E                     	;# 
  1686  008E                     	;# 
  1687  008F                     	;# 
  1688  0090                     	;# 
  1689  0090                     	;# 
  1690  0091                     	;# 
  1691  0093                     	;# 
  1692  0094                     	;# 
  1693  0095                     	;# 
  1694  0096                     	;# 
  1695  0097                     	;# 
  1696  0098                     	;# 
  1697  0099                     	;# 
  1698  009A                     	;# 
  1699  009B                     	;# 
  1700  009C                     	;# 
  1701  009D                     	;# 
  1702  009E                     	;# 
  1703  010C                     	;# 
  1704  010D                     	;# 
  1705  010E                     	;# 
  1706  010E                     	;# 
  1707  010F                     	;# 
  1708  0110                     	;# 
  1709  0110                     	;# 
  1710  0111                     	;# 
  1711  0112                     	;# 
  1712  0112                     	;# 
  1713  0113                     	;# 
  1714  0114                     	;# 
  1715  0114                     	;# 
  1716  0115                     	;# 
  1717  0116                     	;# 
  1718  0116                     	;# 
  1719  0117                     	;# 
  1720  0119                     	;# 
  1721  0119                     	;# 
  1722  0119                     	;# 
  1723  011A                     	;# 
  1724  011A                     	;# 
  1725  011A                     	;# 
  1726  011B                     	;# 
  1727  011B                     	;# 
  1728  011B                     	;# 
  1729  011B                     	;# 
  1730  011B                     	;# 
  1731  011C                     	;# 
  1732  011C                     	;# 
  1733  011C                     	;# 
  1734  011D                     	;# 
  1735  011D                     	;# 
  1736  011D                     	;# 
  1737  011E                     	;# 
  1738  011E                     	;# 
  1739  011E                     	;# 
  1740  011F                     	;# 
  1741  011F                     	;# 
  1742  011F                     	;# 
  1743  011F                     	;# 
  1744  011F                     	;# 
  1745  018C                     	;# 
  1746  018D                     	;# 
  1747  018E                     	;# 
  1748  018F                     	;# 
  1749  0190                     	;# 
  1750  0191                     	;# 
  1751  0192                     	;# 
  1752  0196                     	;# 
  1753  0197                     	;# 
  1754  0198                     	;# 
  1755  0199                     	;# 
  1756  019A                     	;# 
  1757  019B                     	;# 
  1758  019C                     	;# 
  1759  020C                     	;# 
  1760  020C                     	;# 
  1761  020D                     	;# 
  1762  020E                     	;# 
  1763  020F                     	;# 
  1764  020F                     	;# 
  1765  0210                     	;# 
  1766  0210                     	;# 
  1767  0211                     	;# 
  1768  0211                     	;# 
  1769  0212                     	;# 
  1770  0212                     	;# 
  1771  0213                     	;# 
  1772  0214                     	;# 
  1773  0215                     	;# 
  1774  0215                     	;# 
  1775  0216                     	;# 
  1776  0216                     	;# 
  1777  0217                     	;# 
  1778  0217                     	;# 
  1779  0218                     	;# 
  1780  0218                     	;# 
  1781  0219                     	;# 
  1782  021A                     	;# 
  1783  021B                     	;# 
  1784  021B                     	;# 
  1785  021C                     	;# 
  1786  021C                     	;# 
  1787  021D                     	;# 
  1788  021D                     	;# 
  1789  021E                     	;# 
  1790  021F                     	;# 
  1791  028C                     	;# 
  1792  028C                     	;# 
  1793  028D                     	;# 
  1794  028D                     	;# 
  1795  028E                     	;# 
  1796  028F                     	;# 
  1797  0290                     	;# 
  1798  0290                     	;# 
  1799  0291                     	;# 
  1800  0292                     	;# 
  1801  0292                     	;# 
  1802  0293                     	;# 
  1803  0293                     	;# 
  1804  0294                     	;# 
  1805  0295                     	;# 
  1806  0296                     	;# 
  1807  0296                     	;# 
  1808  0297                     	;# 
  1809  0298                     	;# 
  1810  0298                     	;# 
  1811  0299                     	;# 
  1812  0299                     	;# 
  1813  029A                     	;# 
  1814  029B                     	;# 
  1815  029C                     	;# 
  1816  029C                     	;# 
  1817  029D                     	;# 
  1818  030C                     	;# 
  1819  030C                     	;# 
  1820  030D                     	;# 
  1821  030E                     	;# 
  1822  030F                     	;# 
  1823  0310                     	;# 
  1824  0310                     	;# 
  1825  0311                     	;# 
  1826  0312                     	;# 
  1827  0313                     	;# 
  1828  0314                     	;# 
  1829  0314                     	;# 
  1830  0315                     	;# 
  1831  0316                     	;# 
  1832  0317                     	;# 
  1833  0318                     	;# 
  1834  0318                     	;# 
  1835  0319                     	;# 
  1836  031A                     	;# 
  1837  031B                     	;# 
  1838  031C                     	;# 
  1839  031C                     	;# 
  1840  031D                     	;# 
  1841  031E                     	;# 
  1842  031F                     	;# 
  1843  038C                     	;# 
  1844  038C                     	;# 
  1845  038D                     	;# 
  1846  038E                     	;# 
  1847  0390                     	;# 
  1848  0390                     	;# 
  1849  0391                     	;# 
  1850  0392                     	;# 
  1851  040C                     	;# 
  1852  040D                     	;# 
  1853  040E                     	;# 
  1854  040F                     	;# 
  1855  0410                     	;# 
  1856  0411                     	;# 
  1857  0416                     	;# 
  1858  0416                     	;# 
  1859  0417                     	;# 
  1860  0418                     	;# 
  1861  0418                     	;# 
  1862  0419                     	;# 
  1863  041A                     	;# 
  1864  041A                     	;# 
  1865  041B                     	;# 
  1866  041C                     	;# 
  1867  041C                     	;# 
  1868  041D                     	;# 
  1869  041E                     	;# 
  1870  041F                     	;# 
  1871  048C                     	;# 
  1872  048C                     	;# 
  1873  048D                     	;# 
  1874  048E                     	;# 
  1875  048F                     	;# 
  1876  048F                     	;# 
  1877  0490                     	;# 
  1878  0491                     	;# 
  1879  0492                     	;# 
  1880  0492                     	;# 
  1881  0493                     	;# 
  1882  0494                     	;# 
  1883  0495                     	;# 
  1884  0495                     	;# 
  1885  0496                     	;# 
  1886  0497                     	;# 
  1887  0498                     	;# 
  1888  0499                     	;# 
  1889  049A                     	;# 
  1890  049B                     	;# 
  1891  049C                     	;# 
  1892  049D                     	;# 
  1893  050C                     	;# 
  1894  050C                     	;# 
  1895  050D                     	;# 
  1896  050E                     	;# 
  1897  050F                     	;# 
  1898  050F                     	;# 
  1899  0510                     	;# 
  1900  0511                     	;# 
  1901  0512                     	;# 
  1902  0512                     	;# 
  1903  0513                     	;# 
  1904  0514                     	;# 
  1905  0515                     	;# 
  1906  0515                     	;# 
  1907  0516                     	;# 
  1908  0517                     	;# 
  1909  0518                     	;# 
  1910  0519                     	;# 
  1911  051A                     	;# 
  1912  051B                     	;# 
  1913  051C                     	;# 
  1914  051D                     	;# 
  1915  058C                     	;# 
  1916  058C                     	;# 
  1917  058D                     	;# 
  1918  058E                     	;# 
  1919  058F                     	;# 
  1920  058F                     	;# 
  1921  0590                     	;# 
  1922  0591                     	;# 
  1923  0592                     	;# 
  1924  0593                     	;# 
  1925  060C                     	;# 
  1926  060D                     	;# 
  1927  060E                     	;# 
  1928  060F                     	;# 
  1929  0610                     	;# 
  1930  0611                     	;# 
  1931  0612                     	;# 
  1932  0613                     	;# 
  1933  0614                     	;# 
  1934  0616                     	;# 
  1935  0617                     	;# 
  1936  0618                     	;# 
  1937  0619                     	;# 
  1938  061A                     	;# 
  1939  061B                     	;# 
  1940  061C                     	;# 
  1941  061D                     	;# 
  1942  061E                     	;# 
  1943  068C                     	;# 
  1944  068D                     	;# 
  1945  068E                     	;# 
  1946  068F                     	;# 
  1947  0690                     	;# 
  1948  0691                     	;# 
  1949  0692                     	;# 
  1950  0693                     	;# 
  1951  0694                     	;# 
  1952  070C                     	;# 
  1953  070D                     	;# 
  1954  070E                     	;# 
  1955  070F                     	;# 
  1956  0710                     	;# 
  1957  0711                     	;# 
  1958  0712                     	;# 
  1959  0713                     	;# 
  1960  0714                     	;# 
  1961  0716                     	;# 
  1962  0717                     	;# 
  1963  0718                     	;# 
  1964  0719                     	;# 
  1965  071A                     	;# 
  1966  071B                     	;# 
  1967  071C                     	;# 
  1968  071D                     	;# 
  1969  071E                     	;# 
  1970  0796                     	;# 
  1971  0797                     	;# 
  1972  0798                     	;# 
  1973  0799                     	;# 
  1974  079A                     	;# 
  1975  079B                     	;# 
  1976  080C                     	;# 
  1977  080D                     	;# 
  1978  080E                     	;# 
  1979  080F                     	;# 
  1980  0810                     	;# 
  1981  0811                     	;# 
  1982  0812                     	;# 
  1983  0813                     	;# 
  1984  0814                     	;# 
  1985  081A                     	;# 
  1986  081B                     	;# 
  1987  081C                     	;# 
  1988  081D                     	;# 
  1989  081E                     	;# 
  1990  081F                     	;# 
  1991  088C                     	;# 
  1992  088D                     	;# 
  1993  088E                     	;# 
  1994  088F                     	;# 
  1995  0890                     	;# 
  1996  0891                     	;# 
  1997  0892                     	;# 
  1998  0893                     	;# 
  1999  0895                     	;# 
  2000  0896                     	;# 
  2001  0897                     	;# 
  2002  0898                     	;# 
  2003  0899                     	;# 
  2004  089A                     	;# 
  2005  089B                     	;# 
  2006  090C                     	;# 
  2007  090E                     	;# 
  2008  090F                     	;# 
  2009  091F                     	;# 
  2010  091F                     	;# 
  2011  098F                     	;# 
  2012  098F                     	;# 
  2013  0990                     	;# 
  2014  0991                     	;# 
  2015  0992                     	;# 
  2016  0993                     	;# 
  2017  0994                     	;# 
  2018  0995                     	;# 
  2019  0996                     	;# 
  2020  0997                     	;# 
  2021  0E0F                     	;# 
  2022  0E10                     	;# 
  2023  0E11                     	;# 
  2024  0E12                     	;# 
  2025  0E13                     	;# 
  2026  0E14                     	;# 
  2027  0E15                     	;# 
  2028  0E16                     	;# 
  2029  0E17                     	;# 
  2030  0E18                     	;# 
  2031  0E19                     	;# 
  2032  0E1A                     	;# 
  2033  0E1B                     	;# 
  2034  0E1C                     	;# 
  2035  0E1D                     	;# 
  2036  0E1E                     	;# 
  2037  0E1F                     	;# 
  2038  0E20                     	;# 
  2039  0E21                     	;# 
  2040  0E22                     	;# 
  2041  0E23                     	;# 
  2042  0E24                     	;# 
  2043  0E25                     	;# 
  2044  0E26                     	;# 
  2045  0E27                     	;# 
  2046  0E28                     	;# 
  2047  0E29                     	;# 
  2048  0E2A                     	;# 
  2049  0E2B                     	;# 
  2050  0E2C                     	;# 
  2051  0E2D                     	;# 
  2052  0E2E                     	;# 
  2053  0E2F                     	;# 
  2054  0E30                     	;# 
  2055  0E31                     	;# 
  2056  0E32                     	;# 
  2057  0E33                     	;# 
  2058  0E34                     	;# 
  2059  0E35                     	;# 
  2060  0E36                     	;# 
  2061  0E37                     	;# 
  2062  0E8F                     	;# 
  2063  0E90                     	;# 
  2064  0E91                     	;# 
  2065  0E92                     	;# 
  2066  0E93                     	;# 
  2067  0E94                     	;# 
  2068  0E95                     	;# 
  2069  0E96                     	;# 
  2070  0E97                     	;# 
  2071  0E9C                     	;# 
  2072  0E9D                     	;# 
  2073  0E9E                     	;# 
  2074  0EA1                     	;# 
  2075  0EA2                     	;# 
  2076  0EA3                     	;# 
  2077  0EA4                     	;# 
  2078  0EA5                     	;# 
  2079  0EA9                     	;# 
  2080  0EAA                     	;# 
  2081  0EAB                     	;# 
  2082  0EAC                     	;# 
  2083  0EB1                     	;# 
  2084  0EB2                     	;# 
  2085  0EB3                     	;# 
  2086  0EB8                     	;# 
  2087  0EB9                     	;# 
  2088  0EBA                     	;# 
  2089  0EBB                     	;# 
  2090  0EBC                     	;# 
  2091  0EBD                     	;# 
  2092  0EBE                     	;# 
  2093  0EC3                     	;# 
  2094  0EC5                     	;# 
  2095  0EC6                     	;# 
  2096  0EC7                     	;# 
  2097  0EC8                     	;# 
  2098  0EC9                     	;# 
  2099  0ECA                     	;# 
  2100  0ECB                     	;# 
  2101  0ECC                     	;# 
  2102  0F10                     	;# 
  2103  0F11                     	;# 
  2104  0F12                     	;# 
  2105  0F13                     	;# 
  2106  0F14                     	;# 
  2107  0F15                     	;# 
  2108  0F16                     	;# 
  2109  0F17                     	;# 
  2110  0F18                     	;# 
  2111  0F19                     	;# 
  2112  0F1A                     	;# 
  2113  0F1B                     	;# 
  2114  0F1C                     	;# 
  2115  0F1D                     	;# 
  2116  0F1E                     	;# 
  2117  0F1F                     	;# 
  2118  0F20                     	;# 
  2119  0F21                     	;# 
  2120  0F22                     	;# 
  2121  0F23                     	;# 
  2122  0F24                     	;# 
  2123  0F25                     	;# 
  2124  0F26                     	;# 
  2125  0F27                     	;# 
  2126  0F38                     	;# 
  2127  0F39                     	;# 
  2128  0F3A                     	;# 
  2129  0F3B                     	;# 
  2130  0F3C                     	;# 
  2131  0F3D                     	;# 
  2132  0F3E                     	;# 
  2133  0F3F                     	;# 
  2134  0F40                     	;# 
  2135  0F41                     	;# 
  2136  0F43                     	;# 
  2137  0F44                     	;# 
  2138  0F45                     	;# 
  2139  0F46                     	;# 
  2140  0F47                     	;# 
  2141  0F48                     	;# 
  2142  0F49                     	;# 
  2143  0F4A                     	;# 
  2144  0F4B                     	;# 
  2145  0F4C                     	;# 
  2146  0F4E                     	;# 
  2147  0F4F                     	;# 
  2148  0F50                     	;# 
  2149  0F51                     	;# 
  2150  0F52                     	;# 
  2151  0F53                     	;# 
  2152  0F54                     	;# 
  2153  0F55                     	;# 
  2154  0F56                     	;# 
  2155  0F57                     	;# 
  2156  0F65                     	;# 
  2157  0F68                     	;# 
  2158  0F69                     	;# 
  2159  0F6A                     	;# 
  2160  0F6B                     	;# 
  2161  0FE4                     	;# 
  2162  0FE5                     	;# 
  2163  0FE6                     	;# 
  2164  0FE7                     	;# 
  2165  0FE8                     	;# 
  2166  0FE9                     	;# 
  2167  0FEA                     	;# 
  2168  0FEB                     	;# 
  2169  0FED                     	;# 
  2170  0FEE                     	;# 
  2171  0FEF                     	;# 
  2172                           
  2173                           	psect	stringtext1
  2174  1800                     __pstringtext1:
  2175  1800                     _mv:
  2176  1800  340D               	retlw	13
  2177  1801  3468               	retlw	104
  2178  1802  3453               	retlw	83
  2179  1803  343B               	retlw	59
  2180  1804                     __end_of_mv:
  2181  0013                     _TRISC	set	19
  2182  0012                     _TRISB	set	18
  2183  000D                     _PORTB	set	13
  2184  0017                     _LATB	set	23
  2185  0011                     _TRISA	set	17
  2186  000C                     _PORTA	set	12
  2187  0016                     _LATA	set	22
  2188  008C                     _ADRESL	set	140
  2189  008D                     _ADRESH	set	141
  2190  009B                     _ADCAP	set	155
  2191  009E                     _ADPCH	set	158
  2192  009A                     _ADREF	set	154
  2193  0098                     _ADCLK	set	152
  2194  0095                     _ADCON2	set	149
  2195  0094                     _ADCON1	set	148
  2196  0093                     _ADCON0	set	147
  2197  0119                     _RCREG	set	281
  2198  011A                     _TXREG	set	282
  2199  011C                     _SP1BRGH	set	284
  2200  011B                     _SP1BRGL	set	283
  2201  011E                     _TX1STA	set	286
  2202  011D                     _RC1STA	set	285
  2203  011F                     _BAUD1CONbits	set	287
  2204  070F                     _PIR3	set	1807
  2205  0ECB                     _RXPPS	set	3787
  2206  0F20                     _RC0PPS	set	3872
  2207  0F4E                     _ANSELC	set	3918
  2208  0F43                     _ANSELB	set	3907
  2209  0F38                     _ANSELA	set	3896
  2210  1804                     STR_2:
  2211  1804  3461               	retlw	97	;'a'
  2212  1805  3464               	retlw	100	;'d'
  2213  1806  3463               	retlw	99	;'c'
  2214  1807  3420               	retlw	32	;' '
  2215  1808  343D               	retlw	61	;'='
  2216  1809  3420               	retlw	32	;' '
  2217  180A  3425               	retlw	37	;'%'
  2218  180B  3469               	retlw	105	;'i'
  2219  180C  342C               	retlw	44	;','
  2220  180D  3420               	retlw	32	;' '
  2221  180E  3476               	retlw	118	;'v'
  2222  180F  346F               	retlw	111	;'o'
  2223  1810  346C               	retlw	108	;'l'
  2224  1811  3474               	retlw	116	;'t'
  2225  1812  3420               	retlw	32	;' '
  2226  1813  3425               	retlw	37	;'%'
  2227  1814  3466               	retlw	102	;'f'
  2228  1815  342C               	retlw	44	;','
  2229  1816  3420               	retlw	32	;' '
  2230  1817  3474               	retlw	116	;'t'
  2231  1818  3465               	retlw	101	;'e'
  2232  1819  346D               	retlw	109	;'m'
  2233  181A  3470               	retlw	112	;'p'
  2234  181B  343D               	retlw	61	;'='
  2235  181C  3425               	retlw	37	;'%'
  2236  181D  3466               	retlw	102	;'f'
  2237  181E  340A               	retlw	10
  2238  181F  3400               	retlw	0
  2239                           
  2240                           	psect	stringtext2
  2241  1820                     __pstringtext2:
  2242  1820                     STR_1:
  2243  1820  3468               	retlw	104	;'h'
  2244  1821  346F               	retlw	111	;'o'
  2245  1822  346C               	retlw	108	;'l'
  2246  1823  3461               	retlw	97	;'a'
  2247  1824  3420               	retlw	32	;' '
  2248  1825  346D               	retlw	109	;'m'
  2249  1826  3475               	retlw	117	;'u'
  2250  1827  346E               	retlw	110	;'n'
  2251  1828  3464               	retlw	100	;'d'
  2252  1829  346F               	retlw	111	;'o'
  2253  182A  3420               	retlw	32	;' '
  2254  182B  3425               	retlw	37	;'%'
  2255  182C  3469               	retlw	105	;'i'
  2256  182D  340A               	retlw	10
  2257  182E  3400               	retlw	0
  2258                           
  2259                           	psect	stringtext3
  2260  182F                     __pstringtext3:
  2261  182F                     STR_3:
  2262  182F  3441               	retlw	65	;'A'
  2263  1830  344E               	retlw	78	;'N'
  2264  1831  3442               	retlw	66	;'B'
  2265  1832  3430               	retlw	48	;'0'
  2266  1833  3420               	retlw	32	;' '
  2267  1834  343D               	retlw	61	;'='
  2268  1835  3420               	retlw	32	;' '
  2269  1836  3425               	retlw	37	;'%'
  2270  1837  3469               	retlw	105	;'i'
  2271  1838  3420               	retlw	32	;' '
  2272  1839  340A               	retlw	10
  2273  183A  340A               	retlw	10
  2274  183B  3400               	retlw	0
  2275                           
  2276                           	psect	stringtext4
  2277  183C                     __pstringtext4:
  2278  183C                     STR_4:
  2279  183C  3449               	retlw	73	;'I'
  2280  183D  344E               	retlw	78	;'N'
  2281  183E  3446               	retlw	70	;'F'
  2282  183F  3400               	retlw	0
  2283                           
  2284                           	psect	stringtext5
  2285  1840                     __pstringtext5:
  2286  1840                     STR_8:
  2287  1840  344E               	retlw	78	;'N'
  2288  1841  3441               	retlw	65	;'A'
  2289  1842  344E               	retlw	78	;'N'
  2290  1843  3400               	retlw	0
  2291                           
  2292                           	psect	stringtext6
  2293  1844                     __pstringtext6:
  2294  1844                     STR_5:
  2295  1844  3469               	retlw	105	;'i'
  2296  1845  346E               	retlw	110	;'n'
  2297  1846  3466               	retlw	102	;'f'
  2298  1847  3400               	retlw	0
  2299                           
  2300                           	psect	stringtext7
  2301  1848                     __pstringtext7:
  2302  1848                     STR_9:
  2303  1848  346E               	retlw	110	;'n'
  2304  1849  3461               	retlw	97	;'a'
  2305  184A  346E               	retlw	110	;'n'
  2306  184B  3400               	retlw	0
  2307                           
  2308                           	psect	stringtext8
  2309  184C                     __pstringtext8:
  2310  184C                     STR_12:
  2311  184C  346C               	retlw	108	;'l'
  2312  184D  3466               	retlw	102	;'f'
  2313  184E  3400               	retlw	0
  2314                           
  2315                           	psect	stringtext9
  2316  0000                     __pstringtext9:
  2317  184C                     
  2318                           	psect	cinit
  2319  07ED                     start_initialization:	
  2320                           ; #config settings
  2321                           
  2322  07ED                     __initialization:
  2323                           
  2324                           ; Clear objects allocated to BANK2
  2325  07ED  3046               	movlw	low __pbssBANK2
  2326  07EE  0084               	movwf	4
  2327  07EF  3001               	movlw	high __pbssBANK2
  2328  07F0  0085               	movwf	5
  2329  07F1  3018               	movlw	24
  2330  07F2  3190  2002  3187   	fcall	clear_ram0
  2331                           
  2332                           ; Clear objects allocated to BANK3
  2333  07F5  30A0               	movlw	low __pbssBANK3
  2334  07F6  0084               	movwf	4
  2335  07F7  3001               	movlw	high __pbssBANK3
  2336  07F8  0085               	movwf	5
  2337  07F9  3050               	movlw	80
  2338  07FA  3190  2002  3187   	fcall	clear_ram0
  2339  07FD                     end_of_initialization:	
  2340                           ;End of C runtime variable initialization code
  2341                           
  2342  07FD                     __end_of__initialization:
  2343  07FD  0020               	movlb	0
  2344  07FE  3188  2812         	ljmp	_main	;jump to C main() function
  2345                           
  2346                           	psect	bssBANK2
  2347  0146                     __pbssBANK2:
  2348  0146                     floorf@F527:
  2349  0146                     	ds	4
  2350  014A                     ___fpclassifyf@F465:
  2351  014A                     	ds	4
  2352  014E                     _temperatura:
  2353  014E                     	ds	4
  2354  0152                     _volt:
  2355  0152                     	ds	4
  2356  0156                     _nout:
  2357  0156                     	ds	2
  2358  0158                     _width:
  2359  0158                     	ds	2
  2360  015A                     _prec:
  2361  015A                     	ds	2
  2362  015C                     _flags:
  2363  015C                     	ds	2
  2364                           
  2365                           	psect	bssBANK3
  2366  01A0                     __pbssBANK3:
  2367  01A0                     _dbuf:
  2368  01A0                     	ds	80
  2369                           
  2370                           	psect	clrtext
  2371  1002                     clear_ram0:	
  2372                           ;	Called with FSR0 containing the base address, and
  2373                           ;	WREG with the size to clear
  2374                           
  2375  1002  0064               	clrwdt	;clear the watchdog before getting into this loop
  2376  1003                     clrloop0:
  2377  1003  0180               	clrf	0	;clear RAM location pointed to by FSR
  2378  1004  3101               	addfsr 0,1
  2379  1005  0B89               	decfsz	9,f	;Have we reached the end of clearing yet?
  2380  1006  2803               	goto	clrloop0	;have we reached the end yet?
  2381  1007  3400               	retlw	0	;all done for this memory range, return
  2382                           
  2383                           	psect	cstackBANK2
  2384  0120                     __pcstackBANK2:
  2385  0120                     ??_main:
  2386                           
  2387                           ; 1 bytes @ 0x0
  2388  0120                     	ds	2
  2389  0122                     main@buffer:
  2390                           
  2391                           ; 32 bytes @ 0x2
  2392  0122                     	ds	32
  2393  0142                     main@rx:
  2394                           
  2395                           ; 1 bytes @ 0x22
  2396  0142                     	ds	1
  2397  0143                     main@contador:
  2398                           
  2399                           ; 1 bytes @ 0x23
  2400  0143                     	ds	1
  2401  0144                     main@adc:
  2402                           
  2403                           ; 2 bytes @ 0x24
  2404  0144                     	ds	2
  2405                           
  2406                           	psect	cstackBANK1
  2407  00A0                     __pcstackBANK1:
  2408  00A0                     _efgtoa$725:
  2409                           
  2410                           ; 2 bytes @ 0x0
  2411  00A0                     	ds	2
  2412  00A2                     _efgtoa$726:
  2413                           
  2414                           ; 2 bytes @ 0x2
  2415  00A2                     	ds	2
  2416  00A4                     _efgtoa$730:
  2417                           
  2418                           ; 2 bytes @ 0x4
  2419  00A4                     	ds	2
  2420  00A6                     _efgtoa$734:
  2421                           
  2422                           ; 2 bytes @ 0x6
  2423  00A6                     	ds	2
  2424  00A8                     _efgtoa$735:
  2425                           
  2426                           ; 2 bytes @ 0x8
  2427  00A8                     	ds	2
  2428  00AA                     _efgtoa$736:
  2429                           
  2430                           ; 2 bytes @ 0xA
  2431  00AA                     	ds	2
  2432  00AC                     efgtoa@t:
  2433                           
  2434                           ; 2 bytes @ 0xC
  2435  00AC                     	ds	2
  2436  00AE                     efgtoa@pp:
  2437                           
  2438                           ; 2 bytes @ 0xE
  2439  00AE                     	ds	2
  2440  00B0                     efgtoa@ne:
  2441                           
  2442                           ; 2 bytes @ 0x10
  2443  00B0                     	ds	2
  2444  00B2                     efgtoa@m:
  2445                           
  2446                           ; 2 bytes @ 0x12
  2447  00B2                     	ds	2
  2448  00B4                     efgtoa@ou:
  2449                           
  2450                           ; 4 bytes @ 0x14
  2451  00B4                     	ds	4
  2452  00B8                     efgtoa@d:
  2453                           
  2454                           ; 2 bytes @ 0x18
  2455  00B8                     	ds	2
  2456  00BA                     efgtoa@sign:
  2457                           
  2458                           ; 2 bytes @ 0x1A
  2459  00BA                     	ds	2
  2460  00BC                     efgtoa@fp:
  2461                           
  2462                           ; 1 bytes @ 0x1C
  2463  00BC                     	ds	1
  2464  00BD                     efgtoa@p:
  2465                           
  2466                           ; 2 bytes @ 0x1D
  2467  00BD                     	ds	2
  2468  00BF                     efgtoa@w:
  2469                           
  2470                           ; 2 bytes @ 0x1F
  2471  00BF                     	ds	2
  2472  00C1                     efgtoa@nmode:
  2473                           
  2474                           ; 1 bytes @ 0x21
  2475  00C1                     	ds	1
  2476  00C2                     efgtoa@mode:
  2477                           
  2478                           ; 1 bytes @ 0x22
  2479  00C2                     	ds	1
  2480  00C3                     efgtoa@h:
  2481                           
  2482                           ; 4 bytes @ 0x23
  2483  00C3                     	ds	4
  2484  00C7                     efgtoa@l:
  2485                           
  2486                           ; 4 bytes @ 0x27
  2487  00C7                     	ds	4
  2488  00CB                     efgtoa@i:
  2489                           
  2490                           ; 2 bytes @ 0x2B
  2491  00CB                     	ds	2
  2492  00CD                     efgtoa@g:
  2493                           
  2494                           ; 4 bytes @ 0x2D
  2495  00CD                     	ds	4
  2496  00D1                     efgtoa@e:
  2497                           
  2498                           ; 2 bytes @ 0x31
  2499  00D1                     	ds	2
  2500  00D3                     efgtoa@n:
  2501                           
  2502                           ; 2 bytes @ 0x33
  2503  00D3                     	ds	2
  2504  00D5                     efgtoa@u:
  2505                           
  2506                           ; 4 bytes @ 0x35
  2507  00D5                     	ds	4
  2508  00D9                     vfprintf@fp:
  2509                           
  2510                           ; 1 bytes @ 0x39
  2511  00D9                     	ds	1
  2512  00DA                     vfprintf@cfmt:
  2513                           
  2514                           ; 2 bytes @ 0x3A
  2515  00DA                     	ds	2
  2516  00DC                     ??_printf:
  2517  00DC                     ?_sprintf:	
  2518                           ; 1 bytes @ 0x3C
  2519                           
  2520  00DC                     sprintf@fmt:	
  2521                           ; 2 bytes @ 0x3C
  2522                           
  2523                           
  2524                           ; 2 bytes @ 0x3C
  2525  00DC                     	ds	1
  2526  00DD                     printf@fmt:
  2527                           
  2528                           ; 1 bytes @ 0x3D
  2529  00DD                     	ds	1
  2530  00DE                     printf@ap:
  2531                           
  2532                           ; 1 bytes @ 0x3E
  2533  00DE                     	ds	10
  2534  00E8                     ??_sprintf:
  2535                           
  2536                           ; 1 bytes @ 0x48
  2537  00E8                     	ds	1
  2538  00E9                     sprintf@s:
  2539                           
  2540                           ; 1 bytes @ 0x49
  2541  00E9                     	ds	1
  2542  00EA                     sprintf@ap:
  2543                           
  2544                           ; 1 bytes @ 0x4A
  2545  00EA                     	ds	1
  2546  00EB                     sprintf@f:
  2547                           
  2548                           ; 5 bytes @ 0x4B
  2549  00EB                     	ds	5
  2550                           
  2551                           	psect	cstackCOMMON
  2552  0070                     __pcstackCOMMON:
  2553  0070                     ?___fleq:
  2554  0070                     ?_port_init:	
  2555                           ; 1 bit 
  2556                           
  2557  0070                     ??_port_init:	
  2558                           ; 1 bytes @ 0x0
  2559                           
  2560  0070                     ?_adc_init:	
  2561                           ; 1 bytes @ 0x0
  2562                           
  2563  0070                     ??_adc_init:	
  2564                           ; 1 bytes @ 0x0
  2565                           
  2566  0070                     ?_uart_rx:	
  2567                           ; 1 bytes @ 0x0
  2568                           
  2569  0070                     ??_uart_rx:	
  2570                           ; 1 bytes @ 0x0
  2571                           
  2572  0070                     ?_strcpy:	
  2573                           ; 1 bytes @ 0x0
  2574                           
  2575  0070                     ?_main:	
  2576                           ; 1 bytes @ 0x0
  2577                           
  2578  0070                     ?_uart_tx:	
  2579                           ; 1 bytes @ 0x0
  2580                           
  2581  0070                     ??_uart_tx:	
  2582                           ; 1 bytes @ 0x0
  2583                           
  2584  0070                     ?_putch:	
  2585                           ; 1 bytes @ 0x0
  2586                           
  2587  0070                     ??___aodiv:	
  2588                           ; 1 bytes @ 0x0
  2589                           
  2590  0070                     ??___aomod:	
  2591                           ; 1 bytes @ 0x0
  2592                           
  2593  0070                     ?_printf:	
  2594                           ; 1 bytes @ 0x0
  2595                           
  2596  0070                     ?_adc_read:	
  2597                           ; 2 bytes @ 0x0
  2598                           
  2599  0070                     ?__Umul8_16:	
  2600                           ; 2 bytes @ 0x0
  2601                           
  2602  0070                     ?_strlen:	
  2603                           ; 2 bytes @ 0x0
  2604                           
  2605  0070                     ?___fpclassifyf:	
  2606                           ; 2 bytes @ 0x0
  2607                           
  2608  0070                     ?_isupper:	
  2609                           ; 2 bytes @ 0x0
  2610                           
  2611  0070                     ?_strncmp:	
  2612                           ; 2 bytes @ 0x0
  2613                           
  2614  0070                     ?___awdiv:	
  2615                           ; 2 bytes @ 0x0
  2616                           
  2617  0070                     ?___awmod:	
  2618                           ; 2 bytes @ 0x0
  2619                           
  2620  0070                     ?___lldiv:	
  2621                           ; 2 bytes @ 0x0
  2622                           
  2623  0070                     ?___flneg:	
  2624                           ; 4 bytes @ 0x0
  2625                           
  2626  0070                     ?___fltol:	
  2627                           ; 4 bytes @ 0x0
  2628                           
  2629  0070                     ?___fladd:	
  2630                           ; 4 bytes @ 0x0
  2631                           
  2632  0070                     ?___fldiv:	
  2633                           ; 4 bytes @ 0x0
  2634                           
  2635  0070                     ?___xxtofl:	
  2636                           ; 4 bytes @ 0x0
  2637                           
  2638  0070                     __Umul8_16@multiplicand:	
  2639                           ; 4 bytes @ 0x0
  2640                           
  2641  0070                     ___awdiv@divisor:	
  2642                           ; 1 bytes @ 0x0
  2643                           
  2644  0070                     ___awmod@divisor:	
  2645                           ; 2 bytes @ 0x0
  2646                           
  2647  0070                     isupper@c:	
  2648                           ; 2 bytes @ 0x0
  2649                           
  2650  0070                     strcpy@src:	
  2651                           ; 2 bytes @ 0x0
  2652                           
  2653  0070                     strncmp@_r:	
  2654                           ; 2 bytes @ 0x0
  2655                           
  2656  0070                     ___lldiv@divisor:	
  2657                           ; 2 bytes @ 0x0
  2658                           
  2659  0070                     ___fleq@ff1:	
  2660                           ; 4 bytes @ 0x0
  2661                           
  2662  0070                     ___flneg@f1:	
  2663                           ; 4 bytes @ 0x0
  2664                           
  2665  0070                     ___fltol@f1:	
  2666                           ; 4 bytes @ 0x0
  2667                           
  2668  0070                     ___fladd@b:	
  2669                           ; 4 bytes @ 0x0
  2670                           
  2671  0070                     ___fldiv@a:	
  2672                           ; 4 bytes @ 0x0
  2673                           
  2674  0070                     ___xxtofl@val:	
  2675                           ; 4 bytes @ 0x0
  2676                           
  2677  0070                     ___fpclassifyf@x:	
  2678                           ; 4 bytes @ 0x0
  2679                           
  2680                           
  2681                           ; 4 bytes @ 0x0
  2682  0070                     	ds	1
  2683  0071                     uart_tx@dato:
  2684  0071                     ___aodiv@counter:	
  2685                           ; 1 bytes @ 0x1
  2686                           
  2687  0071                     ___aomod@counter:	
  2688                           ; 1 bytes @ 0x1
  2689                           
  2690                           
  2691                           ; 1 bytes @ 0x1
  2692  0071                     	ds	1
  2693  0072                     ??_adc_read:
  2694  0072                     ??__Umul8_16:	
  2695                           ; 1 bytes @ 0x2
  2696                           
  2697  0072                     ??_strlen:	
  2698                           ; 1 bytes @ 0x2
  2699                           
  2700  0072                     ??_isupper:	
  2701                           ; 1 bytes @ 0x2
  2702                           
  2703  0072                     ??_strcpy:	
  2704                           ; 1 bytes @ 0x2
  2705                           
  2706  0072                     ??_putch:	
  2707                           ; 1 bytes @ 0x2
  2708                           
  2709  0072                     putch@dato:	
  2710                           ; 1 bytes @ 0x2
  2711                           
  2712  0072                     adc_read@pin:	
  2713                           ; 1 bytes @ 0x2
  2714                           
  2715  0072                     ___aodiv@sign:	
  2716                           ; 1 bytes @ 0x2
  2717                           
  2718  0072                     ___aomod@sign:	
  2719                           ; 1 bytes @ 0x2
  2720                           
  2721  0072                     ___awdiv@dividend:	
  2722                           ; 1 bytes @ 0x2
  2723                           
  2724  0072                     ___awmod@dividend:	
  2725                           ; 2 bytes @ 0x2
  2726                           
  2727  0072                     strncmp@n:	
  2728                           ; 2 bytes @ 0x2
  2729                           
  2730                           
  2731                           ; 2 bytes @ 0x2
  2732  0072                     	ds	1
  2733  0073                     ?_fputc:
  2734  0073                     ?_abs:	
  2735                           ; 2 bytes @ 0x3
  2736                           
  2737  0073                     strlen@a:	
  2738                           ; 2 bytes @ 0x3
  2739                           
  2740  0073                     abs@a:	
  2741                           ; 1 bytes @ 0x3
  2742                           
  2743  0073                     fputc@c:	
  2744                           ; 2 bytes @ 0x3
  2745                           
  2746  0073                     ___aodiv@quotient:	
  2747                           ; 2 bytes @ 0x3
  2748                           
  2749                           
  2750                           ; 8 bytes @ 0x3
  2751  0073                     	ds	1
  2752  0074                     ??___fpclassifyf:
  2753  0074                     ??_strncmp:	
  2754                           ; 1 bytes @ 0x4
  2755                           
  2756  0074                     ??___awdiv:	
  2757                           ; 1 bytes @ 0x4
  2758                           
  2759  0074                     ??___awmod:	
  2760                           ; 1 bytes @ 0x4
  2761                           
  2762  0074                     ??___flneg:	
  2763                           ; 1 bytes @ 0x4
  2764                           
  2765  0074                     ??___fltol:	
  2766                           ; 1 bytes @ 0x4
  2767                           
  2768  0074                     ??___xxtofl:	
  2769                           ; 1 bytes @ 0x4
  2770                           
  2771  0074                     strlen@s:	
  2772                           ; 1 bytes @ 0x4
  2773                           
  2774  0074                     __Umul8_16@product:	
  2775                           ; 1 bytes @ 0x4
  2776                           
  2777  0074                     strcpy@s:	
  2778                           ; 2 bytes @ 0x4
  2779                           
  2780  0074                     ___lldiv@dividend:	
  2781                           ; 2 bytes @ 0x4
  2782                           
  2783  0074                     ___fleq@ff2:	
  2784                           ; 4 bytes @ 0x4
  2785                           
  2786  0074                     ___fladd@a:	
  2787                           ; 4 bytes @ 0x4
  2788                           
  2789  0074                     ___fldiv@b:	
  2790                           ; 4 bytes @ 0x4
  2791                           
  2792                           
  2793                           ; 4 bytes @ 0x4
  2794  0074                     	ds	1
  2795  0075                     ??_abs:
  2796  0075                     ___awdiv@counter:	
  2797                           ; 1 bytes @ 0x5
  2798                           
  2799  0075                     ___awmod@counter:	
  2800                           ; 1 bytes @ 0x5
  2801                           
  2802  0075                     fputc@fp:	
  2803                           ; 1 bytes @ 0x5
  2804                           
  2805  0075                     strncmp@_l:	
  2806                           ; 1 bytes @ 0x5
  2807                           
  2808                           
  2809                           ; 1 bytes @ 0x5
  2810  0075                     	ds	1
  2811  0076                     ??_fputc:
  2812  0076                     ?_tolower:	
  2813                           ; 1 bytes @ 0x6
  2814                           
  2815  0076                     ___awdiv@sign:	
  2816                           ; 2 bytes @ 0x6
  2817                           
  2818  0076                     ___awmod@sign:	
  2819                           ; 1 bytes @ 0x6
  2820                           
  2821  0076                     strcpy@d:	
  2822                           ; 1 bytes @ 0x6
  2823                           
  2824  0076                     __Umul8_16@word_mpld:	
  2825                           ; 1 bytes @ 0x6
  2826                           
  2827  0076                     strncmp@r:	
  2828                           ; 2 bytes @ 0x6
  2829                           
  2830  0076                     tolower@c:	
  2831                           ; 2 bytes @ 0x6
  2832                           
  2833                           
  2834                           ; 2 bytes @ 0x6
  2835  0076                     	ds	1
  2836  0077                     strcpy@dest:
  2837  0077                     ___awdiv@quotient:	
  2838                           ; 1 bytes @ 0x7
  2839                           
  2840                           
  2841                           ; 2 bytes @ 0x7
  2842  0077                     	ds	1
  2843  0078                     ??_tolower:
  2844  0078                     ??___lldiv:	
  2845                           ; 1 bytes @ 0x8
  2846                           
  2847  0078                     ??___fleq:	
  2848                           ; 1 bytes @ 0x8
  2849                           
  2850  0078                     ??___fldiv:	
  2851                           ; 1 bytes @ 0x8
  2852                           
  2853  0078                     ___fladd@signs:	
  2854                           ; 1 bytes @ 0x8
  2855                           
  2856  0078                     __Umul8_16@multiplier:	
  2857                           ; 1 bytes @ 0x8
  2858                           
  2859  0078                     ___xxtofl@sign:	
  2860                           ; 1 bytes @ 0x8
  2861                           
  2862  0078                     strncmp@l:	
  2863                           ; 1 bytes @ 0x8
  2864                           
  2865                           
  2866                           ; 1 bytes @ 0x8
  2867  0078                     	ds	1
  2868  0079                     ___fltol@sign1:
  2869  0079                     ___fladd@aexp:	
  2870                           ; 1 bytes @ 0x9
  2871                           
  2872  0079                     ___xxtofl@exp:	
  2873                           ; 1 bytes @ 0x9
  2874                           
  2875  0079                     ___lldiv@quotient:	
  2876                           ; 1 bytes @ 0x9
  2877                           
  2878                           
  2879                           ; 4 bytes @ 0x9
  2880  0079                     	ds	1
  2881  007A                     ___fltol@exp1:
  2882  007A                     ___fladd@bexp:	
  2883                           ; 1 bytes @ 0xA
  2884                           
  2885  007A                     ___xxtofl@arg:	
  2886                           ; 1 bytes @ 0xA
  2887                           
  2888                           
  2889                           ; 4 bytes @ 0xA
  2890  007A                     	ds	1
  2891  007B                     ?_fputs:
  2892  007B                     ___fladd@grs:	
  2893                           ; 2 bytes @ 0xB
  2894                           
  2895  007B                     fputs@fp:	
  2896                           ; 1 bytes @ 0xB
  2897                           
  2898                           
  2899                           ; 1 bytes @ 0xB
  2900  007B                     	ds	1
  2901  007C                     ??_pad:
  2902  007C                     _tolower$859:	
  2903                           ; 1 bytes @ 0xC
  2904                           
  2905                           
  2906                           ; 2 bytes @ 0xC
  2907  007C                     	ds	1
  2908  007D                     ___lldiv@counter:
  2909                           
  2910                           ; 1 bytes @ 0xD
  2911  007D                     	ds	1
  2912  007E                     ??___flsub:
  2913                           
  2914                           	psect	cstackBANK0
  2915  0020                     __pcstackBANK0:	
  2916                           ; 1 bytes @ 0xE
  2917                           
  2918  0020                     ?_serial_init:
  2919  0020                     ??_fputs:	
  2920                           ; 1 bytes @ 0x0
  2921                           
  2922  0020                     ??___fladd:	
  2923                           ; 1 bytes @ 0x0
  2924                           
  2925  0020                     ?___flmul:	
  2926                           ; 1 bytes @ 0x0
  2927                           
  2928  0020                     ?___aodiv:	
  2929                           ; 4 bytes @ 0x0
  2930                           
  2931  0020                     ?___aomod:	
  2932                           ; 8 bytes @ 0x0
  2933                           
  2934  0020                     ___fpclassifyf@e:	
  2935                           ; 8 bytes @ 0x0
  2936                           
  2937  0020                     serial_init@baudios:	
  2938                           ; 2 bytes @ 0x0
  2939                           
  2940  0020                     ___fldiv@rem:	
  2941                           ; 4 bytes @ 0x0
  2942                           
  2943  0020                     ___flmul@b:	
  2944                           ; 4 bytes @ 0x0
  2945                           
  2946  0020                     ___aodiv@divisor:	
  2947                           ; 4 bytes @ 0x0
  2948                           
  2949  0020                     ___aomod@divisor:	
  2950                           ; 8 bytes @ 0x0
  2951                           
  2952                           
  2953                           ; 8 bytes @ 0x0
  2954  0020                     	ds	2
  2955  0022                     ___fpclassifyf@u:
  2956                           
  2957                           ; 4 bytes @ 0x2
  2958  0022                     	ds	1
  2959  0023                     fputs@c:
  2960                           
  2961                           ; 1 bytes @ 0x3
  2962  0023                     	ds	1
  2963  0024                     ??_serial_init:
  2964  0024                     ___fldiv@sign:	
  2965                           ; 1 bytes @ 0x4
  2966                           
  2967  0024                     fputs@i:	
  2968                           ; 1 bytes @ 0x4
  2969                           
  2970  0024                     ___flmul@a:	
  2971                           ; 2 bytes @ 0x4
  2972                           
  2973                           
  2974                           ; 4 bytes @ 0x4
  2975  0024                     	ds	1
  2976  0025                     ___fldiv@new_exp:
  2977                           
  2978                           ; 2 bytes @ 0x5
  2979  0025                     	ds	1
  2980  0026                     fputs@s:
  2981                           
  2982                           ; 1 bytes @ 0x6
  2983  0026                     	ds	1
  2984  0027                     ?_pad:
  2985  0027                     pad@buf:	
  2986                           ; 2 bytes @ 0x7
  2987                           
  2988  0027                     ___fldiv@grs:	
  2989                           ; 1 bytes @ 0x7
  2990                           
  2991                           
  2992                           ; 4 bytes @ 0x7
  2993  0027                     	ds	1
  2994  0028                     ??___flmul:
  2995  0028                     serial_init@sx:	
  2996                           ; 1 bytes @ 0x8
  2997                           
  2998  0028                     pad@p:	
  2999                           ; 2 bytes @ 0x8
  3000                           
  3001  0028                     ___aodiv@dividend:	
  3002                           ; 2 bytes @ 0x8
  3003                           
  3004  0028                     ___aomod@dividend:	
  3005                           ; 8 bytes @ 0x8
  3006                           
  3007                           
  3008                           ; 8 bytes @ 0x8
  3009  0028                     	ds	2
  3010  002A                     pad@i:
  3011                           
  3012                           ; 2 bytes @ 0xA
  3013  002A                     	ds	1
  3014  002B                     ___fldiv@bexp:
  3015                           
  3016                           ; 1 bytes @ 0xB
  3017  002B                     	ds	1
  3018  002C                     ___fldiv@aexp:
  3019  002C                     pad@w:	
  3020                           ; 1 bytes @ 0xC
  3021                           
  3022                           
  3023                           ; 2 bytes @ 0xC
  3024  002C                     	ds	1
  3025  002D                     ?_floorf:
  3026  002D                     ___flmul@sign:	
  3027                           ; 4 bytes @ 0xD
  3028                           
  3029  002D                     floorf@x:	
  3030                           ; 1 bytes @ 0xD
  3031                           
  3032                           
  3033                           ; 4 bytes @ 0xD
  3034  002D                     	ds	1
  3035  002E                     pad@fp:
  3036  002E                     ___flmul@grs:	
  3037                           ; 1 bytes @ 0xE
  3038                           
  3039                           
  3040                           ; 4 bytes @ 0xE
  3041  002E                     	ds	2
  3042  0030                     ?_dtoa:
  3043  0030                     dtoa@d:	
  3044                           ; 2 bytes @ 0x10
  3045                           
  3046                           
  3047                           ; 8 bytes @ 0x10
  3048  0030                     	ds	1
  3049  0031                     ??_floorf:
  3050                           
  3051                           ; 1 bytes @ 0x11
  3052  0031                     	ds	1
  3053  0032                     ___flmul@aexp:
  3054                           
  3055                           ; 1 bytes @ 0x12
  3056  0032                     	ds	1
  3057  0033                     ___flmul@bexp:
  3058                           
  3059                           ; 1 bytes @ 0x13
  3060  0033                     	ds	1
  3061  0034                     ___flmul@prod:
  3062                           
  3063                           ; 4 bytes @ 0x14
  3064  0034                     	ds	3
  3065  0037                     floorf@m:
  3066                           
  3067                           ; 4 bytes @ 0x17
  3068  0037                     	ds	1
  3069  0038                     ??_dtoa:
  3070  0038                     ___flmul@temp:	
  3071                           ; 1 bytes @ 0x18
  3072                           
  3073                           
  3074                           ; 2 bytes @ 0x18
  3075  0038                     	ds	2
  3076  003A                     ?___flge:
  3077  003A                     ?___flsub:	
  3078                           ; 1 bit 
  3079                           
  3080  003A                     ___flge@ff1:	
  3081                           ; 4 bytes @ 0x1A
  3082                           
  3083  003A                     ___flsub@a:	
  3084                           ; 4 bytes @ 0x1A
  3085                           
  3086                           
  3087                           ; 4 bytes @ 0x1A
  3088  003A                     	ds	1
  3089  003B                     _dtoa$701:
  3090  003B                     floorf@e:	
  3091                           ; 2 bytes @ 0x1B
  3092                           
  3093                           
  3094                           ; 2 bytes @ 0x1B
  3095  003B                     	ds	2
  3096  003D                     dtoa@fp:
  3097  003D                     floorf@u:	
  3098                           ; 1 bytes @ 0x1D
  3099                           
  3100                           
  3101                           ; 4 bytes @ 0x1D
  3102  003D                     	ds	1
  3103  003E                     dtoa@p:
  3104  003E                     ___flge@ff2:	
  3105                           ; 2 bytes @ 0x1E
  3106                           
  3107  003E                     ___flsub@b:	
  3108                           ; 4 bytes @ 0x1E
  3109                           
  3110                           
  3111                           ; 4 bytes @ 0x1E
  3112  003E                     	ds	2
  3113  0040                     dtoa@w:
  3114                           
  3115                           ; 2 bytes @ 0x20
  3116  0040                     	ds	2
  3117  0042                     ??___flge:
  3118  0042                     dtoa@s:	
  3119                           ; 1 bytes @ 0x22
  3120                           
  3121                           
  3122                           ; 2 bytes @ 0x22
  3123  0042                     	ds	2
  3124  0044                     dtoa@n:
  3125                           
  3126                           ; 8 bytes @ 0x24
  3127  0044                     	ds	2
  3128  0046                     ?_efgtoa:
  3129  0046                     efgtoa@f:	
  3130                           ; 2 bytes @ 0x26
  3131                           
  3132                           
  3133                           ; 4 bytes @ 0x26
  3134  0046                     	ds	4
  3135  004A                     efgtoa@c:
  3136                           
  3137                           ; 1 bytes @ 0x2A
  3138  004A                     	ds	1
  3139  004B                     ??_efgtoa:
  3140                           
  3141                           ; 1 bytes @ 0x2B
  3142  004B                     	ds	1
  3143  004C                     dtoa@i:
  3144                           
  3145                           ; 2 bytes @ 0x2C
  3146  004C                     	ds	3
  3147  004F                     ?_vfpfcnvrt:
  3148  004F                     vfpfcnvrt@fmt:	
  3149                           ; 2 bytes @ 0x2F
  3150                           
  3151                           
  3152                           ; 1 bytes @ 0x2F
  3153  004F                     	ds	1
  3154  0050                     vfpfcnvrt@ap:
  3155                           
  3156                           ; 1 bytes @ 0x30
  3157  0050                     	ds	1
  3158  0051                     ??_vfpfcnvrt:
  3159                           
  3160                           ; 1 bytes @ 0x31
  3161  0051                     	ds	6
  3162  0057                     vfpfcnvrt@ll:
  3163                           
  3164                           ; 8 bytes @ 0x37
  3165  0057                     	ds	8
  3166  005F                     _vfpfcnvrt$754:
  3167                           
  3168                           ; 2 bytes @ 0x3F
  3169  005F                     	ds	2
  3170  0061                     vfpfcnvrt@vp:
  3171                           
  3172                           ; 1 bytes @ 0x41
  3173  0061                     	ds	1
  3174  0062                     vfpfcnvrt@f:
  3175                           
  3176                           ; 4 bytes @ 0x42
  3177  0062                     	ds	4
  3178  0066                     vfpfcnvrt@ct:
  3179                           
  3180                           ; 3 bytes @ 0x46
  3181  0066                     	ds	3
  3182  0069                     vfpfcnvrt@c:
  3183                           
  3184                           ; 1 bytes @ 0x49
  3185  0069                     	ds	1
  3186  006A                     vfpfcnvrt@fp:
  3187                           
  3188                           ; 1 bytes @ 0x4A
  3189  006A                     	ds	1
  3190  006B                     ?_vfprintf:
  3191  006B                     vfprintf@fmt:	
  3192                           ; 2 bytes @ 0x4B
  3193                           
  3194                           
  3195                           ; 2 bytes @ 0x4B
  3196  006B                     	ds	2
  3197  006D                     vfprintf@ap:
  3198                           
  3199                           ; 1 bytes @ 0x4D
  3200  006D                     	ds	1
  3201  006E                     ??_vfprintf:
  3202                           
  3203                           ; 1 bytes @ 0x4E
  3204  006E                     	ds	2
  3205                           
  3206                           	psect	maintext
  3207  0812                     __pmaintext:	
  3208 ;;
  3209 ;;Main: autosize = 0, tempsize = 2, incstack = 0, save=0
  3210 ;;
  3211 ;; *************** function _main *****************
  3212 ;; Defined at:
  3213 ;;		line 17 in file "Main.c"
  3214 ;; Parameters:    Size  Location     Type
  3215 ;;		None
  3216 ;; Auto vars:     Size  Location     Type
  3217 ;;  buffer         32    2[BANK2 ] unsigned char [32]
  3218 ;;  adc             2   36[BANK2 ] unsigned short 
  3219 ;;  contador        1   35[BANK2 ] unsigned char 
  3220 ;;  rx              1   34[BANK2 ] unsigned char 
  3221 ;; Return value:  Size  Location     Type
  3222 ;;                  1    wreg      void 
  3223 ;; Registers used:
  3224 ;;		wreg, fsr0l, fsr0h, fsr1l, fsr1h, status,2, status,0, pclath, cstack
  3225 ;; Tracked objects:
  3226 ;;		On entry : B1F/0
  3227 ;;		On exit  : 0/0
  3228 ;;		Unchanged: 0/0
  3229 ;; Data sizes:     COMMON   BANK0   BANK1   BANK2   BANK3   BANK4   BANK5   BANK6   BANK7   BANK8   BANK9  BANK10  BANK1
      +1  BANK12
  3230 ;;      Params:         0       0       0       0       0       0       0       0       0       0       0       0       
      +0       0
  3231 ;;      Locals:         0       0       0      36       0       0       0       0       0       0       0       0       
      +0       0
  3232 ;;      Temps:          0       0       0       2       0       0       0       0       0       0       0       0       
      +0       0
  3233 ;;      Totals:         0       0       0      38       0       0       0       0       0       0       0       0       
      +0       0
  3234 ;;Total ram usage:       38 bytes
  3235 ;; Hardware stack levels required when called: 9
  3236 ;; This function calls:
  3237 ;;		___fldiv
  3238 ;;		___flmul
  3239 ;;		___xxtofl
  3240 ;;		_adc_init
  3241 ;;		_adc_read
  3242 ;;		_port_init
  3243 ;;		_printf
  3244 ;;		_serial_init
  3245 ;;		_sprintf
  3246 ;;		_uart_rx
  3247 ;; This function is called by:
  3248 ;;		Startup code after reset
  3249 ;; This function uses a non-reentrant model
  3250 ;;
  3251                           
  3252                           
  3253                           ;psect for function _main
  3254  0812                     _main:
  3255  0812                     l4082:	
  3256                           ;incstack = 0
  3257                           ; Regs used in _main: [wreg-fsr1h+status,2+status,0+pclath+cstack]
  3258                           
  3259                           
  3260                           ;Main.c: 18:     uint8_t rx, buffer[32], contador = 0;
  3261  0812  0022               	movlb	2	; select bank2
  3262  0813  01C3               	clrf	main@contador^(0+256)
  3263  0814                     l4084:
  3264                           
  3265                           ;Main.c: 21:     port_init();
  3266  0814  319C  247B  3188   	fcall	_port_init
  3267  0817                     l4086:
  3268                           
  3269                           ;Main.c: 22:     serial_init(9600);
  3270  0817  3000               	movlw	0
  3271  0818  0020               	movlb	0	; select bank0
  3272  0819  00A3               	movwf	serial_init@baudios+3
  3273  081A  3000               	movlw	0
  3274  081B  00A2               	movwf	serial_init@baudios+2
  3275  081C  3025               	movlw	37
  3276  081D  00A1               	movwf	serial_init@baudios+1
  3277  081E  3080               	movlw	128
  3278  081F  00A0               	movwf	serial_init@baudios
  3279  0820  319D  25C6  3188   	fcall	_serial_init
  3280  0823                     l4088:
  3281                           
  3282                           ;Main.c: 23:     adc_init();
  3283  0823  319C  242D  3188   	fcall	_adc_init
  3284  0826                     l4090:
  3285                           
  3286                           ;Main.c: 27:         LATA = LATA | (1<<3);
  3287  0826  0020               	movlb	0	; select bank0
  3288  0827  0816               	movf	22,w	;volatile
  3289  0828  3808               	iorlw	8
  3290  0829  0096               	movwf	22	;volatile
  3291  082A                     l4092:
  3292                           
  3293                           ;Main.c: 28:         _delay((unsigned long)((500)*(32000000UL/4000.0)));
  3294  082A  3015               	movlw	21
  3295  082B  0022               	movlb	2	; select bank2
  3296  082C  00A1               	movwf	(??_main^(0+256)+1)
  3297  082D  304B               	movlw	75
  3298  082E  00A0               	movwf	??_main^(0+256)
  3299  082F  30BE               	movlw	190
  3300  0830                     u6357:
  3301  0830  0B89               	decfsz	9,f
  3302  0831  2830               	goto	u6357
  3303  0832  0BA0               	decfsz	??_main^(0+256),f
  3304  0833  2830               	goto	u6357
  3305  0834  0BA1               	decfsz	(??_main^(0+256)+1),f
  3306  0835  2830               	goto	u6357
  3307  0836  0000               	nop
  3308  0837                     l4094:
  3309                           
  3310                           ;Main.c: 29:         LATA = LATA & ~(1<<3);
  3311  0837  0020               	movlb	0	; select bank0
  3312  0838  0816               	movf	22,w	;volatile
  3313  0839  39F7               	andlw	247
  3314  083A  0096               	movwf	22	;volatile
  3315  083B                     l4096:
  3316                           
  3317                           ;Main.c: 30:         _delay((unsigned long)((500)*(32000000UL/4000.0)));
  3318  083B  3015               	movlw	21
  3319  083C  0022               	movlb	2	; select bank2
  3320  083D  00A1               	movwf	(??_main^(0+256)+1)
  3321  083E  304B               	movlw	75
  3322  083F  00A0               	movwf	??_main^(0+256)
  3323  0840  30BE               	movlw	190
  3324  0841                     u6367:
  3325  0841  0B89               	decfsz	9,f
  3326  0842  2841               	goto	u6367
  3327  0843  0BA0               	decfsz	??_main^(0+256),f
  3328  0844  2841               	goto	u6367
  3329  0845  0BA1               	decfsz	(??_main^(0+256)+1),f
  3330  0846  2841               	goto	u6367
  3331  0847  0000               	nop
  3332  0848                     l4098:
  3333                           
  3334                           ;Main.c: 31:         sprintf(buffer,"hola mundo %i\n",contador++);
  3335  0848  3020               	movlw	low (STR_1| (0+32768))
  3336  0849  0021               	movlb	1	; select bank1
  3337  084A  00DC               	movwf	sprintf@fmt^(0+128)
  3338  084B  3098               	movlw	high (STR_1| (0+32768))
  3339  084C  00DD               	movwf	(sprintf@fmt^(0+128)+1)
  3340  084D  0022               	movlb	2	; select bank2
  3341  084E  0843               	movf	main@contador^(0+256),w
  3342  084F  00A0               	movwf	??_main^(0+256)
  3343  0850  01A1               	clrf	(??_main^(0+256)+1)
  3344  0851  0820               	movf	??_main^(0+256),w
  3345  0852  0021               	movlb	1	; select bank1
  3346  0853  00DE               	movwf	(?_sprintf^(0+128)+2)
  3347  0854  0022               	movlb	2	; select bank2
  3348  0855  0821               	movf	(??_main+1)^(0+256),w
  3349  0856  0021               	movlb	1	; select bank1
  3350  0857  00DF               	movwf	((?_sprintf+1)^(0+128)+2)
  3351  0858  3022               	movlw	(low (main@buffer| (0+256)))& (0+255)
  3352  0859  319D  2566  3188   	fcall	_sprintf
  3353  085C                     l4100:
  3354  085C  3001               	movlw	1
  3355  085D  0022               	movlb	2	; select bank2
  3356  085E  00A0               	movwf	??_main^(0+256)
  3357  085F  0820               	movf	??_main^(0+256),w
  3358  0860  07C3               	addwf	main@contador^(0+256),f
  3359  0861                     l4102:
  3360                           
  3361                           ;Main.c: 32:         printf(buffer);
  3362  0861  3022               	movlw	(low (main@buffer| (0+256)))& (0+255)
  3363  0862  319B  23FF  3188   	fcall	_printf
  3364  0865                     l4104:
  3365                           
  3366                           ;Main.c: 33:         adc = adc_read(4);
  3367  0865  3004               	movlw	4
  3368  0866  319C  2415  3188   	fcall	_adc_read
  3369  0869  0871               	movf	?_adc_read+1,w
  3370  086A  0022               	movlb	2	; select bank2
  3371  086B  00C5               	movwf	(main@adc+1)^(0+256)
  3372  086C  0870               	movf	?_adc_read,w
  3373  086D  00C4               	movwf	main@adc^(0+256)
  3374  086E                     l4106:
  3375                           
  3376                           ;Main.c: 34:         volt = adc*mv;
  3377  086E  303B               	movlw	59
  3378  086F  0020               	movlb	0	; select bank0
  3379  0870  00A3               	movwf	___flmul@b+3
  3380  0871  3053               	movlw	83
  3381  0872  00A2               	movwf	___flmul@b+2
  3382  0873  3068               	movlw	104
  3383  0874  00A1               	movwf	___flmul@b+1
  3384  0875  300D               	movlw	13
  3385  0876  00A0               	movwf	___flmul@b
  3386  0877  0022               	movlb	2	; select bank2
  3387  0878  0844               	movf	main@adc^(0+256),w
  3388  0879  00F0               	movwf	___xxtofl@val
  3389  087A  0845               	movf	(main@adc+1)^(0+256),w
  3390  087B  00F1               	movwf	___xxtofl@val+1
  3391  087C  01F2               	clrf	___xxtofl@val+2
  3392  087D  01F3               	clrf	___xxtofl@val+3
  3393  087E  3000               	movlw	0
  3394  087F  3191  215A  3188   	fcall	___xxtofl
  3395  0882  0873               	movf	?___xxtofl+3,w
  3396  0883  0020               	movlb	0	; select bank0
  3397  0884  00A7               	movwf	___flmul@a+3
  3398  0885  0872               	movf	?___xxtofl+2,w
  3399  0886  00A6               	movwf	___flmul@a+2
  3400  0887  0871               	movf	?___xxtofl+1,w
  3401  0888  00A5               	movwf	___flmul@a+1
  3402  0889  0870               	movf	?___xxtofl,w
  3403  088A  00A4               	movwf	___flmul@a
  3404  088B  318D  25A9  3188   	fcall	___flmul
  3405  088E  0020               	movlb	0	; select bank0
  3406  088F  0823               	movf	?___flmul+3,w
  3407  0890  0022               	movlb	2	; select bank2
  3408  0891  00D5               	movwf	(_volt+3)^(0+256)
  3409  0892  0020               	movlb	0	; select bank0
  3410  0893  0822               	movf	?___flmul+2,w
  3411  0894  0022               	movlb	2	; select bank2
  3412  0895  00D4               	movwf	(_volt+2)^(0+256)
  3413  0896  0020               	movlb	0	; select bank0
  3414  0897  0821               	movf	?___flmul+1,w
  3415  0898  0022               	movlb	2	; select bank2
  3416  0899  00D3               	movwf	(_volt+1)^(0+256)
  3417  089A  0020               	movlb	0	; select bank0
  3418  089B  0820               	movf	?___flmul,w
  3419  089C  0022               	movlb	2	; select bank2
  3420  089D  00D2               	movwf	_volt^(0+256)
  3421  089E                     l4108:
  3422                           
  3423                           ;Main.c: 35:         temperatura = volt/(0.01);
  3424  089E  303C               	movlw	60
  3425  089F  00F3               	movwf	___fldiv@a+3
  3426  08A0  3023               	movlw	35
  3427  08A1  00F2               	movwf	___fldiv@a+2
  3428  08A2  30D7               	movlw	215
  3429  08A3  00F1               	movwf	___fldiv@a+1
  3430  08A4  300A               	movlw	10
  3431  08A5  00F0               	movwf	___fldiv@a
  3432  08A6  0855               	movf	(_volt+3)^(0+256),w
  3433  08A7  00F7               	movwf	___fldiv@b+3
  3434  08A8  0854               	movf	(_volt+2)^(0+256),w
  3435  08A9  00F6               	movwf	___fldiv@b+2
  3436  08AA  0853               	movf	(_volt+1)^(0+256),w
  3437  08AB  00F5               	movwf	___fldiv@b+1
  3438  08AC  0852               	movf	_volt^(0+256),w
  3439  08AD  00F4               	movwf	___fldiv@b
  3440  08AE  3196  264C  3188   	fcall	___fldiv
  3441  08B1  0873               	movf	?___fldiv+3,w
  3442  08B2  0022               	movlb	2	; select bank2
  3443  08B3  00D1               	movwf	(_temperatura+3)^(0+256)
  3444  08B4  0872               	movf	?___fldiv+2,w
  3445  08B5  00D0               	movwf	(_temperatura+2)^(0+256)
  3446  08B6  0871               	movf	?___fldiv+1,w
  3447  08B7  00CF               	movwf	(_temperatura+1)^(0+256)
  3448  08B8  0870               	movf	?___fldiv,w
  3449  08B9  00CE               	movwf	_temperatura^(0+256)
  3450  08BA                     l4110:
  3451                           
  3452                           ;Main.c: 36:         sprintf(buffer,"adc = %i, volt %f, temp=%f\n",adc, volt,temperatura
      +                          );
  3453  08BA  3004               	movlw	low (STR_2| (0+32768))
  3454  08BB  0021               	movlb	1	; select bank1
  3455  08BC  00DC               	movwf	sprintf@fmt^(0+128)
  3456  08BD  3098               	movlw	high (STR_2| (0+32768))
  3457  08BE  00DD               	movwf	(sprintf@fmt^(0+128)+1)
  3458  08BF  0022               	movlb	2	; select bank2
  3459  08C0  0845               	movf	(main@adc+1)^(0+256),w
  3460  08C1  0021               	movlb	1	; select bank1
  3461  08C2  00DF               	movwf	((?_sprintf+1)^(0+128)+2)
  3462  08C3  0022               	movlb	2	; select bank2
  3463  08C4  0844               	movf	main@adc^(0+256),w
  3464  08C5  0021               	movlb	1	; select bank1
  3465  08C6  00DE               	movwf	(?_sprintf^(0+128)+2)
  3466  08C7  0022               	movlb	2	; select bank2
  3467  08C8  0855               	movf	(_volt+3)^(0+256),w
  3468  08C9  0021               	movlb	1	; select bank1
  3469  08CA  00E3               	movwf	((?_sprintf+3)^(0+128)+4)
  3470  08CB  0022               	movlb	2	; select bank2
  3471  08CC  0854               	movf	(_volt+2)^(0+256),w
  3472  08CD  0021               	movlb	1	; select bank1
  3473  08CE  00E2               	movwf	((?_sprintf+2)^(0+128)+4)
  3474  08CF  0022               	movlb	2	; select bank2
  3475  08D0  0853               	movf	(_volt+1)^(0+256),w
  3476  08D1  0021               	movlb	1	; select bank1
  3477  08D2  00E1               	movwf	((?_sprintf+1)^(0+128)+4)
  3478  08D3  0022               	movlb	2	; select bank2
  3479  08D4  0852               	movf	_volt^(0+256),w
  3480  08D5  0021               	movlb	1	; select bank1
  3481  08D6  00E0               	movwf	(?_sprintf^(0+128)+4)
  3482  08D7  0022               	movlb	2	; select bank2
  3483  08D8  0851               	movf	(_temperatura+3)^(0+256),w
  3484  08D9  0021               	movlb	1	; select bank1
  3485  08DA  00E7               	movwf	((?_sprintf+3)^(0+128)+8)
  3486  08DB  0022               	movlb	2	; select bank2
  3487  08DC  0850               	movf	(_temperatura+2)^(0+256),w
  3488  08DD  0021               	movlb	1	; select bank1
  3489  08DE  00E6               	movwf	((?_sprintf+2)^(0+128)+8)
  3490  08DF  0022               	movlb	2	; select bank2
  3491  08E0  084F               	movf	(_temperatura+1)^(0+256),w
  3492  08E1  0021               	movlb	1	; select bank1
  3493  08E2  00E5               	movwf	((?_sprintf+1)^(0+128)+8)
  3494  08E3  0022               	movlb	2	; select bank2
  3495  08E4  084E               	movf	_temperatura^(0+256),w
  3496  08E5  0021               	movlb	1	; select bank1
  3497  08E6  00E4               	movwf	(?_sprintf^(0+128)+8)
  3498  08E7  3022               	movlw	(low (main@buffer| (0+256)))& (0+255)
  3499  08E8  319D  2566  3188   	fcall	_sprintf
  3500  08EB                     l4112:
  3501                           
  3502                           ;Main.c: 37:         printf(buffer);
  3503  08EB  3022               	movlw	(low (main@buffer| (0+256)))& (0+255)
  3504  08EC  319B  23FF  3188   	fcall	_printf
  3505  08EF                     l4114:
  3506                           
  3507                           ;Main.c: 39:         adc = adc_read(8);
  3508  08EF  3008               	movlw	8
  3509  08F0  319C  2415  3188   	fcall	_adc_read
  3510  08F3  0871               	movf	?_adc_read+1,w
  3511  08F4  0022               	movlb	2	; select bank2
  3512  08F5  00C5               	movwf	(main@adc+1)^(0+256)
  3513  08F6  0870               	movf	?_adc_read,w
  3514  08F7  00C4               	movwf	main@adc^(0+256)
  3515  08F8                     l4116:
  3516                           
  3517                           ;Main.c: 40:         sprintf(buffer,"ANB0 = %i \n\n",adc);
  3518  08F8  302F               	movlw	low (STR_3| (0+32768))
  3519  08F9  0021               	movlb	1	; select bank1
  3520  08FA  00DC               	movwf	sprintf@fmt^(0+128)
  3521  08FB  3098               	movlw	high (STR_3| (0+32768))
  3522  08FC  00DD               	movwf	(sprintf@fmt^(0+128)+1)
  3523  08FD  0022               	movlb	2	; select bank2
  3524  08FE  0845               	movf	(main@adc+1)^(0+256),w
  3525  08FF  0021               	movlb	1	; select bank1
  3526  0900  00DF               	movwf	((?_sprintf+1)^(0+128)+2)
  3527  0901  0022               	movlb	2	; select bank2
  3528  0902  0844               	movf	main@adc^(0+256),w
  3529  0903  0021               	movlb	1	; select bank1
  3530  0904  00DE               	movwf	(?_sprintf^(0+128)+2)
  3531  0905  3022               	movlw	(low (main@buffer| (0+256)))& (0+255)
  3532  0906  319D  2566  3188   	fcall	_sprintf
  3533  0909                     l4118:
  3534                           
  3535                           ;Main.c: 41:         printf(buffer);
  3536  0909  3022               	movlw	(low (main@buffer| (0+256)))& (0+255)
  3537  090A  319B  23FF  3188   	fcall	_printf
  3538  090D                     l4120:
  3539                           
  3540                           ;Main.c: 45:         if (((PIR3>>5) & 0x01) ==1){
  3541  090D  002E               	movlb	14	; select bank14
  3542  090E  080F               	movf	15,w	;volatile
  3543  090F  0022               	movlb	2	; select bank2
  3544  0910  00A0               	movwf	??_main^(0+256)
  3545  0911  3005               	movlw	5
  3546  0912                     u6315:
  3547  0912  36A0               	lsrf	??_main^(0+256),f
  3548  0913  0B89               	decfsz	9,f
  3549  0914  2912               	goto	u6315
  3550  0915  1C20               	btfss	??_main^(0+256),0
  3551  0916  2918               	goto	u6321
  3552  0917  2919               	goto	u6320
  3553  0918                     u6321:
  3554  0918  2920               	goto	l4124
  3555  0919                     u6320:
  3556  0919                     l4122:
  3557                           
  3558                           ;Main.c: 46:             rx = uart_rx();
  3559  0919  319C  2496  3188   	fcall	_uart_rx
  3560  091C  0022               	movlb	2	; select bank2
  3561  091D  00A0               	movwf	??_main^(0+256)
  3562  091E  0820               	movf	??_main^(0+256),w
  3563  091F  00C2               	movwf	main@rx^(0+256)
  3564  0920                     l4124:
  3565                           
  3566                           ;Main.c: 49:         if (rx == 'b'){
  3567  0920  3062               	movlw	98
  3568  0921  0642               	xorwf	main@rx^(0+256),w
  3569  0922  1D03               	btfss	3,2
  3570  0923  2925               	goto	u6331
  3571  0924  2926               	goto	u6330
  3572  0925                     u6331:
  3573  0925  292B               	goto	l4128
  3574  0926                     u6330:
  3575  0926                     l4126:
  3576                           
  3577                           ;Main.c: 50:             LATA = LATA | (1<<0);
  3578  0926  0020               	movlb	0	; select bank0
  3579  0927  0816               	movf	22,w	;volatile
  3580  0928  3801               	iorlw	1
  3581  0929  0096               	movwf	22	;volatile
  3582                           
  3583                           ;Main.c: 51:         }else{
  3584  092A  2826               	goto	l4090
  3585  092B                     l4128:
  3586                           
  3587                           ;Main.c: 52:             LATA = LATA & ~(1<<0);
  3588  092B  0020               	movlb	0	; select bank0
  3589  092C  0816               	movf	22,w	;volatile
  3590  092D  39FE               	andlw	254
  3591  092E  0096               	movwf	22	;volatile
  3592  092F  2826               	goto	l4090
  3593  0930  3180  2802         	ljmp	start
  3594  0932                     __end_of_main:
  3595                           
  3596                           	psect	text1
  3597  1C96                     __ptext1:	
  3598 ;; *************** function _uart_rx *****************
  3599 ;; Defined at:
  3600 ;;		line 39 in file "uart.c"
  3601 ;; Parameters:    Size  Location     Type
  3602 ;;		None
  3603 ;; Auto vars:     Size  Location     Type
  3604 ;;		None
  3605 ;; Return value:  Size  Location     Type
  3606 ;;                  1    wreg      unsigned char 
  3607 ;; Registers used:
  3608 ;;		wreg, status,2, status,0
  3609 ;; Tracked objects:
  3610 ;;		On entry : 0/0
  3611 ;;		On exit  : 0/0
  3612 ;;		Unchanged: 0/0
  3613 ;; Data sizes:     COMMON   BANK0   BANK1   BANK2   BANK3   BANK4   BANK5   BANK6   BANK7   BANK8   BANK9  BANK10  BANK1
      +1  BANK12
  3614 ;;      Params:         0       0       0       0       0       0       0       0       0       0       0       0       
      +0       0
  3615 ;;      Locals:         0       0       0       0       0       0       0       0       0       0       0       0       
      +0       0
  3616 ;;      Temps:          1       0       0       0       0       0       0       0       0       0       0       0       
      +0       0
  3617 ;;      Totals:         1       0       0       0       0       0       0       0       0       0       0       0       
      +0       0
  3618 ;;Total ram usage:        1 bytes
  3619 ;; Hardware stack levels used: 1
  3620 ;; This function calls:
  3621 ;;		Nothing
  3622 ;; This function is called by:
  3623 ;;		_main
  3624 ;;		_getch
  3625 ;; This function uses a non-reentrant model
  3626 ;;
  3627                           
  3628                           
  3629                           ;psect for function _uart_rx
  3630  1C96                     _uart_rx:
  3631  1C96                     l4026:	
  3632                           ;incstack = 0
  3633                           ; Regs used in _uart_rx: [wreg+status,2+status,0]
  3634                           
  3635  1C96                     l4028:	
  3636                           ;uart.c: 43:     while (((PIR3>>5) & 0x01) == 0){}
  3637                           
  3638  1C96  002E               	movlb	14	; select bank14
  3639  1C97  080F               	movf	15,w	;volatile
  3640  1C98  00F0               	movwf	??_uart_rx
  3641  1C99  3005               	movlw	5
  3642  1C9A                     u6135:
  3643  1C9A  36F0               	lsrf	??_uart_rx,f
  3644  1C9B  0B89               	decfsz	9,f
  3645  1C9C  2C9A               	goto	u6135
  3646  1C9D  1C70               	btfss	??_uart_rx,0
  3647  1C9E  2CA0               	goto	u6141
  3648  1C9F  2CA1               	goto	u6140
  3649  1CA0                     u6141:
  3650  1CA0  2C96               	goto	l4028
  3651  1CA1                     u6140:
  3652  1CA1                     l4030:
  3653                           
  3654                           ;uart.c: 45:     if( ((RC1STA >> 1)& 0x01) == 1){
  3655  1CA1  0022               	movlb	2	; select bank2
  3656  1CA2  081D               	movf	29,w	;volatile
  3657  1CA3  00F0               	movwf	??_uart_rx
  3658  1CA4  3001               	movlw	1
  3659  1CA5                     u6155:
  3660  1CA5  36F0               	lsrf	??_uart_rx,f
  3661  1CA6  0B89               	decfsz	9,f
  3662  1CA7  2CA5               	goto	u6155
  3663  1CA8  1C70               	btfss	??_uart_rx,0
  3664  1CA9  2CAB               	goto	u6161
  3665  1CAA  2CAC               	goto	u6160
  3666  1CAB                     u6161:
  3667  1CAB  2CB2               	goto	l4034
  3668  1CAC                     u6160:
  3669  1CAC                     l4032:
  3670                           
  3671                           ;uart.c: 46:         RC1STA = RC1STA & ~(1<<4);
  3672  1CAC  081D               	movf	29,w	;volatile
  3673  1CAD  39EF               	andlw	239
  3674  1CAE  009D               	movwf	29	;volatile
  3675                           
  3676                           ;uart.c: 47:         RC1STA = RC1STA | (1<<4);
  3677  1CAF  081D               	movf	29,w	;volatile
  3678  1CB0  3810               	iorlw	16
  3679  1CB1  009D               	movwf	29	;volatile
  3680  1CB2                     l4034:
  3681                           
  3682                           ;uart.c: 53:       return RCREG;
  3683  1CB2  0819               	movf	25,w	;volatile
  3684  1CB3                     l94:
  3685  1CB3  0008               	return
  3686  1CB4                     __end_of_uart_rx:
  3687                           
  3688                           	psect	text2
  3689  1D66                     __ptext2:	
  3690 ;; *************** function _sprintf *****************
  3691 ;; Defined at:
  3692 ;;		line 9 in file "C:\Program Files\Microchip\xc8\v2.32\pic\sources\c99\common\nf_sprintf.c"
  3693 ;; Parameters:    Size  Location     Type
  3694 ;;  s               1    wreg     PTR unsigned char 
  3695 ;;		 -> main@buffer(32), 
  3696 ;;  fmt             2   60[BANK1 ] PTR const unsigned char 
  3697 ;;		 -> STR_3(13), STR_2(28), STR_1(15), 
  3698 ;; Auto vars:     Size  Location     Type
  3699 ;;  s               1   73[BANK1 ] PTR unsigned char 
  3700 ;;		 -> main@buffer(32), 
  3701 ;;  f               5   75[BANK1 ] struct _IO_FILE
  3702 ;;  ret             2    0        int 
  3703 ;;  ap              1   74[BANK1 ] PTR void [1]
  3704 ;;		 -> ?_printf(2), ?_sprintf(2), 
  3705 ;; Return value:  Size  Location     Type
  3706 ;;                  2   60[BANK1 ] int 
  3707 ;; Registers used:
  3708 ;;		wreg, fsr0l, fsr0h, fsr1l, fsr1h, status,2, status,0, pclath, cstack
  3709 ;; Tracked objects:
  3710 ;;		On entry : 0/0
  3711 ;;		On exit  : 0/0
  3712 ;;		Unchanged: 0/0
  3713 ;; Data sizes:     COMMON   BANK0   BANK1   BANK2   BANK3   BANK4   BANK5   BANK6   BANK7   BANK8   BANK9  BANK10  BANK1
      +1  BANK12
  3714 ;;      Params:         0       0      12       0       0       0       0       0       0       0       0       0       
      +0       0
  3715 ;;      Locals:         0       0       7       0       0       0       0       0       0       0       0       0       
      +0       0
  3716 ;;      Temps:          0       0       1       0       0       0       0       0       0       0       0       0       
      +0       0
  3717 ;;      Totals:         0       0      20       0       0       0       0       0       0       0       0       0       
      +0       0
  3718 ;;Total ram usage:       20 bytes
  3719 ;; Hardware stack levels used: 1
  3720 ;; Hardware stack levels required when called: 8
  3721 ;; This function calls:
  3722 ;;		_vfprintf
  3723 ;; This function is called by:
  3724 ;;		_main
  3725 ;; This function uses a non-reentrant model
  3726 ;;
  3727                           
  3728                           
  3729                           ;psect for function _sprintf
  3730  1D66                     _sprintf:
  3731                           
  3732                           ;incstack = 0
  3733                           ; Regs used in _sprintf: [wreg-fsr1h+status,2+status,0+pclath+cstack]
  3734                           ;sprintf@s stored from wreg
  3735  1D66  0021               	movlb	1	; select bank1
  3736  1D67  00E9               	movwf	sprintf@s^(0+128)
  3737  1D68                     l3994:
  3738  1D68  30DE               	movlw	(low ((?_sprintf| 0+2)))& (0+255)
  3739  1D69  00E8               	movwf	??_sprintf^(0+128)
  3740  1D6A  0868               	movf	??_sprintf^(0+128),w
  3741  1D6B  00EA               	movwf	sprintf@ap^(0+128)
  3742  1D6C  0869               	movf	sprintf@s^(0+128),w
  3743  1D6D  00E8               	movwf	??_sprintf^(0+128)
  3744  1D6E  0868               	movf	??_sprintf^(0+128),w
  3745  1D6F  00EB               	movwf	sprintf@f^(0+128)
  3746  1D70                     l3996:
  3747  1D70  01EC               	clrf	(sprintf@f^(0+128)+1)
  3748  1D71  01ED               	clrf	((sprintf@f+1)^(0+128)+1)
  3749  1D72                     l3998:
  3750  1D72  01EE               	clrf	(sprintf@f^(0+128)+3)
  3751  1D73  01EF               	clrf	((sprintf@f+1)^(0+128)+3)
  3752  1D74                     l4000:
  3753  1D74  085D               	movf	(sprintf@fmt+1)^(0+128),w
  3754  1D75  0020               	movlb	0	; select bank0
  3755  1D76  00EC               	movwf	vfprintf@fmt+1
  3756  1D77  0021               	movlb	1	; select bank1
  3757  1D78  085C               	movf	sprintf@fmt^(0+128),w
  3758  1D79  0020               	movlb	0	; select bank0
  3759  1D7A  00EB               	movwf	vfprintf@fmt
  3760  1D7B  30EA               	movlw	(low (sprintf@ap| 0))& (0+255)
  3761  1D7C  0021               	movlb	1	; select bank1
  3762  1D7D  00E8               	movwf	??_sprintf^(0+128)
  3763  1D7E  0868               	movf	??_sprintf^(0+128),w
  3764  1D7F  0020               	movlb	0	; select bank0
  3765  1D80  00ED               	movwf	vfprintf@ap
  3766  1D81  30EB               	movlw	(low (sprintf@f| 0))& (0+255)
  3767  1D82  319D  258F  319D   	fcall	_vfprintf
  3768  1D85                     l4002:
  3769  1D85  0021               	movlb	1	; select bank1
  3770  1D86  086C               	movf	(sprintf@f^(0+128)+1),w
  3771  1D87  0769               	addwf	sprintf@s^(0+128),w
  3772  1D88  00E8               	movwf	??_sprintf^(0+128)
  3773  1D89  0868               	movf	??_sprintf^(0+128),w
  3774  1D8A  0086               	movwf	6
  3775  1D8B  3001               	movlw	1	; select bank2/3
  3776  1D8C  0087               	movwf	7
  3777  1D8D  0181               	clrf	1
  3778  1D8E                     l750:
  3779  1D8E  0008               	return
  3780  1D8F                     __end_of_sprintf:
  3781                           
  3782                           	psect	text3
  3783  1DC6                     __ptext3:	
  3784 ;; *************** function _serial_init *****************
  3785 ;; Defined at:
  3786 ;;		line 3 in file "uart.c"
  3787 ;; Parameters:    Size  Location     Type
  3788 ;;  baudios         4    0[BANK0 ] unsigned long 
  3789 ;; Auto vars:     Size  Location     Type
  3790 ;;  sx              2    8[BANK0 ] unsigned short 
  3791 ;; Return value:  Size  Location     Type
  3792 ;;                  1    wreg      void 
  3793 ;; Registers used:
  3794 ;;		wreg, status,2, status,0, pclath, cstack
  3795 ;; Tracked objects:
  3796 ;;		On entry : 0/0
  3797 ;;		On exit  : 0/0
  3798 ;;		Unchanged: 0/0
  3799 ;; Data sizes:     COMMON   BANK0   BANK1   BANK2   BANK3   BANK4   BANK5   BANK6   BANK7   BANK8   BANK9  BANK10  BANK1
      +1  BANK12
  3800 ;;      Params:         0       4       0       0       0       0       0       0       0       0       0       0       
      +0       0
  3801 ;;      Locals:         0       2       0       0       0       0       0       0       0       0       0       0       
      +0       0
  3802 ;;      Temps:          0       4       0       0       0       0       0       0       0       0       0       0       
      +0       0
  3803 ;;      Totals:         0      10       0       0       0       0       0       0       0       0       0       0       
      +0       0
  3804 ;;Total ram usage:       10 bytes
  3805 ;; Hardware stack levels used: 1
  3806 ;; Hardware stack levels required when called: 1
  3807 ;; This function calls:
  3808 ;;		___lldiv
  3809 ;; This function is called by:
  3810 ;;		_main
  3811 ;; This function uses a non-reentrant model
  3812 ;;
  3813                           
  3814                           
  3815                           ;psect for function _serial_init
  3816  1DC6                     _serial_init:
  3817  1DC6                     l3976:	
  3818                           ;incstack = 0
  3819                           ; Regs used in _serial_init: [wreg+status,2+status,0+pclath+cstack]
  3820                           
  3821                           
  3822                           ;uart.c: 4:     uint16_t sx;;uart.c: 6:     BAUD1CONbits.BRG16 = 0;
  3823  1DC6  0022               	movlb	2	; select bank2
  3824  1DC7  119F               	bcf	31,3	;volatile
  3825  1DC8                     l3978:
  3826                           
  3827                           ;uart.c: 9:     RC1STA = 0b10010000;
  3828  1DC8  3090               	movlw	144
  3829  1DC9  009D               	movwf	29	;volatile
  3830                           
  3831                           ;uart.c: 15:     TX1STA = 0b00100000;
  3832  1DCA  3020               	movlw	32
  3833  1DCB  009E               	movwf	30	;volatile
  3834  1DCC                     l3980:
  3835                           
  3836                           ;uart.c: 19:     sx = ((32000000UL/baudios)/64 ) - 1;
  3837  1DCC  0020               	movlb	0	; select bank0
  3838  1DCD  0823               	movf	serial_init@baudios+3,w
  3839  1DCE  00F3               	movwf	___lldiv@divisor+3
  3840  1DCF  0822               	movf	serial_init@baudios+2,w
  3841  1DD0  00F2               	movwf	___lldiv@divisor+2
  3842  1DD1  0821               	movf	serial_init@baudios+1,w
  3843  1DD2  00F1               	movwf	___lldiv@divisor+1
  3844  1DD3  0820               	movf	serial_init@baudios,w
  3845  1DD4  00F0               	movwf	___lldiv@divisor
  3846  1DD5  3001               	movlw	1
  3847  1DD6  00F7               	movwf	___lldiv@dividend+3
  3848  1DD7  30E8               	movlw	232
  3849  1DD8  00F6               	movwf	___lldiv@dividend+2
  3850  1DD9  3048               	movlw	72
  3851  1DDA  00F5               	movwf	___lldiv@dividend+1
  3852  1DDB  3000               	movlw	0
  3853  1DDC  00F4               	movwf	___lldiv@dividend
  3854  1DDD  319F  27A6  319D   	fcall	___lldiv
  3855  1DE0  0870               	movf	?___lldiv,w
  3856  1DE1  0020               	movlb	0	; select bank0
  3857  1DE2  00A4               	movwf	??_serial_init
  3858  1DE3  0871               	movf	?___lldiv+1,w
  3859  1DE4  00A5               	movwf	??_serial_init+1
  3860  1DE5  0872               	movf	?___lldiv+2,w
  3861  1DE6  00A6               	movwf	??_serial_init+2
  3862  1DE7  0873               	movf	?___lldiv+3,w
  3863  1DE8  00A7               	movwf	??_serial_init+3
  3864  1DE9  3006               	movlw	6
  3865  1DEA                     u6115:
  3866  1DEA  36A7               	lsrf	??_serial_init+3,f
  3867  1DEB  0CA6               	rrf	??_serial_init+2,f
  3868  1DEC  0CA5               	rrf	??_serial_init+1,f
  3869  1DED  0CA4               	rrf	??_serial_init,f
  3870  1DEE                     u6110:
  3871  1DEE  0B89               	decfsz	9,f
  3872  1DEF  2DEA               	goto	u6115
  3873  1DF0  0824               	movf	??_serial_init,w
  3874  1DF1  3EFF               	addlw	255
  3875  1DF2  00A8               	movwf	serial_init@sx
  3876  1DF3  30FF               	movlw	255
  3877  1DF4  3D25               	addwfc	??_serial_init+1,w
  3878  1DF5  00A9               	movwf	serial_init@sx+1
  3879  1DF6                     l3982:
  3880                           
  3881                           ;uart.c: 20:     SP1BRGL = (uint8_t)sx;
  3882  1DF6  0828               	movf	serial_init@sx,w
  3883  1DF7  0022               	movlb	2	; select bank2
  3884  1DF8  009B               	movwf	27	;volatile
  3885  1DF9                     l3984:
  3886                           
  3887                           ;uart.c: 21:     SP1BRGH = (uint8_t)(sx>>8);
  3888  1DF9  0020               	movlb	0	; select bank0
  3889  1DFA  0829               	movf	serial_init@sx+1,w
  3890  1DFB  0022               	movlb	2	; select bank2
  3891  1DFC  009C               	movwf	28	;volatile
  3892  1DFD                     l3986:
  3893                           
  3894                           ;uart.c: 25:     RC0PPS = 0x10;
  3895  1DFD  3010               	movlw	16
  3896  1DFE  003E               	movlb	30	; select bank30
  3897  1DFF  00A0               	movwf	32	;volatile
  3898  1E00                     l3988:
  3899                           
  3900                           ;uart.c: 27:     RXPPS = 0x11;
  3901  1E00  3011               	movlw	17
  3902  1E01  003D               	movlb	29	; select bank29
  3903  1E02  00CB               	movwf	75	;volatile
  3904  1E03                     l81:
  3905  1E03  0008               	return
  3906  1E04                     __end_of_serial_init:
  3907                           
  3908                           	psect	text4
  3909  1FA6                     __ptext4:	
  3910 ;; *************** function ___lldiv *****************
  3911 ;; Defined at:
  3912 ;;		line 5 in file "C:\Program Files\Microchip\xc8\v2.32\pic\sources\c99\common\__lldiv.c"
  3913 ;; Parameters:    Size  Location     Type
  3914 ;;  divisor         4    0[COMMON] unsigned long 
  3915 ;;  dividend        4    4[COMMON] unsigned long 
  3916 ;; Auto vars:     Size  Location     Type
  3917 ;;  quotient        4    9[COMMON] unsigned long 
  3918 ;;  counter         1   13[COMMON] unsigned char 
  3919 ;; Return value:  Size  Location     Type
  3920 ;;                  4    0[COMMON] unsigned long 
  3921 ;; Registers used:
  3922 ;;		wreg, status,2, status,0
  3923 ;; Tracked objects:
  3924 ;;		On entry : 0/0
  3925 ;;		On exit  : 0/0
  3926 ;;		Unchanged: 0/0
  3927 ;; Data sizes:     COMMON   BANK0   BANK1   BANK2   BANK3   BANK4   BANK5   BANK6   BANK7   BANK8   BANK9  BANK10  BANK1
      +1  BANK12
  3928 ;;      Params:         8       0       0       0       0       0       0       0       0       0       0       0       
      +0       0
  3929 ;;      Locals:         5       0       0       0       0       0       0       0       0       0       0       0       
      +0       0
  3930 ;;      Temps:          1       0       0       0       0       0       0       0       0       0       0       0       
      +0       0
  3931 ;;      Totals:        14       0       0       0       0       0       0       0       0       0       0       0       
      +0       0
  3932 ;;Total ram usage:       14 bytes
  3933 ;; Hardware stack levels used: 1
  3934 ;; This function calls:
  3935 ;;		Nothing
  3936 ;; This function is called by:
  3937 ;;		_serial_init
  3938 ;; This function uses a non-reentrant model
  3939 ;;
  3940                           
  3941                           
  3942                           ;psect for function ___lldiv
  3943  1FA6                     ___lldiv:
  3944  1FA6                     l3930:	
  3945                           ;incstack = 0
  3946                           ; Regs used in ___lldiv: [wreg+status,2+status,0]
  3947                           
  3948  1FA6  3000               	movlw	0
  3949  1FA7  00FC               	movwf	___lldiv@quotient+3
  3950  1FA8  3000               	movlw	0
  3951  1FA9  00FB               	movwf	___lldiv@quotient+2
  3952  1FAA  3000               	movlw	0
  3953  1FAB  00FA               	movwf	___lldiv@quotient+1
  3954  1FAC  3000               	movlw	0
  3955  1FAD  00F9               	movwf	___lldiv@quotient
  3956  1FAE  0873               	movf	___lldiv@divisor+3,w
  3957  1FAF  0472               	iorwf	___lldiv@divisor+2,w
  3958  1FB0  0471               	iorwf	___lldiv@divisor+1,w
  3959  1FB1  0470               	iorwf	___lldiv@divisor,w
  3960  1FB2  1903               	skipnz
  3961  1FB3  2FB5               	goto	u6031
  3962  1FB4  2FB6               	goto	u6030
  3963  1FB5                     u6031:
  3964  1FB5  2FF7               	goto	l3950
  3965  1FB6                     u6030:
  3966  1FB6                     l3932:
  3967  1FB6  01FD               	clrf	___lldiv@counter
  3968  1FB7  0AFD               	incf	___lldiv@counter,f
  3969  1FB8  2FC4               	goto	l3936
  3970  1FB9                     l3934:
  3971  1FB9  3001               	movlw	1
  3972  1FBA                     u6045:
  3973  1FBA  35F0               	lslf	___lldiv@divisor,f
  3974  1FBB  0DF1               	rlf	___lldiv@divisor+1,f
  3975  1FBC  0DF2               	rlf	___lldiv@divisor+2,f
  3976  1FBD  0DF3               	rlf	___lldiv@divisor+3,f
  3977  1FBE  0B89               	decfsz	9,f
  3978  1FBF  2FBA               	goto	u6045
  3979  1FC0  3001               	movlw	1
  3980  1FC1  00F8               	movwf	??___lldiv
  3981  1FC2  0878               	movf	??___lldiv,w
  3982  1FC3  07FD               	addwf	___lldiv@counter,f
  3983  1FC4                     l3936:
  3984  1FC4  1FF3               	btfss	___lldiv@divisor+3,7
  3985  1FC5  2FC7               	goto	u6051
  3986  1FC6  2FC8               	goto	u6050
  3987  1FC7                     u6051:
  3988  1FC7  2FB9               	goto	l3934
  3989  1FC8                     u6050:
  3990  1FC8                     l3938:
  3991  1FC8  3001               	movlw	1
  3992  1FC9                     u6065:
  3993  1FC9  35F9               	lslf	___lldiv@quotient,f
  3994  1FCA  0DFA               	rlf	___lldiv@quotient+1,f
  3995  1FCB  0DFB               	rlf	___lldiv@quotient+2,f
  3996  1FCC  0DFC               	rlf	___lldiv@quotient+3,f
  3997  1FCD  0B89               	decfsz	9,f
  3998  1FCE  2FC9               	goto	u6065
  3999  1FCF                     l3940:
  4000  1FCF  0873               	movf	___lldiv@divisor+3,w
  4001  1FD0  0277               	subwf	___lldiv@dividend+3,w
  4002  1FD1  1D03               	skipz
  4003  1FD2  2FDD               	goto	u6075
  4004  1FD3  0872               	movf	___lldiv@divisor+2,w
  4005  1FD4  0276               	subwf	___lldiv@dividend+2,w
  4006  1FD5  1D03               	skipz
  4007  1FD6  2FDD               	goto	u6075
  4008  1FD7  0871               	movf	___lldiv@divisor+1,w
  4009  1FD8  0275               	subwf	___lldiv@dividend+1,w
  4010  1FD9  1D03               	skipz
  4011  1FDA  2FDD               	goto	u6075
  4012  1FDB  0870               	movf	___lldiv@divisor,w
  4013  1FDC  0274               	subwf	___lldiv@dividend,w
  4014  1FDD                     u6075:
  4015  1FDD  1C03               	skipc
  4016  1FDE  2FE0               	goto	u6071
  4017  1FDF  2FE1               	goto	u6070
  4018  1FE0                     u6071:
  4019  1FE0  2FEA               	goto	l3946
  4020  1FE1                     u6070:
  4021  1FE1                     l3942:
  4022  1FE1  0870               	movf	___lldiv@divisor,w
  4023  1FE2  02F4               	subwf	___lldiv@dividend,f
  4024  1FE3  0871               	movf	___lldiv@divisor+1,w
  4025  1FE4  3BF5               	subwfb	___lldiv@dividend+1,f
  4026  1FE5  0872               	movf	___lldiv@divisor+2,w
  4027  1FE6  3BF6               	subwfb	___lldiv@dividend+2,f
  4028  1FE7  0873               	movf	___lldiv@divisor+3,w
  4029  1FE8  3BF7               	subwfb	___lldiv@dividend+3,f
  4030  1FE9                     l3944:
  4031  1FE9  1479               	bsf	___lldiv@quotient,0
  4032  1FEA                     l3946:
  4033  1FEA  3001               	movlw	1
  4034  1FEB                     u6085:
  4035  1FEB  36F3               	lsrf	___lldiv@divisor+3,f
  4036  1FEC  0CF2               	rrf	___lldiv@divisor+2,f
  4037  1FED  0CF1               	rrf	___lldiv@divisor+1,f
  4038  1FEE  0CF0               	rrf	___lldiv@divisor,f
  4039  1FEF  0B89               	decfsz	9,f
  4040  1FF0  2FEB               	goto	u6085
  4041  1FF1                     l3948:
  4042  1FF1  3001               	movlw	1
  4043  1FF2  02FD               	subwf	___lldiv@counter,f
  4044  1FF3  1D03               	btfss	3,2
  4045  1FF4  2FF6               	goto	u6091
  4046  1FF5  2FF7               	goto	u6090
  4047  1FF6                     u6091:
  4048  1FF6  2FC8               	goto	l3938
  4049  1FF7                     u6090:
  4050  1FF7                     l3950:
  4051  1FF7  087C               	movf	___lldiv@quotient+3,w
  4052  1FF8  00F3               	movwf	?___lldiv+3
  4053  1FF9  087B               	movf	___lldiv@quotient+2,w
  4054  1FFA  00F2               	movwf	?___lldiv+2
  4055  1FFB  087A               	movf	___lldiv@quotient+1,w
  4056  1FFC  00F1               	movwf	?___lldiv+1
  4057  1FFD  0879               	movf	___lldiv@quotient,w
  4058  1FFE  00F0               	movwf	?___lldiv
  4059  1FFF                     l323:
  4060  1FFF  0008               	return
  4061  2000                     __end_of___lldiv:
  4062                           
  4063                           	psect	text5
  4064  1BFF                     __ptext5:	
  4065 ;; *************** function _printf *****************
  4066 ;; Defined at:
  4067 ;;		line 5 in file "C:\Program Files\Microchip\xc8\v2.32\pic\sources\c99\common\printf.c"
  4068 ;; Parameters:    Size  Location     Type
  4069 ;;  fmt             1    wreg     PTR const unsigned char 
  4070 ;;		 -> main@buffer(32), 
  4071 ;; Auto vars:     Size  Location     Type
  4072 ;;  fmt             1   61[BANK1 ] PTR const unsigned char 
  4073 ;;		 -> main@buffer(32), 
  4074 ;;  ret             2    0        int 
  4075 ;;  ap              1   62[BANK1 ] PTR void [1]
  4076 ;;		 -> ?_printf(2), ?_sprintf(2), 
  4077 ;; Return value:  Size  Location     Type
  4078 ;;                  2   14[None  ] int 
  4079 ;; Registers used:
  4080 ;;		wreg, fsr0l, fsr0h, fsr1l, fsr1h, status,2, status,0, pclath, cstack
  4081 ;; Tracked objects:
  4082 ;;		On entry : 0/0
  4083 ;;		On exit  : 0/0
  4084 ;;		Unchanged: 0/0
  4085 ;; Data sizes:     COMMON   BANK0   BANK1   BANK2   BANK3   BANK4   BANK5   BANK6   BANK7   BANK8   BANK9  BANK10  BANK1
      +1  BANK12
  4086 ;;      Params:         0       0       0       0       0       0       0       0       0       0       0       0       
      +0       0
  4087 ;;      Locals:         0       0       2       0       0       0       0       0       0       0       0       0       
      +0       0
  4088 ;;      Temps:          0       0       1       0       0       0       0       0       0       0       0       0       
      +0       0
  4089 ;;      Totals:         0       0       3       0       0       0       0       0       0       0       0       0       
      +0       0
  4090 ;;Total ram usage:        3 bytes
  4091 ;; Hardware stack levels used: 1
  4092 ;; Hardware stack levels required when called: 8
  4093 ;; This function calls:
  4094 ;;		_vfprintf
  4095 ;; This function is called by:
  4096 ;;		_main
  4097 ;; This function uses a non-reentrant model
  4098 ;;
  4099                           
  4100                           
  4101                           ;psect for function _printf
  4102  1BFF                     _printf:
  4103                           
  4104                           ;incstack = 0
  4105                           ; Regs used in _printf: [wreg-fsr1h+status,2+status,0+pclath+cstack]
  4106                           ;printf@fmt stored from wreg
  4107  1BFF  0021               	movlb	1	; select bank1
  4108  1C00  00DD               	movwf	printf@fmt^(0+128)
  4109  1C01                     l4006:
  4110  1C01  3070               	movlw	(low (?_printf| 0))& (0+255)
  4111  1C02  00DC               	movwf	??_printf^(0+128)
  4112  1C03  085C               	movf	??_printf^(0+128),w
  4113  1C04  00DE               	movwf	printf@ap^(0+128)
  4114  1C05                     l4008:
  4115  1C05  085D               	movf	printf@fmt^(0+128),w
  4116  1C06  0020               	movlb	0	; select bank0
  4117  1C07  00EB               	movwf	vfprintf@fmt
  4118  1C08  3001               	movlw	1
  4119  1C09  00EC               	movwf	vfprintf@fmt+1
  4120  1C0A  30DE               	movlw	(low (printf@ap| 0))& (0+255)
  4121  1C0B  0021               	movlb	1	; select bank1
  4122  1C0C  00DC               	movwf	??_printf^(0+128)
  4123  1C0D  085C               	movf	??_printf^(0+128),w
  4124  1C0E  0020               	movlb	0	; select bank0
  4125  1C0F  00ED               	movwf	vfprintf@ap
  4126  1C10  3000               	movlw	0
  4127  1C11  319D  258F  319B   	fcall	_vfprintf
  4128  1C14                     l1002:
  4129  1C14  0008               	return
  4130  1C15                     __end_of_printf:
  4131                           
  4132                           	psect	text6
  4133  1D8F                     __ptext6:	
  4134 ;; *************** function _vfprintf *****************
  4135 ;; Defined at:
  4136 ;;		line 1390 in file "C:\Program Files\Microchip\xc8\v2.32\pic\sources\c99\common\doprnt.c"
  4137 ;; Parameters:    Size  Location     Type
  4138 ;;  fp              1    wreg     PTR struct _IO_FILE
  4139 ;;		 -> NULL(0), sprintf@f(5), 
  4140 ;;  fmt             2   75[BANK0 ] PTR const unsigned char 
  4141 ;;		 -> STR_3(13), STR_2(28), STR_1(15), main@buffer(32), 
  4142 ;;  ap              1   77[BANK0 ] PTR PTR void 
  4143 ;;		 -> printf@ap(1), sprintf@ap(1), 
  4144 ;; Auto vars:     Size  Location     Type
  4145 ;;  fp              1   57[BANK1 ] PTR struct _IO_FILE
  4146 ;;		 -> NULL(0), sprintf@f(5), 
  4147 ;;  cfmt            2   58[BANK1 ] PTR unsigned char 
  4148 ;;		 -> STR_3(13), STR_2(28), STR_1(15), main@buffer(32), 
  4149 ;; Return value:  Size  Location     Type
  4150 ;;                  2   75[BANK0 ] int 
  4151 ;; Registers used:
  4152 ;;		wreg, fsr0l, fsr0h, fsr1l, fsr1h, status,2, status,0, pclath, cstack
  4153 ;; Tracked objects:
  4154 ;;		On entry : 0/0
  4155 ;;		On exit  : 0/0
  4156 ;;		Unchanged: 0/0
  4157 ;; Data sizes:     COMMON   BANK0   BANK1   BANK2   BANK3   BANK4   BANK5   BANK6   BANK7   BANK8   BANK9  BANK10  BANK1
      +1  BANK12
  4158 ;;      Params:         0       3       0       0       0       0       0       0       0       0       0       0       
      +0       0
  4159 ;;      Locals:         0       0       3       0       0       0       0       0       0       0       0       0       
      +0       0
  4160 ;;      Temps:          0       2       0       0       0       0       0       0       0       0       0       0       
      +0       0
  4161 ;;      Totals:         0       5       3       0       0       0       0       0       0       0       0       0       
      +0       0
  4162 ;;Total ram usage:        8 bytes
  4163 ;; Hardware stack levels used: 1
  4164 ;; Hardware stack levels required when called: 7
  4165 ;; This function calls:
  4166 ;;		_vfpfcnvrt
  4167 ;; This function is called by:
  4168 ;;		_sprintf
  4169 ;;		_printf
  4170 ;; This function uses a non-reentrant model
  4171 ;;
  4172                           
  4173                           
  4174                           ;psect for function _vfprintf
  4175  1D8F                     _vfprintf:
  4176                           
  4177                           ;incstack = 0
  4178                           ; Regs used in _vfprintf: [wreg-fsr1h+status,2+status,0+pclath+cstack]
  4179                           ;vfprintf@fp stored from wreg
  4180  1D8F  0021               	movlb	1	; select bank1
  4181  1D90  00D9               	movwf	vfprintf@fp^(0+128)
  4182  1D91                     l3954:
  4183                           
  4184                           ;C:\Program Files\Microchip\xc8\v2.32\pic\sources\c99\common\doprnt.c: 1390: int vfprint
      +                          f(FILE *fp, const char *fmt, va_list ap);C:\Program Files\Microchip\xc8\v2.32\pic\source
      +                          s\c99\common\doprnt.c: 1391: {;C:\Program Files\Microchip\xc8\v2.32\pic\sources\c99\comm
      +                          on\doprnt.c: 1393:     char *cfmt;;C:\Program Files\Microchip\xc8\v2.32\pic\sources\c99\
      +                          common\doprnt.c: 1395:     cfmt = (char *)fmt;
  4185  1D91  0020               	movlb	0	; select bank0
  4186  1D92  086C               	movf	vfprintf@fmt+1,w
  4187  1D93  0021               	movlb	1	; select bank1
  4188  1D94  00DB               	movwf	(vfprintf@cfmt+1)^(0+128)
  4189  1D95  0020               	movlb	0	; select bank0
  4190  1D96  086B               	movf	vfprintf@fmt,w
  4191  1D97  0021               	movlb	1	; select bank1
  4192  1D98  00DA               	movwf	vfprintf@cfmt^(0+128)
  4193  1D99                     l3956:
  4194                           
  4195                           ;C:\Program Files\Microchip\xc8\v2.32\pic\sources\c99\common\doprnt.c: 1396:     nout = 
      +                          0;
  4196  1D99  0022               	movlb	2	; select bank2
  4197  1D9A  01D6               	clrf	_nout^(0+256)
  4198  1D9B  01D7               	clrf	(_nout+1)^(0+256)
  4199                           
  4200                           ;C:\Program Files\Microchip\xc8\v2.32\pic\sources\c99\common\doprnt.c: 1397:     while (
      +                          *cfmt) {
  4201  1D9C  2DB3               	goto	l3960
  4202  1D9D                     l3958:
  4203                           
  4204                           ;C:\Program Files\Microchip\xc8\v2.32\pic\sources\c99\common\doprnt.c: 1398:         nou
      +                          t += vfpfcnvrt(fp, &cfmt, ap);
  4205  1D9D  30DA               	movlw	(low (vfprintf@cfmt| 0))& (0+255)
  4206  1D9E  0020               	movlb	0	; select bank0
  4207  1D9F  00EE               	movwf	??_vfprintf
  4208  1DA0  086E               	movf	??_vfprintf,w
  4209  1DA1  00CF               	movwf	vfpfcnvrt@fmt
  4210  1DA2  086D               	movf	vfprintf@ap,w
  4211  1DA3  00EF               	movwf	??_vfprintf+1
  4212  1DA4  086F               	movf	??_vfprintf+1,w
  4213  1DA5  00D0               	movwf	vfpfcnvrt@ap
  4214  1DA6  0021               	movlb	1	; select bank1
  4215  1DA7  0859               	movf	vfprintf@fp^(0+128),w
  4216  1DA8  3189  2132  319D   	fcall	_vfpfcnvrt
  4217  1DAB  0020               	movlb	0	; select bank0
  4218  1DAC  084F               	movf	?_vfpfcnvrt,w
  4219  1DAD  0022               	movlb	2	; select bank2
  4220  1DAE  07D6               	addwf	_nout^(0+256),f
  4221  1DAF  0020               	movlb	0	; select bank0
  4222  1DB0  0850               	movf	?_vfpfcnvrt+1,w
  4223  1DB1  0022               	movlb	2	; select bank2
  4224  1DB2  3DD7               	addwfc	(_nout+1)^(0+256),f
  4225  1DB3                     l3960:
  4226                           
  4227                           ;C:\Program Files\Microchip\xc8\v2.32\pic\sources\c99\common\doprnt.c: 1397:     while (
      +                          *cfmt) {
  4228  1DB3  0021               	movlb	1	; select bank1
  4229  1DB4  085A               	movf	vfprintf@cfmt^(0+128),w
  4230  1DB5  0084               	movwf	4
  4231  1DB6  085B               	movf	(vfprintf@cfmt+1)^(0+128),w
  4232  1DB7  0085               	movwf	5
  4233  1DB8  0012               	moviw fsr0++
  4234  1DB9  1D03               	btfss	3,2
  4235  1DBA  2DBC               	goto	u6101
  4236  1DBB  2DBD               	goto	u6100
  4237  1DBC                     u6101:
  4238  1DBC  2D9D               	goto	l3958
  4239  1DBD                     u6100:
  4240  1DBD                     l3962:
  4241                           
  4242                           ;C:\Program Files\Microchip\xc8\v2.32\pic\sources\c99\common\doprnt.c: 1400:     return 
      +                          nout;
  4243  1DBD  0022               	movlb	2	; select bank2
  4244  1DBE  0857               	movf	(_nout+1)^(0+256),w
  4245  1DBF  0020               	movlb	0	; select bank0
  4246  1DC0  00EC               	movwf	?_vfprintf+1
  4247  1DC1  0022               	movlb	2	; select bank2
  4248  1DC2  0856               	movf	_nout^(0+256),w
  4249  1DC3  0020               	movlb	0	; select bank0
  4250  1DC4  00EB               	movwf	?_vfprintf
  4251  1DC5                     l938:
  4252  1DC5  0008               	return
  4253  1DC6                     __end_of_vfprintf:
  4254                           
  4255                           	psect	text7
  4256  0932                     __ptext7:	
  4257 ;; *************** function _vfpfcnvrt *****************
  4258 ;; Defined at:
  4259 ;;		line 692 in file "C:\Program Files\Microchip\xc8\v2.32\pic\sources\c99\common\doprnt.c"
  4260 ;; Parameters:    Size  Location     Type
  4261 ;;  fp              1    wreg     PTR struct _IO_FILE
  4262 ;;		 -> NULL(0), sprintf@f(5), 
  4263 ;;  fmt             1   47[BANK0 ] PTR PTR unsigned char 
  4264 ;;		 -> vfprintf@cfmt(2), 
  4265 ;;  ap              1   48[BANK0 ] PTR PTR void 
  4266 ;;		 -> printf@ap(1), sprintf@ap(1), 
  4267 ;; Auto vars:     Size  Location     Type
  4268 ;;  fp              1   74[BANK0 ] PTR struct _IO_FILE
  4269 ;;		 -> NULL(0), sprintf@f(5), 
  4270 ;;  ll              8   55[BANK0 ] long long 
  4271 ;;  llu             8    0        unsigned long long 
  4272 ;;  f               4   66[BANK0 ] unsigned long long 
  4273 ;;  ct              3   70[BANK0 ] unsigned char [3]
  4274 ;;  i               2    0        int 
  4275 ;;  done            2    0        int 
  4276 ;;  cp              2    0        PTR unsigned char 
  4277 ;;  c               1   73[BANK0 ] unsigned char 
  4278 ;;  vp              1   65[BANK0 ] PTR void 
  4279 ;;		 -> ?_printf(2), ?_sprintf(2), 
  4280 ;; Return value:  Size  Location     Type
  4281 ;;                  2   47[BANK0 ] int 
  4282 ;; Registers used:
  4283 ;;		wreg, fsr0l, fsr0h, fsr1l, fsr1h, status,2, status,0, pclath, cstack
  4284 ;; Tracked objects:
  4285 ;;		On entry : 0/0
  4286 ;;		On exit  : 0/0
  4287 ;;		Unchanged: 0/0
  4288 ;; Data sizes:     COMMON   BANK0   BANK1   BANK2   BANK3   BANK4   BANK5   BANK6   BANK7   BANK8   BANK9  BANK10  BANK1
      +1  BANK12
  4289 ;;      Params:         0       2       0       0       0       0       0       0       0       0       0       0       
      +0       0
  4290 ;;      Locals:         0      20       0       0       0       0       0       0       0       0       0       0       
      +0       0
  4291 ;;      Temps:          0       6       0       0       0       0       0       0       0       0       0       0       
      +0       0
  4292 ;;      Totals:         0      28       0       0       0       0       0       0       0       0       0       0       
      +0       0
  4293 ;;Total ram usage:       28 bytes
  4294 ;; Hardware stack levels used: 1
  4295 ;; Hardware stack levels required when called: 6
  4296 ;; This function calls:
  4297 ;;		_dtoa
  4298 ;;		_efgtoa
  4299 ;;		_fputc
  4300 ;;		_isupper
  4301 ;;		_strncmp
  4302 ;;		_tolower
  4303 ;; This function is called by:
  4304 ;;		_vfprintf
  4305 ;; This function uses a non-reentrant model
  4306 ;;
  4307                           
  4308                           
  4309                           ;psect for function _vfpfcnvrt
  4310  0932                     _vfpfcnvrt:
  4311                           
  4312                           ;incstack = 0
  4313                           ; Regs used in _vfpfcnvrt: [wreg-fsr1h+status,2+status,0+pclath+cstack]
  4314                           ;vfpfcnvrt@fp stored from wreg
  4315  0932  0020               	movlb	0	; select bank0
  4316  0933  00EA               	movwf	vfpfcnvrt@fp
  4317  0934                     l3834:
  4318                           
  4319                           ;C:\Program Files\Microchip\xc8\v2.32\pic\sources\c99\common\doprnt.c: 692: static int v
      +                          fpfcnvrt(FILE *fp, char *fmt[], va_list ap);C:\Program Files\Microchip\xc8\v2.32\pic\sou
      +                          rces\c99\common\doprnt.c: 693: {;C:\Program Files\Microchip\xc8\v2.32\pic\sources\c99\co
      +                          mmon\doprnt.c: 694:     char c, *cp, ct[3];;C:\Program Files\Microchip\xc8\v2.32\pic\sou
      +                          rces\c99\common\doprnt.c: 695:     int done, i;;C:\Program Files\Microchip\xc8\v2.32\pic
      +                          \sources\c99\common\doprnt.c: 696:     long long ll;;C:\Program Files\Microchip\xc8\v2.3
      +                          2\pic\sources\c99\common\doprnt.c: 697:     unsigned long long llu;
  4320  0934  084F               	movf	vfpfcnvrt@fmt,w
  4321  0935  0086               	movwf	6
  4322  0936  0187               	clrf	7
  4323  0937  3F40               	moviw [0]fsr1
  4324  0938  00D1               	movwf	??_vfpfcnvrt
  4325  0939  3F41               	moviw [1]fsr1
  4326  093A  00D2               	movwf	??_vfpfcnvrt+1
  4327  093B  0851               	movf	??_vfpfcnvrt,w
  4328  093C  0084               	movwf	4
  4329  093D  0852               	movf	??_vfpfcnvrt+1,w
  4330  093E  0085               	movwf	5
  4331  093F  0012               	moviw fsr0++
  4332  0940  3A25               	xorlw	37
  4333  0941  1D03               	btfss	3,2
  4334  0942  2944               	goto	u5911
  4335  0943  2945               	goto	u5910
  4336  0944                     u5911:
  4337  0944  2B46               	goto	l3922
  4338  0945                     u5910:
  4339  0945                     l3836:
  4340                           
  4341                           ;C:\Program Files\Microchip\xc8\v2.32\pic\sources\c99\common\doprnt.c: 703:         ++*f
      +                          mt;
  4342  0945  084F               	movf	vfpfcnvrt@fmt,w
  4343  0946  0086               	movwf	6
  4344  0947  0187               	clrf	7
  4345  0948  3001               	movlw	1
  4346  0949  0781               	addwf	1,f
  4347  094A  3141               	addfsr 1,1
  4348  094B  1803               	skipnc
  4349  094C  0A81               	incf	1,f
  4350  094D                     l3838:
  4351                           
  4352                           ;C:\Program Files\Microchip\xc8\v2.32\pic\sources\c99\common\doprnt.c: 705:         flag
      +                          s = width = 0;
  4353  094D  0022               	movlb	2	; select bank2
  4354  094E  01D8               	clrf	_width^(0+256)
  4355  094F  01D9               	clrf	(_width+1)^(0+256)
  4356  0950  01DC               	clrf	_flags^(0+256)
  4357  0951  01DD               	clrf	(_flags+1)^(0+256)
  4358  0952                     l3840:
  4359                           
  4360                           ;C:\Program Files\Microchip\xc8\v2.32\pic\sources\c99\common\doprnt.c: 706:         prec
      +                           = -1;
  4361  0952  30FF               	movlw	255
  4362  0953  00DA               	movwf	_prec^(0+256)
  4363  0954  30FF               	movlw	255
  4364  0955  00DB               	movwf	(_prec^(0+256)+1)
  4365  0956                     l3842:
  4366                           
  4367                           ;C:\Program Files\Microchip\xc8\v2.32\pic\sources\c99\common\doprnt.c: 779:         ct[0
      +                          ] = (char)tolower((int)(*fmt)[0]);
  4368  0956  0020               	movlb	0	; select bank0
  4369  0957  084F               	movf	vfpfcnvrt@fmt,w
  4370  0958  0086               	movwf	6
  4371  0959  0187               	clrf	7
  4372  095A  3F40               	moviw [0]fsr1
  4373  095B  00D1               	movwf	??_vfpfcnvrt
  4374  095C  3F41               	moviw [1]fsr1
  4375  095D  00D2               	movwf	??_vfpfcnvrt+1
  4376  095E  0851               	movf	??_vfpfcnvrt,w
  4377  095F  0084               	movwf	4
  4378  0960  0852               	movf	??_vfpfcnvrt+1,w
  4379  0961  0085               	movwf	5
  4380  0962  0800               	movf	0,w	;code access
  4381  0963  00D3               	movwf	??_vfpfcnvrt+2
  4382  0964  01D4               	clrf	??_vfpfcnvrt+3
  4383  0965  0853               	movf	??_vfpfcnvrt+2,w
  4384  0966  00F6               	movwf	tolower@c
  4385  0967  0854               	movf	??_vfpfcnvrt+3,w
  4386  0968  00F7               	movwf	tolower@c+1
  4387  0969  319D  2518  3189   	fcall	_tolower
  4388  096C  0876               	movf	?_tolower,w
  4389  096D  0020               	movlb	0	; select bank0
  4390  096E  00D5               	movwf	??_vfpfcnvrt+4
  4391  096F  0855               	movf	??_vfpfcnvrt+4,w
  4392  0970  00E6               	movwf	vfpfcnvrt@ct
  4393  0971                     l3844:
  4394                           
  4395                           ;C:\Program Files\Microchip\xc8\v2.32\pic\sources\c99\common\doprnt.c: 780:         if (
      +                          ct[0]) {
  4396  0971  0866               	movf	vfpfcnvrt@ct,w
  4397  0972  1903               	btfsc	3,2
  4398  0973  2975               	goto	u5921
  4399  0974  2976               	goto	u5920
  4400  0975                     u5921:
  4401  0975  29B5               	goto	l3852
  4402  0976                     u5920:
  4403  0976                     l3846:
  4404                           
  4405                           ;C:\Program Files\Microchip\xc8\v2.32\pic\sources\c99\common\doprnt.c: 781:             
      +                          ct[1] = (char)tolower((int)(*fmt)[1]);
  4406  0976  084F               	movf	vfpfcnvrt@fmt,w
  4407  0977  0086               	movwf	6
  4408  0978  0187               	clrf	7
  4409  0979  3F40               	moviw [0]fsr1
  4410  097A  00D1               	movwf	??_vfpfcnvrt
  4411  097B  3F41               	moviw [1]fsr1
  4412  097C  00D2               	movwf	??_vfpfcnvrt+1
  4413  097D  3001               	movlw	1
  4414  097E  0751               	addwf	??_vfpfcnvrt,w
  4415  097F  0084               	movwf	4
  4416  0980  0852               	movf	??_vfpfcnvrt+1,w
  4417  0981  1803               	skipnc
  4418  0982  0A52               	incf	??_vfpfcnvrt+1,w
  4419  0983  0085               	movwf	5
  4420  0984  0800               	movf	0,w	;code access
  4421  0985  00D3               	movwf	??_vfpfcnvrt+2
  4422  0986  01D4               	clrf	??_vfpfcnvrt+3
  4423  0987  0853               	movf	??_vfpfcnvrt+2,w
  4424  0988  00F6               	movwf	tolower@c
  4425  0989  0854               	movf	??_vfpfcnvrt+3,w
  4426  098A  00F7               	movwf	tolower@c+1
  4427  098B  319D  2518  3189   	fcall	_tolower
  4428  098E  0876               	movf	?_tolower,w
  4429  098F  0020               	movlb	0	; select bank0
  4430  0990  00D5               	movwf	??_vfpfcnvrt+4
  4431  0991  0855               	movf	??_vfpfcnvrt+4,w
  4432  0992  00E7               	movwf	vfpfcnvrt@ct+1
  4433  0993                     l3848:
  4434                           
  4435                           ;C:\Program Files\Microchip\xc8\v2.32\pic\sources\c99\common\doprnt.c: 782:             
      +                          if (ct[1]) {
  4436  0993  0867               	movf	vfpfcnvrt@ct+1,w
  4437  0994  1903               	btfsc	3,2
  4438  0995  2997               	goto	u5931
  4439  0996  2998               	goto	u5930
  4440  0997                     u5931:
  4441  0997  29B5               	goto	l3852
  4442  0998                     u5930:
  4443  0998                     l3850:
  4444                           
  4445                           ;C:\Program Files\Microchip\xc8\v2.32\pic\sources\c99\common\doprnt.c: 783:             
      +                              ct[2] = (char)tolower((int)(*fmt)[2]);
  4446  0998  084F               	movf	vfpfcnvrt@fmt,w
  4447  0999  0086               	movwf	6
  4448  099A  0187               	clrf	7
  4449  099B  3F40               	moviw [0]fsr1
  4450  099C  00D1               	movwf	??_vfpfcnvrt
  4451  099D  3F41               	moviw [1]fsr1
  4452  099E  00D2               	movwf	??_vfpfcnvrt+1
  4453  099F  3002               	movlw	2
  4454  09A0  0751               	addwf	??_vfpfcnvrt,w
  4455  09A1  0084               	movwf	4
  4456  09A2  0852               	movf	??_vfpfcnvrt+1,w
  4457  09A3  1803               	skipnc
  4458  09A4  0A52               	incf	??_vfpfcnvrt+1,w
  4459  09A5  0085               	movwf	5
  4460  09A6  0800               	movf	0,w	;code access
  4461  09A7  00D3               	movwf	??_vfpfcnvrt+2
  4462  09A8  01D4               	clrf	??_vfpfcnvrt+3
  4463  09A9  0853               	movf	??_vfpfcnvrt+2,w
  4464  09AA  00F6               	movwf	tolower@c
  4465  09AB  0854               	movf	??_vfpfcnvrt+3,w
  4466  09AC  00F7               	movwf	tolower@c+1
  4467  09AD  319D  2518  3189   	fcall	_tolower
  4468  09B0  0876               	movf	?_tolower,w
  4469  09B1  0020               	movlb	0	; select bank0
  4470  09B2  00D5               	movwf	??_vfpfcnvrt+4
  4471  09B3  0855               	movf	??_vfpfcnvrt+4,w
  4472  09B4  00E8               	movwf	vfpfcnvrt@ct+2
  4473  09B5                     l3852:
  4474                           
  4475                           ;C:\Program Files\Microchip\xc8\v2.32\pic\sources\c99\common\doprnt.c: 847:         if (
      +                          (*fmt[0] == 'd') || (*fmt[0] == 'i')) {
  4476  09B5  084F               	movf	vfpfcnvrt@fmt,w
  4477  09B6  0086               	movwf	6
  4478  09B7  0187               	clrf	7
  4479  09B8  3F40               	moviw [0]fsr1
  4480  09B9  00D1               	movwf	??_vfpfcnvrt
  4481  09BA  3F41               	moviw [1]fsr1
  4482  09BB  00D2               	movwf	??_vfpfcnvrt+1
  4483  09BC  0851               	movf	??_vfpfcnvrt,w
  4484  09BD  0084               	movwf	4
  4485  09BE  0852               	movf	??_vfpfcnvrt+1,w
  4486  09BF  0085               	movwf	5
  4487  09C0  0012               	moviw fsr0++
  4488  09C1  3A64               	xorlw	100
  4489  09C2  1903               	btfsc	3,2
  4490  09C3  29C5               	goto	u5941
  4491  09C4  29C6               	goto	u5940
  4492  09C5                     u5941:
  4493  09C5  29D7               	goto	l3856
  4494  09C6                     u5940:
  4495  09C6                     l3854:
  4496  09C6  084F               	movf	vfpfcnvrt@fmt,w
  4497  09C7  0086               	movwf	6
  4498  09C8  0187               	clrf	7
  4499  09C9  3F40               	moviw [0]fsr1
  4500  09CA  00D1               	movwf	??_vfpfcnvrt
  4501  09CB  3F41               	moviw [1]fsr1
  4502  09CC  00D2               	movwf	??_vfpfcnvrt+1
  4503  09CD  0851               	movf	??_vfpfcnvrt,w
  4504  09CE  0084               	movwf	4
  4505  09CF  0852               	movf	??_vfpfcnvrt+1,w
  4506  09D0  0085               	movwf	5
  4507  09D1  0012               	moviw fsr0++
  4508  09D2  3A69               	xorlw	105
  4509  09D3  1D03               	btfss	3,2
  4510  09D4  29D6               	goto	u5951
  4511  09D5  29D7               	goto	u5950
  4512  09D6                     u5951:
  4513  09D6  2A12               	goto	l3864
  4514  09D7                     u5950:
  4515  09D7                     l3856:
  4516                           
  4517                           ;C:\Program Files\Microchip\xc8\v2.32\pic\sources\c99\common\doprnt.c: 849:             
      +                          ++*fmt;
  4518  09D7  084F               	movf	vfpfcnvrt@fmt,w
  4519  09D8  0086               	movwf	6
  4520  09D9  0187               	clrf	7
  4521  09DA  3001               	movlw	1
  4522  09DB  0781               	addwf	1,f
  4523  09DC  3141               	addfsr 1,1
  4524  09DD  1803               	skipnc
  4525  09DE  0A81               	incf	1,f
  4526  09DF                     l3858:
  4527                           
  4528                           ;C:\Program Files\Microchip\xc8\v2.32\pic\sources\c99\common\doprnt.c: 850:             
      +                          ll = (long long)(*(int *)__va_arg(*(int **)ap, (int)0));
  4529  09DF  0850               	movf	vfpfcnvrt@ap,w
  4530  09E0  0086               	movwf	6
  4531  09E1  0187               	clrf	7
  4532  09E2  0801               	movf	1,w
  4533  09E3  0084               	movwf	4
  4534  09E4  0185               	clrf	5
  4535  09E5  3002               	movlw	2
  4536  09E6  0781               	addwf	1,f
  4537  09E7  3F00               	moviw [0]fsr0
  4538  09E8  00D1               	movwf	??_vfpfcnvrt
  4539  09E9  3F01               	moviw [1]fsr0
  4540  09EA  00D2               	movwf	??_vfpfcnvrt+1
  4541  09EB  0851               	movf	??_vfpfcnvrt,w
  4542  09EC  00D7               	movwf	vfpfcnvrt@ll
  4543  09ED  0852               	movf	??_vfpfcnvrt+1,w
  4544  09EE  00D8               	movwf	vfpfcnvrt@ll+1
  4545  09EF  0D89               	rlf	9,f
  4546  09F0  3B89               	subwfb	9,f
  4547  09F1  0989               	comf	9,f
  4548  09F2  00D9               	movwf	vfpfcnvrt@ll+2
  4549  09F3  00DA               	movwf	vfpfcnvrt@ll+3
  4550  09F4  00DB               	movwf	vfpfcnvrt@ll+4
  4551  09F5  00DC               	movwf	vfpfcnvrt@ll+5
  4552  09F6  00DD               	movwf	vfpfcnvrt@ll+6
  4553  09F7  00DE               	movwf	vfpfcnvrt@ll+7
  4554  09F8                     l3860:
  4555                           
  4556                           ;C:\Program Files\Microchip\xc8\v2.32\pic\sources\c99\common\doprnt.c: 852:             
      +                          return dtoa(fp, ll);
  4557  09F8  0857               	movf	vfpfcnvrt@ll,w
  4558  09F9  00B0               	movwf	dtoa@d
  4559  09FA  0858               	movf	vfpfcnvrt@ll+1,w
  4560  09FB  00B1               	movwf	dtoa@d+1
  4561  09FC  0859               	movf	vfpfcnvrt@ll+2,w
  4562  09FD  00B2               	movwf	dtoa@d+2
  4563  09FE  085A               	movf	vfpfcnvrt@ll+3,w
  4564  09FF  00B3               	movwf	dtoa@d+3
  4565  0A00  085B               	movf	vfpfcnvrt@ll+4,w
  4566  0A01  00B4               	movwf	dtoa@d+4
  4567  0A02  085C               	movf	vfpfcnvrt@ll+5,w
  4568  0A03  00B5               	movwf	dtoa@d+5
  4569  0A04  085D               	movf	vfpfcnvrt@ll+6,w
  4570  0A05  00B6               	movwf	dtoa@d+6
  4571  0A06  085E               	movf	vfpfcnvrt@ll+7,w
  4572  0A07  00B7               	movwf	dtoa@d+7
  4573  0A08  086A               	movf	vfpfcnvrt@fp,w
  4574  0A09  3194  24DC  3189   	fcall	_dtoa
  4575  0A0C  0020               	movlb	0	; select bank0
  4576  0A0D  0831               	movf	?_dtoa+1,w
  4577  0A0E  00D0               	movwf	?_vfpfcnvrt+1
  4578  0A0F  0830               	movf	?_dtoa,w
  4579  0A10  00CF               	movwf	?_vfpfcnvrt
  4580  0A11  2B69               	goto	l922
  4581  0A12                     l3864:
  4582                           
  4583                           ;C:\Program Files\Microchip\xc8\v2.32\pic\sources\c99\common\doprnt.c: 942:         if (
      +                          ct[0] == 'f') {
  4584  0A12  3066               	movlw	102
  4585  0A13  0666               	xorwf	vfpfcnvrt@ct,w
  4586  0A14  1D03               	btfss	3,2
  4587  0A15  2A17               	goto	u5961
  4588  0A16  2A18               	goto	u5960
  4589  0A17                     u5961:
  4590  0A17  2A55               	goto	l3876
  4591  0A18                     u5960:
  4592  0A18                     l3866:
  4593                           
  4594                           ;C:\Program Files\Microchip\xc8\v2.32\pic\sources\c99\common\doprnt.c: 944:             
      +                          c = (*fmt)[0];
  4595  0A18  084F               	movf	vfpfcnvrt@fmt,w
  4596  0A19  0086               	movwf	6
  4597  0A1A  0187               	clrf	7
  4598  0A1B  3F40               	moviw [0]fsr1
  4599  0A1C  00D1               	movwf	??_vfpfcnvrt
  4600  0A1D  3F41               	moviw [1]fsr1
  4601  0A1E  00D2               	movwf	??_vfpfcnvrt+1
  4602  0A1F  0851               	movf	??_vfpfcnvrt,w
  4603  0A20  0084               	movwf	4
  4604  0A21  0852               	movf	??_vfpfcnvrt+1,w
  4605  0A22  0085               	movwf	5
  4606  0A23  0800               	movf	0,w	;code access
  4607  0A24  00D3               	movwf	??_vfpfcnvrt+2
  4608  0A25  0853               	movf	??_vfpfcnvrt+2,w
  4609  0A26  00E9               	movwf	vfpfcnvrt@c
  4610  0A27                     l3868:
  4611                           
  4612                           ;C:\Program Files\Microchip\xc8\v2.32\pic\sources\c99\common\doprnt.c: 945:             
      +                          ++*fmt;
  4613  0A27  084F               	movf	vfpfcnvrt@fmt,w
  4614  0A28  0086               	movwf	6
  4615  0A29  0187               	clrf	7
  4616  0A2A  3001               	movlw	1
  4617  0A2B  0781               	addwf	1,f
  4618  0A2C  3141               	addfsr 1,1
  4619  0A2D  1803               	skipnc
  4620  0A2E  0A81               	incf	1,f
  4621  0A2F                     l3870:
  4622                           
  4623                           ;C:\Program Files\Microchip\xc8\v2.32\pic\sources\c99\common\doprnt.c: 946:             
      +                          f = (long double)(*(double *)__va_arg(*(double **)ap, (double)0));
  4624  0A2F  0850               	movf	vfpfcnvrt@ap,w
  4625  0A30  0086               	movwf	6
  4626  0A31  0187               	clrf	7
  4627  0A32  0801               	movf	1,w
  4628  0A33  0084               	movwf	4
  4629  0A34  0185               	clrf	5
  4630  0A35  3004               	movlw	4
  4631  0A36  0781               	addwf	1,f
  4632  0A37  3F00               	moviw [0]fsr0
  4633  0A38  00E2               	movwf	vfpfcnvrt@f
  4634  0A39  3F01               	moviw [1]fsr0
  4635  0A3A  00E3               	movwf	vfpfcnvrt@f+1
  4636  0A3B  3F02               	moviw [2]fsr0
  4637  0A3C  00E4               	movwf	vfpfcnvrt@f+2
  4638  0A3D  3F03               	moviw [3]fsr0
  4639  0A3E  00E5               	movwf	vfpfcnvrt@f+3
  4640  0A3F                     l3872:
  4641                           
  4642                           ;C:\Program Files\Microchip\xc8\v2.32\pic\sources\c99\common\doprnt.c: 948:             
      +                          return efgtoa(fp, f, c);
  4643  0A3F  0865               	movf	vfpfcnvrt@f+3,w
  4644  0A40  00C9               	movwf	efgtoa@f+3
  4645  0A41  0864               	movf	vfpfcnvrt@f+2,w
  4646  0A42  00C8               	movwf	efgtoa@f+2
  4647  0A43  0863               	movf	vfpfcnvrt@f+1,w
  4648  0A44  00C7               	movwf	efgtoa@f+1
  4649  0A45  0862               	movf	vfpfcnvrt@f,w
  4650  0A46  00C6               	movwf	efgtoa@f
  4651  0A47  0869               	movf	vfpfcnvrt@c,w
  4652  0A48  00D1               	movwf	??_vfpfcnvrt
  4653  0A49  0851               	movf	??_vfpfcnvrt,w
  4654  0A4A  00CA               	movwf	efgtoa@c
  4655  0A4B  086A               	movf	vfpfcnvrt@fp,w
  4656  0A4C  3180  20A8  3189   	fcall	_efgtoa
  4657  0A4F  0020               	movlb	0	; select bank0
  4658  0A50  0847               	movf	?_efgtoa+1,w
  4659  0A51  00D0               	movwf	?_vfpfcnvrt+1
  4660  0A52  0846               	movf	?_efgtoa,w
  4661  0A53  00CF               	movwf	?_vfpfcnvrt
  4662  0A54  2B69               	goto	l922
  4663  0A55                     l3876:
  4664                           
  4665                           ;C:\Program Files\Microchip\xc8\v2.32\pic\sources\c99\common\doprnt.c: 950:         if (
      +                          !strncmp(ct, "lf", ((sizeof("lf")/sizeof("lf"[0]))-1))) {
  4666  0A55  304C               	movlw	low (STR_12| (0+32768))
  4667  0A56  00F0               	movwf	strncmp@_r
  4668  0A57  3098               	movlw	high (STR_12| (0+32768))
  4669  0A58  00F1               	movwf	strncmp@_r+1
  4670  0A59  3002               	movlw	2
  4671  0A5A  00F2               	movwf	strncmp@n
  4672  0A5B  3000               	movlw	0
  4673  0A5C  00F3               	movwf	strncmp@n+1
  4674  0A5D  3066               	movlw	(low (vfpfcnvrt@ct| 0))& (0+255)
  4675  0A5E  319E  26F5  3189   	fcall	_strncmp
  4676  0A61  0870               	movf	?_strncmp,w
  4677  0A62  0471               	iorwf	?_strncmp+1,w
  4678  0A63  1D03               	btfss	3,2
  4679  0A64  2A66               	goto	u5971
  4680  0A65  2A67               	goto	u5970
  4681  0A66                     u5971:
  4682  0A66  2AE2               	goto	l3894
  4683  0A67                     u5970:
  4684  0A67                     l3878:
  4685                           
  4686                           ;C:\Program Files\Microchip\xc8\v2.32\pic\sources\c99\common\doprnt.c: 953:             
      +                          if ((0 ? isupper((int)(*fmt)[0]) : ((unsigned)((int)(*fmt)[0])-'A') < 26)) {
  4687  0A67  0020               	movlb	0	; select bank0
  4688  0A68  084F               	movf	vfpfcnvrt@fmt,w
  4689  0A69  0086               	movwf	6
  4690  0A6A  0187               	clrf	7
  4691  0A6B  3F40               	moviw [0]fsr1
  4692  0A6C  00D1               	movwf	??_vfpfcnvrt
  4693  0A6D  3F41               	moviw [1]fsr1
  4694  0A6E  00D2               	movwf	??_vfpfcnvrt+1
  4695  0A6F  3001               	movlw	1
  4696  0A70  0751               	addwf	??_vfpfcnvrt,w
  4697  0A71  0084               	movwf	4
  4698  0A72  0852               	movf	??_vfpfcnvrt+1,w
  4699  0A73  1803               	skipnc
  4700  0A74  0A52               	incf	??_vfpfcnvrt+1,w
  4701  0A75  0085               	movwf	5
  4702  0A76  0800               	movf	0,w	;code access
  4703  0A77  00D3               	movwf	??_vfpfcnvrt+2
  4704  0A78  0853               	movf	??_vfpfcnvrt+2,w
  4705  0A79  00E9               	movwf	vfpfcnvrt@c
  4706  0A7A  084F               	movf	vfpfcnvrt@fmt,w
  4707  0A7B  0086               	movwf	6
  4708  0A7C  0187               	clrf	7
  4709  0A7D  3F40               	moviw [0]fsr1
  4710  0A7E  00D1               	movwf	??_vfpfcnvrt
  4711  0A7F  3F41               	moviw [1]fsr1
  4712  0A80  00D2               	movwf	??_vfpfcnvrt+1
  4713  0A81  0851               	movf	??_vfpfcnvrt,w
  4714  0A82  0084               	movwf	4
  4715  0A83  0852               	movf	??_vfpfcnvrt+1,w
  4716  0A84  0085               	movwf	5
  4717  0A85  0800               	movf	0,w	;code access
  4718  0A86  3EBF               	addlw	191
  4719  0A87  00D3               	movwf	??_vfpfcnvrt+2
  4720  0A88  30FF               	movlw	255
  4721  0A89  1803               	skipnc
  4722  0A8A  3000               	movlw	0
  4723  0A8B  00D4               	movwf	??_vfpfcnvrt+3
  4724  0A8C  3000               	movlw	0
  4725  0A8D  0254               	subwf	??_vfpfcnvrt+3,w
  4726  0A8E  301A               	movlw	26
  4727  0A8F  1903               	skipnz
  4728  0A90  0253               	subwf	??_vfpfcnvrt+2,w
  4729  0A91  1C03               	skipc
  4730  0A92  2A94               	goto	u5981
  4731  0A93  2A96               	goto	u5980
  4732  0A94                     u5981:
  4733  0A94  3001               	movlw	1
  4734  0A95  2A97               	goto	u5990
  4735  0A96                     u5980:
  4736  0A96  3000               	movlw	0
  4737  0A97                     u5990:
  4738  0A97  00D5               	movwf	??_vfpfcnvrt+4
  4739  0A98  01D6               	clrf	??_vfpfcnvrt+5
  4740  0A99  0855               	movf	??_vfpfcnvrt+4,w
  4741  0A9A  00DF               	movwf	_vfpfcnvrt$754
  4742  0A9B  0856               	movf	??_vfpfcnvrt+5,w
  4743  0A9C  00E0               	movwf	_vfpfcnvrt$754+1
  4744  0A9D                     l3882:
  4745  0A9D  085F               	movf	_vfpfcnvrt$754,w
  4746  0A9E  0460               	iorwf	_vfpfcnvrt$754+1,w
  4747  0A9F  1903               	btfsc	3,2
  4748  0AA0  2AA2               	goto	u6001
  4749  0AA1  2AA3               	goto	u6000
  4750  0AA2                     u6001:
  4751  0AA2  2AB4               	goto	l3886
  4752  0AA3                     u6000:
  4753  0AA3                     l3884:
  4754                           
  4755                           ;C:\Program Files\Microchip\xc8\v2.32\pic\sources\c99\common\doprnt.c: 954:             
      +                              f = (*(long double *)__va_arg(*(long double **)ap, (long double)0));
  4756  0AA3  0850               	movf	vfpfcnvrt@ap,w
  4757  0AA4  0086               	movwf	6
  4758  0AA5  0187               	clrf	7
  4759  0AA6  0801               	movf	1,w
  4760  0AA7  0084               	movwf	4
  4761  0AA8  0185               	clrf	5
  4762  0AA9  3004               	movlw	4
  4763  0AAA  0781               	addwf	1,f
  4764  0AAB  3F00               	moviw [0]fsr0
  4765  0AAC  00E2               	movwf	vfpfcnvrt@f
  4766  0AAD  3F01               	moviw [1]fsr0
  4767  0AAE  00E3               	movwf	vfpfcnvrt@f+1
  4768  0AAF  3F02               	moviw [2]fsr0
  4769  0AB0  00E4               	movwf	vfpfcnvrt@f+2
  4770  0AB1  3F03               	moviw [3]fsr0
  4771  0AB2  00E5               	movwf	vfpfcnvrt@f+3
  4772                           
  4773                           ;C:\Program Files\Microchip\xc8\v2.32\pic\sources\c99\common\doprnt.c: 955:             
      +                          } else {
  4774  0AB3  2AC4               	goto	l3888
  4775  0AB4                     l3886:
  4776                           
  4777                           ;C:\Program Files\Microchip\xc8\v2.32\pic\sources\c99\common\doprnt.c: 956:             
      +                              f = (long double)(*(double *)__va_arg(*(double **)ap, (double)0));
  4778  0AB4  0850               	movf	vfpfcnvrt@ap,w
  4779  0AB5  0086               	movwf	6
  4780  0AB6  0187               	clrf	7
  4781  0AB7  0801               	movf	1,w
  4782  0AB8  0084               	movwf	4
  4783  0AB9  0185               	clrf	5
  4784  0ABA  3004               	movlw	4
  4785  0ABB  0781               	addwf	1,f
  4786  0ABC  3F00               	moviw [0]fsr0
  4787  0ABD  00E2               	movwf	vfpfcnvrt@f
  4788  0ABE  3F01               	moviw [1]fsr0
  4789  0ABF  00E3               	movwf	vfpfcnvrt@f+1
  4790  0AC0  3F02               	moviw [2]fsr0
  4791  0AC1  00E4               	movwf	vfpfcnvrt@f+2
  4792  0AC2  3F03               	moviw [3]fsr0
  4793  0AC3  00E5               	movwf	vfpfcnvrt@f+3
  4794  0AC4                     l3888:
  4795                           
  4796                           ;C:\Program Files\Microchip\xc8\v2.32\pic\sources\c99\common\doprnt.c: 958:             
      +                          *fmt += ((sizeof("lf")/sizeof("lf"[0]))-1);
  4797  0AC4  084F               	movf	vfpfcnvrt@fmt,w
  4798  0AC5  0086               	movwf	6
  4799  0AC6  0187               	clrf	7
  4800  0AC7  3002               	movlw	2
  4801  0AC8  0781               	addwf	1,f
  4802  0AC9  3141               	addfsr 1,1
  4803  0ACA  1803               	skipnc
  4804  0ACB  0A81               	incf	1,f
  4805  0ACC                     l3890:
  4806                           
  4807                           ;C:\Program Files\Microchip\xc8\v2.32\pic\sources\c99\common\doprnt.c: 960:             
      +                          return efgtoa(fp, f, c);
  4808  0ACC  0865               	movf	vfpfcnvrt@f+3,w
  4809  0ACD  00C9               	movwf	efgtoa@f+3
  4810  0ACE  0864               	movf	vfpfcnvrt@f+2,w
  4811  0ACF  00C8               	movwf	efgtoa@f+2
  4812  0AD0  0863               	movf	vfpfcnvrt@f+1,w
  4813  0AD1  00C7               	movwf	efgtoa@f+1
  4814  0AD2  0862               	movf	vfpfcnvrt@f,w
  4815  0AD3  00C6               	movwf	efgtoa@f
  4816  0AD4  0869               	movf	vfpfcnvrt@c,w
  4817  0AD5  00D1               	movwf	??_vfpfcnvrt
  4818  0AD6  0851               	movf	??_vfpfcnvrt,w
  4819  0AD7  00CA               	movwf	efgtoa@c
  4820  0AD8  086A               	movf	vfpfcnvrt@fp,w
  4821  0AD9  3180  20A8  3189   	fcall	_efgtoa
  4822  0ADC  0020               	movlb	0	; select bank0
  4823  0ADD  0847               	movf	?_efgtoa+1,w
  4824  0ADE  00D0               	movwf	?_vfpfcnvrt+1
  4825  0ADF  0846               	movf	?_efgtoa,w
  4826  0AE0  00CF               	movwf	?_vfpfcnvrt
  4827  0AE1  2B69               	goto	l922
  4828  0AE2                     l3894:
  4829                           
  4830                           ;C:\Program Files\Microchip\xc8\v2.32\pic\sources\c99\common\doprnt.c: 1099:         if 
      +                          (*fmt[0] == 'n') {
  4831  0AE2  0020               	movlb	0	; select bank0
  4832  0AE3  084F               	movf	vfpfcnvrt@fmt,w
  4833  0AE4  0086               	movwf	6
  4834  0AE5  0187               	clrf	7
  4835  0AE6  3F40               	moviw [0]fsr1
  4836  0AE7  00D1               	movwf	??_vfpfcnvrt
  4837  0AE8  3F41               	moviw [1]fsr1
  4838  0AE9  00D2               	movwf	??_vfpfcnvrt+1
  4839  0AEA  0851               	movf	??_vfpfcnvrt,w
  4840  0AEB  0084               	movwf	4
  4841  0AEC  0852               	movf	??_vfpfcnvrt+1,w
  4842  0AED  0085               	movwf	5
  4843  0AEE  0012               	moviw fsr0++
  4844  0AEF  3A6E               	xorlw	110
  4845  0AF0  1D03               	btfss	3,2
  4846  0AF1  2AF3               	goto	u6011
  4847  0AF2  2AF4               	goto	u6010
  4848  0AF3                     u6011:
  4849  0AF3  2B13               	goto	l3906
  4850  0AF4                     u6010:
  4851  0AF4                     l3896:
  4852                           
  4853                           ;C:\Program Files\Microchip\xc8\v2.32\pic\sources\c99\common\doprnt.c: 1100:            
      +                           ++*fmt;
  4854  0AF4  084F               	movf	vfpfcnvrt@fmt,w
  4855  0AF5  0086               	movwf	6
  4856  0AF6  0187               	clrf	7
  4857  0AF7  3001               	movlw	1
  4858  0AF8  0781               	addwf	1,f
  4859  0AF9  3141               	addfsr 1,1
  4860  0AFA  1803               	skipnc
  4861  0AFB  0A81               	incf	1,f
  4862  0AFC                     l3898:
  4863                           
  4864                           ;C:\Program Files\Microchip\xc8\v2.32\pic\sources\c99\common\doprnt.c: 1101:            
      +                           vp = (void *)(*(int * *)__va_arg(*(int * **)ap, (int *)0));
  4865  0AFC  0850               	movf	vfpfcnvrt@ap,w
  4866  0AFD  0086               	movwf	6
  4867  0AFE  0187               	clrf	7
  4868  0AFF  3F40               	moviw [0]fsr1
  4869  0B00  0084               	movwf	4
  4870  0B01  0185               	clrf	5
  4871  0B02  0A81               	incf	1,f
  4872  0B03  0800               	movf	0,w
  4873  0B04  00D1               	movwf	??_vfpfcnvrt
  4874  0B05  0851               	movf	??_vfpfcnvrt,w
  4875  0B06  00E1               	movwf	vfpfcnvrt@vp
  4876  0B07                     l3900:
  4877                           
  4878                           ;C:\Program Files\Microchip\xc8\v2.32\pic\sources\c99\common\doprnt.c: 1102:            
      +                           *(int *)vp = nout;
  4879  0B07  0861               	movf	vfpfcnvrt@vp,w
  4880  0B08  0086               	movwf	6
  4881  0B09  0187               	clrf	7
  4882  0B0A  0022               	movlb	2	; select bank2
  4883  0B0B  0856               	movf	_nout^(0+256),w
  4884  0B0C  3FC0               	movwi [0]fsr1
  4885  0B0D  0857               	movf	(_nout+1)^(0+256),w
  4886  0B0E  3FC1               	movwi [1]fsr1
  4887  0B0F                     l3902:
  4888                           
  4889                           ;C:\Program Files\Microchip\xc8\v2.32\pic\sources\c99\common\doprnt.c: 1103:            
      +                           return 0;
  4890  0B0F  0020               	movlb	0	; select bank0
  4891  0B10  01CF               	clrf	?_vfpfcnvrt
  4892  0B11  01D0               	clrf	?_vfpfcnvrt+1
  4893  0B12  2B69               	goto	l922
  4894  0B13                     l3906:
  4895                           
  4896                           ;C:\Program Files\Microchip\xc8\v2.32\pic\sources\c99\common\doprnt.c: 1372:         if 
      +                          ((*fmt)[0] == '%') {
  4897  0B13  084F               	movf	vfpfcnvrt@fmt,w
  4898  0B14  0086               	movwf	6
  4899  0B15  0187               	clrf	7
  4900  0B16  3F40               	moviw [0]fsr1
  4901  0B17  00D1               	movwf	??_vfpfcnvrt
  4902  0B18  3F41               	moviw [1]fsr1
  4903  0B19  00D2               	movwf	??_vfpfcnvrt+1
  4904  0B1A  0851               	movf	??_vfpfcnvrt,w
  4905  0B1B  0084               	movwf	4
  4906  0B1C  0852               	movf	??_vfpfcnvrt+1,w
  4907  0B1D  0085               	movwf	5
  4908  0B1E  0012               	moviw fsr0++
  4909  0B1F  3A25               	xorlw	37
  4910  0B20  1D03               	btfss	3,2
  4911  0B21  2B23               	goto	u6021
  4912  0B22  2B24               	goto	u6020
  4913  0B23                     u6021:
  4914  0B23  2B3D               	goto	l3916
  4915  0B24                     u6020:
  4916  0B24                     l3908:
  4917                           
  4918                           ;C:\Program Files\Microchip\xc8\v2.32\pic\sources\c99\common\doprnt.c: 1373:            
      +                           ++*fmt;
  4919  0B24  084F               	movf	vfpfcnvrt@fmt,w
  4920  0B25  0086               	movwf	6
  4921  0B26  0187               	clrf	7
  4922  0B27  3001               	movlw	1
  4923  0B28  0781               	addwf	1,f
  4924  0B29  3141               	addfsr 1,1
  4925  0B2A  1803               	skipnc
  4926  0B2B  0A81               	incf	1,f
  4927  0B2C                     l3910:
  4928                           
  4929                           ;C:\Program Files\Microchip\xc8\v2.32\pic\sources\c99\common\doprnt.c: 1374:            
      +                           fputc((int)'%', fp);
  4930  0B2C  3025               	movlw	37
  4931  0B2D  00F3               	movwf	fputc@c
  4932  0B2E  3000               	movlw	0
  4933  0B2F  00F4               	movwf	fputc@c+1
  4934  0B30  086A               	movf	vfpfcnvrt@fp,w
  4935  0B31  00D1               	movwf	??_vfpfcnvrt
  4936  0B32  0851               	movf	??_vfpfcnvrt,w
  4937  0B33  00F5               	movwf	fputc@fp
  4938  0B34  319E  2652  3189   	fcall	_fputc
  4939  0B37                     l3912:
  4940                           
  4941                           ;C:\Program Files\Microchip\xc8\v2.32\pic\sources\c99\common\doprnt.c: 1375:            
      +                           return 1;
  4942  0B37  3001               	movlw	1
  4943  0B38  0020               	movlb	0	; select bank0
  4944  0B39  00CF               	movwf	?_vfpfcnvrt
  4945  0B3A  3000               	movlw	0
  4946  0B3B  00D0               	movwf	?_vfpfcnvrt+1
  4947  0B3C  2B69               	goto	l922
  4948  0B3D                     l3916:
  4949                           
  4950                           ;C:\Program Files\Microchip\xc8\v2.32\pic\sources\c99\common\doprnt.c: 1379:         ++*
      +                          fmt;
  4951  0B3D  084F               	movf	vfpfcnvrt@fmt,w
  4952  0B3E  0086               	movwf	6
  4953  0B3F  0187               	clrf	7
  4954  0B40  3001               	movlw	1
  4955  0B41  0781               	addwf	1,f
  4956  0B42  3141               	addfsr 1,1
  4957  0B43  1803               	skipnc
  4958  0B44  0A81               	incf	1,f
  4959  0B45  2B0F               	goto	l3902
  4960  0B46                     l3922:
  4961                           
  4962                           ;C:\Program Files\Microchip\xc8\v2.32\pic\sources\c99\common\doprnt.c: 1384:     fputc((
      +                          int)(*fmt)[0], fp);
  4963  0B46  084F               	movf	vfpfcnvrt@fmt,w
  4964  0B47  0086               	movwf	6
  4965  0B48  0187               	clrf	7
  4966  0B49  3F40               	moviw [0]fsr1
  4967  0B4A  00D1               	movwf	??_vfpfcnvrt
  4968  0B4B  3F41               	moviw [1]fsr1
  4969  0B4C  00D2               	movwf	??_vfpfcnvrt+1
  4970  0B4D  0851               	movf	??_vfpfcnvrt,w
  4971  0B4E  0084               	movwf	4
  4972  0B4F  0852               	movf	??_vfpfcnvrt+1,w
  4973  0B50  0085               	movwf	5
  4974  0B51  0800               	movf	0,w	;code access
  4975  0B52  00D3               	movwf	??_vfpfcnvrt+2
  4976  0B53  01D4               	clrf	??_vfpfcnvrt+3
  4977  0B54  0853               	movf	??_vfpfcnvrt+2,w
  4978  0B55  00F3               	movwf	fputc@c
  4979  0B56  0854               	movf	??_vfpfcnvrt+3,w
  4980  0B57  00F4               	movwf	fputc@c+1
  4981  0B58  086A               	movf	vfpfcnvrt@fp,w
  4982  0B59  00D5               	movwf	??_vfpfcnvrt+4
  4983  0B5A  0855               	movf	??_vfpfcnvrt+4,w
  4984  0B5B  00F5               	movwf	fputc@fp
  4985  0B5C  319E  2652  3189   	fcall	_fputc
  4986  0B5F                     l3924:
  4987                           
  4988                           ;C:\Program Files\Microchip\xc8\v2.32\pic\sources\c99\common\doprnt.c: 1385:     ++*fmt;
  4989  0B5F  0020               	movlb	0	; select bank0
  4990  0B60  084F               	movf	vfpfcnvrt@fmt,w
  4991  0B61  0086               	movwf	6
  4992  0B62  0187               	clrf	7
  4993  0B63  3001               	movlw	1
  4994  0B64  0781               	addwf	1,f
  4995  0B65  3141               	addfsr 1,1
  4996  0B66  1803               	skipnc
  4997  0B67  0A81               	incf	1,f
  4998  0B68  2B37               	goto	l3912
  4999  0B69                     l922:
  5000  0B69  0008               	return
  5001  0B6A                     __end_of_vfpfcnvrt:
  5002                           
  5003                           	psect	text8
  5004  1EF5                     __ptext8:	
  5005 ;; *************** function _strncmp *****************
  5006 ;; Defined at:
  5007 ;;		line 3 in file "C:\Program Files\Microchip\xc8\v2.32\pic\sources\c99\common\strncmp.c"
  5008 ;; Parameters:    Size  Location     Type
  5009 ;;  _l              1    wreg     PTR const unsigned char 
  5010 ;;		 -> vfpfcnvrt@ct(3), 
  5011 ;;  _r              2    0[COMMON] PTR const unsigned char 
  5012 ;;		 -> STR_14(3), 
  5013 ;;  n               2    2[COMMON] unsigned int 
  5014 ;; Auto vars:     Size  Location     Type
  5015 ;;  _l              1    5[COMMON] PTR const unsigned char 
  5016 ;;		 -> vfpfcnvrt@ct(3), 
  5017 ;;  r               2    6[COMMON] PTR const unsigned char 
  5018 ;;		 -> STR_14(3), 
  5019 ;;  l               1    8[COMMON] PTR const unsigned char 
  5020 ;;		 -> vfpfcnvrt@ct(3), 
  5021 ;; Return value:  Size  Location     Type
  5022 ;;                  2    0[COMMON] int 
  5023 ;; Registers used:
  5024 ;;		wreg, fsr0l, fsr0h, fsr1l, fsr1h, status,2, status,0, pclath
  5025 ;; Tracked objects:
  5026 ;;		On entry : 0/0
  5027 ;;		On exit  : 0/0
  5028 ;;		Unchanged: 0/0
  5029 ;; Data sizes:     COMMON   BANK0   BANK1   BANK2   BANK3   BANK4   BANK5   BANK6   BANK7   BANK8   BANK9  BANK10  BANK1
      +1  BANK12
  5030 ;;      Params:         4       0       0       0       0       0       0       0       0       0       0       0       
      +0       0
  5031 ;;      Locals:         4       0       0       0       0       0       0       0       0       0       0       0       
      +0       0
  5032 ;;      Temps:          1       0       0       0       0       0       0       0       0       0       0       0       
      +0       0
  5033 ;;      Totals:         9       0       0       0       0       0       0       0       0       0       0       0       
      +0       0
  5034 ;;Total ram usage:        9 bytes
  5035 ;; Hardware stack levels used: 1
  5036 ;; This function calls:
  5037 ;;		Nothing
  5038 ;; This function is called by:
  5039 ;;		_vfpfcnvrt
  5040 ;; This function uses a non-reentrant model
  5041 ;;
  5042                           
  5043                           
  5044                           ;psect for function _strncmp
  5045  1EF5                     _strncmp:
  5046                           
  5047                           ;incstack = 0
  5048                           ; Regs used in _strncmp: [wreg-fsr1h+status,2+status,0+pclath]
  5049                           ;strncmp@_l stored from wreg
  5050  1EF5  00F5               	movwf	strncmp@_l
  5051  1EF6                     l3808:
  5052  1EF6  0875               	movf	strncmp@_l,w
  5053  1EF7  00F4               	movwf	??_strncmp
  5054  1EF8  0874               	movf	??_strncmp,w
  5055  1EF9  00F8               	movwf	strncmp@l
  5056  1EFA  0871               	movf	strncmp@_r+1,w
  5057  1EFB  00F7               	movwf	strncmp@r+1
  5058  1EFC  0870               	movf	strncmp@_r,w
  5059  1EFD  00F6               	movwf	strncmp@r
  5060  1EFE                     l3810:
  5061  1EFE  3001               	movlw	1
  5062  1EFF  02F2               	subwf	strncmp@n,f
  5063  1F00  3000               	movlw	0
  5064  1F01  3BF3               	subwfb	strncmp@n+1,f
  5065  1F02  0A72               	incf	strncmp@n,w
  5066  1F03  1D03               	skipz
  5067  1F04  2F09               	goto	u5861
  5068  1F05  0A73               	incf	strncmp@n+1,w
  5069  1F06  1D03               	btfss	3,2
  5070  1F07  2F09               	goto	u5861
  5071  1F08  2F0A               	goto	u5860
  5072  1F09                     u5861:
  5073  1F09  2F19               	goto	l3822
  5074  1F0A                     u5860:
  5075  1F0A                     l3812:
  5076  1F0A  01F0               	clrf	?_strncmp
  5077  1F0B  01F1               	clrf	?_strncmp+1
  5078  1F0C  2F4C               	goto	l1018
  5079  1F0D                     l3816:
  5080  1F0D  3001               	movlw	1
  5081  1F0E  00F4               	movwf	??_strncmp
  5082  1F0F  0874               	movf	??_strncmp,w
  5083  1F10  07F8               	addwf	strncmp@l,f
  5084  1F11                     l3818:
  5085  1F11  3001               	movlw	1
  5086  1F12  07F6               	addwf	strncmp@r,f
  5087  1F13  3000               	movlw	0
  5088  1F14  3DF7               	addwfc	strncmp@r+1,f
  5089  1F15                     l3820:
  5090  1F15  3001               	movlw	1
  5091  1F16  02F2               	subwf	strncmp@n,f
  5092  1F17  3000               	movlw	0
  5093  1F18  3BF3               	subwfb	strncmp@n+1,f
  5094  1F19                     l3822:
  5095  1F19  0878               	movf	strncmp@l,w
  5096  1F1A  0086               	movwf	6
  5097  1F1B  0187               	clrf	7
  5098  1F1C  0801               	movf	1,w
  5099  1F1D  1903               	btfsc	3,2
  5100  1F1E  2F20               	goto	u5871
  5101  1F1F  2F21               	goto	u5870
  5102  1F20                     u5871:
  5103  1F20  2F3F               	goto	l3830
  5104  1F21                     u5870:
  5105  1F21                     l3824:
  5106  1F21  0876               	movf	strncmp@r,w
  5107  1F22  0084               	movwf	4
  5108  1F23  0877               	movf	strncmp@r+1,w
  5109  1F24  0085               	movwf	5
  5110  1F25  0012               	moviw fsr0++
  5111  1F26  1903               	btfsc	3,2
  5112  1F27  2F29               	goto	u5881
  5113  1F28  2F2A               	goto	u5880
  5114  1F29                     u5881:
  5115  1F29  2F3F               	goto	l3830
  5116  1F2A                     u5880:
  5117  1F2A                     l3826:
  5118  1F2A  0872               	movf	strncmp@n,w
  5119  1F2B  0473               	iorwf	strncmp@n+1,w
  5120  1F2C  1903               	btfsc	3,2
  5121  1F2D  2F2F               	goto	u5891
  5122  1F2E  2F30               	goto	u5890
  5123  1F2F                     u5891:
  5124  1F2F  2F3F               	goto	l3830
  5125  1F30                     u5890:
  5126  1F30                     l3828:
  5127  1F30  0876               	movf	strncmp@r,w
  5128  1F31  0084               	movwf	4
  5129  1F32  0877               	movf	strncmp@r+1,w
  5130  1F33  0085               	movwf	5
  5131  1F34  0800               	movf	0,w	;code access
  5132  1F35  00F4               	movwf	??_strncmp
  5133  1F36  0878               	movf	strncmp@l,w
  5134  1F37  0086               	movwf	6
  5135  1F38  0187               	clrf	7
  5136  1F39  0801               	movf	1,w
  5137  1F3A  0674               	xorwf	??_strncmp,w
  5138  1F3B  1903               	skipnz
  5139  1F3C  2F3E               	goto	u5901
  5140  1F3D  2F3F               	goto	u5900
  5141  1F3E                     u5901:
  5142  1F3E  2F0D               	goto	l3816
  5143  1F3F                     u5900:
  5144  1F3F                     l3830:
  5145  1F3F  0878               	movf	strncmp@l,w
  5146  1F40  0086               	movwf	6
  5147  1F41  0187               	clrf	7
  5148  1F42  0876               	movf	strncmp@r,w
  5149  1F43  0084               	movwf	4
  5150  1F44  0877               	movf	strncmp@r+1,w
  5151  1F45  0085               	movwf	5
  5152  1F46  0800               	movf	0,w	;code access
  5153  1F47  0201               	subwf	1,w
  5154  1F48  00F0               	movwf	?_strncmp
  5155  1F49  01F1               	clrf	?_strncmp+1
  5156  1F4A  1C03               	skipc
  5157  1F4B  03F1               	decf	?_strncmp+1,f
  5158  1F4C                     l1018:
  5159  1F4C  0008               	return
  5160  1F4D                     __end_of_strncmp:
  5161                           
  5162                           	psect	text9
  5163  00A8                     __ptext9:	
  5164 ;; *************** function _efgtoa *****************
  5165 ;; Defined at:
  5166 ;;		line 332 in file "C:\Program Files\Microchip\xc8\v2.32\pic\sources\c99\common\doprnt.c"
  5167 ;; Parameters:    Size  Location     Type
  5168 ;;  fp              1    wreg     PTR struct _IO_FILE
  5169 ;;		 -> NULL(0), sprintf@f(5), 
  5170 ;;  f               4   38[BANK0 ] PTR struct _IO_FILE
  5171 ;;  c               1   42[BANK0 ] unsigned char 
  5172 ;; Auto vars:     Size  Location     Type
  5173 ;;  fp              1   28[BANK1 ] PTR struct _IO_FILE
  5174 ;;		 -> NULL(0), sprintf@f(5), 
  5175 ;;  u               4   53[BANK1 ] PTR struct _IO_FILE
  5176 ;;  g               4   45[BANK1 ] PTR struct _IO_FILE
  5177 ;;  l               4   39[BANK1 ] PTR struct _IO_FILE
  5178 ;;  h               4   35[BANK1 ] PTR struct _IO_FILE
  5179 ;;  ou              4   20[BANK1 ] PTR struct _IO_FILE
  5180 ;;  n               2   51[BANK1 ] int 
  5181 ;;  e               2   49[BANK1 ] int 
  5182 ;;  i               2   43[BANK1 ] int 
  5183 ;;  w               2   31[BANK1 ] int 
  5184 ;;  p               2   29[BANK1 ] int 
  5185 ;;  sign            2   26[BANK1 ] int 
  5186 ;;  d               2   24[BANK1 ] int 
  5187 ;;  m               2   18[BANK1 ] int 
  5188 ;;  ne              2   16[BANK1 ] int 
  5189 ;;  pp              2   14[BANK1 ] int 
  5190 ;;  t               2   12[BANK1 ] int 
  5191 ;;  mode            1   34[BANK1 ] unsigned char 
  5192 ;;  nmode           1   33[BANK1 ] unsigned char 
  5193 ;; Return value:  Size  Location     Type
  5194 ;;                  2   38[BANK0 ] int 
  5195 ;; Registers used:
  5196 ;;		wreg, fsr0l, fsr0h, fsr1l, fsr1h, status,2, status,0, pclath, cstack
  5197 ;; Tracked objects:
  5198 ;;		On entry : 0/0
  5199 ;;		On exit  : 0/0
  5200 ;;		Unchanged: 0/0
  5201 ;; Data sizes:     COMMON   BANK0   BANK1   BANK2   BANK3   BANK4   BANK5   BANK6   BANK7   BANK8   BANK9  BANK10  BANK1
      +1  BANK12
  5202 ;;      Params:         0       5       0       0       0       0       0       0       0       0       0       0       
      +0       0
  5203 ;;      Locals:         0       0      57       0       0       0       0       0       0       0       0       0       
      +0       0
  5204 ;;      Temps:          0       4       0       0       0       0       0       0       0       0       0       0       
      +0       0
  5205 ;;      Totals:         0       9      57       0       0       0       0       0       0       0       0       0       
      +0       0
  5206 ;;Total ram usage:       66 bytes
  5207 ;; Hardware stack levels used: 1
  5208 ;; Hardware stack levels required when called: 5
  5209 ;; This function calls:
  5210 ;;		___awdiv
  5211 ;;		___awmod
  5212 ;;		___fladd
  5213 ;;		___fldiv
  5214 ;;		___fleq
  5215 ;;		___flge
  5216 ;;		___flmul
  5217 ;;		___flneg
  5218 ;;		___flsub
  5219 ;;		___fltol
  5220 ;;		___fpclassifyf
  5221 ;;		_floorf
  5222 ;;		_isupper
  5223 ;;		_pad
  5224 ;;		_strcpy
  5225 ;;		_tolower
  5226 ;; This function is called by:
  5227 ;;		_vfpfcnvrt
  5228 ;; This function uses a non-reentrant model
  5229 ;;
  5230                           
  5231                           
  5232                           ;psect for function _efgtoa
  5233  00A8                     _efgtoa:
  5234                           
  5235                           ;incstack = 0
  5236                           ; Regs used in _efgtoa: [wreg-fsr1h+status,2+status,0+pclath+cstack]
  5237                           ;efgtoa@fp stored from wreg
  5238  00A8  0021               	movlb	1	; select bank1
  5239  00A9  00BC               	movwf	efgtoa@fp^(0+128)
  5240  00AA                     l3508:
  5241                           
  5242                           ;C:\Program Files\Microchip\xc8\v2.32\pic\sources\c99\common\doprnt.c: 332: static int e
      +                          fgtoa(FILE *fp, long double f, char c);C:\Program Files\Microchip\xc8\v2.32\pic\sources\
      +                          c99\common\doprnt.c: 333: {;C:\Program Files\Microchip\xc8\v2.32\pic\sources\c99\common\
      +                          doprnt.c: 334:     char mode, nmode;;C:\Program Files\Microchip\xc8\v2.32\pic\sources\c9
      +                          9\common\doprnt.c: 335:     int d, e, i, m, n, ne, p, pp, sign, t, w;;C:\Program Files\M
      +                          icrochip\xc8\v2.32\pic\sources\c99\common\doprnt.c: 336:     long double g, h, l, ou, u;
  5243  00AA  01BA               	clrf	efgtoa@sign^(0+128)
  5244  00AB  01BB               	clrf	(efgtoa@sign+1)^(0+128)
  5245  00AC                     l3510:
  5246                           
  5247                           ;C:\Program Files\Microchip\xc8\v2.32\pic\sources\c99\common\doprnt.c: 340:     g = f;
  5248  00AC  0020               	movlb	0	; select bank0
  5249  00AD  0849               	movf	efgtoa@f+3,w
  5250  00AE  0021               	movlb	1	; select bank1
  5251  00AF  00D0               	movwf	(efgtoa@g+3)^(0+128)
  5252  00B0  0020               	movlb	0	; select bank0
  5253  00B1  0848               	movf	efgtoa@f+2,w
  5254  00B2  0021               	movlb	1	; select bank1
  5255  00B3  00CF               	movwf	(efgtoa@g+2)^(0+128)
  5256  00B4  0020               	movlb	0	; select bank0
  5257  00B5  0847               	movf	efgtoa@f+1,w
  5258  00B6  0021               	movlb	1	; select bank1
  5259  00B7  00CE               	movwf	(efgtoa@g+1)^(0+128)
  5260  00B8  0020               	movlb	0	; select bank0
  5261  00B9  0846               	movf	efgtoa@f,w
  5262  00BA  0021               	movlb	1	; select bank1
  5263  00BB  00CD               	movwf	efgtoa@g^(0+128)
  5264  00BC                     l3512:
  5265                           
  5266                           ;C:\Program Files\Microchip\xc8\v2.32\pic\sources\c99\common\doprnt.c: 341:     if (g < 
      +                          0.0) {
  5267  00BC  0850               	movf	(efgtoa@g+3)^(0+128),w
  5268  00BD  0020               	movlb	0	; select bank0
  5269  00BE  00BD               	movwf	___flge@ff1+3
  5270  00BF  0021               	movlb	1	; select bank1
  5271  00C0  084F               	movf	(efgtoa@g+2)^(0+128),w
  5272  00C1  0020               	movlb	0	; select bank0
  5273  00C2  00BC               	movwf	___flge@ff1+2
  5274  00C3  0021               	movlb	1	; select bank1
  5275  00C4  084E               	movf	(efgtoa@g+1)^(0+128),w
  5276  00C5  0020               	movlb	0	; select bank0
  5277  00C6  00BB               	movwf	___flge@ff1+1
  5278  00C7  0021               	movlb	1	; select bank1
  5279  00C8  084D               	movf	efgtoa@g^(0+128),w
  5280  00C9  0020               	movlb	0	; select bank0
  5281  00CA  00BA               	movwf	___flge@ff1
  5282  00CB  3000               	movlw	0
  5283  00CC  00C1               	movwf	___flge@ff2+3
  5284  00CD  3000               	movlw	0
  5285  00CE  00C0               	movwf	___flge@ff2+2
  5286  00CF  3000               	movlw	0
  5287  00D0  00BF               	movwf	___flge@ff2+1
  5288  00D1  3000               	movlw	0
  5289  00D2  00BE               	movwf	___flge@ff2
  5290  00D3  3180  201D  3180   	fcall	___flge
  5291  00D6  1803               	btfsc	3,0
  5292  00D7  28D9               	goto	u5321
  5293  00D8  28DA               	goto	u5320
  5294  00D9                     u5321:
  5295  00D9  28F3               	goto	l3518
  5296  00DA                     u5320:
  5297  00DA                     l3514:
  5298                           
  5299                           ;C:\Program Files\Microchip\xc8\v2.32\pic\sources\c99\common\doprnt.c: 342:         sign
      +                           = 1;
  5300  00DA  3001               	movlw	1
  5301  00DB  0021               	movlb	1	; select bank1
  5302  00DC  00BA               	movwf	efgtoa@sign^(0+128)
  5303  00DD  3000               	movlw	0
  5304  00DE  00BB               	movwf	(efgtoa@sign^(0+128)+1)
  5305  00DF                     l3516:
  5306                           
  5307                           ;C:\Program Files\Microchip\xc8\v2.32\pic\sources\c99\common\doprnt.c: 343:         g = 
      +                          -g;
  5308  00DF  0850               	movf	(efgtoa@g+3)^(0+128),w
  5309  00E0  00F3               	movwf	___flneg@f1+3
  5310  00E1  084F               	movf	(efgtoa@g+2)^(0+128),w
  5311  00E2  00F2               	movwf	___flneg@f1+2
  5312  00E3  084E               	movf	(efgtoa@g+1)^(0+128),w
  5313  00E4  00F1               	movwf	___flneg@f1+1
  5314  00E5  084D               	movf	efgtoa@g^(0+128),w
  5315  00E6  00F0               	movwf	___flneg@f1
  5316  00E7  319B  23F4  3180   	fcall	___flneg
  5317  00EA  0873               	movf	?___flneg+3,w
  5318  00EB  0021               	movlb	1	; select bank1
  5319  00EC  00D0               	movwf	(efgtoa@g+3)^(0+128)
  5320  00ED  0872               	movf	?___flneg+2,w
  5321  00EE  00CF               	movwf	(efgtoa@g+2)^(0+128)
  5322  00EF  0871               	movf	?___flneg+1,w
  5323  00F0  00CE               	movwf	(efgtoa@g+1)^(0+128)
  5324  00F1  0870               	movf	?___flneg,w
  5325  00F2  00CD               	movwf	efgtoa@g^(0+128)
  5326  00F3                     l3518:
  5327                           
  5328                           ;C:\Program Files\Microchip\xc8\v2.32\pic\sources\c99\common\doprnt.c: 347:     n = 0;
  5329  00F3  0021               	movlb	1	; select bank1
  5330  00F4  01D3               	clrf	efgtoa@n^(0+128)
  5331  00F5  01D4               	clrf	(efgtoa@n+1)^(0+128)
  5332  00F6                     l3520:
  5333                           
  5334                           ;C:\Program Files\Microchip\xc8\v2.32\pic\sources\c99\common\doprnt.c: 348:     w = widt
      +                          h;
  5335  00F6  0022               	movlb	2	; select bank2
  5336  00F7  0859               	movf	(_width+1)^(0+256),w
  5337  00F8  0021               	movlb	1	; select bank1
  5338  00F9  00C0               	movwf	(efgtoa@w+1)^(0+128)
  5339  00FA  0022               	movlb	2	; select bank2
  5340  00FB  0858               	movf	_width^(0+256),w
  5341  00FC  0021               	movlb	1	; select bank1
  5342  00FD  00BF               	movwf	efgtoa@w^(0+128)
  5343  00FE                     l3522:
  5344                           
  5345                           ;C:\Program Files\Microchip\xc8\v2.32\pic\sources\c99\common\doprnt.c: 349:     if (sign
      +                           || (flags & (1 << 2))) {
  5346  00FE  083A               	movf	efgtoa@sign^(0+128),w
  5347  00FF  043B               	iorwf	(efgtoa@sign+1)^(0+128),w
  5348  0100  1D03               	btfss	3,2
  5349  0101  2903               	goto	u5331
  5350  0102  2904               	goto	u5330
  5351  0103                     u5331:
  5352  0103  2909               	goto	l3526
  5353  0104                     u5330:
  5354  0104                     l3524:
  5355  0104  0022               	movlb	2	; select bank2
  5356  0105  1D5C               	btfss	_flags^(0+256),2
  5357  0106  2908               	goto	u5341
  5358  0107  2909               	goto	u5340
  5359  0108                     u5341:
  5360  0108  2928               	goto	l3538
  5361  0109                     u5340:
  5362  0109                     l3526:
  5363                           
  5364                           ;C:\Program Files\Microchip\xc8\v2.32\pic\sources\c99\common\doprnt.c: 350:         dbuf
      +                          [n] = sign ? '-' : '+';
  5365  0109  0021               	movlb	1	; select bank1
  5366  010A  083A               	movf	efgtoa@sign^(0+128),w
  5367  010B  043B               	iorwf	(efgtoa@sign+1)^(0+128),w
  5368  010C  1D03               	btfss	3,2
  5369  010D  290F               	goto	u5351
  5370  010E  2910               	goto	u5350
  5371  010F                     u5351:
  5372  010F  2915               	goto	l3530
  5373  0110                     u5350:
  5374  0110                     l3528:
  5375  0110  302B               	movlw	43
  5376  0111  00A0               	movwf	_efgtoa$725^(0+128)
  5377  0112  3000               	movlw	0
  5378  0113  00A1               	movwf	(_efgtoa$725^(0+128)+1)
  5379  0114  2919               	goto	l3532
  5380  0115                     l3530:
  5381  0115  302D               	movlw	45
  5382  0116  00A0               	movwf	_efgtoa$725^(0+128)
  5383  0117  3000               	movlw	0
  5384  0118  00A1               	movwf	(_efgtoa$725^(0+128)+1)
  5385  0119                     l3532:
  5386  0119  0820               	movf	_efgtoa$725^(0+128),w
  5387  011A  0020               	movlb	0	; select bank0
  5388  011B  00CB               	movwf	??_efgtoa
  5389  011C  084B               	movf	??_efgtoa,w
  5390  011D  0023               	movlb	3	; select bank3
  5391  011E  00A0               	movwf	_dbuf^(0+384)
  5392  011F                     l3534:
  5393                           
  5394                           ;C:\Program Files\Microchip\xc8\v2.32\pic\sources\c99\common\doprnt.c: 351:         ++n;
  5395  011F  3001               	movlw	1
  5396  0120  0021               	movlb	1	; select bank1
  5397  0121  07D3               	addwf	efgtoa@n^(0+128),f
  5398  0122  3000               	movlw	0
  5399  0123  3DD4               	addwfc	(efgtoa@n+1)^(0+128),f
  5400  0124                     l3536:
  5401                           
  5402                           ;C:\Program Files\Microchip\xc8\v2.32\pic\sources\c99\common\doprnt.c: 352:         --w;
  5403  0124  30FF               	movlw	255
  5404  0125  07BF               	addwf	efgtoa@w^(0+128),f
  5405  0126  30FF               	movlw	255
  5406  0127  3DC0               	addwfc	(efgtoa@w+1)^(0+128),f
  5407  0128                     l3538:
  5408                           
  5409                           ;C:\Program Files\Microchip\xc8\v2.32\pic\sources\c99\common\doprnt.c: 357:         if (
      +                          (0 ? isupper((int)c) : ((unsigned)((int)c)-'A') < 26)) {
  5410  0128  0021               	movlb	1	; select bank1
  5411  0129  0850               	movf	(efgtoa@g+3)^(0+128),w
  5412  012A  00F3               	movwf	___fpclassifyf@x+3
  5413  012B  084F               	movf	(efgtoa@g+2)^(0+128),w
  5414  012C  00F2               	movwf	___fpclassifyf@x+2
  5415  012D  084E               	movf	(efgtoa@g+1)^(0+128),w
  5416  012E  00F1               	movwf	___fpclassifyf@x+1
  5417  012F  084D               	movf	efgtoa@g^(0+128),w
  5418  0130  00F0               	movwf	___fpclassifyf@x
  5419  0131  3190  20DB  3180   	fcall	___fpclassifyf
  5420  0134  0370               	decf	?___fpclassifyf,w
  5421  0135  0471               	iorwf	?___fpclassifyf+1,w
  5422  0136  1D03               	btfss	3,2
  5423  0137  2939               	goto	u5361
  5424  0138  293A               	goto	u5360
  5425  0139                     u5361:
  5426  0139  298C               	goto	l3556
  5427  013A                     u5360:
  5428  013A                     l3540:
  5429  013A  0020               	movlb	0	; select bank0
  5430  013B  084A               	movf	efgtoa@c,w
  5431  013C  3EBF               	addlw	191
  5432  013D  00CB               	movwf	??_efgtoa
  5433  013E  30FF               	movlw	255
  5434  013F  1803               	skipnc
  5435  0140  3000               	movlw	0
  5436  0141  00CC               	movwf	??_efgtoa+1
  5437  0142  3000               	movlw	0
  5438  0143  024C               	subwf	??_efgtoa+1,w
  5439  0144  301A               	movlw	26
  5440  0145  1903               	skipnz
  5441  0146  024B               	subwf	??_efgtoa,w
  5442  0147  1C03               	skipc
  5443  0148  294A               	goto	u5371
  5444  0149  294C               	goto	u5370
  5445  014A                     u5371:
  5446  014A  3001               	movlw	1
  5447  014B  294D               	goto	u5380
  5448  014C                     u5370:
  5449  014C  3000               	movlw	0
  5450  014D                     u5380:
  5451  014D  00CD               	movwf	??_efgtoa+2
  5452  014E  01CE               	clrf	??_efgtoa+3
  5453  014F  084D               	movf	??_efgtoa+2,w
  5454  0150  0021               	movlb	1	; select bank1
  5455  0151  00A2               	movwf	_efgtoa$726^(0+128)
  5456  0152  0020               	movlb	0	; select bank0
  5457  0153  084E               	movf	??_efgtoa+3,w
  5458  0154  0021               	movlb	1	; select bank1
  5459  0155  00A3               	movwf	(_efgtoa$726+1)^(0+128)
  5460  0156                     l3544:
  5461  0156  0822               	movf	_efgtoa$726^(0+128),w
  5462  0157  0423               	iorwf	(_efgtoa$726+1)^(0+128),w
  5463  0158  1903               	btfsc	3,2
  5464  0159  295B               	goto	u5391
  5465  015A  295C               	goto	u5390
  5466  015B                     u5391:
  5467  015B  2966               	goto	l3548
  5468  015C                     u5390:
  5469  015C                     l3546:
  5470                           
  5471                           ;C:\Program Files\Microchip\xc8\v2.32\pic\sources\c99\common\doprnt.c: 358:             
      +                          strcpy(&dbuf[n], "INF");
  5472  015C  303C               	movlw	low (STR_4| (0+32768))
  5473  015D  00F0               	movwf	strcpy@src
  5474  015E  3098               	movlw	high (STR_4| (0+32768))
  5475  015F  00F1               	movwf	strcpy@src+1
  5476  0160  0853               	movf	efgtoa@n^(0+128),w
  5477  0161  3EA0               	addlw	(low (_dbuf| (0+256)))& (0+255)
  5478  0162  319C  24D4  3180   	fcall	_strcpy
  5479                           
  5480                           ;C:\Program Files\Microchip\xc8\v2.32\pic\sources\c99\common\doprnt.c: 359:         } el
      +                          se {
  5481  0165  296F               	goto	l3550
  5482  0166                     l3548:
  5483                           
  5484                           ;C:\Program Files\Microchip\xc8\v2.32\pic\sources\c99\common\doprnt.c: 360:             
      +                          strcpy(&dbuf[n], "inf");
  5485  0166  3044               	movlw	low (STR_5| (0+32768))
  5486  0167  00F0               	movwf	strcpy@src
  5487  0168  3098               	movlw	high (STR_5| (0+32768))
  5488  0169  00F1               	movwf	strcpy@src+1
  5489  016A  0853               	movf	efgtoa@n^(0+128),w
  5490  016B  3EA0               	addlw	(low (_dbuf| (0+256)))& (0+255)
  5491  016C  319C  24D4  3180   	fcall	_strcpy
  5492  016F                     l3550:
  5493                           
  5494                           ;C:\Program Files\Microchip\xc8\v2.32\pic\sources\c99\common\doprnt.c: 362:         w -=
      +                           ((sizeof("inf")/sizeof("inf"[0]))-1);
  5495  016F  30FD               	movlw	253
  5496  0170  0021               	movlb	1	; select bank1
  5497  0171  07BF               	addwf	efgtoa@w^(0+128),f
  5498  0172  30FF               	movlw	255
  5499  0173  3DC0               	addwfc	(efgtoa@w+1)^(0+128),f
  5500  0174                     l3552:
  5501                           
  5502                           ;C:\Program Files\Microchip\xc8\v2.32\pic\sources\c99\common\doprnt.c: 363:         retu
      +                          rn pad(fp, &dbuf[0], w);
  5503  0174  30A0               	movlw	(low (_dbuf| (0+256)))& (0+255)
  5504  0175  0020               	movlb	0	; select bank0
  5505  0176  00CB               	movwf	??_efgtoa
  5506  0177  084B               	movf	??_efgtoa,w
  5507  0178  00A7               	movwf	pad@buf
  5508  0179  0021               	movlb	1	; select bank1
  5509  017A  0840               	movf	(efgtoa@w+1)^(0+128),w
  5510  017B  0020               	movlb	0	; select bank0
  5511  017C  00A9               	movwf	pad@p+1
  5512  017D  0021               	movlb	1	; select bank1
  5513  017E  083F               	movf	efgtoa@w^(0+128),w
  5514  017F  0020               	movlb	0	; select bank0
  5515  0180  00A8               	movwf	pad@p
  5516  0181  0021               	movlb	1	; select bank1
  5517  0182  083C               	movf	efgtoa@fp^(0+128),w
  5518  0183  319F  274D  3180   	fcall	_pad
  5519  0186  0020               	movlb	0	; select bank0
  5520  0187  0828               	movf	?_pad+1,w
  5521  0188  00C7               	movwf	?_efgtoa+1
  5522  0189  0827               	movf	?_pad,w
  5523  018A  00C6               	movwf	?_efgtoa
  5524  018B  2FEC               	goto	l838
  5525  018C                     l3556:
  5526                           
  5527                           ;C:\Program Files\Microchip\xc8\v2.32\pic\sources\c99\common\doprnt.c: 366:         if (
      +                          (0 ? isupper((int)c) : ((unsigned)((int)c)-'A') < 26)) {
  5528  018C  0021               	movlb	1	; select bank1
  5529  018D  0850               	movf	(efgtoa@g+3)^(0+128),w
  5530  018E  00F3               	movwf	___fpclassifyf@x+3
  5531  018F  084F               	movf	(efgtoa@g+2)^(0+128),w
  5532  0190  00F2               	movwf	___fpclassifyf@x+2
  5533  0191  084E               	movf	(efgtoa@g+1)^(0+128),w
  5534  0192  00F1               	movwf	___fpclassifyf@x+1
  5535  0193  084D               	movf	efgtoa@g^(0+128),w
  5536  0194  00F0               	movwf	___fpclassifyf@x
  5537  0195  3190  20DB  3180   	fcall	___fpclassifyf
  5538  0198  0870               	movf	?___fpclassifyf,w
  5539  0199  0471               	iorwf	?___fpclassifyf+1,w
  5540  019A  1D03               	btfss	3,2
  5541  019B  299D               	goto	u5401
  5542  019C  299E               	goto	u5400
  5543  019D                     u5401:
  5544  019D  29F0               	goto	l3574
  5545  019E                     u5400:
  5546  019E                     l3558:
  5547  019E  0020               	movlb	0	; select bank0
  5548  019F  084A               	movf	efgtoa@c,w
  5549  01A0  3EBF               	addlw	191
  5550  01A1  00CB               	movwf	??_efgtoa
  5551  01A2  30FF               	movlw	255
  5552  01A3  1803               	skipnc
  5553  01A4  3000               	movlw	0
  5554  01A5  00CC               	movwf	??_efgtoa+1
  5555  01A6  3000               	movlw	0
  5556  01A7  024C               	subwf	??_efgtoa+1,w
  5557  01A8  301A               	movlw	26
  5558  01A9  1903               	skipnz
  5559  01AA  024B               	subwf	??_efgtoa,w
  5560  01AB  1C03               	skipc
  5561  01AC  29AE               	goto	u5411
  5562  01AD  29B0               	goto	u5410
  5563  01AE                     u5411:
  5564  01AE  3001               	movlw	1
  5565  01AF  29B1               	goto	u5420
  5566  01B0                     u5410:
  5567  01B0  3000               	movlw	0
  5568  01B1                     u5420:
  5569  01B1  00CD               	movwf	??_efgtoa+2
  5570  01B2  01CE               	clrf	??_efgtoa+3
  5571  01B3  084D               	movf	??_efgtoa+2,w
  5572  01B4  0021               	movlb	1	; select bank1
  5573  01B5  00A4               	movwf	_efgtoa$730^(0+128)
  5574  01B6  0020               	movlb	0	; select bank0
  5575  01B7  084E               	movf	??_efgtoa+3,w
  5576  01B8  0021               	movlb	1	; select bank1
  5577  01B9  00A5               	movwf	(_efgtoa$730+1)^(0+128)
  5578  01BA                     l3562:
  5579  01BA  0824               	movf	_efgtoa$730^(0+128),w
  5580  01BB  0425               	iorwf	(_efgtoa$730+1)^(0+128),w
  5581  01BC  1903               	btfsc	3,2
  5582  01BD  29BF               	goto	u5431
  5583  01BE  29C0               	goto	u5430
  5584  01BF                     u5431:
  5585  01BF  29CA               	goto	l3566
  5586  01C0                     u5430:
  5587  01C0                     l3564:
  5588                           
  5589                           ;C:\Program Files\Microchip\xc8\v2.32\pic\sources\c99\common\doprnt.c: 367:             
      +                          strcpy(&dbuf[n], "NAN");
  5590  01C0  3040               	movlw	low (STR_8| (0+32768))
  5591  01C1  00F0               	movwf	strcpy@src
  5592  01C2  3098               	movlw	high (STR_8| (0+32768))
  5593  01C3  00F1               	movwf	strcpy@src+1
  5594  01C4  0853               	movf	efgtoa@n^(0+128),w
  5595  01C5  3EA0               	addlw	(low (_dbuf| (0+256)))& (0+255)
  5596  01C6  319C  24D4  3180   	fcall	_strcpy
  5597                           
  5598                           ;C:\Program Files\Microchip\xc8\v2.32\pic\sources\c99\common\doprnt.c: 368:         } el
      +                          se {
  5599  01C9  29D3               	goto	l3568
  5600  01CA                     l3566:
  5601                           
  5602                           ;C:\Program Files\Microchip\xc8\v2.32\pic\sources\c99\common\doprnt.c: 369:             
      +                          strcpy(&dbuf[n], "nan");
  5603  01CA  3048               	movlw	low (STR_9| (0+32768))
  5604  01CB  00F0               	movwf	strcpy@src
  5605  01CC  3098               	movlw	high (STR_9| (0+32768))
  5606  01CD  00F1               	movwf	strcpy@src+1
  5607  01CE  0853               	movf	efgtoa@n^(0+128),w
  5608  01CF  3EA0               	addlw	(low (_dbuf| (0+256)))& (0+255)
  5609  01D0  319C  24D4  3180   	fcall	_strcpy
  5610  01D3                     l3568:
  5611                           
  5612                           ;C:\Program Files\Microchip\xc8\v2.32\pic\sources\c99\common\doprnt.c: 371:         w -=
      +                           ((sizeof("inf")/sizeof("inf"[0]))-1);
  5613  01D3  30FD               	movlw	253
  5614  01D4  0021               	movlb	1	; select bank1
  5615  01D5  07BF               	addwf	efgtoa@w^(0+128),f
  5616  01D6  30FF               	movlw	255
  5617  01D7  3DC0               	addwfc	(efgtoa@w+1)^(0+128),f
  5618  01D8                     l3570:
  5619                           
  5620                           ;C:\Program Files\Microchip\xc8\v2.32\pic\sources\c99\common\doprnt.c: 372:         retu
      +                          rn pad(fp, &dbuf[0], w);
  5621  01D8  30A0               	movlw	(low (_dbuf| (0+256)))& (0+255)
  5622  01D9  0020               	movlb	0	; select bank0
  5623  01DA  00CB               	movwf	??_efgtoa
  5624  01DB  084B               	movf	??_efgtoa,w
  5625  01DC  00A7               	movwf	pad@buf
  5626  01DD  0021               	movlb	1	; select bank1
  5627  01DE  0840               	movf	(efgtoa@w+1)^(0+128),w
  5628  01DF  0020               	movlb	0	; select bank0
  5629  01E0  00A9               	movwf	pad@p+1
  5630  01E1  0021               	movlb	1	; select bank1
  5631  01E2  083F               	movf	efgtoa@w^(0+128),w
  5632  01E3  0020               	movlb	0	; select bank0
  5633  01E4  00A8               	movwf	pad@p
  5634  01E5  0021               	movlb	1	; select bank1
  5635  01E6  083C               	movf	efgtoa@fp^(0+128),w
  5636  01E7  319F  274D  3180   	fcall	_pad
  5637  01EA  0020               	movlb	0	; select bank0
  5638  01EB  0828               	movf	?_pad+1,w
  5639  01EC  00C7               	movwf	?_efgtoa+1
  5640  01ED  0827               	movf	?_pad,w
  5641  01EE  00C6               	movwf	?_efgtoa
  5642  01EF  2FEC               	goto	l838
  5643  01F0                     l3574:
  5644                           
  5645                           ;C:\Program Files\Microchip\xc8\v2.32\pic\sources\c99\common\doprnt.c: 376:     u = 1.0;
  5646  01F0  303F               	movlw	63
  5647  01F1  0021               	movlb	1	; select bank1
  5648  01F2  00D8               	movwf	(efgtoa@u+3)^(0+128)
  5649  01F3  3080               	movlw	128
  5650  01F4  00D7               	movwf	(efgtoa@u+2)^(0+128)
  5651  01F5  3000               	movlw	0
  5652  01F6  00D6               	movwf	(efgtoa@u+1)^(0+128)
  5653  01F7  3000               	movlw	0
  5654  01F8  00D5               	movwf	efgtoa@u^(0+128)
  5655  01F9                     l3576:
  5656                           
  5657                           ;C:\Program Files\Microchip\xc8\v2.32\pic\sources\c99\common\doprnt.c: 377:     e = 0;
  5658  01F9  01D1               	clrf	efgtoa@e^(0+128)
  5659  01FA  01D2               	clrf	(efgtoa@e+1)^(0+128)
  5660  01FB                     l3578:
  5661                           
  5662                           ;C:\Program Files\Microchip\xc8\v2.32\pic\sources\c99\common\doprnt.c: 378:     if (!(g 
      +                          == 0.0)) {
  5663  01FB  0850               	movf	(efgtoa@g+3)^(0+128),w
  5664  01FC  00F3               	movwf	___fleq@ff1+3
  5665  01FD  084F               	movf	(efgtoa@g+2)^(0+128),w
  5666  01FE  00F2               	movwf	___fleq@ff1+2
  5667  01FF  084E               	movf	(efgtoa@g+1)^(0+128),w
  5668  0200  00F1               	movwf	___fleq@ff1+1
  5669  0201  084D               	movf	efgtoa@g^(0+128),w
  5670  0202  00F0               	movwf	___fleq@ff1
  5671  0203  3000               	movlw	0
  5672  0204  00F7               	movwf	___fleq@ff2+3
  5673  0205  3000               	movlw	0
  5674  0206  00F6               	movwf	___fleq@ff2+2
  5675  0207  3000               	movlw	0
  5676  0208  00F5               	movwf	___fleq@ff2+1
  5677  0209  3000               	movlw	0
  5678  020A  00F4               	movwf	___fleq@ff2
  5679  020B  319E  2604  3180   	fcall	___fleq
  5680  020E  1803               	btfsc	3,0
  5681  020F  2A11               	goto	u5441
  5682  0210  2A12               	goto	u5440
  5683  0211                     u5441:
  5684  0211  2AC7               	goto	l3594
  5685  0212                     u5440:
  5686  0212  2A43               	goto	l3586
  5687  0213                     l3582:
  5688                           
  5689                           ;C:\Program Files\Microchip\xc8\v2.32\pic\sources\c99\common\doprnt.c: 380:             
      +                          u = u*10.0;
  5690  0213  3041               	movlw	65
  5691  0214  0020               	movlb	0	; select bank0
  5692  0215  00A3               	movwf	___flmul@b+3
  5693  0216  3020               	movlw	32
  5694  0217  00A2               	movwf	___flmul@b+2
  5695  0218  3000               	movlw	0
  5696  0219  00A1               	movwf	___flmul@b+1
  5697  021A  3000               	movlw	0
  5698  021B  00A0               	movwf	___flmul@b
  5699  021C  0021               	movlb	1	; select bank1
  5700  021D  0858               	movf	(efgtoa@u+3)^(0+128),w
  5701  021E  0020               	movlb	0	; select bank0
  5702  021F  00A7               	movwf	___flmul@a+3
  5703  0220  0021               	movlb	1	; select bank1
  5704  0221  0857               	movf	(efgtoa@u+2)^(0+128),w
  5705  0222  0020               	movlb	0	; select bank0
  5706  0223  00A6               	movwf	___flmul@a+2
  5707  0224  0021               	movlb	1	; select bank1
  5708  0225  0856               	movf	(efgtoa@u+1)^(0+128),w
  5709  0226  0020               	movlb	0	; select bank0
  5710  0227  00A5               	movwf	___flmul@a+1
  5711  0228  0021               	movlb	1	; select bank1
  5712  0229  0855               	movf	efgtoa@u^(0+128),w
  5713  022A  0020               	movlb	0	; select bank0
  5714  022B  00A4               	movwf	___flmul@a
  5715  022C  318D  25A9  3180   	fcall	___flmul
  5716  022F  0020               	movlb	0	; select bank0
  5717  0230  0823               	movf	?___flmul+3,w
  5718  0231  0021               	movlb	1	; select bank1
  5719  0232  00D8               	movwf	(efgtoa@u+3)^(0+128)
  5720  0233  0020               	movlb	0	; select bank0
  5721  0234  0822               	movf	?___flmul+2,w
  5722  0235  0021               	movlb	1	; select bank1
  5723  0236  00D7               	movwf	(efgtoa@u+2)^(0+128)
  5724  0237  0020               	movlb	0	; select bank0
  5725  0238  0821               	movf	?___flmul+1,w
  5726  0239  0021               	movlb	1	; select bank1
  5727  023A  00D6               	movwf	(efgtoa@u+1)^(0+128)
  5728  023B  0020               	movlb	0	; select bank0
  5729  023C  0820               	movf	?___flmul,w
  5730  023D  0021               	movlb	1	; select bank1
  5731  023E  00D5               	movwf	efgtoa@u^(0+128)
  5732  023F                     l3584:
  5733                           
  5734                           ;C:\Program Files\Microchip\xc8\v2.32\pic\sources\c99\common\doprnt.c: 381:             
      +                          ++e;
  5735  023F  3001               	movlw	1
  5736  0240  07D1               	addwf	efgtoa@e^(0+128),f
  5737  0241  3000               	movlw	0
  5738  0242  3DD2               	addwfc	(efgtoa@e+1)^(0+128),f
  5739  0243                     l3586:
  5740                           
  5741                           ;C:\Program Files\Microchip\xc8\v2.32\pic\sources\c99\common\doprnt.c: 379:         whil
      +                          e (!(g < (u*10.0))) {
  5742  0243  0021               	movlb	1	; select bank1
  5743  0244  0850               	movf	(efgtoa@g+3)^(0+128),w
  5744  0245  0020               	movlb	0	; select bank0
  5745  0246  00BD               	movwf	___flge@ff1+3
  5746  0247  0021               	movlb	1	; select bank1
  5747  0248  084F               	movf	(efgtoa@g+2)^(0+128),w
  5748  0249  0020               	movlb	0	; select bank0
  5749  024A  00BC               	movwf	___flge@ff1+2
  5750  024B  0021               	movlb	1	; select bank1
  5751  024C  084E               	movf	(efgtoa@g+1)^(0+128),w
  5752  024D  0020               	movlb	0	; select bank0
  5753  024E  00BB               	movwf	___flge@ff1+1
  5754  024F  0021               	movlb	1	; select bank1
  5755  0250  084D               	movf	efgtoa@g^(0+128),w
  5756  0251  0020               	movlb	0	; select bank0
  5757  0252  00BA               	movwf	___flge@ff1
  5758  0253  3041               	movlw	65
  5759  0254  00A3               	movwf	___flmul@b+3
  5760  0255  3020               	movlw	32
  5761  0256  00A2               	movwf	___flmul@b+2
  5762  0257  3000               	movlw	0
  5763  0258  00A1               	movwf	___flmul@b+1
  5764  0259  3000               	movlw	0
  5765  025A  00A0               	movwf	___flmul@b
  5766  025B  0021               	movlb	1	; select bank1
  5767  025C  0858               	movf	(efgtoa@u+3)^(0+128),w
  5768  025D  0020               	movlb	0	; select bank0
  5769  025E  00A7               	movwf	___flmul@a+3
  5770  025F  0021               	movlb	1	; select bank1
  5771  0260  0857               	movf	(efgtoa@u+2)^(0+128),w
  5772  0261  0020               	movlb	0	; select bank0
  5773  0262  00A6               	movwf	___flmul@a+2
  5774  0263  0021               	movlb	1	; select bank1
  5775  0264  0856               	movf	(efgtoa@u+1)^(0+128),w
  5776  0265  0020               	movlb	0	; select bank0
  5777  0266  00A5               	movwf	___flmul@a+1
  5778  0267  0021               	movlb	1	; select bank1
  5779  0268  0855               	movf	efgtoa@u^(0+128),w
  5780  0269  0020               	movlb	0	; select bank0
  5781  026A  00A4               	movwf	___flmul@a
  5782  026B  318D  25A9  3180   	fcall	___flmul
  5783  026E  0020               	movlb	0	; select bank0
  5784  026F  0823               	movf	?___flmul+3,w
  5785  0270  00C1               	movwf	___flge@ff2+3
  5786  0271  0822               	movf	?___flmul+2,w
  5787  0272  00C0               	movwf	___flge@ff2+2
  5788  0273  0821               	movf	?___flmul+1,w
  5789  0274  00BF               	movwf	___flge@ff2+1
  5790  0275  0820               	movf	?___flmul,w
  5791  0276  00BE               	movwf	___flge@ff2
  5792  0277  3180  201D  3180   	fcall	___flge
  5793  027A  1803               	btfsc	3,0
  5794  027B  2A7D               	goto	u5451
  5795  027C  2A7E               	goto	u5450
  5796  027D                     u5451:
  5797  027D  2A13               	goto	l3582
  5798  027E                     u5450:
  5799  027E  2AA0               	goto	l3592
  5800  027F                     l3588:
  5801                           
  5802                           ;C:\Program Files\Microchip\xc8\v2.32\pic\sources\c99\common\doprnt.c: 384:             
      +                          u = u/10.0;
  5803  027F  3041               	movlw	65
  5804  0280  00F3               	movwf	___fldiv@a+3
  5805  0281  3020               	movlw	32
  5806  0282  00F2               	movwf	___fldiv@a+2
  5807  0283  3000               	movlw	0
  5808  0284  00F1               	movwf	___fldiv@a+1
  5809  0285  3000               	movlw	0
  5810  0286  00F0               	movwf	___fldiv@a
  5811  0287  0021               	movlb	1	; select bank1
  5812  0288  0858               	movf	(efgtoa@u+3)^(0+128),w
  5813  0289  00F7               	movwf	___fldiv@b+3
  5814  028A  0857               	movf	(efgtoa@u+2)^(0+128),w
  5815  028B  00F6               	movwf	___fldiv@b+2
  5816  028C  0856               	movf	(efgtoa@u+1)^(0+128),w
  5817  028D  00F5               	movwf	___fldiv@b+1
  5818  028E  0855               	movf	efgtoa@u^(0+128),w
  5819  028F  00F4               	movwf	___fldiv@b
  5820  0290  3196  264C  3180   	fcall	___fldiv
  5821  0293  0873               	movf	?___fldiv+3,w
  5822  0294  0021               	movlb	1	; select bank1
  5823  0295  00D8               	movwf	(efgtoa@u+3)^(0+128)
  5824  0296  0872               	movf	?___fldiv+2,w
  5825  0297  00D7               	movwf	(efgtoa@u+2)^(0+128)
  5826  0298  0871               	movf	?___fldiv+1,w
  5827  0299  00D6               	movwf	(efgtoa@u+1)^(0+128)
  5828  029A  0870               	movf	?___fldiv,w
  5829  029B  00D5               	movwf	efgtoa@u^(0+128)
  5830  029C                     l3590:
  5831                           
  5832                           ;C:\Program Files\Microchip\xc8\v2.32\pic\sources\c99\common\doprnt.c: 385:             
      +                          --e;
  5833  029C  30FF               	movlw	255
  5834  029D  07D1               	addwf	efgtoa@e^(0+128),f
  5835  029E  30FF               	movlw	255
  5836  029F  3DD2               	addwfc	(efgtoa@e+1)^(0+128),f
  5837  02A0                     l3592:
  5838                           
  5839                           ;C:\Program Files\Microchip\xc8\v2.32\pic\sources\c99\common\doprnt.c: 383:         whil
      +                          e (g < u) {
  5840  02A0  0021               	movlb	1	; select bank1
  5841  02A1  0850               	movf	(efgtoa@g+3)^(0+128),w
  5842  02A2  0020               	movlb	0	; select bank0
  5843  02A3  00BD               	movwf	___flge@ff1+3
  5844  02A4  0021               	movlb	1	; select bank1
  5845  02A5  084F               	movf	(efgtoa@g+2)^(0+128),w
  5846  02A6  0020               	movlb	0	; select bank0
  5847  02A7  00BC               	movwf	___flge@ff1+2
  5848  02A8  0021               	movlb	1	; select bank1
  5849  02A9  084E               	movf	(efgtoa@g+1)^(0+128),w
  5850  02AA  0020               	movlb	0	; select bank0
  5851  02AB  00BB               	movwf	___flge@ff1+1
  5852  02AC  0021               	movlb	1	; select bank1
  5853  02AD  084D               	movf	efgtoa@g^(0+128),w
  5854  02AE  0020               	movlb	0	; select bank0
  5855  02AF  00BA               	movwf	___flge@ff1
  5856  02B0  0021               	movlb	1	; select bank1
  5857  02B1  0858               	movf	(efgtoa@u+3)^(0+128),w
  5858  02B2  0020               	movlb	0	; select bank0
  5859  02B3  00C1               	movwf	___flge@ff2+3
  5860  02B4  0021               	movlb	1	; select bank1
  5861  02B5  0857               	movf	(efgtoa@u+2)^(0+128),w
  5862  02B6  0020               	movlb	0	; select bank0
  5863  02B7  00C0               	movwf	___flge@ff2+2
  5864  02B8  0021               	movlb	1	; select bank1
  5865  02B9  0856               	movf	(efgtoa@u+1)^(0+128),w
  5866  02BA  0020               	movlb	0	; select bank0
  5867  02BB  00BF               	movwf	___flge@ff2+1
  5868  02BC  0021               	movlb	1	; select bank1
  5869  02BD  0855               	movf	efgtoa@u^(0+128),w
  5870  02BE  0020               	movlb	0	; select bank0
  5871  02BF  00BE               	movwf	___flge@ff2
  5872  02C0  3180  201D  3180   	fcall	___flge
  5873  02C3  1C03               	btfss	3,0
  5874  02C4  2AC6               	goto	u5461
  5875  02C5  2AC7               	goto	u5460
  5876  02C6                     u5461:
  5877  02C6  2A7F               	goto	l3588
  5878  02C7                     u5460:
  5879  02C7                     l3594:
  5880                           
  5881                           ;C:\Program Files\Microchip\xc8\v2.32\pic\sources\c99\common\doprnt.c: 390:     mode = (
      +                          char)tolower((int)c);
  5882  02C7  0020               	movlb	0	; select bank0
  5883  02C8  084A               	movf	efgtoa@c,w
  5884  02C9  00CB               	movwf	??_efgtoa
  5885  02CA  01CC               	clrf	??_efgtoa+1
  5886  02CB  084B               	movf	??_efgtoa,w
  5887  02CC  00F6               	movwf	tolower@c
  5888  02CD  084C               	movf	??_efgtoa+1,w
  5889  02CE  00F7               	movwf	tolower@c+1
  5890  02CF  319D  2518  3180   	fcall	_tolower
  5891  02D2  0876               	movf	?_tolower,w
  5892  02D3  0020               	movlb	0	; select bank0
  5893  02D4  00CD               	movwf	??_efgtoa+2
  5894  02D5  084D               	movf	??_efgtoa+2,w
  5895  02D6  0021               	movlb	1	; select bank1
  5896  02D7  00C2               	movwf	efgtoa@mode^(0+128)
  5897  02D8                     l3596:
  5898                           
  5899                           ;C:\Program Files\Microchip\xc8\v2.32\pic\sources\c99\common\doprnt.c: 391:     nmode = 
      +                          mode;
  5900  02D8  0842               	movf	efgtoa@mode^(0+128),w
  5901  02D9  0020               	movlb	0	; select bank0
  5902  02DA  00CB               	movwf	??_efgtoa
  5903  02DB  084B               	movf	??_efgtoa,w
  5904  02DC  0021               	movlb	1	; select bank1
  5905  02DD  00C1               	movwf	efgtoa@nmode^(0+128)
  5906  02DE                     l3598:
  5907                           
  5908                           ;C:\Program Files\Microchip\xc8\v2.32\pic\sources\c99\common\doprnt.c: 392:     if (mode
      +                           == 'g') {
  5909  02DE  3067               	movlw	103
  5910  02DF  0642               	xorwf	efgtoa@mode^(0+128),w
  5911  02E0  1D03               	btfss	3,2
  5912  02E1  2AE3               	goto	u5471
  5913  02E2  2AE4               	goto	u5470
  5914  02E3                     u5471:
  5915  02E3  2B0D               	goto	l853
  5916  02E4                     u5470:
  5917  02E4                     l3600:
  5918                           
  5919                           ;C:\Program Files\Microchip\xc8\v2.32\pic\sources\c99\common\doprnt.c: 393:   if (prec =
      +                          = 0) {
  5920  02E4  0022               	movlb	2	; select bank2
  5921  02E5  085A               	movf	_prec^(0+256),w
  5922  02E6  045B               	iorwf	(_prec+1)^(0+256),w
  5923  02E7  1D03               	btfss	3,2
  5924  02E8  2AEA               	goto	u5481
  5925  02E9  2AEB               	goto	u5480
  5926  02EA                     u5481:
  5927  02EA  2AEF               	goto	l854
  5928  02EB                     u5480:
  5929  02EB                     l3602:
  5930                           
  5931                           ;C:\Program Files\Microchip\xc8\v2.32\pic\sources\c99\common\doprnt.c: 394:    prec = 1;
  5932  02EB  3001               	movlw	1
  5933  02EC  00DA               	movwf	_prec^(0+256)
  5934  02ED  3000               	movlw	0
  5935  02EE  00DB               	movwf	(_prec^(0+256)+1)
  5936  02EF                     l854:	
  5937                           ;C:\Program Files\Microchip\xc8\v2.32\pic\sources\c99\common\doprnt.c: 395:   }
  5938                           
  5939                           
  5940                           ;C:\Program Files\Microchip\xc8\v2.32\pic\sources\c99\common\doprnt.c: 396:         p = 
      +                          (0 < prec) ? prec : 6;
  5941  02EF  085B               	movf	(_prec+1)^(0+256),w
  5942  02F0  3A80               	xorlw	128
  5943  02F1  0020               	movlb	0	; select bank0
  5944  02F2  00CB               	movwf	??_efgtoa
  5945  02F3  3080               	movlw	128
  5946  02F4  024B               	subwf	??_efgtoa,w
  5947  02F5  1D03               	skipz
  5948  02F6  2AFA               	goto	u5495
  5949  02F7  3001               	movlw	1
  5950  02F8  0022               	movlb	2	; select bank2
  5951  02F9  025A               	subwf	_prec^(0+256),w
  5952  02FA                     u5495:
  5953  02FA  1803               	skipnc
  5954  02FB  2AFD               	goto	u5491
  5955  02FC  2AFE               	goto	u5490
  5956  02FD                     u5491:
  5957  02FD  2B04               	goto	l3606
  5958  02FE                     u5490:
  5959  02FE                     l3604:
  5960  02FE  3006               	movlw	6
  5961  02FF  0021               	movlb	1	; select bank1
  5962  0300  00BD               	movwf	efgtoa@p^(0+128)
  5963  0301  3000               	movlw	0
  5964  0302  00BE               	movwf	(efgtoa@p^(0+128)+1)
  5965  0303  2B13               	goto	l3612
  5966  0304                     l3606:
  5967  0304  0022               	movlb	2	; select bank2
  5968  0305  085B               	movf	(_prec+1)^(0+256),w
  5969  0306  0021               	movlb	1	; select bank1
  5970  0307  00BE               	movwf	(efgtoa@p+1)^(0+128)
  5971  0308  0022               	movlb	2	; select bank2
  5972  0309  085A               	movf	_prec^(0+256),w
  5973  030A  0021               	movlb	1	; select bank1
  5974  030B  00BD               	movwf	efgtoa@p^(0+128)
  5975  030C  2B13               	goto	l3612
  5976  030D                     l853:
  5977                           
  5978                           ;C:\Program Files\Microchip\xc8\v2.32\pic\sources\c99\common\doprnt.c: 398:         p = 
      +                          (prec < 0) ? 6 : prec;
  5979  030D  0022               	movlb	2	; select bank2
  5980  030E  1BDB               	btfsc	(_prec+1)^(0+256),7
  5981  030F  2B11               	goto	u5501
  5982  0310  2B12               	goto	u5500
  5983  0311                     u5501:
  5984  0311  2AFE               	goto	l3604
  5985  0312                     u5500:
  5986  0312  2B04               	goto	l3606
  5987  0313                     l3612:
  5988                           
  5989                           ;C:\Program Files\Microchip\xc8\v2.32\pic\sources\c99\common\doprnt.c: 402:     if (mode
      +                           == 'g') {
  5990  0313  3067               	movlw	103
  5991  0314  0642               	xorwf	efgtoa@mode^(0+128),w
  5992  0315  1D03               	btfss	3,2
  5993  0316  2B18               	goto	u5511
  5994  0317  2B19               	goto	u5510
  5995  0318                     u5511:
  5996  0318  2B51               	goto	l864
  5997  0319                     u5510:
  5998  0319                     l3614:
  5999                           
  6000                           ;C:\Program Files\Microchip\xc8\v2.32\pic\sources\c99\common\doprnt.c: 403:         if (
      +                          !(e < -4) && !((p - 1) < e)) {
  6001  0319  0852               	movf	(efgtoa@e+1)^(0+128),w
  6002  031A  3A80               	xorlw	128
  6003  031B  0020               	movlb	0	; select bank0
  6004  031C  00CB               	movwf	??_efgtoa
  6005  031D  307F               	movlw	127
  6006  031E  024B               	subwf	??_efgtoa,w
  6007  031F  1D03               	skipz
  6008  0320  2B24               	goto	u5525
  6009  0321  30FC               	movlw	252
  6010  0322  0021               	movlb	1	; select bank1
  6011  0323  0251               	subwf	efgtoa@e^(0+128),w
  6012  0324                     u5525:
  6013  0324  1C03               	skipc
  6014  0325  2B27               	goto	u5521
  6015  0326  2B28               	goto	u5520
  6016  0327                     u5521:
  6017  0327  2B4B               	goto	l3620
  6018  0328                     u5520:
  6019  0328                     l3616:
  6020  0328  0021               	movlb	1	; select bank1
  6021  0329  083D               	movf	efgtoa@p^(0+128),w
  6022  032A  3EFF               	addlw	255
  6023  032B  0020               	movlb	0	; select bank0
  6024  032C  00CB               	movwf	??_efgtoa
  6025  032D  30FF               	movlw	255
  6026  032E  0021               	movlb	1	; select bank1
  6027  032F  3D3E               	addwfc	(efgtoa@p+1)^(0+128),w
  6028  0330  0020               	movlb	0	; select bank0
  6029  0331  00CC               	movwf	??_efgtoa+1
  6030  0332  084C               	movf	??_efgtoa+1,w
  6031  0333  3A80               	xorlw	128
  6032  0334  00CD               	movwf	??_efgtoa+2
  6033  0335  0021               	movlb	1	; select bank1
  6034  0336  0852               	movf	(efgtoa@e+1)^(0+128),w
  6035  0337  3A80               	xorlw	128
  6036  0338  0020               	movlb	0	; select bank0
  6037  0339  024D               	subwf	??_efgtoa+2,w
  6038  033A  1D03               	skipz
  6039  033B  2B40               	goto	u5535
  6040  033C  0021               	movlb	1	; select bank1
  6041  033D  0851               	movf	efgtoa@e^(0+128),w
  6042  033E  0020               	movlb	0	; select bank0
  6043  033F  024B               	subwf	??_efgtoa,w
  6044  0340                     u5535:
  6045  0340  1C03               	skipc
  6046  0341  2B43               	goto	u5531
  6047  0342  2B44               	goto	u5530
  6048  0343                     u5531:
  6049  0343  2B4B               	goto	l3620
  6050  0344                     u5530:
  6051  0344                     l3618:
  6052                           
  6053                           ;C:\Program Files\Microchip\xc8\v2.32\pic\sources\c99\common\doprnt.c: 404:             
      +                          nmode = 'f';
  6054  0344  3066               	movlw	102
  6055  0345  0020               	movlb	0	; select bank0
  6056  0346  00CB               	movwf	??_efgtoa
  6057  0347  084B               	movf	??_efgtoa,w
  6058  0348  0021               	movlb	1	; select bank1
  6059  0349  00C1               	movwf	efgtoa@nmode^(0+128)
  6060                           
  6061                           ;C:\Program Files\Microchip\xc8\v2.32\pic\sources\c99\common\doprnt.c: 405:         } el
      +                          se {
  6062  034A  2B51               	goto	l864
  6063  034B                     l3620:
  6064                           
  6065                           ;C:\Program Files\Microchip\xc8\v2.32\pic\sources\c99\common\doprnt.c: 406:             
      +                          nmode = 'e';
  6066  034B  3065               	movlw	101
  6067  034C  0020               	movlb	0	; select bank0
  6068  034D  00CB               	movwf	??_efgtoa
  6069  034E  084B               	movf	??_efgtoa,w
  6070  034F  0021               	movlb	1	; select bank1
  6071  0350  00C1               	movwf	efgtoa@nmode^(0+128)
  6072  0351                     l864:	
  6073                           ;C:\Program Files\Microchip\xc8\v2.32\pic\sources\c99\common\doprnt.c: 408:     }
  6074                           
  6075                           
  6076                           ;C:\Program Files\Microchip\xc8\v2.32\pic\sources\c99\common\doprnt.c: 411:     m = p;
  6077  0351  083E               	movf	(efgtoa@p+1)^(0+128),w
  6078  0352  00B3               	movwf	(efgtoa@m+1)^(0+128)
  6079  0353  083D               	movf	efgtoa@p^(0+128),w
  6080  0354  00B2               	movwf	efgtoa@m^(0+128)
  6081  0355                     l3622:
  6082                           
  6083                           ;C:\Program Files\Microchip\xc8\v2.32\pic\sources\c99\common\doprnt.c: 412:     if (!(mo
      +                          de == 'g') || ((nmode == 'f') && (e < 0))) {
  6084  0355  3067               	movlw	103
  6085  0356  0642               	xorwf	efgtoa@mode^(0+128),w
  6086  0357  1D03               	btfss	3,2
  6087  0358  2B5A               	goto	u5541
  6088  0359  2B5B               	goto	u5540
  6089  035A                     u5541:
  6090  035A  2B65               	goto	l3628
  6091  035B                     u5540:
  6092  035B                     l3624:
  6093  035B  3066               	movlw	102
  6094  035C  0641               	xorwf	efgtoa@nmode^(0+128),w
  6095  035D  1D03               	btfss	3,2
  6096  035E  2B60               	goto	u5551
  6097  035F  2B61               	goto	u5550
  6098  0360                     u5551:
  6099  0360  2B69               	goto	l3630
  6100  0361                     u5550:
  6101  0361                     l3626:
  6102  0361  1FD2               	btfss	(efgtoa@e+1)^(0+128),7
  6103  0362  2B64               	goto	u5561
  6104  0363  2B65               	goto	u5560
  6105  0364                     u5561:
  6106  0364  2B69               	goto	l3630
  6107  0365                     u5560:
  6108  0365                     l3628:
  6109                           
  6110                           ;C:\Program Files\Microchip\xc8\v2.32\pic\sources\c99\common\doprnt.c: 413:         ++m;
  6111  0365  3001               	movlw	1
  6112  0366  07B2               	addwf	efgtoa@m^(0+128),f
  6113  0367  3000               	movlw	0
  6114  0368  3DB3               	addwfc	(efgtoa@m+1)^(0+128),f
  6115  0369                     l3630:
  6116                           
  6117                           ;C:\Program Files\Microchip\xc8\v2.32\pic\sources\c99\common\doprnt.c: 417:     if (nmod
      +                          e == 'f') {
  6118  0369  3066               	movlw	102
  6119  036A  0641               	xorwf	efgtoa@nmode^(0+128),w
  6120  036B  1D03               	btfss	3,2
  6121  036C  2B6E               	goto	u5571
  6122  036D  2B6F               	goto	u5570
  6123  036E                     u5571:
  6124  036E  2B87               	goto	l3642
  6125  036F                     u5570:
  6126  036F                     l3632:
  6127                           
  6128                           ;C:\Program Files\Microchip\xc8\v2.32\pic\sources\c99\common\doprnt.c: 418:         if (
      +                          e < 0) {
  6129  036F  1FD2               	btfss	(efgtoa@e+1)^(0+128),7
  6130  0370  2B72               	goto	u5581
  6131  0371  2B73               	goto	u5580
  6132  0372                     u5581:
  6133  0372  2B7D               	goto	l3638
  6134  0373                     u5580:
  6135  0373                     l3634:
  6136                           
  6137                           ;C:\Program Files\Microchip\xc8\v2.32\pic\sources\c99\common\doprnt.c: 419:             
      +                          u = 1.0;
  6138  0373  303F               	movlw	63
  6139  0374  00D8               	movwf	(efgtoa@u+3)^(0+128)
  6140  0375  3080               	movlw	128
  6141  0376  00D7               	movwf	(efgtoa@u+2)^(0+128)
  6142  0377  3000               	movlw	0
  6143  0378  00D6               	movwf	(efgtoa@u+1)^(0+128)
  6144  0379  3000               	movlw	0
  6145  037A  00D5               	movwf	efgtoa@u^(0+128)
  6146  037B                     l3636:
  6147                           
  6148                           ;C:\Program Files\Microchip\xc8\v2.32\pic\sources\c99\common\doprnt.c: 420:             
      +                          e = 0;
  6149  037B  01D1               	clrf	efgtoa@e^(0+128)
  6150  037C  01D2               	clrf	(efgtoa@e+1)^(0+128)
  6151  037D                     l3638:
  6152                           
  6153                           ;C:\Program Files\Microchip\xc8\v2.32\pic\sources\c99\common\doprnt.c: 422:         if (
      +                          !(mode == 'g')) {
  6154  037D  3067               	movlw	103
  6155  037E  0642               	xorwf	efgtoa@mode^(0+128),w
  6156  037F  1903               	btfsc	3,2
  6157  0380  2B82               	goto	u5591
  6158  0381  2B83               	goto	u5590
  6159  0382                     u5591:
  6160  0382  2B87               	goto	l3642
  6161  0383                     u5590:
  6162  0383                     l3640:
  6163                           
  6164                           ;C:\Program Files\Microchip\xc8\v2.32\pic\sources\c99\common\doprnt.c: 423:             
      +                          m += e;
  6165  0383  0851               	movf	efgtoa@e^(0+128),w
  6166  0384  07B2               	addwf	efgtoa@m^(0+128),f
  6167  0385  0852               	movf	(efgtoa@e+1)^(0+128),w
  6168  0386  3DB3               	addwfc	(efgtoa@m+1)^(0+128),f
  6169  0387                     l3642:
  6170                           
  6171                           ;C:\Program Files\Microchip\xc8\v2.32\pic\sources\c99\common\doprnt.c: 428:     i = 0;
  6172  0387  01CB               	clrf	efgtoa@i^(0+128)
  6173  0388  01CC               	clrf	(efgtoa@i+1)^(0+128)
  6174  0389                     l3644:
  6175                           
  6176                           ;C:\Program Files\Microchip\xc8\v2.32\pic\sources\c99\common\doprnt.c: 429:     h = g;
  6177  0389  0850               	movf	(efgtoa@g+3)^(0+128),w
  6178  038A  00C6               	movwf	(efgtoa@h+3)^(0+128)
  6179  038B  084F               	movf	(efgtoa@g+2)^(0+128),w
  6180  038C  00C5               	movwf	(efgtoa@h+2)^(0+128)
  6181  038D  084E               	movf	(efgtoa@g+1)^(0+128),w
  6182  038E  00C4               	movwf	(efgtoa@h+1)^(0+128)
  6183  038F  084D               	movf	efgtoa@g^(0+128),w
  6184  0390  00C3               	movwf	efgtoa@h^(0+128)
  6185  0391                     l3646:
  6186                           
  6187                           ;C:\Program Files\Microchip\xc8\v2.32\pic\sources\c99\common\doprnt.c: 430:     ou = u;
  6188  0391  0858               	movf	(efgtoa@u+3)^(0+128),w
  6189  0392  00B7               	movwf	(efgtoa@ou+3)^(0+128)
  6190  0393  0857               	movf	(efgtoa@u+2)^(0+128),w
  6191  0394  00B6               	movwf	(efgtoa@ou+2)^(0+128)
  6192  0395  0856               	movf	(efgtoa@u+1)^(0+128),w
  6193  0396  00B5               	movwf	(efgtoa@ou+1)^(0+128)
  6194  0397  0855               	movf	efgtoa@u^(0+128),w
  6195  0398  00B4               	movwf	efgtoa@ou^(0+128)
  6196                           
  6197                           ;C:\Program Files\Microchip\xc8\v2.32\pic\sources\c99\common\doprnt.c: 431:     while (i
      +                           < m) {
  6198  0399  2C48               	goto	l3652
  6199  039A                     l3648:
  6200                           
  6201                           ;C:\Program Files\Microchip\xc8\v2.32\pic\sources\c99\common\doprnt.c: 432:         l = 
      +                          floorf(h/u);
  6202  039A  0021               	movlb	1	; select bank1
  6203  039B  0858               	movf	(efgtoa@u+3)^(0+128),w
  6204  039C  00F3               	movwf	___fldiv@a+3
  6205  039D  0857               	movf	(efgtoa@u+2)^(0+128),w
  6206  039E  00F2               	movwf	___fldiv@a+2
  6207  039F  0856               	movf	(efgtoa@u+1)^(0+128),w
  6208  03A0  00F1               	movwf	___fldiv@a+1
  6209  03A1  0855               	movf	efgtoa@u^(0+128),w
  6210  03A2  00F0               	movwf	___fldiv@a
  6211  03A3  0846               	movf	(efgtoa@h+3)^(0+128),w
  6212  03A4  00F7               	movwf	___fldiv@b+3
  6213  03A5  0845               	movf	(efgtoa@h+2)^(0+128),w
  6214  03A6  00F6               	movwf	___fldiv@b+2
  6215  03A7  0844               	movf	(efgtoa@h+1)^(0+128),w
  6216  03A8  00F5               	movwf	___fldiv@b+1
  6217  03A9  0843               	movf	efgtoa@h^(0+128),w
  6218  03AA  00F4               	movwf	___fldiv@b
  6219  03AB  3196  264C  3180   	fcall	___fldiv
  6220  03AE  0873               	movf	?___fldiv+3,w
  6221  03AF  0020               	movlb	0	; select bank0
  6222  03B0  00B0               	movwf	floorf@x+3
  6223  03B1  0872               	movf	?___fldiv+2,w
  6224  03B2  00AF               	movwf	floorf@x+2
  6225  03B3  0871               	movf	?___fldiv+1,w
  6226  03B4  00AE               	movwf	floorf@x+1
  6227  03B5  0870               	movf	?___fldiv,w
  6228  03B6  00AD               	movwf	floorf@x
  6229  03B7  3192  22F0  3180   	fcall	_floorf
  6230  03BA  0020               	movlb	0	; select bank0
  6231  03BB  0830               	movf	?_floorf+3,w
  6232  03BC  0021               	movlb	1	; select bank1
  6233  03BD  00CA               	movwf	(efgtoa@l+3)^(0+128)
  6234  03BE  0020               	movlb	0	; select bank0
  6235  03BF  082F               	movf	?_floorf+2,w
  6236  03C0  0021               	movlb	1	; select bank1
  6237  03C1  00C9               	movwf	(efgtoa@l+2)^(0+128)
  6238  03C2  0020               	movlb	0	; select bank0
  6239  03C3  082E               	movf	?_floorf+1,w
  6240  03C4  0021               	movlb	1	; select bank1
  6241  03C5  00C8               	movwf	(efgtoa@l+1)^(0+128)
  6242  03C6  0020               	movlb	0	; select bank0
  6243  03C7  082D               	movf	?_floorf,w
  6244  03C8  0021               	movlb	1	; select bank1
  6245  03C9  00C7               	movwf	efgtoa@l^(0+128)
  6246                           
  6247                           ;C:\Program Files\Microchip\xc8\v2.32\pic\sources\c99\common\doprnt.c: 433:         d = 
      +                          (int)l;
  6248  03CA  084A               	movf	(efgtoa@l+3)^(0+128),w
  6249  03CB  00F3               	movwf	___fltol@f1+3
  6250  03CC  0849               	movf	(efgtoa@l+2)^(0+128),w
  6251  03CD  00F2               	movwf	___fltol@f1+2
  6252  03CE  0848               	movf	(efgtoa@l+1)^(0+128),w
  6253  03CF  00F1               	movwf	___fltol@f1+1
  6254  03D0  0847               	movf	efgtoa@l^(0+128),w
  6255  03D1  00F0               	movwf	___fltol@f1
  6256  03D2  3190  2067  3180   	fcall	___fltol
  6257  03D5  0871               	movf	?___fltol+1,w
  6258  03D6  0021               	movlb	1	; select bank1
  6259  03D7  00B9               	movwf	(efgtoa@d+1)^(0+128)
  6260  03D8  0870               	movf	?___fltol,w
  6261  03D9  00B8               	movwf	efgtoa@d^(0+128)
  6262                           
  6263                           ;C:\Program Files\Microchip\xc8\v2.32\pic\sources\c99\common\doprnt.c: 434:         h -=
      +                           l*u;
  6264  03DA  084A               	movf	(efgtoa@l+3)^(0+128),w
  6265  03DB  0020               	movlb	0	; select bank0
  6266  03DC  00A7               	movwf	___flmul@a+3
  6267  03DD  0021               	movlb	1	; select bank1
  6268  03DE  0849               	movf	(efgtoa@l+2)^(0+128),w
  6269  03DF  0020               	movlb	0	; select bank0
  6270  03E0  00A6               	movwf	___flmul@a+2
  6271  03E1  0021               	movlb	1	; select bank1
  6272  03E2  0848               	movf	(efgtoa@l+1)^(0+128),w
  6273  03E3  0020               	movlb	0	; select bank0
  6274  03E4  00A5               	movwf	___flmul@a+1
  6275  03E5  0021               	movlb	1	; select bank1
  6276  03E6  0847               	movf	efgtoa@l^(0+128),w
  6277  03E7  0020               	movlb	0	; select bank0
  6278  03E8  00A4               	movwf	___flmul@a
  6279  03E9  0021               	movlb	1	; select bank1
  6280  03EA  0858               	movf	(efgtoa@u+3)^(0+128),w
  6281  03EB  0020               	movlb	0	; select bank0
  6282  03EC  00A3               	movwf	___flmul@b+3
  6283  03ED  0021               	movlb	1	; select bank1
  6284  03EE  0857               	movf	(efgtoa@u+2)^(0+128),w
  6285  03EF  0020               	movlb	0	; select bank0
  6286  03F0  00A2               	movwf	___flmul@b+2
  6287  03F1  0021               	movlb	1	; select bank1
  6288  03F2  0856               	movf	(efgtoa@u+1)^(0+128),w
  6289  03F3  0020               	movlb	0	; select bank0
  6290  03F4  00A1               	movwf	___flmul@b+1
  6291  03F5  0021               	movlb	1	; select bank1
  6292  03F6  0855               	movf	efgtoa@u^(0+128),w
  6293  03F7  0020               	movlb	0	; select bank0
  6294  03F8  00A0               	movwf	___flmul@b
  6295  03F9  318D  25A9  3180   	fcall	___flmul
  6296  03FC  0020               	movlb	0	; select bank0
  6297  03FD  0823               	movf	?___flmul+3,w
  6298  03FE  00BD               	movwf	___flsub@a+3
  6299  03FF  0822               	movf	?___flmul+2,w
  6300  0400  00BC               	movwf	___flsub@a+2
  6301  0401  0821               	movf	?___flmul+1,w
  6302  0402  00BB               	movwf	___flsub@a+1
  6303  0403  0820               	movf	?___flmul,w
  6304  0404  00BA               	movwf	___flsub@a
  6305  0405  0021               	movlb	1	; select bank1
  6306  0406  0846               	movf	(efgtoa@h+3)^(0+128),w
  6307  0407  0020               	movlb	0	; select bank0
  6308  0408  00C1               	movwf	___flsub@b+3
  6309  0409  0021               	movlb	1	; select bank1
  6310  040A  0845               	movf	(efgtoa@h+2)^(0+128),w
  6311  040B  0020               	movlb	0	; select bank0
  6312  040C  00C0               	movwf	___flsub@b+2
  6313  040D  0021               	movlb	1	; select bank1
  6314  040E  0844               	movf	(efgtoa@h+1)^(0+128),w
  6315  040F  0020               	movlb	0	; select bank0
  6316  0410  00BF               	movwf	___flsub@b+1
  6317  0411  0021               	movlb	1	; select bank1
  6318  0412  0843               	movf	efgtoa@h^(0+128),w
  6319  0413  0020               	movlb	0	; select bank0
  6320  0414  00BE               	movwf	___flsub@b
  6321  0415  319C  24B4  3180   	fcall	___flsub
  6322  0418  0020               	movlb	0	; select bank0
  6323  0419  083D               	movf	?___flsub+3,w
  6324  041A  0021               	movlb	1	; select bank1
  6325  041B  00C6               	movwf	(efgtoa@h+3)^(0+128)
  6326  041C  0020               	movlb	0	; select bank0
  6327  041D  083C               	movf	?___flsub+2,w
  6328  041E  0021               	movlb	1	; select bank1
  6329  041F  00C5               	movwf	(efgtoa@h+2)^(0+128)
  6330  0420  0020               	movlb	0	; select bank0
  6331  0421  083B               	movf	?___flsub+1,w
  6332  0422  0021               	movlb	1	; select bank1
  6333  0423  00C4               	movwf	(efgtoa@h+1)^(0+128)
  6334  0424  0020               	movlb	0	; select bank0
  6335  0425  083A               	movf	?___flsub,w
  6336  0426  0021               	movlb	1	; select bank1
  6337  0427  00C3               	movwf	efgtoa@h^(0+128)
  6338                           
  6339                           ;C:\Program Files\Microchip\xc8\v2.32\pic\sources\c99\common\doprnt.c: 435:         u = 
      +                          u/10.0;
  6340  0428  3041               	movlw	65
  6341  0429  00F3               	movwf	___fldiv@a+3
  6342  042A  3020               	movlw	32
  6343  042B  00F2               	movwf	___fldiv@a+2
  6344  042C  3000               	movlw	0
  6345  042D  00F1               	movwf	___fldiv@a+1
  6346  042E  3000               	movlw	0
  6347  042F  00F0               	movwf	___fldiv@a
  6348  0430  0858               	movf	(efgtoa@u+3)^(0+128),w
  6349  0431  00F7               	movwf	___fldiv@b+3
  6350  0432  0857               	movf	(efgtoa@u+2)^(0+128),w
  6351  0433  00F6               	movwf	___fldiv@b+2
  6352  0434  0856               	movf	(efgtoa@u+1)^(0+128),w
  6353  0435  00F5               	movwf	___fldiv@b+1
  6354  0436  0855               	movf	efgtoa@u^(0+128),w
  6355  0437  00F4               	movwf	___fldiv@b
  6356  0438  3196  264C  3180   	fcall	___fldiv
  6357  043B  0873               	movf	?___fldiv+3,w
  6358  043C  0021               	movlb	1	; select bank1
  6359  043D  00D8               	movwf	(efgtoa@u+3)^(0+128)
  6360  043E  0872               	movf	?___fldiv+2,w
  6361  043F  00D7               	movwf	(efgtoa@u+2)^(0+128)
  6362  0440  0871               	movf	?___fldiv+1,w
  6363  0441  00D6               	movwf	(efgtoa@u+1)^(0+128)
  6364  0442  0870               	movf	?___fldiv,w
  6365  0443  00D5               	movwf	efgtoa@u^(0+128)
  6366  0444                     l3650:
  6367                           
  6368                           ;C:\Program Files\Microchip\xc8\v2.32\pic\sources\c99\common\doprnt.c: 436:         ++i;
  6369  0444  3001               	movlw	1
  6370  0445  07CB               	addwf	efgtoa@i^(0+128),f
  6371  0446  3000               	movlw	0
  6372  0447  3DCC               	addwfc	(efgtoa@i+1)^(0+128),f
  6373  0448                     l3652:
  6374                           
  6375                           ;C:\Program Files\Microchip\xc8\v2.32\pic\sources\c99\common\doprnt.c: 431:     while (i
      +                           < m) {
  6376  0448  084C               	movf	(efgtoa@i+1)^(0+128),w
  6377  0449  3A80               	xorlw	128
  6378  044A  0020               	movlb	0	; select bank0
  6379  044B  00CB               	movwf	??_efgtoa
  6380  044C  0021               	movlb	1	; select bank1
  6381  044D  0833               	movf	(efgtoa@m+1)^(0+128),w
  6382  044E  3A80               	xorlw	128
  6383  044F  0020               	movlb	0	; select bank0
  6384  0450  024B               	subwf	??_efgtoa,w
  6385  0451  1D03               	skipz
  6386  0452  2C56               	goto	u5605
  6387  0453  0021               	movlb	1	; select bank1
  6388  0454  0832               	movf	efgtoa@m^(0+128),w
  6389  0455  024B               	subwf	efgtoa@i^(0+128),w
  6390  0456                     u5605:
  6391  0456  1C03               	skipc
  6392  0457  2C59               	goto	u5601
  6393  0458  2C5A               	goto	u5600
  6394  0459                     u5601:
  6395  0459  2B9A               	goto	l3648
  6396  045A                     u5600:
  6397  045A                     l3654:
  6398                           
  6399                           ;C:\Program Files\Microchip\xc8\v2.32\pic\sources\c99\common\doprnt.c: 440:     l = u*5.
      +                          0;
  6400  045A  3040               	movlw	64
  6401  045B  0020               	movlb	0	; select bank0
  6402  045C  00A3               	movwf	___flmul@b+3
  6403  045D  30A0               	movlw	160
  6404  045E  00A2               	movwf	___flmul@b+2
  6405  045F  3000               	movlw	0
  6406  0460  00A1               	movwf	___flmul@b+1
  6407  0461  3000               	movlw	0
  6408  0462  00A0               	movwf	___flmul@b
  6409  0463  0021               	movlb	1	; select bank1
  6410  0464  0858               	movf	(efgtoa@u+3)^(0+128),w
  6411  0465  0020               	movlb	0	; select bank0
  6412  0466  00A7               	movwf	___flmul@a+3
  6413  0467  0021               	movlb	1	; select bank1
  6414  0468  0857               	movf	(efgtoa@u+2)^(0+128),w
  6415  0469  0020               	movlb	0	; select bank0
  6416  046A  00A6               	movwf	___flmul@a+2
  6417  046B  0021               	movlb	1	; select bank1
  6418  046C  0856               	movf	(efgtoa@u+1)^(0+128),w
  6419  046D  0020               	movlb	0	; select bank0
  6420  046E  00A5               	movwf	___flmul@a+1
  6421  046F  0021               	movlb	1	; select bank1
  6422  0470  0855               	movf	efgtoa@u^(0+128),w
  6423  0471  0020               	movlb	0	; select bank0
  6424  0472  00A4               	movwf	___flmul@a
  6425  0473  318D  25A9  3180   	fcall	___flmul
  6426  0476  0020               	movlb	0	; select bank0
  6427  0477  0823               	movf	?___flmul+3,w
  6428  0478  0021               	movlb	1	; select bank1
  6429  0479  00CA               	movwf	(efgtoa@l+3)^(0+128)
  6430  047A  0020               	movlb	0	; select bank0
  6431  047B  0822               	movf	?___flmul+2,w
  6432  047C  0021               	movlb	1	; select bank1
  6433  047D  00C9               	movwf	(efgtoa@l+2)^(0+128)
  6434  047E  0020               	movlb	0	; select bank0
  6435  047F  0821               	movf	?___flmul+1,w
  6436  0480  0021               	movlb	1	; select bank1
  6437  0481  00C8               	movwf	(efgtoa@l+1)^(0+128)
  6438  0482  0020               	movlb	0	; select bank0
  6439  0483  0820               	movf	?___flmul,w
  6440  0484  0021               	movlb	1	; select bank1
  6441  0485  00C7               	movwf	efgtoa@l^(0+128)
  6442                           
  6443                           ;C:\Program Files\Microchip\xc8\v2.32\pic\sources\c99\common\doprnt.c: 441:     if (h < 
      +                          l) {
  6444  0486  0846               	movf	(efgtoa@h+3)^(0+128),w
  6445  0487  0020               	movlb	0	; select bank0
  6446  0488  00BD               	movwf	___flge@ff1+3
  6447  0489  0021               	movlb	1	; select bank1
  6448  048A  0845               	movf	(efgtoa@h+2)^(0+128),w
  6449  048B  0020               	movlb	0	; select bank0
  6450  048C  00BC               	movwf	___flge@ff1+2
  6451  048D  0021               	movlb	1	; select bank1
  6452  048E  0844               	movf	(efgtoa@h+1)^(0+128),w
  6453  048F  0020               	movlb	0	; select bank0
  6454  0490  00BB               	movwf	___flge@ff1+1
  6455  0491  0021               	movlb	1	; select bank1
  6456  0492  0843               	movf	efgtoa@h^(0+128),w
  6457  0493  0020               	movlb	0	; select bank0
  6458  0494  00BA               	movwf	___flge@ff1
  6459  0495  0021               	movlb	1	; select bank1
  6460  0496  084A               	movf	(efgtoa@l+3)^(0+128),w
  6461  0497  0020               	movlb	0	; select bank0
  6462  0498  00C1               	movwf	___flge@ff2+3
  6463  0499  0021               	movlb	1	; select bank1
  6464  049A  0849               	movf	(efgtoa@l+2)^(0+128),w
  6465  049B  0020               	movlb	0	; select bank0
  6466  049C  00C0               	movwf	___flge@ff2+2
  6467  049D  0021               	movlb	1	; select bank1
  6468  049E  0848               	movf	(efgtoa@l+1)^(0+128),w
  6469  049F  0020               	movlb	0	; select bank0
  6470  04A0  00BF               	movwf	___flge@ff2+1
  6471  04A1  0021               	movlb	1	; select bank1
  6472  04A2  0847               	movf	efgtoa@l^(0+128),w
  6473  04A3  0020               	movlb	0	; select bank0
  6474  04A4  00BE               	movwf	___flge@ff2
  6475  04A5  3180  201D  3180   	fcall	___flge
  6476  04A8  1803               	btfsc	3,0
  6477  04A9  2CAB               	goto	u5611
  6478  04AA  2CAC               	goto	u5610
  6479  04AB                     u5611:
  6480  04AB  2CB6               	goto	l3658
  6481  04AC                     u5610:
  6482  04AC                     l3656:
  6483                           
  6484                           ;C:\Program Files\Microchip\xc8\v2.32\pic\sources\c99\common\doprnt.c: 442:         l = 
      +                          0.0;
  6485  04AC  3000               	movlw	0
  6486  04AD  0021               	movlb	1	; select bank1
  6487  04AE  00CA               	movwf	(efgtoa@l+3)^(0+128)
  6488  04AF  3000               	movlw	0
  6489  04B0  00C9               	movwf	(efgtoa@l+2)^(0+128)
  6490  04B1  3000               	movlw	0
  6491  04B2  00C8               	movwf	(efgtoa@l+1)^(0+128)
  6492  04B3  3000               	movlw	0
  6493  04B4  00C7               	movwf	efgtoa@l^(0+128)
  6494                           
  6495                           ;C:\Program Files\Microchip\xc8\v2.32\pic\sources\c99\common\doprnt.c: 443:     } else {
  6496  04B5  2CDB               	goto	l3664
  6497  04B6                     l3658:
  6498                           
  6499                           ;C:\Program Files\Microchip\xc8\v2.32\pic\sources\c99\common\doprnt.c: 445:         if (
      +                          (h == l) && !(d % 2)) {
  6500  04B6  0021               	movlb	1	; select bank1
  6501  04B7  0846               	movf	(efgtoa@h+3)^(0+128),w
  6502  04B8  00F3               	movwf	___fleq@ff1+3
  6503  04B9  0845               	movf	(efgtoa@h+2)^(0+128),w
  6504  04BA  00F2               	movwf	___fleq@ff1+2
  6505  04BB  0844               	movf	(efgtoa@h+1)^(0+128),w
  6506  04BC  00F1               	movwf	___fleq@ff1+1
  6507  04BD  0843               	movf	efgtoa@h^(0+128),w
  6508  04BE  00F0               	movwf	___fleq@ff1
  6509  04BF  084A               	movf	(efgtoa@l+3)^(0+128),w
  6510  04C0  00F7               	movwf	___fleq@ff2+3
  6511  04C1  0849               	movf	(efgtoa@l+2)^(0+128),w
  6512  04C2  00F6               	movwf	___fleq@ff2+2
  6513  04C3  0848               	movf	(efgtoa@l+1)^(0+128),w
  6514  04C4  00F5               	movwf	___fleq@ff2+1
  6515  04C5  0847               	movf	efgtoa@l^(0+128),w
  6516  04C6  00F4               	movwf	___fleq@ff2
  6517  04C7  319E  2604  3180   	fcall	___fleq
  6518  04CA  1C03               	btfss	3,0
  6519  04CB  2CCD               	goto	u5621
  6520  04CC  2CCE               	goto	u5620
  6521  04CD                     u5621:
  6522  04CD  2CDB               	goto	l3664
  6523  04CE                     u5620:
  6524  04CE                     l3660:
  6525  04CE  0021               	movlb	1	; select bank1
  6526  04CF  1838               	btfsc	efgtoa@d^(0+128),0
  6527  04D0  2CD2               	goto	u5631
  6528  04D1  2CD3               	goto	u5630
  6529  04D2                     u5631:
  6530  04D2  2CDB               	goto	l3664
  6531  04D3                     u5630:
  6532  04D3                     l3662:
  6533                           
  6534                           ;C:\Program Files\Microchip\xc8\v2.32\pic\sources\c99\common\doprnt.c: 446:             
      +                          l = 0.0;
  6535  04D3  3000               	movlw	0
  6536  04D4  00CA               	movwf	(efgtoa@l+3)^(0+128)
  6537  04D5  3000               	movlw	0
  6538  04D6  00C9               	movwf	(efgtoa@l+2)^(0+128)
  6539  04D7  3000               	movlw	0
  6540  04D8  00C8               	movwf	(efgtoa@l+1)^(0+128)
  6541  04D9  3000               	movlw	0
  6542  04DA  00C7               	movwf	efgtoa@l^(0+128)
  6543  04DB                     l3664:
  6544                           
  6545                           ;C:\Program Files\Microchip\xc8\v2.32\pic\sources\c99\common\doprnt.c: 451:     h = g + 
      +                          l;
  6546  04DB  0021               	movlb	1	; select bank1
  6547  04DC  084A               	movf	(efgtoa@l+3)^(0+128),w
  6548  04DD  00F3               	movwf	___fladd@b+3
  6549  04DE  0849               	movf	(efgtoa@l+2)^(0+128),w
  6550  04DF  00F2               	movwf	___fladd@b+2
  6551  04E0  0848               	movf	(efgtoa@l+1)^(0+128),w
  6552  04E1  00F1               	movwf	___fladd@b+1
  6553  04E2  0847               	movf	efgtoa@l^(0+128),w
  6554  04E3  00F0               	movwf	___fladd@b
  6555  04E4  0850               	movf	(efgtoa@g+3)^(0+128),w
  6556  04E5  00F7               	movwf	___fladd@a+3
  6557  04E6  084F               	movf	(efgtoa@g+2)^(0+128),w
  6558  04E7  00F6               	movwf	___fladd@a+2
  6559  04E8  084E               	movf	(efgtoa@g+1)^(0+128),w
  6560  04E9  00F5               	movwf	___fladd@a+1
  6561  04EA  084D               	movf	efgtoa@g^(0+128),w
  6562  04EB  00F4               	movwf	___fladd@a
  6563  04EC  318B  236A  3180   	fcall	___fladd
  6564  04EF  0873               	movf	?___fladd+3,w
  6565  04F0  0021               	movlb	1	; select bank1
  6566  04F1  00C6               	movwf	(efgtoa@h+3)^(0+128)
  6567  04F2  0872               	movf	?___fladd+2,w
  6568  04F3  00C5               	movwf	(efgtoa@h+2)^(0+128)
  6569  04F4  0871               	movf	?___fladd+1,w
  6570  04F5  00C4               	movwf	(efgtoa@h+1)^(0+128)
  6571  04F6  0870               	movf	?___fladd,w
  6572  04F7  00C3               	movwf	efgtoa@h^(0+128)
  6573  04F8                     l3666:
  6574                           
  6575                           ;C:\Program Files\Microchip\xc8\v2.32\pic\sources\c99\common\doprnt.c: 453:  if (h >= (o
      +                          u*10.0)) {
  6576  04F8  0846               	movf	(efgtoa@h+3)^(0+128),w
  6577  04F9  0020               	movlb	0	; select bank0
  6578  04FA  00BD               	movwf	___flge@ff1+3
  6579  04FB  0021               	movlb	1	; select bank1
  6580  04FC  0845               	movf	(efgtoa@h+2)^(0+128),w
  6581  04FD  0020               	movlb	0	; select bank0
  6582  04FE  00BC               	movwf	___flge@ff1+2
  6583  04FF  0021               	movlb	1	; select bank1
  6584  0500  0844               	movf	(efgtoa@h+1)^(0+128),w
  6585  0501  0020               	movlb	0	; select bank0
  6586  0502  00BB               	movwf	___flge@ff1+1
  6587  0503  0021               	movlb	1	; select bank1
  6588  0504  0843               	movf	efgtoa@h^(0+128),w
  6589  0505  0020               	movlb	0	; select bank0
  6590  0506  00BA               	movwf	___flge@ff1
  6591  0507  3041               	movlw	65
  6592  0508  00A3               	movwf	___flmul@b+3
  6593  0509  3020               	movlw	32
  6594  050A  00A2               	movwf	___flmul@b+2
  6595  050B  3000               	movlw	0
  6596  050C  00A1               	movwf	___flmul@b+1
  6597  050D  3000               	movlw	0
  6598  050E  00A0               	movwf	___flmul@b
  6599  050F  0021               	movlb	1	; select bank1
  6600  0510  0837               	movf	(efgtoa@ou+3)^(0+128),w
  6601  0511  0020               	movlb	0	; select bank0
  6602  0512  00A7               	movwf	___flmul@a+3
  6603  0513  0021               	movlb	1	; select bank1
  6604  0514  0836               	movf	(efgtoa@ou+2)^(0+128),w
  6605  0515  0020               	movlb	0	; select bank0
  6606  0516  00A6               	movwf	___flmul@a+2
  6607  0517  0021               	movlb	1	; select bank1
  6608  0518  0835               	movf	(efgtoa@ou+1)^(0+128),w
  6609  0519  0020               	movlb	0	; select bank0
  6610  051A  00A5               	movwf	___flmul@a+1
  6611  051B  0021               	movlb	1	; select bank1
  6612  051C  0834               	movf	efgtoa@ou^(0+128),w
  6613  051D  0020               	movlb	0	; select bank0
  6614  051E  00A4               	movwf	___flmul@a
  6615  051F  318D  25A9  3180   	fcall	___flmul
  6616  0522  0020               	movlb	0	; select bank0
  6617  0523  0823               	movf	?___flmul+3,w
  6618  0524  00C1               	movwf	___flge@ff2+3
  6619  0525  0822               	movf	?___flmul+2,w
  6620  0526  00C0               	movwf	___flge@ff2+2
  6621  0527  0821               	movf	?___flmul+1,w
  6622  0528  00BF               	movwf	___flge@ff2+1
  6623  0529  0820               	movf	?___flmul,w
  6624  052A  00BE               	movwf	___flge@ff2
  6625  052B  3180  201D  3180   	fcall	___flge
  6626  052E  1C03               	btfss	3,0
  6627  052F  2D31               	goto	u5641
  6628  0530  2D32               	goto	u5640
  6629  0531                     u5641:
  6630  0531  2D6D               	goto	l879
  6631  0532                     u5640:
  6632  0532                     l3668:
  6633                           
  6634                           ;C:\Program Files\Microchip\xc8\v2.32\pic\sources\c99\common\doprnt.c: 454:   e++;
  6635  0532  3001               	movlw	1
  6636  0533  0021               	movlb	1	; select bank1
  6637  0534  07D1               	addwf	efgtoa@e^(0+128),f
  6638  0535  3000               	movlw	0
  6639  0536  3DD2               	addwfc	(efgtoa@e+1)^(0+128),f
  6640  0537                     l3670:
  6641                           
  6642                           ;C:\Program Files\Microchip\xc8\v2.32\pic\sources\c99\common\doprnt.c: 455:   ou *= 10.0
      +                          ;
  6643  0537  3041               	movlw	65
  6644  0538  0020               	movlb	0	; select bank0
  6645  0539  00A3               	movwf	___flmul@b+3
  6646  053A  3020               	movlw	32
  6647  053B  00A2               	movwf	___flmul@b+2
  6648  053C  3000               	movlw	0
  6649  053D  00A1               	movwf	___flmul@b+1
  6650  053E  3000               	movlw	0
  6651  053F  00A0               	movwf	___flmul@b
  6652  0540  0021               	movlb	1	; select bank1
  6653  0541  0837               	movf	(efgtoa@ou+3)^(0+128),w
  6654  0542  0020               	movlb	0	; select bank0
  6655  0543  00A7               	movwf	___flmul@a+3
  6656  0544  0021               	movlb	1	; select bank1
  6657  0545  0836               	movf	(efgtoa@ou+2)^(0+128),w
  6658  0546  0020               	movlb	0	; select bank0
  6659  0547  00A6               	movwf	___flmul@a+2
  6660  0548  0021               	movlb	1	; select bank1
  6661  0549  0835               	movf	(efgtoa@ou+1)^(0+128),w
  6662  054A  0020               	movlb	0	; select bank0
  6663  054B  00A5               	movwf	___flmul@a+1
  6664  054C  0021               	movlb	1	; select bank1
  6665  054D  0834               	movf	efgtoa@ou^(0+128),w
  6666  054E  0020               	movlb	0	; select bank0
  6667  054F  00A4               	movwf	___flmul@a
  6668  0550  318D  25A9  3180   	fcall	___flmul
  6669  0553  0020               	movlb	0	; select bank0
  6670  0554  0823               	movf	?___flmul+3,w
  6671  0555  0021               	movlb	1	; select bank1
  6672  0556  00B7               	movwf	(efgtoa@ou+3)^(0+128)
  6673  0557  0020               	movlb	0	; select bank0
  6674  0558  0822               	movf	?___flmul+2,w
  6675  0559  0021               	movlb	1	; select bank1
  6676  055A  00B6               	movwf	(efgtoa@ou+2)^(0+128)
  6677  055B  0020               	movlb	0	; select bank0
  6678  055C  0821               	movf	?___flmul+1,w
  6679  055D  0021               	movlb	1	; select bank1
  6680  055E  00B5               	movwf	(efgtoa@ou+1)^(0+128)
  6681  055F  0020               	movlb	0	; select bank0
  6682  0560  0820               	movf	?___flmul,w
  6683  0561  0021               	movlb	1	; select bank1
  6684  0562  00B4               	movwf	efgtoa@ou^(0+128)
  6685  0563                     l3672:
  6686                           
  6687                           ;C:\Program Files\Microchip\xc8\v2.32\pic\sources\c99\common\doprnt.c: 456:   if (nmode 
      +                          == 'f') {
  6688  0563  3066               	movlw	102
  6689  0564  0641               	xorwf	efgtoa@nmode^(0+128),w
  6690  0565  1D03               	btfss	3,2
  6691  0566  2D68               	goto	u5651
  6692  0567  2D69               	goto	u5650
  6693  0568                     u5651:
  6694  0568  2D6D               	goto	l879
  6695  0569                     u5650:
  6696  0569                     l3674:
  6697                           
  6698                           ;C:\Program Files\Microchip\xc8\v2.32\pic\sources\c99\common\doprnt.c: 458:    m++;
  6699  0569  3001               	movlw	1
  6700  056A  07B2               	addwf	efgtoa@m^(0+128),f
  6701  056B  3000               	movlw	0
  6702  056C  3DB3               	addwfc	(efgtoa@m+1)^(0+128),f
  6703  056D                     l879:	
  6704                           ;C:\Program Files\Microchip\xc8\v2.32\pic\sources\c99\common\doprnt.c: 460:  }
  6705                           
  6706                           
  6707                           ;C:\Program Files\Microchip\xc8\v2.32\pic\sources\c99\common\doprnt.c: 463:     u = ou;
  6708  056D  0021               	movlb	1	; select bank1
  6709  056E  0837               	movf	(efgtoa@ou+3)^(0+128),w
  6710  056F  00D8               	movwf	(efgtoa@u+3)^(0+128)
  6711  0570  0836               	movf	(efgtoa@ou+2)^(0+128),w
  6712  0571  00D7               	movwf	(efgtoa@u+2)^(0+128)
  6713  0572  0835               	movf	(efgtoa@ou+1)^(0+128),w
  6714  0573  00D6               	movwf	(efgtoa@u+1)^(0+128)
  6715  0574  0834               	movf	efgtoa@ou^(0+128),w
  6716  0575  00D5               	movwf	efgtoa@u^(0+128)
  6717  0576                     l3676:
  6718                           
  6719                           ;C:\Program Files\Microchip\xc8\v2.32\pic\sources\c99\common\doprnt.c: 464:     ne = (nm
      +                          ode == 'e') ? 0 : e;
  6720  0576  3065               	movlw	101
  6721  0577  0641               	xorwf	efgtoa@nmode^(0+128),w
  6722  0578  1903               	btfsc	3,2
  6723  0579  2D7B               	goto	u5661
  6724  057A  2D7C               	goto	u5660
  6725  057B                     u5661:
  6726  057B  2D81               	goto	l3680
  6727  057C                     u5660:
  6728  057C                     l3678:
  6729  057C  0852               	movf	(efgtoa@e+1)^(0+128),w
  6730  057D  00B1               	movwf	(efgtoa@ne+1)^(0+128)
  6731  057E  0851               	movf	efgtoa@e^(0+128),w
  6732  057F  00B0               	movwf	efgtoa@ne^(0+128)
  6733  0580  2D83               	goto	l884
  6734  0581                     l3680:
  6735  0581  01B0               	clrf	efgtoa@ne^(0+128)
  6736  0582  01B1               	clrf	(efgtoa@ne+1)^(0+128)
  6737  0583                     l884:
  6738                           
  6739                           ;C:\Program Files\Microchip\xc8\v2.32\pic\sources\c99\common\doprnt.c: 465:     pp = 0;
  6740  0583  01AE               	clrf	efgtoa@pp^(0+128)
  6741  0584  01AF               	clrf	(efgtoa@pp+1)^(0+128)
  6742                           
  6743                           ;C:\Program Files\Microchip\xc8\v2.32\pic\sources\c99\common\doprnt.c: 466:     t = 0;
  6744  0585  01AC               	clrf	efgtoa@t^(0+128)
  6745  0586  01AD               	clrf	(efgtoa@t+1)^(0+128)
  6746                           
  6747                           ;C:\Program Files\Microchip\xc8\v2.32\pic\sources\c99\common\doprnt.c: 467:     i = 0;
  6748  0587  01CB               	clrf	efgtoa@i^(0+128)
  6749  0588  01CC               	clrf	(efgtoa@i+1)^(0+128)
  6750                           
  6751                           ;C:\Program Files\Microchip\xc8\v2.32\pic\sources\c99\common\doprnt.c: 468:     while ((
      +                          i < m) && (n < (80 - 5))) {
  6752  0589  2EB1               	goto	l3730
  6753  058A                     l3682:
  6754                           
  6755                           ;C:\Program Files\Microchip\xc8\v2.32\pic\sources\c99\common\doprnt.c: 469:         l = 
      +                          floorf(h/u);
  6756  058A  0021               	movlb	1	; select bank1
  6757  058B  0858               	movf	(efgtoa@u+3)^(0+128),w
  6758  058C  00F3               	movwf	___fldiv@a+3
  6759  058D  0857               	movf	(efgtoa@u+2)^(0+128),w
  6760  058E  00F2               	movwf	___fldiv@a+2
  6761  058F  0856               	movf	(efgtoa@u+1)^(0+128),w
  6762  0590  00F1               	movwf	___fldiv@a+1
  6763  0591  0855               	movf	efgtoa@u^(0+128),w
  6764  0592  00F0               	movwf	___fldiv@a
  6765  0593  0846               	movf	(efgtoa@h+3)^(0+128),w
  6766  0594  00F7               	movwf	___fldiv@b+3
  6767  0595  0845               	movf	(efgtoa@h+2)^(0+128),w
  6768  0596  00F6               	movwf	___fldiv@b+2
  6769  0597  0844               	movf	(efgtoa@h+1)^(0+128),w
  6770  0598  00F5               	movwf	___fldiv@b+1
  6771  0599  0843               	movf	efgtoa@h^(0+128),w
  6772  059A  00F4               	movwf	___fldiv@b
  6773  059B  3196  264C  3180   	fcall	___fldiv
  6774  059E  0873               	movf	?___fldiv+3,w
  6775  059F  0020               	movlb	0	; select bank0
  6776  05A0  00B0               	movwf	floorf@x+3
  6777  05A1  0872               	movf	?___fldiv+2,w
  6778  05A2  00AF               	movwf	floorf@x+2
  6779  05A3  0871               	movf	?___fldiv+1,w
  6780  05A4  00AE               	movwf	floorf@x+1
  6781  05A5  0870               	movf	?___fldiv,w
  6782  05A6  00AD               	movwf	floorf@x
  6783  05A7  3192  22F0  3180   	fcall	_floorf
  6784  05AA  0020               	movlb	0	; select bank0
  6785  05AB  0830               	movf	?_floorf+3,w
  6786  05AC  0021               	movlb	1	; select bank1
  6787  05AD  00CA               	movwf	(efgtoa@l+3)^(0+128)
  6788  05AE  0020               	movlb	0	; select bank0
  6789  05AF  082F               	movf	?_floorf+2,w
  6790  05B0  0021               	movlb	1	; select bank1
  6791  05B1  00C9               	movwf	(efgtoa@l+2)^(0+128)
  6792  05B2  0020               	movlb	0	; select bank0
  6793  05B3  082E               	movf	?_floorf+1,w
  6794  05B4  0021               	movlb	1	; select bank1
  6795  05B5  00C8               	movwf	(efgtoa@l+1)^(0+128)
  6796  05B6  0020               	movlb	0	; select bank0
  6797  05B7  082D               	movf	?_floorf,w
  6798  05B8  0021               	movlb	1	; select bank1
  6799  05B9  00C7               	movwf	efgtoa@l^(0+128)
  6800                           
  6801                           ;C:\Program Files\Microchip\xc8\v2.32\pic\sources\c99\common\doprnt.c: 470:         d = 
      +                          (int)l;
  6802  05BA  084A               	movf	(efgtoa@l+3)^(0+128),w
  6803  05BB  00F3               	movwf	___fltol@f1+3
  6804  05BC  0849               	movf	(efgtoa@l+2)^(0+128),w
  6805  05BD  00F2               	movwf	___fltol@f1+2
  6806  05BE  0848               	movf	(efgtoa@l+1)^(0+128),w
  6807  05BF  00F1               	movwf	___fltol@f1+1
  6808  05C0  0847               	movf	efgtoa@l^(0+128),w
  6809  05C1  00F0               	movwf	___fltol@f1
  6810  05C2  3190  2067  3180   	fcall	___fltol
  6811  05C5  0871               	movf	?___fltol+1,w
  6812  05C6  0021               	movlb	1	; select bank1
  6813  05C7  00B9               	movwf	(efgtoa@d+1)^(0+128)
  6814  05C8  0870               	movf	?___fltol,w
  6815  05C9  00B8               	movwf	efgtoa@d^(0+128)
  6816  05CA                     l3684:
  6817                           
  6818                           ;C:\Program Files\Microchip\xc8\v2.32\pic\sources\c99\common\doprnt.c: 471:         if (
      +                          !(flags & (1 << 4)) && !d && (mode == 'g') && (ne < 0)) {
  6819  05CA  0022               	movlb	2	; select bank2
  6820  05CB  1A5C               	btfsc	_flags^(0+256),4
  6821  05CC  2DCE               	goto	u5671
  6822  05CD  2DCF               	goto	u5670
  6823  05CE                     u5671:
  6824  05CE  2DE5               	goto	l3694
  6825  05CF                     u5670:
  6826  05CF                     l3686:
  6827  05CF  0021               	movlb	1	; select bank1
  6828  05D0  0838               	movf	efgtoa@d^(0+128),w
  6829  05D1  0439               	iorwf	(efgtoa@d+1)^(0+128),w
  6830  05D2  1D03               	btfss	3,2
  6831  05D3  2DD5               	goto	u5681
  6832  05D4  2DD6               	goto	u5680
  6833  05D5                     u5681:
  6834  05D5  2DE5               	goto	l3694
  6835  05D6                     u5680:
  6836  05D6                     l3688:
  6837  05D6  3067               	movlw	103
  6838  05D7  0642               	xorwf	efgtoa@mode^(0+128),w
  6839  05D8  1D03               	btfss	3,2
  6840  05D9  2DDB               	goto	u5691
  6841  05DA  2DDC               	goto	u5690
  6842  05DB                     u5691:
  6843  05DB  2DE5               	goto	l3694
  6844  05DC                     u5690:
  6845  05DC                     l3690:
  6846  05DC  1FB1               	btfss	(efgtoa@ne+1)^(0+128),7
  6847  05DD  2DDF               	goto	u5701
  6848  05DE  2DE0               	goto	u5700
  6849  05DF                     u5701:
  6850  05DF  2DE5               	goto	l3694
  6851  05E0                     u5700:
  6852  05E0                     l3692:
  6853                           
  6854                           ;C:\Program Files\Microchip\xc8\v2.32\pic\sources\c99\common\doprnt.c: 472:             
      +                          ++t;
  6855  05E0  3001               	movlw	1
  6856  05E1  07AC               	addwf	efgtoa@t^(0+128),f
  6857  05E2  3000               	movlw	0
  6858  05E3  3DAD               	addwfc	(efgtoa@t+1)^(0+128),f
  6859                           
  6860                           ;C:\Program Files\Microchip\xc8\v2.32\pic\sources\c99\common\doprnt.c: 473:         } el
      +                          se {
  6861  05E4  2E3F               	goto	l3722
  6862  05E5                     l3694:
  6863                           
  6864                           ;C:\Program Files\Microchip\xc8\v2.32\pic\sources\c99\common\doprnt.c: 474:             
      +                          if (!pp && (ne < 0)) {
  6865  05E5  0021               	movlb	1	; select bank1
  6866  05E6  082E               	movf	efgtoa@pp^(0+128),w
  6867  05E7  042F               	iorwf	(efgtoa@pp+1)^(0+128),w
  6868  05E8  1D03               	btfss	3,2
  6869  05E9  2DEB               	goto	u5711
  6870  05EA  2DEC               	goto	u5710
  6871  05EB                     u5711:
  6872  05EB  2E23               	goto	l3714
  6873  05EC                     u5710:
  6874  05EC                     l3696:
  6875  05EC  1FB1               	btfss	(efgtoa@ne+1)^(0+128),7
  6876  05ED  2DEF               	goto	u5721
  6877  05EE  2DF0               	goto	u5720
  6878  05EF                     u5721:
  6879  05EF  2E23               	goto	l3714
  6880  05F0                     u5720:
  6881  05F0                     l3698:
  6882                           
  6883                           ;C:\Program Files\Microchip\xc8\v2.32\pic\sources\c99\common\doprnt.c: 475:             
      +                              dbuf[n++] = '.';
  6884  05F0  302E               	movlw	46
  6885  05F1  0020               	movlb	0	; select bank0
  6886  05F2  00CB               	movwf	??_efgtoa
  6887  05F3  0021               	movlb	1	; select bank1
  6888  05F4  0853               	movf	efgtoa@n^(0+128),w
  6889  05F5  3EA0               	addlw	(low (_dbuf| (0+256)))& (0+255)
  6890  05F6  0086               	movwf	6
  6891  05F7  3001               	movlw	1	; select bank3/4
  6892  05F8  0087               	movwf	7
  6893  05F9  0020               	movlb	0	; select bank0
  6894  05FA  084B               	movf	??_efgtoa,w
  6895  05FB  0081               	movwf	1
  6896  05FC                     l3700:
  6897  05FC  3001               	movlw	1
  6898  05FD  0021               	movlb	1	; select bank1
  6899  05FE  07D3               	addwf	efgtoa@n^(0+128),f
  6900  05FF  3000               	movlw	0
  6901  0600  3DD4               	addwfc	(efgtoa@n+1)^(0+128),f
  6902  0601                     l3702:
  6903                           
  6904                           ;C:\Program Files\Microchip\xc8\v2.32\pic\sources\c99\common\doprnt.c: 476:             
      +                              --w;
  6905  0601  30FF               	movlw	255
  6906  0602  07BF               	addwf	efgtoa@w^(0+128),f
  6907  0603  30FF               	movlw	255
  6908  0604  3DC0               	addwfc	(efgtoa@w+1)^(0+128),f
  6909  0605                     l3704:
  6910                           
  6911                           ;C:\Program Files\Microchip\xc8\v2.32\pic\sources\c99\common\doprnt.c: 477:             
      +                              pp = 1;
  6912  0605  3001               	movlw	1
  6913  0606  00AE               	movwf	efgtoa@pp^(0+128)
  6914  0607  3000               	movlw	0
  6915  0608  00AF               	movwf	(efgtoa@pp^(0+128)+1)
  6916  0609  2E23               	goto	l3714
  6917  060A                     l3706:
  6918                           
  6919                           ;C:\Program Files\Microchip\xc8\v2.32\pic\sources\c99\common\doprnt.c: 480:             
      +                              dbuf[n++] = '0';
  6920  060A  3030               	movlw	48
  6921  060B  0020               	movlb	0	; select bank0
  6922  060C  00CB               	movwf	??_efgtoa
  6923  060D  0021               	movlb	1	; select bank1
  6924  060E  0853               	movf	efgtoa@n^(0+128),w
  6925  060F  3EA0               	addlw	(low (_dbuf| (0+256)))& (0+255)
  6926  0610  0086               	movwf	6
  6927  0611  3001               	movlw	1	; select bank3/4
  6928  0612  0087               	movwf	7
  6929  0613  0020               	movlb	0	; select bank0
  6930  0614  084B               	movf	??_efgtoa,w
  6931  0615  0081               	movwf	1
  6932  0616                     l3708:
  6933  0616  3001               	movlw	1
  6934  0617  0021               	movlb	1	; select bank1
  6935  0618  07D3               	addwf	efgtoa@n^(0+128),f
  6936  0619  3000               	movlw	0
  6937  061A  3DD4               	addwfc	(efgtoa@n+1)^(0+128),f
  6938  061B                     l3710:
  6939                           
  6940                           ;C:\Program Files\Microchip\xc8\v2.32\pic\sources\c99\common\doprnt.c: 481:             
      +                              --w;
  6941  061B  30FF               	movlw	255
  6942  061C  07BF               	addwf	efgtoa@w^(0+128),f
  6943  061D  30FF               	movlw	255
  6944  061E  3DC0               	addwfc	(efgtoa@w+1)^(0+128),f
  6945  061F                     l3712:
  6946                           
  6947                           ;C:\Program Files\Microchip\xc8\v2.32\pic\sources\c99\common\doprnt.c: 482:             
      +                              --t;
  6948  061F  30FF               	movlw	255
  6949  0620  07AC               	addwf	efgtoa@t^(0+128),f
  6950  0621  30FF               	movlw	255
  6951  0622  3DAD               	addwfc	(efgtoa@t+1)^(0+128),f
  6952  0623                     l3714:
  6953                           
  6954                           ;C:\Program Files\Microchip\xc8\v2.32\pic\sources\c99\common\doprnt.c: 479:             
      +                          while (t) {
  6955  0623  082C               	movf	efgtoa@t^(0+128),w
  6956  0624  042D               	iorwf	(efgtoa@t+1)^(0+128),w
  6957  0625  1D03               	btfss	3,2
  6958  0626  2E28               	goto	u5731
  6959  0627  2E29               	goto	u5730
  6960  0628                     u5731:
  6961  0628  2E0A               	goto	l3706
  6962  0629                     u5730:
  6963  0629                     l3716:
  6964                           
  6965                           ;C:\Program Files\Microchip\xc8\v2.32\pic\sources\c99\common\doprnt.c: 484:             
      +                          dbuf[n++] = (char)((int)'0' + d);
  6966  0629  0838               	movf	efgtoa@d^(0+128),w
  6967  062A  3E30               	addlw	48
  6968  062B  0020               	movlb	0	; select bank0
  6969  062C  00CB               	movwf	??_efgtoa
  6970  062D  0021               	movlb	1	; select bank1
  6971  062E  0853               	movf	efgtoa@n^(0+128),w
  6972  062F  3EA0               	addlw	(low (_dbuf| (0+256)))& (0+255)
  6973  0630  0086               	movwf	6
  6974  0631  3001               	movlw	1	; select bank3/4
  6975  0632  0087               	movwf	7
  6976  0633  0020               	movlb	0	; select bank0
  6977  0634  084B               	movf	??_efgtoa,w
  6978  0635  0081               	movwf	1
  6979  0636                     l3718:
  6980  0636  3001               	movlw	1
  6981  0637  0021               	movlb	1	; select bank1
  6982  0638  07D3               	addwf	efgtoa@n^(0+128),f
  6983  0639  3000               	movlw	0
  6984  063A  3DD4               	addwfc	(efgtoa@n+1)^(0+128),f
  6985  063B                     l3720:
  6986                           
  6987                           ;C:\Program Files\Microchip\xc8\v2.32\pic\sources\c99\common\doprnt.c: 485:             
      +                          --w;
  6988  063B  30FF               	movlw	255
  6989  063C  07BF               	addwf	efgtoa@w^(0+128),f
  6990  063D  30FF               	movlw	255
  6991  063E  3DC0               	addwfc	(efgtoa@w+1)^(0+128),f
  6992  063F                     l3722:
  6993                           
  6994                           ;C:\Program Files\Microchip\xc8\v2.32\pic\sources\c99\common\doprnt.c: 487:         h -=
      +                           l*u;
  6995  063F  084A               	movf	(efgtoa@l+3)^(0+128),w
  6996  0640  0020               	movlb	0	; select bank0
  6997  0641  00A7               	movwf	___flmul@a+3
  6998  0642  0021               	movlb	1	; select bank1
  6999  0643  0849               	movf	(efgtoa@l+2)^(0+128),w
  7000  0644  0020               	movlb	0	; select bank0
  7001  0645  00A6               	movwf	___flmul@a+2
  7002  0646  0021               	movlb	1	; select bank1
  7003  0647  0848               	movf	(efgtoa@l+1)^(0+128),w
  7004  0648  0020               	movlb	0	; select bank0
  7005  0649  00A5               	movwf	___flmul@a+1
  7006  064A  0021               	movlb	1	; select bank1
  7007  064B  0847               	movf	efgtoa@l^(0+128),w
  7008  064C  0020               	movlb	0	; select bank0
  7009  064D  00A4               	movwf	___flmul@a
  7010  064E  0021               	movlb	1	; select bank1
  7011  064F  0858               	movf	(efgtoa@u+3)^(0+128),w
  7012  0650  0020               	movlb	0	; select bank0
  7013  0651  00A3               	movwf	___flmul@b+3
  7014  0652  0021               	movlb	1	; select bank1
  7015  0653  0857               	movf	(efgtoa@u+2)^(0+128),w
  7016  0654  0020               	movlb	0	; select bank0
  7017  0655  00A2               	movwf	___flmul@b+2
  7018  0656  0021               	movlb	1	; select bank1
  7019  0657  0856               	movf	(efgtoa@u+1)^(0+128),w
  7020  0658  0020               	movlb	0	; select bank0
  7021  0659  00A1               	movwf	___flmul@b+1
  7022  065A  0021               	movlb	1	; select bank1
  7023  065B  0855               	movf	efgtoa@u^(0+128),w
  7024  065C  0020               	movlb	0	; select bank0
  7025  065D  00A0               	movwf	___flmul@b
  7026  065E  318D  25A9  3180   	fcall	___flmul
  7027  0661  0020               	movlb	0	; select bank0
  7028  0662  0823               	movf	?___flmul+3,w
  7029  0663  00BD               	movwf	___flsub@a+3
  7030  0664  0822               	movf	?___flmul+2,w
  7031  0665  00BC               	movwf	___flsub@a+2
  7032  0666  0821               	movf	?___flmul+1,w
  7033  0667  00BB               	movwf	___flsub@a+1
  7034  0668  0820               	movf	?___flmul,w
  7035  0669  00BA               	movwf	___flsub@a
  7036  066A  0021               	movlb	1	; select bank1
  7037  066B  0846               	movf	(efgtoa@h+3)^(0+128),w
  7038  066C  0020               	movlb	0	; select bank0
  7039  066D  00C1               	movwf	___flsub@b+3
  7040  066E  0021               	movlb	1	; select bank1
  7041  066F  0845               	movf	(efgtoa@h+2)^(0+128),w
  7042  0670  0020               	movlb	0	; select bank0
  7043  0671  00C0               	movwf	___flsub@b+2
  7044  0672  0021               	movlb	1	; select bank1
  7045  0673  0844               	movf	(efgtoa@h+1)^(0+128),w
  7046  0674  0020               	movlb	0	; select bank0
  7047  0675  00BF               	movwf	___flsub@b+1
  7048  0676  0021               	movlb	1	; select bank1
  7049  0677  0843               	movf	efgtoa@h^(0+128),w
  7050  0678  0020               	movlb	0	; select bank0
  7051  0679  00BE               	movwf	___flsub@b
  7052  067A  319C  24B4  3180   	fcall	___flsub
  7053  067D  0020               	movlb	0	; select bank0
  7054  067E  083D               	movf	?___flsub+3,w
  7055  067F  0021               	movlb	1	; select bank1
  7056  0680  00C6               	movwf	(efgtoa@h+3)^(0+128)
  7057  0681  0020               	movlb	0	; select bank0
  7058  0682  083C               	movf	?___flsub+2,w
  7059  0683  0021               	movlb	1	; select bank1
  7060  0684  00C5               	movwf	(efgtoa@h+2)^(0+128)
  7061  0685  0020               	movlb	0	; select bank0
  7062  0686  083B               	movf	?___flsub+1,w
  7063  0687  0021               	movlb	1	; select bank1
  7064  0688  00C4               	movwf	(efgtoa@h+1)^(0+128)
  7065  0689  0020               	movlb	0	; select bank0
  7066  068A  083A               	movf	?___flsub,w
  7067  068B  0021               	movlb	1	; select bank1
  7068  068C  00C3               	movwf	efgtoa@h^(0+128)
  7069  068D                     l3724:
  7070                           
  7071                           ;C:\Program Files\Microchip\xc8\v2.32\pic\sources\c99\common\doprnt.c: 488:         u = 
      +                          u/10.0;
  7072  068D  3041               	movlw	65
  7073  068E  00F3               	movwf	___fldiv@a+3
  7074  068F  3020               	movlw	32
  7075  0690  00F2               	movwf	___fldiv@a+2
  7076  0691  3000               	movlw	0
  7077  0692  00F1               	movwf	___fldiv@a+1
  7078  0693  3000               	movlw	0
  7079  0694  00F0               	movwf	___fldiv@a
  7080  0695  0858               	movf	(efgtoa@u+3)^(0+128),w
  7081  0696  00F7               	movwf	___fldiv@b+3
  7082  0697  0857               	movf	(efgtoa@u+2)^(0+128),w
  7083  0698  00F6               	movwf	___fldiv@b+2
  7084  0699  0856               	movf	(efgtoa@u+1)^(0+128),w
  7085  069A  00F5               	movwf	___fldiv@b+1
  7086  069B  0855               	movf	efgtoa@u^(0+128),w
  7087  069C  00F4               	movwf	___fldiv@b
  7088  069D  3196  264C  3180   	fcall	___fldiv
  7089  06A0  0873               	movf	?___fldiv+3,w
  7090  06A1  0021               	movlb	1	; select bank1
  7091  06A2  00D8               	movwf	(efgtoa@u+3)^(0+128)
  7092  06A3  0872               	movf	?___fldiv+2,w
  7093  06A4  00D7               	movwf	(efgtoa@u+2)^(0+128)
  7094  06A5  0871               	movf	?___fldiv+1,w
  7095  06A6  00D6               	movwf	(efgtoa@u+1)^(0+128)
  7096  06A7  0870               	movf	?___fldiv,w
  7097  06A8  00D5               	movwf	efgtoa@u^(0+128)
  7098  06A9                     l3726:
  7099                           
  7100                           ;C:\Program Files\Microchip\xc8\v2.32\pic\sources\c99\common\doprnt.c: 489:         --ne
      +                          ;
  7101  06A9  30FF               	movlw	255
  7102  06AA  07B0               	addwf	efgtoa@ne^(0+128),f
  7103  06AB  30FF               	movlw	255
  7104  06AC  3DB1               	addwfc	(efgtoa@ne+1)^(0+128),f
  7105  06AD                     l3728:
  7106                           
  7107                           ;C:\Program Files\Microchip\xc8\v2.32\pic\sources\c99\common\doprnt.c: 490:         ++i;
  7108  06AD  3001               	movlw	1
  7109  06AE  07CB               	addwf	efgtoa@i^(0+128),f
  7110  06AF  3000               	movlw	0
  7111  06B0  3DCC               	addwfc	(efgtoa@i+1)^(0+128),f
  7112  06B1                     l3730:
  7113                           
  7114                           ;C:\Program Files\Microchip\xc8\v2.32\pic\sources\c99\common\doprnt.c: 468:     while ((
      +                          i < m) && (n < (80 - 5))) {
  7115  06B1  084C               	movf	(efgtoa@i+1)^(0+128),w
  7116  06B2  3A80               	xorlw	128
  7117  06B3  0020               	movlb	0	; select bank0
  7118  06B4  00CB               	movwf	??_efgtoa
  7119  06B5  0021               	movlb	1	; select bank1
  7120  06B6  0833               	movf	(efgtoa@m+1)^(0+128),w
  7121  06B7  3A80               	xorlw	128
  7122  06B8  0020               	movlb	0	; select bank0
  7123  06B9  024B               	subwf	??_efgtoa,w
  7124  06BA  1D03               	skipz
  7125  06BB  2EBF               	goto	u5745
  7126  06BC  0021               	movlb	1	; select bank1
  7127  06BD  0832               	movf	efgtoa@m^(0+128),w
  7128  06BE  024B               	subwf	efgtoa@i^(0+128),w
  7129  06BF                     u5745:
  7130  06BF  1803               	skipnc
  7131  06C0  2EC2               	goto	u5741
  7132  06C1  2EC3               	goto	u5740
  7133  06C2                     u5741:
  7134  06C2  2ED3               	goto	l3734
  7135  06C3                     u5740:
  7136  06C3                     l3732:
  7137  06C3  0021               	movlb	1	; select bank1
  7138  06C4  0854               	movf	(efgtoa@n+1)^(0+128),w
  7139  06C5  3A80               	xorlw	128
  7140  06C6  0020               	movlb	0	; select bank0
  7141  06C7  00CB               	movwf	??_efgtoa
  7142  06C8  3080               	movlw	128
  7143  06C9  024B               	subwf	??_efgtoa,w
  7144  06CA  1D03               	skipz
  7145  06CB  2ECF               	goto	u5755
  7146  06CC  304B               	movlw	75
  7147  06CD  0021               	movlb	1	; select bank1
  7148  06CE  0253               	subwf	efgtoa@n^(0+128),w
  7149  06CF                     u5755:
  7150  06CF  1C03               	skipc
  7151  06D0  2ED2               	goto	u5751
  7152  06D1  2ED3               	goto	u5750
  7153  06D2                     u5751:
  7154  06D2  2D8A               	goto	l3682
  7155  06D3                     u5750:
  7156  06D3                     l3734:
  7157                           
  7158                           ;C:\Program Files\Microchip\xc8\v2.32\pic\sources\c99\common\doprnt.c: 492:     if (!pp 
      +                          && (flags & (1 << 4))) {
  7159  06D3  0021               	movlb	1	; select bank1
  7160  06D4  082E               	movf	efgtoa@pp^(0+128),w
  7161  06D5  042F               	iorwf	(efgtoa@pp+1)^(0+128),w
  7162  06D6  1D03               	btfss	3,2
  7163  06D7  2ED9               	goto	u5761
  7164  06D8  2EDA               	goto	u5760
  7165  06D9                     u5761:
  7166  06D9  2EF0               	goto	l3742
  7167  06DA                     u5760:
  7168  06DA                     l3736:
  7169  06DA  0022               	movlb	2	; select bank2
  7170  06DB  1E5C               	btfss	_flags^(0+256),4
  7171  06DC  2EDE               	goto	u5771
  7172  06DD  2EDF               	goto	u5770
  7173  06DE                     u5771:
  7174  06DE  2EF0               	goto	l3742
  7175  06DF                     u5770:
  7176  06DF                     l3738:
  7177                           
  7178                           ;C:\Program Files\Microchip\xc8\v2.32\pic\sources\c99\common\doprnt.c: 493:         dbuf
      +                          [n++] = '.';
  7179  06DF  302E               	movlw	46
  7180  06E0  0020               	movlb	0	; select bank0
  7181  06E1  00CB               	movwf	??_efgtoa
  7182  06E2  0021               	movlb	1	; select bank1
  7183  06E3  0853               	movf	efgtoa@n^(0+128),w
  7184  06E4  3EA0               	addlw	(low (_dbuf| (0+256)))& (0+255)
  7185  06E5  0086               	movwf	6
  7186  06E6  3001               	movlw	1	; select bank3/4
  7187  06E7  0087               	movwf	7
  7188  06E8  0020               	movlb	0	; select bank0
  7189  06E9  084B               	movf	??_efgtoa,w
  7190  06EA  0081               	movwf	1
  7191  06EB                     l3740:
  7192  06EB  3001               	movlw	1
  7193  06EC  0021               	movlb	1	; select bank1
  7194  06ED  07D3               	addwf	efgtoa@n^(0+128),f
  7195  06EE  3000               	movlw	0
  7196  06EF  3DD4               	addwfc	(efgtoa@n+1)^(0+128),f
  7197  06F0                     l3742:
  7198                           
  7199                           ;C:\Program Files\Microchip\xc8\v2.32\pic\sources\c99\common\doprnt.c: 495:     dbuf[n] 
      +                          = '\0';
  7200  06F0  0021               	movlb	1	; select bank1
  7201  06F1  0853               	movf	efgtoa@n^(0+128),w
  7202  06F2  3EA0               	addlw	(low (_dbuf| (0+256)))& (0+255)
  7203  06F3  0086               	movwf	6
  7204  06F4  3001               	movlw	1	; select bank3/4
  7205  06F5  0087               	movwf	7
  7206  06F6  0181               	clrf	1
  7207  06F7                     l3744:
  7208                           
  7209                           ;C:\Program Files\Microchip\xc8\v2.32\pic\sources\c99\common\doprnt.c: 498:     if (nmod
      +                          e == 'e') {
  7210  06F7  3065               	movlw	101
  7211  06F8  0641               	xorwf	efgtoa@nmode^(0+128),w
  7212  06F9  1D03               	btfss	3,2
  7213  06FA  2EFC               	goto	u5781
  7214  06FB  2EFD               	goto	u5780
  7215  06FC                     u5781:
  7216  06FC  2FD5               	goto	l3804
  7217  06FD                     u5780:
  7218  06FD                     l3746:
  7219                           
  7220                           ;C:\Program Files\Microchip\xc8\v2.32\pic\sources\c99\common\doprnt.c: 499:         i = 
      +                          sizeof(dbuf) - 1;
  7221  06FD  304F               	movlw	79
  7222  06FE  00CB               	movwf	efgtoa@i^(0+128)
  7223  06FF  3000               	movlw	0
  7224  0700  00CC               	movwf	(efgtoa@i^(0+128)+1)
  7225  0701                     l3748:
  7226                           
  7227                           ;C:\Program Files\Microchip\xc8\v2.32\pic\sources\c99\common\doprnt.c: 500:         dbuf
      +                          [i] = '\0';
  7228  0701  084B               	movf	efgtoa@i^(0+128),w
  7229  0702  3EA0               	addlw	(low (_dbuf| (0+256)))& (0+255)
  7230  0703  0086               	movwf	6
  7231  0704  3001               	movlw	1	; select bank3/4
  7232  0705  0087               	movwf	7
  7233  0706  0181               	clrf	1
  7234  0707                     l3750:
  7235                           
  7236                           ;C:\Program Files\Microchip\xc8\v2.32\pic\sources\c99\common\doprnt.c: 501:         sign
      +                           = 0;
  7237  0707  01BA               	clrf	efgtoa@sign^(0+128)
  7238  0708  01BB               	clrf	(efgtoa@sign+1)^(0+128)
  7239  0709                     l3752:
  7240                           
  7241                           ;C:\Program Files\Microchip\xc8\v2.32\pic\sources\c99\common\doprnt.c: 502:         if (
      +                          e < 0) {
  7242  0709  1FD2               	btfss	(efgtoa@e+1)^(0+128),7
  7243  070A  2F0C               	goto	u5791
  7244  070B  2F0D               	goto	u5790
  7245  070C                     u5791:
  7246  070C  2F16               	goto	l3758
  7247  070D                     u5790:
  7248  070D                     l3754:
  7249                           
  7250                           ;C:\Program Files\Microchip\xc8\v2.32\pic\sources\c99\common\doprnt.c: 503:             
      +                          sign = 1;
  7251  070D  3001               	movlw	1
  7252  070E  00BA               	movwf	efgtoa@sign^(0+128)
  7253  070F  3000               	movlw	0
  7254  0710  00BB               	movwf	(efgtoa@sign^(0+128)+1)
  7255  0711                     l3756:
  7256                           
  7257                           ;C:\Program Files\Microchip\xc8\v2.32\pic\sources\c99\common\doprnt.c: 504:             
      +                          e = -e;
  7258  0711  09D1               	comf	efgtoa@e^(0+128),f
  7259  0712  09D2               	comf	(efgtoa@e+1)^(0+128),f
  7260  0713  0AD1               	incf	efgtoa@e^(0+128),f
  7261  0714  1903               	skipnz
  7262  0715  0AD2               	incf	(efgtoa@e+1)^(0+128),f
  7263  0716                     l3758:
  7264                           
  7265                           ;C:\Program Files\Microchip\xc8\v2.32\pic\sources\c99\common\doprnt.c: 506:         p = 
      +                          2;
  7266  0716  3002               	movlw	2
  7267  0717  00BD               	movwf	efgtoa@p^(0+128)
  7268  0718  3000               	movlw	0
  7269  0719  00BE               	movwf	(efgtoa@p^(0+128)+1)
  7270                           
  7271                           ;C:\Program Files\Microchip\xc8\v2.32\pic\sources\c99\common\doprnt.c: 507:         whil
      +                          e (e || (0 < p)) {
  7272  071A  2F51               	goto	l3770
  7273  071B                     l3760:
  7274                           
  7275                           ;C:\Program Files\Microchip\xc8\v2.32\pic\sources\c99\common\doprnt.c: 508:             
      +                          --i;
  7276  071B  30FF               	movlw	255
  7277  071C  0021               	movlb	1	; select bank1
  7278  071D  07CB               	addwf	efgtoa@i^(0+128),f
  7279  071E  30FF               	movlw	255
  7280  071F  3DCC               	addwfc	(efgtoa@i+1)^(0+128),f
  7281  0720                     l3762:
  7282                           
  7283                           ;C:\Program Files\Microchip\xc8\v2.32\pic\sources\c99\common\doprnt.c: 509:             
      +                          dbuf[i] = '0' + (e % 10);
  7284  0720  300A               	movlw	10
  7285  0721  00F0               	movwf	___awmod@divisor
  7286  0722  3000               	movlw	0
  7287  0723  00F1               	movwf	___awmod@divisor+1
  7288  0724  0852               	movf	(efgtoa@e+1)^(0+128),w
  7289  0725  00F3               	movwf	___awmod@dividend+1
  7290  0726  0851               	movf	efgtoa@e^(0+128),w
  7291  0727  00F2               	movwf	___awmod@dividend
  7292  0728  319E  26A2  3180   	fcall	___awmod
  7293  072B  0870               	movf	?___awmod,w
  7294  072C  3E30               	addlw	48
  7295  072D  0020               	movlb	0	; select bank0
  7296  072E  00CB               	movwf	??_efgtoa
  7297  072F  0021               	movlb	1	; select bank1
  7298  0730  084B               	movf	efgtoa@i^(0+128),w
  7299  0731  3EA0               	addlw	(low (_dbuf| (0+256)))& (0+255)
  7300  0732  0086               	movwf	6
  7301  0733  3001               	movlw	1	; select bank3/4
  7302  0734  0087               	movwf	7
  7303  0735  0020               	movlb	0	; select bank0
  7304  0736  084B               	movf	??_efgtoa,w
  7305  0737  0081               	movwf	1
  7306  0738                     l3764:
  7307                           
  7308                           ;C:\Program Files\Microchip\xc8\v2.32\pic\sources\c99\common\doprnt.c: 510:             
      +                          e = e / 10;
  7309  0738  300A               	movlw	10
  7310  0739  00F0               	movwf	___awdiv@divisor
  7311  073A  3000               	movlw	0
  7312  073B  00F1               	movwf	___awdiv@divisor+1
  7313  073C  0021               	movlb	1	; select bank1
  7314  073D  0852               	movf	(efgtoa@e+1)^(0+128),w
  7315  073E  00F3               	movwf	___awdiv@dividend+1
  7316  073F  0851               	movf	efgtoa@e^(0+128),w
  7317  0740  00F2               	movwf	___awdiv@dividend
  7318  0741  3190  2008  3180   	fcall	___awdiv
  7319  0744  0871               	movf	?___awdiv+1,w
  7320  0745  0021               	movlb	1	; select bank1
  7321  0746  00D2               	movwf	(efgtoa@e+1)^(0+128)
  7322  0747  0870               	movf	?___awdiv,w
  7323  0748  00D1               	movwf	efgtoa@e^(0+128)
  7324  0749                     l3766:
  7325                           
  7326                           ;C:\Program Files\Microchip\xc8\v2.32\pic\sources\c99\common\doprnt.c: 511:             
      +                          --p;
  7327  0749  30FF               	movlw	255
  7328  074A  07BD               	addwf	efgtoa@p^(0+128),f
  7329  074B  30FF               	movlw	255
  7330  074C  3DBE               	addwfc	(efgtoa@p+1)^(0+128),f
  7331  074D                     l3768:
  7332                           
  7333                           ;C:\Program Files\Microchip\xc8\v2.32\pic\sources\c99\common\doprnt.c: 512:             
      +                          --w;
  7334  074D  30FF               	movlw	255
  7335  074E  07BF               	addwf	efgtoa@w^(0+128),f
  7336  074F  30FF               	movlw	255
  7337  0750  3DC0               	addwfc	(efgtoa@w+1)^(0+128),f
  7338  0751                     l3770:
  7339                           
  7340                           ;C:\Program Files\Microchip\xc8\v2.32\pic\sources\c99\common\doprnt.c: 507:         whil
      +                          e (e || (0 < p)) {
  7341  0751  0851               	movf	efgtoa@e^(0+128),w
  7342  0752  0452               	iorwf	(efgtoa@e+1)^(0+128),w
  7343  0753  1D03               	btfss	3,2
  7344  0754  2F56               	goto	u5801
  7345  0755  2F57               	goto	u5800
  7346  0756                     u5801:
  7347  0756  2F1B               	goto	l3760
  7348  0757                     u5800:
  7349  0757                     l3772:
  7350  0757  083E               	movf	(efgtoa@p+1)^(0+128),w
  7351  0758  3A80               	xorlw	128
  7352  0759  0020               	movlb	0	; select bank0
  7353  075A  00CB               	movwf	??_efgtoa
  7354  075B  3080               	movlw	128
  7355  075C  024B               	subwf	??_efgtoa,w
  7356  075D  1D03               	skipz
  7357  075E  2F62               	goto	u5815
  7358  075F  3001               	movlw	1
  7359  0760  0021               	movlb	1	; select bank1
  7360  0761  023D               	subwf	efgtoa@p^(0+128),w
  7361  0762                     u5815:
  7362  0762  1803               	skipnc
  7363  0763  2F65               	goto	u5811
  7364  0764  2F66               	goto	u5810
  7365  0765                     u5811:
  7366  0765  2F1B               	goto	l3760
  7367  0766                     u5810:
  7368  0766                     l3774:
  7369                           
  7370                           ;C:\Program Files\Microchip\xc8\v2.32\pic\sources\c99\common\doprnt.c: 514:         --i;
  7371  0766  30FF               	movlw	255
  7372  0767  0021               	movlb	1	; select bank1
  7373  0768  07CB               	addwf	efgtoa@i^(0+128),f
  7374  0769  30FF               	movlw	255
  7375  076A  3DCC               	addwfc	(efgtoa@i+1)^(0+128),f
  7376  076B                     l3776:
  7377                           
  7378                           ;C:\Program Files\Microchip\xc8\v2.32\pic\sources\c99\common\doprnt.c: 515:         dbuf
      +                          [i] = sign ? '-' : '+';
  7379  076B  083A               	movf	efgtoa@sign^(0+128),w
  7380  076C  043B               	iorwf	(efgtoa@sign+1)^(0+128),w
  7381  076D  1D03               	btfss	3,2
  7382  076E  2F70               	goto	u5821
  7383  076F  2F71               	goto	u5820
  7384  0770                     u5821:
  7385  0770  2F76               	goto	l3780
  7386  0771                     u5820:
  7387  0771                     l3778:
  7388  0771  302B               	movlw	43
  7389  0772  00A6               	movwf	_efgtoa$734^(0+128)
  7390  0773  3000               	movlw	0
  7391  0774  00A7               	movwf	(_efgtoa$734^(0+128)+1)
  7392  0775  2F7A               	goto	l3782
  7393  0776                     l3780:
  7394  0776  302D               	movlw	45
  7395  0777  00A6               	movwf	_efgtoa$734^(0+128)
  7396  0778  3000               	movlw	0
  7397  0779  00A7               	movwf	(_efgtoa$734^(0+128)+1)
  7398  077A                     l3782:
  7399  077A  0826               	movf	_efgtoa$734^(0+128),w
  7400  077B  0020               	movlb	0	; select bank0
  7401  077C  00CB               	movwf	??_efgtoa
  7402  077D  0021               	movlb	1	; select bank1
  7403  077E  084B               	movf	efgtoa@i^(0+128),w
  7404  077F  3EA0               	addlw	(low (_dbuf| (0+256)))& (0+255)
  7405  0780  0086               	movwf	6
  7406  0781  3001               	movlw	1	; select bank3/4
  7407  0782  0087               	movwf	7
  7408  0783  0020               	movlb	0	; select bank0
  7409  0784  084B               	movf	??_efgtoa,w
  7410  0785  0081               	movwf	1
  7411  0786                     l3784:
  7412                           
  7413                           ;C:\Program Files\Microchip\xc8\v2.32\pic\sources\c99\common\doprnt.c: 516:         --w;
  7414  0786  30FF               	movlw	255
  7415  0787  0021               	movlb	1	; select bank1
  7416  0788  07BF               	addwf	efgtoa@w^(0+128),f
  7417  0789  30FF               	movlw	255
  7418  078A  3DC0               	addwfc	(efgtoa@w+1)^(0+128),f
  7419  078B                     l3786:
  7420                           
  7421                           ;C:\Program Files\Microchip\xc8\v2.32\pic\sources\c99\common\doprnt.c: 518:         dbuf
      +                          [i] = (0 ? isupper((int)c) : ((unsigned)((int)c)-'A') < 26) ? 'E' : 'e';
  7422  078B  30FF               	movlw	255
  7423  078C  07CB               	addwf	efgtoa@i^(0+128),f
  7424  078D  30FF               	movlw	255
  7425  078E  3DCC               	addwfc	(efgtoa@i+1)^(0+128),f
  7426  078F                     l3788:
  7427  078F  0020               	movlb	0	; select bank0
  7428  0790  084A               	movf	efgtoa@c,w
  7429  0791  3EBF               	addlw	191
  7430  0792  00CB               	movwf	??_efgtoa
  7431  0793  30FF               	movlw	255
  7432  0794  1803               	skipnc
  7433  0795  3000               	movlw	0
  7434  0796  00CC               	movwf	??_efgtoa+1
  7435  0797  3000               	movlw	0
  7436  0798  024C               	subwf	??_efgtoa+1,w
  7437  0799  301A               	movlw	26
  7438  079A  1903               	skipnz
  7439  079B  024B               	subwf	??_efgtoa,w
  7440  079C  1C03               	skipc
  7441  079D  2F9F               	goto	u5831
  7442  079E  2FA1               	goto	u5830
  7443  079F                     u5831:
  7444  079F  3001               	movlw	1
  7445  07A0  2FA2               	goto	u5840
  7446  07A1                     u5830:
  7447  07A1  3000               	movlw	0
  7448  07A2                     u5840:
  7449  07A2  00CD               	movwf	??_efgtoa+2
  7450  07A3  01CE               	clrf	??_efgtoa+3
  7451  07A4  084D               	movf	??_efgtoa+2,w
  7452  07A5  0021               	movlb	1	; select bank1
  7453  07A6  00AA               	movwf	_efgtoa$736^(0+128)
  7454  07A7  0020               	movlb	0	; select bank0
  7455  07A8  084E               	movf	??_efgtoa+3,w
  7456  07A9  0021               	movlb	1	; select bank1
  7457  07AA  00AB               	movwf	(_efgtoa$736+1)^(0+128)
  7458  07AB                     l3792:
  7459  07AB  082A               	movf	_efgtoa$736^(0+128),w
  7460  07AC  042B               	iorwf	(_efgtoa$736+1)^(0+128),w
  7461  07AD  1D03               	btfss	3,2
  7462  07AE  2FB0               	goto	u5851
  7463  07AF  2FB1               	goto	u5850
  7464  07B0                     u5851:
  7465  07B0  2FB6               	goto	l3796
  7466  07B1                     u5850:
  7467  07B1                     l3794:
  7468  07B1  3065               	movlw	101
  7469  07B2  00A8               	movwf	_efgtoa$735^(0+128)
  7470  07B3  3000               	movlw	0
  7471  07B4  00A9               	movwf	(_efgtoa$735^(0+128)+1)
  7472  07B5  2FBA               	goto	l3798
  7473  07B6                     l3796:
  7474  07B6  3045               	movlw	69
  7475  07B7  00A8               	movwf	_efgtoa$735^(0+128)
  7476  07B8  3000               	movlw	0
  7477  07B9  00A9               	movwf	(_efgtoa$735^(0+128)+1)
  7478  07BA                     l3798:
  7479  07BA  0828               	movf	_efgtoa$735^(0+128),w
  7480  07BB  0020               	movlb	0	; select bank0
  7481  07BC  00CB               	movwf	??_efgtoa
  7482  07BD  0021               	movlb	1	; select bank1
  7483  07BE  084B               	movf	efgtoa@i^(0+128),w
  7484  07BF  3EA0               	addlw	(low (_dbuf| (0+256)))& (0+255)
  7485  07C0  0086               	movwf	6
  7486  07C1  3001               	movlw	1	; select bank3/4
  7487  07C2  0087               	movwf	7
  7488  07C3  0020               	movlb	0	; select bank0
  7489  07C4  084B               	movf	??_efgtoa,w
  7490  07C5  0081               	movwf	1
  7491  07C6                     l3800:
  7492                           
  7493                           ;C:\Program Files\Microchip\xc8\v2.32\pic\sources\c99\common\doprnt.c: 519:         --w;
  7494  07C6  30FF               	movlw	255
  7495  07C7  0021               	movlb	1	; select bank1
  7496  07C8  07BF               	addwf	efgtoa@w^(0+128),f
  7497  07C9  30FF               	movlw	255
  7498  07CA  3DC0               	addwfc	(efgtoa@w+1)^(0+128),f
  7499  07CB                     l3802:
  7500                           
  7501                           ;C:\Program Files\Microchip\xc8\v2.32\pic\sources\c99\common\doprnt.c: 520:         strc
      +                          py(&dbuf[n], &dbuf[i]);
  7502  07CB  084B               	movf	efgtoa@i^(0+128),w
  7503  07CC  3EA0               	addlw	(low (_dbuf| (0+256)))& (0+255)
  7504  07CD  00F0               	movwf	strcpy@src
  7505  07CE  3001               	movlw	1
  7506  07CF  00F1               	movwf	strcpy@src+1
  7507  07D0  0853               	movf	efgtoa@n^(0+128),w
  7508  07D1  3EA0               	addlw	(low (_dbuf| (0+256)))& (0+255)
  7509  07D2  319C  24D4  3180   	fcall	_strcpy
  7510  07D5                     l3804:
  7511                           
  7512                           ;C:\Program Files\Microchip\xc8\v2.32\pic\sources\c99\common\doprnt.c: 524:     return p
      +                          ad(fp, &dbuf[0], w);
  7513  07D5  30A0               	movlw	(low (_dbuf| (0+256)))& (0+255)
  7514  07D6  0020               	movlb	0	; select bank0
  7515  07D7  00CB               	movwf	??_efgtoa
  7516  07D8  084B               	movf	??_efgtoa,w
  7517  07D9  00A7               	movwf	pad@buf
  7518  07DA  0021               	movlb	1	; select bank1
  7519  07DB  0840               	movf	(efgtoa@w+1)^(0+128),w
  7520  07DC  0020               	movlb	0	; select bank0
  7521  07DD  00A9               	movwf	pad@p+1
  7522  07DE  0021               	movlb	1	; select bank1
  7523  07DF  083F               	movf	efgtoa@w^(0+128),w
  7524  07E0  0020               	movlb	0	; select bank0
  7525  07E1  00A8               	movwf	pad@p
  7526  07E2  0021               	movlb	1	; select bank1
  7527  07E3  083C               	movf	efgtoa@fp^(0+128),w
  7528  07E4  319F  274D  3180   	fcall	_pad
  7529  07E7  0020               	movlb	0	; select bank0
  7530  07E8  0828               	movf	?_pad+1,w
  7531  07E9  00C7               	movwf	?_efgtoa+1
  7532  07EA  0827               	movf	?_pad,w
  7533  07EB  00C6               	movwf	?_efgtoa
  7534  07EC                     l838:
  7535  07EC  0008               	return
  7536  07ED                     __end_of_efgtoa:
  7537                           
  7538                           	psect	text10
  7539  1D18                     __ptext10:	
  7540 ;; *************** function _tolower *****************
  7541 ;; Defined at:
  7542 ;;		line 4 in file "C:\Program Files\Microchip\xc8\v2.32\pic\sources\c99\common\tolower.c"
  7543 ;; Parameters:    Size  Location     Type
  7544 ;;  c               2    6[COMMON] int 
  7545 ;; Auto vars:     Size  Location     Type
  7546 ;;		None
  7547 ;; Return value:  Size  Location     Type
  7548 ;;                  2    6[COMMON] int 
  7549 ;; Registers used:
  7550 ;;		wreg, status,2, status,0
  7551 ;; Tracked objects:
  7552 ;;		On entry : 0/0
  7553 ;;		On exit  : 0/0
  7554 ;;		Unchanged: 0/0
  7555 ;; Data sizes:     COMMON   BANK0   BANK1   BANK2   BANK3   BANK4   BANK5   BANK6   BANK7   BANK8   BANK9  BANK10  BANK1
      +1  BANK12
  7556 ;;      Params:         2       0       0       0       0       0       0       0       0       0       0       0       
      +0       0
  7557 ;;      Locals:         2       0       0       0       0       0       0       0       0       0       0       0       
      +0       0
  7558 ;;      Temps:          4       0       0       0       0       0       0       0       0       0       0       0       
      +0       0
  7559 ;;      Totals:         8       0       0       0       0       0       0       0       0       0       0       0       
      +0       0
  7560 ;;Total ram usage:        8 bytes
  7561 ;; Hardware stack levels used: 1
  7562 ;; Hardware stack levels required when called: 1
  7563 ;; This function calls:
  7564 ;;		_isupper
  7565 ;; This function is called by:
  7566 ;;		_efgtoa
  7567 ;;		_vfpfcnvrt
  7568 ;; This function uses a non-reentrant model
  7569 ;;
  7570                           
  7571                           
  7572                           ;psect for function _tolower
  7573  1D18                     _tolower:
  7574  1D18                     l3410:	
  7575                           ;incstack = 0
  7576                           ; Regs used in _tolower: [wreg+status,2+status,0]
  7577                           
  7578  1D18  0876               	movf	tolower@c,w
  7579  1D19  3EBF               	addlw	191
  7580  1D1A  00F8               	movwf	??_tolower
  7581  1D1B  30FF               	movlw	255
  7582  1D1C  3D77               	addwfc	tolower@c+1,w
  7583  1D1D  00F9               	movwf	??_tolower+1
  7584  1D1E  3000               	movlw	0
  7585  1D1F  0279               	subwf	??_tolower+1,w
  7586  1D20  301A               	movlw	26
  7587  1D21  1903               	skipnz
  7588  1D22  0278               	subwf	??_tolower,w
  7589  1D23  1C03               	skipc
  7590  1D24  2D26               	goto	u5021
  7591  1D25  2D28               	goto	u5020
  7592  1D26                     u5021:
  7593  1D26  3001               	movlw	1
  7594  1D27  2D29               	goto	u5030
  7595  1D28                     u5020:
  7596  1D28  3000               	movlw	0
  7597  1D29                     u5030:
  7598  1D29  00FA               	movwf	??_tolower+2
  7599  1D2A  01FB               	clrf	??_tolower+3
  7600  1D2B  087A               	movf	??_tolower+2,w
  7601  1D2C  00FC               	movwf	_tolower$859
  7602  1D2D  087B               	movf	??_tolower+3,w
  7603  1D2E  00FD               	movwf	_tolower$859+1
  7604  1D2F                     l3414:
  7605  1D2F  087C               	movf	_tolower$859,w
  7606  1D30  047D               	iorwf	_tolower$859+1,w
  7607  1D31  1903               	btfsc	3,2
  7608  1D32  2D34               	goto	u5041
  7609  1D33  2D35               	goto	u5040
  7610  1D34                     u5041:
  7611  1D34  2D3C               	goto	l1028
  7612  1D35                     u5040:
  7613  1D35                     l3416:
  7614  1D35  3020               	movlw	32
  7615  1D36  0476               	iorwf	tolower@c,w
  7616  1D37  00F6               	movwf	?_tolower
  7617  1D38  3000               	movlw	0
  7618  1D39  0477               	iorwf	tolower@c+1,w
  7619  1D3A  00F7               	movwf	?_tolower+1
  7620  1D3B  2D3C               	goto	l1033
  7621  1D3C                     l1028:
  7622  1D3C                     l1033:
  7623  1D3C  0008               	return
  7624  1D3D                     __end_of_tolower:
  7625                           
  7626                           	psect	text11
  7627  0005                     __ptext11:	
  7628 ;; *************** function _isupper *****************
  7629 ;; Defined at:
  7630 ;;		line 5 in file "C:\Program Files\Microchip\xc8\v2.32\pic\sources\c99\common\isupper.c"
  7631 ;; Parameters:    Size  Location     Type
  7632 ;;  c               2    0[COMMON] int 
  7633 ;; Auto vars:     Size  Location     Type
  7634 ;;		None
  7635 ;; Return value:  Size  Location     Type
  7636 ;;                  2    0[COMMON] int 
  7637 ;; Registers used:
  7638 ;;		wreg, status,2, status,0
  7639 ;; Tracked objects:
  7640 ;;		On entry : 0/0
  7641 ;;		On exit  : 0/0
  7642 ;;		Unchanged: 0/0
  7643 ;; Data sizes:     COMMON   BANK0   BANK1   BANK2   BANK3   BANK4   BANK5   BANK6   BANK7   BANK8   BANK9  BANK10  BANK1
      +1  BANK12
  7644 ;;      Params:         2       0       0       0       0       0       0       0       0       0       0       0       
      +0       0
  7645 ;;      Locals:         0       0       0       0       0       0       0       0       0       0       0       0       
      +0       0
  7646 ;;      Temps:          4       0       0       0       0       0       0       0       0       0       0       0       
      +0       0
  7647 ;;      Totals:         6       0       0       0       0       0       0       0       0       0       0       0       
      +0       0
  7648 ;;Total ram usage:        6 bytes
  7649 ;; Hardware stack levels used: 1
  7650 ;; This function calls:
  7651 ;;		Nothing
  7652 ;; This function is called by:
  7653 ;;		_efgtoa
  7654 ;;		_vfpfcnvrt
  7655 ;;		_tolower
  7656 ;; This function uses a non-reentrant model
  7657 ;;
  7658                           
  7659                           
  7660                           ;psect for function _isupper
  7661  0005                     _isupper:
  7662  0005                     l2840:	
  7663                           ;incstack = 0
  7664                           ; Regs used in _isupper: [wreg+status,2+status,0]
  7665                           
  7666  0005  0870               	movf	isupper@c,w
  7667  0006  3EBF               	addlw	191
  7668  0007  00F2               	movwf	??_isupper
  7669  0008  30FF               	movlw	255
  7670  0009  3D71               	addwfc	isupper@c+1,w
  7671  000A  00F3               	movwf	??_isupper+1
  7672  000B  3000               	movlw	0
  7673  000C  0273               	subwf	??_isupper+1,w
  7674  000D  301A               	movlw	26
  7675  000E  1903               	skipnz
  7676  000F  0272               	subwf	??_isupper,w
  7677  0010  1C03               	skipc
  7678  0011  2813               	goto	u3721
  7679  0012  2815               	goto	u3720
  7680  0013                     u3721:
  7681  0013  3001               	movlw	1
  7682  0014  2816               	goto	u3730
  7683  0015                     u3720:
  7684  0015  3000               	movlw	0
  7685  0016                     u3730:
  7686  0016  00F4               	movwf	??_isupper+2
  7687  0017  01F5               	clrf	??_isupper+3
  7688  0018  0874               	movf	??_isupper+2,w
  7689  0019  00F0               	movwf	?_isupper
  7690  001A  0875               	movf	??_isupper+3,w
  7691  001B  00F1               	movwf	?_isupper+1
  7692  001C                     l972:
  7693  001C  0008               	return
  7694  001D                     __end_of_isupper:
  7695                           
  7696                           	psect	text12
  7697  1CD4                     __ptext12:	
  7698 ;; *************** function _strcpy *****************
  7699 ;; Defined at:
  7700 ;;		line 3 in file "C:\Program Files\Microchip\xc8\v2.32\pic\sources\c99\common\strcpy.c"
  7701 ;; Parameters:    Size  Location     Type
  7702 ;;  dest            1    wreg     PTR unsigned char 
  7703 ;;		 -> dbuf(80), 
  7704 ;;  src             2    0[COMMON] PTR const unsigned char 
  7705 ;;		 -> STR_9(4), STR_8(4), STR_5(4), STR_4(4), 
  7706 ;;		 -> dbuf(80), 
  7707 ;; Auto vars:     Size  Location     Type
  7708 ;;  dest            1    7[COMMON] PTR unsigned char 
  7709 ;;		 -> dbuf(80), 
  7710 ;;  s               2    4[COMMON] PTR const unsigned char 
  7711 ;;		 -> STR_9(4), STR_8(4), STR_5(4), STR_4(4), 
  7712 ;;		 -> dbuf(80), 
  7713 ;;  d               1    6[COMMON] PTR unsigned char 
  7714 ;;		 -> dbuf(80), 
  7715 ;; Return value:  Size  Location     Type
  7716 ;;                  1    wreg      PTR unsigned char 
  7717 ;; Registers used:
  7718 ;;		wreg, fsr0l, fsr0h, fsr1l, fsr1h, status,2, status,0, pclath
  7719 ;; Tracked objects:
  7720 ;;		On entry : 0/0
  7721 ;;		On exit  : 0/0
  7722 ;;		Unchanged: 0/0
  7723 ;; Data sizes:     COMMON   BANK0   BANK1   BANK2   BANK3   BANK4   BANK5   BANK6   BANK7   BANK8   BANK9  BANK10  BANK1
      +1  BANK12
  7724 ;;      Params:         2       0       0       0       0       0       0       0       0       0       0       0       
      +0       0
  7725 ;;      Locals:         4       0       0       0       0       0       0       0       0       0       0       0       
      +0       0
  7726 ;;      Temps:          2       0       0       0       0       0       0       0       0       0       0       0       
      +0       0
  7727 ;;      Totals:         8       0       0       0       0       0       0       0       0       0       0       0       
      +0       0
  7728 ;;Total ram usage:        8 bytes
  7729 ;; Hardware stack levels used: 1
  7730 ;; This function calls:
  7731 ;;		Nothing
  7732 ;; This function is called by:
  7733 ;;		_efgtoa
  7734 ;; This function uses a non-reentrant model
  7735 ;;
  7736                           
  7737                           
  7738                           ;psect for function _strcpy
  7739  1CD4                     _strcpy:
  7740                           
  7741                           ;incstack = 0
  7742                           ; Regs used in _strcpy: [wreg-fsr1h+status,2+status,0+pclath]
  7743                           ;strcpy@dest stored from wreg
  7744  1CD4  00F7               	movwf	strcpy@dest
  7745  1CD5                     l3406:
  7746  1CD5  0871               	movf	strcpy@src+1,w
  7747  1CD6  00F5               	movwf	strcpy@s+1
  7748  1CD7  0870               	movf	strcpy@src,w
  7749  1CD8  00F4               	movwf	strcpy@s
  7750  1CD9  0877               	movf	strcpy@dest,w
  7751  1CDA  00F2               	movwf	??_strcpy
  7752  1CDB  0872               	movf	??_strcpy,w
  7753  1CDC  00F6               	movwf	strcpy@d
  7754  1CDD                     l3408:
  7755  1CDD  0876               	movf	strcpy@d,w
  7756  1CDE  0086               	movwf	6
  7757  1CDF  3001               	movlw	1	; select bank2/3
  7758  1CE0  0087               	movwf	7
  7759  1CE1  0AF6               	incf	strcpy@d,f
  7760  1CE2  0875               	movf	strcpy@s+1,w
  7761  1CE3  00F3               	movwf	??_strcpy+1
  7762  1CE4  0874               	movf	strcpy@s,w
  7763  1CE5  00F2               	movwf	??_strcpy
  7764  1CE6  0AF4               	incf	strcpy@s,f
  7765  1CE7  1903               	skipnz
  7766  1CE8  0AF5               	incf	strcpy@s+1,f
  7767  1CE9  0872               	movf	??_strcpy,w
  7768  1CEA  0084               	movwf	4
  7769  1CEB  0873               	movf	??_strcpy+1,w
  7770  1CEC  0085               	movwf	5
  7771  1CED  0800               	movf	0,w	;code access
  7772  1CEE  3FC0               	movwi [0]fsr1
  7773  1CEF  0889               	movf	9,f
  7774  1CF0  1D03               	btfss	3,2
  7775  1CF1  2CF3               	goto	u5011
  7776  1CF2  2CF4               	goto	u5010
  7777  1CF3                     u5011:
  7778  1CF3  2CDD               	goto	l3408
  7779  1CF4                     u5010:
  7780  1CF4                     l1008:
  7781  1CF4  0008               	return
  7782  1CF5                     __end_of_strcpy:
  7783                           
  7784                           	psect	text13
  7785  12F0                     __ptext13:	
  7786 ;; *************** function _floorf *****************
  7787 ;; Defined at:
  7788 ;;		line 3 in file "C:\Program Files\Microchip\xc8\v2.32\pic\sources\c99\common\floorf.c"
  7789 ;; Parameters:    Size  Location     Type
  7790 ;;  x               4   13[BANK0 ] float 
  7791 ;; Auto vars:     Size  Location     Type
  7792 ;;  u               4   29[BANK0 ] struct .
  7793 ;;  m               4   23[BANK0 ] unsigned long 
  7794 ;;  e               2   27[BANK0 ] int 
  7795 ;; Return value:  Size  Location     Type
  7796 ;;                  4   13[BANK0 ] float 
  7797 ;; Registers used:
  7798 ;;		wreg, status,2, status,0
  7799 ;; Tracked objects:
  7800 ;;		On entry : 0/0
  7801 ;;		On exit  : 0/0
  7802 ;;		Unchanged: 0/0
  7803 ;; Data sizes:     COMMON   BANK0   BANK1   BANK2   BANK3   BANK4   BANK5   BANK6   BANK7   BANK8   BANK9  BANK10  BANK1
      +1  BANK12
  7804 ;;      Params:         0       4       0       0       0       0       0       0       0       0       0       0       
      +0       0
  7805 ;;      Locals:         0      10       0       0       0       0       0       0       0       0       0       0       
      +0       0
  7806 ;;      Temps:          0       6       0       0       0       0       0       0       0       0       0       0       
      +0       0
  7807 ;;      Totals:         0      20       0       0       0       0       0       0       0       0       0       0       
      +0       0
  7808 ;;Total ram usage:       20 bytes
  7809 ;; Hardware stack levels used: 1
  7810 ;; This function calls:
  7811 ;;		Nothing
  7812 ;; This function is called by:
  7813 ;;		_efgtoa
  7814 ;; This function uses a non-reentrant model
  7815 ;;
  7816                           
  7817                           
  7818                           ;psect for function _floorf
  7819  12F0                     _floorf:
  7820  12F0                     l3420:	
  7821                           ;incstack = 0
  7822                           ; Regs used in _floorf: [wreg+status,2+status,0]
  7823                           
  7824  12F0  0022               	movlb	2	; select bank2
  7825  12F1  0849               	movf	(floorf@F527+3)^(0+256),w
  7826  12F2  0020               	movlb	0	; select bank0
  7827  12F3  00C0               	movwf	floorf@u+3
  7828  12F4  0022               	movlb	2	; select bank2
  7829  12F5  0848               	movf	(floorf@F527+2)^(0+256),w
  7830  12F6  0020               	movlb	0	; select bank0
  7831  12F7  00BF               	movwf	floorf@u+2
  7832  12F8  0022               	movlb	2	; select bank2
  7833  12F9  0847               	movf	(floorf@F527+1)^(0+256),w
  7834  12FA  0020               	movlb	0	; select bank0
  7835  12FB  00BE               	movwf	floorf@u+1
  7836  12FC  0022               	movlb	2	; select bank2
  7837  12FD  0846               	movf	floorf@F527^(0+256),w
  7838  12FE  0020               	movlb	0	; select bank0
  7839  12FF  00BD               	movwf	floorf@u
  7840  1300  0830               	movf	floorf@x+3,w
  7841  1301  00C0               	movwf	floorf@u+3
  7842  1302  082F               	movf	floorf@x+2,w
  7843  1303  00BF               	movwf	floorf@u+2
  7844  1304  082E               	movf	floorf@x+1,w
  7845  1305  00BE               	movwf	floorf@u+1
  7846  1306  082D               	movf	floorf@x,w
  7847  1307  00BD               	movwf	floorf@u
  7848  1308                     l3422:
  7849  1308  083D               	movf	floorf@u,w
  7850  1309  00B1               	movwf	??_floorf
  7851  130A  083E               	movf	floorf@u+1,w
  7852  130B  00B2               	movwf	??_floorf+1
  7853  130C  083F               	movf	floorf@u+2,w
  7854  130D  00B3               	movwf	??_floorf+2
  7855  130E  0840               	movf	floorf@u+3,w
  7856  130F  00B4               	movwf	??_floorf+3
  7857  1310  3017               	movlw	23
  7858  1311                     u5055:
  7859  1311  36B4               	lsrf	??_floorf+3,f
  7860  1312  0CB3               	rrf	??_floorf+2,f
  7861  1313  0CB2               	rrf	??_floorf+1,f
  7862  1314  0CB1               	rrf	??_floorf,f
  7863  1315                     u5050:
  7864  1315  0B89               	decfsz	9,f
  7865  1316  2B11               	goto	u5055
  7866  1317  30FF               	movlw	255
  7867  1318  0531               	andwf	??_floorf,w
  7868  1319  00B5               	movwf	??_floorf+4
  7869  131A  3000               	movlw	0
  7870  131B  0532               	andwf	??_floorf+1,w
  7871  131C  00B6               	movwf	??_floorf+5
  7872  131D  0835               	movf	??_floorf+4,w
  7873  131E  3E81               	addlw	129
  7874  131F  00BB               	movwf	floorf@e
  7875  1320  30FF               	movlw	255
  7876  1321  3D36               	addwfc	??_floorf+5,w
  7877  1322  00BC               	movwf	floorf@e+1
  7878  1323                     l3424:
  7879  1323  083C               	movf	floorf@e+1,w
  7880  1324  3A80               	xorlw	128
  7881  1325  00B1               	movwf	??_floorf
  7882  1326  3080               	movlw	128
  7883  1327  0231               	subwf	??_floorf,w
  7884  1328  1D03               	skipz
  7885  1329  2B2C               	goto	u5065
  7886  132A  3017               	movlw	23
  7887  132B  023B               	subwf	floorf@e,w
  7888  132C                     u5065:
  7889  132C  1C03               	skipc
  7890  132D  2B2F               	goto	u5061
  7891  132E  2B30               	goto	u5060
  7892  132F                     u5061:
  7893  132F  2B31               	goto	l961
  7894  1330                     u5060:
  7895  1330                     l3426:
  7896  1330  2BDA               	goto	l962
  7897  1331                     l961:
  7898  1331  0020               	movlb	0	; select bank0
  7899  1332  1BBC               	btfsc	floorf@e+1,7
  7900  1333  2B35               	goto	u5071
  7901  1334  2B36               	goto	u5070
  7902  1335                     u5071:
  7903  1335  2B93               	goto	l3440
  7904  1336                     u5070:
  7905  1336                     l3428:
  7906  1336  30FF               	movlw	255
  7907  1337  00B1               	movwf	??_floorf
  7908  1338  30FF               	movlw	255
  7909  1339  00B2               	movwf	??_floorf+1
  7910  133A  307F               	movlw	127
  7911  133B  00B3               	movwf	??_floorf+2
  7912  133C  3000               	movlw	0
  7913  133D  00B4               	movwf	??_floorf+3
  7914  133E  0A3B               	incf	floorf@e,w
  7915  133F  2B44               	goto	u5080
  7916  1340                     u5085:
  7917  1340  37B4               	asrf	??_floorf+3,f
  7918  1341  0CB3               	rrf	??_floorf+2,f
  7919  1342  0CB2               	rrf	??_floorf+1,f
  7920  1343  0CB1               	rrf	??_floorf,f
  7921  1344                     u5080:
  7922  1344  0B89               	decfsz	9,f
  7923  1345  2B40               	goto	u5085
  7924  1346  0834               	movf	??_floorf+3,w
  7925  1347  00BA               	movwf	floorf@m+3
  7926  1348  0833               	movf	??_floorf+2,w
  7927  1349  00B9               	movwf	floorf@m+2
  7928  134A  0832               	movf	??_floorf+1,w
  7929  134B  00B8               	movwf	floorf@m+1
  7930  134C  0831               	movf	??_floorf,w
  7931  134D  00B7               	movwf	floorf@m
  7932  134E                     l3430:
  7933  134E  083D               	movf	floorf@u,w
  7934  134F  0537               	andwf	floorf@m,w
  7935  1350  00B1               	movwf	??_floorf
  7936  1351  083E               	movf	floorf@u+1,w
  7937  1352  0538               	andwf	floorf@m+1,w
  7938  1353  00B2               	movwf	??_floorf+1
  7939  1354  083F               	movf	floorf@u+2,w
  7940  1355  0539               	andwf	floorf@m+2,w
  7941  1356  00B3               	movwf	??_floorf+2
  7942  1357  0840               	movf	floorf@u+3,w
  7943  1358  053A               	andwf	floorf@m+3,w
  7944  1359  00B4               	movwf	??_floorf+3
  7945  135A  0834               	movf	??_floorf+3,w
  7946  135B  0433               	iorwf	??_floorf+2,w
  7947  135C  0432               	iorwf	??_floorf+1,w
  7948  135D  0431               	iorwf	??_floorf,w
  7949  135E  1D03               	skipz
  7950  135F  2B61               	goto	u5091
  7951  1360  2B62               	goto	u5090
  7952  1361                     u5091:
  7953  1361  2B63               	goto	l3434
  7954  1362                     u5090:
  7955  1362  2B30               	goto	l3426
  7956  1363                     l3434:
  7957  1363  083D               	movf	floorf@u,w
  7958  1364  00B1               	movwf	??_floorf
  7959  1365  083E               	movf	floorf@u+1,w
  7960  1366  00B2               	movwf	??_floorf+1
  7961  1367  083F               	movf	floorf@u+2,w
  7962  1368  00B3               	movwf	??_floorf+2
  7963  1369  0840               	movf	floorf@u+3,w
  7964  136A  00B4               	movwf	??_floorf+3
  7965  136B  301F               	movlw	31
  7966  136C                     u5105:
  7967  136C  36B4               	lsrf	??_floorf+3,f
  7968  136D  0CB3               	rrf	??_floorf+2,f
  7969  136E  0CB2               	rrf	??_floorf+1,f
  7970  136F  0CB1               	rrf	??_floorf,f
  7971  1370                     u5100:
  7972  1370  0B89               	decfsz	9,f
  7973  1371  2B6C               	goto	u5105
  7974  1372  0834               	movf	??_floorf+3,w
  7975  1373  0433               	iorwf	??_floorf+2,w
  7976  1374  0432               	iorwf	??_floorf+1,w
  7977  1375  0431               	iorwf	??_floorf,w
  7978  1376  1903               	skipnz
  7979  1377  2B79               	goto	u5111
  7980  1378  2B7A               	goto	u5110
  7981  1379                     u5111:
  7982  1379  2B82               	goto	l3438
  7983  137A                     u5110:
  7984  137A                     l3436:
  7985  137A  0837               	movf	floorf@m,w
  7986  137B  07BD               	addwf	floorf@u,f
  7987  137C  0838               	movf	floorf@m+1,w
  7988  137D  3DBE               	addwfc	floorf@u+1,f
  7989  137E  0839               	movf	floorf@m+2,w
  7990  137F  3DBF               	addwfc	floorf@u+2,f
  7991  1380  083A               	movf	floorf@m+3,w
  7992  1381  3DC0               	addwfc	floorf@u+3,f
  7993  1382                     l3438:
  7994  1382  0937               	comf	floorf@m,w
  7995  1383  00B1               	movwf	??_floorf
  7996  1384  0938               	comf	floorf@m+1,w
  7997  1385  00B2               	movwf	??_floorf+1
  7998  1386  0939               	comf	floorf@m+2,w
  7999  1387  00B3               	movwf	??_floorf+2
  8000  1388  093A               	comf	floorf@m+3,w
  8001  1389  00B4               	movwf	??_floorf+3
  8002  138A  0831               	movf	??_floorf,w
  8003  138B  05BD               	andwf	floorf@u,f
  8004  138C  0832               	movf	??_floorf+1,w
  8005  138D  05BE               	andwf	floorf@u+1,f
  8006  138E  0833               	movf	??_floorf+2,w
  8007  138F  05BF               	andwf	floorf@u+2,f
  8008  1390  0834               	movf	??_floorf+3,w
  8009  1391  05C0               	andwf	floorf@u+3,f
  8010  1392  2BD2               	goto	l966
  8011  1393                     l3440:
  8012  1393  083D               	movf	floorf@u,w
  8013  1394  00B1               	movwf	??_floorf
  8014  1395  083E               	movf	floorf@u+1,w
  8015  1396  00B2               	movwf	??_floorf+1
  8016  1397  083F               	movf	floorf@u+2,w
  8017  1398  00B3               	movwf	??_floorf+2
  8018  1399  0840               	movf	floorf@u+3,w
  8019  139A  00B4               	movwf	??_floorf+3
  8020  139B  301F               	movlw	31
  8021  139C                     u5125:
  8022  139C  36B4               	lsrf	??_floorf+3,f
  8023  139D  0CB3               	rrf	??_floorf+2,f
  8024  139E  0CB2               	rrf	??_floorf+1,f
  8025  139F  0CB1               	rrf	??_floorf,f
  8026  13A0                     u5120:
  8027  13A0  0B89               	decfsz	9,f
  8028  13A1  2B9C               	goto	u5125
  8029  13A2  0834               	movf	??_floorf+3,w
  8030  13A3  0433               	iorwf	??_floorf+2,w
  8031  13A4  0432               	iorwf	??_floorf+1,w
  8032  13A5  0431               	iorwf	??_floorf,w
  8033  13A6  1D03               	skipz
  8034  13A7  2BA9               	goto	u5131
  8035  13A8  2BAA               	goto	u5130
  8036  13A9                     u5131:
  8037  13A9  2BB3               	goto	l3444
  8038  13AA                     u5130:
  8039  13AA                     l3442:
  8040  13AA  3000               	movlw	0
  8041  13AB  00C0               	movwf	floorf@u+3
  8042  13AC  3000               	movlw	0
  8043  13AD  00BF               	movwf	floorf@u+2
  8044  13AE  3000               	movlw	0
  8045  13AF  00BE               	movwf	floorf@u+1
  8046  13B0  3000               	movlw	0
  8047  13B1  00BD               	movwf	floorf@u
  8048  13B2  2BD2               	goto	l966
  8049  13B3                     l3444:
  8050  13B3  083D               	movf	floorf@u,w
  8051  13B4  00B1               	movwf	??_floorf
  8052  13B5  083E               	movf	floorf@u+1,w
  8053  13B6  00B2               	movwf	??_floorf+1
  8054  13B7  083F               	movf	floorf@u+2,w
  8055  13B8  00B3               	movwf	??_floorf+2
  8056  13B9  0840               	movf	floorf@u+3,w
  8057  13BA  00B4               	movwf	??_floorf+3
  8058  13BB  3001               	movlw	1
  8059  13BC                     u5145:
  8060  13BC  35B1               	lslf	??_floorf,f
  8061  13BD  0DB2               	rlf	??_floorf+1,f
  8062  13BE  0DB3               	rlf	??_floorf+2,f
  8063  13BF  0DB4               	rlf	??_floorf+3,f
  8064  13C0                     u5140:
  8065  13C0  0B89               	decfsz	9,f
  8066  13C1  2BBC               	goto	u5145
  8067  13C2  0834               	movf	??_floorf+3,w
  8068  13C3  0433               	iorwf	??_floorf+2,w
  8069  13C4  0432               	iorwf	??_floorf+1,w
  8070  13C5  0431               	iorwf	??_floorf,w
  8071  13C6  1903               	skipnz
  8072  13C7  2BC9               	goto	u5151
  8073  13C8  2BCA               	goto	u5150
  8074  13C9                     u5151:
  8075  13C9  2BD2               	goto	l966
  8076  13CA                     u5150:
  8077  13CA                     l3446:
  8078  13CA  30BF               	movlw	191
  8079  13CB  00C0               	movwf	floorf@u+3
  8080  13CC  3080               	movlw	128
  8081  13CD  00BF               	movwf	floorf@u+2
  8082  13CE  3000               	movlw	0
  8083  13CF  00BE               	movwf	floorf@u+1
  8084  13D0  3000               	movlw	0
  8085  13D1  00BD               	movwf	floorf@u
  8086  13D2                     l966:
  8087  13D2  0840               	movf	floorf@u+3,w
  8088  13D3  00B0               	movwf	?_floorf+3
  8089  13D4  083F               	movf	floorf@u+2,w
  8090  13D5  00AF               	movwf	?_floorf+2
  8091  13D6  083E               	movf	floorf@u+1,w
  8092  13D7  00AE               	movwf	?_floorf+1
  8093  13D8  083D               	movf	floorf@u,w
  8094  13D9  00AD               	movwf	?_floorf
  8095  13DA                     l962:
  8096  13DA  0008               	return
  8097  13DB                     __end_of_floorf:
  8098                           
  8099                           	psect	text14
  8100  10DB                     __ptext14:	
  8101 ;; *************** function ___fpclassifyf *****************
  8102 ;; Defined at:
  8103 ;;		line 4 in file "C:\Program Files\Microchip\xc8\v2.32\pic\sources\c99\common\__fpclassifyf.c"
  8104 ;; Parameters:    Size  Location     Type
  8105 ;;  x               4    0[COMMON] float 
  8106 ;; Auto vars:     Size  Location     Type
  8107 ;;  u               4    2[BANK0 ] struct .
  8108 ;;  e               2    0[BANK0 ] int 
  8109 ;; Return value:  Size  Location     Type
  8110 ;;                  2    0[COMMON] int 
  8111 ;; Registers used:
  8112 ;;		wreg, status,2, status,0
  8113 ;; Tracked objects:
  8114 ;;		On entry : 0/0
  8115 ;;		On exit  : 0/0
  8116 ;;		Unchanged: 0/0
  8117 ;; Data sizes:     COMMON   BANK0   BANK1   BANK2   BANK3   BANK4   BANK5   BANK6   BANK7   BANK8   BANK9  BANK10  BANK1
      +1  BANK12
  8118 ;;      Params:         4       0       0       0       0       0       0       0       0       0       0       0       
      +0       0
  8119 ;;      Locals:         0       6       0       0       0       0       0       0       0       0       0       0       
      +0       0
  8120 ;;      Temps:          6       0       0       0       0       0       0       0       0       0       0       0       
      +0       0
  8121 ;;      Totals:        10       6       0       0       0       0       0       0       0       0       0       0       
      +0       0
  8122 ;;Total ram usage:       16 bytes
  8123 ;; Hardware stack levels used: 1
  8124 ;; This function calls:
  8125 ;;		Nothing
  8126 ;; This function is called by:
  8127 ;;		_efgtoa
  8128 ;; This function uses a non-reentrant model
  8129 ;;
  8130                           
  8131                           
  8132                           ;psect for function ___fpclassifyf
  8133  10DB                     ___fpclassifyf:
  8134  10DB                     l3382:	
  8135                           ;incstack = 0
  8136                           ; Regs used in ___fpclassifyf: [wreg+status,2+status,0]
  8137                           
  8138  10DB  0022               	movlb	2	; select bank2
  8139  10DC  084D               	movf	(___fpclassifyf@F465+3)^(0+256),w
  8140  10DD  0020               	movlb	0	; select bank0
  8141  10DE  00A5               	movwf	___fpclassifyf@u+3
  8142  10DF  0022               	movlb	2	; select bank2
  8143  10E0  084C               	movf	(___fpclassifyf@F465+2)^(0+256),w
  8144  10E1  0020               	movlb	0	; select bank0
  8145  10E2  00A4               	movwf	___fpclassifyf@u+2
  8146  10E3  0022               	movlb	2	; select bank2
  8147  10E4  084B               	movf	(___fpclassifyf@F465+1)^(0+256),w
  8148  10E5  0020               	movlb	0	; select bank0
  8149  10E6  00A3               	movwf	___fpclassifyf@u+1
  8150  10E7  0022               	movlb	2	; select bank2
  8151  10E8  084A               	movf	___fpclassifyf@F465^(0+256),w
  8152  10E9  0020               	movlb	0	; select bank0
  8153  10EA  00A2               	movwf	___fpclassifyf@u
  8154  10EB  0873               	movf	___fpclassifyf@x+3,w
  8155  10EC  00A5               	movwf	___fpclassifyf@u+3
  8156  10ED  0872               	movf	___fpclassifyf@x+2,w
  8157  10EE  00A4               	movwf	___fpclassifyf@u+2
  8158  10EF  0871               	movf	___fpclassifyf@x+1,w
  8159  10F0  00A3               	movwf	___fpclassifyf@u+1
  8160  10F1  0870               	movf	___fpclassifyf@x,w
  8161  10F2  00A2               	movwf	___fpclassifyf@u
  8162  10F3                     l3384:
  8163  10F3  0822               	movf	___fpclassifyf@u,w
  8164  10F4  00F4               	movwf	??___fpclassifyf
  8165  10F5  0823               	movf	___fpclassifyf@u+1,w
  8166  10F6  00F5               	movwf	??___fpclassifyf+1
  8167  10F7  0824               	movf	___fpclassifyf@u+2,w
  8168  10F8  00F6               	movwf	??___fpclassifyf+2
  8169  10F9  0825               	movf	___fpclassifyf@u+3,w
  8170  10FA  00F7               	movwf	??___fpclassifyf+3
  8171  10FB  3017               	movlw	23
  8172  10FC                     u4935:
  8173  10FC  36F7               	lsrf	??___fpclassifyf+3,f
  8174  10FD  0CF6               	rrf	??___fpclassifyf+2,f
  8175  10FE  0CF5               	rrf	??___fpclassifyf+1,f
  8176  10FF  0CF4               	rrf	??___fpclassifyf,f
  8177  1100                     u4930:
  8178  1100  0B89               	decfsz	9,f
  8179  1101  28FC               	goto	u4935
  8180  1102  30FF               	movlw	255
  8181  1103  0574               	andwf	??___fpclassifyf,w
  8182  1104  00A0               	movwf	___fpclassifyf@e
  8183  1105  3000               	movlw	0
  8184  1106  0575               	andwf	??___fpclassifyf+1,w
  8185  1107  00A1               	movwf	___fpclassifyf@e+1
  8186  1108                     l3386:
  8187  1108  0820               	movf	___fpclassifyf@e,w
  8188  1109  0421               	iorwf	___fpclassifyf@e+1,w
  8189  110A  1D03               	btfss	3,2
  8190  110B  290D               	goto	u4941
  8191  110C  290E               	goto	u4940
  8192  110D                     u4941:
  8193  110D  292F               	goto	l3396
  8194  110E                     u4940:
  8195  110E                     l3388:
  8196  110E  0822               	movf	___fpclassifyf@u,w
  8197  110F  00F4               	movwf	??___fpclassifyf
  8198  1110  0823               	movf	___fpclassifyf@u+1,w
  8199  1111  00F5               	movwf	??___fpclassifyf+1
  8200  1112  0824               	movf	___fpclassifyf@u+2,w
  8201  1113  00F6               	movwf	??___fpclassifyf+2
  8202  1114  0825               	movf	___fpclassifyf@u+3,w
  8203  1115  00F7               	movwf	??___fpclassifyf+3
  8204  1116  3001               	movlw	1
  8205  1117                     u4955:
  8206  1117  35F4               	lslf	??___fpclassifyf,f
  8207  1118  0DF5               	rlf	??___fpclassifyf+1,f
  8208  1119  0DF6               	rlf	??___fpclassifyf+2,f
  8209  111A  0DF7               	rlf	??___fpclassifyf+3,f
  8210  111B                     u4950:
  8211  111B  0B89               	decfsz	9,f
  8212  111C  2917               	goto	u4955
  8213  111D  0877               	movf	??___fpclassifyf+3,w
  8214  111E  0476               	iorwf	??___fpclassifyf+2,w
  8215  111F  0475               	iorwf	??___fpclassifyf+1,w
  8216  1120  0474               	iorwf	??___fpclassifyf,w
  8217  1121  1D03               	skipz
  8218  1122  2924               	goto	u4961
  8219  1123  2925               	goto	u4960
  8220  1124                     u4961:
  8221  1124  292A               	goto	l3392
  8222  1125                     u4960:
  8223  1125                     l3390:
  8224  1125  3002               	movlw	2
  8225  1126  00F0               	movwf	?___fpclassifyf
  8226  1127  3000               	movlw	0
  8227  1128  00F1               	movwf	?___fpclassifyf+1
  8228  1129  2959               	goto	l948
  8229  112A                     l3392:
  8230  112A  3003               	movlw	3
  8231  112B  00F0               	movwf	?___fpclassifyf
  8232  112C  3000               	movlw	0
  8233  112D  00F1               	movwf	?___fpclassifyf+1
  8234  112E  2959               	goto	l948
  8235  112F                     l3396:
  8236  112F  0A20               	incf	___fpclassifyf@e,w
  8237  1130  0421               	iorwf	___fpclassifyf@e+1,w
  8238  1131  1D03               	btfss	3,2
  8239  1132  2934               	goto	u4971
  8240  1133  2935               	goto	u4970
  8241  1134                     u4971:
  8242  1134  2955               	goto	l3402
  8243  1135                     u4970:
  8244  1135                     l3398:
  8245  1135  0822               	movf	___fpclassifyf@u,w
  8246  1136  00F4               	movwf	??___fpclassifyf
  8247  1137  0823               	movf	___fpclassifyf@u+1,w
  8248  1138  00F5               	movwf	??___fpclassifyf+1
  8249  1139  0824               	movf	___fpclassifyf@u+2,w
  8250  113A  00F6               	movwf	??___fpclassifyf+2
  8251  113B  0825               	movf	___fpclassifyf@u+3,w
  8252  113C  00F7               	movwf	??___fpclassifyf+3
  8253  113D  3009               	movlw	9
  8254  113E                     u4985:
  8255  113E  35F4               	lslf	??___fpclassifyf,f
  8256  113F  0DF5               	rlf	??___fpclassifyf+1,f
  8257  1140  0DF6               	rlf	??___fpclassifyf+2,f
  8258  1141  0DF7               	rlf	??___fpclassifyf+3,f
  8259  1142                     u4980:
  8260  1142  0B89               	decfsz	9,f
  8261  1143  293E               	goto	u4985
  8262  1144  0877               	movf	??___fpclassifyf+3,w
  8263  1145  0476               	iorwf	??___fpclassifyf+2,w
  8264  1146  0475               	iorwf	??___fpclassifyf+1,w
  8265  1147  0474               	iorwf	??___fpclassifyf,w
  8266  1148  1903               	skipnz
  8267  1149  294B               	goto	u4991
  8268  114A  294D               	goto	u4990
  8269  114B                     u4991:
  8270  114B  3001               	movlw	1
  8271  114C  294E               	goto	u5000
  8272  114D                     u4990:
  8273  114D  3000               	movlw	0
  8274  114E                     u5000:
  8275  114E  00F8               	movwf	??___fpclassifyf+4
  8276  114F  01F9               	clrf	??___fpclassifyf+5
  8277  1150  0878               	movf	??___fpclassifyf+4,w
  8278  1151  00F0               	movwf	?___fpclassifyf
  8279  1152  0879               	movf	??___fpclassifyf+5,w
  8280  1153  00F1               	movwf	?___fpclassifyf+1
  8281  1154  2959               	goto	l948
  8282  1155                     l3402:
  8283  1155  3004               	movlw	4
  8284  1156  00F0               	movwf	?___fpclassifyf
  8285  1157  3000               	movlw	0
  8286  1158  00F1               	movwf	?___fpclassifyf+1
  8287  1159                     l948:
  8288  1159  0008               	return
  8289  115A                     __end_of___fpclassifyf:
  8290                           
  8291                           	psect	text15
  8292  1067                     __ptext15:	
  8293 ;; *************** function ___fltol *****************
  8294 ;; Defined at:
  8295 ;;		line 43 in file "C:\Program Files\Microchip\xc8\v2.32\pic\sources\c99\common\fltol.c"
  8296 ;; Parameters:    Size  Location     Type
  8297 ;;  f1              4    0[COMMON] int 
  8298 ;; Auto vars:     Size  Location     Type
  8299 ;;  exp1            1   10[COMMON] unsigned char 
  8300 ;;  sign1           1    9[COMMON] unsigned char 
  8301 ;; Return value:  Size  Location     Type
  8302 ;;                  4    0[COMMON] long 
  8303 ;; Registers used:
  8304 ;;		wreg, status,2, status,0
  8305 ;; Tracked objects:
  8306 ;;		On entry : 0/0
  8307 ;;		On exit  : 0/0
  8308 ;;		Unchanged: 0/0
  8309 ;; Data sizes:     COMMON   BANK0   BANK1   BANK2   BANK3   BANK4   BANK5   BANK6   BANK7   BANK8   BANK9  BANK10  BANK1
      +1  BANK12
  8310 ;;      Params:         4       0       0       0       0       0       0       0       0       0       0       0       
      +0       0
  8311 ;;      Locals:         2       0       0       0       0       0       0       0       0       0       0       0       
      +0       0
  8312 ;;      Temps:          5       0       0       0       0       0       0       0       0       0       0       0       
      +0       0
  8313 ;;      Totals:        11       0       0       0       0       0       0       0       0       0       0       0       
      +0       0
  8314 ;;Total ram usage:       11 bytes
  8315 ;; Hardware stack levels used: 1
  8316 ;; This function calls:
  8317 ;;		Nothing
  8318 ;; This function is called by:
  8319 ;;		_efgtoa
  8320 ;; This function uses a non-reentrant model
  8321 ;;
  8322                           
  8323                           
  8324                           ;psect for function ___fltol
  8325  1067                     ___fltol:
  8326  1067                     l3034:	
  8327                           ;incstack = 0
  8328                           ; Regs used in ___fltol: [wreg+status,2+status,0]
  8329                           
  8330  1067  1003               	clrc
  8331  1068  0D72               	rlf	___fltol@f1+2,w
  8332  1069  0D73               	rlf	___fltol@f1+3,w
  8333  106A  00F4               	movwf	??___fltol
  8334  106B  0874               	movf	??___fltol,w
  8335  106C  00FA               	movwf	___fltol@exp1
  8336  106D  087A               	movf	___fltol@exp1,w
  8337  106E  1D03               	btfss	3,2
  8338  106F  2871               	goto	u4231
  8339  1070  2872               	goto	u4230
  8340  1071                     u4231:
  8341  1071  287B               	goto	l3040
  8342  1072                     u4230:
  8343  1072                     l3036:
  8344  1072  3000               	movlw	0
  8345  1073  00F3               	movwf	?___fltol+3
  8346  1074  3000               	movlw	0
  8347  1075  00F2               	movwf	?___fltol+2
  8348  1076  3000               	movlw	0
  8349  1077  00F1               	movwf	?___fltol+1
  8350  1078  3000               	movlw	0
  8351  1079  00F0               	movwf	?___fltol
  8352  107A  28DA               	goto	l481
  8353  107B                     l3040:
  8354  107B  0870               	movf	___fltol@f1,w
  8355  107C  00F4               	movwf	??___fltol
  8356  107D  0871               	movf	___fltol@f1+1,w
  8357  107E  00F5               	movwf	??___fltol+1
  8358  107F  0872               	movf	___fltol@f1+2,w
  8359  1080  00F6               	movwf	??___fltol+2
  8360  1081  0873               	movf	___fltol@f1+3,w
  8361  1082  00F7               	movwf	??___fltol+3
  8362  1083  301F               	movlw	31
  8363  1084                     u4245:
  8364  1084  36F7               	lsrf	??___fltol+3,f
  8365  1085  0CF6               	rrf	??___fltol+2,f
  8366  1086  0CF5               	rrf	??___fltol+1,f
  8367  1087  0CF4               	rrf	??___fltol,f
  8368  1088                     u4240:
  8369  1088  0B89               	decfsz	9,f
  8370  1089  2884               	goto	u4245
  8371  108A  0874               	movf	??___fltol,w
  8372  108B  00F8               	movwf	??___fltol+4
  8373  108C  0878               	movf	??___fltol+4,w
  8374  108D  00F9               	movwf	___fltol@sign1
  8375  108E                     l3042:
  8376  108E  17F2               	bsf	___fltol@f1+2,7
  8377  108F                     l3044:
  8378  108F  30FF               	movlw	255
  8379  1090  05F0               	andwf	___fltol@f1,f
  8380  1091  30FF               	movlw	255
  8381  1092  05F1               	andwf	___fltol@f1+1,f
  8382  1093  30FF               	movlw	255
  8383  1094  05F2               	andwf	___fltol@f1+2,f
  8384  1095  3000               	movlw	0
  8385  1096  05F3               	andwf	___fltol@f1+3,f
  8386  1097                     l3046:
  8387  1097  3096               	movlw	150
  8388  1098  02FA               	subwf	___fltol@exp1,f
  8389  1099                     l3048:
  8390  1099  1FFA               	btfss	___fltol@exp1,7
  8391  109A  289C               	goto	u4251
  8392  109B  289D               	goto	u4250
  8393  109C                     u4251:
  8394  109C  28B5               	goto	l3058
  8395  109D                     u4250:
  8396  109D                     l3050:
  8397  109D  087A               	movf	___fltol@exp1,w
  8398  109E  3A80               	xorlw	128
  8399  109F  3E97               	addlw	151
  8400  10A0  1803               	skipnc
  8401  10A1  28A3               	goto	u4261
  8402  10A2  28A4               	goto	u4260
  8403  10A3                     u4261:
  8404  10A3  28A5               	goto	l3056
  8405  10A4                     u4260:
  8406  10A4  2872               	goto	l3036
  8407  10A5                     l3056:
  8408  10A5  3001               	movlw	1
  8409  10A6                     u4275:
  8410  10A6  36F3               	lsrf	___fltol@f1+3,f
  8411  10A7  0CF2               	rrf	___fltol@f1+2,f
  8412  10A8  0CF1               	rrf	___fltol@f1+1,f
  8413  10A9  0CF0               	rrf	___fltol@f1,f
  8414  10AA  0B89               	decfsz	9,f
  8415  10AB  28A6               	goto	u4275
  8416  10AC  3001               	movlw	1
  8417  10AD  00F4               	movwf	??___fltol
  8418  10AE  0874               	movf	??___fltol,w
  8419  10AF  07FA               	addwf	___fltol@exp1,f
  8420  10B0  1D03               	btfss	3,2
  8421  10B1  28B3               	goto	u4281
  8422  10B2  28B4               	goto	u4280
  8423  10B3                     u4281:
  8424  10B3  28A5               	goto	l3056
  8425  10B4                     u4280:
  8426  10B4  28CA               	goto	l3066
  8427  10B5                     l3058:
  8428  10B5  3020               	movlw	32
  8429  10B6  027A               	subwf	___fltol@exp1,w
  8430  10B7  1C03               	skipc
  8431  10B8  28BA               	goto	u4291
  8432  10B9  28BB               	goto	u4290
  8433  10BA                     u4291:
  8434  10BA  28C5               	goto	l488
  8435  10BB                     u4290:
  8436  10BB  2872               	goto	l3036
  8437  10BC                     l3064:
  8438  10BC  3001               	movlw	1
  8439  10BD                     u4305:
  8440  10BD  35F0               	lslf	___fltol@f1,f
  8441  10BE  0DF1               	rlf	___fltol@f1+1,f
  8442  10BF  0DF2               	rlf	___fltol@f1+2,f
  8443  10C0  0DF3               	rlf	___fltol@f1+3,f
  8444  10C1  0B89               	decfsz	9,f
  8445  10C2  28BD               	goto	u4305
  8446  10C3  3001               	movlw	1
  8447  10C4  02FA               	subwf	___fltol@exp1,f
  8448  10C5                     l488:
  8449  10C5  087A               	movf	___fltol@exp1,w
  8450  10C6  1D03               	btfss	3,2
  8451  10C7  28C9               	goto	u4311
  8452  10C8  28CA               	goto	u4310
  8453  10C9                     u4311:
  8454  10C9  28BC               	goto	l3064
  8455  10CA                     u4310:
  8456  10CA                     l3066:
  8457  10CA  0879               	movf	___fltol@sign1,w
  8458  10CB  1903               	btfsc	3,2
  8459  10CC  28CE               	goto	u4321
  8460  10CD  28CF               	goto	u4320
  8461  10CE                     u4321:
  8462  10CE  28DA               	goto	l491
  8463  10CF                     u4320:
  8464  10CF                     l3068:
  8465  10CF  09F0               	comf	___fltol@f1,f
  8466  10D0  09F1               	comf	___fltol@f1+1,f
  8467  10D1  09F2               	comf	___fltol@f1+2,f
  8468  10D2  09F3               	comf	___fltol@f1+3,f
  8469  10D3  0AF0               	incf	___fltol@f1,f
  8470  10D4  1903               	skipnz
  8471  10D5  0AF1               	incf	___fltol@f1+1,f
  8472  10D6  1903               	skipnz
  8473  10D7  0AF2               	incf	___fltol@f1+2,f
  8474  10D8  1903               	skipnz
  8475  10D9  0AF3               	incf	___fltol@f1+3,f
  8476  10DA                     l491:
  8477  10DA                     l481:
  8478  10DA  0008               	return
  8479  10DB                     __end_of___fltol:
  8480                           
  8481                           	psect	text16
  8482  1CB4                     __ptext16:	
  8483 ;; *************** function ___flsub *****************
  8484 ;; Defined at:
  8485 ;;		line 242 in file "C:\Program Files\Microchip\xc8\v2.32\pic\sources\c99\common\sprcadd.c"
  8486 ;; Parameters:    Size  Location     Type
  8487 ;;  a               4   26[BANK0 ] long 
  8488 ;;  b               4   30[BANK0 ] long 
  8489 ;; Auto vars:     Size  Location     Type
  8490 ;;		None
  8491 ;; Return value:  Size  Location     Type
  8492 ;;                  4   26[BANK0 ] long 
  8493 ;; Registers used:
  8494 ;;		wreg, status,2, status,0, pclath, cstack
  8495 ;; Tracked objects:
  8496 ;;		On entry : 0/0
  8497 ;;		On exit  : 0/0
  8498 ;;		Unchanged: 0/0
  8499 ;; Data sizes:     COMMON   BANK0   BANK1   BANK2   BANK3   BANK4   BANK5   BANK6   BANK7   BANK8   BANK9  BANK10  BANK1
      +1  BANK12
  8500 ;;      Params:         0       8       0       0       0       0       0       0       0       0       0       0       
      +0       0
  8501 ;;      Locals:         0       0       0       0       0       0       0       0       0       0       0       0       
      +0       0
  8502 ;;      Temps:          0       0       0       0       0       0       0       0       0       0       0       0       
      +0       0
  8503 ;;      Totals:         0       8       0       0       0       0       0       0       0       0       0       0       
      +0       0
  8504 ;;Total ram usage:        8 bytes
  8505 ;; Hardware stack levels used: 1
  8506 ;; Hardware stack levels required when called: 1
  8507 ;; This function calls:
  8508 ;;		___fladd
  8509 ;; This function is called by:
  8510 ;;		_efgtoa
  8511 ;; This function uses a non-reentrant model
  8512 ;;
  8513                           
  8514                           
  8515                           ;psect for function ___flsub
  8516  1CB4                     ___flsub:
  8517  1CB4                     l3070:	
  8518                           ;incstack = 0
  8519                           ; Regs used in ___flsub: [wreg+status,2+status,0+pclath+cstack]
  8520                           
  8521  1CB4  3080               	movlw	128
  8522  1CB5  0020               	movlb	0	; select bank0
  8523  1CB6  06BD               	xorwf	___flsub@a+3,f
  8524  1CB7                     l3072:
  8525  1CB7  0841               	movf	___flsub@b+3,w
  8526  1CB8  00F3               	movwf	___fladd@b+3
  8527  1CB9  0840               	movf	___flsub@b+2,w
  8528  1CBA  00F2               	movwf	___fladd@b+2
  8529  1CBB  083F               	movf	___flsub@b+1,w
  8530  1CBC  00F1               	movwf	___fladd@b+1
  8531  1CBD  083E               	movf	___flsub@b,w
  8532  1CBE  00F0               	movwf	___fladd@b
  8533  1CBF  083D               	movf	___flsub@a+3,w
  8534  1CC0  00F7               	movwf	___fladd@a+3
  8535  1CC1  083C               	movf	___flsub@a+2,w
  8536  1CC2  00F6               	movwf	___fladd@a+2
  8537  1CC3  083B               	movf	___flsub@a+1,w
  8538  1CC4  00F5               	movwf	___fladd@a+1
  8539  1CC5  083A               	movf	___flsub@a,w
  8540  1CC6  00F4               	movwf	___fladd@a
  8541  1CC7  318B  236A  319C   	fcall	___fladd
  8542  1CCA  0873               	movf	?___fladd+3,w
  8543  1CCB  0020               	movlb	0	; select bank0
  8544  1CCC  00BD               	movwf	?___flsub+3
  8545  1CCD  0872               	movf	?___fladd+2,w
  8546  1CCE  00BC               	movwf	?___flsub+2
  8547  1CCF  0871               	movf	?___fladd+1,w
  8548  1CD0  00BB               	movwf	?___flsub+1
  8549  1CD1  0870               	movf	?___fladd,w
  8550  1CD2  00BA               	movwf	?___flsub
  8551  1CD3                     l634:
  8552  1CD3  0008               	return
  8553  1CD4                     __end_of___flsub:
  8554                           
  8555                           	psect	text17
  8556  0B6A                     __ptext17:	
  8557 ;; *************** function ___fladd *****************
  8558 ;; Defined at:
  8559 ;;		line 10 in file "C:\Program Files\Microchip\xc8\v2.32\pic\sources\c99\common\sprcadd.c"
  8560 ;; Parameters:    Size  Location     Type
  8561 ;;  b               4    0[COMMON] long 
  8562 ;;  a               4    4[COMMON] long 
  8563 ;; Auto vars:     Size  Location     Type
  8564 ;;  grs             1   11[COMMON] unsigned char 
  8565 ;;  bexp            1   10[COMMON] unsigned char 
  8566 ;;  aexp            1    9[COMMON] unsigned char 
  8567 ;;  signs           1    8[COMMON] unsigned char 
  8568 ;; Return value:  Size  Location     Type
  8569 ;;                  4    0[COMMON] unsigned char 
  8570 ;; Registers used:
  8571 ;;		wreg, status,2, status,0
  8572 ;; Tracked objects:
  8573 ;;		On entry : 0/0
  8574 ;;		On exit  : 0/0
  8575 ;;		Unchanged: 0/0
  8576 ;; Data sizes:     COMMON   BANK0   BANK1   BANK2   BANK3   BANK4   BANK5   BANK6   BANK7   BANK8   BANK9  BANK10  BANK1
      +1  BANK12
  8577 ;;      Params:         8       0       0       0       0       0       0       0       0       0       0       0       
      +0       0
  8578 ;;      Locals:         4       0       0       0       0       0       0       0       0       0       0       0       
      +0       0
  8579 ;;      Temps:          0       8       0       0       0       0       0       0       0       0       0       0       
      +0       0
  8580 ;;      Totals:        12       8       0       0       0       0       0       0       0       0       0       0       
      +0       0
  8581 ;;Total ram usage:       20 bytes
  8582 ;; Hardware stack levels used: 1
  8583 ;; This function calls:
  8584 ;;		Nothing
  8585 ;; This function is called by:
  8586 ;;		___flsub
  8587 ;;		_efgtoa
  8588 ;; This function uses a non-reentrant model
  8589 ;;
  8590                           
  8591                           
  8592                           ;psect for function ___fladd
  8593  0B6A                     ___fladd:
  8594  0B6A                     l2614:	
  8595                           ;incstack = 0
  8596                           ; Regs used in ___fladd: [wreg+status,2+status,0]
  8597                           
  8598  0B6A  0873               	movf	___fladd@b+3,w
  8599  0B6B  3980               	andlw	128
  8600  0B6C  0020               	movlb	0	; select bank0
  8601  0B6D  00A0               	movwf	??___fladd
  8602  0B6E  0820               	movf	??___fladd,w
  8603  0B6F  00F8               	movwf	___fladd@signs
  8604  0B70                     l2616:
  8605  0B70  3573               	lslf	___fladd@b+3,w
  8606  0B71  00A0               	movwf	??___fladd
  8607  0B72  0820               	movf	??___fladd,w
  8608  0B73  00FA               	movwf	___fladd@bexp
  8609  0B74                     l2618:
  8610  0B74  1FF2               	btfss	___fladd@b+2,7
  8611  0B75  2B77               	goto	u3241
  8612  0B76  2B78               	goto	u3240
  8613  0B77                     u3241:
  8614  0B77  2B79               	goto	l2622
  8615  0B78                     u3240:
  8616  0B78                     l2620:
  8617  0B78  147A               	bsf	___fladd@bexp,0
  8618  0B79                     l2622:
  8619  0B79  087A               	movf	___fladd@bexp,w
  8620  0B7A  1903               	btfsc	3,2
  8621  0B7B  2B7D               	goto	u3251
  8622  0B7C  2B7E               	goto	u3250
  8623  0B7D                     u3251:
  8624  0B7D  2B8E               	goto	l2632
  8625  0B7E                     u3250:
  8626  0B7E                     l2624:
  8627  0B7E  0A7A               	incf	___fladd@bexp,w
  8628  0B7F  1D03               	btfss	3,2
  8629  0B80  2B82               	goto	u3261
  8630  0B81  2B83               	goto	u3260
  8631  0B82                     u3261:
  8632  0B82  2B8B               	goto	l2628
  8633  0B83                     u3260:
  8634  0B83                     l2626:
  8635  0B83  3000               	movlw	0
  8636  0B84  00F3               	movwf	___fladd@b+3
  8637  0B85  3000               	movlw	0
  8638  0B86  00F2               	movwf	___fladd@b+2
  8639  0B87  3000               	movlw	0
  8640  0B88  00F1               	movwf	___fladd@b+1
  8641  0B89  3000               	movlw	0
  8642  0B8A  00F0               	movwf	___fladd@b
  8643  0B8B                     l2628:
  8644  0B8B  17F2               	bsf	___fladd@b+2,7
  8645  0B8C                     l2630:
  8646  0B8C  01F3               	clrf	___fladd@b+3
  8647  0B8D  2B96               	goto	l2634
  8648  0B8E                     l2632:
  8649  0B8E  3000               	movlw	0
  8650  0B8F  00F3               	movwf	___fladd@b+3
  8651  0B90  3000               	movlw	0
  8652  0B91  00F2               	movwf	___fladd@b+2
  8653  0B92  3000               	movlw	0
  8654  0B93  00F1               	movwf	___fladd@b+1
  8655  0B94  3000               	movlw	0
  8656  0B95  00F0               	movwf	___fladd@b
  8657  0B96                     l2634:
  8658  0B96  0877               	movf	___fladd@a+3,w
  8659  0B97  3980               	andlw	128
  8660  0B98  00A0               	movwf	??___fladd
  8661  0B99  0820               	movf	??___fladd,w
  8662  0B9A  00F9               	movwf	___fladd@aexp
  8663  0B9B                     l2636:
  8664  0B9B  0879               	movf	___fladd@aexp,w
  8665  0B9C  0678               	xorwf	___fladd@signs,w
  8666  0B9D  1903               	skipnz
  8667  0B9E  2BA0               	goto	u3271
  8668  0B9F  2BA1               	goto	u3270
  8669  0BA0                     u3271:
  8670  0BA0  2BA2               	goto	l2640
  8671  0BA1                     u3270:
  8672  0BA1                     l2638:
  8673  0BA1  1778               	bsf	___fladd@signs,6
  8674  0BA2                     l2640:
  8675  0BA2  3577               	lslf	___fladd@a+3,w
  8676  0BA3  00A0               	movwf	??___fladd
  8677  0BA4  0820               	movf	??___fladd,w
  8678  0BA5  00F9               	movwf	___fladd@aexp
  8679  0BA6                     l2642:
  8680  0BA6  1FF6               	btfss	___fladd@a+2,7
  8681  0BA7  2BA9               	goto	u3281
  8682  0BA8  2BAA               	goto	u3280
  8683  0BA9                     u3281:
  8684  0BA9  2BAB               	goto	l2646
  8685  0BAA                     u3280:
  8686  0BAA                     l2644:
  8687  0BAA  1479               	bsf	___fladd@aexp,0
  8688  0BAB                     l2646:
  8689  0BAB  0879               	movf	___fladd@aexp,w
  8690  0BAC  1903               	btfsc	3,2
  8691  0BAD  2BAF               	goto	u3291
  8692  0BAE  2BB0               	goto	u3290
  8693  0BAF                     u3291:
  8694  0BAF  2BC0               	goto	l2656
  8695  0BB0                     u3290:
  8696  0BB0                     l2648:
  8697  0BB0  0A79               	incf	___fladd@aexp,w
  8698  0BB1  1D03               	btfss	3,2
  8699  0BB2  2BB4               	goto	u3301
  8700  0BB3  2BB5               	goto	u3300
  8701  0BB4                     u3301:
  8702  0BB4  2BBD               	goto	l2652
  8703  0BB5                     u3300:
  8704  0BB5                     l2650:
  8705  0BB5  3000               	movlw	0
  8706  0BB6  00F7               	movwf	___fladd@a+3
  8707  0BB7  3000               	movlw	0
  8708  0BB8  00F6               	movwf	___fladd@a+2
  8709  0BB9  3000               	movlw	0
  8710  0BBA  00F5               	movwf	___fladd@a+1
  8711  0BBB  3000               	movlw	0
  8712  0BBC  00F4               	movwf	___fladd@a
  8713  0BBD                     l2652:
  8714  0BBD  17F6               	bsf	___fladd@a+2,7
  8715  0BBE                     l2654:
  8716  0BBE  01F7               	clrf	___fladd@a+3
  8717  0BBF  2BC8               	goto	l588
  8718  0BC0                     l2656:
  8719  0BC0  3000               	movlw	0
  8720  0BC1  00F7               	movwf	___fladd@a+3
  8721  0BC2  3000               	movlw	0
  8722  0BC3  00F6               	movwf	___fladd@a+2
  8723  0BC4  3000               	movlw	0
  8724  0BC5  00F5               	movwf	___fladd@a+1
  8725  0BC6  3000               	movlw	0
  8726  0BC7  00F4               	movwf	___fladd@a
  8727  0BC8                     l588:
  8728  0BC8  087A               	movf	___fladd@bexp,w
  8729  0BC9  0279               	subwf	___fladd@aexp,w
  8730  0BCA  1803               	skipnc
  8731  0BCB  2BCD               	goto	u3311
  8732  0BCC  2BCE               	goto	u3310
  8733  0BCD                     u3311:
  8734  0BCD  2C12               	goto	l2692
  8735  0BCE                     u3310:
  8736  0BCE                     l2658:
  8737  0BCE  1F78               	btfss	___fladd@signs,6
  8738  0BCF  2BD1               	goto	u3321
  8739  0BD0  2BD2               	goto	u3320
  8740  0BD1                     u3321:
  8741  0BD1  2BD6               	goto	l2662
  8742  0BD2                     u3320:
  8743  0BD2                     l2660:
  8744  0BD2  3080               	movlw	128
  8745  0BD3  00A0               	movwf	??___fladd
  8746  0BD4  0820               	movf	??___fladd,w
  8747  0BD5  06F8               	xorwf	___fladd@signs,f
  8748  0BD6                     l2662:
  8749  0BD6  087A               	movf	___fladd@bexp,w
  8750  0BD7  00A0               	movwf	??___fladd
  8751  0BD8  0820               	movf	??___fladd,w
  8752  0BD9  00FB               	movwf	___fladd@grs
  8753  0BDA                     l2664:
  8754  0BDA  0879               	movf	___fladd@aexp,w
  8755  0BDB  00A0               	movwf	??___fladd
  8756  0BDC  0820               	movf	??___fladd,w
  8757  0BDD  00FA               	movwf	___fladd@bexp
  8758  0BDE                     l2666:
  8759  0BDE  087B               	movf	___fladd@grs,w
  8760  0BDF  00A0               	movwf	??___fladd
  8761  0BE0  0820               	movf	??___fladd,w
  8762  0BE1  00F9               	movwf	___fladd@aexp
  8763  0BE2                     l2668:
  8764  0BE2  0870               	movf	___fladd@b,w
  8765  0BE3  00A0               	movwf	??___fladd
  8766  0BE4  0820               	movf	??___fladd,w
  8767  0BE5  00FB               	movwf	___fladd@grs
  8768  0BE6                     l2670:
  8769  0BE6  0874               	movf	___fladd@a,w
  8770  0BE7  00A0               	movwf	??___fladd
  8771  0BE8  0820               	movf	??___fladd,w
  8772  0BE9  00F0               	movwf	___fladd@b
  8773  0BEA                     l2672:
  8774  0BEA  087B               	movf	___fladd@grs,w
  8775  0BEB  00A0               	movwf	??___fladd
  8776  0BEC  0820               	movf	??___fladd,w
  8777  0BED  00F4               	movwf	___fladd@a
  8778  0BEE                     l2674:
  8779  0BEE  0871               	movf	___fladd@b+1,w
  8780  0BEF  00A0               	movwf	??___fladd
  8781  0BF0  0820               	movf	??___fladd,w
  8782  0BF1  00FB               	movwf	___fladd@grs
  8783  0BF2                     l2676:
  8784  0BF2  0875               	movf	___fladd@a+1,w
  8785  0BF3  00A0               	movwf	??___fladd
  8786  0BF4  0820               	movf	??___fladd,w
  8787  0BF5  00F1               	movwf	___fladd@b+1
  8788  0BF6                     l2678:
  8789  0BF6  087B               	movf	___fladd@grs,w
  8790  0BF7  00A0               	movwf	??___fladd
  8791  0BF8  0820               	movf	??___fladd,w
  8792  0BF9  00F5               	movwf	___fladd@a+1
  8793  0BFA                     l2680:
  8794  0BFA  0872               	movf	___fladd@b+2,w
  8795  0BFB  00A0               	movwf	??___fladd
  8796  0BFC  0820               	movf	??___fladd,w
  8797  0BFD  00FB               	movwf	___fladd@grs
  8798  0BFE                     l2682:
  8799  0BFE  0876               	movf	___fladd@a+2,w
  8800  0BFF  00A0               	movwf	??___fladd
  8801  0C00  0820               	movf	??___fladd,w
  8802  0C01  00F2               	movwf	___fladd@b+2
  8803  0C02                     l2684:
  8804  0C02  087B               	movf	___fladd@grs,w
  8805  0C03  00A0               	movwf	??___fladd
  8806  0C04  0820               	movf	??___fladd,w
  8807  0C05  00F6               	movwf	___fladd@a+2
  8808  0C06                     l2686:
  8809  0C06  0873               	movf	___fladd@b+3,w
  8810  0C07  00A0               	movwf	??___fladd
  8811  0C08  0820               	movf	??___fladd,w
  8812  0C09  00FB               	movwf	___fladd@grs
  8813  0C0A                     l2688:
  8814  0C0A  0877               	movf	___fladd@a+3,w
  8815  0C0B  00A0               	movwf	??___fladd
  8816  0C0C  0820               	movf	??___fladd,w
  8817  0C0D  00F3               	movwf	___fladd@b+3
  8818  0C0E                     l2690:
  8819  0C0E  087B               	movf	___fladd@grs,w
  8820  0C0F  00A0               	movwf	??___fladd
  8821  0C10  0820               	movf	??___fladd,w
  8822  0C11  00F7               	movwf	___fladd@a+3
  8823  0C12                     l2692:
  8824  0C12  01FB               	clrf	___fladd@grs
  8825  0C13                     l2694:
  8826  0C13  0879               	movf	___fladd@aexp,w
  8827  0C14  00A0               	movwf	??___fladd
  8828  0C15  01A1               	clrf	??___fladd+1
  8829  0C16  0821               	movf	??___fladd+1,w
  8830  0C17  00A3               	movwf	??___fladd+3
  8831  0C18  087A               	movf	___fladd@bexp,w
  8832  0C19  0220               	subwf	??___fladd,w
  8833  0C1A  00A2               	movwf	??___fladd+2
  8834  0C1B  1C03               	skipc
  8835  0C1C  03A3               	decf	??___fladd+3,f
  8836  0C1D  0823               	movf	??___fladd+3,w
  8837  0C1E  3A80               	xorlw	128
  8838  0C1F  00A4               	movwf	??___fladd+4
  8839  0C20  3080               	movlw	128
  8840  0C21  0224               	subwf	??___fladd+4,w
  8841  0C22  1D03               	skipz
  8842  0C23  2C26               	goto	u3335
  8843  0C24  301A               	movlw	26
  8844  0C25  0222               	subwf	??___fladd+2,w
  8845  0C26                     u3335:
  8846  0C26  1C03               	skipc
  8847  0C27  2C29               	goto	u3331
  8848  0C28  2C2A               	goto	u3330
  8849  0C29                     u3331:
  8850  0C29  2C64               	goto	l2710
  8851  0C2A                     u3330:
  8852  0C2A                     l2696:
  8853  0C2A  0873               	movf	___fladd@b+3,w
  8854  0C2B  0472               	iorwf	___fladd@b+2,w
  8855  0C2C  0471               	iorwf	___fladd@b+1,w
  8856  0C2D  0470               	iorwf	___fladd@b,w
  8857  0C2E  1D03               	skipz
  8858  0C2F  2C31               	goto	u3341
  8859  0C30  2C33               	goto	u3340
  8860  0C31                     u3341:
  8861  0C31  3001               	movlw	1
  8862  0C32  2C34               	goto	u3350
  8863  0C33                     u3340:
  8864  0C33  3000               	movlw	0
  8865  0C34                     u3350:
  8866  0C34  0020               	movlb	0	; select bank0
  8867  0C35  00A0               	movwf	??___fladd
  8868  0C36  0820               	movf	??___fladd,w
  8869  0C37  00FB               	movwf	___fladd@grs
  8870  0C38  3000               	movlw	0
  8871  0C39  00F3               	movwf	___fladd@b+3
  8872  0C3A  3000               	movlw	0
  8873  0C3B  00F2               	movwf	___fladd@b+2
  8874  0C3C  3000               	movlw	0
  8875  0C3D  00F1               	movwf	___fladd@b+1
  8876  0C3E  3000               	movlw	0
  8877  0C3F  00F0               	movwf	___fladd@b
  8878  0C40  0879               	movf	___fladd@aexp,w
  8879  0C41  00A0               	movwf	??___fladd
  8880  0C42  0820               	movf	??___fladd,w
  8881  0C43  00FA               	movwf	___fladd@bexp
  8882  0C44  2C6A               	goto	l592
  8883  0C45                     l594:
  8884  0C45  1C7B               	btfss	___fladd@grs,0
  8885  0C46  2C48               	goto	u3361
  8886  0C47  2C49               	goto	u3360
  8887  0C48                     u3361:
  8888  0C48  2C50               	goto	l2700
  8889  0C49                     u3360:
  8890  0C49                     l2698:
  8891  0C49  367B               	lsrf	___fladd@grs,w
  8892  0C4A  3801               	iorlw	1
  8893  0C4B  0020               	movlb	0	; select bank0
  8894  0C4C  00A0               	movwf	??___fladd
  8895  0C4D  0820               	movf	??___fladd,w
  8896  0C4E  00FB               	movwf	___fladd@grs
  8897  0C4F  2C52               	goto	l2702
  8898  0C50                     l2700:
  8899  0C50  1003               	clrc
  8900  0C51  0CFB               	rrf	___fladd@grs,f
  8901  0C52                     l2702:
  8902  0C52  1C70               	btfss	___fladd@b,0
  8903  0C53  2C55               	goto	u3371
  8904  0C54  2C56               	goto	u3370
  8905  0C55                     u3371:
  8906  0C55  2C57               	goto	l2706
  8907  0C56                     u3370:
  8908  0C56                     l2704:
  8909  0C56  17FB               	bsf	___fladd@grs,7
  8910  0C57                     l2706:
  8911  0C57  3001               	movlw	1
  8912  0C58  0020               	movlb	0	; select bank0
  8913  0C59  00A0               	movwf	??___fladd
  8914  0C5A                     u3385:
  8915  0C5A  37F3               	asrf	___fladd@b+3,f
  8916  0C5B  0CF2               	rrf	___fladd@b+2,f
  8917  0C5C  0CF1               	rrf	___fladd@b+1,f
  8918  0C5D  0CF0               	rrf	___fladd@b,f
  8919  0C5E  0BA0               	decfsz	??___fladd& (0+127),f
  8920  0C5F  2C5A               	goto	u3385
  8921  0C60                     l2708:
  8922  0C60  3001               	movlw	1
  8923  0C61  00A0               	movwf	??___fladd
  8924  0C62  0820               	movf	??___fladd,w
  8925  0C63  07FA               	addwf	___fladd@bexp,f
  8926  0C64                     l2710:
  8927  0C64  0879               	movf	___fladd@aexp,w
  8928  0C65  027A               	subwf	___fladd@bexp,w
  8929  0C66  1C03               	skipc
  8930  0C67  2C69               	goto	u3391
  8931  0C68  2C6A               	goto	u3390
  8932  0C69                     u3391:
  8933  0C69  2C45               	goto	l594
  8934  0C6A                     u3390:
  8935  0C6A                     l592:
  8936  0C6A  1B78               	btfsc	___fladd@signs,6
  8937  0C6B  2C6D               	goto	u3401
  8938  0C6C  2C6E               	goto	u3400
  8939  0C6D                     u3401:
  8940  0C6D  2CA8               	goto	l2736
  8941  0C6E                     u3400:
  8942  0C6E                     l2712:
  8943  0C6E  087A               	movf	___fladd@bexp,w
  8944  0C6F  1D03               	btfss	3,2
  8945  0C70  2C72               	goto	u3411
  8946  0C71  2C73               	goto	u3410
  8947  0C72                     u3411:
  8948  0C72  2C7C               	goto	l2718
  8949  0C73                     u3410:
  8950  0C73                     l2714:
  8951  0C73  3000               	movlw	0
  8952  0C74  00F3               	movwf	?___fladd+3
  8953  0C75  3000               	movlw	0
  8954  0C76  00F2               	movwf	?___fladd+2
  8955  0C77  3000               	movlw	0
  8956  0C78  00F1               	movwf	?___fladd+1
  8957  0C79  3000               	movlw	0
  8958  0C7A  00F0               	movwf	?___fladd
  8959  0C7B  2DA8               	goto	l601
  8960  0C7C                     l2718:
  8961  0C7C  0874               	movf	___fladd@a,w
  8962  0C7D  07F0               	addwf	___fladd@b,f
  8963  0C7E  0875               	movf	___fladd@a+1,w
  8964  0C7F  3DF1               	addwfc	___fladd@b+1,f
  8965  0C80  0876               	movf	___fladd@a+2,w
  8966  0C81  3DF2               	addwfc	___fladd@b+2,f
  8967  0C82  0877               	movf	___fladd@a+3,w
  8968  0C83  3DF3               	addwfc	___fladd@b+3,f
  8969  0C84                     l2720:
  8970  0C84  1C73               	btfss	___fladd@b+3,0
  8971  0C85  2C87               	goto	u3421
  8972  0C86  2C88               	goto	u3420
  8973  0C87                     u3421:
  8974  0C87  2D35               	goto	l2770
  8975  0C88                     u3420:
  8976  0C88                     l2722:
  8977  0C88  1C7B               	btfss	___fladd@grs,0
  8978  0C89  2C8B               	goto	u3431
  8979  0C8A  2C8C               	goto	u3430
  8980  0C8B                     u3431:
  8981  0C8B  2C93               	goto	l2726
  8982  0C8C                     u3430:
  8983  0C8C                     l2724:
  8984  0C8C  367B               	lsrf	___fladd@grs,w
  8985  0C8D  3801               	iorlw	1
  8986  0C8E  0020               	movlb	0	; select bank0
  8987  0C8F  00A0               	movwf	??___fladd
  8988  0C90  0820               	movf	??___fladd,w
  8989  0C91  00FB               	movwf	___fladd@grs
  8990  0C92  2C95               	goto	l2728
  8991  0C93                     l2726:
  8992  0C93  1003               	clrc
  8993  0C94  0CFB               	rrf	___fladd@grs,f
  8994  0C95                     l2728:
  8995  0C95  1C70               	btfss	___fladd@b,0
  8996  0C96  2C98               	goto	u3441
  8997  0C97  2C99               	goto	u3440
  8998  0C98                     u3441:
  8999  0C98  2C9A               	goto	l2732
  9000  0C99                     u3440:
  9001  0C99                     l2730:
  9002  0C99  17FB               	bsf	___fladd@grs,7
  9003  0C9A                     l2732:
  9004  0C9A  3001               	movlw	1
  9005  0C9B  0020               	movlb	0	; select bank0
  9006  0C9C  00A0               	movwf	??___fladd
  9007  0C9D                     u3455:
  9008  0C9D  37F3               	asrf	___fladd@b+3,f
  9009  0C9E  0CF2               	rrf	___fladd@b+2,f
  9010  0C9F  0CF1               	rrf	___fladd@b+1,f
  9011  0CA0  0CF0               	rrf	___fladd@b,f
  9012  0CA1  0BA0               	decfsz	??___fladd& (0+127),f
  9013  0CA2  2C9D               	goto	u3455
  9014  0CA3                     l2734:
  9015  0CA3  3001               	movlw	1
  9016  0CA4  00A0               	movwf	??___fladd
  9017  0CA5  0820               	movf	??___fladd,w
  9018  0CA6  07FA               	addwf	___fladd@bexp,f
  9019  0CA7  2D35               	goto	l2770
  9020  0CA8                     l2736:
  9021  0CA8  0873               	movf	___fladd@b+3,w
  9022  0CA9  3A80               	xorlw	128
  9023  0CAA  0020               	movlb	0	; select bank0
  9024  0CAB  00A0               	movwf	??___fladd
  9025  0CAC  0877               	movf	___fladd@a+3,w
  9026  0CAD  3A80               	xorlw	128
  9027  0CAE  0220               	subwf	??___fladd,w
  9028  0CAF  1D03               	skipz
  9029  0CB0  2CBB               	goto	u3463
  9030  0CB1  0876               	movf	___fladd@a+2,w
  9031  0CB2  0272               	subwf	___fladd@b+2,w
  9032  0CB3  1D03               	skipz
  9033  0CB4  2CBB               	goto	u3463
  9034  0CB5  0875               	movf	___fladd@a+1,w
  9035  0CB6  0271               	subwf	___fladd@b+1,w
  9036  0CB7  1D03               	skipz
  9037  0CB8  2CBB               	goto	u3463
  9038  0CB9  0874               	movf	___fladd@a,w
  9039  0CBA  0270               	subwf	___fladd@b,w
  9040  0CBB                     u3463:
  9041  0CBB  1803               	skipnc
  9042  0CBC  2CBE               	goto	u3461
  9043  0CBD  2CBF               	goto	u3460
  9044  0CBE                     u3461:
  9045  0CBE  2CF7               	goto	l2746
  9046  0CBF                     u3460:
  9047  0CBF                     l2738:
  9048  0CBF  30FF               	movlw	255
  9049  0CC0  00A0               	movwf	??___fladd
  9050  0CC1  30FF               	movlw	255
  9051  0CC2  00A1               	movwf	??___fladd+1
  9052  0CC3  30FF               	movlw	255
  9053  0CC4  00A2               	movwf	??___fladd+2
  9054  0CC5  30FF               	movlw	255
  9055  0CC6  00A3               	movwf	??___fladd+3
  9056  0CC7  0870               	movf	___fladd@b,w
  9057  0CC8  0274               	subwf	___fladd@a,w
  9058  0CC9  00A4               	movwf	??___fladd+4
  9059  0CCA  0871               	movf	___fladd@b+1,w
  9060  0CCB  3B75               	subwfb	___fladd@a+1,w
  9061  0CCC  00A5               	movwf	??___fladd+5
  9062  0CCD  0872               	movf	___fladd@b+2,w
  9063  0CCE  3B76               	subwfb	___fladd@a+2,w
  9064  0CCF  00A6               	movwf	??___fladd+6
  9065  0CD0  0873               	movf	___fladd@b+3,w
  9066  0CD1  3B77               	subwfb	___fladd@a+3,w
  9067  0CD2  00A7               	movwf	??___fladd+7
  9068  0CD3  0824               	movf	??___fladd+4,w
  9069  0CD4  07A0               	addwf	??___fladd,f
  9070  0CD5  0825               	movf	??___fladd+5,w
  9071  0CD6  3DA1               	addwfc	??___fladd+1,f
  9072  0CD7  0826               	movf	??___fladd+6,w
  9073  0CD8  3DA2               	addwfc	??___fladd+2,f
  9074  0CD9  0827               	movf	??___fladd+7,w
  9075  0CDA  3DA3               	addwfc	??___fladd+3,f
  9076  0CDB  0823               	movf	??___fladd+3,w
  9077  0CDC  00F3               	movwf	___fladd@b+3
  9078  0CDD  0822               	movf	??___fladd+2,w
  9079  0CDE  00F2               	movwf	___fladd@b+2
  9080  0CDF  0821               	movf	??___fladd+1,w
  9081  0CE0  00F1               	movwf	___fladd@b+1
  9082  0CE1  0820               	movf	??___fladd,w
  9083  0CE2  00F0               	movwf	___fladd@b
  9084  0CE3                     l2740:
  9085  0CE3  3080               	movlw	128
  9086  0CE4  00A0               	movwf	??___fladd
  9087  0CE5  0820               	movf	??___fladd,w
  9088  0CE6  06F8               	xorwf	___fladd@signs,f
  9089  0CE7  09FB               	comf	___fladd@grs,f
  9090  0CE8  0AFB               	incf	___fladd@grs,f
  9091  0CE9                     l2742:
  9092  0CE9  087B               	movf	___fladd@grs,w
  9093  0CEA  1D03               	btfss	3,2
  9094  0CEB  2CED               	goto	u3471
  9095  0CEC  2CEE               	goto	u3470
  9096  0CED                     u3471:
  9097  0CED  2CFF               	goto	l609
  9098  0CEE                     u3470:
  9099  0CEE                     l2744:
  9100  0CEE  3001               	movlw	1
  9101  0CEF  07F0               	addwf	___fladd@b,f
  9102  0CF0  3000               	movlw	0
  9103  0CF1  3DF1               	addwfc	___fladd@b+1,f
  9104  0CF2  3000               	movlw	0
  9105  0CF3  3DF2               	addwfc	___fladd@b+2,f
  9106  0CF4  3000               	movlw	0
  9107  0CF5  3DF3               	addwfc	___fladd@b+3,f
  9108  0CF6  2CFF               	goto	l609
  9109  0CF7                     l2746:
  9110  0CF7  0874               	movf	___fladd@a,w
  9111  0CF8  02F0               	subwf	___fladd@b,f
  9112  0CF9  0875               	movf	___fladd@a+1,w
  9113  0CFA  3BF1               	subwfb	___fladd@b+1,f
  9114  0CFB  0876               	movf	___fladd@a+2,w
  9115  0CFC  3BF2               	subwfb	___fladd@b+2,f
  9116  0CFD  0877               	movf	___fladd@a+3,w
  9117  0CFE  3BF3               	subwfb	___fladd@b+3,f
  9118  0CFF                     l609:
  9119  0CFF  0873               	movf	___fladd@b+3,w
  9120  0D00  0472               	iorwf	___fladd@b+2,w
  9121  0D01  0471               	iorwf	___fladd@b+1,w
  9122  0D02  0470               	iorwf	___fladd@b,w
  9123  0D03  1D03               	skipz
  9124  0D04  2D06               	goto	u3481
  9125  0D05  2D07               	goto	u3480
  9126  0D06                     u3481:
  9127  0D06  2D31               	goto	l2768
  9128  0D07                     u3480:
  9129  0D07                     l2748:
  9130  0D07  087B               	movf	___fladd@grs,w
  9131  0D08  1D03               	btfss	3,2
  9132  0D09  2D0B               	goto	u3491
  9133  0D0A  2D0C               	goto	u3490
  9134  0D0B                     u3491:
  9135  0D0B  2D31               	goto	l2768
  9136  0D0C                     u3490:
  9137  0D0C                     l2750:
  9138  0D0C  3000               	movlw	0
  9139  0D0D  00F3               	movwf	?___fladd+3
  9140  0D0E  3000               	movlw	0
  9141  0D0F  00F2               	movwf	?___fladd+2
  9142  0D10  3000               	movlw	0
  9143  0D11  00F1               	movwf	?___fladd+1
  9144  0D12  3000               	movlw	0
  9145  0D13  00F0               	movwf	?___fladd
  9146  0D14  2DA8               	goto	l601
  9147  0D15                     l2754:
  9148  0D15  3001               	movlw	1
  9149  0D16                     u3505:
  9150  0D16  35F0               	lslf	___fladd@b,f
  9151  0D17  0DF1               	rlf	___fladd@b+1,f
  9152  0D18  0DF2               	rlf	___fladd@b+2,f
  9153  0D19  0DF3               	rlf	___fladd@b+3,f
  9154  0D1A  0B89               	decfsz	9,f
  9155  0D1B  2D16               	goto	u3505
  9156  0D1C                     l2756:
  9157  0D1C  1FFB               	btfss	___fladd@grs,7
  9158  0D1D  2D1F               	goto	u3511
  9159  0D1E  2D20               	goto	u3510
  9160  0D1F                     u3511:
  9161  0D1F  2D21               	goto	l613
  9162  0D20                     u3510:
  9163  0D20                     l2758:
  9164  0D20  1470               	bsf	___fladd@b,0
  9165  0D21                     l613:
  9166  0D21  1C7B               	btfss	___fladd@grs,0
  9167  0D22  2D24               	goto	u3521
  9168  0D23  2D25               	goto	u3520
  9169  0D24                     u3521:
  9170  0D24  2D28               	goto	l2762
  9171  0D25                     u3520:
  9172  0D25                     l2760:
  9173  0D25  1403               	setc
  9174  0D26  0DFB               	rlf	___fladd@grs,f
  9175  0D27  2D2A               	goto	l2764
  9176  0D28                     l2762:
  9177  0D28  1003               	clrc
  9178  0D29  0DFB               	rlf	___fladd@grs,f
  9179  0D2A                     l2764:
  9180  0D2A  087A               	movf	___fladd@bexp,w
  9181  0D2B  1903               	btfsc	3,2
  9182  0D2C  2D2E               	goto	u3531
  9183  0D2D  2D2F               	goto	u3530
  9184  0D2E                     u3531:
  9185  0D2E  2D31               	goto	l2768
  9186  0D2F                     u3530:
  9187  0D2F                     l2766:
  9188  0D2F  3001               	movlw	1
  9189  0D30  02FA               	subwf	___fladd@bexp,f
  9190  0D31                     l2768:
  9191  0D31  1FF2               	btfss	___fladd@b+2,7
  9192  0D32  2D34               	goto	u3541
  9193  0D33  2D35               	goto	u3540
  9194  0D34                     u3541:
  9195  0D34  2D15               	goto	l2754
  9196  0D35                     u3540:
  9197  0D35                     l2770:
  9198  0D35  01F9               	clrf	___fladd@aexp
  9199  0D36                     l2772:
  9200  0D36  1FFB               	btfss	___fladd@grs,7
  9201  0D37  2D39               	goto	u3551
  9202  0D38  2D3A               	goto	u3550
  9203  0D39                     u3551:
  9204  0D39  2D48               	goto	l2780
  9205  0D3A                     u3550:
  9206  0D3A                     l2774:
  9207  0D3A  087B               	movf	___fladd@grs,w
  9208  0D3B  397F               	andlw	127
  9209  0D3C  1903               	btfsc	3,2
  9210  0D3D  2D3F               	goto	u3561
  9211  0D3E  2D40               	goto	u3560
  9212  0D3F                     u3561:
  9213  0D3F  2D43               	goto	l619
  9214  0D40                     u3560:
  9215  0D40                     l2776:
  9216  0D40  01F9               	clrf	___fladd@aexp
  9217  0D41  0AF9               	incf	___fladd@aexp,f
  9218  0D42  2D48               	goto	l2780
  9219  0D43                     l619:
  9220  0D43  1C70               	btfss	___fladd@b,0
  9221  0D44  2D46               	goto	u3571
  9222  0D45  2D47               	goto	u3570
  9223  0D46                     u3571:
  9224  0D46  2D48               	goto	l2780
  9225  0D47                     u3570:
  9226  0D47  2D40               	goto	l2776
  9227  0D48                     l2780:
  9228  0D48  0879               	movf	___fladd@aexp,w
  9229  0D49  1903               	btfsc	3,2
  9230  0D4A  2D4C               	goto	u3581
  9231  0D4B  2D4D               	goto	u3580
  9232  0D4C                     u3581:
  9233  0D4C  2D7B               	goto	l622
  9234  0D4D                     u3580:
  9235  0D4D                     l2782:
  9236  0D4D  3001               	movlw	1
  9237  0D4E  07F0               	addwf	___fladd@b,f
  9238  0D4F  3000               	movlw	0
  9239  0D50  3DF1               	addwfc	___fladd@b+1,f
  9240  0D51  3000               	movlw	0
  9241  0D52  3DF2               	addwfc	___fladd@b+2,f
  9242  0D53  3000               	movlw	0
  9243  0D54  3DF3               	addwfc	___fladd@b+3,f
  9244  0D55                     l2784:
  9245  0D55  1C73               	btfss	___fladd@b+3,0
  9246  0D56  2D58               	goto	u3591
  9247  0D57  2D59               	goto	u3590
  9248  0D58                     u3591:
  9249  0D58  2D7B               	goto	l622
  9250  0D59                     u3590:
  9251  0D59                     l2786:
  9252  0D59  0870               	movf	___fladd@b,w
  9253  0D5A  0020               	movlb	0	; select bank0
  9254  0D5B  00A0               	movwf	??___fladd
  9255  0D5C  0871               	movf	___fladd@b+1,w
  9256  0D5D  00A1               	movwf	??___fladd+1
  9257  0D5E  0872               	movf	___fladd@b+2,w
  9258  0D5F  00A2               	movwf	??___fladd+2
  9259  0D60  0873               	movf	___fladd@b+3,w
  9260  0D61  00A3               	movwf	??___fladd+3
  9261  0D62  3001               	movlw	1
  9262  0D63  00A4               	movwf	??___fladd+4
  9263  0D64                     u3605:
  9264  0D64  37A3               	asrf	??___fladd+3,f
  9265  0D65  0CA2               	rrf	??___fladd+2,f
  9266  0D66  0CA1               	rrf	??___fladd+1,f
  9267  0D67  0CA0               	rrf	??___fladd,f
  9268  0D68                     u3600:
  9269  0D68  0BA4               	decfsz	??___fladd+4,f
  9270  0D69  2D64               	goto	u3605
  9271  0D6A  0823               	movf	??___fladd+3,w
  9272  0D6B  00F3               	movwf	___fladd@b+3
  9273  0D6C  0822               	movf	??___fladd+2,w
  9274  0D6D  00F2               	movwf	___fladd@b+2
  9275  0D6E  0821               	movf	??___fladd+1,w
  9276  0D6F  00F1               	movwf	___fladd@b+1
  9277  0D70  0820               	movf	??___fladd,w
  9278  0D71  00F0               	movwf	___fladd@b
  9279  0D72  0A7A               	incf	___fladd@bexp,w
  9280  0D73  1903               	btfsc	3,2
  9281  0D74  2D76               	goto	u3611
  9282  0D75  2D77               	goto	u3610
  9283  0D76                     u3611:
  9284  0D76  2D7B               	goto	l622
  9285  0D77                     u3610:
  9286  0D77                     l2788:
  9287  0D77  3001               	movlw	1
  9288  0D78  00A0               	movwf	??___fladd
  9289  0D79  0820               	movf	??___fladd,w
  9290  0D7A  07FA               	addwf	___fladd@bexp,f
  9291  0D7B                     l622:
  9292  0D7B  0A7A               	incf	___fladd@bexp,w
  9293  0D7C  1903               	btfsc	3,2
  9294  0D7D  2D7F               	goto	u3621
  9295  0D7E  2D80               	goto	u3620
  9296  0D7F                     u3621:
  9297  0D7F  2D85               	goto	l2792
  9298  0D80                     u3620:
  9299  0D80                     l2790:
  9300  0D80  087A               	movf	___fladd@bexp,w
  9301  0D81  1D03               	btfss	3,2
  9302  0D82  2D84               	goto	u3631
  9303  0D83  2D85               	goto	u3630
  9304  0D84                     u3631:
  9305  0D84  2D93               	goto	l2798
  9306  0D85                     u3630:
  9307  0D85                     l2792:
  9308  0D85  3000               	movlw	0
  9309  0D86  00F3               	movwf	___fladd@b+3
  9310  0D87  3000               	movlw	0
  9311  0D88  00F2               	movwf	___fladd@b+2
  9312  0D89  3000               	movlw	0
  9313  0D8A  00F1               	movwf	___fladd@b+1
  9314  0D8B  3000               	movlw	0
  9315  0D8C  00F0               	movwf	___fladd@b
  9316  0D8D                     l2794:
  9317  0D8D  087A               	movf	___fladd@bexp,w
  9318  0D8E  1D03               	btfss	3,2
  9319  0D8F  2D91               	goto	u3641
  9320  0D90  2D92               	goto	u3640
  9321  0D91                     u3641:
  9322  0D91  2D93               	goto	l2798
  9323  0D92                     u3640:
  9324  0D92                     l2796:
  9325  0D92  01F8               	clrf	___fladd@signs
  9326  0D93                     l2798:
  9327  0D93  1C7A               	btfss	___fladd@bexp,0
  9328  0D94  2D96               	goto	u3651
  9329  0D95  2D97               	goto	u3650
  9330  0D96                     u3651:
  9331  0D96  2D99               	goto	l2802
  9332  0D97                     u3650:
  9333  0D97                     l2800:
  9334  0D97  17F2               	bsf	___fladd@b+2,7
  9335  0D98  2D9E               	goto	l630
  9336  0D99                     l2802:
  9337  0D99  307F               	movlw	127
  9338  0D9A  0020               	movlb	0	; select bank0
  9339  0D9B  00A0               	movwf	??___fladd
  9340  0D9C  0820               	movf	??___fladd,w
  9341  0D9D  05F2               	andwf	___fladd@b+2,f
  9342  0D9E                     l630:
  9343  0D9E  367A               	lsrf	___fladd@bexp,w
  9344  0D9F  0020               	movlb	0	; select bank0
  9345  0DA0  00A0               	movwf	??___fladd
  9346  0DA1  0820               	movf	??___fladd,w
  9347  0DA2  00F3               	movwf	___fladd@b+3
  9348  0DA3                     l2804:
  9349  0DA3  1FF8               	btfss	___fladd@signs,7
  9350  0DA4  2DA6               	goto	u3661
  9351  0DA5  2DA7               	goto	u3660
  9352  0DA6                     u3661:
  9353  0DA6  2DA8               	goto	l631
  9354  0DA7                     u3660:
  9355  0DA7                     l2806:
  9356  0DA7  17F3               	bsf	___fladd@b+3,7
  9357  0DA8                     l631:
  9358  0DA8                     l601:
  9359  0DA8  0008               	return
  9360  0DA9                     __end_of___fladd:
  9361                           
  9362                           	psect	text18
  9363  1BF4                     __ptext18:	
  9364 ;; *************** function ___flneg *****************
  9365 ;; Defined at:
  9366 ;;		line 15 in file "C:\Program Files\Microchip\xc8\v2.32\pic\sources\c99\common\flneg.c"
  9367 ;; Parameters:    Size  Location     Type
  9368 ;;  f1              4    0[COMMON] unsigned char 
  9369 ;; Auto vars:     Size  Location     Type
  9370 ;;		None
  9371 ;; Return value:  Size  Location     Type
  9372 ;;                  4    0[COMMON] unsigned char 
  9373 ;; Registers used:
  9374 ;;		wreg
  9375 ;; Tracked objects:
  9376 ;;		On entry : 0/0
  9377 ;;		On exit  : 0/0
  9378 ;;		Unchanged: 0/0
  9379 ;; Data sizes:     COMMON   BANK0   BANK1   BANK2   BANK3   BANK4   BANK5   BANK6   BANK7   BANK8   BANK9  BANK10  BANK1
      +1  BANK12
  9380 ;;      Params:         4       0       0       0       0       0       0       0       0       0       0       0       
      +0       0
  9381 ;;      Locals:         0       0       0       0       0       0       0       0       0       0       0       0       
      +0       0
  9382 ;;      Temps:          0       0       0       0       0       0       0       0       0       0       0       0       
      +0       0
  9383 ;;      Totals:         4       0       0       0       0       0       0       0       0       0       0       0       
      +0       0
  9384 ;;Total ram usage:        4 bytes
  9385 ;; Hardware stack levels used: 1
  9386 ;; This function calls:
  9387 ;;		Nothing
  9388 ;; This function is called by:
  9389 ;;		_efgtoa
  9390 ;; This function uses a non-reentrant model
  9391 ;;
  9392                           
  9393                           
  9394                           ;psect for function ___flneg
  9395  1BF4                     ___flneg:
  9396  1BF4                     l3026:	
  9397                           ;incstack = 0
  9398                           ; Regs used in ___flneg: [wreg]
  9399                           
  9400  1BF4  0873               	movf	___flneg@f1+3,w
  9401  1BF5  0472               	iorwf	___flneg@f1+2,w
  9402  1BF6  0471               	iorwf	___flneg@f1+1,w
  9403  1BF7  0470               	iorwf	___flneg@f1,w
  9404  1BF8  1903               	skipnz
  9405  1BF9  2BFB               	goto	u4221
  9406  1BFA  2BFC               	goto	u4220
  9407  1BFB                     u4221:
  9408  1BFB  2BFE               	goto	l3030
  9409  1BFC                     u4220:
  9410  1BFC                     l3028:
  9411  1BFC  3080               	movlw	128
  9412  1BFD  06F3               	xorwf	___flneg@f1+3,f
  9413  1BFE                     l3030:
  9414  1BFE                     l477:
  9415  1BFE  0008               	return
  9416  1BFF                     __end_of___flneg:
  9417                           
  9418                           	psect	text19
  9419  0DA9                     __ptext19:	
  9420 ;; *************** function ___flmul *****************
  9421 ;; Defined at:
  9422 ;;		line 8 in file "C:\Program Files\Microchip\xc8\v2.32\pic\sources\c99\common\sprcmul.c"
  9423 ;; Parameters:    Size  Location     Type
  9424 ;;  b               4    0[BANK0 ] unsigned char 
  9425 ;;  a               4    4[BANK0 ] unsigned char 
  9426 ;; Auto vars:     Size  Location     Type
  9427 ;;  prod            4   20[BANK0 ] struct .
  9428 ;;  grs             4   14[BANK0 ] unsigned long 
  9429 ;;  temp            2   24[BANK0 ] struct .
  9430 ;;  bexp            1   19[BANK0 ] unsigned char 
  9431 ;;  aexp            1   18[BANK0 ] unsigned char 
  9432 ;;  sign            1   13[BANK0 ] unsigned char 
  9433 ;; Return value:  Size  Location     Type
  9434 ;;                  4    0[BANK0 ] unsigned char 
  9435 ;; Registers used:
  9436 ;;		wreg, status,2, status,0, pclath, cstack
  9437 ;; Tracked objects:
  9438 ;;		On entry : 0/0
  9439 ;;		On exit  : 0/0
  9440 ;;		Unchanged: 0/0
  9441 ;; Data sizes:     COMMON   BANK0   BANK1   BANK2   BANK3   BANK4   BANK5   BANK6   BANK7   BANK8   BANK9  BANK10  BANK1
      +1  BANK12
  9442 ;;      Params:         0       8       0       0       0       0       0       0       0       0       0       0       
      +0       0
  9443 ;;      Locals:         0      13       0       0       0       0       0       0       0       0       0       0       
      +0       0
  9444 ;;      Temps:          0       5       0       0       0       0       0       0       0       0       0       0       
      +0       0
  9445 ;;      Totals:         0      26       0       0       0       0       0       0       0       0       0       0       
      +0       0
  9446 ;;Total ram usage:       26 bytes
  9447 ;; Hardware stack levels used: 1
  9448 ;; Hardware stack levels required when called: 1
  9449 ;; This function calls:
  9450 ;;		__Umul8_16
  9451 ;; This function is called by:
  9452 ;;		_main
  9453 ;;		_efgtoa
  9454 ;; This function uses a non-reentrant model
  9455 ;;
  9456                           
  9457                           
  9458                           ;psect for function ___flmul
  9459  0DA9                     ___flmul:
  9460  0DA9                     l3216:	
  9461                           ;incstack = 0
  9462                           ; Regs used in ___flmul: [wreg+status,2+status,0+pclath+cstack]
  9463                           
  9464  0DA9  0020               	movlb	0	; select bank0
  9465  0DAA  0823               	movf	___flmul@b+3,w
  9466  0DAB  3980               	andlw	128
  9467  0DAC  00A8               	movwf	??___flmul
  9468  0DAD  0828               	movf	??___flmul,w
  9469  0DAE  00AD               	movwf	___flmul@sign
  9470  0DAF                     l3218:
  9471  0DAF  3523               	lslf	___flmul@b+3,w
  9472  0DB0  00A8               	movwf	??___flmul
  9473  0DB1  0828               	movf	??___flmul,w
  9474  0DB2  00B3               	movwf	___flmul@bexp
  9475  0DB3                     l3220:
  9476  0DB3  1FA2               	btfss	___flmul@b+2,7
  9477  0DB4  2DB6               	goto	u4621
  9478  0DB5  2DB7               	goto	u4620
  9479  0DB6                     u4621:
  9480  0DB6  2DB8               	goto	l3224
  9481  0DB7                     u4620:
  9482  0DB7                     l3222:
  9483  0DB7  1433               	bsf	___flmul@bexp,0
  9484  0DB8                     l3224:
  9485  0DB8  0833               	movf	___flmul@bexp,w
  9486  0DB9  1903               	btfsc	3,2
  9487  0DBA  2DBC               	goto	u4631
  9488  0DBB  2DBD               	goto	u4630
  9489  0DBC                     u4631:
  9490  0DBC  2DCC               	goto	l3232
  9491  0DBD                     u4630:
  9492  0DBD                     l3226:
  9493  0DBD  0A33               	incf	___flmul@bexp,w
  9494  0DBE  1D03               	btfss	3,2
  9495  0DBF  2DC1               	goto	u4641
  9496  0DC0  2DC2               	goto	u4640
  9497  0DC1                     u4641:
  9498  0DC1  2DCA               	goto	l3230
  9499  0DC2                     u4640:
  9500  0DC2                     l3228:
  9501  0DC2  3000               	movlw	0
  9502  0DC3  00A3               	movwf	___flmul@b+3
  9503  0DC4  3000               	movlw	0
  9504  0DC5  00A2               	movwf	___flmul@b+2
  9505  0DC6  3000               	movlw	0
  9506  0DC7  00A1               	movwf	___flmul@b+1
  9507  0DC8  3000               	movlw	0
  9508  0DC9  00A0               	movwf	___flmul@b
  9509  0DCA                     l3230:
  9510  0DCA  17A2               	bsf	___flmul@b+2,7
  9511  0DCB  2DD4               	goto	l3234
  9512  0DCC                     l3232:
  9513  0DCC  3000               	movlw	0
  9514  0DCD  00A3               	movwf	___flmul@b+3
  9515  0DCE  3000               	movlw	0
  9516  0DCF  00A2               	movwf	___flmul@b+2
  9517  0DD0  3000               	movlw	0
  9518  0DD1  00A1               	movwf	___flmul@b+1
  9519  0DD2  3000               	movlw	0
  9520  0DD3  00A0               	movwf	___flmul@b
  9521  0DD4                     l3234:
  9522  0DD4  0827               	movf	___flmul@a+3,w
  9523  0DD5  3980               	andlw	128
  9524  0DD6  00A8               	movwf	??___flmul
  9525  0DD7  0828               	movf	??___flmul,w
  9526  0DD8  06AD               	xorwf	___flmul@sign,f
  9527  0DD9                     l3236:
  9528  0DD9  3527               	lslf	___flmul@a+3,w
  9529  0DDA  00A8               	movwf	??___flmul
  9530  0DDB  0828               	movf	??___flmul,w
  9531  0DDC  00B2               	movwf	___flmul@aexp
  9532  0DDD                     l3238:
  9533  0DDD  1FA6               	btfss	___flmul@a+2,7
  9534  0DDE  2DE0               	goto	u4651
  9535  0DDF  2DE1               	goto	u4650
  9536  0DE0                     u4651:
  9537  0DE0  2DE2               	goto	l3242
  9538  0DE1                     u4650:
  9539  0DE1                     l3240:
  9540  0DE1  1432               	bsf	___flmul@aexp,0
  9541  0DE2                     l3242:
  9542  0DE2  0832               	movf	___flmul@aexp,w
  9543  0DE3  1903               	btfsc	3,2
  9544  0DE4  2DE6               	goto	u4661
  9545  0DE5  2DE7               	goto	u4660
  9546  0DE6                     u4661:
  9547  0DE6  2DF6               	goto	l3250
  9548  0DE7                     u4660:
  9549  0DE7                     l3244:
  9550  0DE7  0A32               	incf	___flmul@aexp,w
  9551  0DE8  1D03               	btfss	3,2
  9552  0DE9  2DEB               	goto	u4671
  9553  0DEA  2DEC               	goto	u4670
  9554  0DEB                     u4671:
  9555  0DEB  2DF4               	goto	l3248
  9556  0DEC                     u4670:
  9557  0DEC                     l3246:
  9558  0DEC  3000               	movlw	0
  9559  0DED  00A7               	movwf	___flmul@a+3
  9560  0DEE  3000               	movlw	0
  9561  0DEF  00A6               	movwf	___flmul@a+2
  9562  0DF0  3000               	movlw	0
  9563  0DF1  00A5               	movwf	___flmul@a+1
  9564  0DF2  3000               	movlw	0
  9565  0DF3  00A4               	movwf	___flmul@a
  9566  0DF4                     l3248:
  9567  0DF4  17A6               	bsf	___flmul@a+2,7
  9568  0DF5  2DFE               	goto	l3252
  9569  0DF6                     l3250:
  9570  0DF6  3000               	movlw	0
  9571  0DF7  00A7               	movwf	___flmul@a+3
  9572  0DF8  3000               	movlw	0
  9573  0DF9  00A6               	movwf	___flmul@a+2
  9574  0DFA  3000               	movlw	0
  9575  0DFB  00A5               	movwf	___flmul@a+1
  9576  0DFC  3000               	movlw	0
  9577  0DFD  00A4               	movwf	___flmul@a
  9578  0DFE                     l3252:
  9579  0DFE  0832               	movf	___flmul@aexp,w
  9580  0DFF  1903               	btfsc	3,2
  9581  0E00  2E02               	goto	u4681
  9582  0E01  2E03               	goto	u4680
  9583  0E02                     u4681:
  9584  0E02  2E08               	goto	l3256
  9585  0E03                     u4680:
  9586  0E03                     l3254:
  9587  0E03  0833               	movf	___flmul@bexp,w
  9588  0E04  1D03               	btfss	3,2
  9589  0E05  2E07               	goto	u4691
  9590  0E06  2E08               	goto	u4690
  9591  0E07                     u4691:
  9592  0E07  2E11               	goto	l3260
  9593  0E08                     u4690:
  9594  0E08                     l3256:
  9595  0E08  3000               	movlw	0
  9596  0E09  00A3               	movwf	?___flmul+3
  9597  0E0A  3000               	movlw	0
  9598  0E0B  00A2               	movwf	?___flmul+2
  9599  0E0C  3000               	movlw	0
  9600  0E0D  00A1               	movwf	?___flmul+1
  9601  0E0E  3000               	movlw	0
  9602  0E0F  00A0               	movwf	?___flmul
  9603  0E10  2FFF               	goto	l684
  9604  0E11                     l3260:
  9605  0E11  0820               	movf	___flmul@b,w
  9606  0E12  00A8               	movwf	??___flmul
  9607  0E13  0828               	movf	??___flmul,w
  9608  0E14  00F0               	movwf	__Umul8_16@multiplicand
  9609  0E15  0826               	movf	___flmul@a+2,w
  9610  0E16  319C  24F5  318D   	fcall	__Umul8_16
  9611  0E19  0871               	movf	?__Umul8_16+1,w
  9612  0E1A  0020               	movlb	0	; select bank0
  9613  0E1B  00B9               	movwf	___flmul@temp+1
  9614  0E1C  0870               	movf	?__Umul8_16,w
  9615  0E1D  00B8               	movwf	___flmul@temp
  9616  0E1E                     l3262:
  9617  0E1E  0838               	movf	___flmul@temp,w
  9618  0E1F  00A8               	movwf	??___flmul
  9619  0E20  01A9               	clrf	??___flmul+1
  9620  0E21  01AA               	clrf	??___flmul+2
  9621  0E22  01AB               	clrf	??___flmul+3
  9622  0E23  082B               	movf	??___flmul+3,w
  9623  0E24  00B1               	movwf	___flmul@grs+3
  9624  0E25  082A               	movf	??___flmul+2,w
  9625  0E26  00B0               	movwf	___flmul@grs+2
  9626  0E27  0829               	movf	??___flmul+1,w
  9627  0E28  00AF               	movwf	___flmul@grs+1
  9628  0E29  0828               	movf	??___flmul,w
  9629  0E2A  00AE               	movwf	___flmul@grs
  9630  0E2B                     l3264:
  9631  0E2B  0839               	movf	___flmul@temp+1,w
  9632  0E2C  00A8               	movwf	??___flmul
  9633  0E2D  01A9               	clrf	??___flmul+1
  9634  0E2E  01AA               	clrf	??___flmul+2
  9635  0E2F  01AB               	clrf	??___flmul+3
  9636  0E30  082B               	movf	??___flmul+3,w
  9637  0E31  00B7               	movwf	___flmul@prod+3
  9638  0E32  082A               	movf	??___flmul+2,w
  9639  0E33  00B6               	movwf	___flmul@prod+2
  9640  0E34  0829               	movf	??___flmul+1,w
  9641  0E35  00B5               	movwf	___flmul@prod+1
  9642  0E36  0828               	movf	??___flmul,w
  9643  0E37  00B4               	movwf	___flmul@prod
  9644  0E38  0821               	movf	___flmul@b+1,w
  9645  0E39  00A8               	movwf	??___flmul
  9646  0E3A  0828               	movf	??___flmul,w
  9647  0E3B  00F0               	movwf	__Umul8_16@multiplicand
  9648  0E3C  0825               	movf	___flmul@a+1,w
  9649  0E3D  319C  24F5  318D   	fcall	__Umul8_16
  9650  0E40  0871               	movf	?__Umul8_16+1,w
  9651  0E41  0020               	movlb	0	; select bank0
  9652  0E42  00B9               	movwf	___flmul@temp+1
  9653  0E43  0870               	movf	?__Umul8_16,w
  9654  0E44  00B8               	movwf	___flmul@temp
  9655  0E45                     l3266:
  9656  0E45  0838               	movf	___flmul@temp,w
  9657  0E46  00A8               	movwf	??___flmul
  9658  0E47  01A9               	clrf	??___flmul+1
  9659  0E48  01AA               	clrf	??___flmul+2
  9660  0E49  01AB               	clrf	??___flmul+3
  9661  0E4A  0828               	movf	??___flmul,w
  9662  0E4B  07AE               	addwf	___flmul@grs,f
  9663  0E4C  0829               	movf	??___flmul+1,w
  9664  0E4D  3DAF               	addwfc	___flmul@grs+1,f
  9665  0E4E  082A               	movf	??___flmul+2,w
  9666  0E4F  3DB0               	addwfc	___flmul@grs+2,f
  9667  0E50  082B               	movf	??___flmul+3,w
  9668  0E51  3DB1               	addwfc	___flmul@grs+3,f
  9669  0E52                     l3268:
  9670  0E52  0839               	movf	___flmul@temp+1,w
  9671  0E53  00A8               	movwf	??___flmul
  9672  0E54  01A9               	clrf	??___flmul+1
  9673  0E55  01AA               	clrf	??___flmul+2
  9674  0E56  01AB               	clrf	??___flmul+3
  9675  0E57  0828               	movf	??___flmul,w
  9676  0E58  07B4               	addwf	___flmul@prod,f
  9677  0E59  0829               	movf	??___flmul+1,w
  9678  0E5A  3DB5               	addwfc	___flmul@prod+1,f
  9679  0E5B  082A               	movf	??___flmul+2,w
  9680  0E5C  3DB6               	addwfc	___flmul@prod+2,f
  9681  0E5D  082B               	movf	??___flmul+3,w
  9682  0E5E  3DB7               	addwfc	___flmul@prod+3,f
  9683  0E5F  0822               	movf	___flmul@b+2,w
  9684  0E60  00A8               	movwf	??___flmul
  9685  0E61  0828               	movf	??___flmul,w
  9686  0E62  00F0               	movwf	__Umul8_16@multiplicand
  9687  0E63  0824               	movf	___flmul@a,w
  9688  0E64  319C  24F5  318D   	fcall	__Umul8_16
  9689  0E67  0871               	movf	?__Umul8_16+1,w
  9690  0E68  0020               	movlb	0	; select bank0
  9691  0E69  00B9               	movwf	___flmul@temp+1
  9692  0E6A  0870               	movf	?__Umul8_16,w
  9693  0E6B  00B8               	movwf	___flmul@temp
  9694  0E6C                     l3270:
  9695  0E6C  0838               	movf	___flmul@temp,w
  9696  0E6D  00A8               	movwf	??___flmul
  9697  0E6E  01A9               	clrf	??___flmul+1
  9698  0E6F  01AA               	clrf	??___flmul+2
  9699  0E70  01AB               	clrf	??___flmul+3
  9700  0E71  0828               	movf	??___flmul,w
  9701  0E72  07AE               	addwf	___flmul@grs,f
  9702  0E73  0829               	movf	??___flmul+1,w
  9703  0E74  3DAF               	addwfc	___flmul@grs+1,f
  9704  0E75  082A               	movf	??___flmul+2,w
  9705  0E76  3DB0               	addwfc	___flmul@grs+2,f
  9706  0E77  082B               	movf	??___flmul+3,w
  9707  0E78  3DB1               	addwfc	___flmul@grs+3,f
  9708  0E79                     l3272:
  9709  0E79  0839               	movf	___flmul@temp+1,w
  9710  0E7A  00A8               	movwf	??___flmul
  9711  0E7B  01A9               	clrf	??___flmul+1
  9712  0E7C  01AA               	clrf	??___flmul+2
  9713  0E7D  01AB               	clrf	??___flmul+3
  9714  0E7E  0828               	movf	??___flmul,w
  9715  0E7F  07B4               	addwf	___flmul@prod,f
  9716  0E80  0829               	movf	??___flmul+1,w
  9717  0E81  3DB5               	addwfc	___flmul@prod+1,f
  9718  0E82  082A               	movf	??___flmul+2,w
  9719  0E83  3DB6               	addwfc	___flmul@prod+2,f
  9720  0E84  082B               	movf	??___flmul+3,w
  9721  0E85  3DB7               	addwfc	___flmul@prod+3,f
  9722  0E86                     l3274:
  9723  0E86  3008               	movlw	8
  9724  0E87                     u4705:
  9725  0E87  35AE               	lslf	___flmul@grs,f
  9726  0E88  0DAF               	rlf	___flmul@grs+1,f
  9727  0E89  0DB0               	rlf	___flmul@grs+2,f
  9728  0E8A  0DB1               	rlf	___flmul@grs+3,f
  9729  0E8B  0B89               	decfsz	9,f
  9730  0E8C  2E87               	goto	u4705
  9731  0E8D                     l3276:
  9732  0E8D  0821               	movf	___flmul@b+1,w
  9733  0E8E  00A8               	movwf	??___flmul
  9734  0E8F  0828               	movf	??___flmul,w
  9735  0E90  00F0               	movwf	__Umul8_16@multiplicand
  9736  0E91  0824               	movf	___flmul@a,w
  9737  0E92  319C  24F5  318D   	fcall	__Umul8_16
  9738  0E95  0871               	movf	?__Umul8_16+1,w
  9739  0E96  0020               	movlb	0	; select bank0
  9740  0E97  00B9               	movwf	___flmul@temp+1
  9741  0E98  0870               	movf	?__Umul8_16,w
  9742  0E99  00B8               	movwf	___flmul@temp
  9743  0E9A                     l3278:
  9744  0E9A  0838               	movf	___flmul@temp,w
  9745  0E9B  07AE               	addwf	___flmul@grs,f
  9746  0E9C  0839               	movf	___flmul@temp+1,w
  9747  0E9D  3DAF               	addwfc	___flmul@grs+1,f
  9748  0E9E  3000               	movlw	0
  9749  0E9F  3DB0               	addwfc	___flmul@grs+2,f
  9750  0EA0  3DB1               	addwfc	___flmul@grs+3,f
  9751  0EA1                     l3280:
  9752  0EA1  0820               	movf	___flmul@b,w
  9753  0EA2  00A8               	movwf	??___flmul
  9754  0EA3  0828               	movf	??___flmul,w
  9755  0EA4  00F0               	movwf	__Umul8_16@multiplicand
  9756  0EA5  0825               	movf	___flmul@a+1,w
  9757  0EA6  319C  24F5  318D   	fcall	__Umul8_16
  9758  0EA9  0871               	movf	?__Umul8_16+1,w
  9759  0EAA  0020               	movlb	0	; select bank0
  9760  0EAB  00B9               	movwf	___flmul@temp+1
  9761  0EAC  0870               	movf	?__Umul8_16,w
  9762  0EAD  00B8               	movwf	___flmul@temp
  9763  0EAE                     l3282:
  9764  0EAE  0838               	movf	___flmul@temp,w
  9765  0EAF  07AE               	addwf	___flmul@grs,f
  9766  0EB0  0839               	movf	___flmul@temp+1,w
  9767  0EB1  3DAF               	addwfc	___flmul@grs+1,f
  9768  0EB2  3000               	movlw	0
  9769  0EB3  3DB0               	addwfc	___flmul@grs+2,f
  9770  0EB4  3DB1               	addwfc	___flmul@grs+3,f
  9771  0EB5                     l3284:
  9772  0EB5  3008               	movlw	8
  9773  0EB6                     u4715:
  9774  0EB6  35AE               	lslf	___flmul@grs,f
  9775  0EB7  0DAF               	rlf	___flmul@grs+1,f
  9776  0EB8  0DB0               	rlf	___flmul@grs+2,f
  9777  0EB9  0DB1               	rlf	___flmul@grs+3,f
  9778  0EBA  0B89               	decfsz	9,f
  9779  0EBB  2EB6               	goto	u4715
  9780  0EBC  0820               	movf	___flmul@b,w
  9781  0EBD  00A8               	movwf	??___flmul
  9782  0EBE  0828               	movf	??___flmul,w
  9783  0EBF  00F0               	movwf	__Umul8_16@multiplicand
  9784  0EC0  0824               	movf	___flmul@a,w
  9785  0EC1  319C  24F5  318D   	fcall	__Umul8_16
  9786  0EC4  0871               	movf	?__Umul8_16+1,w
  9787  0EC5  0020               	movlb	0	; select bank0
  9788  0EC6  00B9               	movwf	___flmul@temp+1
  9789  0EC7  0870               	movf	?__Umul8_16,w
  9790  0EC8  00B8               	movwf	___flmul@temp
  9791  0EC9                     l3286:
  9792  0EC9  0838               	movf	___flmul@temp,w
  9793  0ECA  07AE               	addwf	___flmul@grs,f
  9794  0ECB  0839               	movf	___flmul@temp+1,w
  9795  0ECC  3DAF               	addwfc	___flmul@grs+1,f
  9796  0ECD  3000               	movlw	0
  9797  0ECE  3DB0               	addwfc	___flmul@grs+2,f
  9798  0ECF  3DB1               	addwfc	___flmul@grs+3,f
  9799  0ED0                     l3288:
  9800  0ED0  0821               	movf	___flmul@b+1,w
  9801  0ED1  00A8               	movwf	??___flmul
  9802  0ED2  0828               	movf	??___flmul,w
  9803  0ED3  00F0               	movwf	__Umul8_16@multiplicand
  9804  0ED4  0826               	movf	___flmul@a+2,w
  9805  0ED5  319C  24F5  318D   	fcall	__Umul8_16
  9806  0ED8  0871               	movf	?__Umul8_16+1,w
  9807  0ED9  0020               	movlb	0	; select bank0
  9808  0EDA  00B9               	movwf	___flmul@temp+1
  9809  0EDB  0870               	movf	?__Umul8_16,w
  9810  0EDC  00B8               	movwf	___flmul@temp
  9811  0EDD  0838               	movf	___flmul@temp,w
  9812  0EDE  07B4               	addwf	___flmul@prod,f
  9813  0EDF  0839               	movf	___flmul@temp+1,w
  9814  0EE0  3DB5               	addwfc	___flmul@prod+1,f
  9815  0EE1  3000               	movlw	0
  9816  0EE2  3DB6               	addwfc	___flmul@prod+2,f
  9817  0EE3  3DB7               	addwfc	___flmul@prod+3,f
  9818  0EE4                     l3290:
  9819  0EE4  0822               	movf	___flmul@b+2,w
  9820  0EE5  00A8               	movwf	??___flmul
  9821  0EE6  0828               	movf	??___flmul,w
  9822  0EE7  00F0               	movwf	__Umul8_16@multiplicand
  9823  0EE8  0825               	movf	___flmul@a+1,w
  9824  0EE9  319C  24F5  318D   	fcall	__Umul8_16
  9825  0EEC  0871               	movf	?__Umul8_16+1,w
  9826  0EED  0020               	movlb	0	; select bank0
  9827  0EEE  00B9               	movwf	___flmul@temp+1
  9828  0EEF  0870               	movf	?__Umul8_16,w
  9829  0EF0  00B8               	movwf	___flmul@temp
  9830  0EF1                     l3292:
  9831  0EF1  0838               	movf	___flmul@temp,w
  9832  0EF2  07B4               	addwf	___flmul@prod,f
  9833  0EF3  0839               	movf	___flmul@temp+1,w
  9834  0EF4  3DB5               	addwfc	___flmul@prod+1,f
  9835  0EF5  3000               	movlw	0
  9836  0EF6  3DB6               	addwfc	___flmul@prod+2,f
  9837  0EF7  3DB7               	addwfc	___flmul@prod+3,f
  9838  0EF8  0822               	movf	___flmul@b+2,w
  9839  0EF9  00A8               	movwf	??___flmul
  9840  0EFA  0828               	movf	??___flmul,w
  9841  0EFB  00F0               	movwf	__Umul8_16@multiplicand
  9842  0EFC  0826               	movf	___flmul@a+2,w
  9843  0EFD  319C  24F5  318D   	fcall	__Umul8_16
  9844  0F00  0871               	movf	?__Umul8_16+1,w
  9845  0F01  0020               	movlb	0	; select bank0
  9846  0F02  00B9               	movwf	___flmul@temp+1
  9847  0F03  0870               	movf	?__Umul8_16,w
  9848  0F04  00B8               	movwf	___flmul@temp
  9849  0F05                     l3294:
  9850  0F05  0838               	movf	___flmul@temp,w
  9851  0F06  00A8               	movwf	??___flmul
  9852  0F07  0839               	movf	___flmul@temp+1,w
  9853  0F08  00A9               	movwf	??___flmul+1
  9854  0F09  01AA               	clrf	??___flmul+2
  9855  0F0A  01AB               	clrf	??___flmul+3
  9856  0F0B  3008               	movlw	8
  9857  0F0C                     u4725:
  9858  0F0C  35A8               	lslf	??___flmul,f
  9859  0F0D  0DA9               	rlf	??___flmul+1,f
  9860  0F0E  0DAA               	rlf	??___flmul+2,f
  9861  0F0F  0DAB               	rlf	??___flmul+3,f
  9862  0F10                     u4720:
  9863  0F10  0B89               	decfsz	9,f
  9864  0F11  2F0C               	goto	u4725
  9865  0F12  0828               	movf	??___flmul,w
  9866  0F13  07B4               	addwf	___flmul@prod,f
  9867  0F14  0829               	movf	??___flmul+1,w
  9868  0F15  3DB5               	addwfc	___flmul@prod+1,f
  9869  0F16  082A               	movf	??___flmul+2,w
  9870  0F17  3DB6               	addwfc	___flmul@prod+2,f
  9871  0F18  082B               	movf	??___flmul+3,w
  9872  0F19  3DB7               	addwfc	___flmul@prod+3,f
  9873  0F1A                     l3296:
  9874  0F1A  082E               	movf	___flmul@grs,w
  9875  0F1B  00A8               	movwf	??___flmul
  9876  0F1C  082F               	movf	___flmul@grs+1,w
  9877  0F1D  00A9               	movwf	??___flmul+1
  9878  0F1E  0830               	movf	___flmul@grs+2,w
  9879  0F1F  00AA               	movwf	??___flmul+2
  9880  0F20  0831               	movf	___flmul@grs+3,w
  9881  0F21  00AB               	movwf	??___flmul+3
  9882  0F22  3018               	movlw	24
  9883  0F23                     u4735:
  9884  0F23  36AB               	lsrf	??___flmul+3,f
  9885  0F24  0CAA               	rrf	??___flmul+2,f
  9886  0F25  0CA9               	rrf	??___flmul+1,f
  9887  0F26  0CA8               	rrf	??___flmul,f
  9888  0F27                     u4730:
  9889  0F27  0B89               	decfsz	9,f
  9890  0F28  2F23               	goto	u4735
  9891  0F29  0828               	movf	??___flmul,w
  9892  0F2A  07B4               	addwf	___flmul@prod,f
  9893  0F2B  0829               	movf	??___flmul+1,w
  9894  0F2C  3DB5               	addwfc	___flmul@prod+1,f
  9895  0F2D  082A               	movf	??___flmul+2,w
  9896  0F2E  3DB6               	addwfc	___flmul@prod+2,f
  9897  0F2F  082B               	movf	??___flmul+3,w
  9898  0F30  3DB7               	addwfc	___flmul@prod+3,f
  9899  0F31                     l3298:
  9900  0F31  3008               	movlw	8
  9901  0F32                     u4745:
  9902  0F32  35AE               	lslf	___flmul@grs,f
  9903  0F33  0DAF               	rlf	___flmul@grs+1,f
  9904  0F34  0DB0               	rlf	___flmul@grs+2,f
  9905  0F35  0DB1               	rlf	___flmul@grs+3,f
  9906  0F36  0B89               	decfsz	9,f
  9907  0F37  2F32               	goto	u4745
  9908  0F38                     l3300:
  9909  0F38  0833               	movf	___flmul@bexp,w
  9910  0F39  0732               	addwf	___flmul@aexp,w
  9911  0F3A  00A8               	movwf	??___flmul
  9912  0F3B  01A9               	clrf	??___flmul+1
  9913  0F3C  0DA9               	rlf	??___flmul+1,f
  9914  0F3D  0828               	movf	??___flmul,w
  9915  0F3E  3E82               	addlw	130
  9916  0F3F  00B8               	movwf	___flmul@temp
  9917  0F40  30FF               	movlw	255
  9918  0F41  3D29               	addwfc	??___flmul+1,w
  9919  0F42  00B9               	movwf	___flmul@temp+1
  9920  0F43  2F5B               	goto	l3312
  9921  0F44                     l3302:
  9922  0F44  3001               	movlw	1
  9923  0F45                     u4755:
  9924  0F45  35B4               	lslf	___flmul@prod,f
  9925  0F46  0DB5               	rlf	___flmul@prod+1,f
  9926  0F47  0DB6               	rlf	___flmul@prod+2,f
  9927  0F48  0DB7               	rlf	___flmul@prod+3,f
  9928  0F49  0B89               	decfsz	9,f
  9929  0F4A  2F45               	goto	u4755
  9930  0F4B                     l3304:
  9931  0F4B  1FB1               	btfss	___flmul@grs+3,7
  9932  0F4C  2F4E               	goto	u4761
  9933  0F4D  2F4F               	goto	u4760
  9934  0F4E                     u4761:
  9935  0F4E  2F50               	goto	l3308
  9936  0F4F                     u4760:
  9937  0F4F                     l3306:
  9938  0F4F  1434               	bsf	___flmul@prod,0
  9939  0F50                     l3308:
  9940  0F50  3001               	movlw	1
  9941  0F51                     u4775:
  9942  0F51  35AE               	lslf	___flmul@grs,f
  9943  0F52  0DAF               	rlf	___flmul@grs+1,f
  9944  0F53  0DB0               	rlf	___flmul@grs+2,f
  9945  0F54  0DB1               	rlf	___flmul@grs+3,f
  9946  0F55  0B89               	decfsz	9,f
  9947  0F56  2F51               	goto	u4775
  9948  0F57                     l3310:
  9949  0F57  30FF               	movlw	255
  9950  0F58  07B8               	addwf	___flmul@temp,f
  9951  0F59  30FF               	movlw	255
  9952  0F5A  3DB9               	addwfc	___flmul@temp+1,f
  9953  0F5B                     l3312:
  9954  0F5B  1FB6               	btfss	___flmul@prod+2,7
  9955  0F5C  2F5E               	goto	u4781
  9956  0F5D  2F5F               	goto	u4780
  9957  0F5E                     u4781:
  9958  0F5E  2F44               	goto	l3302
  9959  0F5F                     u4780:
  9960  0F5F                     l3314:
  9961  0F5F  01B2               	clrf	___flmul@aexp
  9962  0F60                     l3316:
  9963  0F60  1FB1               	btfss	___flmul@grs+3,7
  9964  0F61  2F63               	goto	u4791
  9965  0F62  2F64               	goto	u4790
  9966  0F63                     u4791:
  9967  0F63  2F80               	goto	l3324
  9968  0F64                     u4790:
  9969  0F64                     l3318:
  9970  0F64  30FF               	movlw	255
  9971  0F65  052E               	andwf	___flmul@grs,w
  9972  0F66  00A8               	movwf	??___flmul
  9973  0F67  30FF               	movlw	255
  9974  0F68  052F               	andwf	___flmul@grs+1,w
  9975  0F69  00A9               	movwf	??___flmul+1
  9976  0F6A  30FF               	movlw	255
  9977  0F6B  0530               	andwf	___flmul@grs+2,w
  9978  0F6C  00AA               	movwf	??___flmul+2
  9979  0F6D  307F               	movlw	127
  9980  0F6E  0531               	andwf	___flmul@grs+3,w
  9981  0F6F  00AB               	movwf	??___flmul+3
  9982  0F70  082B               	movf	??___flmul+3,w
  9983  0F71  042A               	iorwf	??___flmul+2,w
  9984  0F72  0429               	iorwf	??___flmul+1,w
  9985  0F73  0428               	iorwf	??___flmul,w
  9986  0F74  1903               	skipnz
  9987  0F75  2F77               	goto	u4801
  9988  0F76  2F78               	goto	u4800
  9989  0F77                     u4801:
  9990  0F77  2F7B               	goto	l690
  9991  0F78                     u4800:
  9992  0F78                     l3320:
  9993  0F78  01B2               	clrf	___flmul@aexp
  9994  0F79  0AB2               	incf	___flmul@aexp,f
  9995  0F7A  2F80               	goto	l3324
  9996  0F7B                     l690:
  9997  0F7B  1C34               	btfss	___flmul@prod,0
  9998  0F7C  2F7E               	goto	u4811
  9999  0F7D  2F7F               	goto	u4810
 10000  0F7E                     u4811:
 10001  0F7E  2F80               	goto	l3324
 10002  0F7F                     u4810:
 10003  0F7F  2F78               	goto	l3320
 10004  0F80                     l3324:
 10005  0F80  0832               	movf	___flmul@aexp,w
 10006  0F81  1903               	btfsc	3,2
 10007  0F82  2F84               	goto	u4821
 10008  0F83  2F85               	goto	u4820
 10009  0F84                     u4821:
 10010  0F84  2FAD               	goto	l3334
 10011  0F85                     u4820:
 10012  0F85                     l3326:
 10013  0F85  3001               	movlw	1
 10014  0F86  07B4               	addwf	___flmul@prod,f
 10015  0F87  3000               	movlw	0
 10016  0F88  3DB5               	addwfc	___flmul@prod+1,f
 10017  0F89  3000               	movlw	0
 10018  0F8A  3DB6               	addwfc	___flmul@prod+2,f
 10019  0F8B  3000               	movlw	0
 10020  0F8C  3DB7               	addwfc	___flmul@prod+3,f
 10021  0F8D                     l3328:
 10022  0F8D  1C37               	btfss	___flmul@prod+3,0
 10023  0F8E  2F90               	goto	u4831
 10024  0F8F  2F91               	goto	u4830
 10025  0F90                     u4831:
 10026  0F90  2FAD               	goto	l3334
 10027  0F91                     u4830:
 10028  0F91                     l3330:
 10029  0F91  0834               	movf	___flmul@prod,w
 10030  0F92  00A8               	movwf	??___flmul
 10031  0F93  0835               	movf	___flmul@prod+1,w
 10032  0F94  00A9               	movwf	??___flmul+1
 10033  0F95  0836               	movf	___flmul@prod+2,w
 10034  0F96  00AA               	movwf	??___flmul+2
 10035  0F97  0837               	movf	___flmul@prod+3,w
 10036  0F98  00AB               	movwf	??___flmul+3
 10037  0F99  3001               	movlw	1
 10038  0F9A  00AC               	movwf	??___flmul+4
 10039  0F9B                     u4845:
 10040  0F9B  37AB               	asrf	??___flmul+3,f
 10041  0F9C  0CAA               	rrf	??___flmul+2,f
 10042  0F9D  0CA9               	rrf	??___flmul+1,f
 10043  0F9E  0CA8               	rrf	??___flmul,f
 10044  0F9F                     u4840:
 10045  0F9F  0BAC               	decfsz	??___flmul+4,f
 10046  0FA0  2F9B               	goto	u4845
 10047  0FA1  082B               	movf	??___flmul+3,w
 10048  0FA2  00B7               	movwf	___flmul@prod+3
 10049  0FA3  082A               	movf	??___flmul+2,w
 10050  0FA4  00B6               	movwf	___flmul@prod+2
 10051  0FA5  0829               	movf	??___flmul+1,w
 10052  0FA6  00B5               	movwf	___flmul@prod+1
 10053  0FA7  0828               	movf	??___flmul,w
 10054  0FA8  00B4               	movwf	___flmul@prod
 10055  0FA9                     l3332:
 10056  0FA9  3001               	movlw	1
 10057  0FAA  07B8               	addwf	___flmul@temp,f
 10058  0FAB  3000               	movlw	0
 10059  0FAC  3DB9               	addwfc	___flmul@temp+1,f
 10060  0FAD                     l3334:
 10061  0FAD  0839               	movf	___flmul@temp+1,w
 10062  0FAE  3A80               	xorlw	128
 10063  0FAF  00A8               	movwf	??___flmul
 10064  0FB0  3080               	movlw	128
 10065  0FB1  0228               	subwf	??___flmul,w
 10066  0FB2  1D03               	skipz
 10067  0FB3  2FB6               	goto	u4855
 10068  0FB4  30FF               	movlw	255
 10069  0FB5  0238               	subwf	___flmul@temp,w
 10070  0FB6                     u4855:
 10071  0FB6  1C03               	skipc
 10072  0FB7  2FB9               	goto	u4851
 10073  0FB8  2FBA               	goto	u4850
 10074  0FB9                     u4851:
 10075  0FB9  2FC4               	goto	l3338
 10076  0FBA                     u4850:
 10077  0FBA                     l3336:
 10078  0FBA  307F               	movlw	127
 10079  0FBB  0020               	movlb	0	; select bank0
 10080  0FBC  00B7               	movwf	___flmul@prod+3
 10081  0FBD  3080               	movlw	128
 10082  0FBE  00B6               	movwf	___flmul@prod+2
 10083  0FBF  3000               	movlw	0
 10084  0FC0  00B5               	movwf	___flmul@prod+1
 10085  0FC1  3000               	movlw	0
 10086  0FC2  00B4               	movwf	___flmul@prod
 10087  0FC3  2FF3               	goto	l696
 10088  0FC4                     l3338:
 10089  0FC4  0020               	movlb	0	; select bank0
 10090  0FC5  0839               	movf	___flmul@temp+1,w
 10091  0FC6  3A80               	xorlw	128
 10092  0FC7  00A8               	movwf	??___flmul
 10093  0FC8  3080               	movlw	128
 10094  0FC9  0228               	subwf	??___flmul,w
 10095  0FCA  1D03               	skipz
 10096  0FCB  2FCE               	goto	u4865
 10097  0FCC  3001               	movlw	1
 10098  0FCD  0238               	subwf	___flmul@temp,w
 10099  0FCE                     u4865:
 10100  0FCE  1803               	skipnc
 10101  0FCF  2FD1               	goto	u4861
 10102  0FD0  2FD2               	goto	u4860
 10103  0FD1                     u4861:
 10104  0FD1  2FDD               	goto	l3344
 10105  0FD2                     u4860:
 10106  0FD2                     l3340:
 10107  0FD2  3000               	movlw	0
 10108  0FD3  0020               	movlb	0	; select bank0
 10109  0FD4  00B7               	movwf	___flmul@prod+3
 10110  0FD5  3000               	movlw	0
 10111  0FD6  00B6               	movwf	___flmul@prod+2
 10112  0FD7  3000               	movlw	0
 10113  0FD8  00B5               	movwf	___flmul@prod+1
 10114  0FD9  3000               	movlw	0
 10115  0FDA  00B4               	movwf	___flmul@prod
 10116  0FDB                     l3342:
 10117  0FDB  01AD               	clrf	___flmul@sign
 10118  0FDC  2FF3               	goto	l696
 10119  0FDD                     l3344:
 10120  0FDD  0020               	movlb	0	; select bank0
 10121  0FDE  0838               	movf	___flmul@temp,w
 10122  0FDF  00A8               	movwf	??___flmul
 10123  0FE0  0828               	movf	??___flmul,w
 10124  0FE1  00B3               	movwf	___flmul@bexp
 10125  0FE2  30FF               	movlw	255
 10126  0FE3  05B4               	andwf	___flmul@prod,f
 10127  0FE4  30FF               	movlw	255
 10128  0FE5  05B5               	andwf	___flmul@prod+1,f
 10129  0FE6  307F               	movlw	127
 10130  0FE7  05B6               	andwf	___flmul@prod+2,f
 10131  0FE8  3000               	movlw	0
 10132  0FE9  05B7               	andwf	___flmul@prod+3,f
 10133  0FEA                     l3346:
 10134  0FEA  1C33               	btfss	___flmul@bexp,0
 10135  0FEB  2FED               	goto	u4871
 10136  0FEC  2FEE               	goto	u4870
 10137  0FED                     u4871:
 10138  0FED  2FEF               	goto	l3350
 10139  0FEE                     u4870:
 10140  0FEE                     l3348:
 10141  0FEE  17B6               	bsf	___flmul@prod+2,7
 10142  0FEF                     l3350:
 10143  0FEF  3633               	lsrf	___flmul@bexp,w
 10144  0FF0  00A8               	movwf	??___flmul
 10145  0FF1  0828               	movf	??___flmul,w
 10146  0FF2  00B7               	movwf	___flmul@prod+3
 10147  0FF3                     l696:
 10148  0FF3  082D               	movf	___flmul@sign,w
 10149  0FF4  00A8               	movwf	??___flmul
 10150  0FF5  0828               	movf	??___flmul,w
 10151  0FF6  04B7               	iorwf	___flmul@prod+3,f
 10152  0FF7                     l3352:
 10153  0FF7  0837               	movf	___flmul@prod+3,w
 10154  0FF8  00A3               	movwf	?___flmul+3
 10155  0FF9  0836               	movf	___flmul@prod+2,w
 10156  0FFA  00A2               	movwf	?___flmul+2
 10157  0FFB  0835               	movf	___flmul@prod+1,w
 10158  0FFC  00A1               	movwf	?___flmul+1
 10159  0FFD  0834               	movf	___flmul@prod,w
 10160  0FFE  00A0               	movwf	?___flmul
 10161  0FFF                     l684:
 10162  0FFF  0008               	return
 10163  1000                     __end_of___flmul:
 10164                           
 10165                           	psect	text20
 10166  1CF5                     __ptext20:	
 10167 ;; *************** function __Umul8_16 *****************
 10168 ;; Defined at:
 10169 ;;		line 4 in file "C:\Program Files\Microchip\xc8\v2.32\pic\sources\c99\common\Umul8_16.c"
 10170 ;; Parameters:    Size  Location     Type
 10171 ;;  multiplier      1    wreg     unsigned char 
 10172 ;;  multiplicand    1    0[COMMON] unsigned char 
 10173 ;; Auto vars:     Size  Location     Type
 10174 ;;  multiplier      1    8[COMMON] unsigned char 
 10175 ;;  word_mpld       2    6[COMMON] unsigned int 
 10176 ;;  product         2    4[COMMON] unsigned int 
 10177 ;; Return value:  Size  Location     Type
 10178 ;;                  2    0[COMMON] unsigned int 
 10179 ;; Registers used:
 10180 ;;		wreg, status,2, status,0
 10181 ;; Tracked objects:
 10182 ;;		On entry : 0/0
 10183 ;;		On exit  : 0/0
 10184 ;;		Unchanged: 0/0
 10185 ;; Data sizes:     COMMON   BANK0   BANK1   BANK2   BANK3   BANK4   BANK5   BANK6   BANK7   BANK8   BANK9  BANK10  BANK1
      +1  BANK12
 10186 ;;      Params:         2       0       0       0       0       0       0       0       0       0       0       0       
      +0       0
 10187 ;;      Locals:         5       0       0       0       0       0       0       0       0       0       0       0       
      +0       0
 10188 ;;      Temps:          2       0       0       0       0       0       0       0       0       0       0       0       
      +0       0
 10189 ;;      Totals:         9       0       0       0       0       0       0       0       0       0       0       0       
      +0       0
 10190 ;;Total ram usage:        9 bytes
 10191 ;; Hardware stack levels used: 1
 10192 ;; This function calls:
 10193 ;;		Nothing
 10194 ;; This function is called by:
 10195 ;;		___flmul
 10196 ;; This function uses a non-reentrant model
 10197 ;;
 10198                           
 10199                           
 10200                           ;psect for function __Umul8_16
 10201  1CF5                     __Umul8_16:
 10202                           
 10203                           ;incstack = 0
 10204                           ; Regs used in __Umul8_16: [wreg+status,2+status,0]
 10205                           ;__Umul8_16@multiplier stored from wreg
 10206  1CF5  00F8               	movwf	__Umul8_16@multiplier
 10207  1CF6                     l2808:
 10208  1CF6  01F4               	clrf	__Umul8_16@product
 10209  1CF7  01F5               	clrf	__Umul8_16@product+1
 10210  1CF8                     l2810:
 10211  1CF8  0870               	movf	__Umul8_16@multiplicand,w
 10212  1CF9  00F2               	movwf	??__Umul8_16
 10213  1CFA  01F3               	clrf	??__Umul8_16+1
 10214  1CFB  0872               	movf	??__Umul8_16,w
 10215  1CFC  00F6               	movwf	__Umul8_16@word_mpld
 10216  1CFD  0873               	movf	??__Umul8_16+1,w
 10217  1CFE  00F7               	movwf	__Umul8_16@word_mpld+1
 10218  1CFF                     l2812:
 10219  1CFF  1C78               	btfss	__Umul8_16@multiplier,0
 10220  1D00  2D02               	goto	u3671
 10221  1D01  2D03               	goto	u3670
 10222  1D02                     u3671:
 10223  1D02  2D07               	goto	l703
 10224  1D03                     u3670:
 10225  1D03                     l2814:
 10226  1D03  0876               	movf	__Umul8_16@word_mpld,w
 10227  1D04  07F4               	addwf	__Umul8_16@product,f
 10228  1D05  0877               	movf	__Umul8_16@word_mpld+1,w
 10229  1D06  3DF5               	addwfc	__Umul8_16@product+1,f
 10230  1D07                     l703:
 10231  1D07  3001               	movlw	1
 10232  1D08                     u3685:
 10233  1D08  35F6               	lslf	__Umul8_16@word_mpld,f
 10234  1D09  0DF7               	rlf	__Umul8_16@word_mpld+1,f
 10235  1D0A  0B89               	decfsz	9,f
 10236  1D0B  2D08               	goto	u3685
 10237  1D0C  1003               	clrc
 10238  1D0D  0CF8               	rrf	__Umul8_16@multiplier,f
 10239  1D0E                     l2816:
 10240  1D0E  0878               	movf	__Umul8_16@multiplier,w
 10241  1D0F  1D03               	btfss	3,2
 10242  1D10  2D12               	goto	u3691
 10243  1D11  2D13               	goto	u3690
 10244  1D12                     u3691:
 10245  1D12  2CFF               	goto	l2812
 10246  1D13                     u3690:
 10247  1D13                     l2818:
 10248  1D13  0875               	movf	__Umul8_16@product+1,w
 10249  1D14  00F1               	movwf	?__Umul8_16+1
 10250  1D15  0874               	movf	__Umul8_16@product,w
 10251  1D16  00F0               	movwf	?__Umul8_16
 10252  1D17                     l705:
 10253  1D17  0008               	return
 10254  1D18                     __end_of__Umul8_16:
 10255                           
 10256                           	psect	text21
 10257  001D                     __ptext21:	
 10258 ;; *************** function ___flge *****************
 10259 ;; Defined at:
 10260 ;;		line 4 in file "C:\Program Files\Microchip\xc8\v2.32\pic\sources\c99\common\flge.c"
 10261 ;; Parameters:    Size  Location     Type
 10262 ;;  ff1             4   26[BANK0 ] unsigned int 
 10263 ;;  ff2             4   30[BANK0 ] unsigned int 
 10264 ;; Auto vars:     Size  Location     Type
 10265 ;;		None
 10266 ;; Return value:  Size  Location     Type
 10267 ;;		None               void
 10268 ;; Registers used:
 10269 ;;		wreg, status,2, status,0
 10270 ;; Tracked objects:
 10271 ;;		On entry : 0/0
 10272 ;;		On exit  : 0/0
 10273 ;;		Unchanged: 0/0
 10274 ;; Data sizes:     COMMON   BANK0   BANK1   BANK2   BANK3   BANK4   BANK5   BANK6   BANK7   BANK8   BANK9  BANK10  BANK1
      +1  BANK12
 10275 ;;      Params:         0       8       0       0       0       0       0       0       0       0       0       0       
      +0       0
 10276 ;;      Locals:         0       0       0       0       0       0       0       0       0       0       0       0       
      +0       0
 10277 ;;      Temps:          0       4       0       0       0       0       0       0       0       0       0       0       
      +0       0
 10278 ;;      Totals:         0      12       0       0       0       0       0       0       0       0       0       0       
      +0       0
 10279 ;;Total ram usage:       12 bytes
 10280 ;; Hardware stack levels used: 1
 10281 ;; This function calls:
 10282 ;;		Nothing
 10283 ;; This function is called by:
 10284 ;;		_efgtoa
 10285 ;; This function uses a non-reentrant model
 10286 ;;
 10287                           
 10288                           
 10289                           ;psect for function ___flge
 10290  001D                     ___flge:
 10291  001D                     l3006:	
 10292                           ;incstack = 0
 10293                           ; Regs used in ___flge: [wreg+status,2+status,0]
 10294                           
 10295  001D  3000               	movlw	0
 10296  001E  0020               	movlb	0	; select bank0
 10297  001F  053A               	andwf	___flge@ff1,w
 10298  0020  00C2               	movwf	??___flge
 10299  0021  3000               	movlw	0
 10300  0022  053B               	andwf	___flge@ff1+1,w
 10301  0023  00C3               	movwf	??___flge+1
 10302  0024  3080               	movlw	128
 10303  0025  053C               	andwf	___flge@ff1+2,w
 10304  0026  00C4               	movwf	??___flge+2
 10305  0027  307F               	movlw	127
 10306  0028  053D               	andwf	___flge@ff1+3,w
 10307  0029  00C5               	movwf	??___flge+3
 10308  002A  0845               	movf	??___flge+3,w
 10309  002B  0444               	iorwf	??___flge+2,w
 10310  002C  0443               	iorwf	??___flge+1,w
 10311  002D  0442               	iorwf	??___flge,w
 10312  002E  1D03               	skipz
 10313  002F  2831               	goto	u4171
 10314  0030  2832               	goto	u4170
 10315  0031                     u4171:
 10316  0031  283A               	goto	l465
 10317  0032                     u4170:
 10318  0032                     l3008:
 10319  0032  3000               	movlw	0
 10320  0033  00BD               	movwf	___flge@ff1+3
 10321  0034  3000               	movlw	0
 10322  0035  00BC               	movwf	___flge@ff1+2
 10323  0036  3000               	movlw	0
 10324  0037  00BB               	movwf	___flge@ff1+1
 10325  0038  3000               	movlw	0
 10326  0039  00BA               	movwf	___flge@ff1
 10327  003A                     l465:
 10328  003A  3000               	movlw	0
 10329  003B  053E               	andwf	___flge@ff2,w
 10330  003C  00C2               	movwf	??___flge
 10331  003D  3000               	movlw	0
 10332  003E  053F               	andwf	___flge@ff2+1,w
 10333  003F  00C3               	movwf	??___flge+1
 10334  0040  3080               	movlw	128
 10335  0041  0540               	andwf	___flge@ff2+2,w
 10336  0042  00C4               	movwf	??___flge+2
 10337  0043  307F               	movlw	127
 10338  0044  0541               	andwf	___flge@ff2+3,w
 10339  0045  00C5               	movwf	??___flge+3
 10340  0046  0845               	movf	??___flge+3,w
 10341  0047  0444               	iorwf	??___flge+2,w
 10342  0048  0443               	iorwf	??___flge+1,w
 10343  0049  0442               	iorwf	??___flge,w
 10344  004A  1D03               	skipz
 10345  004B  284D               	goto	u4181
 10346  004C  284E               	goto	u4180
 10347  004D                     u4181:
 10348  004D  2856               	goto	l3012
 10349  004E                     u4180:
 10350  004E                     l3010:
 10351  004E  3000               	movlw	0
 10352  004F  00C1               	movwf	___flge@ff2+3
 10353  0050  3000               	movlw	0
 10354  0051  00C0               	movwf	___flge@ff2+2
 10355  0052  3000               	movlw	0
 10356  0053  00BF               	movwf	___flge@ff2+1
 10357  0054  3000               	movlw	0
 10358  0055  00BE               	movwf	___flge@ff2
 10359  0056                     l3012:
 10360  0056  1FBD               	btfss	___flge@ff1+3,7
 10361  0057  2859               	goto	u4191
 10362  0058  285A               	goto	u4190
 10363  0059                     u4191:
 10364  0059  2872               	goto	l3016
 10365  005A                     u4190:
 10366  005A                     l3014:
 10367  005A  3000               	movlw	0
 10368  005B  00C2               	movwf	??___flge
 10369  005C  3000               	movlw	0
 10370  005D  00C3               	movwf	??___flge+1
 10371  005E  3000               	movlw	0
 10372  005F  00C4               	movwf	??___flge+2
 10373  0060  3080               	movlw	128
 10374  0061  00C5               	movwf	??___flge+3
 10375  0062  083A               	movf	___flge@ff1,w
 10376  0063  02C2               	subwf	??___flge,f
 10377  0064  083B               	movf	___flge@ff1+1,w
 10378  0065  3BC3               	subwfb	??___flge+1,f
 10379  0066  083C               	movf	___flge@ff1+2,w
 10380  0067  3BC4               	subwfb	??___flge+2,f
 10381  0068  083D               	movf	___flge@ff1+3,w
 10382  0069  3BC5               	subwfb	??___flge+3,f
 10383  006A  0845               	movf	??___flge+3,w
 10384  006B  00BD               	movwf	___flge@ff1+3
 10385  006C  0844               	movf	??___flge+2,w
 10386  006D  00BC               	movwf	___flge@ff1+2
 10387  006E  0843               	movf	??___flge+1,w
 10388  006F  00BB               	movwf	___flge@ff1+1
 10389  0070  0842               	movf	??___flge,w
 10390  0071  00BA               	movwf	___flge@ff1
 10391  0072                     l3016:
 10392  0072  1FC1               	btfss	___flge@ff2+3,7
 10393  0073  2875               	goto	u4201
 10394  0074  2876               	goto	u4200
 10395  0075                     u4201:
 10396  0075  288E               	goto	l468
 10397  0076                     u4200:
 10398  0076                     l3018:
 10399  0076  3000               	movlw	0
 10400  0077  00C2               	movwf	??___flge
 10401  0078  3000               	movlw	0
 10402  0079  00C3               	movwf	??___flge+1
 10403  007A  3000               	movlw	0
 10404  007B  00C4               	movwf	??___flge+2
 10405  007C  3080               	movlw	128
 10406  007D  00C5               	movwf	??___flge+3
 10407  007E  083E               	movf	___flge@ff2,w
 10408  007F  02C2               	subwf	??___flge,f
 10409  0080  083F               	movf	___flge@ff2+1,w
 10410  0081  3BC3               	subwfb	??___flge+1,f
 10411  0082  0840               	movf	___flge@ff2+2,w
 10412  0083  3BC4               	subwfb	??___flge+2,f
 10413  0084  0841               	movf	___flge@ff2+3,w
 10414  0085  3BC5               	subwfb	??___flge+3,f
 10415  0086  0845               	movf	??___flge+3,w
 10416  0087  00C1               	movwf	___flge@ff2+3
 10417  0088  0844               	movf	??___flge+2,w
 10418  0089  00C0               	movwf	___flge@ff2+2
 10419  008A  0843               	movf	??___flge+1,w
 10420  008B  00BF               	movwf	___flge@ff2+1
 10421  008C  0842               	movf	??___flge,w
 10422  008D  00BE               	movwf	___flge@ff2
 10423  008E                     l468:
 10424  008E  3080               	movlw	128
 10425  008F  06BD               	xorwf	___flge@ff1+3,f
 10426  0090  3080               	movlw	128
 10427  0091  06C1               	xorwf	___flge@ff2+3,f
 10428  0092  0841               	movf	___flge@ff2+3,w
 10429  0093  023D               	subwf	___flge@ff1+3,w
 10430  0094  1D03               	skipz
 10431  0095  28A0               	goto	u4215
 10432  0096  0840               	movf	___flge@ff2+2,w
 10433  0097  023C               	subwf	___flge@ff1+2,w
 10434  0098  1D03               	skipz
 10435  0099  28A0               	goto	u4215
 10436  009A  083F               	movf	___flge@ff2+1,w
 10437  009B  023B               	subwf	___flge@ff1+1,w
 10438  009C  1D03               	skipz
 10439  009D  28A0               	goto	u4215
 10440  009E  083E               	movf	___flge@ff2,w
 10441  009F  023A               	subwf	___flge@ff1,w
 10442  00A0                     u4215:
 10443  00A0  1803               	skipnc
 10444  00A1  28A3               	goto	u4211
 10445  00A2  28A4               	goto	u4210
 10446  00A3                     u4211:
 10447  00A3  28A6               	goto	l3022
 10448  00A4                     u4210:
 10449  00A4                     l3020:
 10450  00A4  1003               	clrc
 10451  00A5  28A7               	goto	l473
 10452  00A6                     l3022:
 10453  00A6  1403               	setc
 10454  00A7                     l473:
 10455  00A7  0008               	return
 10456  00A8                     __end_of___flge:
 10457                           
 10458                           	psect	text22
 10459  1E04                     __ptext22:	
 10460 ;; *************** function ___fleq *****************
 10461 ;; Defined at:
 10462 ;;		line 4 in file "C:\Program Files\Microchip\xc8\v2.32\pic\sources\c99\common\fleq.c"
 10463 ;; Parameters:    Size  Location     Type
 10464 ;;  ff1             4    0[COMMON] unsigned int 
 10465 ;;  ff2             4    4[COMMON] unsigned int 
 10466 ;; Auto vars:     Size  Location     Type
 10467 ;;		None
 10468 ;; Return value:  Size  Location     Type
 10469 ;;		None               void
 10470 ;; Registers used:
 10471 ;;		wreg, status,2, status,0
 10472 ;; Tracked objects:
 10473 ;;		On entry : 0/0
 10474 ;;		On exit  : 0/0
 10475 ;;		Unchanged: 0/0
 10476 ;; Data sizes:     COMMON   BANK0   BANK1   BANK2   BANK3   BANK4   BANK5   BANK6   BANK7   BANK8   BANK9  BANK10  BANK1
      +1  BANK12
 10477 ;;      Params:         8       0       0       0       0       0       0       0       0       0       0       0       
      +0       0
 10478 ;;      Locals:         0       0       0       0       0       0       0       0       0       0       0       0       
      +0       0
 10479 ;;      Temps:          4       0       0       0       0       0       0       0       0       0       0       0       
      +0       0
 10480 ;;      Totals:        12       0       0       0       0       0       0       0       0       0       0       0       
      +0       0
 10481 ;;Total ram usage:       12 bytes
 10482 ;; Hardware stack levels used: 1
 10483 ;; This function calls:
 10484 ;;		Nothing
 10485 ;; This function is called by:
 10486 ;;		_efgtoa
 10487 ;; This function uses a non-reentrant model
 10488 ;;
 10489                           
 10490                           
 10491                           ;psect for function ___fleq
 10492  1E04                     ___fleq:
 10493  1E04                     l2994:	
 10494                           ;incstack = 0
 10495                           ; Regs used in ___fleq: [wreg+status,2+status,0]
 10496                           
 10497  1E04  3000               	movlw	0
 10498  1E05  0570               	andwf	___fleq@ff1,w
 10499  1E06  00F8               	movwf	??___fleq
 10500  1E07  3000               	movlw	0
 10501  1E08  0571               	andwf	___fleq@ff1+1,w
 10502  1E09  00F9               	movwf	??___fleq+1
 10503  1E0A  3080               	movlw	128
 10504  1E0B  0572               	andwf	___fleq@ff1+2,w
 10505  1E0C  00FA               	movwf	??___fleq+2
 10506  1E0D  307F               	movlw	127
 10507  1E0E  0573               	andwf	___fleq@ff1+3,w
 10508  1E0F  00FB               	movwf	??___fleq+3
 10509  1E10  087B               	movf	??___fleq+3,w
 10510  1E11  047A               	iorwf	??___fleq+2,w
 10511  1E12  0479               	iorwf	??___fleq+1,w
 10512  1E13  0478               	iorwf	??___fleq,w
 10513  1E14  1D03               	skipz
 10514  1E15  2E17               	goto	u4141
 10515  1E16  2E18               	goto	u4140
 10516  1E17                     u4141:
 10517  1E17  2E20               	goto	l456
 10518  1E18                     u4140:
 10519  1E18                     l2996:
 10520  1E18  3000               	movlw	0
 10521  1E19  00F3               	movwf	___fleq@ff1+3
 10522  1E1A  3000               	movlw	0
 10523  1E1B  00F2               	movwf	___fleq@ff1+2
 10524  1E1C  3000               	movlw	0
 10525  1E1D  00F1               	movwf	___fleq@ff1+1
 10526  1E1E  3000               	movlw	0
 10527  1E1F  00F0               	movwf	___fleq@ff1
 10528  1E20                     l456:
 10529  1E20  3000               	movlw	0
 10530  1E21  0574               	andwf	___fleq@ff2,w
 10531  1E22  00F8               	movwf	??___fleq
 10532  1E23  3000               	movlw	0
 10533  1E24  0575               	andwf	___fleq@ff2+1,w
 10534  1E25  00F9               	movwf	??___fleq+1
 10535  1E26  3080               	movlw	128
 10536  1E27  0576               	andwf	___fleq@ff2+2,w
 10537  1E28  00FA               	movwf	??___fleq+2
 10538  1E29  307F               	movlw	127
 10539  1E2A  0577               	andwf	___fleq@ff2+3,w
 10540  1E2B  00FB               	movwf	??___fleq+3
 10541  1E2C  087B               	movf	??___fleq+3,w
 10542  1E2D  047A               	iorwf	??___fleq+2,w
 10543  1E2E  0479               	iorwf	??___fleq+1,w
 10544  1E2F  0478               	iorwf	??___fleq,w
 10545  1E30  1D03               	skipz
 10546  1E31  2E33               	goto	u4151
 10547  1E32  2E34               	goto	u4150
 10548  1E33                     u4151:
 10549  1E33  2E3C               	goto	l457
 10550  1E34                     u4150:
 10551  1E34                     l2998:
 10552  1E34  3000               	movlw	0
 10553  1E35  00F7               	movwf	___fleq@ff2+3
 10554  1E36  3000               	movlw	0
 10555  1E37  00F6               	movwf	___fleq@ff2+2
 10556  1E38  3000               	movlw	0
 10557  1E39  00F5               	movwf	___fleq@ff2+1
 10558  1E3A  3000               	movlw	0
 10559  1E3B  00F4               	movwf	___fleq@ff2
 10560  1E3C                     l457:
 10561  1E3C  0877               	movf	___fleq@ff2+3,w
 10562  1E3D  0673               	xorwf	___fleq@ff1+3,w
 10563  1E3E  1D03               	skipz
 10564  1E3F  2E4A               	goto	u4165
 10565  1E40  0876               	movf	___fleq@ff2+2,w
 10566  1E41  0672               	xorwf	___fleq@ff1+2,w
 10567  1E42  1D03               	skipz
 10568  1E43  2E4A               	goto	u4165
 10569  1E44  0875               	movf	___fleq@ff2+1,w
 10570  1E45  0671               	xorwf	___fleq@ff1+1,w
 10571  1E46  1D03               	skipz
 10572  1E47  2E4A               	goto	u4165
 10573  1E48  0874               	movf	___fleq@ff2,w
 10574  1E49  0670               	xorwf	___fleq@ff1,w
 10575  1E4A                     u4165:
 10576  1E4A  1903               	skipnz
 10577  1E4B  2E4D               	goto	u4161
 10578  1E4C  2E4E               	goto	u4160
 10579  1E4D                     u4161:
 10580  1E4D  2E50               	goto	l3002
 10581  1E4E                     u4160:
 10582  1E4E                     l3000:
 10583  1E4E  1003               	clrc
 10584  1E4F  2E51               	goto	l462
 10585  1E50                     l3002:
 10586  1E50  1403               	setc
 10587  1E51                     l462:
 10588  1E51  0008               	return
 10589  1E52                     __end_of___fleq:
 10590                           
 10591                           	psect	text23
 10592  164C                     __ptext23:	
 10593 ;; *************** function ___fldiv *****************
 10594 ;; Defined at:
 10595 ;;		line 8 in file "C:\Program Files\Microchip\xc8\v2.32\pic\sources\c99\common\sprcdiv.c"
 10596 ;; Parameters:    Size  Location     Type
 10597 ;;  a               4    0[COMMON] unsigned int 
 10598 ;;  b               4    4[COMMON] unsigned int 
 10599 ;; Auto vars:     Size  Location     Type
 10600 ;;  grs             4    7[BANK0 ] unsigned long 
 10601 ;;  rem             4    0[BANK0 ] unsigned long 
 10602 ;;  new_exp         2    5[BANK0 ] int 
 10603 ;;  aexp            1   12[BANK0 ] unsigned char 
 10604 ;;  bexp            1   11[BANK0 ] unsigned char 
 10605 ;;  sign            1    4[BANK0 ] unsigned char 
 10606 ;; Return value:  Size  Location     Type
 10607 ;;                  4    0[COMMON] unsigned char 
 10608 ;; Registers used:
 10609 ;;		wreg, status,2, status,0
 10610 ;; Tracked objects:
 10611 ;;		On entry : 0/0
 10612 ;;		On exit  : 0/0
 10613 ;;		Unchanged: 0/0
 10614 ;; Data sizes:     COMMON   BANK0   BANK1   BANK2   BANK3   BANK4   BANK5   BANK6   BANK7   BANK8   BANK9  BANK10  BANK1
      +1  BANK12
 10615 ;;      Params:         8       0       0       0       0       0       0       0       0       0       0       0       
      +0       0
 10616 ;;      Locals:         0      13       0       0       0       0       0       0       0       0       0       0       
      +0       0
 10617 ;;      Temps:          5       0       0       0       0       0       0       0       0       0       0       0       
      +0       0
 10618 ;;      Totals:        13      13       0       0       0       0       0       0       0       0       0       0       
      +0       0
 10619 ;;Total ram usage:       26 bytes
 10620 ;; Hardware stack levels used: 1
 10621 ;; This function calls:
 10622 ;;		Nothing
 10623 ;; This function is called by:
 10624 ;;		_main
 10625 ;;		_efgtoa
 10626 ;; This function uses a non-reentrant model
 10627 ;;
 10628                           
 10629                           
 10630                           ;psect for function ___fldiv
 10631  164C                     ___fldiv:
 10632  164C                     l3076:	
 10633                           ;incstack = 0
 10634                           ; Regs used in ___fldiv: [wreg+status,2+status,0]
 10635                           
 10636  164C  0877               	movf	___fldiv@b+3,w
 10637  164D  3980               	andlw	128
 10638  164E  00F8               	movwf	??___fldiv
 10639  164F  0878               	movf	??___fldiv,w
 10640  1650  0020               	movlb	0	; select bank0
 10641  1651  00A4               	movwf	___fldiv@sign
 10642  1652                     l3078:
 10643  1652  3577               	lslf	___fldiv@b+3,w
 10644  1653  00F8               	movwf	??___fldiv
 10645  1654  0878               	movf	??___fldiv,w
 10646  1655  00AB               	movwf	___fldiv@bexp
 10647  1656                     l3080:
 10648  1656  1FF6               	btfss	___fldiv@b+2,7
 10649  1657  2E59               	goto	u4331
 10650  1658  2E5A               	goto	u4330
 10651  1659                     u4331:
 10652  1659  2E5B               	goto	l3084
 10653  165A                     u4330:
 10654  165A                     l3082:
 10655  165A  142B               	bsf	___fldiv@bexp,0
 10656  165B                     l3084:
 10657  165B  082B               	movf	___fldiv@bexp,w
 10658  165C  1903               	btfsc	3,2
 10659  165D  2E5F               	goto	u4341
 10660  165E  2E60               	goto	u4340
 10661  165F                     u4341:
 10662  165F  2E70               	goto	l3094
 10663  1660                     u4340:
 10664  1660                     l3086:
 10665  1660  0A2B               	incf	___fldiv@bexp,w
 10666  1661  1D03               	btfss	3,2
 10667  1662  2E64               	goto	u4351
 10668  1663  2E65               	goto	u4350
 10669  1664                     u4351:
 10670  1664  2E6D               	goto	l3090
 10671  1665                     u4350:
 10672  1665                     l3088:
 10673  1665  3000               	movlw	0
 10674  1666  00F7               	movwf	___fldiv@b+3
 10675  1667  3000               	movlw	0
 10676  1668  00F6               	movwf	___fldiv@b+2
 10677  1669  3000               	movlw	0
 10678  166A  00F5               	movwf	___fldiv@b+1
 10679  166B  3000               	movlw	0
 10680  166C  00F4               	movwf	___fldiv@b
 10681  166D                     l3090:
 10682  166D  17F6               	bsf	___fldiv@b+2,7
 10683  166E                     l3092:
 10684  166E  01F7               	clrf	___fldiv@b+3
 10685  166F  2E78               	goto	l3096
 10686  1670                     l3094:
 10687  1670  3000               	movlw	0
 10688  1671  00F7               	movwf	___fldiv@b+3
 10689  1672  3000               	movlw	0
 10690  1673  00F6               	movwf	___fldiv@b+2
 10691  1674  3000               	movlw	0
 10692  1675  00F5               	movwf	___fldiv@b+1
 10693  1676  3000               	movlw	0
 10694  1677  00F4               	movwf	___fldiv@b
 10695  1678                     l3096:
 10696  1678  0873               	movf	___fldiv@a+3,w
 10697  1679  3980               	andlw	128
 10698  167A  00F8               	movwf	??___fldiv
 10699  167B  0878               	movf	??___fldiv,w
 10700  167C  06A4               	xorwf	___fldiv@sign,f
 10701  167D                     l3098:
 10702  167D  3573               	lslf	___fldiv@a+3,w
 10703  167E  00F8               	movwf	??___fldiv
 10704  167F  0878               	movf	??___fldiv,w
 10705  1680  00AC               	movwf	___fldiv@aexp
 10706  1681                     l3100:
 10707  1681  1FF2               	btfss	___fldiv@a+2,7
 10708  1682  2E84               	goto	u4361
 10709  1683  2E85               	goto	u4360
 10710  1684                     u4361:
 10711  1684  2E86               	goto	l3104
 10712  1685                     u4360:
 10713  1685                     l3102:
 10714  1685  142C               	bsf	___fldiv@aexp,0
 10715  1686                     l3104:
 10716  1686  082C               	movf	___fldiv@aexp,w
 10717  1687  1903               	btfsc	3,2
 10718  1688  2E8A               	goto	u4371
 10719  1689  2E8B               	goto	u4370
 10720  168A                     u4371:
 10721  168A  2E9B               	goto	l3114
 10722  168B                     u4370:
 10723  168B                     l3106:
 10724  168B  0A2C               	incf	___fldiv@aexp,w
 10725  168C  1D03               	btfss	3,2
 10726  168D  2E8F               	goto	u4381
 10727  168E  2E90               	goto	u4380
 10728  168F                     u4381:
 10729  168F  2E98               	goto	l3110
 10730  1690                     u4380:
 10731  1690                     l3108:
 10732  1690  3000               	movlw	0
 10733  1691  00F3               	movwf	___fldiv@a+3
 10734  1692  3000               	movlw	0
 10735  1693  00F2               	movwf	___fldiv@a+2
 10736  1694  3000               	movlw	0
 10737  1695  00F1               	movwf	___fldiv@a+1
 10738  1696  3000               	movlw	0
 10739  1697  00F0               	movwf	___fldiv@a
 10740  1698                     l3110:
 10741  1698  17F2               	bsf	___fldiv@a+2,7
 10742  1699                     l3112:
 10743  1699  01F3               	clrf	___fldiv@a+3
 10744  169A  2EA3               	goto	l644
 10745  169B                     l3114:
 10746  169B  3000               	movlw	0
 10747  169C  00F3               	movwf	___fldiv@a+3
 10748  169D  3000               	movlw	0
 10749  169E  00F2               	movwf	___fldiv@a+2
 10750  169F  3000               	movlw	0
 10751  16A0  00F1               	movwf	___fldiv@a+1
 10752  16A1  3000               	movlw	0
 10753  16A2  00F0               	movwf	___fldiv@a
 10754  16A3                     l644:
 10755  16A3  0873               	movf	___fldiv@a+3,w
 10756  16A4  0472               	iorwf	___fldiv@a+2,w
 10757  16A5  0471               	iorwf	___fldiv@a+1,w
 10758  16A6  0470               	iorwf	___fldiv@a,w
 10759  16A7  1D03               	skipz
 10760  16A8  2EAA               	goto	u4391
 10761  16A9  2EAB               	goto	u4390
 10762  16AA                     u4391:
 10763  16AA  2EC4               	goto	l3124
 10764  16AB                     u4390:
 10765  16AB                     l3116:
 10766  16AB  3000               	movlw	0
 10767  16AC  00F7               	movwf	___fldiv@b+3
 10768  16AD  3000               	movlw	0
 10769  16AE  00F6               	movwf	___fldiv@b+2
 10770  16AF  3000               	movlw	0
 10771  16B0  00F5               	movwf	___fldiv@b+1
 10772  16B1  3000               	movlw	0
 10773  16B2  00F4               	movwf	___fldiv@b
 10774  16B3  3080               	movlw	128
 10775  16B4  04F6               	iorwf	___fldiv@b+2,f
 10776  16B5  307F               	movlw	127
 10777  16B6  04F7               	iorwf	___fldiv@b+3,f
 10778  16B7                     l3118:
 10779  16B7  0824               	movf	___fldiv@sign,w
 10780  16B8  00F8               	movwf	??___fldiv
 10781  16B9  0878               	movf	??___fldiv,w
 10782  16BA  04F7               	iorwf	___fldiv@b+3,f
 10783  16BB                     l3120:
 10784  16BB  0877               	movf	___fldiv@b+3,w
 10785  16BC  00F3               	movwf	?___fldiv+3
 10786  16BD  0876               	movf	___fldiv@b+2,w
 10787  16BE  00F2               	movwf	?___fldiv+2
 10788  16BF  0875               	movf	___fldiv@b+1,w
 10789  16C0  00F1               	movwf	?___fldiv+1
 10790  16C1  0874               	movf	___fldiv@b,w
 10791  16C2  00F0               	movwf	?___fldiv
 10792  16C3  2FFF               	goto	l646
 10793  16C4                     l3124:
 10794  16C4  082B               	movf	___fldiv@bexp,w
 10795  16C5  1D03               	btfss	3,2
 10796  16C6  2EC8               	goto	u4401
 10797  16C7  2EC9               	goto	u4400
 10798  16C8                     u4401:
 10799  16C8  2ED2               	goto	l3130
 10800  16C9                     u4400:
 10801  16C9                     l3126:
 10802  16C9  3000               	movlw	0
 10803  16CA  00F3               	movwf	?___fldiv+3
 10804  16CB  3000               	movlw	0
 10805  16CC  00F2               	movwf	?___fldiv+2
 10806  16CD  3000               	movlw	0
 10807  16CE  00F1               	movwf	?___fldiv+1
 10808  16CF  3000               	movlw	0
 10809  16D0  00F0               	movwf	?___fldiv
 10810  16D1  2FFF               	goto	l646
 10811  16D2                     l3130:
 10812  16D2  082B               	movf	___fldiv@bexp,w
 10813  16D3  00F8               	movwf	??___fldiv
 10814  16D4  01F9               	clrf	??___fldiv+1
 10815  16D5  0879               	movf	??___fldiv+1,w
 10816  16D6  00FB               	movwf	??___fldiv+3
 10817  16D7  082C               	movf	___fldiv@aexp,w
 10818  16D8  0278               	subwf	??___fldiv,w
 10819  16D9  00FA               	movwf	??___fldiv+2
 10820  16DA  1C03               	skipc
 10821  16DB  03FB               	decf	??___fldiv+3,f
 10822  16DC  087A               	movf	??___fldiv+2,w
 10823  16DD  3E7F               	addlw	127
 10824  16DE  00A5               	movwf	___fldiv@new_exp
 10825  16DF  3000               	movlw	0
 10826  16E0  3D7B               	addwfc	??___fldiv+3,w
 10827  16E1  00A6               	movwf	___fldiv@new_exp+1
 10828  16E2                     l3132:
 10829  16E2  0877               	movf	___fldiv@b+3,w
 10830  16E3  00A3               	movwf	___fldiv@rem+3
 10831  16E4  0876               	movf	___fldiv@b+2,w
 10832  16E5  00A2               	movwf	___fldiv@rem+2
 10833  16E6  0875               	movf	___fldiv@b+1,w
 10834  16E7  00A1               	movwf	___fldiv@rem+1
 10835  16E8  0874               	movf	___fldiv@b,w
 10836  16E9  00A0               	movwf	___fldiv@rem
 10837  16EA                     l3134:
 10838  16EA  3000               	movlw	0
 10839  16EB  00F7               	movwf	___fldiv@b+3
 10840  16EC  3000               	movlw	0
 10841  16ED  00F6               	movwf	___fldiv@b+2
 10842  16EE  3000               	movlw	0
 10843  16EF  00F5               	movwf	___fldiv@b+1
 10844  16F0  3000               	movlw	0
 10845  16F1  00F4               	movwf	___fldiv@b
 10846  16F2                     l3136:
 10847  16F2  3000               	movlw	0
 10848  16F3  00AA               	movwf	___fldiv@grs+3
 10849  16F4  3000               	movlw	0
 10850  16F5  00A9               	movwf	___fldiv@grs+2
 10851  16F6  3000               	movlw	0
 10852  16F7  00A8               	movwf	___fldiv@grs+1
 10853  16F8  3000               	movlw	0
 10854  16F9  00A7               	movwf	___fldiv@grs
 10855  16FA                     l3138:
 10856  16FA  01AC               	clrf	___fldiv@aexp
 10857  16FB  2F3A               	goto	l3158
 10858  16FC                     l3140:
 10859  16FC  082C               	movf	___fldiv@aexp,w
 10860  16FD  1903               	btfsc	3,2
 10861  16FE  2F00               	goto	u4411
 10862  16FF  2F01               	goto	u4410
 10863  1700                     u4411:
 10864  1700  2F1B               	goto	l3150
 10865  1701                     u4410:
 10866  1701                     l3142:
 10867  1701  3001               	movlw	1
 10868  1702                     u4425:
 10869  1702  35A0               	lslf	___fldiv@rem,f
 10870  1703  0DA1               	rlf	___fldiv@rem+1,f
 10871  1704  0DA2               	rlf	___fldiv@rem+2,f
 10872  1705  0DA3               	rlf	___fldiv@rem+3,f
 10873  1706  0B89               	decfsz	9,f
 10874  1707  2F02               	goto	u4425
 10875  1708  3001               	movlw	1
 10876  1709                     u4435:
 10877  1709  35F4               	lslf	___fldiv@b,f
 10878  170A  0DF5               	rlf	___fldiv@b+1,f
 10879  170B  0DF6               	rlf	___fldiv@b+2,f
 10880  170C  0DF7               	rlf	___fldiv@b+3,f
 10881  170D  0B89               	decfsz	9,f
 10882  170E  2F09               	goto	u4435
 10883  170F                     l3144:
 10884  170F  1FAA               	btfss	___fldiv@grs+3,7
 10885  1710  2F12               	goto	u4441
 10886  1711  2F13               	goto	u4440
 10887  1712                     u4441:
 10888  1712  2F14               	goto	l3148
 10889  1713                     u4440:
 10890  1713                     l3146:
 10891  1713  1474               	bsf	___fldiv@b,0
 10892  1714                     l3148:
 10893  1714  3001               	movlw	1
 10894  1715                     u4455:
 10895  1715  35A7               	lslf	___fldiv@grs,f
 10896  1716  0DA8               	rlf	___fldiv@grs+1,f
 10897  1717  0DA9               	rlf	___fldiv@grs+2,f
 10898  1718  0DAA               	rlf	___fldiv@grs+3,f
 10899  1719  0B89               	decfsz	9,f
 10900  171A  2F15               	goto	u4455
 10901  171B                     l3150:
 10902  171B  0873               	movf	___fldiv@a+3,w
 10903  171C  0223               	subwf	___fldiv@rem+3,w
 10904  171D  1D03               	skipz
 10905  171E  2F29               	goto	u4465
 10906  171F  0872               	movf	___fldiv@a+2,w
 10907  1720  0222               	subwf	___fldiv@rem+2,w
 10908  1721  1D03               	skipz
 10909  1722  2F29               	goto	u4465
 10910  1723  0871               	movf	___fldiv@a+1,w
 10911  1724  0221               	subwf	___fldiv@rem+1,w
 10912  1725  1D03               	skipz
 10913  1726  2F29               	goto	u4465
 10914  1727  0870               	movf	___fldiv@a,w
 10915  1728  0220               	subwf	___fldiv@rem,w
 10916  1729                     u4465:
 10917  1729  1C03               	skipc
 10918  172A  2F2C               	goto	u4461
 10919  172B  2F2D               	goto	u4460
 10920  172C                     u4461:
 10921  172C  2F36               	goto	l3156
 10922  172D                     u4460:
 10923  172D                     l3152:
 10924  172D  172A               	bsf	___fldiv@grs+3,6
 10925  172E                     l3154:
 10926  172E  0870               	movf	___fldiv@a,w
 10927  172F  02A0               	subwf	___fldiv@rem,f
 10928  1730  0871               	movf	___fldiv@a+1,w
 10929  1731  3BA1               	subwfb	___fldiv@rem+1,f
 10930  1732  0872               	movf	___fldiv@a+2,w
 10931  1733  3BA2               	subwfb	___fldiv@rem+2,f
 10932  1734  0873               	movf	___fldiv@a+3,w
 10933  1735  3BA3               	subwfb	___fldiv@rem+3,f
 10934  1736                     l3156:
 10935  1736  3001               	movlw	1
 10936  1737  00F8               	movwf	??___fldiv
 10937  1738  0878               	movf	??___fldiv,w
 10938  1739  07AC               	addwf	___fldiv@aexp,f
 10939  173A                     l3158:
 10940  173A  301A               	movlw	26
 10941  173B  022C               	subwf	___fldiv@aexp,w
 10942  173C  1C03               	skipc
 10943  173D  2F3F               	goto	u4471
 10944  173E  2F40               	goto	u4470
 10945  173F                     u4471:
 10946  173F  2EFC               	goto	l3140
 10947  1740                     u4470:
 10948  1740                     l3160:
 10949  1740  0823               	movf	___fldiv@rem+3,w
 10950  1741  0422               	iorwf	___fldiv@rem+2,w
 10951  1742  0421               	iorwf	___fldiv@rem+1,w
 10952  1743  0420               	iorwf	___fldiv@rem,w
 10953  1744  1903               	skipnz
 10954  1745  2F47               	goto	u4481
 10955  1746  2F48               	goto	u4480
 10956  1747                     u4481:
 10957  1747  2F61               	goto	l3174
 10958  1748                     u4480:
 10959  1748                     l3162:
 10960  1748  1427               	bsf	___fldiv@grs,0
 10961  1749  2F61               	goto	l3174
 10962  174A                     l3164:
 10963  174A  3001               	movlw	1
 10964  174B                     u4495:
 10965  174B  35F4               	lslf	___fldiv@b,f
 10966  174C  0DF5               	rlf	___fldiv@b+1,f
 10967  174D  0DF6               	rlf	___fldiv@b+2,f
 10968  174E  0DF7               	rlf	___fldiv@b+3,f
 10969  174F  0B89               	decfsz	9,f
 10970  1750  2F4B               	goto	u4495
 10971  1751                     l3166:
 10972  1751  1FAA               	btfss	___fldiv@grs+3,7
 10973  1752  2F54               	goto	u4501
 10974  1753  2F55               	goto	u4500
 10975  1754                     u4501:
 10976  1754  2F56               	goto	l3170
 10977  1755                     u4500:
 10978  1755                     l3168:
 10979  1755  1474               	bsf	___fldiv@b,0
 10980  1756                     l3170:
 10981  1756  3001               	movlw	1
 10982  1757                     u4515:
 10983  1757  35A7               	lslf	___fldiv@grs,f
 10984  1758  0DA8               	rlf	___fldiv@grs+1,f
 10985  1759  0DA9               	rlf	___fldiv@grs+2,f
 10986  175A  0DAA               	rlf	___fldiv@grs+3,f
 10987  175B  0B89               	decfsz	9,f
 10988  175C  2F57               	goto	u4515
 10989  175D                     l3172:
 10990  175D  30FF               	movlw	255
 10991  175E  07A5               	addwf	___fldiv@new_exp,f
 10992  175F  30FF               	movlw	255
 10993  1760  3DA6               	addwfc	___fldiv@new_exp+1,f
 10994  1761                     l3174:
 10995  1761  1FF6               	btfss	___fldiv@b+2,7
 10996  1762  2F64               	goto	u4521
 10997  1763  2F65               	goto	u4520
 10998  1764                     u4521:
 10999  1764  2F4A               	goto	l3164
 11000  1765                     u4520:
 11001  1765                     l3176:
 11002  1765  01AC               	clrf	___fldiv@aexp
 11003  1766                     l3178:
 11004  1766  1FAA               	btfss	___fldiv@grs+3,7
 11005  1767  2F69               	goto	u4531
 11006  1768  2F6A               	goto	u4530
 11007  1769                     u4531:
 11008  1769  2F86               	goto	l3186
 11009  176A                     u4530:
 11010  176A                     l3180:
 11011  176A  30FF               	movlw	255
 11012  176B  0527               	andwf	___fldiv@grs,w
 11013  176C  00F8               	movwf	??___fldiv
 11014  176D  30FF               	movlw	255
 11015  176E  0528               	andwf	___fldiv@grs+1,w
 11016  176F  00F9               	movwf	??___fldiv+1
 11017  1770  30FF               	movlw	255
 11018  1771  0529               	andwf	___fldiv@grs+2,w
 11019  1772  00FA               	movwf	??___fldiv+2
 11020  1773  307F               	movlw	127
 11021  1774  052A               	andwf	___fldiv@grs+3,w
 11022  1775  00FB               	movwf	??___fldiv+3
 11023  1776  087B               	movf	??___fldiv+3,w
 11024  1777  047A               	iorwf	??___fldiv+2,w
 11025  1778  0479               	iorwf	??___fldiv+1,w
 11026  1779  0478               	iorwf	??___fldiv,w
 11027  177A  1903               	skipnz
 11028  177B  2F7D               	goto	u4541
 11029  177C  2F7E               	goto	u4540
 11030  177D                     u4541:
 11031  177D  2F81               	goto	l660
 11032  177E                     u4540:
 11033  177E                     l3182:
 11034  177E  01AC               	clrf	___fldiv@aexp
 11035  177F  0AAC               	incf	___fldiv@aexp,f
 11036  1780  2F86               	goto	l3186
 11037  1781                     l660:
 11038  1781  1C74               	btfss	___fldiv@b,0
 11039  1782  2F84               	goto	u4551
 11040  1783  2F85               	goto	u4550
 11041  1784                     u4551:
 11042  1784  2F86               	goto	l3186
 11043  1785                     u4550:
 11044  1785  2F7E               	goto	l3182
 11045  1786                     l3186:
 11046  1786  082C               	movf	___fldiv@aexp,w
 11047  1787  1903               	btfsc	3,2
 11048  1788  2F8A               	goto	u4561
 11049  1789  2F8B               	goto	u4560
 11050  178A                     u4561:
 11051  178A  2FB3               	goto	l3196
 11052  178B                     u4560:
 11053  178B                     l3188:
 11054  178B  3001               	movlw	1
 11055  178C  07F4               	addwf	___fldiv@b,f
 11056  178D  3000               	movlw	0
 11057  178E  3DF5               	addwfc	___fldiv@b+1,f
 11058  178F  3000               	movlw	0
 11059  1790  3DF6               	addwfc	___fldiv@b+2,f
 11060  1791  3000               	movlw	0
 11061  1792  3DF7               	addwfc	___fldiv@b+3,f
 11062  1793                     l3190:
 11063  1793  1C77               	btfss	___fldiv@b+3,0
 11064  1794  2F96               	goto	u4571
 11065  1795  2F97               	goto	u4570
 11066  1796                     u4571:
 11067  1796  2FB3               	goto	l3196
 11068  1797                     u4570:
 11069  1797                     l3192:
 11070  1797  0874               	movf	___fldiv@b,w
 11071  1798  00F8               	movwf	??___fldiv
 11072  1799  0875               	movf	___fldiv@b+1,w
 11073  179A  00F9               	movwf	??___fldiv+1
 11074  179B  0876               	movf	___fldiv@b+2,w
 11075  179C  00FA               	movwf	??___fldiv+2
 11076  179D  0877               	movf	___fldiv@b+3,w
 11077  179E  00FB               	movwf	??___fldiv+3
 11078  179F  3001               	movlw	1
 11079  17A0  00FC               	movwf	??___fldiv+4
 11080  17A1                     u4585:
 11081  17A1  37FB               	asrf	??___fldiv+3,f
 11082  17A2  0CFA               	rrf	??___fldiv+2,f
 11083  17A3  0CF9               	rrf	??___fldiv+1,f
 11084  17A4  0CF8               	rrf	??___fldiv,f
 11085  17A5                     u4580:
 11086  17A5  0BFC               	decfsz	??___fldiv+4,f
 11087  17A6  2FA1               	goto	u4585
 11088  17A7  087B               	movf	??___fldiv+3,w
 11089  17A8  00F7               	movwf	___fldiv@b+3
 11090  17A9  087A               	movf	??___fldiv+2,w
 11091  17AA  00F6               	movwf	___fldiv@b+2
 11092  17AB  0879               	movf	??___fldiv+1,w
 11093  17AC  00F5               	movwf	___fldiv@b+1
 11094  17AD  0878               	movf	??___fldiv,w
 11095  17AE  00F4               	movwf	___fldiv@b
 11096  17AF                     l3194:
 11097  17AF  3001               	movlw	1
 11098  17B0  07A5               	addwf	___fldiv@new_exp,f
 11099  17B1  3000               	movlw	0
 11100  17B2  3DA6               	addwfc	___fldiv@new_exp+1,f
 11101  17B3                     l3196:
 11102  17B3  0826               	movf	___fldiv@new_exp+1,w
 11103  17B4  3A80               	xorlw	128
 11104  17B5  00F8               	movwf	??___fldiv
 11105  17B6  3080               	movlw	128
 11106  17B7  0278               	subwf	??___fldiv,w
 11107  17B8  1D03               	skipz
 11108  17B9  2FBC               	goto	u4595
 11109  17BA  30FF               	movlw	255
 11110  17BB  0225               	subwf	___fldiv@new_exp,w
 11111  17BC                     u4595:
 11112  17BC  1C03               	skipc
 11113  17BD  2FBF               	goto	u4591
 11114  17BE  2FC0               	goto	u4590
 11115  17BF                     u4591:
 11116  17BF  2FCD               	goto	l665
 11117  17C0                     u4590:
 11118  17C0                     l3198:
 11119  17C0  30FF               	movlw	255
 11120  17C1  0020               	movlb	0	; select bank0
 11121  17C2  00A5               	movwf	___fldiv@new_exp
 11122  17C3  3000               	movlw	0
 11123  17C4  00A6               	movwf	___fldiv@new_exp+1
 11124  17C5  3000               	movlw	0
 11125  17C6  00F7               	movwf	___fldiv@b+3
 11126  17C7  3000               	movlw	0
 11127  17C8  00F6               	movwf	___fldiv@b+2
 11128  17C9  3000               	movlw	0
 11129  17CA  00F5               	movwf	___fldiv@b+1
 11130  17CB  3000               	movlw	0
 11131  17CC  00F4               	movwf	___fldiv@b
 11132  17CD                     l665:
 11133  17CD  0020               	movlb	0	; select bank0
 11134  17CE  0826               	movf	___fldiv@new_exp+1,w
 11135  17CF  3A80               	xorlw	128
 11136  17D0  00F8               	movwf	??___fldiv
 11137  17D1  3080               	movlw	128
 11138  17D2  0278               	subwf	??___fldiv,w
 11139  17D3  1D03               	skipz
 11140  17D4  2FD7               	goto	u4605
 11141  17D5  3001               	movlw	1
 11142  17D6  0225               	subwf	___fldiv@new_exp,w
 11143  17D7                     u4605:
 11144  17D7  1803               	skipnc
 11145  17D8  2FDA               	goto	u4601
 11146  17D9  2FDB               	goto	u4600
 11147  17DA                     u4601:
 11148  17DA  2FE7               	goto	l666
 11149  17DB                     u4600:
 11150  17DB                     l3200:
 11151  17DB  0020               	movlb	0	; select bank0
 11152  17DC  01A5               	clrf	___fldiv@new_exp
 11153  17DD  01A6               	clrf	___fldiv@new_exp+1
 11154  17DE                     l3202:
 11155  17DE  3000               	movlw	0
 11156  17DF  00F7               	movwf	___fldiv@b+3
 11157  17E0  3000               	movlw	0
 11158  17E1  00F6               	movwf	___fldiv@b+2
 11159  17E2  3000               	movlw	0
 11160  17E3  00F5               	movwf	___fldiv@b+1
 11161  17E4  3000               	movlw	0
 11162  17E5  00F4               	movwf	___fldiv@b
 11163  17E6                     l3204:
 11164  17E6  01A4               	clrf	___fldiv@sign
 11165  17E7                     l666:
 11166  17E7  0020               	movlb	0	; select bank0
 11167  17E8  0825               	movf	___fldiv@new_exp,w
 11168  17E9  00F8               	movwf	??___fldiv
 11169  17EA  0878               	movf	??___fldiv,w
 11170  17EB  00AB               	movwf	___fldiv@bexp
 11171  17EC                     l3206:
 11172  17EC  1C2B               	btfss	___fldiv@bexp,0
 11173  17ED  2FEF               	goto	u4611
 11174  17EE  2FF0               	goto	u4610
 11175  17EF                     u4611:
 11176  17EF  2FF2               	goto	l3210
 11177  17F0                     u4610:
 11178  17F0                     l3208:
 11179  17F0  17F6               	bsf	___fldiv@b+2,7
 11180  17F1  2FF6               	goto	l668
 11181  17F2                     l3210:
 11182  17F2  307F               	movlw	127
 11183  17F3  00F8               	movwf	??___fldiv
 11184  17F4  0878               	movf	??___fldiv,w
 11185  17F5  05F6               	andwf	___fldiv@b+2,f
 11186  17F6                     l668:
 11187  17F6  362B               	lsrf	___fldiv@bexp,w
 11188  17F7  00F8               	movwf	??___fldiv
 11189  17F8  0878               	movf	??___fldiv,w
 11190  17F9  00F7               	movwf	___fldiv@b+3
 11191  17FA  0824               	movf	___fldiv@sign,w
 11192  17FB  00F8               	movwf	??___fldiv
 11193  17FC  0878               	movf	??___fldiv,w
 11194  17FD  04F7               	iorwf	___fldiv@b+3,f
 11195  17FE  2EBB               	goto	l3120
 11196  17FF                     l646:
 11197  17FF  0008               	return
 11198  1800                     __end_of___fldiv:
 11199                           
 11200                           	psect	text24
 11201  1EA2                     __ptext24:	
 11202 ;; *************** function ___awmod *****************
 11203 ;; Defined at:
 11204 ;;		line 5 in file "C:\Program Files\Microchip\xc8\v2.32\pic\sources\c99\common\awmod.c"
 11205 ;; Parameters:    Size  Location     Type
 11206 ;;  divisor         2    0[COMMON] int 
 11207 ;;  dividend        2    2[COMMON] int 
 11208 ;; Auto vars:     Size  Location     Type
 11209 ;;  sign            1    6[COMMON] unsigned char 
 11210 ;;  counter         1    5[COMMON] unsigned char 
 11211 ;; Return value:  Size  Location     Type
 11212 ;;                  2    0[COMMON] int 
 11213 ;; Registers used:
 11214 ;;		wreg, status,2, status,0
 11215 ;; Tracked objects:
 11216 ;;		On entry : 0/0
 11217 ;;		On exit  : 0/0
 11218 ;;		Unchanged: 0/0
 11219 ;; Data sizes:     COMMON   BANK0   BANK1   BANK2   BANK3   BANK4   BANK5   BANK6   BANK7   BANK8   BANK9  BANK10  BANK1
      +1  BANK12
 11220 ;;      Params:         4       0       0       0       0       0       0       0       0       0       0       0       
      +0       0
 11221 ;;      Locals:         2       0       0       0       0       0       0       0       0       0       0       0       
      +0       0
 11222 ;;      Temps:          1       0       0       0       0       0       0       0       0       0       0       0       
      +0       0
 11223 ;;      Totals:         7       0       0       0       0       0       0       0       0       0       0       0       
      +0       0
 11224 ;;Total ram usage:        7 bytes
 11225 ;; Hardware stack levels used: 1
 11226 ;; This function calls:
 11227 ;;		Nothing
 11228 ;; This function is called by:
 11229 ;;		_efgtoa
 11230 ;; This function uses a non-reentrant model
 11231 ;;
 11232                           
 11233                           
 11234                           ;psect for function ___awmod
 11235  1EA2                     ___awmod:
 11236  1EA2                     l2956:	
 11237                           ;incstack = 0
 11238                           ; Regs used in ___awmod: [wreg+status,2+status,0]
 11239                           
 11240  1EA2  01F6               	clrf	___awmod@sign
 11241  1EA3                     l2958:
 11242  1EA3  1FF3               	btfss	___awmod@dividend+1,7
 11243  1EA4  2EA6               	goto	u4051
 11244  1EA5  2EA7               	goto	u4050
 11245  1EA6                     u4051:
 11246  1EA6  2EAE               	goto	l2964
 11247  1EA7                     u4050:
 11248  1EA7                     l2960:
 11249  1EA7  09F2               	comf	___awmod@dividend,f
 11250  1EA8  09F3               	comf	___awmod@dividend+1,f
 11251  1EA9  0AF2               	incf	___awmod@dividend,f
 11252  1EAA  1903               	skipnz
 11253  1EAB  0AF3               	incf	___awmod@dividend+1,f
 11254  1EAC                     l2962:
 11255  1EAC  01F6               	clrf	___awmod@sign
 11256  1EAD  0AF6               	incf	___awmod@sign,f
 11257  1EAE                     l2964:
 11258  1EAE  1FF1               	btfss	___awmod@divisor+1,7
 11259  1EAF  2EB1               	goto	u4061
 11260  1EB0  2EB2               	goto	u4060
 11261  1EB1                     u4061:
 11262  1EB1  2EB7               	goto	l2968
 11263  1EB2                     u4060:
 11264  1EB2                     l2966:
 11265  1EB2  09F0               	comf	___awmod@divisor,f
 11266  1EB3  09F1               	comf	___awmod@divisor+1,f
 11267  1EB4  0AF0               	incf	___awmod@divisor,f
 11268  1EB5  1903               	skipnz
 11269  1EB6  0AF1               	incf	___awmod@divisor+1,f
 11270  1EB7                     l2968:
 11271  1EB7  0870               	movf	___awmod@divisor,w
 11272  1EB8  0471               	iorwf	___awmod@divisor+1,w
 11273  1EB9  1903               	btfsc	3,2
 11274  1EBA  2EBC               	goto	u4071
 11275  1EBB  2EBD               	goto	u4070
 11276  1EBC                     u4071:
 11277  1EBC  2EE6               	goto	l2986
 11278  1EBD                     u4070:
 11279  1EBD                     l2970:
 11280  1EBD  01F5               	clrf	___awmod@counter
 11281  1EBE  0AF5               	incf	___awmod@counter,f
 11282  1EBF  2EC9               	goto	l2976
 11283  1EC0                     l2972:
 11284  1EC0  3001               	movlw	1
 11285  1EC1                     u4085:
 11286  1EC1  35F0               	lslf	___awmod@divisor,f
 11287  1EC2  0DF1               	rlf	___awmod@divisor+1,f
 11288  1EC3  0B89               	decfsz	9,f
 11289  1EC4  2EC1               	goto	u4085
 11290  1EC5                     l2974:
 11291  1EC5  3001               	movlw	1
 11292  1EC6  00F4               	movwf	??___awmod
 11293  1EC7  0874               	movf	??___awmod,w
 11294  1EC8  07F5               	addwf	___awmod@counter,f
 11295  1EC9                     l2976:
 11296  1EC9  1FF1               	btfss	___awmod@divisor+1,7
 11297  1ECA  2ECC               	goto	u4091
 11298  1ECB  2ECD               	goto	u4090
 11299  1ECC                     u4091:
 11300  1ECC  2EC0               	goto	l2972
 11301  1ECD                     u4090:
 11302  1ECD                     l2978:
 11303  1ECD  0871               	movf	___awmod@divisor+1,w
 11304  1ECE  0273               	subwf	___awmod@dividend+1,w
 11305  1ECF  1D03               	skipz
 11306  1ED0  2ED3               	goto	u4105
 11307  1ED1  0870               	movf	___awmod@divisor,w
 11308  1ED2  0272               	subwf	___awmod@dividend,w
 11309  1ED3                     u4105:
 11310  1ED3  1C03               	skipc
 11311  1ED4  2ED6               	goto	u4101
 11312  1ED5  2ED7               	goto	u4100
 11313  1ED6                     u4101:
 11314  1ED6  2EDB               	goto	l2982
 11315  1ED7                     u4100:
 11316  1ED7                     l2980:
 11317  1ED7  0870               	movf	___awmod@divisor,w
 11318  1ED8  02F2               	subwf	___awmod@dividend,f
 11319  1ED9  0871               	movf	___awmod@divisor+1,w
 11320  1EDA  3BF3               	subwfb	___awmod@dividend+1,f
 11321  1EDB                     l2982:
 11322  1EDB  3001               	movlw	1
 11323  1EDC                     u4115:
 11324  1EDC  36F1               	lsrf	___awmod@divisor+1,f
 11325  1EDD  0CF0               	rrf	___awmod@divisor,f
 11326  1EDE  0B89               	decfsz	9,f
 11327  1EDF  2EDC               	goto	u4115
 11328  1EE0                     l2984:
 11329  1EE0  3001               	movlw	1
 11330  1EE1  02F5               	subwf	___awmod@counter,f
 11331  1EE2  1D03               	btfss	3,2
 11332  1EE3  2EE5               	goto	u4121
 11333  1EE4  2EE6               	goto	u4120
 11334  1EE5                     u4121:
 11335  1EE5  2ECD               	goto	l2978
 11336  1EE6                     u4120:
 11337  1EE6                     l2986:
 11338  1EE6  0876               	movf	___awmod@sign,w
 11339  1EE7  1903               	btfsc	3,2
 11340  1EE8  2EEA               	goto	u4131
 11341  1EE9  2EEB               	goto	u4130
 11342  1EEA                     u4131:
 11343  1EEA  2EF0               	goto	l2990
 11344  1EEB                     u4130:
 11345  1EEB                     l2988:
 11346  1EEB  09F2               	comf	___awmod@dividend,f
 11347  1EEC  09F3               	comf	___awmod@dividend+1,f
 11348  1EED  0AF2               	incf	___awmod@dividend,f
 11349  1EEE  1903               	skipnz
 11350  1EEF  0AF3               	incf	___awmod@dividend+1,f
 11351  1EF0                     l2990:
 11352  1EF0  0873               	movf	___awmod@dividend+1,w
 11353  1EF1  00F1               	movwf	?___awmod+1
 11354  1EF2  0872               	movf	___awmod@dividend,w
 11355  1EF3  00F0               	movwf	?___awmod
 11356  1EF4                     l453:
 11357  1EF4  0008               	return
 11358  1EF5                     __end_of___awmod:
 11359                           
 11360                           	psect	text25
 11361  1008                     __ptext25:	
 11362 ;; *************** function ___awdiv *****************
 11363 ;; Defined at:
 11364 ;;		line 5 in file "C:\Program Files\Microchip\xc8\v2.32\pic\sources\c99\common\awdiv.c"
 11365 ;; Parameters:    Size  Location     Type
 11366 ;;  divisor         2    0[COMMON] int 
 11367 ;;  dividend        2    2[COMMON] int 
 11368 ;; Auto vars:     Size  Location     Type
 11369 ;;  quotient        2    7[COMMON] int 
 11370 ;;  sign            1    6[COMMON] unsigned char 
 11371 ;;  counter         1    5[COMMON] unsigned char 
 11372 ;; Return value:  Size  Location     Type
 11373 ;;                  2    0[COMMON] int 
 11374 ;; Registers used:
 11375 ;;		wreg, status,2, status,0
 11376 ;; Tracked objects:
 11377 ;;		On entry : 0/0
 11378 ;;		On exit  : 0/0
 11379 ;;		Unchanged: 0/0
 11380 ;; Data sizes:     COMMON   BANK0   BANK1   BANK2   BANK3   BANK4   BANK5   BANK6   BANK7   BANK8   BANK9  BANK10  BANK1
      +1  BANK12
 11381 ;;      Params:         4       0       0       0       0       0       0       0       0       0       0       0       
      +0       0
 11382 ;;      Locals:         4       0       0       0       0       0       0       0       0       0       0       0       
      +0       0
 11383 ;;      Temps:          1       0       0       0       0       0       0       0       0       0       0       0       
      +0       0
 11384 ;;      Totals:         9       0       0       0       0       0       0       0       0       0       0       0       
      +0       0
 11385 ;;Total ram usage:        9 bytes
 11386 ;; Hardware stack levels used: 1
 11387 ;; This function calls:
 11388 ;;		Nothing
 11389 ;; This function is called by:
 11390 ;;		_efgtoa
 11391 ;; This function uses a non-reentrant model
 11392 ;;
 11393                           
 11394                           
 11395                           ;psect for function ___awdiv
 11396  1008                     ___awdiv:
 11397  1008                     l2912:	
 11398                           ;incstack = 0
 11399                           ; Regs used in ___awdiv: [wreg+status,2+status,0]
 11400                           
 11401  1008  01F6               	clrf	___awdiv@sign
 11402  1009                     l2914:
 11403  1009  1FF1               	btfss	___awdiv@divisor+1,7
 11404  100A  280C               	goto	u3951
 11405  100B  280D               	goto	u3950
 11406  100C                     u3951:
 11407  100C  2814               	goto	l2920
 11408  100D                     u3950:
 11409  100D                     l2916:
 11410  100D  09F0               	comf	___awdiv@divisor,f
 11411  100E  09F1               	comf	___awdiv@divisor+1,f
 11412  100F  0AF0               	incf	___awdiv@divisor,f
 11413  1010  1903               	skipnz
 11414  1011  0AF1               	incf	___awdiv@divisor+1,f
 11415  1012                     l2918:
 11416  1012  01F6               	clrf	___awdiv@sign
 11417  1013  0AF6               	incf	___awdiv@sign,f
 11418  1014                     l2920:
 11419  1014  1FF3               	btfss	___awdiv@dividend+1,7
 11420  1015  2817               	goto	u3961
 11421  1016  2818               	goto	u3960
 11422  1017                     u3961:
 11423  1017  2821               	goto	l2926
 11424  1018                     u3960:
 11425  1018                     l2922:
 11426  1018  09F2               	comf	___awdiv@dividend,f
 11427  1019  09F3               	comf	___awdiv@dividend+1,f
 11428  101A  0AF2               	incf	___awdiv@dividend,f
 11429  101B  1903               	skipnz
 11430  101C  0AF3               	incf	___awdiv@dividend+1,f
 11431  101D                     l2924:
 11432  101D  3001               	movlw	1
 11433  101E  00F4               	movwf	??___awdiv
 11434  101F  0874               	movf	??___awdiv,w
 11435  1020  06F6               	xorwf	___awdiv@sign,f
 11436  1021                     l2926:
 11437  1021  01F7               	clrf	___awdiv@quotient
 11438  1022  01F8               	clrf	___awdiv@quotient+1
 11439  1023                     l2928:
 11440  1023  0870               	movf	___awdiv@divisor,w
 11441  1024  0471               	iorwf	___awdiv@divisor+1,w
 11442  1025  1903               	btfsc	3,2
 11443  1026  2828               	goto	u3971
 11444  1027  2829               	goto	u3970
 11445  1028                     u3971:
 11446  1028  2858               	goto	l2948
 11447  1029                     u3970:
 11448  1029                     l2930:
 11449  1029  01F5               	clrf	___awdiv@counter
 11450  102A  0AF5               	incf	___awdiv@counter,f
 11451  102B  2835               	goto	l2936
 11452  102C                     l2932:
 11453  102C  3001               	movlw	1
 11454  102D                     u3985:
 11455  102D  35F0               	lslf	___awdiv@divisor,f
 11456  102E  0DF1               	rlf	___awdiv@divisor+1,f
 11457  102F  0B89               	decfsz	9,f
 11458  1030  282D               	goto	u3985
 11459  1031                     l2934:
 11460  1031  3001               	movlw	1
 11461  1032  00F4               	movwf	??___awdiv
 11462  1033  0874               	movf	??___awdiv,w
 11463  1034  07F5               	addwf	___awdiv@counter,f
 11464  1035                     l2936:
 11465  1035  1FF1               	btfss	___awdiv@divisor+1,7
 11466  1036  2838               	goto	u3991
 11467  1037  2839               	goto	u3990
 11468  1038                     u3991:
 11469  1038  282C               	goto	l2932
 11470  1039                     u3990:
 11471  1039                     l2938:
 11472  1039  3001               	movlw	1
 11473  103A                     u4005:
 11474  103A  35F7               	lslf	___awdiv@quotient,f
 11475  103B  0DF8               	rlf	___awdiv@quotient+1,f
 11476  103C  0B89               	decfsz	9,f
 11477  103D  283A               	goto	u4005
 11478  103E  0871               	movf	___awdiv@divisor+1,w
 11479  103F  0273               	subwf	___awdiv@dividend+1,w
 11480  1040  1D03               	skipz
 11481  1041  2844               	goto	u4015
 11482  1042  0870               	movf	___awdiv@divisor,w
 11483  1043  0272               	subwf	___awdiv@dividend,w
 11484  1044                     u4015:
 11485  1044  1C03               	skipc
 11486  1045  2847               	goto	u4011
 11487  1046  2848               	goto	u4010
 11488  1047                     u4011:
 11489  1047  284D               	goto	l2944
 11490  1048                     u4010:
 11491  1048                     l2940:
 11492  1048  0870               	movf	___awdiv@divisor,w
 11493  1049  02F2               	subwf	___awdiv@dividend,f
 11494  104A  0871               	movf	___awdiv@divisor+1,w
 11495  104B  3BF3               	subwfb	___awdiv@dividend+1,f
 11496  104C                     l2942:
 11497  104C  1477               	bsf	___awdiv@quotient,0
 11498  104D                     l2944:
 11499  104D  3001               	movlw	1
 11500  104E                     u4025:
 11501  104E  36F1               	lsrf	___awdiv@divisor+1,f
 11502  104F  0CF0               	rrf	___awdiv@divisor,f
 11503  1050  0B89               	decfsz	9,f
 11504  1051  284E               	goto	u4025
 11505  1052                     l2946:
 11506  1052  3001               	movlw	1
 11507  1053  02F5               	subwf	___awdiv@counter,f
 11508  1054  1D03               	btfss	3,2
 11509  1055  2857               	goto	u4031
 11510  1056  2858               	goto	u4030
 11511  1057                     u4031:
 11512  1057  2839               	goto	l2938
 11513  1058                     u4030:
 11514  1058                     l2948:
 11515  1058  0876               	movf	___awdiv@sign,w
 11516  1059  1903               	btfsc	3,2
 11517  105A  285C               	goto	u4041
 11518  105B  285D               	goto	u4040
 11519  105C                     u4041:
 11520  105C  2862               	goto	l2952
 11521  105D                     u4040:
 11522  105D                     l2950:
 11523  105D  09F7               	comf	___awdiv@quotient,f
 11524  105E  09F8               	comf	___awdiv@quotient+1,f
 11525  105F  0AF7               	incf	___awdiv@quotient,f
 11526  1060  1903               	skipnz
 11527  1061  0AF8               	incf	___awdiv@quotient+1,f
 11528  1062                     l2952:
 11529  1062  0878               	movf	___awdiv@quotient+1,w
 11530  1063  00F1               	movwf	?___awdiv+1
 11531  1064  0877               	movf	___awdiv@quotient,w
 11532  1065  00F0               	movwf	?___awdiv
 11533  1066                     l440:
 11534  1066  0008               	return
 11535  1067                     __end_of___awdiv:
 11536                           
 11537                           	psect	text26
 11538  14DC                     __ptext26:	
 11539 ;; *************** function _dtoa *****************
 11540 ;; Defined at:
 11541 ;;		line 287 in file "C:\Program Files\Microchip\xc8\v2.32\pic\sources\c99\common\doprnt.c"
 11542 ;; Parameters:    Size  Location     Type
 11543 ;;  fp              1    wreg     PTR struct _IO_FILE
 11544 ;;		 -> NULL(0), sprintf@f(5), 
 11545 ;;  d               8   16[BANK0 ] long long 
 11546 ;; Auto vars:     Size  Location     Type
 11547 ;;  fp              1   29[BANK0 ] PTR struct _IO_FILE
 11548 ;;		 -> NULL(0), sprintf@f(5), 
 11549 ;;  n               8   36[BANK0 ] long long 
 11550 ;;  i               2   44[BANK0 ] int 
 11551 ;;  s               2   34[BANK0 ] int 
 11552 ;;  w               2   32[BANK0 ] int 
 11553 ;;  p               2   30[BANK0 ] int 
 11554 ;; Return value:  Size  Location     Type
 11555 ;;                  2   16[BANK0 ] int 
 11556 ;; Registers used:
 11557 ;;		wreg, fsr0l, fsr0h, fsr1l, fsr1h, status,2, status,0, pclath, cstack
 11558 ;; Tracked objects:
 11559 ;;		On entry : 0/0
 11560 ;;		On exit  : 0/0
 11561 ;;		Unchanged: 0/0
 11562 ;; Data sizes:     COMMON   BANK0   BANK1   BANK2   BANK3   BANK4   BANK5   BANK6   BANK7   BANK8   BANK9  BANK10  BANK1
      +1  BANK12
 11563 ;;      Params:         0       8       0       0       0       0       0       0       0       0       0       0       
      +0       0
 11564 ;;      Locals:         0      19       0       0       0       0       0       0       0       0       0       0       
      +0       0
 11565 ;;      Temps:          0       3       0       0       0       0       0       0       0       0       0       0       
      +0       0
 11566 ;;      Totals:         0      30       0       0       0       0       0       0       0       0       0       0       
      +0       0
 11567 ;;Total ram usage:       30 bytes
 11568 ;; Hardware stack levels used: 1
 11569 ;; Hardware stack levels required when called: 5
 11570 ;; This function calls:
 11571 ;;		___aodiv
 11572 ;;		___aomod
 11573 ;;		_abs
 11574 ;;		_pad
 11575 ;; This function is called by:
 11576 ;;		_vfpfcnvrt
 11577 ;; This function uses a non-reentrant model
 11578 ;;
 11579                           
 11580                           
 11581                           ;psect for function _dtoa
 11582  14DC                     _dtoa:
 11583                           
 11584                           ;incstack = 0
 11585                           ; Regs used in _dtoa: [wreg-fsr1h+status,2+status,0+pclath+cstack]
 11586                           ;dtoa@fp stored from wreg
 11587  14DC  0020               	movlb	0	; select bank0
 11588  14DD  00BD               	movwf	dtoa@fp
 11589  14DE                     l3450:
 11590                           
 11591                           ;C:\Program Files\Microchip\xc8\v2.32\pic\sources\c99\common\doprnt.c: 287: static int d
      +                          toa(FILE *fp, long long d);C:\Program Files\Microchip\xc8\v2.32\pic\sources\c99\common\d
      +                          oprnt.c: 288: {;C:\Program Files\Microchip\xc8\v2.32\pic\sources\c99\common\doprnt.c: 28
      +                          9:     int i, p, s, w;;C:\Program Files\Microchip\xc8\v2.32\pic\sources\c99\common\doprn
      +                          t.c: 290:     long long n;;C:\Program Files\Microchip\xc8\v2.32\pic\sources\c99\common\d
      +                          oprnt.c: 293:     n = d;
 11592  14DE  0830               	movf	dtoa@d,w
 11593  14DF  00C4               	movwf	dtoa@n
 11594  14E0  0831               	movf	dtoa@d+1,w
 11595  14E1  00C5               	movwf	dtoa@n+1
 11596  14E2  0832               	movf	dtoa@d+2,w
 11597  14E3  00C6               	movwf	dtoa@n+2
 11598  14E4  0833               	movf	dtoa@d+3,w
 11599  14E5  00C7               	movwf	dtoa@n+3
 11600  14E6  0834               	movf	dtoa@d+4,w
 11601  14E7  00C8               	movwf	dtoa@n+4
 11602  14E8  0835               	movf	dtoa@d+5,w
 11603  14E9  00C9               	movwf	dtoa@n+5
 11604  14EA  0836               	movf	dtoa@d+6,w
 11605  14EB  00CA               	movwf	dtoa@n+6
 11606  14EC  0837               	movf	dtoa@d+7,w
 11607  14ED  00CB               	movwf	dtoa@n+7
 11608  14EE                     l3452:
 11609                           
 11610                           ;C:\Program Files\Microchip\xc8\v2.32\pic\sources\c99\common\doprnt.c: 294:     s = n < 
      +                          0 ? 1 : 0;
 11611  14EE  3044               	movlw	low dtoa@n
 11612  14EF  0086               	movwf	6
 11613  14F0  3000               	movlw	high dtoa@n
 11614  14F1  0087               	movwf	7
 11615  14F2  3F47               	moviw [7]fsr1
 11616  14F3  00B8               	movwf	??_dtoa
 11617  14F4  1BB8               	btfsc	??_dtoa,7
 11618  14F5  2CF7               	goto	u5161
 11619  14F6  2CF9               	goto	u5160
 11620  14F7                     u5161:
 11621  14F7  3001               	movlw	1
 11622  14F8  2CFA               	goto	u5170
 11623  14F9                     u5160:
 11624  14F9  3000               	movlw	0
 11625  14FA                     u5170:
 11626  14FA  0020               	movlb	0	; select bank0
 11627  14FB  00B9               	movwf	??_dtoa+1
 11628  14FC  01BA               	clrf	??_dtoa+2
 11629  14FD  0839               	movf	??_dtoa+1,w
 11630  14FE  00C2               	movwf	dtoa@s
 11631  14FF  083A               	movf	??_dtoa+2,w
 11632  1500  00C3               	movwf	dtoa@s+1
 11633  1501                     l3454:
 11634                           
 11635                           ;C:\Program Files\Microchip\xc8\v2.32\pic\sources\c99\common\doprnt.c: 295:     if (s) {
 11636  1501  0842               	movf	dtoa@s,w
 11637  1502  0443               	iorwf	dtoa@s+1,w
 11638  1503  1903               	btfsc	3,2
 11639  1504  2D06               	goto	u5181
 11640  1505  2D07               	goto	u5180
 11641  1506                     u5181:
 11642  1506  2D25               	goto	l797
 11643  1507                     u5180:
 11644  1507                     l3456:
 11645                           
 11646                           ;C:\Program Files\Microchip\xc8\v2.32\pic\sources\c99\common\doprnt.c: 296:         n = 
      +                          -n;
 11647  1507  09C4               	comf	dtoa@n,f
 11648  1508  09C5               	comf	dtoa@n+1,f
 11649  1509  09C6               	comf	dtoa@n+2,f
 11650  150A  09C7               	comf	dtoa@n+3,f
 11651  150B  09C8               	comf	dtoa@n+4,f
 11652  150C  09C9               	comf	dtoa@n+5,f
 11653  150D  09CA               	comf	dtoa@n+6,f
 11654  150E  09CB               	comf	dtoa@n+7,f
 11655  150F  0AC4               	incf	dtoa@n,f
 11656  1510  1D03               	skipz
 11657  1511  2D25               	goto	u519lld
 11658  1512  0AC5               	incf	dtoa@n+1,f
 11659  1513  1D03               	skipz
 11660  1514  2D25               	goto	u519lld
 11661  1515  0AC6               	incf	dtoa@n+2,f
 11662  1516  1D03               	skipz
 11663  1517  2D25               	goto	u519lld
 11664  1518  0AC7               	incf	dtoa@n+3,f
 11665  1519  1D03               	skipz
 11666  151A  2D25               	goto	u519lld
 11667  151B  0AC8               	incf	dtoa@n+4,f
 11668  151C  1D03               	skipz
 11669  151D  2D25               	goto	u519lld
 11670  151E  0AC9               	incf	dtoa@n+5,f
 11671  151F  1D03               	skipz
 11672  1520  2D25               	goto	u519lld
 11673  1521  0ACA               	incf	dtoa@n+6,f
 11674  1522  1D03               	skipz
 11675  1523  2D25               	goto	u519lld
 11676  1524  0ACB               	incf	dtoa@n+7,f
 11677  1525                     u519lld:
 11678  1525                     l797:	
 11679                           ;C:\Program Files\Microchip\xc8\v2.32\pic\sources\c99\common\doprnt.c: 297:     }
 11680                           
 11681                           
 11682                           ;C:\Program Files\Microchip\xc8\v2.32\pic\sources\c99\common\doprnt.c: 300:     if (!(pr
      +                          ec < 0)) {
 11683  1525  0022               	movlb	2	; select bank2
 11684  1526  1BDB               	btfsc	(_prec+1)^(0+256),7
 11685  1527  2D29               	goto	u5201
 11686  1528  2D2A               	goto	u5200
 11687  1529                     u5201:
 11688  1529  2D2E               	goto	l798
 11689  152A                     u5200:
 11690  152A                     l3458:
 11691                           
 11692                           ;C:\Program Files\Microchip\xc8\v2.32\pic\sources\c99\common\doprnt.c: 301:         flag
      +                          s &= ~(1 << 1);
 11693  152A  30FD               	movlw	253
 11694  152B  05DC               	andwf	_flags^(0+256),f
 11695  152C  30FF               	movlw	255
 11696  152D  05DD               	andwf	(_flags+1)^(0+256),f
 11697  152E                     l798:	
 11698                           ;C:\Program Files\Microchip\xc8\v2.32\pic\sources\c99\common\doprnt.c: 302:     }
 11699                           
 11700                           
 11701                           ;C:\Program Files\Microchip\xc8\v2.32\pic\sources\c99\common\doprnt.c: 303:     p = (0 <
      +                           prec) ? prec : 1;
 11702  152E  085B               	movf	(_prec+1)^(0+256),w
 11703  152F  3A80               	xorlw	128
 11704  1530  0020               	movlb	0	; select bank0
 11705  1531  00B8               	movwf	??_dtoa
 11706  1532  3080               	movlw	128
 11707  1533  0238               	subwf	??_dtoa,w
 11708  1534  1D03               	skipz
 11709  1535  2D39               	goto	u5215
 11710  1536  3001               	movlw	1
 11711  1537  0022               	movlb	2	; select bank2
 11712  1538  025A               	subwf	_prec^(0+256),w
 11713  1539                     u5215:
 11714  1539  1803               	skipnc
 11715  153A  2D3C               	goto	u5211
 11716  153B  2D3D               	goto	u5210
 11717  153C                     u5211:
 11718  153C  2D43               	goto	l3462
 11719  153D                     u5210:
 11720  153D                     l3460:
 11721  153D  3001               	movlw	1
 11722  153E  0020               	movlb	0	; select bank0
 11723  153F  00BE               	movwf	dtoa@p
 11724  1540  3000               	movlw	0
 11725  1541  00BF               	movwf	dtoa@p+1
 11726  1542  2D4B               	goto	l802
 11727  1543                     l3462:
 11728  1543  0022               	movlb	2	; select bank2
 11729  1544  085B               	movf	(_prec+1)^(0+256),w
 11730  1545  0020               	movlb	0	; select bank0
 11731  1546  00BF               	movwf	dtoa@p+1
 11732  1547  0022               	movlb	2	; select bank2
 11733  1548  085A               	movf	_prec^(0+256),w
 11734  1549  0020               	movlb	0	; select bank0
 11735  154A  00BE               	movwf	dtoa@p
 11736  154B                     l802:
 11737                           
 11738                           ;C:\Program Files\Microchip\xc8\v2.32\pic\sources\c99\common\doprnt.c: 304:     w = widt
      +                          h;
 11739  154B  0022               	movlb	2	; select bank2
 11740  154C  0859               	movf	(_width+1)^(0+256),w
 11741  154D  0020               	movlb	0	; select bank0
 11742  154E  00C1               	movwf	dtoa@w+1
 11743  154F  0022               	movlb	2	; select bank2
 11744  1550  0858               	movf	_width^(0+256),w
 11745  1551  0020               	movlb	0	; select bank0
 11746  1552  00C0               	movwf	dtoa@w
 11747  1553                     l3464:
 11748                           
 11749                           ;C:\Program Files\Microchip\xc8\v2.32\pic\sources\c99\common\doprnt.c: 305:     if (s ||
      +                           (flags & (1 << 2))) {
 11750  1553  0842               	movf	dtoa@s,w
 11751  1554  0443               	iorwf	dtoa@s+1,w
 11752  1555  1D03               	btfss	3,2
 11753  1556  2D58               	goto	u5221
 11754  1557  2D59               	goto	u5220
 11755  1558                     u5221:
 11756  1558  2D5E               	goto	l3468
 11757  1559                     u5220:
 11758  1559                     l3466:
 11759  1559  0022               	movlb	2	; select bank2
 11760  155A  1D5C               	btfss	_flags^(0+256),2
 11761  155B  2D5D               	goto	u5231
 11762  155C  2D5E               	goto	u5230
 11763  155D                     u5231:
 11764  155D  2D63               	goto	l803
 11765  155E                     u5230:
 11766  155E                     l3468:
 11767                           
 11768                           ;C:\Program Files\Microchip\xc8\v2.32\pic\sources\c99\common\doprnt.c: 306:         --w;
 11769  155E  30FF               	movlw	255
 11770  155F  0020               	movlb	0	; select bank0
 11771  1560  07C0               	addwf	dtoa@w,f
 11772  1561  30FF               	movlw	255
 11773  1562  3DC1               	addwfc	dtoa@w+1,f
 11774  1563                     l803:	
 11775                           ;C:\Program Files\Microchip\xc8\v2.32\pic\sources\c99\common\doprnt.c: 307:     }
 11776                           
 11777                           
 11778                           ;C:\Program Files\Microchip\xc8\v2.32\pic\sources\c99\common\doprnt.c: 310:     i = size
      +                          of(dbuf) - 1;
 11779  1563  304F               	movlw	79
 11780  1564  0020               	movlb	0	; select bank0
 11781  1565  00CC               	movwf	dtoa@i
 11782  1566  3000               	movlw	0
 11783  1567  00CD               	movwf	dtoa@i+1
 11784  1568                     l3470:
 11785                           
 11786                           ;C:\Program Files\Microchip\xc8\v2.32\pic\sources\c99\common\doprnt.c: 311:     dbuf[i] 
      +                          = '\0';
 11787  1568  0023               	movlb	3	; select bank3
 11788  1569  01EF               	clrf	(_dbuf^(0+384)+79)
 11789                           
 11790                           ;C:\Program Files\Microchip\xc8\v2.32\pic\sources\c99\common\doprnt.c: 312:     while (!
      +                          (i < 1) && (n || (0 < p) || ((0 < w) && (flags & (1 << 1))))) {
 11791  156A  2DD4               	goto	l806
 11792  156B                     l3472:
 11793                           
 11794                           ;C:\Program Files\Microchip\xc8\v2.32\pic\sources\c99\common\doprnt.c: 313:         --i;
 11795  156B  30FF               	movlw	255
 11796  156C  0020               	movlb	0	; select bank0
 11797  156D  07CC               	addwf	dtoa@i,f
 11798  156E  30FF               	movlw	255
 11799  156F  3DCD               	addwfc	dtoa@i+1,f
 11800  1570                     l3474:
 11801                           
 11802                           ;C:\Program Files\Microchip\xc8\v2.32\pic\sources\c99\common\doprnt.c: 314:         dbuf
      +                          [i] = (char)((int)'0' + abs(n % 10));
 11803  1570  300A               	movlw	10
 11804  1571  00A0               	movwf	___aomod@divisor
 11805  1572  01A1               	clrf	___aomod@divisor+1
 11806  1573  01A2               	clrf	___aomod@divisor+2
 11807  1574  01A3               	clrf	___aomod@divisor+3
 11808  1575  01A4               	clrf	___aomod@divisor+4
 11809  1576  01A5               	clrf	___aomod@divisor+5
 11810  1577  01A6               	clrf	___aomod@divisor+6
 11811  1578  01A7               	clrf	___aomod@divisor+7
 11812  1579  0844               	movf	dtoa@n,w
 11813  157A  00A8               	movwf	___aomod@dividend
 11814  157B  0845               	movf	dtoa@n+1,w
 11815  157C  00A9               	movwf	___aomod@dividend+1
 11816  157D  0846               	movf	dtoa@n+2,w
 11817  157E  00AA               	movwf	___aomod@dividend+2
 11818  157F  0847               	movf	dtoa@n+3,w
 11819  1580  00AB               	movwf	___aomod@dividend+3
 11820  1581  0848               	movf	dtoa@n+4,w
 11821  1582  00AC               	movwf	___aomod@dividend+4
 11822  1583  0849               	movf	dtoa@n+5,w
 11823  1584  00AD               	movwf	___aomod@dividend+5
 11824  1585  084A               	movf	dtoa@n+6,w
 11825  1586  00AE               	movwf	___aomod@dividend+6
 11826  1587  084B               	movf	dtoa@n+7,w
 11827  1588  00AF               	movwf	___aomod@dividend+7
 11828  1589  3192  2206  3194   	fcall	___aomod
 11829  158C  0020               	movlb	0	; select bank0
 11830  158D  0821               	movf	?___aomod+1,w
 11831  158E  00F4               	movwf	abs@a+1
 11832  158F  0820               	movf	?___aomod,w
 11833  1590  00F3               	movwf	abs@a
 11834  1591  319C  2447  3194   	fcall	_abs
 11835  1594  0873               	movf	?_abs,w
 11836  1595  3E30               	addlw	48
 11837  1596  0020               	movlb	0	; select bank0
 11838  1597  00B8               	movwf	??_dtoa
 11839  1598  084C               	movf	dtoa@i,w
 11840  1599  3EA0               	addlw	(low (_dbuf| (0+256)))& (0+255)
 11841  159A  0086               	movwf	6
 11842  159B  3001               	movlw	1	; select bank3/4
 11843  159C  0087               	movwf	7
 11844  159D  0838               	movf	??_dtoa,w
 11845  159E  0081               	movwf	1
 11846  159F                     l3476:
 11847                           
 11848                           ;C:\Program Files\Microchip\xc8\v2.32\pic\sources\c99\common\doprnt.c: 315:         --p;
 11849  159F  30FF               	movlw	255
 11850  15A0  07BE               	addwf	dtoa@p,f
 11851  15A1  30FF               	movlw	255
 11852  15A2  3DBF               	addwfc	dtoa@p+1,f
 11853  15A3                     l3478:
 11854                           
 11855                           ;C:\Program Files\Microchip\xc8\v2.32\pic\sources\c99\common\doprnt.c: 316:         --w;
 11856  15A3  30FF               	movlw	255
 11857  15A4  07C0               	addwf	dtoa@w,f
 11858  15A5  30FF               	movlw	255
 11859  15A6  3DC1               	addwfc	dtoa@w+1,f
 11860  15A7                     l3480:
 11861                           
 11862                           ;C:\Program Files\Microchip\xc8\v2.32\pic\sources\c99\common\doprnt.c: 317:         n = 
      +                          n / 10;
 11863  15A7  300A               	movlw	10
 11864  15A8  00A0               	movwf	___aodiv@divisor
 11865  15A9  01A1               	clrf	___aodiv@divisor+1
 11866  15AA  01A2               	clrf	___aodiv@divisor+2
 11867  15AB  01A3               	clrf	___aodiv@divisor+3
 11868  15AC  01A4               	clrf	___aodiv@divisor+4
 11869  15AD  01A5               	clrf	___aodiv@divisor+5
 11870  15AE  01A6               	clrf	___aodiv@divisor+6
 11871  15AF  01A7               	clrf	___aodiv@divisor+7
 11872  15B0  0844               	movf	dtoa@n,w
 11873  15B1  00A8               	movwf	___aodiv@dividend
 11874  15B2  0845               	movf	dtoa@n+1,w
 11875  15B3  00A9               	movwf	___aodiv@dividend+1
 11876  15B4  0846               	movf	dtoa@n+2,w
 11877  15B5  00AA               	movwf	___aodiv@dividend+2
 11878  15B6  0847               	movf	dtoa@n+3,w
 11879  15B7  00AB               	movwf	___aodiv@dividend+3
 11880  15B8  0848               	movf	dtoa@n+4,w
 11881  15B9  00AC               	movwf	___aodiv@dividend+4
 11882  15BA  0849               	movf	dtoa@n+5,w
 11883  15BB  00AD               	movwf	___aodiv@dividend+5
 11884  15BC  084A               	movf	dtoa@n+6,w
 11885  15BD  00AE               	movwf	___aodiv@dividend+6
 11886  15BE  084B               	movf	dtoa@n+7,w
 11887  15BF  00AF               	movwf	___aodiv@dividend+7
 11888  15C0  3193  23DB  3194   	fcall	___aodiv
 11889  15C3  0020               	movlb	0	; select bank0
 11890  15C4  0820               	movf	?___aodiv,w
 11891  15C5  00C4               	movwf	dtoa@n
 11892  15C6  0821               	movf	?___aodiv+1,w
 11893  15C7  00C5               	movwf	dtoa@n+1
 11894  15C8  0822               	movf	?___aodiv+2,w
 11895  15C9  00C6               	movwf	dtoa@n+2
 11896  15CA  0823               	movf	?___aodiv+3,w
 11897  15CB  00C7               	movwf	dtoa@n+3
 11898  15CC  0824               	movf	?___aodiv+4,w
 11899  15CD  00C8               	movwf	dtoa@n+4
 11900  15CE  0825               	movf	?___aodiv+5,w
 11901  15CF  00C9               	movwf	dtoa@n+5
 11902  15D0  0826               	movf	?___aodiv+6,w
 11903  15D1  00CA               	movwf	dtoa@n+6
 11904  15D2  0827               	movf	?___aodiv+7,w
 11905  15D3  00CB               	movwf	dtoa@n+7
 11906  15D4                     l806:	
 11907                           ;C:\Program Files\Microchip\xc8\v2.32\pic\sources\c99\common\doprnt.c: 318:     }
 11908                           
 11909                           
 11910                           ;C:\Program Files\Microchip\xc8\v2.32\pic\sources\c99\common\doprnt.c: 312:     while (!
      +                          (i < 1) && (n || (0 < p) || ((0 < w) && (flags & (1 << 1))))) {
 11911  15D4  0020               	movlb	0	; select bank0
 11912  15D5  084D               	movf	dtoa@i+1,w
 11913  15D6  3A80               	xorlw	128
 11914  15D7  00B8               	movwf	??_dtoa
 11915  15D8  3080               	movlw	128
 11916  15D9  0238               	subwf	??_dtoa,w
 11917  15DA  1D03               	skipz
 11918  15DB  2DDE               	goto	u5245
 11919  15DC  3001               	movlw	1
 11920  15DD  024C               	subwf	dtoa@i,w
 11921  15DE                     u5245:
 11922  15DE  1C03               	skipc
 11923  15DF  2DE1               	goto	u5241
 11924  15E0  2DE2               	goto	u5240
 11925  15E1                     u5241:
 11926  15E1  2E0F               	goto	l3490
 11927  15E2                     u5240:
 11928  15E2                     l3482:
 11929  15E2  0020               	movlb	0	; select bank0
 11930  15E3  0844               	movf	dtoa@n,w
 11931  15E4  0445               	iorwf	dtoa@n+1,w
 11932  15E5  0446               	iorwf	dtoa@n+2,w
 11933  15E6  0447               	iorwf	dtoa@n+3,w
 11934  15E7  0448               	iorwf	dtoa@n+4,w
 11935  15E8  0449               	iorwf	dtoa@n+5,w
 11936  15E9  044A               	iorwf	dtoa@n+6,w
 11937  15EA  044B               	iorwf	dtoa@n+7,w
 11938  15EB  1D03               	skipz
 11939  15EC  2DEE               	goto	u5251
 11940  15ED  2DEF               	goto	u5250
 11941  15EE                     u5251:
 11942  15EE  2D6B               	goto	l3472
 11943  15EF                     u5250:
 11944  15EF                     l3484:
 11945  15EF  083F               	movf	dtoa@p+1,w
 11946  15F0  3A80               	xorlw	128
 11947  15F1  00B8               	movwf	??_dtoa
 11948  15F2  3080               	movlw	128
 11949  15F3  0238               	subwf	??_dtoa,w
 11950  15F4  1D03               	skipz
 11951  15F5  2DF8               	goto	u5265
 11952  15F6  3001               	movlw	1
 11953  15F7  023E               	subwf	dtoa@p,w
 11954  15F8                     u5265:
 11955  15F8  1803               	skipnc
 11956  15F9  2DFB               	goto	u5261
 11957  15FA  2DFC               	goto	u5260
 11958  15FB                     u5261:
 11959  15FB  2D6B               	goto	l3472
 11960  15FC                     u5260:
 11961  15FC                     l3486:
 11962  15FC  0020               	movlb	0	; select bank0
 11963  15FD  0841               	movf	dtoa@w+1,w
 11964  15FE  3A80               	xorlw	128
 11965  15FF  00B8               	movwf	??_dtoa
 11966  1600  3080               	movlw	128
 11967  1601  0238               	subwf	??_dtoa,w
 11968  1602  1D03               	skipz
 11969  1603  2E06               	goto	u5275
 11970  1604  3001               	movlw	1
 11971  1605  0240               	subwf	dtoa@w,w
 11972  1606                     u5275:
 11973  1606  1C03               	skipc
 11974  1607  2E09               	goto	u5271
 11975  1608  2E0A               	goto	u5270
 11976  1609                     u5271:
 11977  1609  2E0F               	goto	l3490
 11978  160A                     u5270:
 11979  160A                     l3488:
 11980  160A  0022               	movlb	2	; select bank2
 11981  160B  18DC               	btfsc	_flags^(0+256),1
 11982  160C  2E0E               	goto	u5281
 11983  160D  2E0F               	goto	u5280
 11984  160E                     u5281:
 11985  160E  2D6B               	goto	l3472
 11986  160F                     u5280:
 11987  160F                     l3490:
 11988                           
 11989                           ;C:\Program Files\Microchip\xc8\v2.32\pic\sources\c99\common\doprnt.c: 321:     if (s ||
      +                           (flags & (1 << 2))) {
 11990  160F  0020               	movlb	0	; select bank0
 11991  1610  0842               	movf	dtoa@s,w
 11992  1611  0443               	iorwf	dtoa@s+1,w
 11993  1612  1D03               	btfss	3,2
 11994  1613  2E15               	goto	u5291
 11995  1614  2E16               	goto	u5290
 11996  1615                     u5291:
 11997  1615  2E1B               	goto	l3494
 11998  1616                     u5290:
 11999  1616                     l3492:
 12000  1616  0022               	movlb	2	; select bank2
 12001  1617  1D5C               	btfss	_flags^(0+256),2
 12002  1618  2E1A               	goto	u5301
 12003  1619  2E1B               	goto	u5300
 12004  161A                     u5301:
 12005  161A  2E38               	goto	l3504
 12006  161B                     u5300:
 12007  161B                     l3494:
 12008                           
 12009                           ;C:\Program Files\Microchip\xc8\v2.32\pic\sources\c99\common\doprnt.c: 322:         --i;
 12010  161B  30FF               	movlw	255
 12011  161C  0020               	movlb	0	; select bank0
 12012  161D  07CC               	addwf	dtoa@i,f
 12013  161E  30FF               	movlw	255
 12014  161F  3DCD               	addwfc	dtoa@i+1,f
 12015  1620                     l3496:
 12016                           
 12017                           ;C:\Program Files\Microchip\xc8\v2.32\pic\sources\c99\common\doprnt.c: 323:         dbuf
      +                          [i] = s ? '-' : '+';
 12018  1620  0842               	movf	dtoa@s,w
 12019  1621  0443               	iorwf	dtoa@s+1,w
 12020  1622  1D03               	btfss	3,2
 12021  1623  2E25               	goto	u5311
 12022  1624  2E26               	goto	u5310
 12023  1625                     u5311:
 12024  1625  2E2B               	goto	l3500
 12025  1626                     u5310:
 12026  1626                     l3498:
 12027  1626  302B               	movlw	43
 12028  1627  00BB               	movwf	_dtoa$701
 12029  1628  3000               	movlw	0
 12030  1629  00BC               	movwf	_dtoa$701+1
 12031  162A  2E2F               	goto	l3502
 12032  162B                     l3500:
 12033  162B  302D               	movlw	45
 12034  162C  00BB               	movwf	_dtoa$701
 12035  162D  3000               	movlw	0
 12036  162E  00BC               	movwf	_dtoa$701+1
 12037  162F                     l3502:
 12038  162F  083B               	movf	_dtoa$701,w
 12039  1630  00B8               	movwf	??_dtoa
 12040  1631  084C               	movf	dtoa@i,w
 12041  1632  3EA0               	addlw	(low (_dbuf| (0+256)))& (0+255)
 12042  1633  0086               	movwf	6
 12043  1634  3001               	movlw	1	; select bank3/4
 12044  1635  0087               	movwf	7
 12045  1636  0838               	movf	??_dtoa,w
 12046  1637  0081               	movwf	1
 12047  1638                     l3504:
 12048                           
 12049                           ;C:\Program Files\Microchip\xc8\v2.32\pic\sources\c99\common\doprnt.c: 327:     return p
      +                          ad(fp, &dbuf[i], w);
 12050  1638  0020               	movlb	0	; select bank0
 12051  1639  084C               	movf	dtoa@i,w
 12052  163A  3EA0               	addlw	(low (_dbuf| (0+256)))& (0+255)
 12053  163B  00B8               	movwf	??_dtoa
 12054  163C  0838               	movf	??_dtoa,w
 12055  163D  00A7               	movwf	pad@buf
 12056  163E  0841               	movf	dtoa@w+1,w
 12057  163F  00A9               	movwf	pad@p+1
 12058  1640  0840               	movf	dtoa@w,w
 12059  1641  00A8               	movwf	pad@p
 12060  1642  083D               	movf	dtoa@fp,w
 12061  1643  319F  274D  3194   	fcall	_pad
 12062  1646  0020               	movlb	0	; select bank0
 12063  1647  0828               	movf	?_pad+1,w
 12064  1648  00B1               	movwf	?_dtoa+1
 12065  1649  0827               	movf	?_pad,w
 12066  164A  00B0               	movwf	?_dtoa
 12067  164B                     l820:
 12068  164B  0008               	return
 12069  164C                     __end_of_dtoa:
 12070                           
 12071                           	psect	text27
 12072  1F4D                     __ptext27:	
 12073 ;; *************** function _pad *****************
 12074 ;; Defined at:
 12075 ;;		line 72 in file "C:\Program Files\Microchip\xc8\v2.32\pic\sources\c99\common\doprnt.c"
 12076 ;; Parameters:    Size  Location     Type
 12077 ;;  fp              1    wreg     PTR struct _IO_FILE
 12078 ;;		 -> NULL(0), sprintf@f(5), 
 12079 ;;  buf             1    7[BANK0 ] PTR unsigned char 
 12080 ;;		 -> dbuf(80), 
 12081 ;;  p               2    8[BANK0 ] int 
 12082 ;; Auto vars:     Size  Location     Type
 12083 ;;  fp              1   14[BANK0 ] PTR struct _IO_FILE
 12084 ;;		 -> NULL(0), sprintf@f(5), 
 12085 ;;  w               2   12[BANK0 ] int 
 12086 ;;  i               2   10[BANK0 ] int 
 12087 ;; Return value:  Size  Location     Type
 12088 ;;                  2    7[BANK0 ] int 
 12089 ;; Registers used:
 12090 ;;		wreg, fsr0l, fsr0h, fsr1l, fsr1h, status,2, status,0, pclath, cstack
 12091 ;; Tracked objects:
 12092 ;;		On entry : 0/0
 12093 ;;		On exit  : 0/0
 12094 ;;		Unchanged: 0/0
 12095 ;; Data sizes:     COMMON   BANK0   BANK1   BANK2   BANK3   BANK4   BANK5   BANK6   BANK7   BANK8   BANK9  BANK10  BANK1
      +1  BANK12
 12096 ;;      Params:         0       3       0       0       0       0       0       0       0       0       0       0       
      +0       0
 12097 ;;      Locals:         0       5       0       0       0       0       0       0       0       0       0       0       
      +0       0
 12098 ;;      Temps:          1       0       0       0       0       0       0       0       0       0       0       0       
      +0       0
 12099 ;;      Totals:         1       8       0       0       0       0       0       0       0       0       0       0       
      +0       0
 12100 ;;Total ram usage:        9 bytes
 12101 ;; Hardware stack levels used: 1
 12102 ;; Hardware stack levels required when called: 4
 12103 ;; This function calls:
 12104 ;;		_fputc
 12105 ;;		_fputs
 12106 ;;		_strlen
 12107 ;; This function is called by:
 12108 ;;		_dtoa
 12109 ;;		_efgtoa
 12110 ;; This function uses a non-reentrant model
 12111 ;;
 12112                           
 12113                           
 12114                           ;psect for function _pad
 12115  1F4D                     _pad:
 12116                           
 12117                           ;incstack = 0
 12118                           ; Regs used in _pad: [wreg-fsr1h+status,2+status,0+pclath+cstack]
 12119                           ;pad@fp stored from wreg
 12120  1F4D  0020               	movlb	0	; select bank0
 12121  1F4E  00AE               	movwf	pad@fp
 12122  1F4F                     l3356:
 12123                           
 12124                           ;C:\Program Files\Microchip\xc8\v2.32\pic\sources\c99\common\doprnt.c: 72: static int pa
      +                          d(FILE *fp, char *buf, int p);C:\Program Files\Microchip\xc8\v2.32\pic\sources\c99\commo
      +                          n\doprnt.c: 73: {;C:\Program Files\Microchip\xc8\v2.32\pic\sources\c99\common\doprnt.c: 
      +                          74:     int i, w;;C:\Program Files\Microchip\xc8\v2.32\pic\sources\c99\common\doprnt.c: 
      +                          77:     if (flags & (1 << 0)) {
 12125  1F4F  0022               	movlb	2	; select bank2
 12126  1F50  1C5C               	btfss	_flags^(0+256),0
 12127  1F51  2F53               	goto	u4881
 12128  1F52  2F54               	goto	u4880
 12129  1F53                     u4881:
 12130  1F53  2F5D               	goto	l3360
 12131  1F54                     u4880:
 12132  1F54                     l3358:
 12133                           
 12134                           ;C:\Program Files\Microchip\xc8\v2.32\pic\sources\c99\common\doprnt.c: 78:         fputs
      +                          ((const char *)buf, fp);
 12135  1F54  0020               	movlb	0	; select bank0
 12136  1F55  082E               	movf	pad@fp,w
 12137  1F56  00FC               	movwf	??_pad
 12138  1F57  087C               	movf	??_pad,w
 12139  1F58  00FB               	movwf	fputs@fp
 12140  1F59  0827               	movf	pad@buf,w
 12141  1F5A  319D  253D  319F   	fcall	_fputs
 12142  1F5D                     l3360:
 12143                           
 12144                           ;C:\Program Files\Microchip\xc8\v2.32\pic\sources\c99\common\doprnt.c: 82:     w = (p < 
      +                          0) ? 0 : p;
 12145  1F5D  0020               	movlb	0	; select bank0
 12146  1F5E  1BA9               	btfsc	pad@p+1,7
 12147  1F5F  2F61               	goto	u4891
 12148  1F60  2F62               	goto	u4890
 12149  1F61                     u4891:
 12150  1F61  2F67               	goto	l3364
 12151  1F62                     u4890:
 12152  1F62                     l3362:
 12153  1F62  0829               	movf	pad@p+1,w
 12154  1F63  00AD               	movwf	pad@w+1
 12155  1F64  0828               	movf	pad@p,w
 12156  1F65  00AC               	movwf	pad@w
 12157  1F66  2F69               	goto	l789
 12158  1F67                     l3364:
 12159  1F67  01AC               	clrf	pad@w
 12160  1F68  01AD               	clrf	pad@w+1
 12161  1F69                     l789:
 12162                           
 12163                           ;C:\Program Files\Microchip\xc8\v2.32\pic\sources\c99\common\doprnt.c: 83:     i = 0;
 12164  1F69  01AA               	clrf	pad@i
 12165  1F6A  01AB               	clrf	pad@i+1
 12166                           
 12167                           ;C:\Program Files\Microchip\xc8\v2.32\pic\sources\c99\common\doprnt.c: 84:     while (i 
      +                          < w) {
 12168  1F6B  2F7D               	goto	l3370
 12169  1F6C                     l3366:
 12170                           
 12171                           ;C:\Program Files\Microchip\xc8\v2.32\pic\sources\c99\common\doprnt.c: 85:         fputc
      +                          (' ', fp);
 12172  1F6C  3020               	movlw	32
 12173  1F6D  00F3               	movwf	fputc@c
 12174  1F6E  3000               	movlw	0
 12175  1F6F  00F4               	movwf	fputc@c+1
 12176  1F70  0020               	movlb	0	; select bank0
 12177  1F71  082E               	movf	pad@fp,w
 12178  1F72  00FC               	movwf	??_pad
 12179  1F73  087C               	movf	??_pad,w
 12180  1F74  00F5               	movwf	fputc@fp
 12181  1F75  319E  2652  319F   	fcall	_fputc
 12182  1F78                     l3368:
 12183                           
 12184                           ;C:\Program Files\Microchip\xc8\v2.32\pic\sources\c99\common\doprnt.c: 86:         ++i;
 12185  1F78  3001               	movlw	1
 12186  1F79  0020               	movlb	0	; select bank0
 12187  1F7A  07AA               	addwf	pad@i,f
 12188  1F7B  3000               	movlw	0
 12189  1F7C  3DAB               	addwfc	pad@i+1,f
 12190  1F7D                     l3370:
 12191                           
 12192                           ;C:\Program Files\Microchip\xc8\v2.32\pic\sources\c99\common\doprnt.c: 84:     while (i 
      +                          < w) {
 12193  1F7D  082B               	movf	pad@i+1,w
 12194  1F7E  3A80               	xorlw	128
 12195  1F7F  00FC               	movwf	??_pad
 12196  1F80  082D               	movf	pad@w+1,w
 12197  1F81  3A80               	xorlw	128
 12198  1F82  027C               	subwf	??_pad,w
 12199  1F83  1D03               	skipz
 12200  1F84  2F87               	goto	u4905
 12201  1F85  082C               	movf	pad@w,w
 12202  1F86  022A               	subwf	pad@i,w
 12203  1F87                     u4905:
 12204  1F87  1C03               	skipc
 12205  1F88  2F8A               	goto	u4901
 12206  1F89  2F8B               	goto	u4900
 12207  1F8A                     u4901:
 12208  1F8A  2F6C               	goto	l3366
 12209  1F8B                     u4900:
 12210  1F8B                     l792:
 12211                           
 12212                           ;C:\Program Files\Microchip\xc8\v2.32\pic\sources\c99\common\doprnt.c: 90:     if (!(fla
      +                          gs & (1 << 0))) {
 12213  1F8B  0022               	movlb	2	; select bank2
 12214  1F8C  185C               	btfsc	_flags^(0+256),0
 12215  1F8D  2F8F               	goto	u4911
 12216  1F8E  2F90               	goto	u4910
 12217  1F8F                     u4911:
 12218  1F8F  2F99               	goto	l3374
 12219  1F90                     u4910:
 12220  1F90                     l3372:
 12221                           
 12222                           ;C:\Program Files\Microchip\xc8\v2.32\pic\sources\c99\common\doprnt.c: 91:         fputs
      +                          ((const char *)buf, fp);
 12223  1F90  0020               	movlb	0	; select bank0
 12224  1F91  082E               	movf	pad@fp,w
 12225  1F92  00FC               	movwf	??_pad
 12226  1F93  087C               	movf	??_pad,w
 12227  1F94  00FB               	movwf	fputs@fp
 12228  1F95  0827               	movf	pad@buf,w
 12229  1F96  319D  253D  319F   	fcall	_fputs
 12230  1F99                     l3374:
 12231                           
 12232                           ;C:\Program Files\Microchip\xc8\v2.32\pic\sources\c99\common\doprnt.c: 94:     return (i
      +                          nt)(strlen(buf) + (size_t)w);
 12233  1F99  0020               	movlb	0	; select bank0
 12234  1F9A  0827               	movf	pad@buf,w
 12235  1F9B  319C  2461  319F   	fcall	_strlen
 12236  1F9E  0020               	movlb	0	; select bank0
 12237  1F9F  082C               	movf	pad@w,w
 12238  1FA0  0770               	addwf	?_strlen,w
 12239  1FA1  00A7               	movwf	?_pad
 12240  1FA2  082D               	movf	pad@w+1,w
 12241  1FA3  3D71               	addwfc	?_strlen+1,w
 12242  1FA4  00A8               	movwf	?_pad+1
 12243  1FA5                     l794:
 12244  1FA5  0008               	return
 12245  1FA6                     __end_of_pad:
 12246                           
 12247                           	psect	text28
 12248  1C61                     __ptext28:	
 12249 ;; *************** function _strlen *****************
 12250 ;; Defined at:
 12251 ;;		line 5 in file "C:\Program Files\Microchip\xc8\v2.32\pic\sources\c99\common\strlen.c"
 12252 ;; Parameters:    Size  Location     Type
 12253 ;;  s               1    wreg     PTR const unsigned char 
 12254 ;;		 -> dbuf(80), 
 12255 ;; Auto vars:     Size  Location     Type
 12256 ;;  s               1    4[COMMON] PTR const unsigned char 
 12257 ;;		 -> dbuf(80), 
 12258 ;;  a               1    3[COMMON] PTR const unsigned char 
 12259 ;;		 -> dbuf(80), 
 12260 ;; Return value:  Size  Location     Type
 12261 ;;                  2    0[COMMON] unsigned int 
 12262 ;; Registers used:
 12263 ;;		wreg, fsr1l, fsr1h, status,2, status,0
 12264 ;; Tracked objects:
 12265 ;;		On entry : 0/0
 12266 ;;		On exit  : 0/0
 12267 ;;		Unchanged: 0/0
 12268 ;; Data sizes:     COMMON   BANK0   BANK1   BANK2   BANK3   BANK4   BANK5   BANK6   BANK7   BANK8   BANK9  BANK10  BANK1
      +1  BANK12
 12269 ;;      Params:         2       0       0       0       0       0       0       0       0       0       0       0       
      +0       0
 12270 ;;      Locals:         2       0       0       0       0       0       0       0       0       0       0       0       
      +0       0
 12271 ;;      Temps:          1       0       0       0       0       0       0       0       0       0       0       0       
      +0       0
 12272 ;;      Totals:         5       0       0       0       0       0       0       0       0       0       0       0       
      +0       0
 12273 ;;Total ram usage:        5 bytes
 12274 ;; Hardware stack levels used: 1
 12275 ;; This function calls:
 12276 ;;		Nothing
 12277 ;; This function is called by:
 12278 ;;		_pad
 12279 ;; This function uses a non-reentrant model
 12280 ;;
 12281                           
 12282                           
 12283                           ;psect for function _strlen
 12284  1C61                     _strlen:
 12285                           
 12286                           ;incstack = 0
 12287                           ; Regs used in _strlen: [wreg+fsr1l+fsr1h+status,2+status,0]
 12288                           ;strlen@s stored from wreg
 12289  1C61  00F4               	movwf	strlen@s
 12290  1C62                     l2830:
 12291  1C62  0874               	movf	strlen@s,w
 12292  1C63  00F2               	movwf	??_strlen
 12293  1C64  0872               	movf	??_strlen,w
 12294  1C65  00F3               	movwf	strlen@a
 12295  1C66  2C6B               	goto	l2834
 12296  1C67                     l2832:
 12297  1C67  3001               	movlw	1
 12298  1C68  00F2               	movwf	??_strlen
 12299  1C69  0872               	movf	??_strlen,w
 12300  1C6A  07F4               	addwf	strlen@s,f
 12301  1C6B                     l2834:
 12302  1C6B  0874               	movf	strlen@s,w
 12303  1C6C  0086               	movwf	6
 12304  1C6D  3001               	movlw	1	; select bank2/3
 12305  1C6E  0087               	movwf	7
 12306  1C6F  0801               	movf	1,w
 12307  1C70  1D03               	btfss	3,2
 12308  1C71  2C73               	goto	u3711
 12309  1C72  2C74               	goto	u3710
 12310  1C73                     u3711:
 12311  1C73  2C67               	goto	l2832
 12312  1C74                     u3710:
 12313  1C74                     l2836:
 12314  1C74  0873               	movf	strlen@a,w
 12315  1C75  0274               	subwf	strlen@s,w
 12316  1C76  00F0               	movwf	?_strlen
 12317  1C77  01F1               	clrf	?_strlen+1
 12318  1C78  1BF0               	btfsc	?_strlen,7
 12319  1C79  03F1               	decf	?_strlen+1,f
 12320  1C7A                     l1014:
 12321  1C7A  0008               	return
 12322  1C7B                     __end_of_strlen:
 12323                           
 12324                           	psect	text29
 12325  1D3D                     __ptext29:	
 12326 ;; *************** function _fputs *****************
 12327 ;; Defined at:
 12328 ;;		line 8 in file "C:\Program Files\Microchip\xc8\v2.32\pic\sources\c99\common\nf_fputs.c"
 12329 ;; Parameters:    Size  Location     Type
 12330 ;;  s               1    wreg     PTR const unsigned char 
 12331 ;;		 -> dbuf(80), 
 12332 ;;  fp              1   11[COMMON] PTR struct _IO_FILE
 12333 ;;		 -> NULL(0), sprintf@f(5), 
 12334 ;; Auto vars:     Size  Location     Type
 12335 ;;  s               1    6[BANK0 ] PTR const unsigned char 
 12336 ;;		 -> dbuf(80), 
 12337 ;;  i               2    4[BANK0 ] int 
 12338 ;;  c               1    3[BANK0 ] unsigned char 
 12339 ;; Return value:  Size  Location     Type
 12340 ;;                  2   11[COMMON] int 
 12341 ;; Registers used:
 12342 ;;		wreg, fsr0l, fsr0h, fsr1l, fsr1h, status,2, status,0, pclath, cstack
 12343 ;; Tracked objects:
 12344 ;;		On entry : 0/0
 12345 ;;		On exit  : 0/0
 12346 ;;		Unchanged: 0/0
 12347 ;; Data sizes:     COMMON   BANK0   BANK1   BANK2   BANK3   BANK4   BANK5   BANK6   BANK7   BANK8   BANK9  BANK10  BANK1
      +1  BANK12
 12348 ;;      Params:         1       0       0       0       0       0       0       0       0       0       0       0       
      +0       0
 12349 ;;      Locals:         0       4       0       0       0       0       0       0       0       0       0       0       
      +0       0
 12350 ;;      Temps:          0       3       0       0       0       0       0       0       0       0       0       0       
      +0       0
 12351 ;;      Totals:         1       7       0       0       0       0       0       0       0       0       0       0       
      +0       0
 12352 ;;Total ram usage:        8 bytes
 12353 ;; Hardware stack levels used: 1
 12354 ;; Hardware stack levels required when called: 3
 12355 ;; This function calls:
 12356 ;;		_fputc
 12357 ;; This function is called by:
 12358 ;;		_pad
 12359 ;; This function uses a non-reentrant model
 12360 ;;
 12361                           
 12362                           
 12363                           ;psect for function _fputs
 12364  1D3D                     _fputs:
 12365                           
 12366                           ;incstack = 0
 12367                           ; Regs used in _fputs: [wreg-fsr1h+status,2+status,0+pclath+cstack]
 12368                           ;fputs@s stored from wreg
 12369  1D3D  0020               	movlb	0	; select bank0
 12370  1D3E  00A6               	movwf	fputs@s
 12371  1D3F                     l2822:
 12372  1D3F  01A4               	clrf	fputs@i
 12373  1D40  01A5               	clrf	fputs@i+1
 12374  1D41  2D55               	goto	l2828
 12375  1D42                     l2824:
 12376  1D42  0823               	movf	fputs@c,w
 12377  1D43  00A0               	movwf	??_fputs
 12378  1D44  01A1               	clrf	??_fputs+1
 12379  1D45  0820               	movf	??_fputs,w
 12380  1D46  00F3               	movwf	fputc@c
 12381  1D47  0821               	movf	??_fputs+1,w
 12382  1D48  00F4               	movwf	fputc@c+1
 12383  1D49  087B               	movf	fputs@fp,w
 12384  1D4A  00A2               	movwf	??_fputs+2
 12385  1D4B  0822               	movf	??_fputs+2,w
 12386  1D4C  00F5               	movwf	fputc@fp
 12387  1D4D  319E  2652  319D   	fcall	_fputc
 12388  1D50                     l2826:
 12389  1D50  3001               	movlw	1
 12390  1D51  0020               	movlb	0	; select bank0
 12391  1D52  07A4               	addwf	fputs@i,f
 12392  1D53  3000               	movlw	0
 12393  1D54  3DA5               	addwfc	fputs@i+1,f
 12394  1D55                     l2828:
 12395  1D55  0824               	movf	fputs@i,w
 12396  1D56  0726               	addwf	fputs@s,w
 12397  1D57  00A0               	movwf	??_fputs
 12398  1D58  0820               	movf	??_fputs,w
 12399  1D59  0086               	movwf	6
 12400  1D5A  3001               	movlw	1	; select bank2/3
 12401  1D5B  0087               	movwf	7
 12402  1D5C  0801               	movf	1,w
 12403  1D5D  00A1               	movwf	??_fputs+1
 12404  1D5E  0821               	movf	??_fputs+1,w
 12405  1D5F  00A3               	movwf	fputs@c
 12406  1D60  0823               	movf	fputs@c,w
 12407  1D61  1D03               	btfss	3,2
 12408  1D62  2D64               	goto	u3701
 12409  1D63  2D65               	goto	u3700
 12410  1D64                     u3701:
 12411  1D64  2D42               	goto	l2824
 12412  1D65                     u3700:
 12413  1D65                     l995:
 12414  1D65  0008               	return
 12415  1D66                     __end_of_fputs:
 12416                           
 12417                           	psect	text30
 12418  1E52                     __ptext30:	
 12419 ;; *************** function _fputc *****************
 12420 ;; Defined at:
 12421 ;;		line 8 in file "C:\Program Files\Microchip\xc8\v2.32\pic\sources\c99\common\nf_fputc.c"
 12422 ;; Parameters:    Size  Location     Type
 12423 ;;  c               2    3[COMMON] int 
 12424 ;;  fp              1    5[COMMON] PTR struct _IO_FILE
 12425 ;;		 -> NULL(0), sprintf@f(5), 
 12426 ;; Auto vars:     Size  Location     Type
 12427 ;;		None
 12428 ;; Return value:  Size  Location     Type
 12429 ;;                  2    3[COMMON] int 
 12430 ;; Registers used:
 12431 ;;		wreg, fsr0l, fsr0h, fsr1l, fsr1h, status,2, status,0, pclath, cstack
 12432 ;; Tracked objects:
 12433 ;;		On entry : 0/0
 12434 ;;		On exit  : 0/0
 12435 ;;		Unchanged: 0/0
 12436 ;; Data sizes:     COMMON   BANK0   BANK1   BANK2   BANK3   BANK4   BANK5   BANK6   BANK7   BANK8   BANK9  BANK10  BANK1
      +1  BANK12
 12437 ;;      Params:         3       0       0       0       0       0       0       0       0       0       0       0       
      +0       0
 12438 ;;      Locals:         0       0       0       0       0       0       0       0       0       0       0       0       
      +0       0
 12439 ;;      Temps:          5       0       0       0       0       0       0       0       0       0       0       0       
      +0       0
 12440 ;;      Totals:         8       0       0       0       0       0       0       0       0       0       0       0       
      +0       0
 12441 ;;Total ram usage:        8 bytes
 12442 ;; Hardware stack levels used: 1
 12443 ;; Hardware stack levels required when called: 2
 12444 ;; This function calls:
 12445 ;;		_putch
 12446 ;; This function is called by:
 12447 ;;		_pad
 12448 ;;		_vfpfcnvrt
 12449 ;;		_fputs
 12450 ;; This function uses a non-reentrant model
 12451 ;;
 12452                           
 12453                           
 12454                           ;psect for function _fputc
 12455  1E52                     _fputc:
 12456  1E52                     l2598:	
 12457                           ;incstack = 0
 12458                           ; Regs used in _fputc: [wreg-fsr1h+status,2+status,0+pclath+cstack]
 12459                           
 12460  1E52  0875               	movf	fputc@fp,w
 12461  1E53  1903               	btfsc	3,2
 12462  1E54  2E56               	goto	u3201
 12463  1E55  2E57               	goto	u3200
 12464  1E56                     u3201:
 12465  1E56  2E5C               	goto	l2602
 12466  1E57                     u3200:
 12467  1E57                     l2600:
 12468  1E57  0875               	movf	fputc@fp,w
 12469  1E58  1D03               	btfss	3,2
 12470  1E59  2E5B               	goto	u3211
 12471  1E5A  2E5C               	goto	u3210
 12472  1E5B                     u3211:
 12473  1E5B  2E61               	goto	l2604
 12474  1E5C                     u3210:
 12475  1E5C                     l2602:
 12476  1E5C  0873               	movf	fputc@c,w
 12477  1E5D  319B  23EE  319E   	fcall	_putch
 12478  1E60  2EA1               	goto	l987
 12479  1E61                     l2604:
 12480  1E61  0875               	movf	fputc@fp,w
 12481  1E62  3E03               	addlw	3
 12482  1E63  0086               	movwf	6
 12483  1E64  0187               	clrf	7
 12484  1E65  0016               	moviw fsr1++
 12485  1E66  0401               	iorwf	1,w
 12486  1E67  1903               	btfsc	3,2
 12487  1E68  2E6A               	goto	u3221
 12488  1E69  2E6B               	goto	u3220
 12489  1E6A                     u3221:
 12490  1E6A  2E88               	goto	l2608
 12491  1E6B                     u3220:
 12492  1E6B                     l2606:
 12493  1E6B  0875               	movf	fputc@fp,w
 12494  1E6C  3E03               	addlw	3
 12495  1E6D  0086               	movwf	6
 12496  1E6E  0187               	clrf	7
 12497  1E6F  3F40               	moviw [0]fsr1
 12498  1E70  00F6               	movwf	??_fputc
 12499  1E71  3F41               	moviw [1]fsr1
 12500  1E72  00F7               	movwf	??_fputc+1
 12501  1E73  0A75               	incf	fputc@fp,w
 12502  1E74  0086               	movwf	6
 12503  1E75  0187               	clrf	7
 12504  1E76  3F40               	moviw [0]fsr1
 12505  1E77  00F8               	movwf	??_fputc+2
 12506  1E78  3F41               	moviw [1]fsr1
 12507  1E79  00F9               	movwf	??_fputc+3
 12508  1E7A  0879               	movf	??_fputc+3,w
 12509  1E7B  3A80               	xorlw	128
 12510  1E7C  00FA               	movwf	??_fputc+4
 12511  1E7D  0877               	movf	??_fputc+1,w
 12512  1E7E  3A80               	xorlw	128
 12513  1E7F  027A               	subwf	??_fputc+4,w
 12514  1E80  1D03               	skipz
 12515  1E81  2E84               	goto	u3235
 12516  1E82  0876               	movf	??_fputc,w
 12517  1E83  0278               	subwf	??_fputc+2,w
 12518  1E84                     u3235:
 12519  1E84  1803               	skipnc
 12520  1E85  2E87               	goto	u3231
 12521  1E86  2E88               	goto	u3230
 12522  1E87                     u3231:
 12523  1E87  2EA1               	goto	l987
 12524  1E88                     u3230:
 12525  1E88                     l2608:
 12526  1E88  0873               	movf	fputc@c,w
 12527  1E89  00F6               	movwf	??_fputc
 12528  1E8A  0875               	movf	fputc@fp,w
 12529  1E8B  0086               	movwf	6
 12530  1E8C  0187               	clrf	7
 12531  1E8D  0A75               	incf	fputc@fp,w
 12532  1E8E  0084               	movwf	4
 12533  1E8F  0185               	clrf	5
 12534  1E90  0800               	movf	0,w
 12535  1E91  0701               	addwf	1,w
 12536  1E92  00F7               	movwf	??_fputc+1
 12537  1E93  0877               	movf	??_fputc+1,w
 12538  1E94  0086               	movwf	6
 12539  1E95  3001               	movlw	1	; select bank2/3
 12540  1E96  0087               	movwf	7
 12541  1E97  0876               	movf	??_fputc,w
 12542  1E98  0081               	movwf	1
 12543  1E99                     l2610:
 12544  1E99  0A75               	incf	fputc@fp,w
 12545  1E9A  0086               	movwf	6
 12546  1E9B  0187               	clrf	7
 12547  1E9C  3001               	movlw	1
 12548  1E9D  0781               	addwf	1,f
 12549  1E9E  3141               	addfsr 1,1
 12550  1E9F  1803               	skipnc
 12551  1EA0  0A81               	incf	1,f
 12552  1EA1                     l987:
 12553  1EA1  0008               	return
 12554  1EA2                     __end_of_fputc:
 12555                           
 12556                           	psect	text31
 12557  1BEE                     __ptext31:	
 12558 ;; *************** function _putch *****************
 12559 ;; Defined at:
 12560 ;;		line 64 in file "uart.c"
 12561 ;; Parameters:    Size  Location     Type
 12562 ;;  dato            1    wreg     unsigned char 
 12563 ;; Auto vars:     Size  Location     Type
 12564 ;;  dato            1    2[COMMON] unsigned char 
 12565 ;; Return value:  Size  Location     Type
 12566 ;;                  1    wreg      void 
 12567 ;; Registers used:
 12568 ;;		wreg, status,2, status,0, pclath, cstack
 12569 ;; Tracked objects:
 12570 ;;		On entry : 0/0
 12571 ;;		On exit  : 0/0
 12572 ;;		Unchanged: 0/0
 12573 ;; Data sizes:     COMMON   BANK0   BANK1   BANK2   BANK3   BANK4   BANK5   BANK6   BANK7   BANK8   BANK9  BANK10  BANK1
      +1  BANK12
 12574 ;;      Params:         0       0       0       0       0       0       0       0       0       0       0       0       
      +0       0
 12575 ;;      Locals:         1       0       0       0       0       0       0       0       0       0       0       0       
      +0       0
 12576 ;;      Temps:          0       0       0       0       0       0       0       0       0       0       0       0       
      +0       0
 12577 ;;      Totals:         1       0       0       0       0       0       0       0       0       0       0       0       
      +0       0
 12578 ;;Total ram usage:        1 bytes
 12579 ;; Hardware stack levels used: 1
 12580 ;; Hardware stack levels required when called: 1
 12581 ;; This function calls:
 12582 ;;		_uart_tx
 12583 ;; This function is called by:
 12584 ;;		_fputc
 12585 ;; This function uses a non-reentrant model
 12586 ;;
 12587                           
 12588                           
 12589                           ;psect for function _putch
 12590  1BEE                     _putch:
 12591                           
 12592                           ;incstack = 0
 12593                           ; Regs used in _putch: [wreg+status,2+status,0+pclath+cstack]
 12594                           ;putch@dato stored from wreg
 12595  1BEE  00F2               	movwf	putch@dato
 12596  1BEF                     l2596:
 12597                           
 12598                           ;uart.c: 66:     uart_tx( dato);
 12599  1BEF  0872               	movf	putch@dato,w
 12600  1BF0  3188  2002  319B   	fcall	_uart_tx
 12601  1BF3                     l103:
 12602  1BF3  0008               	return
 12603  1BF4                     __end_of_putch:
 12604                           
 12605                           	psect	text32
 12606  0802                     __ptext32:	
 12607 ;; *************** function _uart_tx *****************
 12608 ;; Defined at:
 12609 ;;		line 31 in file "uart.c"
 12610 ;; Parameters:    Size  Location     Type
 12611 ;;  dato            1    wreg     unsigned char 
 12612 ;; Auto vars:     Size  Location     Type
 12613 ;;  dato            1    1[COMMON] unsigned char 
 12614 ;; Return value:  Size  Location     Type
 12615 ;;                  1    wreg      void 
 12616 ;; Registers used:
 12617 ;;		wreg, status,2, status,0
 12618 ;; Tracked objects:
 12619 ;;		On entry : 0/0
 12620 ;;		On exit  : 0/0
 12621 ;;		Unchanged: 0/0
 12622 ;; Data sizes:     COMMON   BANK0   BANK1   BANK2   BANK3   BANK4   BANK5   BANK6   BANK7   BANK8   BANK9  BANK10  BANK1
      +1  BANK12
 12623 ;;      Params:         0       0       0       0       0       0       0       0       0       0       0       0       
      +0       0
 12624 ;;      Locals:         1       0       0       0       0       0       0       0       0       0       0       0       
      +0       0
 12625 ;;      Temps:          1       0       0       0       0       0       0       0       0       0       0       0       
      +0       0
 12626 ;;      Totals:         2       0       0       0       0       0       0       0       0       0       0       0       
      +0       0
 12627 ;;Total ram usage:        2 bytes
 12628 ;; Hardware stack levels used: 1
 12629 ;; This function calls:
 12630 ;;		Nothing
 12631 ;; This function is called by:
 12632 ;;		_putch
 12633 ;;		_uart_send_string
 12634 ;; This function uses a non-reentrant model
 12635 ;;
 12636                           
 12637                           
 12638                           ;psect for function _uart_tx
 12639  0802                     _uart_tx:
 12640                           
 12641                           ;incstack = 0
 12642                           ; Regs used in _uart_tx: [wreg+status,2+status,0]
 12643                           ;uart_tx@dato stored from wreg
 12644  0802  00F1               	movwf	uart_tx@dato
 12645  0803                     l2590:
 12646  0803                     l2592:	
 12647                           ;uart.c: 33:     while( ( (PIR3>>4) & 0x01) == 0){}
 12648                           
 12649  0803  002E               	movlb	14	; select bank14
 12650  0804  080F               	movf	15,w	;volatile
 12651  0805  00F0               	movwf	??_uart_tx
 12652  0806  3004               	movlw	4
 12653  0807                     u3185:
 12654  0807  36F0               	lsrf	??_uart_tx,f
 12655  0808  0B89               	decfsz	9,f
 12656  0809  2807               	goto	u3185
 12657  080A  1C70               	btfss	??_uart_tx,0
 12658  080B  280D               	goto	u3191
 12659  080C  280E               	goto	u3190
 12660  080D                     u3191:
 12661  080D  2803               	goto	l2592
 12662  080E                     u3190:
 12663  080E                     l2594:
 12664                           
 12665                           ;uart.c: 35:         TXREG = dato;
 12666  080E  0871               	movf	uart_tx@dato,w
 12667  080F  0022               	movlb	2	; select bank2
 12668  0810  009A               	movwf	26	;volatile
 12669  0811                     l87:
 12670  0811  0008               	return
 12671  0812                     __end_of_uart_tx:
 12672                           
 12673                           	psect	text33
 12674  1C47                     __ptext33:	
 12675 ;; *************** function _abs *****************
 12676 ;; Defined at:
 12677 ;;		line 1 in file "C:\Program Files\Microchip\xc8\v2.32\pic\sources\c99\common\abs.c"
 12678 ;; Parameters:    Size  Location     Type
 12679 ;;  a               2    3[COMMON] int 
 12680 ;; Auto vars:     Size  Location     Type
 12681 ;;		None
 12682 ;; Return value:  Size  Location     Type
 12683 ;;                  2    3[COMMON] int 
 12684 ;; Registers used:
 12685 ;;		wreg, status,2, status,0
 12686 ;; Tracked objects:
 12687 ;;		On entry : 0/0
 12688 ;;		On exit  : 0/0
 12689 ;;		Unchanged: 0/0
 12690 ;; Data sizes:     COMMON   BANK0   BANK1   BANK2   BANK3   BANK4   BANK5   BANK6   BANK7   BANK8   BANK9  BANK10  BANK1
      +1  BANK12
 12691 ;;      Params:         2       0       0       0       0       0       0       0       0       0       0       0       
      +0       0
 12692 ;;      Locals:         0       0       0       0       0       0       0       0       0       0       0       0       
      +0       0
 12693 ;;      Temps:          2       0       0       0       0       0       0       0       0       0       0       0       
      +0       0
 12694 ;;      Totals:         4       0       0       0       0       0       0       0       0       0       0       0       
      +0       0
 12695 ;;Total ram usage:        4 bytes
 12696 ;; Hardware stack levels used: 1
 12697 ;; This function calls:
 12698 ;;		Nothing
 12699 ;; This function is called by:
 12700 ;;		_dtoa
 12701 ;; This function uses a non-reentrant model
 12702 ;;
 12703                           
 12704                           
 12705                           ;psect for function _abs
 12706  1C47                     _abs:
 12707  1C47                     l3378:	
 12708                           ;incstack = 0
 12709                           ; Regs used in _abs: [wreg+status,2+status,0]
 12710                           
 12711  1C47  0874               	movf	abs@a+1,w
 12712  1C48  3A80               	xorlw	128
 12713  1C49  00F5               	movwf	??_abs
 12714  1C4A  3080               	movlw	128
 12715  1C4B  0275               	subwf	??_abs,w
 12716  1C4C  1D03               	skipz
 12717  1C4D  2C50               	goto	u4925
 12718  1C4E  3001               	movlw	1
 12719  1C4F  0273               	subwf	abs@a,w
 12720  1C50                     u4925:
 12721  1C50  1803               	skipnc
 12722  1C51  2C53               	goto	u4921
 12723  1C52  2C54               	goto	u4920
 12724  1C53                     u4921:
 12725  1C53  2C60               	goto	l953
 12726  1C54                     u4920:
 12727  1C54                     l3380:
 12728  1C54  0973               	comf	abs@a,w
 12729  1C55  00F5               	movwf	??_abs
 12730  1C56  0974               	comf	abs@a+1,w
 12731  1C57  00F6               	movwf	??_abs+1
 12732  1C58  0AF5               	incf	??_abs,f
 12733  1C59  1903               	skipnz
 12734  1C5A  0AF6               	incf	??_abs+1,f
 12735  1C5B  0875               	movf	??_abs,w
 12736  1C5C  00F3               	movwf	?_abs
 12737  1C5D  0876               	movf	??_abs+1,w
 12738  1C5E  00F4               	movwf	?_abs+1
 12739  1C5F  2C60               	goto	l956
 12740  1C60                     l953:
 12741  1C60                     l956:
 12742  1C60  0008               	return
 12743  1C61                     __end_of_abs:
 12744                           
 12745                           	psect	text34
 12746  1206                     __ptext34:	
 12747 ;; *************** function ___aomod *****************
 12748 ;; Defined at:
 12749 ;;		line 7 in file "C:\Program Files\Microchip\xc8\v2.32\pic\sources\c99\common\aomod.c"
 12750 ;; Parameters:    Size  Location     Type
 12751 ;;  divisor         8    0[BANK0 ] long long 
 12752 ;;  dividend        8    8[BANK0 ] long long 
 12753 ;; Auto vars:     Size  Location     Type
 12754 ;;  sign            1    2[COMMON] unsigned char 
 12755 ;;  counter         1    1[COMMON] unsigned char 
 12756 ;; Return value:  Size  Location     Type
 12757 ;;                  8    0[BANK0 ] long long 
 12758 ;; Registers used:
 12759 ;;		wreg, fsr1l, fsr1h, status,2, status,0
 12760 ;; Tracked objects:
 12761 ;;		On entry : 0/0
 12762 ;;		On exit  : 0/0
 12763 ;;		Unchanged: 0/0
 12764 ;; Data sizes:     COMMON   BANK0   BANK1   BANK2   BANK3   BANK4   BANK5   BANK6   BANK7   BANK8   BANK9  BANK10  BANK1
      +1  BANK12
 12765 ;;      Params:         0      16       0       0       0       0       0       0       0       0       0       0       
      +0       0
 12766 ;;      Locals:         2       0       0       0       0       0       0       0       0       0       0       0       
      +0       0
 12767 ;;      Temps:          1       0       0       0       0       0       0       0       0       0       0       0       
      +0       0
 12768 ;;      Totals:         3      16       0       0       0       0       0       0       0       0       0       0       
      +0       0
 12769 ;;Total ram usage:       19 bytes
 12770 ;; Hardware stack levels used: 1
 12771 ;; This function calls:
 12772 ;;		Nothing
 12773 ;; This function is called by:
 12774 ;;		_dtoa
 12775 ;; This function uses a non-reentrant model
 12776 ;;
 12777                           
 12778                           
 12779                           ;psect for function ___aomod
 12780  1206                     ___aomod:
 12781  1206                     l2882:	
 12782                           ;incstack = 0
 12783                           ; Regs used in ___aomod: [wreg+fsr1l+fsr1h+status,2+status,0]
 12784                           
 12785  1206  01F2               	clrf	___aomod@sign
 12786  1207                     l2884:
 12787  1207  3028               	movlw	low ___aomod@dividend
 12788  1208  0086               	movwf	6
 12789  1209  3000               	movlw	high ___aomod@dividend
 12790  120A  0087               	movwf	7
 12791  120B  3F47               	moviw [7]fsr1
 12792  120C  00F0               	movwf	??___aomod
 12793  120D  1FF0               	btfss	??___aomod,7
 12794  120E  2A10               	goto	u3851
 12795  120F  2A11               	goto	u3850
 12796  1210                     u3851:
 12797  1210  2A32               	goto	l2888
 12798  1211                     u3850:
 12799  1211                     l2886:
 12800  1211  0020               	movlb	0	; select bank0
 12801  1212  09A8               	comf	___aomod@dividend,f
 12802  1213  09A9               	comf	___aomod@dividend+1,f
 12803  1214  09AA               	comf	___aomod@dividend+2,f
 12804  1215  09AB               	comf	___aomod@dividend+3,f
 12805  1216  09AC               	comf	___aomod@dividend+4,f
 12806  1217  09AD               	comf	___aomod@dividend+5,f
 12807  1218  09AE               	comf	___aomod@dividend+6,f
 12808  1219  09AF               	comf	___aomod@dividend+7,f
 12809  121A  0AA8               	incf	___aomod@dividend,f
 12810  121B  1D03               	skipz
 12811  121C  2A30               	goto	u386lld
 12812  121D  0AA9               	incf	___aomod@dividend+1,f
 12813  121E  1D03               	skipz
 12814  121F  2A30               	goto	u386lld
 12815  1220  0AAA               	incf	___aomod@dividend+2,f
 12816  1221  1D03               	skipz
 12817  1222  2A30               	goto	u386lld
 12818  1223  0AAB               	incf	___aomod@dividend+3,f
 12819  1224  1D03               	skipz
 12820  1225  2A30               	goto	u386lld
 12821  1226  0AAC               	incf	___aomod@dividend+4,f
 12822  1227  1D03               	skipz
 12823  1228  2A30               	goto	u386lld
 12824  1229  0AAD               	incf	___aomod@dividend+5,f
 12825  122A  1D03               	skipz
 12826  122B  2A30               	goto	u386lld
 12827  122C  0AAE               	incf	___aomod@dividend+6,f
 12828  122D  1D03               	skipz
 12829  122E  2A30               	goto	u386lld
 12830  122F  0AAF               	incf	___aomod@dividend+7,f
 12831  1230                     u386lld:
 12832  1230  01F2               	clrf	___aomod@sign
 12833  1231  0AF2               	incf	___aomod@sign,f
 12834  1232                     l2888:
 12835  1232  3020               	movlw	low ___aomod@divisor
 12836  1233  0086               	movwf	6
 12837  1234  3000               	movlw	high ___aomod@divisor
 12838  1235  0087               	movwf	7
 12839  1236  3F47               	moviw [7]fsr1
 12840  1237  00F0               	movwf	??___aomod
 12841  1238  1FF0               	btfss	??___aomod,7
 12842  1239  2A3B               	goto	u3871
 12843  123A  2A3C               	goto	u3870
 12844  123B                     u3871:
 12845  123B  2A5B               	goto	l2892
 12846  123C                     u3870:
 12847  123C                     l2890:
 12848  123C  0020               	movlb	0	; select bank0
 12849  123D  09A0               	comf	___aomod@divisor,f
 12850  123E  09A1               	comf	___aomod@divisor+1,f
 12851  123F  09A2               	comf	___aomod@divisor+2,f
 12852  1240  09A3               	comf	___aomod@divisor+3,f
 12853  1241  09A4               	comf	___aomod@divisor+4,f
 12854  1242  09A5               	comf	___aomod@divisor+5,f
 12855  1243  09A6               	comf	___aomod@divisor+6,f
 12856  1244  09A7               	comf	___aomod@divisor+7,f
 12857  1245  0AA0               	incf	___aomod@divisor,f
 12858  1246  1D03               	skipz
 12859  1247  2A5B               	goto	u388lld
 12860  1248  0AA1               	incf	___aomod@divisor+1,f
 12861  1249  1D03               	skipz
 12862  124A  2A5B               	goto	u388lld
 12863  124B  0AA2               	incf	___aomod@divisor+2,f
 12864  124C  1D03               	skipz
 12865  124D  2A5B               	goto	u388lld
 12866  124E  0AA3               	incf	___aomod@divisor+3,f
 12867  124F  1D03               	skipz
 12868  1250  2A5B               	goto	u388lld
 12869  1251  0AA4               	incf	___aomod@divisor+4,f
 12870  1252  1D03               	skipz
 12871  1253  2A5B               	goto	u388lld
 12872  1254  0AA5               	incf	___aomod@divisor+5,f
 12873  1255  1D03               	skipz
 12874  1256  2A5B               	goto	u388lld
 12875  1257  0AA6               	incf	___aomod@divisor+6,f
 12876  1258  1D03               	skipz
 12877  1259  2A5B               	goto	u388lld
 12878  125A  0AA7               	incf	___aomod@divisor+7,f
 12879  125B                     u388lld:
 12880  125B                     l2892:
 12881  125B  0020               	movlb	0	; select bank0
 12882  125C  0820               	movf	___aomod@divisor,w
 12883  125D  0421               	iorwf	___aomod@divisor+1,w
 12884  125E  0422               	iorwf	___aomod@divisor+2,w
 12885  125F  0423               	iorwf	___aomod@divisor+3,w
 12886  1260  0424               	iorwf	___aomod@divisor+4,w
 12887  1261  0425               	iorwf	___aomod@divisor+5,w
 12888  1262  0426               	iorwf	___aomod@divisor+6,w
 12889  1263  0427               	iorwf	___aomod@divisor+7,w
 12890  1264  1903               	skipnz
 12891  1265  2A67               	goto	u3891
 12892  1266  2A68               	goto	u3890
 12893  1267                     u3891:
 12894  1267  2ABB               	goto	l2908
 12895  1268                     u3890:
 12896  1268                     l2894:
 12897  1268  01F1               	clrf	___aomod@counter
 12898  1269  0AF1               	incf	___aomod@counter,f
 12899  126A  2A77               	goto	l2900
 12900  126B                     l2896:
 12901  126B  35A0               	lslf	___aomod@divisor,f
 12902  126C  0DA1               	rlf	___aomod@divisor+1,f
 12903  126D  0DA2               	rlf	___aomod@divisor+2,f
 12904  126E  0DA3               	rlf	___aomod@divisor+3,f
 12905  126F  0DA4               	rlf	___aomod@divisor+4,f
 12906  1270  0DA5               	rlf	___aomod@divisor+5,f
 12907  1271  0DA6               	rlf	___aomod@divisor+6,f
 12908  1272  0DA7               	rlf	___aomod@divisor+7,f
 12909  1273                     l2898:
 12910  1273  3001               	movlw	1
 12911  1274  00F0               	movwf	??___aomod
 12912  1275  0870               	movf	??___aomod,w
 12913  1276  07F1               	addwf	___aomod@counter,f
 12914  1277                     l2900:
 12915  1277  1FA7               	btfss	___aomod@divisor+7,7
 12916  1278  2A7A               	goto	u3901
 12917  1279  2A7B               	goto	u3900
 12918  127A                     u3901:
 12919  127A  2A6B               	goto	l2896
 12920  127B                     u3900:
 12921  127B                     l2902:
 12922  127B  0827               	movf	___aomod@divisor+7,w
 12923  127C  022F               	subwf	___aomod@dividend+7,w
 12924  127D  1D03               	skipz
 12925  127E  2A99               	goto	u3915
 12926  127F  0826               	movf	___aomod@divisor+6,w
 12927  1280  022E               	subwf	___aomod@dividend+6,w
 12928  1281  1D03               	skipz
 12929  1282  2A99               	goto	u3915
 12930  1283  0825               	movf	___aomod@divisor+5,w
 12931  1284  022D               	subwf	___aomod@dividend+5,w
 12932  1285  1D03               	skipz
 12933  1286  2A99               	goto	u3915
 12934  1287  0824               	movf	___aomod@divisor+4,w
 12935  1288  022C               	subwf	___aomod@dividend+4,w
 12936  1289  1D03               	skipz
 12937  128A  2A99               	goto	u3915
 12938  128B  0823               	movf	___aomod@divisor+3,w
 12939  128C  022B               	subwf	___aomod@dividend+3,w
 12940  128D  1D03               	skipz
 12941  128E  2A99               	goto	u3915
 12942  128F  0822               	movf	___aomod@divisor+2,w
 12943  1290  022A               	subwf	___aomod@dividend+2,w
 12944  1291  1D03               	skipz
 12945  1292  2A99               	goto	u3915
 12946  1293  0821               	movf	___aomod@divisor+1,w
 12947  1294  0229               	subwf	___aomod@dividend+1,w
 12948  1295  1D03               	skipz
 12949  1296  2A99               	goto	u3915
 12950  1297  0820               	movf	___aomod@divisor,w
 12951  1298  0228               	subwf	___aomod@dividend,w
 12952  1299                     u3915:
 12953  1299  1C03               	skipc
 12954  129A  2A9C               	goto	u3911
 12955  129B  2A9D               	goto	u3910
 12956  129C                     u3911:
 12957  129C  2AAD               	goto	l2906
 12958  129D                     u3910:
 12959  129D                     l2904:
 12960  129D  0820               	movf	___aomod@divisor,w
 12961  129E  02A8               	subwf	___aomod@dividend,f
 12962  129F  0821               	movf	___aomod@divisor+1,w
 12963  12A0  3BA9               	subwfb	___aomod@dividend+1,f
 12964  12A1  0822               	movf	___aomod@divisor+2,w
 12965  12A2  3BAA               	subwfb	___aomod@dividend+2,f
 12966  12A3  0823               	movf	___aomod@divisor+3,w
 12967  12A4  3BAB               	subwfb	___aomod@dividend+3,f
 12968  12A5  0824               	movf	___aomod@divisor+4,w
 12969  12A6  3BAC               	subwfb	___aomod@dividend+4,f
 12970  12A7  0825               	movf	___aomod@divisor+5,w
 12971  12A8  3BAD               	subwfb	___aomod@dividend+5,f
 12972  12A9  0826               	movf	___aomod@divisor+6,w
 12973  12AA  3BAE               	subwfb	___aomod@dividend+6,f
 12974  12AB  0827               	movf	___aomod@divisor+7,w
 12975  12AC  3BAF               	subwfb	___aomod@dividend+7,f
 12976  12AD                     l2906:
 12977  12AD  36A7               	lsrf	___aomod@divisor+7,f
 12978  12AE  0CA6               	rrf	___aomod@divisor+6,f
 12979  12AF  0CA5               	rrf	___aomod@divisor+5,f
 12980  12B0  0CA4               	rrf	___aomod@divisor+4,f
 12981  12B1  0CA3               	rrf	___aomod@divisor+3,f
 12982  12B2  0CA2               	rrf	___aomod@divisor+2,f
 12983  12B3  0CA1               	rrf	___aomod@divisor+1,f
 12984  12B4  0CA0               	rrf	___aomod@divisor,f
 12985  12B5  3001               	movlw	1
 12986  12B6  02F1               	subwf	___aomod@counter,f
 12987  12B7  1D03               	btfss	3,2
 12988  12B8  2ABA               	goto	u3921
 12989  12B9  2ABB               	goto	u3920
 12990  12BA                     u3921:
 12991  12BA  2A7B               	goto	l2902
 12992  12BB                     u3920:
 12993  12BB                     l2908:
 12994  12BB  0872               	movf	___aomod@sign,w
 12995  12BC  1903               	btfsc	3,2
 12996  12BD  2ABF               	goto	u3931
 12997  12BE  2AC0               	goto	u3930
 12998  12BF                     u3931:
 12999  12BF  2ADE               	goto	l400
 13000  12C0                     u3930:
 13001  12C0                     l2910:
 13002  12C0  09A8               	comf	___aomod@dividend,f
 13003  12C1  09A9               	comf	___aomod@dividend+1,f
 13004  12C2  09AA               	comf	___aomod@dividend+2,f
 13005  12C3  09AB               	comf	___aomod@dividend+3,f
 13006  12C4  09AC               	comf	___aomod@dividend+4,f
 13007  12C5  09AD               	comf	___aomod@dividend+5,f
 13008  12C6  09AE               	comf	___aomod@dividend+6,f
 13009  12C7  09AF               	comf	___aomod@dividend+7,f
 13010  12C8  0AA8               	incf	___aomod@dividend,f
 13011  12C9  1D03               	skipz
 13012  12CA  2ADE               	goto	u394lld
 13013  12CB  0AA9               	incf	___aomod@dividend+1,f
 13014  12CC  1D03               	skipz
 13015  12CD  2ADE               	goto	u394lld
 13016  12CE  0AAA               	incf	___aomod@dividend+2,f
 13017  12CF  1D03               	skipz
 13018  12D0  2ADE               	goto	u394lld
 13019  12D1  0AAB               	incf	___aomod@dividend+3,f
 13020  12D2  1D03               	skipz
 13021  12D3  2ADE               	goto	u394lld
 13022  12D4  0AAC               	incf	___aomod@dividend+4,f
 13023  12D5  1D03               	skipz
 13024  12D6  2ADE               	goto	u394lld
 13025  12D7  0AAD               	incf	___aomod@dividend+5,f
 13026  12D8  1D03               	skipz
 13027  12D9  2ADE               	goto	u394lld
 13028  12DA  0AAE               	incf	___aomod@dividend+6,f
 13029  12DB  1D03               	skipz
 13030  12DC  2ADE               	goto	u394lld
 13031  12DD  0AAF               	incf	___aomod@dividend+7,f
 13032  12DE                     u394lld:
 13033  12DE                     l400:
 13034  12DE  0020               	movlb	0	; select bank0
 13035  12DF  0828               	movf	___aomod@dividend,w
 13036  12E0  00A0               	movwf	?___aomod
 13037  12E1  0829               	movf	___aomod@dividend+1,w
 13038  12E2  00A1               	movwf	?___aomod+1
 13039  12E3  082A               	movf	___aomod@dividend+2,w
 13040  12E4  00A2               	movwf	?___aomod+2
 13041  12E5  082B               	movf	___aomod@dividend+3,w
 13042  12E6  00A3               	movwf	?___aomod+3
 13043  12E7  082C               	movf	___aomod@dividend+4,w
 13044  12E8  00A4               	movwf	?___aomod+4
 13045  12E9  082D               	movf	___aomod@dividend+5,w
 13046  12EA  00A5               	movwf	?___aomod+5
 13047  12EB  082E               	movf	___aomod@dividend+6,w
 13048  12EC  00A6               	movwf	?___aomod+6
 13049  12ED  082F               	movf	___aomod@dividend+7,w
 13050  12EE  00A7               	movwf	?___aomod+7
 13051  12EF                     l401:
 13052  12EF  0008               	return
 13053  12F0                     __end_of___aomod:
 13054                           
 13055                           	psect	text35
 13056  13DB                     __ptext35:	
 13057 ;; *************** function ___aodiv *****************
 13058 ;; Defined at:
 13059 ;;		line 7 in file "C:\Program Files\Microchip\xc8\v2.32\pic\sources\c99\common\aodiv.c"
 13060 ;; Parameters:    Size  Location     Type
 13061 ;;  divisor         8    0[BANK0 ] long long 
 13062 ;;  dividend        8    8[BANK0 ] long long 
 13063 ;; Auto vars:     Size  Location     Type
 13064 ;;  quotient        8    3[COMMON] long long 
 13065 ;;  sign            1    2[COMMON] unsigned char 
 13066 ;;  counter         1    1[COMMON] unsigned char 
 13067 ;; Return value:  Size  Location     Type
 13068 ;;                  8    0[BANK0 ] long long 
 13069 ;; Registers used:
 13070 ;;		wreg, fsr1l, fsr1h, status,2, status,0
 13071 ;; Tracked objects:
 13072 ;;		On entry : 0/0
 13073 ;;		On exit  : 0/0
 13074 ;;		Unchanged: 0/0
 13075 ;; Data sizes:     COMMON   BANK0   BANK1   BANK2   BANK3   BANK4   BANK5   BANK6   BANK7   BANK8   BANK9  BANK10  BANK1
      +1  BANK12
 13076 ;;      Params:         0      16       0       0       0       0       0       0       0       0       0       0       
      +0       0
 13077 ;;      Locals:        10       0       0       0       0       0       0       0       0       0       0       0       
      +0       0
 13078 ;;      Temps:          1       0       0       0       0       0       0       0       0       0       0       0       
      +0       0
 13079 ;;      Totals:        11      16       0       0       0       0       0       0       0       0       0       0       
      +0       0
 13080 ;;Total ram usage:       27 bytes
 13081 ;; Hardware stack levels used: 1
 13082 ;; This function calls:
 13083 ;;		Nothing
 13084 ;; This function is called by:
 13085 ;;		_dtoa
 13086 ;; This function uses a non-reentrant model
 13087 ;;
 13088                           
 13089                           
 13090                           ;psect for function ___aodiv
 13091  13DB                     ___aodiv:
 13092  13DB                     l2844:	
 13093                           ;incstack = 0
 13094                           ; Regs used in ___aodiv: [wreg+fsr1l+fsr1h+status,2+status,0]
 13095                           
 13096  13DB  01F2               	clrf	___aodiv@sign
 13097  13DC                     l2846:
 13098  13DC  3020               	movlw	low ___aodiv@divisor
 13099  13DD  0086               	movwf	6
 13100  13DE  3000               	movlw	high ___aodiv@divisor
 13101  13DF  0087               	movwf	7
 13102  13E0  3F47               	moviw [7]fsr1
 13103  13E1  00F0               	movwf	??___aodiv
 13104  13E2  1FF0               	btfss	??___aodiv,7
 13105  13E3  2BE5               	goto	u3741
 13106  13E4  2BE6               	goto	u3740
 13107  13E5                     u3741:
 13108  13E5  2C07               	goto	l2850
 13109  13E6                     u3740:
 13110  13E6                     l2848:
 13111  13E6  0020               	movlb	0	; select bank0
 13112  13E7  09A0               	comf	___aodiv@divisor,f
 13113  13E8  09A1               	comf	___aodiv@divisor+1,f
 13114  13E9  09A2               	comf	___aodiv@divisor+2,f
 13115  13EA  09A3               	comf	___aodiv@divisor+3,f
 13116  13EB  09A4               	comf	___aodiv@divisor+4,f
 13117  13EC  09A5               	comf	___aodiv@divisor+5,f
 13118  13ED  09A6               	comf	___aodiv@divisor+6,f
 13119  13EE  09A7               	comf	___aodiv@divisor+7,f
 13120  13EF  0AA0               	incf	___aodiv@divisor,f
 13121  13F0  1D03               	skipz
 13122  13F1  2C05               	goto	u375lld
 13123  13F2  0AA1               	incf	___aodiv@divisor+1,f
 13124  13F3  1D03               	skipz
 13125  13F4  2C05               	goto	u375lld
 13126  13F5  0AA2               	incf	___aodiv@divisor+2,f
 13127  13F6  1D03               	skipz
 13128  13F7  2C05               	goto	u375lld
 13129  13F8  0AA3               	incf	___aodiv@divisor+3,f
 13130  13F9  1D03               	skipz
 13131  13FA  2C05               	goto	u375lld
 13132  13FB  0AA4               	incf	___aodiv@divisor+4,f
 13133  13FC  1D03               	skipz
 13134  13FD  2C05               	goto	u375lld
 13135  13FE  0AA5               	incf	___aodiv@divisor+5,f
 13136  13FF  1D03               	skipz
 13137  1400  2C05               	goto	u375lld
 13138  1401  0AA6               	incf	___aodiv@divisor+6,f
 13139  1402  1D03               	skipz
 13140  1403  2C05               	goto	u375lld
 13141  1404  0AA7               	incf	___aodiv@divisor+7,f
 13142  1405                     u375lld:
 13143  1405  01F2               	clrf	___aodiv@sign
 13144  1406  0AF2               	incf	___aodiv@sign,f
 13145  1407                     l2850:
 13146  1407  3028               	movlw	low ___aodiv@dividend
 13147  1408  0086               	movwf	6
 13148  1409  3000               	movlw	high ___aodiv@dividend
 13149  140A  0087               	movwf	7
 13150  140B  3F47               	moviw [7]fsr1
 13151  140C  00F0               	movwf	??___aodiv
 13152  140D  1FF0               	btfss	??___aodiv,7
 13153  140E  2C10               	goto	u3761
 13154  140F  2C11               	goto	u3760
 13155  1410                     u3761:
 13156  1410  2C34               	goto	l2856
 13157  1411                     u3760:
 13158  1411                     l2852:
 13159  1411  0020               	movlb	0	; select bank0
 13160  1412  09A8               	comf	___aodiv@dividend,f
 13161  1413  09A9               	comf	___aodiv@dividend+1,f
 13162  1414  09AA               	comf	___aodiv@dividend+2,f
 13163  1415  09AB               	comf	___aodiv@dividend+3,f
 13164  1416  09AC               	comf	___aodiv@dividend+4,f
 13165  1417  09AD               	comf	___aodiv@dividend+5,f
 13166  1418  09AE               	comf	___aodiv@dividend+6,f
 13167  1419  09AF               	comf	___aodiv@dividend+7,f
 13168  141A  0AA8               	incf	___aodiv@dividend,f
 13169  141B  1D03               	skipz
 13170  141C  2C30               	goto	u377lld
 13171  141D  0AA9               	incf	___aodiv@dividend+1,f
 13172  141E  1D03               	skipz
 13173  141F  2C30               	goto	u377lld
 13174  1420  0AAA               	incf	___aodiv@dividend+2,f
 13175  1421  1D03               	skipz
 13176  1422  2C30               	goto	u377lld
 13177  1423  0AAB               	incf	___aodiv@dividend+3,f
 13178  1424  1D03               	skipz
 13179  1425  2C30               	goto	u377lld
 13180  1426  0AAC               	incf	___aodiv@dividend+4,f
 13181  1427  1D03               	skipz
 13182  1428  2C30               	goto	u377lld
 13183  1429  0AAD               	incf	___aodiv@dividend+5,f
 13184  142A  1D03               	skipz
 13185  142B  2C30               	goto	u377lld
 13186  142C  0AAE               	incf	___aodiv@dividend+6,f
 13187  142D  1D03               	skipz
 13188  142E  2C30               	goto	u377lld
 13189  142F  0AAF               	incf	___aodiv@dividend+7,f
 13190  1430                     u377lld:
 13191  1430                     l2854:
 13192  1430  3001               	movlw	1
 13193  1431  00F0               	movwf	??___aodiv
 13194  1432  0870               	movf	??___aodiv,w
 13195  1433  06F2               	xorwf	___aodiv@sign,f
 13196  1434                     l2856:
 13197  1434  3073               	movlw	low ___aodiv@quotient
 13198  1435  0086               	movwf	6
 13199  1436  3000               	movlw	high ___aodiv@quotient
 13200  1437  0087               	movwf	7
 13201  1438  3008               	movlw	8
 13202  1439  00F0               	movwf	??___aodiv
 13203  143A  3000               	movlw	0
 13204  143B                     u3780:
 13205  143B  001E               	movwi fsr1++
 13206  143C  0BF0               	decfsz	??___aodiv,f
 13207  143D  2C3B               	goto	u3780
 13208  143E                     l2858:
 13209  143E  0020               	movlb	0	; select bank0
 13210  143F  0820               	movf	___aodiv@divisor,w
 13211  1440  0421               	iorwf	___aodiv@divisor+1,w
 13212  1441  0422               	iorwf	___aodiv@divisor+2,w
 13213  1442  0423               	iorwf	___aodiv@divisor+3,w
 13214  1443  0424               	iorwf	___aodiv@divisor+4,w
 13215  1444  0425               	iorwf	___aodiv@divisor+5,w
 13216  1445  0426               	iorwf	___aodiv@divisor+6,w
 13217  1446  0427               	iorwf	___aodiv@divisor+7,w
 13218  1447  1903               	skipnz
 13219  1448  2C4A               	goto	u3791
 13220  1449  2C4B               	goto	u3790
 13221  144A                     u3791:
 13222  144A  2CA7               	goto	l2878
 13223  144B                     u3790:
 13224  144B                     l2860:
 13225  144B  01F1               	clrf	___aodiv@counter
 13226  144C  0AF1               	incf	___aodiv@counter,f
 13227  144D  2C5A               	goto	l2866
 13228  144E                     l2862:
 13229  144E  35A0               	lslf	___aodiv@divisor,f
 13230  144F  0DA1               	rlf	___aodiv@divisor+1,f
 13231  1450  0DA2               	rlf	___aodiv@divisor+2,f
 13232  1451  0DA3               	rlf	___aodiv@divisor+3,f
 13233  1452  0DA4               	rlf	___aodiv@divisor+4,f
 13234  1453  0DA5               	rlf	___aodiv@divisor+5,f
 13235  1454  0DA6               	rlf	___aodiv@divisor+6,f
 13236  1455  0DA7               	rlf	___aodiv@divisor+7,f
 13237  1456                     l2864:
 13238  1456  3001               	movlw	1
 13239  1457  00F0               	movwf	??___aodiv
 13240  1458  0870               	movf	??___aodiv,w
 13241  1459  07F1               	addwf	___aodiv@counter,f
 13242  145A                     l2866:
 13243  145A  1FA7               	btfss	___aodiv@divisor+7,7
 13244  145B  2C5D               	goto	u3801
 13245  145C  2C5E               	goto	u3800
 13246  145D                     u3801:
 13247  145D  2C4E               	goto	l2862
 13248  145E                     u3800:
 13249  145E                     l2868:
 13250  145E  35F3               	lslf	___aodiv@quotient,f
 13251  145F  0DF4               	rlf	___aodiv@quotient+1,f
 13252  1460  0DF5               	rlf	___aodiv@quotient+2,f
 13253  1461  0DF6               	rlf	___aodiv@quotient+3,f
 13254  1462  0DF7               	rlf	___aodiv@quotient+4,f
 13255  1463  0DF8               	rlf	___aodiv@quotient+5,f
 13256  1464  0DF9               	rlf	___aodiv@quotient+6,f
 13257  1465  0DFA               	rlf	___aodiv@quotient+7,f
 13258  1466                     l2870:
 13259  1466  0827               	movf	___aodiv@divisor+7,w
 13260  1467  022F               	subwf	___aodiv@dividend+7,w
 13261  1468  1D03               	skipz
 13262  1469  2C84               	goto	u3815
 13263  146A  0826               	movf	___aodiv@divisor+6,w
 13264  146B  022E               	subwf	___aodiv@dividend+6,w
 13265  146C  1D03               	skipz
 13266  146D  2C84               	goto	u3815
 13267  146E  0825               	movf	___aodiv@divisor+5,w
 13268  146F  022D               	subwf	___aodiv@dividend+5,w
 13269  1470  1D03               	skipz
 13270  1471  2C84               	goto	u3815
 13271  1472  0824               	movf	___aodiv@divisor+4,w
 13272  1473  022C               	subwf	___aodiv@dividend+4,w
 13273  1474  1D03               	skipz
 13274  1475  2C84               	goto	u3815
 13275  1476  0823               	movf	___aodiv@divisor+3,w
 13276  1477  022B               	subwf	___aodiv@dividend+3,w
 13277  1478  1D03               	skipz
 13278  1479  2C84               	goto	u3815
 13279  147A  0822               	movf	___aodiv@divisor+2,w
 13280  147B  022A               	subwf	___aodiv@dividend+2,w
 13281  147C  1D03               	skipz
 13282  147D  2C84               	goto	u3815
 13283  147E  0821               	movf	___aodiv@divisor+1,w
 13284  147F  0229               	subwf	___aodiv@dividend+1,w
 13285  1480  1D03               	skipz
 13286  1481  2C84               	goto	u3815
 13287  1482  0820               	movf	___aodiv@divisor,w
 13288  1483  0228               	subwf	___aodiv@dividend,w
 13289  1484                     u3815:
 13290  1484  1C03               	skipc
 13291  1485  2C87               	goto	u3811
 13292  1486  2C88               	goto	u3810
 13293  1487                     u3811:
 13294  1487  2C99               	goto	l2876
 13295  1488                     u3810:
 13296  1488                     l2872:
 13297  1488  0820               	movf	___aodiv@divisor,w
 13298  1489  02A8               	subwf	___aodiv@dividend,f
 13299  148A  0821               	movf	___aodiv@divisor+1,w
 13300  148B  3BA9               	subwfb	___aodiv@dividend+1,f
 13301  148C  0822               	movf	___aodiv@divisor+2,w
 13302  148D  3BAA               	subwfb	___aodiv@dividend+2,f
 13303  148E  0823               	movf	___aodiv@divisor+3,w
 13304  148F  3BAB               	subwfb	___aodiv@dividend+3,f
 13305  1490  0824               	movf	___aodiv@divisor+4,w
 13306  1491  3BAC               	subwfb	___aodiv@dividend+4,f
 13307  1492  0825               	movf	___aodiv@divisor+5,w
 13308  1493  3BAD               	subwfb	___aodiv@dividend+5,f
 13309  1494  0826               	movf	___aodiv@divisor+6,w
 13310  1495  3BAE               	subwfb	___aodiv@dividend+6,f
 13311  1496  0827               	movf	___aodiv@divisor+7,w
 13312  1497  3BAF               	subwfb	___aodiv@dividend+7,f
 13313  1498                     l2874:
 13314  1498  1473               	bsf	___aodiv@quotient,0
 13315  1499                     l2876:
 13316  1499  36A7               	lsrf	___aodiv@divisor+7,f
 13317  149A  0CA6               	rrf	___aodiv@divisor+6,f
 13318  149B  0CA5               	rrf	___aodiv@divisor+5,f
 13319  149C  0CA4               	rrf	___aodiv@divisor+4,f
 13320  149D  0CA3               	rrf	___aodiv@divisor+3,f
 13321  149E  0CA2               	rrf	___aodiv@divisor+2,f
 13322  149F  0CA1               	rrf	___aodiv@divisor+1,f
 13323  14A0  0CA0               	rrf	___aodiv@divisor,f
 13324  14A1  3001               	movlw	1
 13325  14A2  02F1               	subwf	___aodiv@counter,f
 13326  14A3  1D03               	btfss	3,2
 13327  14A4  2CA6               	goto	u3821
 13328  14A5  2CA7               	goto	u3820
 13329  14A6                     u3821:
 13330  14A6  2C5E               	goto	l2868
 13331  14A7                     u3820:
 13332  14A7                     l2878:
 13333  14A7  0872               	movf	___aodiv@sign,w
 13334  14A8  1903               	btfsc	3,2
 13335  14A9  2CAB               	goto	u3831
 13336  14AA  2CAC               	goto	u3830
 13337  14AB                     u3831:
 13338  14AB  2CCA               	goto	l387
 13339  14AC                     u3830:
 13340  14AC                     l2880:
 13341  14AC  09F3               	comf	___aodiv@quotient,f
 13342  14AD  09F4               	comf	___aodiv@quotient+1,f
 13343  14AE  09F5               	comf	___aodiv@quotient+2,f
 13344  14AF  09F6               	comf	___aodiv@quotient+3,f
 13345  14B0  09F7               	comf	___aodiv@quotient+4,f
 13346  14B1  09F8               	comf	___aodiv@quotient+5,f
 13347  14B2  09F9               	comf	___aodiv@quotient+6,f
 13348  14B3  09FA               	comf	___aodiv@quotient+7,f
 13349  14B4  0AF3               	incf	___aodiv@quotient,f
 13350  14B5  1D03               	skipz
 13351  14B6  2CCA               	goto	u384lld
 13352  14B7  0AF4               	incf	___aodiv@quotient+1,f
 13353  14B8  1D03               	skipz
 13354  14B9  2CCA               	goto	u384lld
 13355  14BA  0AF5               	incf	___aodiv@quotient+2,f
 13356  14BB  1D03               	skipz
 13357  14BC  2CCA               	goto	u384lld
 13358  14BD  0AF6               	incf	___aodiv@quotient+3,f
 13359  14BE  1D03               	skipz
 13360  14BF  2CCA               	goto	u384lld
 13361  14C0  0AF7               	incf	___aodiv@quotient+4,f
 13362  14C1  1D03               	skipz
 13363  14C2  2CCA               	goto	u384lld
 13364  14C3  0AF8               	incf	___aodiv@quotient+5,f
 13365  14C4  1D03               	skipz
 13366  14C5  2CCA               	goto	u384lld
 13367  14C6  0AF9               	incf	___aodiv@quotient+6,f
 13368  14C7  1D03               	skipz
 13369  14C8  2CCA               	goto	u384lld
 13370  14C9  0AFA               	incf	___aodiv@quotient+7,f
 13371  14CA                     u384lld:
 13372  14CA                     l387:
 13373  14CA  0873               	movf	___aodiv@quotient,w
 13374  14CB  0020               	movlb	0	; select bank0
 13375  14CC  00A0               	movwf	?___aodiv
 13376  14CD  0874               	movf	___aodiv@quotient+1,w
 13377  14CE  00A1               	movwf	?___aodiv+1
 13378  14CF  0875               	movf	___aodiv@quotient+2,w
 13379  14D0  00A2               	movwf	?___aodiv+2
 13380  14D1  0876               	movf	___aodiv@quotient+3,w
 13381  14D2  00A3               	movwf	?___aodiv+3
 13382  14D3  0877               	movf	___aodiv@quotient+4,w
 13383  14D4  00A4               	movwf	?___aodiv+4
 13384  14D5  0878               	movf	___aodiv@quotient+5,w
 13385  14D6  00A5               	movwf	?___aodiv+5
 13386  14D7  0879               	movf	___aodiv@quotient+6,w
 13387  14D8  00A6               	movwf	?___aodiv+6
 13388  14D9  087A               	movf	___aodiv@quotient+7,w
 13389  14DA  00A7               	movwf	?___aodiv+7
 13390  14DB                     l388:
 13391  14DB  0008               	return
 13392  14DC                     __end_of___aodiv:
 13393                           
 13394                           	psect	text36
 13395  1C7B                     __ptext36:	
 13396 ;; *************** function _port_init *****************
 13397 ;; Defined at:
 13398 ;;		line 65 in file "Main.c"
 13399 ;; Parameters:    Size  Location     Type
 13400 ;;		None
 13401 ;; Auto vars:     Size  Location     Type
 13402 ;;		None
 13403 ;; Return value:  Size  Location     Type
 13404 ;;                  1    wreg      void 
 13405 ;; Registers used:
 13406 ;;		wreg, status,2
 13407 ;; Tracked objects:
 13408 ;;		On entry : 0/0
 13409 ;;		On exit  : 0/0
 13410 ;;		Unchanged: 0/0
 13411 ;; Data sizes:     COMMON   BANK0   BANK1   BANK2   BANK3   BANK4   BANK5   BANK6   BANK7   BANK8   BANK9  BANK10  BANK1
      +1  BANK12
 13412 ;;      Params:         0       0       0       0       0       0       0       0       0       0       0       0       
      +0       0
 13413 ;;      Locals:         0       0       0       0       0       0       0       0       0       0       0       0       
      +0       0
 13414 ;;      Temps:          0       0       0       0       0       0       0       0       0       0       0       0       
      +0       0
 13415 ;;      Totals:         0       0       0       0       0       0       0       0       0       0       0       0       
      +0       0
 13416 ;;Total ram usage:        0 bytes
 13417 ;; Hardware stack levels used: 1
 13418 ;; This function calls:
 13419 ;;		Nothing
 13420 ;; This function is called by:
 13421 ;;		_main
 13422 ;; This function uses a non-reentrant model
 13423 ;;
 13424                           
 13425                           
 13426                           ;psect for function _port_init
 13427  1C7B                     _port_init:
 13428  1C7B                     l3966:	
 13429                           ;incstack = 0
 13430                           ; Regs used in _port_init: [wreg+status,2]
 13431                           
 13432                           
 13433                           ;Main.c: 67:     ANSELA = 0;
 13434  1C7B  003E               	movlb	30	; select bank30
 13435  1C7C  01B8               	clrf	56	;volatile
 13436                           
 13437                           ;Main.c: 68:     LATA=0;
 13438  1C7D  0020               	movlb	0	; select bank0
 13439  1C7E  0196               	clrf	22	;volatile
 13440                           
 13441                           ;Main.c: 69:     PORTA =0;
 13442  1C7F  018C               	clrf	12	;volatile
 13443  1C80                     l3968:
 13444                           
 13445                           ;Main.c: 70:     TRISA = 0b11110000;
 13446  1C80  30F0               	movlw	240
 13447  1C81  0091               	movwf	17	;volatile
 13448                           
 13449                           ;Main.c: 73:     ANSELA = ANSELA | (1<<4);
 13450  1C82  003E               	movlb	30	; select bank30
 13451  1C83  0838               	movf	56,w	;volatile
 13452  1C84  3810               	iorlw	16
 13453  1C85  00B8               	movwf	56	;volatile
 13454  1C86                     l3970:
 13455                           
 13456                           ;Main.c: 75:     LATB=0;
 13457  1C86  0020               	movlb	0	; select bank0
 13458  1C87  0197               	clrf	23	;volatile
 13459  1C88                     l3972:
 13460                           
 13461                           ;Main.c: 76:     PORTB =0;
 13462  1C88  018D               	clrf	13	;volatile
 13463                           
 13464                           ;Main.c: 77:     TRISB = TRISA | (1<<0);
 13465  1C89  0811               	movf	17,w	;volatile
 13466  1C8A  3801               	iorlw	1
 13467  1C8B  0092               	movwf	18	;volatile
 13468                           
 13469                           ;Main.c: 78:     ANSELB = ANSELB | (1<<0);
 13470  1C8C  003E               	movlb	30	; select bank30
 13471  1C8D  0843               	movf	67,w	;volatile
 13472  1C8E  3801               	iorlw	1
 13473  1C8F  00C3               	movwf	67	;volatile
 13474  1C90                     l3974:
 13475                           
 13476                           ;Main.c: 80:     TRISC = 0b10;
 13477  1C90  3002               	movlw	2
 13478  1C91  0020               	movlb	0	; select bank0
 13479  1C92  0093               	movwf	19	;volatile
 13480                           
 13481                           ;Main.c: 81:     ANSELC = 0;
 13482  1C93  003E               	movlb	30	; select bank30
 13483  1C94  01CE               	clrf	78	;volatile
 13484  1C95                     l58:
 13485  1C95  0008               	return
 13486  1C96                     __end_of_port_init:
 13487                           
 13488                           	psect	text37
 13489  1C15                     __ptext37:	
 13490 ;; *************** function _adc_read *****************
 13491 ;; Defined at:
 13492 ;;		line 27 in file "adc.c"
 13493 ;; Parameters:    Size  Location     Type
 13494 ;;  pin             1    wreg     unsigned char 
 13495 ;; Auto vars:     Size  Location     Type
 13496 ;;  pin             1    2[COMMON] unsigned char 
 13497 ;; Return value:  Size  Location     Type
 13498 ;;                  2    0[COMMON] unsigned short 
 13499 ;; Registers used:
 13500 ;;		wreg, status,2
 13501 ;; Tracked objects:
 13502 ;;		On entry : 0/0
 13503 ;;		On exit  : 0/0
 13504 ;;		Unchanged: 0/0
 13505 ;; Data sizes:     COMMON   BANK0   BANK1   BANK2   BANK3   BANK4   BANK5   BANK6   BANK7   BANK8   BANK9  BANK10  BANK1
      +1  BANK12
 13506 ;;      Params:         2       0       0       0       0       0       0       0       0       0       0       0       
      +0       0
 13507 ;;      Locals:         1       0       0       0       0       0       0       0       0       0       0       0       
      +0       0
 13508 ;;      Temps:          0       0       0       0       0       0       0       0       0       0       0       0       
      +0       0
 13509 ;;      Totals:         3       0       0       0       0       0       0       0       0       0       0       0       
      +0       0
 13510 ;;Total ram usage:        3 bytes
 13511 ;; Hardware stack levels used: 1
 13512 ;; This function calls:
 13513 ;;		Nothing
 13514 ;; This function is called by:
 13515 ;;		_main
 13516 ;; This function uses a non-reentrant model
 13517 ;;
 13518                           
 13519                           
 13520                           ;psect for function _adc_read
 13521  1C15                     _adc_read:
 13522                           
 13523                           ;incstack = 0
 13524                           ; Regs used in _adc_read: [wreg+status,2]
 13525                           ;adc_read@pin stored from wreg
 13526  1C15  00F2               	movwf	adc_read@pin
 13527  1C16                     l4012:
 13528                           
 13529                           ;adc.c: 28:     ADPCH = pin;
 13530  1C16  0872               	movf	adc_read@pin,w
 13531  1C17  0021               	movlb	1	; select bank1
 13532  1C18  009E               	movwf	30	;volatile
 13533  1C19                     l4014:
 13534                           
 13535                           ;adc.c: 29:     ADCON0 = ADCON0 |(1<<7);
 13536  1C19  0813               	movf	19,w	;volatile
 13537  1C1A  3880               	iorlw	128
 13538  1C1B  0093               	movwf	19	;volatile
 13539  1C1C                     l4016:
 13540                           
 13541                           ;adc.c: 30:     ADCON0 = ADCON0 &~(1<<6);
 13542  1C1C  0813               	movf	19,w	;volatile
 13543  1C1D  39BF               	andlw	191
 13544  1C1E  0093               	movwf	19	;volatile
 13545  1C1F                     l4018:
 13546                           
 13547                           ;adc.c: 31:     ADCON0 = ADCON0 |(1<<0);
 13548  1C1F  0813               	movf	19,w	;volatile
 13549  1C20  3801               	iorlw	1
 13550  1C21  0093               	movwf	19	;volatile
 13551  1C22                     l4020:
 13552                           
 13553                           ;adc.c: 34:     __nop();
 13554  1C22  0000               	nop
 13555  1C23                     l132:	
 13556                           ;adc.c: 36:     while ((ADCON0&0x01)==1){}
 13557                           
 13558  1C23  0021               	movlb	1	; select bank1
 13559  1C24  1813               	btfsc	19,0	;volatile
 13560  1C25  2C27               	goto	u6121
 13561  1C26  2C28               	goto	u6120
 13562  1C27                     u6121:
 13563  1C27  2C23               	goto	l132
 13564  1C28                     u6120:
 13565  1C28                     l4022:
 13566                           
 13567                           ;adc.c: 39:     return ((uint16_t)((ADRESH << 8) + ADRESL));
 13568  1C28  080D               	movf	13,w	;volatile
 13569  1C29  00F1               	movwf	?_adc_read+1
 13570  1C2A  080C               	movf	12,w	;volatile
 13571  1C2B  00F0               	movwf	?_adc_read
 13572  1C2C                     l135:
 13573  1C2C  0008               	return
 13574  1C2D                     __end_of_adc_read:
 13575                           
 13576                           	psect	text38
 13577  1C2D                     __ptext38:	
 13578 ;; *************** function _adc_init *****************
 13579 ;; Defined at:
 13580 ;;		line 3 in file "adc.c"
 13581 ;; Parameters:    Size  Location     Type
 13582 ;;		None
 13583 ;; Auto vars:     Size  Location     Type
 13584 ;;		None
 13585 ;; Return value:  Size  Location     Type
 13586 ;;                  1    wreg      void 
 13587 ;; Registers used:
 13588 ;;		wreg, status,2
 13589 ;; Tracked objects:
 13590 ;;		On entry : 0/0
 13591 ;;		On exit  : 0/0
 13592 ;;		Unchanged: 0/0
 13593 ;; Data sizes:     COMMON   BANK0   BANK1   BANK2   BANK3   BANK4   BANK5   BANK6   BANK7   BANK8   BANK9  BANK10  BANK1
      +1  BANK12
 13594 ;;      Params:         0       0       0       0       0       0       0       0       0       0       0       0       
      +0       0
 13595 ;;      Locals:         0       0       0       0       0       0       0       0       0       0       0       0       
      +0       0
 13596 ;;      Temps:          0       0       0       0       0       0       0       0       0       0       0       0       
      +0       0
 13597 ;;      Totals:         0       0       0       0       0       0       0       0       0       0       0       0       
      +0       0
 13598 ;;Total ram usage:        0 bytes
 13599 ;; Hardware stack levels used: 1
 13600 ;; This function calls:
 13601 ;;		Nothing
 13602 ;; This function is called by:
 13603 ;;		_main
 13604 ;; This function uses a non-reentrant model
 13605 ;;
 13606                           
 13607                           
 13608                           ;psect for function _adc_init
 13609  1C2D                     _adc_init:
 13610  1C2D                     l3990:	
 13611                           ;incstack = 0
 13612                           ; Regs used in _adc_init: [wreg+status,2]
 13613                           
 13614                           
 13615                           ;adc.c: 4:     ADCON0 = ADCON0 & ~(1<<7 | 1<<4 );
 13616  1C2D  0021               	movlb	1	; select bank1
 13617  1C2E  0813               	movf	19,w	;volatile
 13618  1C2F  396F               	andlw	111
 13619  1C30  0093               	movwf	19	;volatile
 13620                           
 13621                           ;adc.c: 5:     ADCON0 = ADCON0 |(1<<2);
 13622  1C31  0813               	movf	19,w	;volatile
 13623  1C32  3804               	iorlw	4
 13624  1C33  0093               	movwf	19	;volatile
 13625                           
 13626                           ;adc.c: 6:     ADCON1 = ADCON1 |(1<<7);
 13627  1C34  0814               	movf	20,w	;volatile
 13628  1C35  3880               	iorlw	128
 13629  1C36  0094               	movwf	20	;volatile
 13630                           
 13631                           ;adc.c: 7:     ADCON2 = ADCON2 & ~(7<<0 );
 13632  1C37  0815               	movf	21,w	;volatile
 13633  1C38  39F8               	andlw	248
 13634  1C39  0095               	movwf	21	;volatile
 13635                           
 13636                           ;adc.c: 17:     ADCLK = ADCLK |(16<<0);
 13637  1C3A  0818               	movf	24,w	;volatile
 13638  1C3B  3810               	iorlw	16
 13639  1C3C  0098               	movwf	24	;volatile
 13640                           
 13641                           ;adc.c: 19:     ADREF = ADREF & ~(1<<4 );
 13642  1C3D  081A               	movf	26,w	;volatile
 13643  1C3E  39EF               	andlw	239
 13644  1C3F  009A               	movwf	26	;volatile
 13645                           
 13646                           ;adc.c: 20:     ADREF = ADREF & ~(3<<0 );
 13647  1C40  081A               	movf	26,w	;volatile
 13648  1C41  39FC               	andlw	252
 13649  1C42  009A               	movwf	26	;volatile
 13650  1C43                     l3992:
 13651                           
 13652                           ;adc.c: 23:     ADPCH = 4;
 13653  1C43  3004               	movlw	4
 13654  1C44  009E               	movwf	30	;volatile
 13655                           
 13656                           ;adc.c: 24:     ADCAP = 0;
 13657  1C45  019B               	clrf	27	;volatile
 13658  1C46                     l129:
 13659  1C46  0008               	return
 13660  1C47                     __end_of_adc_init:
 13661                           
 13662                           	psect	text39
 13663  115A                     __ptext39:	
 13664 ;; *************** function ___xxtofl *****************
 13665 ;; Defined at:
 13666 ;;		line 10 in file "C:\Program Files\Microchip\xc8\v2.32\pic\sources\c99\common\xxtofl.c"
 13667 ;; Parameters:    Size  Location     Type
 13668 ;;  sign            1    wreg     unsigned char 
 13669 ;;  val             4    0[COMMON] long 
 13670 ;; Auto vars:     Size  Location     Type
 13671 ;;  sign            1    8[COMMON] unsigned char 
 13672 ;;  arg             4   10[COMMON] unsigned long 
 13673 ;;  exp             1    9[COMMON] unsigned char 
 13674 ;; Return value:  Size  Location     Type
 13675 ;;                  4    0[COMMON] unsigned char 
 13676 ;; Registers used:
 13677 ;;		wreg, status,2, status,0
 13678 ;; Tracked objects:
 13679 ;;		On entry : 0/0
 13680 ;;		On exit  : 0/0
 13681 ;;		Unchanged: 0/0
 13682 ;; Data sizes:     COMMON   BANK0   BANK1   BANK2   BANK3   BANK4   BANK5   BANK6   BANK7   BANK8   BANK9  BANK10  BANK1
      +1  BANK12
 13683 ;;      Params:         4       0       0       0       0       0       0       0       0       0       0       0       
      +0       0
 13684 ;;      Locals:         6       0       0       0       0       0       0       0       0       0       0       0       
      +0       0
 13685 ;;      Temps:          4       0       0       0       0       0       0       0       0       0       0       0       
      +0       0
 13686 ;;      Totals:        14       0       0       0       0       0       0       0       0       0       0       0       
      +0       0
 13687 ;;Total ram usage:       14 bytes
 13688 ;; Hardware stack levels used: 1
 13689 ;; This function calls:
 13690 ;;		Nothing
 13691 ;; This function is called by:
 13692 ;;		_main
 13693 ;; This function uses a non-reentrant model
 13694 ;;
 13695                           
 13696                           
 13697                           ;psect for function ___xxtofl
 13698  115A                     ___xxtofl:
 13699                           
 13700                           ;incstack = 0
 13701                           ; Regs used in ___xxtofl: [wreg+status,2+status,0]
 13702                           ;___xxtofl@sign stored from wreg
 13703  115A  00F8               	movwf	___xxtofl@sign
 13704  115B                     l4038:
 13705  115B  0878               	movf	___xxtofl@sign,w
 13706  115C  1903               	btfsc	3,2
 13707  115D  295F               	goto	u6171
 13708  115E  2960               	goto	u6170
 13709  115F                     u6171:
 13710  115F  2974               	goto	l4044
 13711  1160                     u6170:
 13712  1160                     l4040:
 13713  1160  1FF3               	btfss	___xxtofl@val+3,7
 13714  1161  2963               	goto	u6181
 13715  1162  2964               	goto	u6180
 13716  1163                     u6181:
 13717  1163  2974               	goto	l4044
 13718  1164                     u6180:
 13719  1164                     l4042:
 13720  1164  0970               	comf	___xxtofl@val,w
 13721  1165  00FA               	movwf	___xxtofl@arg
 13722  1166  0971               	comf	___xxtofl@val+1,w
 13723  1167  00FB               	movwf	___xxtofl@arg+1
 13724  1168  0972               	comf	___xxtofl@val+2,w
 13725  1169  00FC               	movwf	___xxtofl@arg+2
 13726  116A  0973               	comf	___xxtofl@val+3,w
 13727  116B  00FD               	movwf	___xxtofl@arg+3
 13728  116C  0AFA               	incf	___xxtofl@arg,f
 13729  116D  1903               	skipnz
 13730  116E  0AFB               	incf	___xxtofl@arg+1,f
 13731  116F  1903               	skipnz
 13732  1170  0AFC               	incf	___xxtofl@arg+2,f
 13733  1171  1903               	skipnz
 13734  1172  0AFD               	incf	___xxtofl@arg+3,f
 13735  1173  297C               	goto	l728
 13736  1174                     l4044:
 13737  1174  0873               	movf	___xxtofl@val+3,w
 13738  1175  00FD               	movwf	___xxtofl@arg+3
 13739  1176  0872               	movf	___xxtofl@val+2,w
 13740  1177  00FC               	movwf	___xxtofl@arg+2
 13741  1178  0871               	movf	___xxtofl@val+1,w
 13742  1179  00FB               	movwf	___xxtofl@arg+1
 13743  117A  0870               	movf	___xxtofl@val,w
 13744  117B  00FA               	movwf	___xxtofl@arg
 13745  117C                     l728:
 13746  117C  0873               	movf	___xxtofl@val+3,w
 13747  117D  0472               	iorwf	___xxtofl@val+2,w
 13748  117E  0471               	iorwf	___xxtofl@val+1,w
 13749  117F  0470               	iorwf	___xxtofl@val,w
 13750  1180  1D03               	skipz
 13751  1181  2983               	goto	u6191
 13752  1182  2984               	goto	u6190
 13753  1183                     u6191:
 13754  1183  298D               	goto	l4050
 13755  1184                     u6190:
 13756  1184                     l4046:
 13757  1184  3000               	movlw	0
 13758  1185  00F3               	movwf	?___xxtofl+3
 13759  1186  3000               	movlw	0
 13760  1187  00F2               	movwf	?___xxtofl+2
 13761  1188  3000               	movlw	0
 13762  1189  00F1               	movwf	?___xxtofl+1
 13763  118A  3000               	movlw	0
 13764  118B  00F0               	movwf	?___xxtofl
 13765  118C  2A05               	goto	l730
 13766  118D                     l4050:
 13767  118D  3096               	movlw	150
 13768  118E  00F4               	movwf	??___xxtofl
 13769  118F  0874               	movf	??___xxtofl,w
 13770  1190  00F9               	movwf	___xxtofl@exp
 13771  1191  299D               	goto	l4054
 13772  1192                     l4052:
 13773  1192  3001               	movlw	1
 13774  1193  00F4               	movwf	??___xxtofl
 13775  1194  0874               	movf	??___xxtofl,w
 13776  1195  07F9               	addwf	___xxtofl@exp,f
 13777  1196  3001               	movlw	1
 13778  1197                     u6205:
 13779  1197  36FD               	lsrf	___xxtofl@arg+3,f
 13780  1198  0CFC               	rrf	___xxtofl@arg+2,f
 13781  1199  0CFB               	rrf	___xxtofl@arg+1,f
 13782  119A  0CFA               	rrf	___xxtofl@arg,f
 13783  119B  0B89               	decfsz	9,f
 13784  119C  2997               	goto	u6205
 13785  119D                     l4054:
 13786  119D  30FE               	movlw	254
 13787  119E  057D               	andwf	___xxtofl@arg+3,w
 13788  119F  1D03               	btfss	3,2
 13789  11A0  29A2               	goto	u6211
 13790  11A1  29A3               	goto	u6210
 13791  11A2                     u6211:
 13792  11A2  2992               	goto	l4052
 13793  11A3                     u6210:
 13794  11A3  29B7               	goto	l734
 13795  11A4                     l4056:
 13796  11A4  3001               	movlw	1
 13797  11A5  00F4               	movwf	??___xxtofl
 13798  11A6  0874               	movf	??___xxtofl,w
 13799  11A7  07F9               	addwf	___xxtofl@exp,f
 13800  11A8                     l4058:
 13801  11A8  3001               	movlw	1
 13802  11A9  07FA               	addwf	___xxtofl@arg,f
 13803  11AA  3000               	movlw	0
 13804  11AB  3DFB               	addwfc	___xxtofl@arg+1,f
 13805  11AC  3000               	movlw	0
 13806  11AD  3DFC               	addwfc	___xxtofl@arg+2,f
 13807  11AE  3000               	movlw	0
 13808  11AF  3DFD               	addwfc	___xxtofl@arg+3,f
 13809  11B0                     l4060:
 13810  11B0  3001               	movlw	1
 13811  11B1                     u6225:
 13812  11B1  36FD               	lsrf	___xxtofl@arg+3,f
 13813  11B2  0CFC               	rrf	___xxtofl@arg+2,f
 13814  11B3  0CFB               	rrf	___xxtofl@arg+1,f
 13815  11B4  0CFA               	rrf	___xxtofl@arg,f
 13816  11B5  0B89               	decfsz	9,f
 13817  11B6  29B1               	goto	u6225
 13818  11B7                     l734:
 13819  11B7  30FF               	movlw	255
 13820  11B8  057D               	andwf	___xxtofl@arg+3,w
 13821  11B9  1D03               	btfss	3,2
 13822  11BA  29BC               	goto	u6231
 13823  11BB  29BD               	goto	u6230
 13824  11BC                     u6231:
 13825  11BC  29A4               	goto	l4056
 13826  11BD                     u6230:
 13827  11BD  29C7               	goto	l4064
 13828  11BE                     l4062:
 13829  11BE  3001               	movlw	1
 13830  11BF  02F9               	subwf	___xxtofl@exp,f
 13831  11C0  3001               	movlw	1
 13832  11C1                     u6245:
 13833  11C1  35FA               	lslf	___xxtofl@arg,f
 13834  11C2  0DFB               	rlf	___xxtofl@arg+1,f
 13835  11C3  0DFC               	rlf	___xxtofl@arg+2,f
 13836  11C4  0DFD               	rlf	___xxtofl@arg+3,f
 13837  11C5  0B89               	decfsz	9,f
 13838  11C6  29C1               	goto	u6245
 13839  11C7                     l4064:
 13840  11C7  1BFC               	btfsc	___xxtofl@arg+2,7
 13841  11C8  29CA               	goto	u6251
 13842  11C9  29CB               	goto	u6250
 13843  11CA                     u6251:
 13844  11CA  29D1               	goto	l741
 13845  11CB                     u6250:
 13846  11CB                     l4066:
 13847  11CB  3002               	movlw	2
 13848  11CC  0279               	subwf	___xxtofl@exp,w
 13849  11CD  1803               	skipnc
 13850  11CE  29D0               	goto	u6261
 13851  11CF  29D1               	goto	u6260
 13852  11D0                     u6261:
 13853  11D0  29BE               	goto	l4062
 13854  11D1                     u6260:
 13855  11D1                     l741:
 13856  11D1  1879               	btfsc	___xxtofl@exp,0
 13857  11D2  29D4               	goto	u6271
 13858  11D3  29D5               	goto	u6270
 13859  11D4                     u6271:
 13860  11D4  29DD               	goto	l742
 13861  11D5                     u6270:
 13862  11D5                     l4068:
 13863  11D5  30FF               	movlw	255
 13864  11D6  05FA               	andwf	___xxtofl@arg,f
 13865  11D7  30FF               	movlw	255
 13866  11D8  05FB               	andwf	___xxtofl@arg+1,f
 13867  11D9  307F               	movlw	127
 13868  11DA  05FC               	andwf	___xxtofl@arg+2,f
 13869  11DB  30FF               	movlw	255
 13870  11DC  05FD               	andwf	___xxtofl@arg+3,f
 13871  11DD                     l742:
 13872  11DD  1003               	clrc
 13873  11DE  0CF9               	rrf	___xxtofl@exp,f
 13874  11DF                     l4070:
 13875  11DF  0879               	movf	___xxtofl@exp,w
 13876  11E0  00F4               	movwf	??___xxtofl
 13877  11E1  01F5               	clrf	??___xxtofl+1
 13878  11E2  01F6               	clrf	??___xxtofl+2
 13879  11E3  01F7               	clrf	??___xxtofl+3
 13880  11E4  3018               	movlw	24
 13881  11E5                     u6285:
 13882  11E5  35F4               	lslf	??___xxtofl,f
 13883  11E6  0DF5               	rlf	??___xxtofl+1,f
 13884  11E7  0DF6               	rlf	??___xxtofl+2,f
 13885  11E8  0DF7               	rlf	??___xxtofl+3,f
 13886  11E9                     u6280:
 13887  11E9  0B89               	decfsz	9,f
 13888  11EA  29E5               	goto	u6285
 13889  11EB  0874               	movf	??___xxtofl,w
 13890  11EC  04FA               	iorwf	___xxtofl@arg,f
 13891  11ED  0875               	movf	??___xxtofl+1,w
 13892  11EE  04FB               	iorwf	___xxtofl@arg+1,f
 13893  11EF  0876               	movf	??___xxtofl+2,w
 13894  11F0  04FC               	iorwf	___xxtofl@arg+2,f
 13895  11F1  0877               	movf	??___xxtofl+3,w
 13896  11F2  04FD               	iorwf	___xxtofl@arg+3,f
 13897  11F3                     l4072:
 13898  11F3  0878               	movf	___xxtofl@sign,w
 13899  11F4  1903               	btfsc	3,2
 13900  11F5  29F7               	goto	u6291
 13901  11F6  29F8               	goto	u6290
 13902  11F7                     u6291:
 13903  11F7  29FD               	goto	l4078
 13904  11F8                     u6290:
 13905  11F8                     l4074:
 13906  11F8  1FF3               	btfss	___xxtofl@val+3,7
 13907  11F9  29FB               	goto	u6301
 13908  11FA  29FC               	goto	u6300
 13909  11FB                     u6301:
 13910  11FB  29FD               	goto	l4078
 13911  11FC                     u6300:
 13912  11FC                     l4076:
 13913  11FC  17FD               	bsf	___xxtofl@arg+3,7
 13914  11FD                     l4078:
 13915  11FD  087D               	movf	___xxtofl@arg+3,w
 13916  11FE  00F3               	movwf	?___xxtofl+3
 13917  11FF  087C               	movf	___xxtofl@arg+2,w
 13918  1200  00F2               	movwf	?___xxtofl+2
 13919  1201  087B               	movf	___xxtofl@arg+1,w
 13920  1202  00F1               	movwf	?___xxtofl+1
 13921  1203  087A               	movf	___xxtofl@arg,w
 13922  1204  00F0               	movwf	?___xxtofl
 13923  1205                     l730:
 13924  1205  0008               	return
 13925  1206                     __end_of___xxtofl:
 13926  007E                     btemp	set	126	;btemp
 13927  007E                     wtemp0	set	126
 13928                           
 13929                           	psect	idloc
 13930                           
 13931                           ;Config register IDLOC0 @ 0x8000
 13932                           ;	unspecified, using default values
 13933  8000                     	org	32768
 13934  8000  3FFF               	dw	16383
 13935                           
 13936                           ;Config register IDLOC1 @ 0x8001
 13937                           ;	unspecified, using default values
 13938  8001                     	org	32769
 13939  8001  3FFF               	dw	16383
 13940                           
 13941                           ;Config register IDLOC2 @ 0x8002
 13942                           ;	unspecified, using default values
 13943  8002                     	org	32770
 13944  8002  3FFF               	dw	16383
 13945                           
 13946                           ;Config register IDLOC3 @ 0x8003
 13947                           ;	unspecified, using default values
 13948  8003                     	org	32771
 13949  8003  3FFF               	dw	16383
 13950                           
 13951                           	psect	config
 13952                           
 13953                           ;Config register CONFIG1 @ 0x8007
 13954                           ;	External Oscillator mode selection bits
 13955                           ;	FEXTOSC = OFF, Oscillator not enabled
 13956                           ;	Power-up default value for COSC bits
 13957                           ;	RSTOSC = HFINT32, HFINTOSC with OSCFRQ= 32 MHz and CDIV = 1:1
 13958                           ;	Clock Out Enable bit
 13959                           ;	CLKOUTEN = OFF, CLKOUT function is disabled; i/o or oscillator function on OSC2
 13960                           ;	Clock Switch Enable bit
 13961                           ;	CSWEN = ON, Writing to NOSC and NDIV is allowed
 13962                           ;	Fail-Safe Clock Monitor Enable bit
 13963                           ;	FCMEN = ON, FSCM timer enabled
 13964  8007                     	org	32775
 13965  8007  3F8C               	dw	16268
 13966                           
 13967                           ;Config register CONFIG2 @ 0x8008
 13968                           ;	Master Clear Enable bit
 13969                           ;	MCLRE = ON, MCLR pin is Master Clear function
 13970                           ;	Power-up Timer Enable bit
 13971                           ;	PWRTE = OFF, PWRT disabled
 13972                           ;	Low-Power BOR enable bit
 13973                           ;	LPBOREN = OFF, ULPBOR disabled
 13974                           ;	Brown-out reset enable bits
 13975                           ;	BOREN = ON, Brown-out Reset Enabled, SBOREN bit is ignored
 13976                           ;	Brown-out Reset Voltage Selection
 13977                           ;	BORV = LO, Brown-out Reset Voltage (VBOR) set to 1.9V on LF, and 2.45V on F Devices
 13978                           ;	Zero-cross detect disable
 13979                           ;	ZCD = OFF, Zero-cross detect circuit is disabled at POR.
 13980                           ;	Peripheral Pin Select one-way control
 13981                           ;	PPS1WAY = ON, The PPSLOCK bit can be cleared and set only once in software
 13982                           ;	Stack Overflow/Underflow Reset Enable bit
 13983                           ;	STVREN = ON, Stack Overflow or Underflow will cause a reset
 13984                           ;	Background Debugger
 13985                           ;	DEBUG = 0x1, unprogrammed default
 13986  8008                     	org	32776
 13987  8008  3FFF               	dw	16383
 13988                           
 13989                           ;Config register CONFIG3 @ 0x8009
 13990                           ;	WDT Period Select bits
 13991                           ;	WDTCPS = WDTCPS_31, Divider ratio 1:65536; software control of WDTPS
 13992                           ;	WDT operating mode
 13993                           ;	WDTE = OFF, WDT Disabled, SWDTEN is ignored
 13994                           ;	WDT Window Select bits
 13995                           ;	WDTCWS = WDTCWS_7, window always open (100%); software control; keyed access not requi
      +                          red
 13996                           ;	WDT input clock selector
 13997                           ;	WDTCCS = SC, Software Control
 13998  8009                     	org	32777
 13999  8009  3F9F               	dw	16287
 14000                           
 14001                           ;Config register CONFIG4 @ 0x800A
 14002                           ;	UserNVM self-write protection bits
 14003                           ;	WRT = OFF, Write protection off
 14004                           ;	Scanner Enable bit
 14005                           ;	SCANE = available, Scanner module is available for use
 14006                           ;	Low Voltage Programming Enable bit
 14007                           ;	LVP = ON, Low Voltage programming enabled. MCLR/Vpp pin function is MCLR.
 14008  800A                     	org	32778
 14009  800A  3FFF               	dw	16383
 14010                           
 14011                           ;Config register CONFIG5 @ 0x800B
 14012                           ;	UserNVM Program memory code protection bit
 14013                           ;	CP = OFF, Program Memory code protection disabled
 14014                           ;	DataNVM code protection bit
 14015                           ;	CPD = OFF, Data EEPROM code protection disabled
 14016  800B                     	org	32779
 14017  800B  3FFF               	dw	16383

Data Sizes:
    Strings     75
    Constant    4
    Data        0
    BSS         104
    Persistent  32
    Stack       0

Auto Spaces:
    Space          Size  Autos    Used
    COMMON           14     14      14
    BANK0            80     80      80
    BANK1            80     80      80
    BANK2            80     38      62
    BANK3            80      0      80
    BANK4            80      0       0
    BANK5            80      0       0
    BANK6            80      0       0
    BANK7            80      0       0
    BANK8            80      0       0
    BANK9            80      0       0
    BANK10           80      0       0
    BANK11           80      0       0
    BANK12           48      0       0

Pointer List with Targets:

    strncmp@_r	PTR const unsigned char  size(2) Largest target is 3
		 -> STR_14(CODE[3]), 

    strncmp@r	PTR const unsigned char  size(2) Largest target is 3
		 -> STR_14(CODE[3]), 

    strncmp@_l	PTR const unsigned char  size(1) Largest target is 3
		 -> vfpfcnvrt@ct(BANK0[3]), 

    strncmp@l	PTR const unsigned char  size(1) Largest target is 3
		 -> vfpfcnvrt@ct(BANK0[3]), 

    strlen@s	PTR const unsigned char  size(1) Largest target is 80
		 -> dbuf(BANK3[80]), 

    strlen@a	PTR const unsigned char  size(1) Largest target is 80
		 -> dbuf(BANK3[80]), 

    strcpy@dest	PTR unsigned char  size(1) Largest target is 80
		 -> dbuf(BANK3[80]), 

    strcpy@d	PTR unsigned char  size(1) Largest target is 80
		 -> dbuf(BANK3[80]), 

    strcpy@src	PTR const unsigned char  size(2) Largest target is 80
		 -> STR_9(CODE[4]), STR_8(CODE[4]), STR_5(CODE[4]), STR_4(CODE[4]), 
		 -> dbuf(BANK3[80]), 

    strcpy@s	PTR const unsigned char  size(2) Largest target is 80
		 -> STR_9(CODE[4]), STR_8(CODE[4]), STR_5(CODE[4]), STR_4(CODE[4]), 
		 -> dbuf(BANK3[80]), 

    printf@fmt	PTR const unsigned char  size(1) Largest target is 32
		 -> main@buffer(BANK2[32]), 

    printf@ap	PTR void [1] size(1) Largest target is 2
		 -> ?_printf(COMMON[2]), ?_sprintf(BANK1[2]), 

    fputs@s	PTR const unsigned char  size(1) Largest target is 80
		 -> dbuf(BANK3[80]), 

    fputs@fp	PTR struct _IO_FILE size(1) Largest target is 6
		 -> NULL(NULL[0]), sprintf@f(BANK1[5]), 

    fputc@fp.buffer	PTR unsigned char  size(1) Largest target is 32
		 -> main@buffer(BANK2[32]), 

    fputc@fp	PTR struct _IO_FILE size(1) Largest target is 6
		 -> NULL(NULL[0]), sprintf@f(BANK1[5]), 

    vfprintf@ap	PTR PTR void  size(1) Largest target is 1
		 -> printf@ap(BANK1[1]), sprintf@ap(BANK1[1]), 

    vfprintf@fp	PTR struct _IO_FILE size(1) Largest target is 6
		 -> NULL(NULL[0]), sprintf@f(BANK1[5]), 

    vfprintf@fmt	PTR const unsigned char  size(2) Largest target is 32
		 -> STR_3(CODE[13]), STR_2(CODE[28]), STR_1(CODE[15]), main@buffer(BANK2[32]), 

    vfprintf@cfmt	PTR unsigned char  size(2) Largest target is 32
		 -> STR_3(CODE[13]), STR_2(CODE[28]), STR_1(CODE[15]), main@buffer(BANK2[32]), 

    vfpfcnvrt@vp	PTR void  size(1) Largest target is 2
		 -> ?_printf(COMMON[2]), ?_sprintf(BANK1[2]), 

    vfpfcnvrt@fp	PTR struct _IO_FILE size(1) Largest target is 6
		 -> NULL(NULL[0]), sprintf@f(BANK1[5]), 

    vfpfcnvrt@ap	PTR PTR void  size(1) Largest target is 1
		 -> printf@ap(BANK1[1]), sprintf@ap(BANK1[1]), 

    vfpfcnvrt@fmt	PTR PTR unsigned char  size(1) Largest target is 2
		 -> vfprintf@cfmt(BANK1[2]), 

    efgtoa@fp	PTR struct _IO_FILE size(1) Largest target is 6
		 -> NULL(NULL[0]), sprintf@f(BANK1[5]), 

    sp__strcpy	PTR unsigned char  size(1) Largest target is 80
		 -> dbuf(BANK3[80]), 

    dtoa@fp	PTR struct _IO_FILE size(1) Largest target is 6
		 -> NULL(NULL[0]), sprintf@f(BANK1[5]), 

    pad@fp	PTR struct _IO_FILE size(1) Largest target is 6
		 -> NULL(NULL[0]), sprintf@f(BANK1[5]), 

    pad@buf	PTR unsigned char  size(1) Largest target is 80
		 -> dbuf(BANK3[80]), 

    sprintf@fmt	PTR const unsigned char  size(2) Largest target is 28
		 -> STR_3(CODE[13]), STR_2(CODE[28]), STR_1(CODE[15]), 

    sprintf@s	PTR unsigned char  size(1) Largest target is 32
		 -> main@buffer(BANK2[32]), 

    sprintf@ap	PTR void [1] size(1) Largest target is 2
		 -> ?_printf(COMMON[2]), ?_sprintf(BANK1[2]), 

    S595_IO_FILE$buffer	PTR unsigned char  size(1) Largest target is 32
		 -> main@buffer(BANK2[32]), 

    f.buffer	PTR unsigned char  size(1) Largest target is 32
		 -> main@buffer(BANK2[32]), 


Critical Paths under _main in COMMON

    _main->___xxtofl
    _serial_init->___lldiv
    _vfpfcnvrt->_tolower
    _efgtoa->_tolower
    _tolower->_isupper
    _floorf->___fldiv
    ___flmul->___xxtofl
    _dtoa->_pad
    _pad->_fputs
    _fputs->_fputc
    _fputc->_putch
    _putch->_uart_tx
    _abs->___aomod

Critical Paths under _main in BANK0

    _sprintf->_vfprintf
    _printf->_vfprintf
    _vfprintf->_vfpfcnvrt
    _vfpfcnvrt->_efgtoa
    _efgtoa->___flge
    _floorf->___fldiv
    ___flsub->___flmul
    ___flge->___flmul
    _dtoa->___aodiv
    _dtoa->___aomod
    _pad->_fputs
    _abs->___aomod

Critical Paths under _main in BANK1

    _main->_sprintf
    _sprintf->_vfprintf
    _printf->_vfprintf
    _vfpfcnvrt->_efgtoa

Critical Paths under _main in BANK2

    None.

Critical Paths under _main in BANK3

    None.

Critical Paths under _main in BANK4

    None.

Critical Paths under _main in BANK5

    None.

Critical Paths under _main in BANK6

    None.

Critical Paths under _main in BANK7

    None.

Critical Paths under _main in BANK8

    None.

Critical Paths under _main in BANK9

    None.

Critical Paths under _main in BANK10

    None.

Critical Paths under _main in BANK11

    None.

Critical Paths under _main in BANK12

    None.

Call Graph Tables:

 ---------------------------------------------------------------------------------
 (Depth) Function   	        Calls       Base Space   Used Autos Params    Refs
 ---------------------------------------------------------------------------------
 (0) _main                                                38    38      0   70030
                                              0 BANK2     38    38      0
                            ___fldiv
                            ___flmul
                           ___xxtofl
                           _adc_init
                           _adc_read
                          _port_init
                             _printf
                        _serial_init
                            _sprintf
                            _uart_rx
 ---------------------------------------------------------------------------------
 (1) _uart_rx                                              1     1      0       0
                                              0 COMMON     1     1      0
 ---------------------------------------------------------------------------------
 (1) _sprintf                                             22    10     12   31873
                                             60 BANK1     20     8     12
                           _vfprintf
 ---------------------------------------------------------------------------------
 (1) _serial_init                                         10     6      4     457
                                              0 BANK0     10     6      4
                            ___lldiv
 ---------------------------------------------------------------------------------
 (2) ___lldiv                                             14     6      8     314
                                              0 COMMON    14     6      8
 ---------------------------------------------------------------------------------
 (1) _printf                                               5     5      0   31500
                                             60 BANK1      3     3      0
                           _vfprintf
 ---------------------------------------------------------------------------------
 (2) _vfprintf                                             8     5      3   31339
                                             75 BANK0      5     2      3
                                             57 BANK1      3     3      0
                          _vfpfcnvrt
 ---------------------------------------------------------------------------------
 (3) _vfpfcnvrt                                           42    40      2   30829
                                             47 BANK0     28    26      2
                               _dtoa
                             _efgtoa
                              _fputc
                            _isupper
                            _strncmp
                            _tolower
 ---------------------------------------------------------------------------------
 (4) _strncmp                                              9     5      4     410
                                              0 COMMON     9     5      4
 ---------------------------------------------------------------------------------
 (4) _efgtoa                                              66    61      5   22175
                                             38 BANK0      9     4      5
                                              0 BANK1     57    57      0
                            ___awdiv
                            ___awmod
                            ___fladd
                            ___fldiv
                             ___fleq
                             ___flge
                            ___flmul
                            ___flneg
                            ___flsub
                            ___fltol
                      ___fpclassifyf
                             _floorf
                            _isupper
                                _pad
                             _strcpy
                            _tolower
 ---------------------------------------------------------------------------------
 (4) _tolower                                              8     6      2     944
                                              6 COMMON     8     6      2
                            _isupper
 ---------------------------------------------------------------------------------
 (5) _isupper                                              6     4      2     465
                                              0 COMMON     6     4      2
 ---------------------------------------------------------------------------------
 (5) _strcpy                                               8     6      2     641
                                              0 COMMON     8     6      2
 ---------------------------------------------------------------------------------
 (5) _floorf                                              20    16      4     490
                                             13 BANK0     20    16      4
                            ___fldiv (ARG)
 ---------------------------------------------------------------------------------
 (5) ___fpclassifyf                                       16    12      4     287
                                              0 COMMON    10     6      4
                                              0 BANK0      6     6      0
 ---------------------------------------------------------------------------------
 (5) ___fltol                                             11     7      4     381
                                              0 COMMON    11     7      4
 ---------------------------------------------------------------------------------
 (5) ___flsub                                              8     0      8    2637
                                             26 BANK0      8     0      8
                            ___fladd
                            ___flmul (ARG)
 ---------------------------------------------------------------------------------
 (6) ___fladd                                             20    12      8    2288
                                              0 COMMON    12     4      8
                                              0 BANK0      8     8      0
 ---------------------------------------------------------------------------------
 (5) ___flneg                                              4     0      4     121
                                              0 COMMON     4     0      4
 ---------------------------------------------------------------------------------
 (5) ___flmul                                             26    18      8    3481
                                              0 BANK0     26    18      8
                          __Umul8_16
                           ___xxtofl (ARG)
 ---------------------------------------------------------------------------------
 (6) __Umul8_16                                            9     7      2     799
                                              0 COMMON     9     7      2
 ---------------------------------------------------------------------------------
 (5) ___flge                                              12     4      8     942
                                             26 BANK0     12     4      8
                            ___flmul (ARG)
 ---------------------------------------------------------------------------------
 (5) ___fleq                                              12     4      8     394
                                              0 COMMON    12     4      8
 ---------------------------------------------------------------------------------
 (5) ___fldiv                                             26    18      8    2033
                                              0 COMMON    13     5      8
                                              0 BANK0     13    13      0
 ---------------------------------------------------------------------------------
 (5) ___awmod                                              7     3      4     448
                                              0 COMMON     7     3      4
 ---------------------------------------------------------------------------------
 (5) ___awdiv                                              9     5      4     452
                                              0 COMMON     9     5      4
 ---------------------------------------------------------------------------------
 (4) _dtoa                                                30    22      8    4786
                                             16 BANK0     30    22      8
                            ___aodiv
                            ___aomod
                                _abs
                                _pad
 ---------------------------------------------------------------------------------
 (5) _pad                                                  9     6      3    3180
                                             12 COMMON     1     1      0
                                              7 BANK0      8     5      3
                              _fputc
                              _fputs
                             _strlen
 ---------------------------------------------------------------------------------
 (6) _strlen                                               5     3      2     123
                                              0 COMMON     5     3      2
 ---------------------------------------------------------------------------------
 (6) _fputs                                                8     7      1    1193
                                             11 COMMON     1     0      1
                                              0 BANK0      7     7      0
                              _fputc
 ---------------------------------------------------------------------------------
 (4) _fputc                                                8     5      3     878
                                              3 COMMON     8     5      3
                              _putch
 ---------------------------------------------------------------------------------
 (5) _putch                                                1     1      0      44
                                              2 COMMON     1     1      0
                            _uart_tx
 ---------------------------------------------------------------------------------
 (6) _uart_tx                                              2     2      0      22
                                              0 COMMON     2     2      0
 ---------------------------------------------------------------------------------
 (5) _abs                                                  4     2      2     142
                                              3 COMMON     4     2      2
                            ___aomod (ARG)
 ---------------------------------------------------------------------------------
 (5) ___aomod                                             19     3     16     448
                                              0 COMMON     3     3      0
                                              0 BANK0     16     0     16
 ---------------------------------------------------------------------------------
 (5) ___aodiv                                             27    11     16     452
                                              0 COMMON    11    11      0
                                              0 BANK0     16     0     16
 ---------------------------------------------------------------------------------
 (1) _port_init                                            0     0      0       0
 ---------------------------------------------------------------------------------
 (1) _adc_read                                             3     1      2      22
                                              0 COMMON     3     1      2
 ---------------------------------------------------------------------------------
 (1) _adc_init                                             0     0      0       0
 ---------------------------------------------------------------------------------
 (1) ___xxtofl                                            14    10      4     398
                                              0 COMMON    14    10      4
 ---------------------------------------------------------------------------------
 Estimated maximum stack depth 6
 ---------------------------------------------------------------------------------

 Call Graph Graphs:

 _main (ROOT)
   ___fldiv
   ___flmul
     __Umul8_16
     ___xxtofl (ARG)
   ___xxtofl
   _adc_init
   _adc_read
   _port_init
   _printf
     _vfprintf
       _vfpfcnvrt
         _dtoa
           ___aodiv
           ___aomod
           _abs
             ___aomod (ARG)
           _pad
             _fputc
               _putch
                 _uart_tx
             _fputs
               _fputc
             _strlen
         _efgtoa
           ___awdiv
           ___awmod
           ___fladd
           ___fldiv
           ___fleq
           ___flge
             ___flmul (ARG)
           ___flmul
           ___flneg
           ___flsub
             ___fladd
             ___flmul (ARG)
           ___fltol
           ___fpclassifyf
           _floorf
             ___fldiv (ARG)
           _isupper
           _pad
           _strcpy
           _tolower
             _isupper
         _fputc
         _isupper
         _strncmp
         _tolower
   _serial_init
     ___lldiv
   _sprintf
     _vfprintf
   _uart_rx

 Address spaces:
Name               Size   Autos  Total    Cost      Usage
BIGRAM             3F0      0       0       0        0.0%
EEDATA             100      0       0       0        0.0%
NULL                 0      0       0       0        0.0%
CODE                 0      0       0       0        0.0%
BITCOMMON            E      0       0       1        0.0%
BITSFR0              0      0       0       1        0.0%
SFR0                 0      0       0       1        0.0%
COMMON               E      E       E       2      100.0%
BITSFR1              0      0       0       2        0.0%
SFR1                 0      0       0       2        0.0%
BITSFR2              0      0       0       3        0.0%
SFR2                 0      0       0       3        0.0%
STACK                0      0       0       3        0.0%
BITBANK0            50      0       0       4        0.0%
BITSFR3              0      0       0       4        0.0%
SFR3                 0      0       0       4        0.0%
BANK0               50     50      50       5      100.0%
BITSFR4              0      0       0       5        0.0%
SFR4                 0      0       0       5        0.0%
BITBANK1            50      0       0       6        0.0%
BITSFR5              0      0       0       6        0.0%
SFR5                 0      0       0       6        0.0%
BANK1               50     50      50       7      100.0%
BITSFR6              0      0       0       7        0.0%
SFR6                 0      0       0       7        0.0%
BITBANK2            50      0       0       8        0.0%
BITSFR7              0      0       0       8        0.0%
SFR7                 0      0       0       8        0.0%
BANK2               50     26      3E       9       77.5%
BITSFR8              0      0       0       9        0.0%
SFR8                 0      0       0       9        0.0%
BITBANK3            50      0       0      10        0.0%
BITSFR9              0      0       0      10        0.0%
SFR9                 0      0       0      10        0.0%
BANK3               50      0      50      11      100.0%
BITSFR10             0      0       0      11        0.0%
SFR10                0      0       0      11        0.0%
BITBANK4            50      0       0      12        0.0%
BITSFR11             0      0       0      12        0.0%
SFR11                0      0       0      12        0.0%
BANK4               50      0       0      13        0.0%
BITSFR12             0      0       0      13        0.0%
SFR12                0      0       0      13        0.0%
BITBANK5            50      0       0      14        0.0%
BITSFR13             0      0       0      14        0.0%
SFR13                0      0       0      14        0.0%
BANK5               50      0       0      15        0.0%
BITSFR14             0      0       0      15        0.0%
SFR14                0      0       0      15        0.0%
BITBANK6            50      0       0      16        0.0%
BITSFR15             0      0       0      16        0.0%
SFR15                0      0       0      16        0.0%
BANK6               50      0       0      17        0.0%
BITSFR16             0      0       0      17        0.0%
SFR16                0      0       0      17        0.0%
BITBANK7            50      0       0      18        0.0%
BITSFR17             0      0       0      18        0.0%
SFR17                0      0       0      18        0.0%
BANK7               50      0       0      19        0.0%
BITSFR18             0      0       0      19        0.0%
SFR18                0      0       0      19        0.0%
BITSFR19             0      0       0      20        0.0%
SFR19                0      0       0      20        0.0%
ABS                  0      0     13C      20        0.0%
BITBANK8            50      0       0      21        0.0%
BITSFR20             0      0       0      21        0.0%
SFR20                0      0       0      21        0.0%
BANK8               50      0       0      22        0.0%
BITSFR21             0      0       0      22        0.0%
SFR21                0      0       0      22        0.0%
BITBANK9            50      0       0      23        0.0%
BITSFR22             0      0       0      23        0.0%
SFR22                0      0       0      23        0.0%
BANK9               50      0       0      24        0.0%
BITSFR23             0      0       0      24        0.0%
SFR23                0      0       0      24        0.0%
BITBANK10           50      0       0      25        0.0%
BITSFR24             0      0       0      25        0.0%
SFR24                0      0       0      25        0.0%
BANK10              50      0       0      26        0.0%
BITSFR25             0      0       0      26        0.0%
SFR25                0      0       0      26        0.0%
BITBANK11           50      0       0      27        0.0%
BITSFR26             0      0       0      27        0.0%
SFR26                0      0       0      27        0.0%
BANK11              50      0       0      28        0.0%
BITSFR27             0      0       0      28        0.0%
SFR27                0      0       0      28        0.0%
BITBANK12           30      0       0      29        0.0%
BITSFR28             0      0       0      29        0.0%
SFR28                0      0       0      29        0.0%
BANK12              30      0       0      30        0.0%
BITSFR29             0      0       0      30        0.0%
SFR29                0      0       0      30        0.0%
BITSFR30             0      0       0      31        0.0%
SFR30                0      0       0      31        0.0%
DATA                 0      0     13C      31        0.0%
BITSFR31             0      0       0      32        0.0%
SFR31                0      0       0      32        0.0%


Microchip Technology PIC Macro Assembler V2.32 build 20210201212658 
Symbol Table                                                                                   Thu Jun 23 13:58:08 2022

           ___fldiv@aexp 002C             ___fldiv@bexp 002B             ___fldiv@sign 0024  
                     l81 1E03                       l58 1C95                       l94 1CB3  
                     l87 0811             ___awdiv@sign 0076                       _mv 1800  
    __Umul8_16@word_mpld 0076                      l103 1BF3                      l132 1C23  
                    l135 1C2C                      l400 12DE                      l129 1C46  
                    l401 12EF                      l323 1FFF                      l440 1066  
                    l601 0DA8                      l453 1EF4                      l613 0D21  
                    l462 1E51                      l630 0D9E                      l622 0D7B  
                    l703 1D07                      l631 0DA8                      l456 1E20  
                    l457 1E3C                      l473 00A7                      l465 003A  
                    l705 1D17                      l609 0CFF                      l481 10DA  
                    l730 1205                      l802 154B                      l634 1CD3  
                    l387 14CA                      l803 1563                      l619 0D43  
                    l491 10DA                      l388 14DB                      l820 164B  
                    l660 1781                      l644 16A3                      l468 008E  
                    l741 11D1                      l477 1BFE                      l742 11DD  
                    l734 11B7                      l806 15D4                      l646 17FF  
                    l750 1D8E                      l728 117C                      l592 0C6A  
                    l488 10C5                      l665 17CD                      l666 17E7  
                    l690 0F7B                      l594 0C45                      l922 0B69  
                    l668 17F6                      l684 0FFF                      l588 0BC8  
                    l853 030D                      l854 02EF                      l838 07EC  
                    l792 1F8B                      l696 0FF3                      l864 0351  
                    l953 1C60                      l961 1331                      l794 1FA5  
                    l962 13DA                      l938 1DC5                      l956 1C60  
                    l948 1159                      l972 001C                      l884 0583  
                    l789 1F69                      l797 1525                      l798 152E  
                    l966 13D2                      l879 056D                      l987 1EA1  
                    l995 1D65                      _abs 1C47                      _pad 1F4D  
           ___awmod@sign 0076                      wreg 0009             ___flmul@aexp 0032  
           ___flmul@bexp 0033              _tolower$859 007C             ___flmul@sign 002D  
           ___flmul@temp 0038             ___flmul@prod 0034             _BAUD1CONbits 011F  
           ___fltol@exp1 007A                     l1002 1C14                     l1014 1C7A  
                   l1008 1CF4                     l1033 1D3C                     l1018 1F4C  
                   ?_abs 0073                     l1028 1D3C                     l3000 1E4E  
                   l3002 1E50                     l3010 004E                     l3100 1681  
                   l3020 00A4                     l3012 0056       serial_init@baudios 0020  
                   l3110 1698                     l3102 1685                     l3022 00A6  
                   l3014 005A                     l3006 001D                     l3030 1BFE  
                   l3200 17DB                     l3120 16BB                     l3112 1699  
                   l3104 1686                     l3016 0072                     l3008 0032  
                   l3040 107B                     l4000 1D74                     l3210 17F2  
                   l3202 17DE                     l3130 16D2                     l3106 168B  
                   l3114 169B                     l3018 0076                     l3026 1BF4  
                   l3050 109D                     l3042 108E                     l3034 1067  
                   l4002 1D85                     l4020 1C22                     l4012 1C16  
                   l3204 17E6                     l3140 16FC                     l3132 16E2  
                   l3116 16AB                     l3124 16C4                     l3108 1690  
                   l3300 0F38                     l3220 0DB3                     l3028 1BFC  
                   l3044 108F                     l3036 1072                     l4100 085C  
                   l4022 1C28                     l4014 1C19                     l3206 17EC  
                   l3142 1701                     l3150 171B                     l3134 16EA  
                   l3126 16C9                     l3118 16B7                     l3310 0F57  
                   l3302 0F44                     l3230 0DCA                     l3222 0DB7  
                   l3070 1CB4                     l3046 1097                     l4006 1C01  
                   l4030 1CA1                     l4110 08BA                     l4102 0861  
                   l4040 1160                     l4016 1C1C                     l2600 1E57  
                   l3208 17F0                     l3160 1740                     l3152 172D  
                   l3144 170F                     l3136 16F2                     l3080 1656  
                   l3320 0F78                     l3304 0F4B                     l3312 0F5B  
                   l3240 0DE1                     l3232 0DCC                     l3224 0DB8  
                   l3216 0DA9                     l3072 1CB7                     l3064 10BC  
                   l3056 10A5                     l3048 1099                     l4008 1C05  
                   l4032 1CAC                     l4120 090D                     l4112 08EB  
                   l4104 0865                     l4050 118D                     l4042 1164  
                   l4018 1C1F                     l2610 1E99                     l2602 1E5C  
                   l3170 1756                     l3162 1748                     l3154 172E  
                   l3146 1713                     l3138 16FA                     l3090 166D  
                   l3082 165A                     l3330 0F91                     l3314 0F5F  
                   l3306 0F4F                     l3250 0DF6                     l3242 0DE2  
                   l3234 0DD4                     l3226 0DBD                     l3218 0DAF  
                   l3066 10CA                     l3058 10B5                     l3402 1155  
                   l3410 1D18                     l4034 1CB2                     l4026 1C96  
                   l4122 0919                     l4114 08EF                     l4106 086E  
                   l4060 11B0                     l4052 1192                     l4044 1174  
                   l2604 1E61                     l3500 162B                     l3180 176A  
                   l3172 175D                     l3164 174A                     l3156 1736  
                   l3148 1714                     l3092 166E                     l3084 165B  
                   l3076 164C                     l3340 0FD2                     l3332 0FA9  
                   l3324 0F80                     l3316 0F60                     l3308 0F50  
                   l3260 0E11                     l3252 0DFE                     l3244 0DE7  
                   l3236 0DD9                     l3228 0DC2                     l2700 0C50  
                   l2620 0B78                     l3068 10CF                     l3420 12F0  
                   l4028 1C96                     l4124 0920                     l4116 08F8  
                   l4108 089E                     l4070 11DF                     l4062 11BE  
                   l4054 119D                     l4046 1184                     l4038 115B  
                   l2606 1E6B                     l3502 162F                     l3190 1793  
                   l3182 177E                     l3166 1751                     l3174 1761  
                   l3158 173A                     l3086 1660                     l3094 1670  
                   l3078 1652                     l3350 0FEF                     l3342 0FDB  
                   l3326 0F85                     l3334 0FAD                     l3318 0F64  
                   l3270 0E6C                     l3262 0E1E                     l3254 0E03  
                   l3246 0DEC                     l3238 0DDD                     l2702 0C52  
                   l2710 0C64                     l2630 0B8C                     l2622 0B79  
                   l2614 0B6A                     l3430 134E                     l3422 1308  
                   l3406 1CD5                     l3414 1D2F                     l3510 00AC  
                   l4126 0926                     l4118 0909                     l4072 11F3  
                   l4064 11C7                     l4056 11A4                     l2608 1E88  
                   l3360 1F5D                     l3504 1638                     l3192 1797  
                   l3176 1765                     l3168 1755                     l3096 1678  
                   l3088 1665                     l3352 0FF7                     l3344 0FDD  
                   l3336 0FBA                     l3328 0F8D                     l3280 0EA1  
                   l3272 0E79                     l3264 0E2B                     l3256 0E08  
                   l3248 0DF4                     l2800 0D97                     l2720 0C84  
                   l2712 0C6E                     l2704 0C56                     l2640 0BA2  
                   l2624 0B7E                     l2632 0B8E                     l2616 0B70  
                   l3440 1393                     l3424 1323                     l3408 1CDD  
                   l3416 1D35                     l3600 02E4                     l3520 00F6  
                   l3512 00BC                     l4128 092B                     l4074 11F8  
                   l4066 11CB                     l4058 11A8                     l3370 1F7D  
                   l3362 1F62                     l3450 14DE                     l3194 17AF  
                   l3186 1786                     l3178 1766                     l3098 167D  
                   l2810 1CF8                     l3346 0FEA                     l3338 0FC4  
                   l3290 0EE4                     l3282 0EAE                     l3274 0E86  
                   l3266 0E45                     l2802 0D99                     l2730 0C99  
                   l2722 0C88                     l2714 0C73                     l2706 0C57  
                   l2650 0BB5                     l2642 0BA6                     l2634 0B96  
                   l2626 0B83                     l2618 0B74                     l3442 13AA  
                   l3434 1363                     l3426 1330                     l3602 02EB  
                   l3530 0115                     l3522 00FE                     l3514 00DA  
                   l4090 0826                     l4082 0812                     l4076 11FC  
                   l4068 11D5                     l2900 1277                     l3380 1C54  
                   l3372 1F90                     l3364 1F67                     l3356 1F4F  
                   l3460 153D                     l3452 14EE                     l3188 178B  
                   l3196 17B3                     l2812 1CFF                     l3348 0FEE  
                   l3292 0EF1                     l3284 0EB5                     l3276 0E8D  
                   l3268 0E52                     l2804 0DA3                     l2740 0CE3  
                   l2732 0C9A                     l2724 0C8C                     l2708 0C60  
                   l2660 0BD2                     l2652 0BBD                     l2644 0BAA  
                   l2636 0B9B                     l2628 0B8B                     l3444 13B3  
                   l3436 137A                     l3428 1336                     l3700 05FC  
                   l3620 034B                     l3612 0313                     l3604 02FE  
                   l3540 013A                     l3532 0119                     l3524 0104  
                   l3516 00DF                     l3508 00AA                     l4092 082A  
                   l4084 0814                     l4078 11FD                     l2910 12C0  
                   l2902 127B                     l2590 0803                     l2822 1D3F  
                   l2830 1C62                     l3374 1F99                     l3366 1F6C  
                   l3358 1F54                     l3470 1568                     l3462 1543  
                   l3454 1501                     l3198 17C0                     l2814 1D03  
                   l3294 0F05                     l3286 0EC9                     l3278 0E9A  
                   l2806 0DA7                     l2750 0D0C                     l2742 0CE9  
                   l2734 0CA3                     l2726 0C93                     l2718 0C7C  
                   l2670 0BE6                     l2662 0BD6                     l2654 0BBE  
                   l2646 0BAB                     l2638 0BA1                     l3390 1125  
                   l3382 10DB                     l3446 13CA                     l3438 1382  
                   l3710 061B                     l3702 0601                     l3630 0369  
                   l3622 0355                     l3614 0319                     l3606 0304  
                   l3550 016F                     l3534 011F                     l3526 0109  
                   l3518 00F3                     l4094 0837                     l4086 0817  
                   l2904 129D                     l2592 0803                     l2824 1D42  
                   l2832 1C67                     l3368 1F78                     l3480 15A7  
                   l3472 156B                     l3464 1553                     l3456 1507  
                   l2920 1014                     l2912 1008                     l2816 1D0E  
                   l2808 1CF6                     l3296 0F1A                     l3288 0ED0  
                   l2760 0D25                     l2744 0CEE                     l2728 0C95  
                   l2736 0CA8                     l2680 0BFA                     l2672 0BEA  
                   l2664 0BDA                     l2648 0BB0                     l2656 0BC0  
                   l3392 112A                     l3384 10F3                     l2840 0005  
                   l3800 07C6                     l3720 063B                     l3712 061F  
                   l3704 0605                     l3640 0383                     l3632 036F  
                   l3624 035B                     l3616 0328                     l3552 0174  
                   l3544 0156                     l3536 0124                     l3528 0110  
                   l4096 083B                     l4088 0823                     l2850 1407  
                   l2906 12AD                     l3378 1C47                     l2594 080E  
                   l2826 1D50                     l2834 1C6B                     l3482 15E2  
                   l3490 160F                     l3474 1570                     l3466 1559  
                   l3458 152A                     l2930 1029                     l2922 1018  
                   l2914 1009                     l2818 1D13                     l3298 0F31  
                   l2762 0D28                     l2754 0D15                     l2738 0CBF  
                   l2746 0CF7                     l2770 0D35                     l2690 0C0E  
                   l2682 0BFE                     l2674 0BEE                     l2666 0BDE  
                   l2658 0BCE                     l3386 1108                     l3802 07CB  
                   l3706 060A                     l3714 0623                     l3722 063F  
                   l3730 06B1                     l3650 0444                     l3634 0373  
                   l3642 0387                     l3626 0361                     l3618 0344  
                   l3570 01D8                     l3562 01BA                     l3546 015C  
                   l3538 0128                     l3810 1EFE                     l4098 0848  
                   l2860 144B                     l2852 1411                     l2844 13DB  
                   l2908 12BB                     l2596 1BEF                     l2828 1D55  
                   l2836 1C74                     l3492 1616                     l3484 15EF  
                   l3476 159F                     l3468 155E                     l2940 1048  
                   l2932 102C                     l2924 101D                     l2916 100D  
                   l2780 0D48                     l2772 0D36                     l2764 0D2A  
                   l2756 0D1C                     l2748 0D07                     l2684 0C02  
                   l2676 0BF2                     l2668 0BE2                     l2692 0C12  
                   l3388 110E                     l3396 112F                     l3804 07D5  
                   l3740 06EB                     l3732 06C3                     l3724 068D  
                   l3716 0629                     l3708 0616                     l3660 04CE  
                   l3652 0448                     l3644 0389                     l3636 037B  
                   l3628 0365                     l3564 01C0                     l3548 0166  
                   l3556 018C                     l3820 1F15                     l3812 1F0A  
                   l3900 0B07                     l2870 1466                     l2862 144E  
                   l2854 1430                     l2846 13DC                     l2598 1E52  
                   l3494 161B                     l3486 15FC                     l3478 15A3  
                   l2950 105D                     l2942 104C                     l2934 1031  
                   l2926 1021                     l2918 1012                     l2790 0D80  
                   l2782 0D4D                     l2774 0D3A                     l2766 0D2F  
                   l2758 0D20                     l2694 0C13                     l2686 0C06  
                   l2678 0BF6                     l3398 1135                     l3750 0707  
                   l3742 06F0                     l3734 06D3                     l3726 06A9  
                   l3718 0636                     l3670 0537                     l3662 04D3  
                   l3654 045A                     l3646 0391                     l3638 037D  
                   l3590 029C                     l3582 0213                     l3566 01CA  
                   l3558 019E                     l3574 01F0                     l3830 1F3F  
                   l3822 1F19                     l3910 0B2C                     l3902 0B0F  
                   ?_pad 0027                     l2880 14AC                     l2872 1488  
                   l2864 1456                     l2856 1434                     l2848 13E6  
                   l3496 1620                     l3488 160A                     l2952 1062  
                   l2944 104D                     l2936 1035                     l2928 1023  
                   l2960 1EA7                     l2792 0D85                     l2784 0D55  
                   l2776 0D40                     l2768 0D31                     l2696 0C2A  
                   l2688 0C0A                     l3760 071B                     l3752 0709  
                   l3744 06F7                     l3736 06DA                     l3728 06AD  
                   l3680 0581                     l3672 0563                     l3664 04DB  
                   l3656 04AC                     l3648 039A                     l3592 02A0  
                   l3584 023F                     l3576 01F9                     l3568 01D3  
                   l3824 1F21                     l3816 1F0D                     l3808 1EF6  
                   l3912 0B37                     l3840 0952                     l2874 1498  
                   l2866 145A                     l2858 143E                     l2890 123C  
                   l2882 1206                     l3498 1626                     l2946 1052  
                   l2938 1039                     l2970 1EBD                     l2962 1EAC  
                   l2794 0D8D                     l2786 0D59                     l2698 0C49  
                   l3762 0720                     l3770 0751                     l3754 070D  
                   l3746 06FD                     l3738 06DF                     l3690 05DC  
                   l3682 058A                     l3674 0569                     l3666 04F8  
                   l3658 04B6                     l3586 0243                     l3594 02C7  
                   l3578 01FB                     l3826 1F2A                     l3818 1F11  
                   l3906 0B13                     l3850 0998                     l3842 0956  
                   l3922 0B46                     l3834 0934                     l3930 1FA6  
                   l2876 1499                     l2868 145E                     l2892 125B  
                   l2884 1207                     l2948 1058                     l2980 1ED7  
                   l2972 1EC0                     l2964 1EAE                     l2956 1EA2  
                   l2796 0D92                     l2788 0D77                     l3780 0776  
                   l3772 0757                     l3764 0738                     l3756 0711  
                   l3748 0701                     l3692 05E0                     l3684 05CA  
                   l3676 0576                     l3668 0532                     l3596 02D8  
                   l3588 027F                     l3828 1F30                     l3924 0B5F  
                   l3908 0B24                     l3916 0B3D                     l3860 09F8  
                   l3852 09B5                     l3844 0971                     l3836 0945  
                   l3940 1FCF                     l3932 1FB6                     l2878 14A7  
                   l2894 1268                     l2886 1211                     l2990 1EF0  
                   l2982 1EDB                     l2974 1EC5                     l2966 1EB2  
                   l2958 1EA3                     l2798 0D93                     l3782 077A  
                   l3774 0766                     l3766 0749                     l3758 0716  
                   l3686 05CF                     l3694 05E5                     l3678 057C  
                   l3598 02DE                     l3870 0A2F                     l3854 09C6  
                   l3846 0976                     l3838 094D                     l3942 1FE1  
                   l3934 1FB9                     l3950 1FF7                     l2896 126B  
                   l2888 1232                     l2984 1EE0                     l2976 1EC9  
                   l2968 1EB7                     l3792 07AB                     l3784 0786  
                   l3776 076B                     l3768 074D                     l3696 05EC  
                   l3688 05D6                     l3872 0A3F                     l3864 0A12  
                   l3856 09D7                     l3848 0993                     l3960 1DB3  
                   l3944 1FE9                     l3936 1FC4                     l3970 1C86  
                   l2898 1273                     l2978 1ECD                     l2986 1EE6  
                   l2994 1E04                     l3794 07B1                     l3786 078B  
                   l3778 0771                     l3698 05F0                     l3890 0ACC  
                   l3882 0A9D                     l3866 0A18                     l3858 09DF  
                   l3962 1DBD                     l3954 1D91                     l3946 1FEA  
                   l3938 1FC8                     l3972 1C88                     l2988 1EEB  
                   l2996 1E18                     l3796 07B6                     l3788 078F  
                   l3884 0AA3                     l3868 0A27                     l3876 0A55  
                   l3956 1D99                     l3948 1FF1                     l3980 1DCC  
                   l3990 1C2D                     l3974 1C90                     l3966 1C7B  
                   l2998 1E34                     l3798 07BA                     l3886 0AB4  
                   l3878 0A67                     l3894 0AE2                     l3958 1D9D  
                   l3982 1DF6                     l3992 1C43                     l3968 1C80  
                   l3896 0AF4                     l3888 0AC4                     l3984 1DF9  
                   l3976 1DC6                     l3898 0AFC                     l3986 1DFD  
                   l3978 1DC8                     l3994 1D68                     l3988 1E00  
                   l3996 1D70                     l3998 1D72                     STR_1 1820  
                   STR_2 1804                     STR_3 182F                     STR_4 183C  
                   STR_5 1844                     STR_8 1840                     STR_9 1848  
                   _LATA 0016                     _LATB 0017                     u3200 1E57  
                   u3201 1E56                     u3210 1E5C                     u4010 1048  
                   u3211 1E5B                     u4011 1047                     u3220 1E6B  
                   u4100 1ED7                     u3300 0BB5                     u3221 1E6A  
                   u4005 103A                     u4101 1ED6                     u3301 0BB4  
                   u3230 1E88                     u4030 1058                     u3310 0BCE  
                   u3231 1E87                     u4031 1057                     u4015 1044  
                   u3311 0BCD                     u4040 105D                     u4120 1EE6  
                   u4200 0076                     u3400 0C6E                     u3320 0BD2  
                   u3240 0B78                     u5000 114E                     u4041 105C  
                   u4025 104E                     u4121 1EE5                     u4105 1ED3  
                   u4201 0075                     u3401 0C6D                     u3321 0BD1  
                   u3241 0B77                     u4130 1EEB                     u4050 1EA7  
                   u4210 00A4                     u3410 0C73                     u3330 0C2A  
                   u3250 0B7E                     u5010 1CF4                     u3235 1E84  
                   u4131 1EEA                     u4115 1EDC                     u4051 1EA6  
                   u4211 00A3                     u3411 0C72                     u3331 0C29  
                   u3251 0B7D                     u5011 1CF3                     u4060 1EB2  
                   u4140 1E18                     u4220 1BFC                     u3420 0C88  
                   u3340 0C33                     u3260 0B83                     u5100 1370  
                   u5020 1D28                     u4061 1EB1                     u4141 1E17  
                   u4221 1BFB                     u3421 0C87                     u3341 0C31  
                   u3261 0B82                     u5021 1D26                     u3190 080E  
                   u4070 1EBD                     u4150 1E34                     u3510 0D20  
                   u3430 0C8C                     u3350 0C34                     u3270 0BA1  
                   u4310 10CA                     u4230 1072                     u5110 137A  
                   u5030 1D29                     u3191 080D                     u4071 1EBC  
                   u4151 1E33                     u4215 00A0                     u3511 0D1F  
                   u3431 0C8B                     u3335 0C26                     u3271 0BA0  
                   u4311 10C9                     u4231 1071                     u5111 1379  
                   u5200 152A                     u4400 16C9                     u4160 1E4E  
                   u3600 0D68                     u3520 0D25                     u3440 0C99  
                   u3360 0C49                     u3280 0BAA                     u4320 10CF  
                   u4240 1088                     u5120 13A0                     u5040 1D35  
                   u6000 0AA3                     u3185 0807                     u5201 1529  
                   u4401 16C8                     u4161 1E4D                     u3521 0D24  
                   u3505 0D16                     u3441 0C98                     u3361 0C48  
                   u3281 0BA9                     u4321 10CE                     u4305 10BD  
                   u5105 136C                     u5041 1D34                     u6001 0AA2  
                   u5210 153D                     u4090 1ECD                     u4410 1701  
                   u4330 165A                     u4170 0032                     u3610 0D77  
                   u3530 0D2F                     u3370 0C56                     u3290 0BB0  
                   u4250 109D                     u5130 13AA                     u5050 1315  
                   u6010 0AF4                     u5211 153C                     u4091 1ECC  
                   u4411 1700                     u4331 1659                     u4171 0031  
                   u3611 0D76                     u3531 0D2E                     u3371 0C55  
                   u3291 0BAF                     u4251 109C                     u5131 13A9  
                   u6011 0AF3                     u3700 1D65                     u5300 161B  
                   u5220 1559                     u4500 1755                     u4340 1660  
                   u4180 004E                     u3620 0D80                     u3540 0D35  
                   u3460 0CBF                     u4260 10A4                     u5140 13C0  
                   u5060 1330                     u6020 0B24                     u6100 1DBD  
                   u3701 1D64                     u5301 161A                     u5221 1558  
                   u4085 1EC1                     u4501 1754                     u4341 165F  
                   u4165 1E4A                     u4181 004D                     u3621 0D7F  
                   u3605 0D64                     u3541 0D34                     u3461 0CBE  
                   u4261 10A3                     u4245 1084                     u5125 139C  
                   u5061 132F                     u6021 0B23                     u6101 1DBC  
                   u3710 1C74                     u5310 1626                     u5230 155E  
                   u4350 1665                     u4190 005A                     u3630 0D85  
                   u3550 0D3A                     u3470 0CEE                     u3390 0C6A  
                   u5150 13CA                     u5070 1336                     u6030 1FB6  
                   u6110 1DEE                     u3711 1C73                     u5311 1625  
                   u5231 155D                     u5215 1539                     u4351 1664  
                   u4191 0059                     u3631 0D84                     u3551 0D39  
                   u3471 0CED                     u3463 0CBB                     u3455 0C9D  
                   u3391 0C69                     u5151 13C9                     u5071 1335  
                   u5055 1311                     u6031 1FB5                     u6120 1C28  
                   u3800 145E                     u5240 15E2                     u5160 14F9  
                   u4600 17DB                     u4520 1765                     u4440 1713  
                   u4360 1685                     u3640 0D92                     u3560 0D40  
                   u3480 0D07                     u4280 10B4                     u5080 1344  
                   u3720 0015                     u5400 019E                     u5320 00DA  
                   u6121 1C27                     u3801 145D                     u5241 15E1  
                   u5161 14F7                     u4601 17DA                     u4521 1764  
                   u4441 1712                     u4425 1702                     u4361 1684  
                   u3641 0D91                     u3561 0D3F                     u3481 0D06  
                   u3385 0C5A                     u4281 10B3                     u5145 13BC  
                   u5065 132C                     u3721 0013                     u5401 019D  
                   u5321 00D9                     u6210 11A3                     u3810 1488  
                   u5250 15EF                     u5170 14FA                     u4610 17F0  
                   u4530 176A                     u4370 168B                     u3650 0D97  
                   u3570 0D47                     u3490 0D0C                     u4290 10BB  
                   u5090 1362                     u3730 0016                     u5410 01B0  
                   u5330 0104                     u6050 1FC8                     u6211 11A2  
                   u3811 1487                     u5251 15EE                     u4611 17EF  
                   u4531 1769                     u4515 1757                     u4435 1709  
                   u4371 168A                     u3651 0D96                     u3571 0D46  
                   u3491 0D0B                     u4291 10BA                     u4275 10A6  
                   u5091 1361                     u5411 01AE                     u5331 0103  
                   u6051 1FC7                     u6115 1DEA                     u6300 11FC  
                   u3820 14A7                     u3740 13E6                     u3900 127B  
                   u5260 15FC                     u5180 1507                     u4540 177E  
                   u4460 172D                     u4380 1690                     u4620 0DB7  
                   u3660 0DA7                     u3580 0D4D                     u5500 0312  
                   u5420 01B1                     u5340 0109                     u6140 1CA1  
                   u6301 11FB                     u6205 1197                     u3821 14A6  
                   u3741 13E5                     u3901 127A                     u5261 15FB  
                   u5245 15DE                     u5181 1506                     u4605 17D7  
                   u4541 177D                     u4461 172C                     u4381 168F  
                   u4621 0DB6                     u3661 0DA6                     u3581 0D4C  
                   u5085 1340                     u5501 0311                     u5341 0108  
                   u6045 1FBA                     u6141 1CA0                     u6230 11BD  
                   u3830 14AC                     u3910 129D                     u5270 160A  
                   u4550 1785                     u4470 1740                     u4390 16AB  
                   u3670 1D03                     u4630 0DBD                     u3590 0D59  
                   u5510 0319                     u5430 01C0                     u5350 0110  
                   u6070 1FE1                     u6231 11BC                     u3831 14AB  
                   u3815 1484                     u3911 129C                     u5271 1609  
                   u4551 1784                     u4471 173F                     u4455 1715  
                   u4391 16AA                     u3671 1D02                     u4631 0DBC  
                   u3591 0D58                     u5511 0318                     u5431 01BF  
                   u5351 010F                     u6071 1FE0                     u6135 1C9A  
                   u3760 1411                     u3920 12BB                     u5280 160F  
                   u4560 178B                     u4480 1748                     u4800 0F78  
                   u4720 0F10                     u4640 0DC2                     u5600 045A  
                   u5520 0328                     u5440 0212                     u5360 013A  
                   u6160 1CAC                     u6320 0919                     u6225 11B1  
                   u3761 1410                     u3921 12BA                     u5281 160E  
                   u5265 15F8                     u4561 178A                     u4481 1747  
                   u4465 1729                     u4801 0F77                     u4705 0E87  
                   u4641 0DC1                     u5601 0459                     u5521 0327  
                   u5441 0211                     u5361 0139                     u6065 1FC9  
                   u6161 1CAB                     u6321 0918                     u6250 11CB  
                   u6170 1160                     u3930 12C0                     u3850 1211  
                   u5290 1616                     u4570 1797                     u3690 1D13  
                   u4810 0F7F                     u4730 0F27                     u4650 0DE1  
                   u5610 04AC                     u5530 0344                     u5450 027E  
                   u5370 014C                     u6090 1FF7                     u6330 0926  
                   u6251 11CA                     u6171 115F                     u3931 12BF  
                   u3915 1299                     u3851 1210                     u5291 1615  
                   u5275 1606                     u4571 1796                     u3691 1D12  
                   u4811 0F7E                     u4715 0EB6                     u4651 0DE0  
                   u5611 04AB                     u5531 0343                     u5451 027D  
                   u5371 014A                     u6091 1FF6                     u6075 1FDD  
                   u6155 1CA5                     u6331 0925                     u6315 0912  
                   u6260 11D1                     u6180 1164                     u3780 143B  
                   u4900 1F8B                     u4580 17A5                     u4820 0F85  
                   u4660 0DE7                     u5700 05E0                     u5620 04CE  
                   u5540 035B                     u5460 02C7                     u5380 014D  
                   u6261 11D0                     u6245 11C1                     u6181 1163  
                   u4901 1F8A                     u3685 1D08                     u4821 0F84  
                   u4725 0F0C                     u4661 0DE6                     u5701 05DF  
                   u5621 04CD                     u5605 0456                     u5541 035A  
                   u5525 0324                     u5461 02C6                     u6085 1FEB  
                   u6270 11D5                     u6190 1184                     u3790 144B  
                   u3870 123C                     u4910 1F90                     u3950 100D  
                   u4590 17C0                     u4830 0F91                     u4670 0DEC  
                   u5710 05EC                     u5630 04D3                     u5550 0361  
                   u5470 02E4                     u5390 015C                     u6271 11D4  
                   u6191 1183                     u3791 144A                     u3871 123B  
                   u4911 1F8F                     u3951 100C                     u4591 17BF  
                   u4495 174B                     u4831 0F90                     u4735 0F23  
                   u4671 0DEB                     u5711 05EB                     u5631 04D2  
                   u5551 0360                     u5535 0340                     u5471 02E3  
                   u5391 015B                     u6280 11E9                     u4920 1C54  
                   u3960 1018                     u4840 0F9F                     u4760 0F4F  
                   u4680 0E03                     u5800 0757                     u5720 05F0  
                   u5640 0532                     u5560 0365                     u5480 02EB  
                   u4921 1C53                     u4905 1F87                     u3961 1017  
                   u4585 17A1                     u4761 0F4E                     u4745 0F32  
                   u4681 0E02                     u5801 0756                     u5721 05EF  
                   u5641 0531                     u5561 0364                     u5481 02EA  
                   u6290 11F8                     u3890 1268                     u3970 1029  
                   u4850 0FBA                     u4690 0E08                     u4930 1100  
                   u5810 0766                     u5730 0629                     u5650 0569  
                   u5570 036F                     u5490 02FE                     u6291 11F7  
                   u3891 1267                     u3971 1028                     u4595 17BC  
                   u4851 0FB9                     u4755 0F45                     u4691 0E07  
                   u5811 0765                     u5731 0628                     u5651 0568  
                   u5571 036E                     u5491 02FD                     _PIR3 070F  
                   u4860 0FD2                     u4780 0F5F                     u4940 110E  
                   u5820 0771                     u5740 06C3                     u5660 057C  
                   u5580 0373                     u5900 1F3F                     u6285 11E5  
                   u4925 1C50                     u4861 0FD1                     u4845 0F9B  
                   u4781 0F5E                     u4941 110D                     u5821 0770  
                   u5741 06C2                     u5661 057B                     u5581 0372  
                   u5901 1F3E                     u6357 0830                     u3990 1039  
                   u4870 0FEE                     u4790 0F64                     u4950 111B  
                   u5830 07A1                     u5750 06D3                     u5670 05CF  
                   u5590 0383                     u5910 0945                     u3991 1038  
                   u4871 0FED                     u4855 0FB6                     u4791 0F63  
                   u4775 0F51                     u4935 10FC                     u5831 079F  
                   u5815 0762                     u5751 06D2                     u5671 05CE  
                   u5591 0382                     u5495 02FA                     u5911 0944  
                   u6367 0841                     u4880 1F54                     u4960 1125  
                   u5840 07A2                     u5760 06DA                     u5680 05D6  
                   u5920 0976                     u4881 1F53                     u3985 102D  
                   u4865 0FCE                     u4961 1124                     u5761 06D9  
                   u5745 06BF                     u5681 05D5                     u5921 0975  
                   u4890 1F62                     u4970 1135                     u5850 07B1  
                   u5770 06DF                     u5690 05DC                     u5930 0998  
                   u4891 1F61                     u4971 1134                     u4955 1117  
                   u5851 07B0                     u5771 06DE                     u5755 06CF  
                   u5691 05DB                     u5931 0997                     u4980 1142  
                   u5780 06FD                     u5860 1F0A                     u5940 09C6  
                   u5781 06FC                     u5861 1F09                     u5941 09C5  
                   u4990 114D                     u5790 070D                     u5870 1F21  
                   u5950 09D7                     u4991 114B                     u5791 070C  
                   u5871 1F20                     u5951 09D6                     u5880 1F2A  
                   u5960 0A18                     u4985 113E                     u5881 1F29  
                   u5961 0A17                     u5890 1F30                     u5970 0A67  
                   u5891 1F2F                     u5971 0A66                     u5980 0A96  
                   u5981 0A94                     u5990 0A97                     abs@a 0073  
                   _dbuf 01A0                     _main 0812                     _dtoa 14DC  
                   _prec 015A                     _nout 0156                     pad@i 002A  
                   pad@p 0028                     fsr0h 0005                     fsr1h 0007  
                   indf0 0000                     fsr0l 0004                     indf1 0001  
                   fsr1l 0006                     pad@w 002C                     btemp 007E  
                   _volt 0152            ___fpclassifyf 10DB                     start 0002  
        ___fldiv@new_exp 0025                    ??_abs 0075                    ??_pad 007C  
          ___fltol@sign1 0079          __end_of___aodiv 14DC                    _ADCAP 009B  
           main@contador 0143          __end_of___fladd 0DA9                    ?_main 0070  
                  ?_dtoa 0030                    _ADCLK 0098          __end_of___aomod 12F0  
                  _ADPCH 009E          __end_of___fldiv 1800                    _ADREF 009A  
        __end_of___awdiv 1067          __end_of___flneg 1BFF                    STR_12 184C  
                  STR_14 184C          __end_of___awmod 1EF5          __end_of___flmul 1000  
        __end_of___flsub 1CD4          __end_of___fltol 10DB          __end_of___lldiv 2000  
        ___awdiv@divisor 0070          ___awdiv@counter 0075                    _RCREG 0119  
           vfpfcnvrt@fmt 004F                    _PORTA 000C                    _PORTB 000D  
                  _TRISA 0011                    _TRISB 0012                    _TRISC 0013  
                  _RXPPS 0ECB                    _TXREG 011A                    _flags 015C  
                  _fputc 1E52                    _fputs 1D3D                    pad@fp 002E  
                  _width 0158                    _putch 1BEE                    dtoa@d 0030  
                  dtoa@i 004C                    dtoa@n 0044                    dtoa@p 003E  
                  dtoa@s 0042                    dtoa@w 0040          __end_of_isupper 001D  
        __end_of_uart_rx 1CB4          __end_of_uart_tx 0812                    status 0003  
                  wtemp0 007E          __end_of_sprintf 1D8F           ?___fpclassifyf 0070  
        __end_of_tolower 1D3D          __end_of_strncmp 1F4D          __initialization 07ED  
           __end_of_main 0932             __end_of_dtoa 164C                   ??_main 0120  
                 ??_dtoa 0038                   _ADCON0 0093                   _ADCON1 0094  
                 _ADCON2 0095                   ?_fputc 0073                   ?_fputs 007B  
                 _ADRESH 008D                   _ADRESL 008C         ___awdiv@dividend 0072  
                 _ANSELA 0F38                   ?_putch 0070                   _ANSELB 0F43  
                 _ANSELC 0F4E                   _RC0PPS 0F20         __end_of_adc_init 1C47  
                 _RC1STA 011D         __end_of_adc_read 1C2D                   _TX1STA 011E  
                 u375lld 1405                   u519lld 1525                   u384lld 14CA  
                 u377lld 1430                   u394lld 12DE                   u386lld 1230  
                 u388lld 125B         __end_of___xxtofl 1206             ?_serial_init 0020  
           vfprintf@cfmt 00DA                   ___flge 001D                   ___fleq 1E04  
              ??___aodiv 0070                ??___fladd 0020                ??___aomod 0070  
              ??___fldiv 0078                ??___awdiv 0074                ??___flneg 0074  
              ??___awmod 0074                ??___flmul 0028                ??___flsub 007E  
              ??___fltol 0074                ??___lldiv 0078                   _efgtoa 00A8  
                 _floorf 12F0         ___awdiv@quotient 0077          ___awmod@divisor 0070  
        ___awmod@counter 0075                   _printf 1BFF                   pad@buf 0027  
                 dtoa@fp 003D                   main@rx 0142                   _strcpy 1CD4  
                 _strlen 1C61                   fputc@c 0073                   fputs@c 0023  
                 fputs@i 0024                   fputs@s 0026       __size_of__Umul8_16 0023  
        ___fpclassifyf@e 0020          ___fpclassifyf@u 0022          ___fpclassifyf@x 0070  
              ??_isupper 0072                ??_uart_rx 0070                ??_uart_tx 0070  
       __end_of_vfprintf 1DC6                ??_sprintf 00E8                ??_tolower 0078  
              ??_strncmp 0074               ___flge@ff1 003A               ___flge@ff2 003E  
        ??___fpclassifyf 0074             ___xxtofl@arg 007A             ___xxtofl@exp 0079  
           ___xxtofl@val 0070               ___fleq@ff1 0070               ___fleq@ff2 0074  
__end_of__initialization 07FD               ___flneg@f1 0070               ___fltol@f1 0070  
         __pcstackCOMMON 0070            __end_of_fputc 1EA2            __end_of_fputs 1D66  
          __end_of_putch 1BF4               __end_of_mv 1804                  ??_fputc 0076  
                ??_fputs 0020                  ??_putch 0072               __pbssBANK2 0146  
             __pbssBANK3 01A0        __end_of__Umul8_16 1D18               _efgtoa$730 00A4  
             _efgtoa$725 00A0               _efgtoa$734 00A6               _efgtoa$726 00A2  
             _efgtoa$735 00A8               _efgtoa$736 00AA               __pmaintext 0812  
                ?___flge 003A                  ?___fleq 0070                  ?_efgtoa 0046  
                ?_floorf 002D                  ?_printf 0070                ?_adc_init 0070  
              ?_adc_read 0070                  ?_strcpy 0070                  ?_strlen 0070  
              ?___xxtofl 0070                  _SP1BRGH 011C                  _SP1BRGL 011B  
     __size_of_vfpfcnvrt 0238       __size_of_port_init 001B          __size_of___flge 008B  
        __size_of___fleq 004E                  ___aodiv 13DB                  ___fladd 0B6A  
                ___aomod 1206                  ___fldiv 164C                  ___awdiv 1008  
                ___flneg 1BF4                  ___awmod 1EA2                  ___flmul 0DA9  
                ___flsub 1CB4                  ___fltol 1067                  ___lldiv 1FA6  
              ?_vfprintf 006B     __size_of_serial_init 003E          __size_of_efgtoa 0745  
        __size_of_floorf 00EB               ??_adc_init 0070               ??_adc_read 0072  
                __ptext1 1C96                  __ptext2 1D66                  __ptext3 1DC6  
                __ptext4 1FA6                  __ptext5 1BFF                  __ptext6 1D8F  
                __ptext7 0932                  __ptext8 1EF5                  __ptext9 00A8  
        __size_of_printf 0016          __size_of_strcpy 0021          __size_of_strlen 001A  
           __size_of_abs 001A             __size_of_pad 0059               ??___xxtofl 0074  
       ___awmod@dividend 0072                  _isupper 0005                  efgtoa@c 004A  
                efgtoa@d 00B8                  efgtoa@e 00D1                  efgtoa@f 0046  
                efgtoa@g 00CD                  efgtoa@h 00C3                  efgtoa@i 00CB  
                efgtoa@l 00C7                  efgtoa@m 00B2                  efgtoa@n 00D3  
                efgtoa@p 00BD                  efgtoa@t 00AC                  efgtoa@u 00D5  
                efgtoa@w 00BF                  _uart_rx 1C96                  _uart_tx 0802  
                main@adc 0144                  _sprintf 1D66                  _tolower 1D18  
                clrloop0 1003                  _strncmp 1EF5     end_of_initialization 07FD  
                floorf@e 003B                  floorf@m 0037                  floorf@u 003D  
                floorf@x 002D                  fputc@fp 0075                  fputs@fp 007B  
        ___lldiv@divisor 0070          ___lldiv@counter 007D        __end_of_vfpfcnvrt 0B6A  
             efgtoa@mode 00C2        __end_of_port_init 1C96               efgtoa@sign 00BA  
             ??_vfprintf 006E                  strcpy@d 0076                  strlen@a 0073  
                strcpy@s 0074                  strlen@s 0074              uart_tx@dato 0071  
            ___fladd@grs 007B            ___xxtofl@sign 0078              ___fldiv@grs 0027  
            ___fldiv@rem 0020              ___flmul@grs 002E               main@buffer 0122  
         __end_of___flge 00A8           __end_of___fleq 1E52              vfpfcnvrt@ap 0050  
            vfpfcnvrt@ct 0066              vfpfcnvrt@fp 006A              vfpfcnvrt@ll 0057  
            vfpfcnvrt@vp 0061           __end_of_efgtoa 07ED           __end_of_floorf 13DB  
             floorf@F527 0146           __end_of_printf 1C15           __end_of_strcpy 1CF5  
         __end_of_strlen 1C7B      start_initialization 07ED              __end_of_abs 1C61  
            __end_of_pad 1FA6    __end_of___fpclassifyf 115A              vfprintf@fmt 006B  
               ??___flge 0042                 ??___fleq 0078                 ??_efgtoa 004B  
              __Umul8_16 1CF5                 ??_floorf 0031                 ??_printf 00DC  
               ??_strcpy 0072                 ??_strlen 0072                ___fladd@a 0074  
              ___fladd@b 0070                ___fldiv@a 0070                ___fldiv@b 0074  
      __size_of_adc_init 001A        __size_of_adc_read 0018                ___flmul@a 0024  
              ___flmul@b 0020                ___flsub@a 003A                ___flsub@b 003E  
              ___latbits 0002            __pcstackBANK0 0020            __pcstackBANK1 00A0  
          __pcstackBANK2 0120         ___aodiv@dividend 0028        __size_of___xxtofl 00AC  
            adc_read@pin 0072                 ?___aodiv 0020                 ?___fladd 0070  
               ?___aomod 0020                 ?___fldiv 0070                 ?___awdiv 0070  
       ___aodiv@quotient 0073                 ?___flneg 0070                 ?___awmod 0070  
               ?___flmul 0020                 ?___flsub 003A                 ?___fltol 0070  
               ?___lldiv 0070               ?__Umul8_16 0070        __size_of_vfprintf 0037  
               ?_isupper 0070                 ?_uart_rx 0070                 ?_uart_tx 0070  
               ?_sprintf 00DC                 ?_tolower 0076           __size_of_fputc 0050  
         __size_of_fputs 0029                 ?_strncmp 0070           __size_of_putch 0006  
              clear_ram0 1002            ??_serial_init 0024                _vfpfcnvrt 0932  
              _port_init 1C7B            serial_init@sx 0028               vfpfcnvrt@c 0069  
             vfpfcnvrt@f 0062               vfprintf@ap 006D               vfprintf@fp 00D9  
            ??__Umul8_16 0072         __size_of___aodiv 0101         __size_of___fladd 023F  
       __size_of___aomod 00EA         __size_of___fldiv 01B4         __size_of___awdiv 005F  
       __size_of___flneg 000B         __size_of___awmod 0053         __size_of___flmul 0257  
       __size_of___flsub 0020         __size_of___fltol 0074         __size_of___lldiv 005A  
             ?_vfpfcnvrt 004F               ?_port_init 0070      __end_of_serial_init 1E04  
        ___aodiv@divisor 0020                 _adc_init 1C2D                 _adc_read 1C15  
        ___aodiv@counter 0071       ___fpclassifyf@F465 014A               sprintf@fmt 00DC  
               ___xxtofl 115A                 _dtoa$701 003B                 __ptext10 1D18  
               __ptext11 0005                 __ptext20 1CF5                 __ptext12 1CD4  
               __ptext21 001D                 __ptext13 12F0                 __ptext30 1E52  
               __ptext22 1E04                 __ptext14 10DB                 __ptext31 1BEE  
               __ptext23 164C                 __ptext15 1067                 __ptext32 0802  
               __ptext24 1EA2                 __ptext16 1CB4                 __ptext33 1C47  
               __ptext25 1008                 __ptext17 0B6A                 __ptext34 1206  
               __ptext26 14DC                 __ptext18 1BF4                 __ptext35 13DB  
               __ptext27 1F4D                 __ptext19 0DA9                 __ptext36 1C7B  
               __ptext28 1C61                 __ptext37 1C15                 __ptext29 1D3D  
               __ptext38 1C2D                 __ptext39 115A         __size_of_isupper 0018  
       __size_of_uart_rx 001E         __size_of_uart_tx 0010         __size_of_sprintf 0029  
       __size_of_tolower 0025               strcpy@dest 0077         __size_of_strncmp 0058  
          __size_of_main 0120            __size_of_dtoa 0170                 efgtoa@fp 00BC  
               efgtoa@ne 00B0                 efgtoa@pp 00AE                 efgtoa@ou 00B4  
               _vfprintf 1D8F                printf@fmt 00DD         ___aomod@dividend 0028  
              putch@dato 0072                sprintf@ap 00EA         ___lldiv@dividend 0074  
              strcpy@src 0070                 isupper@c 0070                strncmp@_l 0075  
              strncmp@_r 0070              _serial_init 1DC6              efgtoa@nmode 00C1  
               printf@ap 00DE          ___aomod@divisor 0020              ??_vfpfcnvrt 0051  
        ___aomod@counter 0071            _vfpfcnvrt$754 005F              ??_port_init 0070  
          __pstringtext1 1800            __pstringtext2 1820            __pstringtext3 182F  
          __pstringtext4 183C            __pstringtext5 1840            __pstringtext6 1844  
          __pstringtext7 1848            __pstringtext8 184C            __pstringtext9 0000  
 __Umul8_16@multiplicand 0070              _temperatura 014E                 sprintf@f 00EB  
               tolower@c 0076                 sprintf@s 00E9   __size_of___fpclassifyf 007F  
       ___lldiv@quotient 0079                 strncmp@l 0078                 strncmp@n 0072  
               strncmp@r 0076            ___fladd@signs 0078             ___aodiv@sign 0072  
           ___fladd@aexp 0079             ___fladd@bexp 007A     __Umul8_16@multiplier 0078  
           ___aomod@sign 0072        __Umul8_16@product 0074  
