Microchip MPLAB XC8 Compiler V2.32

Linker command line:

-W-3 --edf=C:\Program Files\Microchip\xc8\v2.32\pic\dat\en_msgs.txt -cn \
  -h+dist/default/production\Tarea_4_5y6.X.production.sym \
  --cmf=dist/default/production\Tarea_4_5y6.X.production.cmf -z -Q16F18855 \
  -oC:\Users\Edicion\AppData\Local\Temp\xcAse0g.4 --defsym=__MPLAB_BUILD=1 \
  -Mdist/default/production/Tarea_4_5y6.X.production.map -E1 \
  -ver=XC8 Compiler --acfsm=1493 -ASTACK=02076h-023EFh -pstack=STACK \
  -ACODE=00h-07FFhx4 -ASTRCODE=00h-01FFFh -ASTRING=00h-0FFhx32 \
  -ACONST=00h-0FFhx32 -AENTRY=00h-0FFhx32 -ACOMMON=070h-07Fh \
  -ABANK0=020h-06Fh -ABANK1=0A0h-0EFh -ABANK2=0120h-016Fh \
  -ABANK3=01A0h-01EFh -ABANK4=0220h-026Fh -ABANK5=02A0h-02EFh \
  -ABANK6=0320h-036Fh -ABANK7=03A0h-03EFh -ABANK8=0420h-046Fh \
  -ABANK9=04A0h-04EFh -ABANK10=0520h-056Fh -ABANK11=05A0h-05EFh \
  -ABANK12=0620h-064Fh -ABIGRAM=02000h-023EFh \
  -ARAM=020h-06Fh,0A0h-0EFh,0120h-016Fh,01A0h-01EFh,0220h-026Fh,02A0h-02EFh,0320h-036Fh,03A0h-03EFh,0420h-046Fh,04A0h-04EFh,0520h-056Fh,05A0h-05EFh,0620h-064Fh \
  -AABS1=020h-07Fh,0A0h-0EFh,0120h-016Fh,01A0h-01EFh,0220h-026Fh,02A0h-02EFh,0320h-036Fh,03A0h-03EFh,0420h-046Fh,04A0h-04EFh,0520h-056Fh,05A0h-05EFh,0620h-064Fh \
  -ASFR0=00h-01Fh -ASFR1=080h-09Fh -ASFR2=0100h-011Fh -ASFR3=0180h-019Fh \
  -ASFR4=0200h-021Fh -ASFR5=0280h-029Fh -ASFR6=0300h-031Fh \
  -ASFR7=0380h-039Fh -ASFR8=0400h-041Fh -ASFR9=0480h-049Fh \
  -ASFR10=0500h-051Fh -ASFR11=0580h-059Fh -ASFR12=0600h-061Fh \
  -ASFR13=0680h-06EFh -ASFR14=0700h-076Fh -ASFR15=0780h-07EFh \
  -ASFR16=0800h-086Fh -ASFR17=0880h-08EFh -ASFR18=0900h-096Fh \
  -ASFR19=0980h-09EFh -ASFR20=0A00h-0A6Fh -ASFR21=0A80h-0AEFh \
  -ASFR22=0B00h-0B6Fh -ASFR23=0B80h-0BEFh -ASFR24=0C00h-0C6Fh \
  -ASFR25=0C80h-0CEFh -ASFR26=0D00h-0D6Fh -ASFR27=0D80h-0DEFh \
  -ASFR28=0E00h-0E6Fh -ASFR29=0E80h-0EEFh -ASFR30=0F00h-0F6Fh \
  -ASFR31=0F80h-0FEFh -ACONFIG=08007h-0800Bh -DCONFIG=2 \
  -AIDLOC=08000h-08003h -DIDLOC=2 -AEEDATA=00h-0FFh/0F000h \
  -peeprom_data=EEDATA -DEEDATA=2 -DCODE=2 -DSTRCODE=2 -DSTRING=2 -DCONST=2 \
  -DENTRY=2 -preset_vec=00h,intentry,init,end_init -ppowerup=CODE \
  -pcinit=CODE -pfunctab=ENTRY -k \
  C:\Users\Edicion\AppData\Local\Temp\xcAse0g.o \
  dist/default/production\Tarea_4_5y6.X.production.o 

Object code version is 3.11

Machine type is 16F18855



                Name                               Link     Load   Length Selector   Space Scale
C:\Users\Edicion\AppData\Local\Temp\xcAse0g.o
                end_init                              2        2        2        0       0
                reset_vec                             0        0        2        0       0
                config                             8007     8007        5        0       4
dist/default/production\Tarea_4_5y6.X.production.o
                cinit                               7ED      7ED       13      FDA       0
                config                             8007     8007        5        0       4
                text24                              351      351       14      6A2       0
                text23                              32D      32D       12      65A       0
                text22                              2E6      2E6        6      5CC       0
                text21                              3DA      3DA       2D      7B4       0
                text20                              5FE      5FE       6F      BFC       0
                text19                              365      365       14      6CA       0
                text18                              2F8      2F8        7      5F0       0
                text17                              2FF      2FF        7      5FE       0
                text16                              310      310        C      620       0
                text15                              31C      31C       11      638       0
                text14                              66D      66D       74      CDA       0
                text13                              379      379       16      6F2       0
                text12                              53B      53B       61      A76       0
                text11                              407      407       46      80E       0
                text10                              4E5      4E5       56      9CA       0
                text9                               306      306        A      60C       0
                text8                               2EC      2EC        6      5D8       0
                text7                               496      496       4F      92C       0
                text6                               6E1      6E1       7C      DC2       0
                text5                               3B2      3B2       28      764       0
                text4                               33F      33F       12      67E       0
                text3                               75D      75D       90      EBA       0
                text2                               44D      44D       49      89A       0
                text1                               38F      38F       23      71E       0
                maintext                            59C      59C       62      B38       0
                cstackBANK0                          20       20       44       20       1
                cstackCOMMON                         70       70        E       70       1
                clrtext                             2F2      2F2        6      5E4       0
                bssBANK1                             A0       A0       26       A0       1
                bssBANK0                             64       64        C       20       1
                stringtext2                         825      825        6     1000       0
                stringtext1                         800      800       25     1000       0

TOTAL           Name                               Link     Load   Length     Space
        CLASS   STACK          

        CLASS   CODE           
                end_init                              2        2        2         0
                cinit                               7ED      7ED       13         0
                reset_vec                             0        0        2         0
                text24                              351      351       14         0
                text23                              32D      32D       12         0
                text22                              2E6      2E6        6         0
                text21                              3DA      3DA       2D         0
                text20                              5FE      5FE       6F         0
                text19                              365      365       14         0
                text18                              2F8      2F8        7         0
                text17                              2FF      2FF        7         0
                text16                              310      310        C         0
                text15                              31C      31C       11         0
                text14                              66D      66D       74         0
                text13                              379      379       16         0
                text12                              53B      53B       61         0
                text11                              407      407       46         0
                text10                              4E5      4E5       56         0
                text9                               306      306        A         0
                text8                               2EC      2EC        6         0
                text7                               496      496       4F         0
                text6                               6E1      6E1       7C         0
                text5                               3B2      3B2       28         0
                text4                               33F      33F       12         0
                text3                               75D      75D       90         0
                text2                               44D      44D       49         0
                text1                               38F      38F       23         0
                maintext                            59C      59C       62         0
                clrtext                             2F2      2F2        6         0

        CLASS   STRCODE        
                stringtext2                         825      825        6         0
                stringtext1                         800      800       25         0

        CLASS   STRING         

        CLASS   CONST          

        CLASS   ENTRY          

        CLASS   COMMON         
                cstackCOMMON                         70       70        E         1

        CLASS   BANK0          
                cstackBANK0                          20       20       44         1
                bssBANK0                             64       64        C         1

        CLASS   BANK1          
                bssBANK1                             A0       A0       26         1

        CLASS   BANK2          

        CLASS   BANK3          

        CLASS   BANK4          

        CLASS   BANK5          

        CLASS   BANK6          

        CLASS   BANK7          

        CLASS   BANK8          

        CLASS   BANK9          

        CLASS   BANK10         

        CLASS   BANK11         

        CLASS   BANK12         

        CLASS   BIGRAM         

        CLASS   RAM            

        CLASS   ABS1           
                abs_s1                               7E       7E        2         1

        CLASS   SFR0           

        CLASS   SFR1           

        CLASS   SFR2           

        CLASS   SFR3           

        CLASS   SFR4           

        CLASS   SFR5           

        CLASS   SFR6           

        CLASS   SFR7           

        CLASS   SFR8           

        CLASS   SFR9           

        CLASS   SFR10          

        CLASS   SFR11          

        CLASS   SFR12          

        CLASS   SFR13          

        CLASS   SFR14          

        CLASS   SFR15          

        CLASS   SFR16          

        CLASS   SFR17          

        CLASS   SFR18          

        CLASS   SFR19          

        CLASS   SFR20          

        CLASS   SFR21          

        CLASS   SFR22          

        CLASS   SFR23          

        CLASS   SFR24          

        CLASS   SFR25          

        CLASS   SFR26          

        CLASS   SFR27          

        CLASS   SFR28          

        CLASS   SFR29          

        CLASS   SFR30          

        CLASS   SFR31          

        CLASS   CONFIG         
                config                             8007     8007        5         4

        CLASS   IDLOC          

        CLASS   EEDATA         

        CLASS   BANK31         

        CLASS   BANK30         

        CLASS   BANK29         

        CLASS   BANK28         

        CLASS   BANK27         

        CLASS   BANK26         

        CLASS   BANK25         

        CLASS   BANK24         

        CLASS   BANK23         

        CLASS   BANK22         

        CLASS   BANK21         

        CLASS   BANK20         

        CLASS   BANK19         

        CLASS   BANK18         

        CLASS   BANK17         

        CLASS   BANK16         

        CLASS   BANK15         

        CLASS   BANK14         

        CLASS   BANK13         



SEGMENTS        Name                           Load    Length   Top    Selector   Space  Class     Delta

                reset_vec                      000000  000004  000004         0       0  CODE        2
                cstackBANK0                    000020  000050  000070        20       1  BANK0       1
                cstackCOMMON                   000070  00000E  00007E        70       1  COMMON      1
                bssBANK1                       0000A0  000026  0000C6        A0       1  BANK1       1
                text22                         0002E6  000006  0002EC       5CC       0  CODE        2
                text8                          0002EC  000006  0002F2       5D8       0  CODE        2
                clrtext                        0002F2  000006  0002F8       5E4       0  CODE        2
                text18                         0002F8  000007  0002FF       5F0       0  CODE        2
                text17                         0002FF  000007  000306       5FE       0  CODE        2
                text9                          000306  00000A  000310       60C       0  CODE        2
                text16                         000310  00000C  00031C       620       0  CODE        2
                text15                         00031C  000011  00032D       638       0  CODE        2
                text23                         00032D  000012  00033F       65A       0  CODE        2
                text4                          00033F  000012  000351       67E       0  CODE        2
                text24                         000351  000014  000365       6A2       0  CODE        2
                text19                         000365  000014  000379       6CA       0  CODE        2
                text13                         000379  000016  00038F       6F2       0  CODE        2
                text1                          00038F  000023  0003B2       71E       0  CODE        2
                text5                          0003B2  000028  0003DA       764       0  CODE        2
                text21                         0003DA  00002D  000407       7B4       0  CODE        2
                text11                         000407  000046  00044D       80E       0  CODE        2
                text2                          00044D  000049  000496       89A       0  CODE        2
                text7                          000496  00004F  0004E5       92C       0  CODE        2
                text10                         0004E5  000056  00053B       9CA       0  CODE        2
                text12                         00053B  000061  00059C       A76       0  CODE        2
                maintext                       00059C  000062  0005FE       B38       0  CODE        2
                text20                         0005FE  00006F  00066D       BFC       0  CODE        2
                text14                         00066D  000074  0006E1       CDA       0  CODE        2
                text6                          0006E1  00007C  00075D       DC2       0  CODE        2
                text3                          00075D  000090  0007ED       EBA       0  CODE        2
                cinit                          0007ED  000013  000800       FDA       0  CODE        2
                stringtext1                    000800  00002B  00082B      1000       0  STRCODE     2


UNUSED ADDRESS RANGES

        Name                Unused          Largest block    Delta
        BANK1            000C6-000EF              2A           1
        BANK10           00520-0056F              50           1
        BANK11           005A0-005EF              50           1
        BANK12           00620-0064F              30           1
        BANK2            00120-0016F              50           1
        BANK3            001A0-001EF              50           1
        BANK4            00220-0026F              50           1
        BANK5            002A0-002EF              50           1
        BANK6            00320-0036F              50           1
        BANK7            003A0-003EF              50           1
        BANK8            00420-0046F              50           1
        BANK9            004A0-004EF              50           1
        BIGRAM           02000-023EF             3F0           1
        CODE             00004-002E5             2E2           2
                         0082B-01FFF             800
        CONST            00004-002E5             100           2
                         0082B-01FFF             100
        EEDATA           0F000-0F0FF             100           2
        ENTRY            00004-002E5             100           2
                         0082B-01FFF             100
        IDLOC            08000-08003               4           2
        RAM              000C6-000EF              2A           1
                         00120-0016F              50
                         001A0-001EF              50
                         00220-0026F              50
                         002A0-002EF              50
                         00320-0036F              50
                         003A0-003EF              50
                         00420-0046F              50
                         004A0-004EF              50
                         00520-0056F              50
                         005A0-005EF              50
                         00620-0064F              30
        SFR0             00000-0001F              20           1
        SFR1             00080-0009F              20           1
        SFR10            00500-0051F              20           1
        SFR11            00580-0059F              20           1
        SFR12            00600-0061F              20           1
        SFR13            00680-006EF              70           1
        SFR14            00700-0076F              70           1
        SFR15            00780-007EF              70           1
        SFR16            00800-0086F              70           1
        SFR17            00880-008EF              70           1
        SFR18            00900-0096F              70           1
        SFR19            00980-009EF              70           1
        SFR2             00100-0011F              20           1
        SFR20            00A00-00A6F              70           1
        SFR21            00A80-00AEF              70           1
        SFR22            00B00-00B6F              70           1
        SFR23            00B80-00BEF              70           1
        SFR24            00C00-00C6F              70           1
        SFR25            00C80-00CEF              70           1
        SFR26            00D00-00D6F              70           1
        SFR27            00D80-00DEF              70           1
        SFR28            00E00-00E6F              70           1
        SFR29            00E80-00EEF              70           1
        SFR3             00180-0019F              20           1
        SFR30            00F00-00F6F              70           1
        SFR31            00F80-00FEF              70           1
        SFR4             00200-0021F              20           1
        SFR5             00280-0029F              20           1
        SFR6             00300-0031F              20           1
        SFR7             00380-0039F              20           1
        SFR8             00400-0041F              20           1
        SFR9             00480-0049F              20           1
        STACK            02076-023EF             37A           1
        STRCODE          00004-002E5             2E2           2
                         0082B-01FFF            17D5
        STRING           00004-002E5             100           2
                         0082B-01FFF             100

                                  Symbol Table

?___aldiv                cstackCOMMON 00070
?_printf                 cstackBANK0  0002D
?_sprintf                cstackBANK0  0002D
?_vfpfcnvrt              cstackCOMMON 0007A
?_vfprintf               cstackBANK0  00025
I2C_write@I2C_data       cstackCOMMON 00070
Send_D7_D4@address       cstackCOMMON 00075
Send_D7_D4@datos         cstackCOMMON 00076
Send_D7_D4@nibble        cstackCOMMON 00072
Write_PCF@dato           cstackCOMMON 00071
_ADCLK                   (abs)        00098
_ADCON0bits              (abs)        00093
_ADCON1                  (abs)        00094
_ADPCH                   (abs)        0009E
_ADREF                   (abs)        0009A
_ADRESH                  (abs)        0008D
_ADRESL                  (abs)        0008C
_ANSELA                  (abs)        00F38
_ANSELAbits              (abs)        00F38
_ANSELB                  (abs)        00F43
_ANSELBbits              (abs)        00F43
_ANSELC                  (abs)        00F4E
_BAUD1CONbits            (abs)        0011F
_GlobalErr               bssBANK0     0006F
_I2C_init                text24       00351
_I2C_start               text18       002F8
_I2C_stop                text17       002FF
_I2C_write               text16       00310
_LATA                    (abs)        00016
_LATAbits                (abs)        00016
_LATB                    (abs)        00017
_LATBbits                (abs)        00017
_LATC                    (abs)        00018
_LCD_INIT_STRING         stringtext1  00800
_PIR3bits                (abs)        0070F
_PORTA                   (abs)        0000C
_PORTB                   (abs)        0000D
_PORTBbits               (abs)        0000D
_PORTC                   (abs)        0000E
_RC0PPS                  (abs)        00F20
_RC1STA                  (abs)        0011D
_RC1STAbits              (abs)        0011D
_RC3PPS                  (abs)        00F23
_RC4PPS                  (abs)        00F24
_RCREG                   (abs)        00119
_RXPPS                   (abs)        00ECB
_SP1BRGH                 (abs)        0011C
_SP1BRGL                 (abs)        0011B
_SSP1ADD                 (abs)        0018D
_SSP1BUF                 (abs)        0018C
_SSP1CLKPPS              (abs)        00EC5
_SSP1CON1                (abs)        00190
_SSP1CON2bits            (abs)        00191
_SSP1CON3                (abs)        00192
_SSP1DATPPS              (abs)        00EC6
_SSP1STAT                (abs)        0018F
_Send_D7_D4              text14       0066D
_TRISA                   (abs)        00011
_TRISBbits               (abs)        00012
_TRISCbits               (abs)        00013
_TX1STA                  (abs)        0011E
_TXREG                   (abs)        0011A
_Write_PCF               text15       0031C
__Habs1                  abs1         00000
__Hbank0                 bank0        00000
__Hbank1                 bank1        00000
__Hbank10                bank10       00000
__Hbank11                bank11       00000
__Hbank12                bank12       00000
__Hbank13                bank13       00000
__Hbank14                bank14       00000
__Hbank15                bank15       00000
__Hbank16                bank16       00000
__Hbank17                bank17       00000
__Hbank18                bank18       00000
__Hbank19                bank19       00000
__Hbank2                 bank2        00000
__Hbank20                bank20       00000
__Hbank21                bank21       00000
__Hbank22                bank22       00000
__Hbank23                bank23       00000
__Hbank24                bank24       00000
__Hbank25                bank25       00000
__Hbank26                bank26       00000
__Hbank27                bank27       00000
__Hbank28                bank28       00000
__Hbank29                bank29       00000
__Hbank3                 bank3        00000
__Hbank30                bank30       00000
__Hbank31                bank31       00000
__Hbank4                 bank4        00000
__Hbank5                 bank5        00000
__Hbank6                 bank6        00000
__Hbank7                 bank7        00000
__Hbank8                 bank8        00000
__Hbank9                 bank9        00000
__Hbigram                bigram       00000
__HbssBANK0              bssBANK0     00000
__HbssBANK1              bssBANK1     00000
__Hcinit                 cinit        00800
__Hclrtext               clrtext      00000
__Hcode                  code         00000
__Hcommon                common       00000
__Hconfig                config       0800C
__HcstackBANK0           cstackBANK0  00000
__HcstackCOMMON          cstackCOMMON 00000
__Heeprom_data           eeprom_data  00000
__Hend_init              end_init     00004
__Hfunctab               functab      00000
__Hinit                  init         00002
__Hintentry              intentry     00002
__Hmaintext              maintext     00000
__Hpowerup               powerup      00000
__Hram                   ram          00000
__Hreset_vec             reset_vec    00002
__Hsfr0                  sfr0         00000
__Hsfr1                  sfr1         00000
__Hsfr10                 sfr10        00000
__Hsfr11                 sfr11        00000
__Hsfr12                 sfr12        00000
__Hsfr13                 sfr13        00000
__Hsfr14                 sfr14        00000
__Hsfr15                 sfr15        00000
__Hsfr16                 sfr16        00000
__Hsfr17                 sfr17        00000
__Hsfr18                 sfr18        00000
__Hsfr19                 sfr19        00000
__Hsfr2                  sfr2         00000
__Hsfr20                 sfr20        00000
__Hsfr21                 sfr21        00000
__Hsfr22                 sfr22        00000
__Hsfr23                 sfr23        00000
__Hsfr24                 sfr24        00000
__Hsfr25                 sfr25        00000
__Hsfr26                 sfr26        00000
__Hsfr27                 sfr27        00000
__Hsfr28                 sfr28        00000
__Hsfr29                 sfr29        00000
__Hsfr3                  sfr3         00000
__Hsfr30                 sfr30        00000
__Hsfr31                 sfr31        00000
__Hsfr4                  sfr4         00000
__Hsfr5                  sfr5         00000
__Hsfr6                  sfr6         00000
__Hsfr7                  sfr7         00000
__Hsfr8                  sfr8         00000
__Hsfr9                  sfr9         00000
__Hspace_0               (abs)        0082B
__Hspace_1               (abs)        000C6
__Hspace_2               (abs)        00000
__Hspace_3               (abs)        00000
__Hspace_4               (abs)        10013
__Hstack                 stack        00000
__Hstrings               strings      00000
__Hstringtext1           stringtext1  00000
__Hstringtext2           stringtext2  00000
__Hstringtext3           stringtext3  00000
__Htext                  text         00000
__Labs1                  abs1         00000
__Lbank0                 bank0        00000
__Lbank1                 bank1        00000
__Lbank10                bank10       00000
__Lbank11                bank11       00000
__Lbank12                bank12       00000
__Lbank13                bank13       00000
__Lbank14                bank14       00000
__Lbank15                bank15       00000
__Lbank16                bank16       00000
__Lbank17                bank17       00000
__Lbank18                bank18       00000
__Lbank19                bank19       00000
__Lbank2                 bank2        00000
__Lbank20                bank20       00000
__Lbank21                bank21       00000
__Lbank22                bank22       00000
__Lbank23                bank23       00000
__Lbank24                bank24       00000
__Lbank25                bank25       00000
__Lbank26                bank26       00000
__Lbank27                bank27       00000
__Lbank28                bank28       00000
__Lbank29                bank29       00000
__Lbank3                 bank3        00000
__Lbank30                bank30       00000
__Lbank31                bank31       00000
__Lbank4                 bank4        00000
__Lbank5                 bank5        00000
__Lbank6                 bank6        00000
__Lbank7                 bank7        00000
__Lbank8                 bank8        00000
__Lbank9                 bank9        00000
__Lbigram                bigram       00000
__LbssBANK0              bssBANK0     00000
__LbssBANK1              bssBANK1     00000
__Lcinit                 cinit        007ED
__Lclrtext               clrtext      00000
__Lcode                  code         00000
__Lcommon                common       00000
__Lconfig                config       00000
__LcstackBANK0           cstackBANK0  00000
__LcstackCOMMON          cstackCOMMON 00000
__Leeprom_data           eeprom_data  00000
__Lend_init              end_init     00002
__Lfunctab               functab      00000
__Linit                  init         00002
__Lintentry              intentry     00002
__Lmaintext              maintext     00000
__Lpowerup               powerup      00000
__Lram                   ram          00000
__Lreset_vec             reset_vec    00000
__Lsfr0                  sfr0         00000
__Lsfr1                  sfr1         00000
__Lsfr10                 sfr10        00000
__Lsfr11                 sfr11        00000
__Lsfr12                 sfr12        00000
__Lsfr13                 sfr13        00000
__Lsfr14                 sfr14        00000
__Lsfr15                 sfr15        00000
__Lsfr16                 sfr16        00000
__Lsfr17                 sfr17        00000
__Lsfr18                 sfr18        00000
__Lsfr19                 sfr19        00000
__Lsfr2                  sfr2         00000
__Lsfr20                 sfr20        00000
__Lsfr21                 sfr21        00000
__Lsfr22                 sfr22        00000
__Lsfr23                 sfr23        00000
__Lsfr24                 sfr24        00000
__Lsfr25                 sfr25        00000
__Lsfr26                 sfr26        00000
__Lsfr27                 sfr27        00000
__Lsfr28                 sfr28        00000
__Lsfr29                 sfr29        00000
__Lsfr3                  sfr3         00000
__Lsfr30                 sfr30        00000
__Lsfr31                 sfr31        00000
__Lsfr4                  sfr4         00000
__Lsfr5                  sfr5         00000
__Lsfr6                  sfr6         00000
__Lsfr7                  sfr7         00000
__Lsfr8                  sfr8         00000
__Lsfr9                  sfr9         00000
__Lspace_0               (abs)        00000
__Lspace_1               (abs)        00000
__Lspace_2               (abs)        00000
__Lspace_3               (abs)        00000
__Lspace_4               (abs)        00000
__Lstack                 stack        00000
__Lstrings               strings      00000
__Lstringtext1           stringtext1  00000
__Lstringtext2           stringtext2  00000
__Lstringtext3           stringtext3  00000
__Ltext                  text         00000
__S0                     (abs)        0082B
__S1                     (abs)        000C6
__S2                     (abs)        00000
__S3                     (abs)        00000
___aldiv                 text3        0075D
___aldiv@counter         cstackBANK0  00020
___aldiv@dividend        cstackCOMMON 00074
___aldiv@divisor         cstackCOMMON 00070
___aldiv@quotient        cstackBANK0  00022
___aldiv@sign            cstackBANK0  00021
___int_sp                stack        00000
___latbits               (abs)        00002
___sp                    stack        00000
___stackhi               (abs)        023EF
___stacklo               (abs)        02076
__end_of_I2C_init        text24       00365
__end_of_I2C_start       text18       002FF
__end_of_I2C_stop        text17       00306
__end_of_I2C_write       text16       0031C
__end_of_LCD_INIT_STRING stringtext1  00804
__end_of_Send_D7_D4      text14       006E1
__end_of_Write_PCF       text15       0032D
__end_of___aldiv         text3        007ED
__end_of__initialization cinit        007FD
__end_of_adc_init        text23       0033F
__end_of_dht11_init      text22       002EC
__end_of_dht11_read      text20       0066D
__end_of_fputc           text7        004E5
__end_of_init            text19       00379
__end_of_lcd_gotoxy      text11       0044D
__end_of_lcd_init        text12       0059C
__end_of_lcd_puts        text10       0053B
__end_of_lcd_send_byte   text13       0038F
__end_of_leer_dht_dat    text21       00407
__end_of_main            maintext     005FE
__end_of_printf          text4        00351
__end_of_putch           text8        002F2
__end_of_serial_TX       text9        00310
__end_of_serial_init     text2        00496
__end_of_sprintf         text1        003B2
__end_of_vfpfcnvrt       text6        0075D
__end_of_vfprintf        text5        003DA
__initialization         cinit        007ED
__pbssBANK0              bssBANK0     00064
__pbssBANK1              bssBANK1     000A0
__pcstackBANK0           cstackBANK0  00020
__pcstackCOMMON          cstackCOMMON 00070
__pmaintext              maintext     0059C
__pstringtext1           stringtext1  00800
__pstringtext2           stringtext2  00825
__pstringtext3           stringtext3  00000
__ptext1                 text1        0038F
__ptext10                text10       004E5
__ptext11                text11       00407
__ptext12                text12       0053B
__ptext13                text13       00379
__ptext14                text14       0066D
__ptext15                text15       0031C
__ptext16                text16       00310
__ptext17                text17       002FF
__ptext18                text18       002F8
__ptext19                text19       00365
__ptext2                 text2        0044D
__ptext20                text20       005FE
__ptext21                text21       003DA
__ptext22                text22       002E6
__ptext23                text23       0032D
__ptext24                text24       00351
__ptext3                 text3        0075D
__ptext4                 text4        0033F
__ptext5                 text5        003B2
__ptext6                 text6        006E1
__ptext7                 text7        00496
__ptext8                 text8        002EC
__ptext9                 text9        00306
__size_of_I2C_init       (abs)        00000
__size_of_I2C_start      (abs)        00000
__size_of_I2C_stop       (abs)        00000
__size_of_I2C_write      (abs)        00000
__size_of_Send_D7_D4     (abs)        00000
__size_of_Write_PCF      (abs)        00000
__size_of___aldiv        (abs)        00000
__size_of_adc_init       (abs)        00000
__size_of_dht11_init     (abs)        00000
__size_of_dht11_read     (abs)        00000
__size_of_fputc          (abs)        00000
__size_of_init           (abs)        00000
__size_of_lcd_gotoxy     (abs)        00000
__size_of_lcd_init       (abs)        00000
__size_of_lcd_puts       (abs)        00000
__size_of_lcd_send_byte  (abs)        00000
__size_of_leer_dht_dat   (abs)        00000
__size_of_main           (abs)        00000
__size_of_printf         (abs)        00000
__size_of_putch          (abs)        00000
__size_of_serial_TX      (abs)        00000
__size_of_serial_init    (abs)        00000
__size_of_sprintf        (abs)        00000
__size_of_vfpfcnvrt      (abs)        00000
__size_of_vfprintf       (abs)        00000
_adc_init                text23       0032D
_dht11_init              text22       002E6
_dht11_read              text20       005FE
_dht_dat                 bssBANK0     00064
_flags                   bssBANK1     000C4
_fputc                   text7        00496
_g_LcdX                  bssBANK0     0006E
_g_LcdY                  bssBANK0     0006D
_init                    text19       00365
_lcd_gotoxy              text11       00407
_lcd_init                text12       0053B
_lcd_puts                text10       004E5
_lcd_send_byte           text13       00379
_leer_dht_dat            text21       003DA
_main                    maintext     0059C
_nout                    bssBANK0     00069
_prec                    bssBANK1     000C2
_printf                  text4        0033F
_putch                   text8        002EC
_serial_TX               text9        00306
_serial_init             text2        0044D
_serial_init$1507        cstackBANK0  00028
_sprintf                 text1        0038F
_vfpfcnvrt               text6        006E1
_vfprintf                text5        003B2
_width                   bssBANK1     000C0
btemp                    (abs)        0007E
clear_ram0               clrtext      002F2
dht11_read@dht_check_sum cstackCOMMON 00079
dht11_read@dht_in        cstackCOMMON 0007A
dht11_read@hum           cstackCOMMON 00076
dht11_read@i             cstackCOMMON 0007B
dht11_read@tem           cstackCOMMON 00074
end_of_initialization    cinit        007FD
fputc@c                  cstackCOMMON 00072
fputc@fp                 cstackCOMMON 00074
intlevel0                functab      00000
intlevel1                functab      00000
intlevel2                functab      00000
intlevel3                functab      00000
intlevel4                functab      00000
intlevel5                functab      00000
lcd_gotoxy@address       cstackBANK0  00021
lcd_gotoxy@x             cstackBANK0  00020
lcd_gotoxy@y             cstackCOMMON 0007A
lcd_init@i               cstackCOMMON 0007C
lcd_puts@dato            cstackCOMMON 0007D
lcd_send_byte@address    cstackCOMMON 00079
lcd_send_byte@n          cstackCOMMON 00077
leer_dht_dat@i           cstackCOMMON 00073
leer_dht_dat@result      cstackCOMMON 00072
main@H                   cstackBANK0  00062
main@T                   cstackBANK0  00063
main@buffer              cstackBANK0  0003A
printf@ap                cstackBANK0  0002F
printf@fmt               cstackBANK0  0002D
putch@txData             cstackCOMMON 00071
reset_vec                reset_vec    00000
serial_TX@dato           cstackCOMMON 00070
serial_init@baud         cstackBANK0  00026
serial_init@sx           cstackBANK0  0002C
sprintf@ap               cstackBANK0  0002F
sprintf@f                cstackBANK0  00031
sprintf@fmt              cstackBANK0  0002D
sprintf@s                cstackBANK0  00030
start                    init         00002
start_initialization     cinit        007ED
vfpfcnvrt@ap             cstackCOMMON 0007B
vfpfcnvrt@fmt            cstackCOMMON 0007A
vfpfcnvrt@fp             cstackCOMMON 0007C
vfprintf@ap              cstackBANK0  00027
vfprintf@cfmt            cstackBANK0  0002B
vfprintf@fmt             cstackBANK0  00025
vfprintf@fp              cstackBANK0  0002A
wtemp0                   (abs)        0007E


MODULE INFORMATION

Module		Function		Class		Link	Load	Size
C:\Program Files\Microchip\xc8\v2.32\pic\sources\c99\common\nf_sprintf.c
		_sprintf       		CODE           	038F	0000	35

C:\Program Files\Microchip\xc8\v2.32\pic\sources\c99\common\nf_sprintf.c estimated size: 35

C:\Program Files\Microchip\xc8\v2.32\pic\sources\c99\common\aldiv.c
		___aldiv       		CODE           	075D	0000	144

C:\Program Files\Microchip\xc8\v2.32\pic\sources\c99\common\aldiv.c estimated size: 144

C:\Program Files\Microchip\xc8\v2.32\pic\sources\c99\common\doprnt.c
		_vfpfcnvrt     		CODE           	06E1	0000	124
		_vfprintf      		CODE           	03B2	0000	40

C:\Program Files\Microchip\xc8\v2.32\pic\sources\c99\common\doprnt.c estimated size: 164

i2c.c
		_I2C_stop      		CODE           	02FF	0000	7
		_I2C_init      		CODE           	0351	0000	20
		_I2C_start     		CODE           	02F8	0000	7
		_I2C_write     		CODE           	0310	0000	12

i2c.c estimated size: 46

Serial.c
		_putch         		CODE           	02EC	0000	6
		_serial_TX     		CODE           	0306	0000	10
		_serial_init   		CODE           	044D	0000	73

Serial.c estimated size: 89

adc.c
		_adc_init      		CODE           	032D	0000	18

adc.c estimated size: 18

main_Serial.c
		_init          		CODE           	0365	0000	20
		_main          		CODE           	059C	0000	98

main_Serial.c estimated size: 118

shared
		_LCD_INIT_STRING		STRCODE        	0800	0000	4
		__initialization		CODE           	07ED	0000	16

shared estimated size: 20

LCD_i2c.c
		_Write_PCF     		CODE           	031C	0000	17
		_Send_D7_D4    		CODE           	066D	0000	116
		_lcd_puts      		CODE           	04E5	0000	86
		_lcd_send_byte 		CODE           	0379	0000	22
		_lcd_gotoxy    		CODE           	0407	0000	70
		_lcd_init      		CODE           	053B	0000	97

LCD_i2c.c estimated size: 408

dht11.c
		_dht11_read    		CODE           	05FE	0000	111
		_leer_dht_dat  		CODE           	03DA	0000	45
		_dht11_init    		CODE           	02E6	0000	6

dht11.c estimated size: 162

C:\Program Files\Microchip\xc8\v2.32\pic\sources\c99\common\printf.c
		_printf        		CODE           	033F	0000	18

C:\Program Files\Microchip\xc8\v2.32\pic\sources\c99\common\printf.c estimated size: 18

C:\Program Files\Microchip\xc8\v2.32\pic\sources\c99\common\nf_fputc.c
		_fputc         		CODE           	0496	0000	79

C:\Program Files\Microchip\xc8\v2.32\pic\sources\c99\common\nf_fputc.c estimated size: 79

