

Microchip MPLAB XC8 Assembler V2.31 build 20201012212115 
                                                                                               Tue Mar 01 15:49:37 2022

Microchip MPLAB XC8 C Compiler v2.31 (Free license) build 20201012212115 Og1 
     1                           	processor	18F57Q84
     2                           	fnconf	rparam,??,?,0
     3                           	pagewidth 120
     4                           	opt	flic
     5                           	psect	idataCOMRAM,global,class=CODE,delta=1,noexec
     6                           	psect	smallconst,global,reloc=2,class=SMALLCONST,delta=1,noexec
     7                           	psect	nvCOMRAM,global,class=COMRAM,space=1,delta=1,lowdata,noexec
     8                           	psect	cinit,global,reloc=2,class=CODE,delta=1
     9                           	psect	bssCOMRAM,global,class=COMRAM,space=1,delta=1,lowdata,noexec
    10                           	psect	dataCOMRAM,global,class=COMRAM,space=1,delta=1,lowdata,noexec
    11                           	psect	bssBANK5,global,class=BANK5,space=1,delta=1,lowdata,noexec
    12                           	psect	bssBANK6,global,class=BANK6,space=1,delta=1,lowdata,noexec
    13                           	psect	cstackBANK5,global,class=BANK5,space=1,delta=1,lowdata,noexec
    14                           	psect	cstackCOMRAM,global,class=COMRAM,space=1,delta=1,lowdata,noexec
    15                           	psect	text0,global,reloc=2,class=CODE,delta=1
    16                           	psect	text1,global,reloc=2,class=CODE,delta=1,group=3
    17                           	psect	text2,global,reloc=2,class=CODE,delta=1,group=3
    18                           	psect	text3,global,reloc=2,class=CODE,delta=1,group=1
    19                           	psect	text4,global,reloc=2,class=CODE,delta=1,group=1
    20                           	psect	text5,global,reloc=2,class=CODE,delta=1,group=1
    21                           	psect	text6,global,reloc=2,class=CODE,delta=1,group=3
    22                           	psect	text7,global,reloc=2,class=CODE,delta=1,group=3
    23                           	psect	text8,global,reloc=2,class=CODE,delta=1
    24                           	psect	text9,global,reloc=2,class=CODE,delta=1
    25                           	psect	text10,global,reloc=2,class=CODE,delta=1
    26                           	psect	text11,global,reloc=2,class=CODE,delta=1
    27                           	psect	text12,global,reloc=2,class=CODE,delta=1
    28                           	psect	text13,global,reloc=2,class=CODE,delta=1
    29                           	psect	text14,global,reloc=2,class=CODE,delta=1
    30                           	psect	text15,global,reloc=2,class=CODE,delta=1
    31                           	psect	text16,global,reloc=2,class=CODE,delta=1
    32                           	psect	text17,global,reloc=2,class=CODE,delta=1
    33                           	psect	text18,global,reloc=2,class=CODE,delta=1
    34                           	psect	text19,global,reloc=2,class=CODE,delta=1
    35                           	psect	text20,global,reloc=2,class=CODE,delta=1
    36                           	psect	text21,global,reloc=2,class=CODE,delta=1
    37                           	psect	text22,global,reloc=2,class=CODE,delta=1
    38                           	psect	text23,global,reloc=2,class=CODE,delta=1
    39                           	psect	text24,global,reloc=2,class=CODE,delta=1
    40                           	psect	text25,global,reloc=2,class=CODE,delta=1
    41                           	psect	text26,global,reloc=2,class=CODE,delta=1
    42                           	psect	text27,global,reloc=2,class=CODE,delta=1
    43                           	psect	text28,global,reloc=2,class=CODE,delta=1
    44                           	psect	intsave_regs,global,class=BIGRAM,space=1,delta=1,noexec
    45                           	psect	text29,global,reloc=2,class=CODE,delta=1
    46                           	psect	rparam,global,class=COMRAM,space=1,delta=1,noexec
    47                           	psect	idloc,global,abs,ovrld,class=IDLOC,space=5,delta=1,noexec
    48                           	psect	config,global,abs,ovrld,class=CONFIG,space=4,delta=1,noexec
    49  0000                     
    50                           ; Version 2.40
    51                           ; Generated 08/12/2021 GMT
    52                           ; 
    53                           ; Copyright © 2021, Microchip Technology Inc. and its subsidiaries ("Microchip")
    54                           ; All rights reserved.
    55                           ; 
    56                           ; This software is developed by Microchip Technology Inc. and its subsidiaries ("Microch
      +                          ip").
    57                           ; 
    58                           ; Redistribution and use in source and binary forms, with or without modification, are
    59                           ; permitted provided that the following conditions are met:
    60                           ; 
    61                           ;     1. Redistributions of source code must retain the above copyright notice, this lis
      +                          t of
    62                           ;        conditions and the following disclaimer.
    63                           ; 
    64                           ;     2. Redistributions in binary form must reproduce the above copyright notice, this 
      +                          list
    65                           ;        of conditions and the following disclaimer in the documentation and/or other
    66                           ;        materials provided with the distribution. Publication is not required when
    67                           ;        this file is used in an embedded application.
    68                           ; 
    69                           ;     3. Microchip's name may not be used to endorse or promote products derived from th
      +                          is
    70                           ;        software without specific prior written permission.
    71                           ; 
    72                           ; THIS SOFTWARE IS PROVIDED BY MICROCHIP "AS IS" AND ANY EXPRESS OR IMPLIED WARRANTIES,
    73                           ; INCLUDING, BUT NOT LIMITED TO, THE IMPLIED WARRANTIES OF MERCHANTABILITY AND FITNESS F
      +                          OR
    74                           ; PURPOSE ARE DISCLAIMED.  IN NO EVENT SHALL MICROCHIP BE LIABLE FOR ANY DIRECT, INDIREC
      +                          T,
    75                           ; INCIDENTAL, SPECIAL, EXEMPLARY, OR CONSEQUENTIAL DAMAGES (INCLUDING BUT NOT LIMITED TO
    76                           ; PROCUREMENT OF SUBSTITUTE GOODS OR SERVICES; LOSS OF USE, DATA OR PROFITS; OR BUSINESS
    77                           ; INTERRUPTION) HOWSOEVER CAUSED AND ON ANY THEORY OF LIABILITY, WHETHER IN CONTRACT, ST
      +                          RICT
    78                           ; LIABILITY, OR TORT (INCLUDING NEGLIGENCE OR OTHERWISE) ARISING IN ANY WAY OUT OF THE U
      +                          SE OF
    79                           ; THIS SOFTWARE, EVEN IF ADVISED OF THE POSSIBILITY OF SUCH DAMAGE.
    80                           ; 
    81                           ; 
    82                           ; Code-generator required, PIC18F57Q84 Definitions
    83                           ; 
    84                           ; SFR Addresses
    85  0000                     
    86 ;; Function _rd1RegCompleteHandler is unused but had its address taken
    87  0000                     
    88 ;; Function _rd2RegCompleteHandler is unused but had its address taken
    89  0000                     
    90 ;; Function _wr1RegCompleteHandler is unused but had its address taken
    91  0000                     
    92 ;; Function _wr2RegCompleteHandler is unused but had its address taken
    93  0000                     
    94 ;; Function _rdBlkRegCompleteHandler is unused but had its address taken
    95  0000                     
    96 ;; Function _ADC_DefaultADI_ISR is unused but had its address taken
    97  0000                     
    98 ;; Function _ADC_DefaultContext1Threshold_ISR is unused but had its address taken
    99  0000                     
   100 ;; Function _ADC_DefaultActiveClockTuning_ISR is unused but had its address taken
   101  0000                     
   102 ;; Function _I2C1_DO_IDLE is unused but had its address taken
   103  0000                     
   104 ;; Function _I2C1_DO_SEND_ADR_READ is unused but had its address taken
   105  0000                     
   106 ;; Function _I2C1_DO_SEND_ADR_WRITE is unused but had its address taken
   107  0000                     
   108 ;; Function _I2C1_DO_TX is unused but had its address taken
   109  0000                     
   110 ;; Function _I2C1_DO_RX is unused but had its address taken
   111  0000                     
   112 ;; Function _I2C1_DO_TX_EMPTY is unused but had its address taken
   113  0000                     
   114 ;; Function _I2C1_DO_RX_EMPTY is unused but had its address taken
   115  0000                     
   116 ;; Function _I2C1_DO_SEND_RESTART_READ is unused but had its address taken
   117  0000                     
   118 ;; Function _I2C1_DO_SEND_RESTART_WRITE is unused but had its address taken
   119  0000                     
   120 ;; Function _I2C1_DO_SEND_RESTART is unused but had its address taken
   121  0000                     
   122 ;; Function _I2C1_DO_SEND_STOP is unused but had its address taken
   123  0000                     
   124 ;; Function _I2C1_DO_RX_ACK is unused but had its address taken
   125  0000                     
   126 ;; Function _I2C1_DO_TX_ACK is unused but had its address taken
   127  0000                     
   128 ;; Function _I2C1_DO_RX_NACK_STOP is unused but had its address taken
   129  0000                     
   130 ;; Function _I2C1_DO_RX_NACK_RESTART is unused but had its address taken
   131  0000                     
   132 ;; Function _I2C1_DO_RESET is unused but had its address taken
   133  0000                     
   134 ;; Function _I2C1_DO_ADDRESS_NACK is unused but had its address taken
   135  0000                     
   136 ;; Function _I2C1_DO_BUS_COLLISION is unused but had its address taken
   137  0000                     
   138 ;; Function _I2C1_DO_BUS_ERROR is unused but had its address taken
   139  0000                     
   140 ;; Function _I2C1_CallbackReturnStop is unused but had its address taken
   141  0000                     
   142 ;; Function _I2C1_CallbackReturnReset is unused but had its address taken
   143  0000                     
   144                           	psect	idataCOMRAM
   145  004138                     __pidataCOMRAM:
   146                           	callstack 0
   147                           
   148                           ;initializer for stoa@F1133
   149  004138  28                 	db	40
   150  004139  6E                 	db	110
   151  00413A  75                 	db	117
   152  00413B  6C                 	db	108
   153  00413C  6C                 	db	108
   154  00413D  29                 	db	41
   155  00413E  00                 	db	0
   156                           
   157                           	psect	smallconst
   158  003700                     __psmallconst:
   159                           	callstack 0
   160  003700  00                 	db	0
   161  003701                     _i2c1_fsmStateTable:
   162                           	callstack 0
   163  003701  00                 	db	0
   164  003702  00                 	db	0
   165  003703  00                 	db	0
   166  003704  00                 	db	0
   167  003705  00                 	db	0
   168  003706  00                 	db	0
   169  003707  00                 	db	0
   170  003708  00                 	db	0
   171  003709  00                 	db	0
   172  00370A  00                 	db	0
   173  00370B  00                 	db	0
   174  00370C  00                 	db	0
   175  00370D  00                 	db	0
   176  00370E  00                 	db	0
   177  00370F  00                 	db	0
   178  003710  00                 	db	0
   179  003711  00                 	db	0
   180  003712  00                 	db	0
   181  003713  00                 	db	0
   182  003714  00                 	db	0
   183  003715  00                 	db	0
   184  003716  00                 	db	0
   185  003717  00                 	db	0
   186  003718  00                 	db	0
   187  003719  00                 	db	0
   188  00371A  00                 	db	0
   189  00371B  00                 	db	0
   190  00371C  00                 	db	0
   191  00371D  00                 	db	0
   192  00371E  00                 	db	0
   193  00371F  00                 	db	0
   194  003720  00                 	db	0
   195  003721  00                 	db	0
   196  003722  00                 	db	0
   197  003723  00                 	db	0
   198  003724  00                 	db	0
   199  003725  00                 	db	0
   200  003726  00                 	db	0
   201  003727  00                 	db	0
   202  003728  00                 	db	0
   203  003729  00                 	db	0
   204  00372A  00                 	db	0
   205  00372B  00                 	db	0
   206  00372C  00                 	db	0
   207  00372D  00                 	db	0
   208  00372E  00                 	db	0
   209  00372F  00                 	db	0
   210  003730  00                 	db	0
   211  003731  00                 	db	0
   212  003732  00                 	db	0
   213  003733  00                 	db	0
   214  003734  00                 	db	0
   215  003735  00                 	db	0
   216  003736  00                 	db	0
   217  003737  00                 	db	0
   218  003738  00                 	db	0
   219  003739  00                 	db	0
   220  00373A                     __end_of_i2c1_fsmStateTable:
   221                           	callstack 0
   222  00373A                     STR_3:
   223  00373A  24                 	db	36
   224  00373B  6C                 	db	108	;'l'
   225  00373C  64                 	db	100	;'d'
   226  00373D  32                 	db	50	;'2'
   227  00373E  6F                 	db	111	;'o'
   228  00373F  66                 	db	102	;'f'
   229  003740  66                 	db	102	;'f'
   230  003741  00                 	db	0
   231  003742                     STR_2:
   232  003742  24                 	db	36
   233  003743  6C                 	db	108	;'l'
   234  003744  64                 	db	100	;'d'
   235  003745  32                 	db	50	;'2'
   236  003746  6F                 	db	111	;'o'
   237  003747  6E                 	db	110	;'n'
   238  003748  00                 	db	0
   239  003749                     STR_1:
   240  003749  25                 	db	37
   241  00374A  73                 	db	115	;'s'
   242  00374B  0A                 	db	10
   243  00374C  00                 	db	0
   244  00374D  00                 	db	0	; dummy byte at the end
   245  0000                     
   246                           	psect	nvCOMRAM
   247  00053E                     __pnvCOMRAM:
   248                           	callstack 0
   249  00053E                     _ADC_ActiveClockTuning_ISR:
   250                           	callstack 0
   251  00053E                     	ds	3
   252  000541                     _ADC_Context1Thereshld_ISR:
   253                           	callstack 0
   254  000541                     	ds	3
   255  000544                     _ADC_ConversionComplete_ISR:
   256                           	callstack 0
   257  000544                     	ds	3
   258  000547                     _UART1_ErrorHandler:
   259                           	callstack 0
   260  000547                     	ds	3
   261  00054A                     _UART1_OverrunErrorHandler:
   262                           	callstack 0
   263  00054A                     	ds	3
   264  00054D                     _UART1_FramingErrorHandler:
   265                           	callstack 0
   266  00054D                     	ds	3
   267  0000                     _PMD8	set	104
   268  0000                     _PMD7	set	103
   269  0000                     _PMD6	set	102
   270  0000                     _PMD5	set	101
   271  0000                     _PMD4	set	100
   272  0000                     _PMD3	set	99
   273  0000                     _PMD2	set	98
   274  0000                     _PMD1	set	97
   275  0000                     _PMD0	set	96
   276  0000                     _OSCTUNE	set	176
   277  0000                     _OSCFRQ	set	177
   278  0000                     _OSCEN	set	179
   279  0000                     _OSCCON3	set	175
   280  0000                     _OSCCON1	set	173
   281  0000                     _I2C1PIEbits	set	667
   282  0000                     _I2C1PIRbits	set	666
   283  0000                     _I2C1ERRbits	set	663
   284  0000                     _I2C1CON1bits	set	661
   285  0000                     _I2C1TXB	set	651
   286  0000                     _I2C1RXB	set	650
   287  0000                     _I2C1STAT1bits	set	665
   288  0000                     _I2C1CON0bits	set	660
   289  0000                     _I2C1BAUD	set	669
   290  0000                     _I2C1CNTH	set	653
   291  0000                     _I2C1CNTL	set	652
   292  0000                     _I2C1ERR	set	663
   293  0000                     _I2C1PIE	set	667
   294  0000                     _I2C1PIR	set	666
   295  0000                     _I2C1CLK	set	670
   296  0000                     _I2C1CON2	set	662
   297  0000                     _I2C1CON1	set	661
   298  0000                     _I2C1CON0	set	660
   299  0000                     _U1TXB	set	675
   300  0000                     _U1RXB	set	673
   301  0000                     _U1ERRIRbits	set	690
   302  0000                     _U1CON0bits	set	683
   303  0000                     _U1ERRIE	set	691
   304  0000                     _U1ERRIR	set	690
   305  0000                     _U1UIR	set	689
   306  0000                     _U1FIFO	set	688
   307  0000                     _U1BRGH	set	687
   308  0000                     _U1BRGL	set	686
   309  0000                     _U1CON2	set	685
   310  0000                     _U1CON1	set	684
   311  0000                     _U1CON0	set	683
   312  0000                     _U1P3H	set	682
   313  0000                     _U1P3L	set	681
   314  0000                     _U1P2H	set	680
   315  0000                     _U1P2L	set	679
   316  0000                     _U1P1H	set	678
   317  0000                     _U1P1L	set	677
   318  0000                     _I2C1SCLPPS	set	625
   319  0000                     _U1RXPPS	set	626
   320  0000                     _RF0PPS	set	553
   321  0000                     _RB2PPS	set	523
   322  0000                     _RB1PPS	set	522
   323  0000                     _I2C1SDAPPS	set	624
   324  0000                     _ADACTPPS	set	617
   325  0000                     _ADCPbits	set	984
   326  0000                     _ADCON1bits	set	1012
   327  0000                     _ADERRL	set	989
   328  0000                     _ADERRH	set	990
   329  0000                     _ADPREVL	set	1000
   330  0000                     _ADPREVH	set	1001
   331  0000                     _ADFLTRL	set	993
   332  0000                     _ADFLTRH	set	994
   333  0000                     _ADSTATbits	set	1015
   334  0000                     _ADCON2bits	set	1013
   335  0000                     _ADCON3bits	set	1014
   336  0000                     _ADCSEL1bits	set	1020
   337  0000                     _ADCON0bits	set	1011
   338  0000                     _ADCSEL1	set	1020
   339  0000                     _ADREF	set	1016
   340  0000                     _ADSTAT	set	1015
   341  0000                     _ADCON3	set	1014
   342  0000                     _ADCON2	set	1013
   343  0000                     _ADCON1	set	1012
   344  0000                     _ADCON0	set	1011
   345  0000                     _ADPREH	set	1010
   346  0000                     _ADPREL	set	1009
   347  0000                     _ADCAP	set	1008
   348  0000                     _ADACQH	set	1007
   349  0000                     _ADACQL	set	1006
   350  0000                     _ADPCH	set	1004
   351  0000                     _ADRESH	set	1003
   352  0000                     _ADRESL	set	1002
   353  0000                     _ADRPT	set	999
   354  0000                     _ADCNT	set	998
   355  0000                     _ADACCU	set	997
   356  0000                     _ADACCH	set	996
   357  0000                     _ADACCL	set	995
   358  0000                     _ADSTPTH	set	992
   359  0000                     _ADSTPTL	set	991
   360  0000                     _ADUTHH	set	988
   361  0000                     _ADUTHL	set	987
   362  0000                     _ADLTHH	set	986
   363  0000                     _ADLTHL	set	985
   364  0000                     _ADCTX	set	1019
   365  0000                     _ADCP	set	984
   366  0000                     _ADCLK	set	1018
   367  0000                     _ADACT	set	1017
   368  0000                     _INLVLF	set	1068
   369  0000                     _INLVLE	set	1060
   370  0000                     _INLVLD	set	1052
   371  0000                     _INLVLC	set	1044
   372  0000                     _INLVLB	set	1036
   373  0000                     _INLVLA	set	1028
   374  0000                     _SLRCONF	set	1067
   375  0000                     _SLRCONE	set	1059
   376  0000                     _SLRCOND	set	1051
   377  0000                     _SLRCONC	set	1043
   378  0000                     _SLRCONB	set	1035
   379  0000                     _SLRCONA	set	1027
   380  0000                     _ODCOND	set	1050
   381  0000                     _ODCONC	set	1042
   382  0000                     _ODCONB	set	1034
   383  0000                     _ODCONA	set	1026
   384  0000                     _ODCONF	set	1066
   385  0000                     _ODCONE	set	1058
   386  0000                     _WPUC	set	1041
   387  0000                     _WPUA	set	1025
   388  0000                     _WPUB	set	1033
   389  0000                     _WPUE	set	1057
   390  0000                     _WPUF	set	1065
   391  0000                     _WPUD	set	1049
   392  0000                     _ANSELA	set	1024
   393  0000                     _ANSELF	set	1064
   394  0000                     _ANSELE	set	1056
   395  0000                     _ANSELB	set	1032
   396  0000                     _ANSELC	set	1040
   397  0000                     _ANSELD	set	1048
   398  0000                     _LATFbits	set	1219
   399  0000                     _PIR7bits	set	1205
   400  0000                     _PIE7bits	set	1189
   401  0000                     _PIR2bits	set	1200
   402  0000                     _PIR1bits	set	1199
   403  0000                     _PIR4bits	set	1202
   404  0000                     _TRISD	set	1225
   405  0000                     _TRISC	set	1224
   406  0000                     _TRISB	set	1223
   407  0000                     _TRISA	set	1222
   408  0000                     _TRISF	set	1227
   409  0000                     _TRISE	set	1226
   410  0000                     _LATC	set	1216
   411  0000                     _LATB	set	1215
   412  0000                     _LATF	set	1219
   413  0000                     _LATA	set	1214
   414  0000                     _LATD	set	1217
   415  0000                     _LATE	set	1218
   416                           
   417                           ; #config settings
   418                           
   419                           	psect	cinit
   420  003F92                     __pcinit:
   421                           	callstack 0
   422  003F92                     start_initialization:
   423                           	callstack 0
   424  003F92                     __initialization:
   425                           	callstack 0
   426                           
   427                           ; Initialize objects allocated to COMRAM (7 bytes)
   428                           ; load TBLPTR registers with __pidataCOMRAM
   429  003F92  0E38               	movlw	low __pidataCOMRAM
   430  003F94  6EF6               	movwf	tblptrl,c
   431  003F96  0E41               	movlw	high __pidataCOMRAM
   432  003F98  6EF7               	movwf	tblptrh,c
   433  003F9A  0E00               	movlw	low (__pidataCOMRAM shr (0+16))
   434  003F9C  6EF8               	movwf	tblptru,c
   435  003F9E  EE01  F159         	lfsr	0,__pdataCOMRAM
   436  003FA2  EE10 F007          	lfsr	1,7
   437  003FA6                     copy_data0:
   438  003FA6  0009               	tblrd		*+
   439  003FA8  C4F5 F4EE          	movff	tablat,postinc0
   440  003FAC  50E5               	movf	postdec1,w,c
   441  003FAE  50E1               	movf	fsr1l,w,c
   442  003FB0  E1FA               	bnz	copy_data0
   443                           
   444                           ; Clear objects allocated to BANK6 (32 bytes)
   445  003FB2  EE01  F200         	lfsr	0,__pbssBANK6
   446  003FB6  0E20               	movlw	32
   447  003FB8                     clear_0:
   448  003FB8  6AEE               	clrf	postinc0,c
   449  003FBA  06E8               	decf	wreg,f,c
   450  003FBC  E1FD               	bnz	clear_0
   451                           
   452                           ; Clear objects allocated to BANK5 (42 bytes)
   453  003FBE  EE01  F1C4         	lfsr	0,__pbssBANK5
   454  003FC2  0E2A               	movlw	42
   455  003FC4                     clear_1:
   456  003FC4  6AEE               	clrf	postinc0,c
   457  003FC6  06E8               	decf	wreg,f,c
   458  003FC8  E1FD               	bnz	clear_1
   459                           
   460                           ; Clear objects allocated to COMRAM (9 bytes)
   461  003FCA  EE01  F150         	lfsr	0,__pbssCOMRAM
   462  003FCE  0E09               	movlw	9
   463  003FD0                     clear_2:
   464  003FD0  6AEE               	clrf	postinc0,c
   465  003FD2  06E8               	decf	wreg,f,c
   466  003FD4  E1FD               	bnz	clear_2
   467  003FD6                     end_of_initialization:
   468                           	callstack 0
   469  003FD6                     __end_of__initialization:
   470                           	callstack 0
   471  003FD6  0100               	movlb	0
   472  003FD8  EF3E  F01D         	goto	_main	;jump to C main() function
   473                           
   474                           	psect	bssCOMRAM
   475  000550                     __pbssCOMRAM:
   476                           	callstack 0
   477  000550                     _nout:
   478                           	callstack 0
   479  000550                     	ds	2
   480  000552                     _width:
   481                           	callstack 0
   482  000552                     	ds	2
   483  000554                     _prec:
   484                           	callstack 0
   485  000554                     	ds	2
   486  000556                     _flags:
   487                           	callstack 0
   488  000556                     	ds	2
   489  000558                     _uart1RxLastError:
   490                           	callstack 0
   491  000558                     	ds	1
   492                           
   493                           	psect	dataCOMRAM
   494  000559                     __pdataCOMRAM:
   495                           	callstack 0
   496  000559                     stoa@F1133:
   497                           	callstack 0
   498  000559                     	ds	7
   499                           
   500                           	psect	bssBANK5
   501  0005C4                     __pbssBANK5:
   502                           	callstack 0
   503  0005C4                     _I2C1_Status:
   504                           	callstack 0
   505  0005C4                     	ds	42
   506                           
   507                           	psect	bssBANK6
   508  000600                     __pbssBANK6:
   509                           	callstack 0
   510  000600                     	ds	32
   511                           
   512                           	psect	cstackBANK5
   513  000560                     __pcstackBANK5:
   514                           	callstack 0
   515  000560                     main@cadena:
   516                           	callstack 0
   517                           
   518                           ; 100 bytes @ 0x0
   519  000560                     	ds	100
   520                           
   521                           	psect	cstackCOMRAM
   522  000501                     __pcstackCOMRAM:
   523                           	callstack 0
   524  000501                     ?_strcmp:
   525                           	callstack 0
   526  000501                     ?_strlen:
   527                           	callstack 0
   528  000501                     UART1_Write@txData:
   529                           	callstack 0
   530  000501                     leer_serial@ptrCadena:
   531                           	callstack 0
   532  000501                     strcmp@l:
   533                           	callstack 0
   534  000501                     strlen@s:
   535                           	callstack 0
   536  000501                     UART1_SetFramingErrorHandler@interruptHandler:
   537                           	callstack 0
   538  000501                     UART1_SetOverrunErrorHandler@interruptHandler:
   539                           	callstack 0
   540  000501                     UART1_SetErrorHandler@interruptHandler:
   541                           	callstack 0
   542  000501                     ADC_SetADIInterruptHandler@InterruptHandler:
   543                           	callstack 0
   544  000501                     ADC_SetContext1ThresholdInterruptHandler@InterruptHandler:
   545                           	callstack 0
   546  000501                     ADC_SetActiveClockTuningInterruptHandler@InterruptHandler:
   547                           	callstack 0
   548                           
   549                           ; 3 bytes @ 0x0
   550  000501                     	ds	1
   551  000502                     putch@txData:
   552                           	callstack 0
   553                           
   554                           ; 1 bytes @ 0x1
   555  000502                     	ds	1
   556  000503                     ??_leer_serial:
   557  000503                     fputc@c:
   558                           	callstack 0
   559  000503                     strcmp@r:
   560                           	callstack 0
   561  000503                     strlen@a:
   562                           	callstack 0
   563                           
   564                           ; 2 bytes @ 0x2
   565  000503                     	ds	1
   566  000504                     
   567                           ; 1 bytes @ 0x3
   568  000504                     	ds	1
   569  000505                     ??_strcmp:
   570  000505                     fputc@fp:
   571                           	callstack 0
   572                           
   573                           ; 2 bytes @ 0x4
   574  000505                     	ds	1
   575  000506                     leer_serial@i:
   576                           	callstack 0
   577                           
   578                           ; 2 bytes @ 0x5
   579  000506                     	ds	1
   580  000507                     ??_fputc:
   581                           
   582                           ; 1 bytes @ 0x6
   583  000507                     	ds	5
   584  00050C                     ?_stoa:
   585                           	callstack 0
   586  00050C                     stoa@fp:
   587                           	callstack 0
   588                           
   589                           ; 2 bytes @ 0xB
   590  00050C                     	ds	2
   591  00050E                     stoa@s:
   592                           	callstack 0
   593                           
   594                           ; 2 bytes @ 0xD
   595  00050E                     	ds	2
   596  000510                     ??_stoa:
   597                           
   598                           ; 1 bytes @ 0xF
   599  000510                     	ds	1
   600  000511                     stoa@nuls:
   601                           	callstack 0
   602                           
   603                           ; 7 bytes @ 0x10
   604  000511                     	ds	7
   605  000518                     stoa@i:
   606                           	callstack 0
   607                           
   608                           ; 2 bytes @ 0x17
   609  000518                     	ds	2
   610  00051A                     stoa@w:
   611                           	callstack 0
   612                           
   613                           ; 2 bytes @ 0x19
   614  00051A                     	ds	2
   615  00051C                     stoa@cp:
   616                           	callstack 0
   617                           
   618                           ; 2 bytes @ 0x1B
   619  00051C                     	ds	2
   620  00051E                     stoa@p:
   621                           	callstack 0
   622                           
   623                           ; 2 bytes @ 0x1D
   624  00051E                     	ds	2
   625  000520                     stoa@l:
   626                           	callstack 0
   627                           
   628                           ; 2 bytes @ 0x1F
   629  000520                     	ds	2
   630  000522                     ?_vfpfcnvrt:
   631                           	callstack 0
   632  000522                     vfpfcnvrt@fp:
   633                           	callstack 0
   634                           
   635                           ; 2 bytes @ 0x21
   636  000522                     	ds	2
   637  000524                     vfpfcnvrt@fmt:
   638                           	callstack 0
   639                           
   640                           ; 2 bytes @ 0x23
   641  000524                     	ds	2
   642  000526                     vfpfcnvrt@ap:
   643                           	callstack 0
   644                           
   645                           ; 2 bytes @ 0x25
   646  000526                     	ds	2
   647  000528                     ??_vfpfcnvrt:
   648                           
   649                           ; 1 bytes @ 0x27
   650  000528                     	ds	2
   651  00052A                     vfpfcnvrt@cp:
   652                           	callstack 0
   653                           
   654                           ; 2 bytes @ 0x29
   655  00052A                     	ds	2
   656  00052C                     ?_vfprintf:
   657                           	callstack 0
   658  00052C                     vfprintf@fp:
   659                           	callstack 0
   660                           
   661                           ; 2 bytes @ 0x2B
   662  00052C                     	ds	2
   663  00052E                     vfprintf@fmt:
   664                           	callstack 0
   665                           
   666                           ; 2 bytes @ 0x2D
   667  00052E                     	ds	2
   668  000530                     vfprintf@ap:
   669                           	callstack 0
   670                           
   671                           ; 2 bytes @ 0x2F
   672  000530                     	ds	2
   673  000532                     vfprintf@cfmt:
   674                           	callstack 0
   675                           
   676                           ; 2 bytes @ 0x31
   677  000532                     	ds	2
   678  000534                     ?_printf:
   679                           	callstack 0
   680  000534                     printf@fmt:
   681                           	callstack 0
   682                           
   683                           ; 2 bytes @ 0x33
   684  000534                     	ds	4
   685  000538                     
   686                           ; 1 bytes @ 0x37
   687  000538                     	ds	2
   688  00053A                     printf@ap:
   689                           	callstack 0
   690                           
   691                           ; 2 bytes @ 0x39
   692  00053A                     	ds	2
   693  00053C                     ??_main:
   694                           
   695                           ; 1 bytes @ 0x3B
   696  00053C                     	ds	2
   697                           
   698 ;;
   699 ;;Main: autosize = 0, tempsize = 2, incstack = 0, save=0
   700 ;;
   701 ;; *************** function _main *****************
   702 ;; Defined at:
   703 ;;		line 22 in file "main.c"
   704 ;; Parameters:    Size  Location     Type
   705 ;;		None
   706 ;; Auto vars:     Size  Location     Type
   707 ;;  cadena        100    0[BANK5 ] unsigned char [100]
   708 ;; Return value:  Size  Location     Type
   709 ;;                  1    wreg      void 
   710 ;; Registers used:
   711 ;;		wreg, fsr1l, fsr1h, fsr2l, fsr2h, status,2, status,0, pclath, tosl, tblptrl, tblptrh, tblptru, cstack
   712 ;; Tracked objects:
   713 ;;		On entry : 0/0
   714 ;;		On exit  : 0/0
   715 ;;		Unchanged: 0/0
   716 ;; Data sizes:     COMRAM   BANK5   BANK6   BANK7   BANK8   BANK9  BANK10  BANK11  BANK12  BANK13  BANK14  BANK15  BANK1
      +6  BANK17  BANK18  BANK19  BANK20  BANK21  BANK22  BANK23  BANK24  BANK25  BANK26  BANK27  BANK28  BANK29  BANK30  BANK3
      +1  BANK32  BANK33  BANK34  BANK35  BANK36  BANK37  BANK38  BANK39  BANK40  BANK41  BANK42  BANK43  BANK44  BANK45  BANK4
      +6  BANK47  BANK48  BANK49  BANK50  BANK51  BANK52  BANK53  BANK54
   717 ;;      Params:         0       0       0       0       0       0       0       0       0       0       0       0       
      +0       0       0       0       0       0       0       0       0       0       0       0       0       0       0       
      +0       0       0       0       0       0       0       0       0       0       0       0       0       0       0       
      +0       0       0       0       0       0       0       0       0
   718 ;;      Locals:         0     100       0       0       0       0       0       0       0       0       0       0       
      +0       0       0       0       0       0       0       0       0       0       0       0       0       0       0       
      +0       0       0       0       0       0       0       0       0       0       0       0       0       0       0       
      +0       0       0       0       0       0       0       0       0
   719 ;;      Temps:          2       0       0       0       0       0       0       0       0       0       0       0       
      +0       0       0       0       0       0       0       0       0       0       0       0       0       0       0       
      +0       0       0       0       0       0       0       0       0       0       0       0       0       0       0       
      +0       0       0       0       0       0       0       0       0
   720 ;;      Totals:         2     100       0       0       0       0       0       0       0       0       0       0       
      +0       0       0       0       0       0       0       0       0       0       0       0       0       0       0       
      +0       0       0       0       0       0       0       0       0       0       0       0       0       0       0       
      +0       0       0       0       0       0       0       0       0
   721 ;;Total ram usage:      102 bytes
   722 ;; Hardware stack levels required when called:    7
   723 ;; This function calls:
   724 ;;		_SYSTEM_Initialize
   725 ;;		_leer_serial
   726 ;;		_printf
   727 ;;		_strcmp
   728 ;; This function is called by:
   729 ;;		Startup code after reset
   730 ;; This function uses a non-reentrant model
   731 ;;
   732                           
   733                           	psect	text0
   734  003A7C                     __ptext0:
   735                           	callstack 0
   736  003A7C                     _main:
   737                           	callstack 120
   738  003A7C                     
   739                           ;main.c: 24:     char cadena[100];;main.c: 28:     SYSTEM_Initialize();
   740  003A7C  EC48  F020         	call	_SYSTEM_Initialize	;wreg free
   741  003A80                     l3848:
   742  003A80  B6C3               	btfsc	195,3,c	;volatile
   743  003A82  EF45  F01D         	goto	u1741
   744  003A86  EF48  F01D         	goto	u1740
   745  003A8A                     u1741:
   746  003A8A  0E01               	movlw	1
   747  003A8C  EF49  F01D         	goto	u1746
   748  003A90                     u1740:
   749  003A90  0E00               	movlw	0
   750  003A92                     u1746:
   751  003A92  0AFF               	xorlw	255
   752  003A94  6E3C               	movwf	??_main^(0+1280),c
   753  003A96  463C               	rlncf	??_main^(0+1280),f,c
   754  003A98  463C               	rlncf	??_main^(0+1280),f,c
   755  003A9A  463C               	rlncf	??_main^(0+1280),f,c
   756  003A9C  50C3               	movf	195,w,c	;volatile
   757  003A9E  183C               	xorwf	??_main^(0+1280),w,c
   758  003AA0  0BF7               	andlw	-9
   759  003AA2  183C               	xorwf	??_main^(0+1280),w,c
   760  003AA4  6EC3               	movwf	195,c	;volatile
   761  003AA6                     
   762                           ;main.c: 44:         _delay((unsigned long)((300)*(10000000/4000.0)));
   763  003AA6  0E04               	movlw	4
   764  003AA8  6E3D               	movwf	(??_main+1)^(0+1280),c
   765  003AAA  0ECF               	movlw	207
   766  003AAC  6E3C               	movwf	??_main^(0+1280),c
   767  003AAE  0E02               	movlw	2
   768  003AB0                     u1777:
   769  003AB0  2EE8               	decfsz	wreg,f,c
   770  003AB2  D7FE               	bra	u1777
   771  003AB4  2E3C               	decfsz	??_main^(0+1280),f,c
   772  003AB6  D7FC               	bra	u1777
   773  003AB8  2E3D               	decfsz	(??_main+1)^(0+1280),f,c
   774  003ABA  D7FA               	bra	u1777
   775  003ABC                     
   776                           ;main.c: 45:         leer_serial(&cadena);
   777  003ABC  0E60               	movlw	low main@cadena
   778  003ABE  6E01               	movwf	leer_serial@ptrCadena^(0+1280),c
   779  003AC0  0E05               	movlw	high main@cadena
   780  003AC2  6E02               	movwf	(leer_serial@ptrCadena+1)^(0+1280),c
   781  003AC4  EC96  F01F         	call	_leer_serial	;wreg free
   782  003AC8                     
   783                           ;main.c: 46:         printf("%s\n",cadena);
   784  003AC8  0E49               	movlw	low STR_1
   785  003ACA  6E34               	movwf	printf@fmt^(0+1280),c
   786  003ACC  0E37               	movlw	high STR_1
   787  003ACE  6E35               	movwf	(printf@fmt+1)^(0+1280),c
   788  003AD0  0E60               	movlw	low main@cadena
   789  003AD2  6E36               	movwf	(?_printf+2)^(0+1280),c
   790  003AD4  0E05               	movlw	high main@cadena
   791  003AD6  6E37               	movwf	(?_printf+3)^(0+1280),c
   792  003AD8  EC35  F020         	call	_printf	;wreg free
   793  003ADC                     
   794                           ;main.c: 51:         if (strcmp(cadena,"$ld2on")==0){
   795  003ADC  0E60               	movlw	low main@cadena
   796  003ADE  6E01               	movwf	strcmp@l^(0+1280),c
   797  003AE0  0E05               	movlw	high main@cadena
   798  003AE2  6E02               	movwf	(strcmp@l+1)^(0+1280),c
   799  003AE4  0E42               	movlw	low STR_2
   800  003AE6  6E03               	movwf	strcmp@r^(0+1280),c
   801  003AE8  0E37               	movlw	high STR_2
   802  003AEA  6E04               	movwf	(strcmp@r+1)^(0+1280),c
   803  003AEC  ECE3  F01E         	call	_strcmp	;wreg free
   804  003AF0  5001               	movf	?_strcmp^(0+1280),w,c
   805  003AF2  1002               	iorwf	(?_strcmp+1)^(0+1280),w,c
   806  003AF4  A4D8               	btfss	status,2,c
   807  003AF6  EF7F  F01D         	goto	u1751
   808  003AFA  EF81  F01D         	goto	u1750
   809  003AFE                     u1751:
   810  003AFE  EF82  F01D         	goto	l3858
   811  003B02                     u1750:
   812  003B02  94C3               	bcf	195,2,c	;volatile
   813  003B04                     l3858:
   814                           
   815                           ;main.c: 55:         if (strcmp(cadena,"$ld2off")==0){
   816  003B04  0E60               	movlw	low main@cadena
   817  003B06  6E01               	movwf	strcmp@l^(0+1280),c
   818  003B08  0E05               	movlw	high main@cadena
   819  003B0A  6E02               	movwf	(strcmp@l+1)^(0+1280),c
   820  003B0C  0E3A               	movlw	low STR_3
   821  003B0E  6E03               	movwf	strcmp@r^(0+1280),c
   822  003B10  0E37               	movlw	high STR_3
   823  003B12  6E04               	movwf	(strcmp@r+1)^(0+1280),c
   824  003B14  ECE3  F01E         	call	_strcmp	;wreg free
   825  003B18  5001               	movf	?_strcmp^(0+1280),w,c
   826  003B1A  1002               	iorwf	(?_strcmp+1)^(0+1280),w,c
   827  003B1C  A4D8               	btfss	status,2,c
   828  003B1E  EF93  F01D         	goto	u1761
   829  003B22  EF95  F01D         	goto	u1760
   830  003B26                     u1761:
   831  003B26  EF40  F01D         	goto	l3848
   832  003B2A                     u1760:
   833  003B2A  84C3               	bsf	195,2,c	;volatile
   834  003B2C  EF40  F01D         	goto	l3848
   835  003B30  EFFE  F0FF         	goto	start
   836  003B34                     __end_of_main:
   837                           	callstack 0
   838                           
   839 ;; *************** function _strcmp *****************
   840 ;; Defined at:
   841 ;;		line 3 in file "C:\Program Files\Microchip\xc8\v2.31\pic\sources\c99\common\strcmp.c"
   842 ;; Parameters:    Size  Location     Type
   843 ;;  l               2    0[COMRAM] PTR const unsigned char 
   844 ;;		 -> main@cadena(100), 
   845 ;;  r               2    2[COMRAM] PTR const unsigned char 
   846 ;;		 -> STR_3(8), STR_2(7), 
   847 ;; Auto vars:     Size  Location     Type
   848 ;;		None
   849 ;; Return value:  Size  Location     Type
   850 ;;                  2    0[COMRAM] int 
   851 ;; Registers used:
   852 ;;		wreg, fsr2l, fsr2h, status,2, status,0, tblptrl, tblptrh, tblptru
   853 ;; Tracked objects:
   854 ;;		On entry : 0/0
   855 ;;		On exit  : 0/0
   856 ;;		Unchanged: 0/0
   857 ;; Data sizes:     COMRAM   BANK5   BANK6   BANK7   BANK8   BANK9  BANK10  BANK11  BANK12  BANK13  BANK14  BANK15  BANK1
      +6  BANK17  BANK18  BANK19  BANK20  BANK21  BANK22  BANK23  BANK24  BANK25  BANK26  BANK27  BANK28  BANK29  BANK30  BANK3
      +1  BANK32  BANK33  BANK34  BANK35  BANK36  BANK37  BANK38  BANK39  BANK40  BANK41  BANK42  BANK43  BANK44  BANK45  BANK4
      +6  BANK47  BANK48  BANK49  BANK50  BANK51  BANK52  BANK53  BANK54
   858 ;;      Params:         4       0       0       0       0       0       0       0       0       0       0       0       
      +0       0       0       0       0       0       0       0       0       0       0       0       0       0       0       
      +0       0       0       0       0       0       0       0       0       0       0       0       0       0       0       
      +0       0       0       0       0       0       0       0       0
   859 ;;      Locals:         0       0       0       0       0       0       0       0       0       0       0       0       
      +0       0       0       0       0       0       0       0       0       0       0       0       0       0       0       
      +0       0       0       0       0       0       0       0       0       0       0       0       0       0       0       
      +0       0       0       0       0       0       0       0       0
   860 ;;      Temps:          1       0       0       0       0       0       0       0       0       0       0       0       
      +0       0       0       0       0       0       0       0       0       0       0       0       0       0       0       
      +0       0       0       0       0       0       0       0       0       0       0       0       0       0       0       
      +0       0       0       0       0       0       0       0       0
   861 ;;      Totals:         5       0       0       0       0       0       0       0       0       0       0       0       
      +0       0       0       0       0       0       0       0       0       0       0       0       0       0       0       
      +0       0       0       0       0       0       0       0       0       0       0       0       0       0       0       
      +0       0       0       0       0       0       0       0       0
   862 ;;Total ram usage:        5 bytes
   863 ;; Hardware stack levels used:    1
   864 ;; This function calls:
   865 ;;		Nothing
   866 ;; This function is called by:
   867 ;;		_main
   868 ;; This function uses a non-reentrant model
   869 ;;
   870                           
   871                           	psect	text1
   872  003DC6                     __ptext1:
   873                           	callstack 0
   874  003DC6                     _strcmp:
   875                           	callstack 126
   876  003DC6  EFE9  F01E         	goto	l3316
   877  003DCA                     l3314:
   878  003DCA  4A01               	infsnz	strcmp@l^(0+1280),f,c
   879  003DCC  2A02               	incf	(strcmp@l+1)^(0+1280),f,c
   880  003DCE  4A03               	infsnz	strcmp@r^(0+1280),f,c
   881  003DD0  2A04               	incf	(strcmp@r+1)^(0+1280),f,c
   882  003DD2                     l3316:
   883  003DD2  0061  F404  F4D9   	movff	strcmp@l,fsr2l
   884  003DD8  0061  F408  F4DA   	movff	strcmp@l+1,fsr2h
   885  003DDE  50DF               	movf	indf2,w,c
   886  003DE0  6E05               	movwf	??_strcmp^(0+1280),c
   887  003DE2  0061  F40C  F4F6   	movff	strcmp@r,tblptrl
   888  003DE8  0061  F410  F4F7   	movff	strcmp@r+1,tblptrh
   889  003DEE                     	if	0	;tblptru may be non-zero
   890  003DEE                     	endif
   891  003DEE                     	if	1	;Program memory is > 0xFFFF, there are 3 active tblptr bytes
   892  003DEE  0E00               	movlw	low (__mediumconst shr (0+16))
   893  003DF0  6EF8               	movwf	tblptru,c
   894  003DF2                     	endif
   895  003DF2  0008               	tblrd		*
   896  003DF4  50F5               	movf	tablat,w,c
   897  003DF6  1805               	xorwf	??_strcmp^(0+1280),w,c
   898  003DF8  A4D8               	btfss	status,2,c
   899  003DFA  EF01  F01F         	goto	u1251
   900  003DFE  EF03  F01F         	goto	u1250
   901  003E02                     u1251:
   902  003E02  EF11  F01F         	goto	l3320
   903  003E06                     u1250:
   904  003E06  0061  F404  F4D9   	movff	strcmp@l,fsr2l
   905  003E0C  0061  F408  F4DA   	movff	strcmp@l+1,fsr2h
   906  003E12  50DF               	movf	indf2,w,c
   907  003E14  A4D8               	btfss	status,2,c
   908  003E16  EF0F  F01F         	goto	u1261
   909  003E1A  EF11  F01F         	goto	u1260
   910  003E1E                     u1261:
   911  003E1E  EFE5  F01E         	goto	l3314
   912  003E22                     u1260:
   913  003E22                     l3320:
   914  003E22  0061  F404  F4D9   	movff	strcmp@l,fsr2l
   915  003E28  0061  F408  F4DA   	movff	strcmp@l+1,fsr2h
   916  003E2E  50DF               	movf	indf2,w,c
   917  003E30  6E05               	movwf	??_strcmp^(0+1280),c
   918  003E32  0061  F40C  F4F6   	movff	strcmp@r,tblptrl
   919  003E38  0061  F410  F4F7   	movff	strcmp@r+1,tblptrh
   920  003E3E                     	if	0	;tblptru may be non-zero
   921  003E3E                     	endif
   922  003E3E                     	if	1	;Program memory is > 0xFFFF, there are 3 active tblptr bytes
   923  003E3E  0E00               	movlw	low (__mediumconst shr (0+16))
   924  003E40  6EF8               	movwf	tblptru,c
   925  003E42                     	endif
   926  003E42  0008               	tblrd		*
   927  003E44  50F5               	movf	tablat,w,c
   928  003E46  5C05               	subwf	??_strcmp^(0+1280),w,c
   929  003E48  6E01               	movwf	?_strcmp^(0+1280),c
   930  003E4A  6A02               	clrf	(?_strcmp+1)^(0+1280),c
   931  003E4C  A0D8               	btfss	status,0,c
   932  003E4E  0602               	decf	(?_strcmp+1)^(0+1280),f,c
   933  003E50  0012               	return		;funcret
   934  003E52                     __end_of_strcmp:
   935                           	callstack 0
   936                           
   937 ;; *************** function _printf *****************
   938 ;; Defined at:
   939 ;;		line 5 in file "C:\Program Files\Microchip\xc8\v2.31\pic\sources\c99\common\printf.c"
   940 ;; Parameters:    Size  Location     Type
   941 ;;  fmt             2   51[COMRAM] PTR const unsigned char 
   942 ;;		 -> STR_1(4), 
   943 ;; Auto vars:     Size  Location     Type
   944 ;;  ap              2   57[COMRAM] PTR void [1]
   945 ;;		 -> ?_printf(2), 
   946 ;;  ret             2    0        int 
   947 ;; Return value:  Size  Location     Type
   948 ;;                  2   51[COMRAM] int 
   949 ;; Registers used:
   950 ;;		wreg, fsr1l, fsr1h, fsr2l, fsr2h, status,2, status,0, tblptrl, tblptrh, tblptru, cstack
   951 ;; Tracked objects:
   952 ;;		On entry : 0/0
   953 ;;		On exit  : 0/0
   954 ;;		Unchanged: 0/0
   955 ;; Data sizes:     COMRAM   BANK5   BANK6   BANK7   BANK8   BANK9  BANK10  BANK11  BANK12  BANK13  BANK14  BANK15  BANK1
      +6  BANK17  BANK18  BANK19  BANK20  BANK21  BANK22  BANK23  BANK24  BANK25  BANK26  BANK27  BANK28  BANK29  BANK30  BANK3
      +1  BANK32  BANK33  BANK34  BANK35  BANK36  BANK37  BANK38  BANK39  BANK40  BANK41  BANK42  BANK43  BANK44  BANK45  BANK4
      +6  BANK47  BANK48  BANK49  BANK50  BANK51  BANK52  BANK53  BANK54
   956 ;;      Params:         4       0       0       0       0       0       0       0       0       0       0       0       
      +0       0       0       0       0       0       0       0       0       0       0       0       0       0       0       
      +0       0       0       0       0       0       0       0       0       0       0       0       0       0       0       
      +0       0       0       0       0       0       0       0       0
   957 ;;      Locals:         4       0       0       0       0       0       0       0       0       0       0       0       
      +0       0       0       0       0       0       0       0       0       0       0       0       0       0       0       
      +0       0       0       0       0       0       0       0       0       0       0       0       0       0       0       
      +0       0       0       0       0       0       0       0       0
   958 ;;      Temps:          0       0       0       0       0       0       0       0       0       0       0       0       
      +0       0       0       0       0       0       0       0       0       0       0       0       0       0       0       
      +0       0       0       0       0       0       0       0       0       0       0       0       0       0       0       
      +0       0       0       0       0       0       0       0       0
   959 ;;      Totals:         8       0       0       0       0       0       0       0       0       0       0       0       
      +0       0       0       0       0       0       0       0       0       0       0       0       0       0       0       
      +0       0       0       0       0       0       0       0       0       0       0       0       0       0       0       
      +0       0       0       0       0       0       0       0       0
   960 ;;Total ram usage:        8 bytes
   961 ;; Hardware stack levels used:    1
   962 ;; Hardware stack levels required when called:    6
   963 ;; This function calls:
   964 ;;		_vfprintf
   965 ;; This function is called by:
   966 ;;		_main
   967 ;; This function uses a non-reentrant model
   968 ;;
   969                           
   970                           	psect	text2
   971  00406A                     __ptext2:
   972                           	callstack 0
   973  00406A                     _printf:
   974                           	callstack 120
   975  00406A  0E36               	movlw	low (?_printf+2)
   976  00406C  6E3A               	movwf	printf@ap^(0+1280),c
   977  00406E  0E05               	movlw	high (?_printf+2)
   978  004070  6E3B               	movwf	(printf@ap+1)^(0+1280),c
   979  004072  0E00               	movlw	0
   980  004074  6E2C               	movwf	vfprintf@fp^(0+1280),c
   981  004076  0E00               	movlw	0
   982  004078  6E2D               	movwf	(vfprintf@fp+1)^(0+1280),c
   983  00407A  C534  F52E         	movff	printf@fmt,vfprintf@fmt
   984  00407E  C535  F52F         	movff	printf@fmt+1,vfprintf@fmt+1
   985  004082  0E3A               	movlw	low printf@ap
   986  004084  6E30               	movwf	vfprintf@ap^(0+1280),c
   987  004086  0E05               	movlw	high printf@ap
   988  004088  6E31               	movwf	(vfprintf@ap+1)^(0+1280),c
   989  00408A  EC63  F01F         	call	_vfprintf	;wreg free
   990  00408E  0012               	return		;funcret
   991  004090                     __end_of_printf:
   992                           	callstack 0
   993                           
   994 ;; *************** function _vfprintf *****************
   995 ;; Defined at:
   996 ;;		line 1390 in file "C:\Program Files\Microchip\xc8\v2.31\pic\sources\c99\common\doprnt.c"
   997 ;; Parameters:    Size  Location     Type
   998 ;;  fp              2   43[COMRAM] PTR struct _IO_FILE
   999 ;;		 -> NULL(0), 
  1000 ;;  fmt             2   45[COMRAM] PTR const unsigned char 
  1001 ;;		 -> STR_1(4), 
  1002 ;;  ap              2   47[COMRAM] PTR PTR void 
  1003 ;;		 -> printf@ap(2), 
  1004 ;; Auto vars:     Size  Location     Type
  1005 ;;  cfmt            2   49[COMRAM] PTR unsigned char 
  1006 ;;		 -> STR_1(4), 
  1007 ;; Return value:  Size  Location     Type
  1008 ;;                  2   43[COMRAM] int 
  1009 ;; Registers used:
  1010 ;;		wreg, fsr1l, fsr1h, fsr2l, fsr2h, status,2, status,0, tblptrl, tblptrh, tblptru, cstack
  1011 ;; Tracked objects:
  1012 ;;		On entry : 0/0
  1013 ;;		On exit  : 0/0
  1014 ;;		Unchanged: 0/0
  1015 ;; Data sizes:     COMRAM   BANK5   BANK6   BANK7   BANK8   BANK9  BANK10  BANK11  BANK12  BANK13  BANK14  BANK15  BANK1
      +6  BANK17  BANK18  BANK19  BANK20  BANK21  BANK22  BANK23  BANK24  BANK25  BANK26  BANK27  BANK28  BANK29  BANK30  BANK3
      +1  BANK32  BANK33  BANK34  BANK35  BANK36  BANK37  BANK38  BANK39  BANK40  BANK41  BANK42  BANK43  BANK44  BANK45  BANK4
      +6  BANK47  BANK48  BANK49  BANK50  BANK51  BANK52  BANK53  BANK54
  1016 ;;      Params:         6       0       0       0       0       0       0       0       0       0       0       0       
      +0       0       0       0       0       0       0       0       0       0       0       0       0       0       0       
      +0       0       0       0       0       0       0       0       0       0       0       0       0       0       0       
      +0       0       0       0       0       0       0       0       0
  1017 ;;      Locals:         2       0       0       0       0       0       0       0       0       0       0       0       
      +0       0       0       0       0       0       0       0       0       0       0       0       0       0       0       
      +0       0       0       0       0       0       0       0       0       0       0       0       0       0       0       
      +0       0       0       0       0       0       0       0       0
  1018 ;;      Temps:          0       0       0       0       0       0       0       0       0       0       0       0       
      +0       0       0       0       0       0       0       0       0       0       0       0       0       0       0       
      +0       0       0       0       0       0       0       0       0       0       0       0       0       0       0       
      +0       0       0       0       0       0       0       0       0
  1019 ;;      Totals:         8       0       0       0       0       0       0       0       0       0       0       0       
      +0       0       0       0       0       0       0       0       0       0       0       0       0       0       0       
      +0       0       0       0       0       0       0       0       0       0       0       0       0       0       0       
      +0       0       0       0       0       0       0       0       0
  1020 ;;Total ram usage:        8 bytes
  1021 ;; Hardware stack levels used:    1
  1022 ;; Hardware stack levels required when called:    5
  1023 ;; This function calls:
  1024 ;;		_vfpfcnvrt
  1025 ;; This function is called by:
  1026 ;;		_printf
  1027 ;; This function uses a non-reentrant model
  1028 ;;
  1029                           
  1030                           	psect	text3
  1031  003EC6                     __ptext3:
  1032                           	callstack 0
  1033  003EC6                     _vfprintf:
  1034                           	callstack 120
  1035  003EC6                     
  1036                           ;C:\Program Files\Microchip\xc8\v2.31\pic\sources\c99\common\doprnt.c: 1390: int vfprint
      +                          f(FILE *fp, const char *fmt, va_list ap);C:\Program Files\Microchip\xc8\v2.31\pic\source
      +                          s\c99\common\doprnt.c: 1391: {;C:\Program Files\Microchip\xc8\v2.31\pic\sources\c99\comm
      +                          on\doprnt.c: 1393:     char *cfmt;;C:\Program Files\Microchip\xc8\v2.31\pic\sources\c99\
      +                          common\doprnt.c: 1395:     cfmt = (char *)fmt;
  1037  003EC6  C52E  F532         	movff	vfprintf@fmt,vfprintf@cfmt
  1038  003ECA  C52F  F533         	movff	vfprintf@fmt+1,vfprintf@cfmt+1
  1039  003ECE                     
  1040                           ;C:\Program Files\Microchip\xc8\v2.31\pic\sources\c99\common\doprnt.c: 1396:     nout = 
      +                          0;
  1041  003ECE  0E00               	movlw	0
  1042  003ED0  6E51               	movwf	(_nout+1)^(0+1280),c
  1043  003ED2  0E00               	movlw	0
  1044  003ED4  6E50               	movwf	_nout^(0+1280),c
  1045                           
  1046                           ;C:\Program Files\Microchip\xc8\v2.31\pic\sources\c99\common\doprnt.c: 1397:     while (
      +                          *cfmt) {
  1047  003ED6  EF7F  F01F         	goto	l3232
  1048  003EDA                     l3230:
  1049                           
  1050                           ;C:\Program Files\Microchip\xc8\v2.31\pic\sources\c99\common\doprnt.c: 1398:         nou
      +                          t += vfpfcnvrt(fp, &cfmt, ap);
  1051  003EDA  C52C  F522         	movff	vfprintf@fp,vfpfcnvrt@fp
  1052  003EDE  C52D  F523         	movff	vfprintf@fp+1,vfpfcnvrt@fp+1
  1053  003EE2  0E32               	movlw	low vfprintf@cfmt
  1054  003EE4  6E24               	movwf	vfpfcnvrt@fmt^(0+1280),c
  1055  003EE6  0E05               	movlw	high vfprintf@cfmt
  1056  003EE8  6E25               	movwf	(vfpfcnvrt@fmt+1)^(0+1280),c
  1057  003EEA  C530  F526         	movff	vfprintf@ap,vfpfcnvrt@ap
  1058  003EEE  C531  F527         	movff	vfprintf@ap+1,vfpfcnvrt@ap+1
  1059  003EF2  ECA7  F01B         	call	_vfpfcnvrt	;wreg free
  1060  003EF6  5022               	movf	?_vfpfcnvrt^(0+1280),w,c
  1061  003EF8  2650               	addwf	_nout^(0+1280),f,c
  1062  003EFA  5023               	movf	(?_vfpfcnvrt+1)^(0+1280),w,c
  1063  003EFC  2251               	addwfc	(_nout+1)^(0+1280),f,c
  1064  003EFE                     l3232:
  1065                           
  1066                           ;C:\Program Files\Microchip\xc8\v2.31\pic\sources\c99\common\doprnt.c: 1397:     while (
      +                          *cfmt) {
  1067  003EFE  0061  F4C8  F4F6   	movff	vfprintf@cfmt,tblptrl
  1068  003F04  0061  F4CC  F4F7   	movff	vfprintf@cfmt+1,tblptrh
  1069  003F0A                     	if	0	;tblptru may be non-zero
  1070  003F0A                     	endif
  1071  003F0A                     	if	1	;Program memory is > 0xFFFF, there are 3 active tblptr bytes
  1072  003F0A  0E00               	movlw	low (__mediumconst shr (0+16))
  1073  003F0C  6EF8               	movwf	tblptru,c
  1074  003F0E                     	endif
  1075  003F0E  0008               	tblrd		*
  1076  003F10  50F5               	movf	tablat,w,c
  1077  003F12  0900               	iorlw	0
  1078  003F14  A4D8               	btfss	status,2,c
  1079  003F16  EF8F  F01F         	goto	u1211
  1080  003F1A  EF91  F01F         	goto	u1210
  1081  003F1E                     u1211:
  1082  003F1E  EF6D  F01F         	goto	l3230
  1083  003F22                     u1210:
  1084  003F22                     
  1085                           ;C:\Program Files\Microchip\xc8\v2.31\pic\sources\c99\common\doprnt.c: 1400:     return 
      +                          nout;
  1086  003F22  C550  F52C         	movff	_nout,?_vfprintf
  1087  003F26  C551  F52D         	movff	_nout+1,?_vfprintf+1
  1088  003F2A  0012               	return		;funcret
  1089  003F2C                     __end_of_vfprintf:
  1090                           	callstack 0
  1091                           
  1092 ;; *************** function _vfpfcnvrt *****************
  1093 ;; Defined at:
  1094 ;;		line 692 in file "C:\Program Files\Microchip\xc8\v2.31\pic\sources\c99\common\doprnt.c"
  1095 ;; Parameters:    Size  Location     Type
  1096 ;;  fp              2   33[COMRAM] PTR struct _IO_FILE
  1097 ;;		 -> NULL(0), 
  1098 ;;  fmt             2   35[COMRAM] PTR PTR unsigned char 
  1099 ;;		 -> vfprintf@cfmt(2), 
  1100 ;;  ap              2   37[COMRAM] PTR PTR void 
  1101 ;;		 -> printf@ap(2), 
  1102 ;; Auto vars:     Size  Location     Type
  1103 ;;  llu             8    0        unsigned long long 
  1104 ;;  ll              8    0        long long 
  1105 ;;  f               4    0        long long 
  1106 ;;  vp              3    0        PTR void 
  1107 ;;  ct              3    0        unsigned char [3]
  1108 ;;  cp              2   41[COMRAM] PTR unsigned char 
  1109 ;;		 -> ?_printf(2), main@cadena(100), 
  1110 ;;  i               2    0        int 
  1111 ;;  done            2    0        int 
  1112 ;;  c               1    0        unsigned char 
  1113 ;; Return value:  Size  Location     Type
  1114 ;;                  2   33[COMRAM] int 
  1115 ;; Registers used:
  1116 ;;		wreg, fsr1l, fsr1h, fsr2l, fsr2h, status,2, status,0, tblptrl, tblptrh, tblptru, cstack
  1117 ;; Tracked objects:
  1118 ;;		On entry : 0/0
  1119 ;;		On exit  : 0/0
  1120 ;;		Unchanged: 0/0
  1121 ;; Data sizes:     COMRAM   BANK5   BANK6   BANK7   BANK8   BANK9  BANK10  BANK11  BANK12  BANK13  BANK14  BANK15  BANK1
      +6  BANK17  BANK18  BANK19  BANK20  BANK21  BANK22  BANK23  BANK24  BANK25  BANK26  BANK27  BANK28  BANK29  BANK30  BANK3
      +1  BANK32  BANK33  BANK34  BANK35  BANK36  BANK37  BANK38  BANK39  BANK40  BANK41  BANK42  BANK43  BANK44  BANK45  BANK4
      +6  BANK47  BANK48  BANK49  BANK50  BANK51  BANK52  BANK53  BANK54
  1122 ;;      Params:         6       0       0       0       0       0       0       0       0       0       0       0       
      +0       0       0       0       0       0       0       0       0       0       0       0       0       0       0       
      +0       0       0       0       0       0       0       0       0       0       0       0       0       0       0       
      +0       0       0       0       0       0       0       0       0
  1123 ;;      Locals:         2       0       0       0       0       0       0       0       0       0       0       0       
      +0       0       0       0       0       0       0       0       0       0       0       0       0       0       0       
      +0       0       0       0       0       0       0       0       0       0       0       0       0       0       0       
      +0       0       0       0       0       0       0       0       0
  1124 ;;      Temps:          2       0       0       0       0       0       0       0       0       0       0       0       
      +0       0       0       0       0       0       0       0       0       0       0       0       0       0       0       
      +0       0       0       0       0       0       0       0       0       0       0       0       0       0       0       
      +0       0       0       0       0       0       0       0       0
  1125 ;;      Totals:        10       0       0       0       0       0       0       0       0       0       0       0       
      +0       0       0       0       0       0       0       0       0       0       0       0       0       0       0       
      +0       0       0       0       0       0       0       0       0       0       0       0       0       0       0       
      +0       0       0       0       0       0       0       0       0
  1126 ;;Total ram usage:       10 bytes
  1127 ;; Hardware stack levels used:    1
  1128 ;; Hardware stack levels required when called:    4
  1129 ;; This function calls:
  1130 ;;		_fputc
  1131 ;;		_stoa
  1132 ;; This function is called by:
  1133 ;;		_vfprintf
  1134 ;; This function uses a non-reentrant model
  1135 ;;
  1136                           
  1137                           	psect	text4
  1138  00374E                     __ptext4:
  1139                           	callstack 0
  1140  00374E                     _vfpfcnvrt:
  1141                           	callstack 120
  1142  00374E                     
  1143                           ;C:\Program Files\Microchip\xc8\v2.31\pic\sources\c99\common\doprnt.c: 692: static int v
      +                          fpfcnvrt(FILE *fp, char *fmt[], va_list ap);C:\Program Files\Microchip\xc8\v2.31\pic\sou
      +                          rces\c99\common\doprnt.c: 693: {;C:\Program Files\Microchip\xc8\v2.31\pic\sources\c99\co
      +                          mmon\doprnt.c: 694:     char c, *cp, ct[3];;C:\Program Files\Microchip\xc8\v2.31\pic\sou
      +                          rces\c99\common\doprnt.c: 695:     int done, i;;C:\Program Files\Microchip\xc8\v2.31\pic
      +                          \sources\c99\common\doprnt.c: 696:     long long ll;;C:\Program Files\Microchip\xc8\v2.3
      +                          1\pic\sources\c99\common\doprnt.c: 697:     unsigned long long llu;
  1144  00374E  0061  F490  F4D9   	movff	vfpfcnvrt@fmt,fsr2l
  1145  003754  0061  F494  F4DA   	movff	vfpfcnvrt@fmt+1,fsr2h
  1146  00375A  C4DE F4F6          	movff	postinc2,tblptrl
  1147  00375E  C4DD F4F7          	movff	postdec2,tblptrh
  1148  003762                     	if	0	;tblptru may be non-zero
  1149  003762                     	endif
  1150  003762                     	if	1	;Program memory is > 0xFFFF, there are 3 active tblptr bytes
  1151  003762  0E00               	movlw	low (__mediumconst shr (0+16))
  1152  003764  6EF8               	movwf	tblptru,c
  1153  003766                     	endif
  1154  003766  0008               	tblrd		*
  1155  003768  50F5               	movf	tablat,w,c
  1156  00376A  0A25               	xorlw	37
  1157  00376C  A4D8               	btfss	status,2,c
  1158  00376E  EFBB  F01B         	goto	u1171
  1159  003772  EFBD  F01B         	goto	u1170
  1160  003776                     u1171:
  1161  003776  EF59  F01C         	goto	l3180
  1162  00377A                     u1170:
  1163  00377A                     
  1164                           ;C:\Program Files\Microchip\xc8\v2.31\pic\sources\c99\common\doprnt.c: 703:         ++*f
      +                          mt;
  1165  00377A  0061  F490  F4D9   	movff	vfpfcnvrt@fmt,fsr2l
  1166  003780  0061  F494  F4DA   	movff	vfpfcnvrt@fmt+1,fsr2h
  1167  003786  2ADE               	incf	postinc2,f,c
  1168  003788  0E00               	movlw	0
  1169  00378A  22DD               	addwfc	postdec2,f,c
  1170  00378C                     
  1171                           ;C:\Program Files\Microchip\xc8\v2.31\pic\sources\c99\common\doprnt.c: 705:         flag
      +                          s = width = 0;
  1172  00378C  0E00               	movlw	0
  1173  00378E  6E53               	movwf	(_width+1)^(0+1280),c
  1174  003790  0E00               	movlw	0
  1175  003792  6E52               	movwf	_width^(0+1280),c
  1176  003794  C552  F556         	movff	_width,_flags
  1177  003798  C553  F557         	movff	_width+1,_flags+1
  1178  00379C                     
  1179                           ;C:\Program Files\Microchip\xc8\v2.31\pic\sources\c99\common\doprnt.c: 706:         prec
      +                           = -1;
  1180  00379C  6854               	setf	_prec^(0+1280),c
  1181  00379E  6855               	setf	(_prec+1)^(0+1280),c
  1182  0037A0                     
  1183                           ;C:\Program Files\Microchip\xc8\v2.31\pic\sources\c99\common\doprnt.c: 1171:         if 
      +                          (*fmt[0] == 's') {
  1184  0037A0  0061  F490  F4D9   	movff	vfpfcnvrt@fmt,fsr2l
  1185  0037A6  0061  F494  F4DA   	movff	vfpfcnvrt@fmt+1,fsr2h
  1186  0037AC  C4DE F4F6          	movff	postinc2,tblptrl
  1187  0037B0  C4DD F4F7          	movff	postdec2,tblptrh
  1188  0037B4                     	if	0	;tblptru may be non-zero
  1189  0037B4                     	endif
  1190  0037B4                     	if	1	;Program memory is > 0xFFFF, there are 3 active tblptr bytes
  1191  0037B4  0E00               	movlw	low (__mediumconst shr (0+16))
  1192  0037B6  6EF8               	movwf	tblptru,c
  1193  0037B8                     	endif
  1194  0037B8  0008               	tblrd		*
  1195  0037BA  50F5               	movf	tablat,w,c
  1196  0037BC  0A73               	xorlw	115
  1197  0037BE  A4D8               	btfss	status,2,c
  1198  0037C0  EFE4  F01B         	goto	u1181
  1199  0037C4  EFE6  F01B         	goto	u1180
  1200  0037C8                     u1181:
  1201  0037C8  EF1B  F01C         	goto	l3164
  1202  0037CC                     u1180:
  1203  0037CC                     
  1204                           ;C:\Program Files\Microchip\xc8\v2.31\pic\sources\c99\common\doprnt.c: 1173:            
      +                           ++*fmt;
  1205  0037CC  0061  F490  F4D9   	movff	vfpfcnvrt@fmt,fsr2l
  1206  0037D2  0061  F494  F4DA   	movff	vfpfcnvrt@fmt+1,fsr2h
  1207  0037D8  2ADE               	incf	postinc2,f,c
  1208  0037DA  0E00               	movlw	0
  1209  0037DC  22DD               	addwfc	postdec2,f,c
  1210                           
  1211                           ;C:\Program Files\Microchip\xc8\v2.31\pic\sources\c99\common\doprnt.c: 1174:            
      +                           cp = (*(char * *)__va_arg(*(char * **)ap, (char *)0));
  1212  0037DE  0061  F498  F4D9   	movff	vfpfcnvrt@ap,fsr2l
  1213  0037E4  0061  F49C  F4DA   	movff	vfpfcnvrt@ap+1,fsr2h
  1214  0037EA  0061 F37C  F528    	movff	indf2,??_vfpfcnvrt
  1215  0037F0  0E02               	movlw	2
  1216  0037F2  26DE               	addwf	postinc2,f,c
  1217  0037F4  0061 F37C  F529    	movff	indf2,??_vfpfcnvrt+1
  1218  0037FA  0E00               	movlw	0
  1219  0037FC  22DD               	addwfc	postdec2,f,c
  1220  0037FE  0061  F4A0  F4D9   	movff	??_vfpfcnvrt,fsr2l
  1221  003804  0061  F4A4  F4DA   	movff	??_vfpfcnvrt+1,fsr2h
  1222  00380A  0061 F378  F52A    	movff	postinc2,vfpfcnvrt@cp
  1223  003810  0061 F374  F52B    	movff	postdec2,vfpfcnvrt@cp+1
  1224  003816                     
  1225                           ;C:\Program Files\Microchip\xc8\v2.31\pic\sources\c99\common\doprnt.c: 1176:            
      +                           return stoa(fp, cp);
  1226  003816  C522  F50C         	movff	vfpfcnvrt@fp,stoa@fp
  1227  00381A  C523  F50D         	movff	vfpfcnvrt@fp+1,stoa@fp+1
  1228  00381E  C52A  F50E         	movff	vfpfcnvrt@cp,stoa@s
  1229  003822  C52B  F50F         	movff	vfpfcnvrt@cp+1,stoa@s+1
  1230  003826  EC7B  F01C         	call	_stoa	;wreg free
  1231  00382A  C50C  F522         	movff	?_stoa,?_vfpfcnvrt
  1232  00382E  C50D  F523         	movff	?_stoa+1,?_vfpfcnvrt+1
  1233  003832  EF7A  F01C         	goto	l1821
  1234  003836                     l3164:
  1235                           
  1236                           ;C:\Program Files\Microchip\xc8\v2.31\pic\sources\c99\common\doprnt.c: 1372:         if 
      +                          ((*fmt)[0] == '%') {
  1237  003836  0061  F490  F4D9   	movff	vfpfcnvrt@fmt,fsr2l
  1238  00383C  0061  F494  F4DA   	movff	vfpfcnvrt@fmt+1,fsr2h
  1239  003842  C4DE F4F6          	movff	postinc2,tblptrl
  1240  003846  C4DD F4F7          	movff	postdec2,tblptrh
  1241  00384A                     	if	0	;tblptru may be non-zero
  1242  00384A                     	endif
  1243  00384A                     	if	1	;Program memory is > 0xFFFF, there are 3 active tblptr bytes
  1244  00384A  0E00               	movlw	low (__mediumconst shr (0+16))
  1245  00384C  6EF8               	movwf	tblptru,c
  1246  00384E                     	endif
  1247  00384E  0008               	tblrd		*
  1248  003850  50F5               	movf	tablat,w,c
  1249  003852  0A25               	xorlw	37
  1250  003854  A4D8               	btfss	status,2,c
  1251  003856  EF2F  F01C         	goto	u1191
  1252  00385A  EF31  F01C         	goto	u1190
  1253  00385E                     u1191:
  1254  00385E  EF4A  F01C         	goto	l3174
  1255  003862                     u1190:
  1256  003862                     
  1257                           ;C:\Program Files\Microchip\xc8\v2.31\pic\sources\c99\common\doprnt.c: 1373:            
      +                           ++*fmt;
  1258  003862  0061  F490  F4D9   	movff	vfpfcnvrt@fmt,fsr2l
  1259  003868  0061  F494  F4DA   	movff	vfpfcnvrt@fmt+1,fsr2h
  1260  00386E  2ADE               	incf	postinc2,f,c
  1261  003870  0E00               	movlw	0
  1262  003872  22DD               	addwfc	postdec2,f,c
  1263  003874                     
  1264                           ;C:\Program Files\Microchip\xc8\v2.31\pic\sources\c99\common\doprnt.c: 1374:            
      +                           fputc((int)'%', fp);
  1265  003874  0E00               	movlw	0
  1266  003876  6E04               	movwf	(fputc@c+1)^(0+1280),c
  1267  003878  0E25               	movlw	37
  1268  00387A  6E03               	movwf	fputc@c^(0+1280),c
  1269  00387C  C522  F505         	movff	vfpfcnvrt@fp,fputc@fp
  1270  003880  C523  F506         	movff	vfpfcnvrt@fp+1,fputc@fp+1
  1271  003884  EC98  F01E         	call	_fputc	;wreg free
  1272  003888                     l3170:
  1273                           
  1274                           ;C:\Program Files\Microchip\xc8\v2.31\pic\sources\c99\common\doprnt.c: 1375:            
      +                           return 1;
  1275  003888  0E00               	movlw	0
  1276  00388A  6E23               	movwf	(?_vfpfcnvrt+1)^(0+1280),c
  1277  00388C  0E01               	movlw	1
  1278  00388E  6E22               	movwf	?_vfpfcnvrt^(0+1280),c
  1279  003890  EF7A  F01C         	goto	l1821
  1280  003894                     l3174:
  1281                           
  1282                           ;C:\Program Files\Microchip\xc8\v2.31\pic\sources\c99\common\doprnt.c: 1379:         ++*
      +                          fmt;
  1283  003894  0061  F490  F4D9   	movff	vfpfcnvrt@fmt,fsr2l
  1284  00389A  0061  F494  F4DA   	movff	vfpfcnvrt@fmt+1,fsr2h
  1285  0038A0  2ADE               	incf	postinc2,f,c
  1286  0038A2  0E00               	movlw	0
  1287  0038A4  22DD               	addwfc	postdec2,f,c
  1288  0038A6                     
  1289                           ;C:\Program Files\Microchip\xc8\v2.31\pic\sources\c99\common\doprnt.c: 1380:         ret
      +                          urn 0;
  1290  0038A6  0E00               	movlw	0
  1291  0038A8  6E23               	movwf	(?_vfpfcnvrt+1)^(0+1280),c
  1292  0038AA  0E00               	movlw	0
  1293  0038AC  6E22               	movwf	?_vfpfcnvrt^(0+1280),c
  1294  0038AE  EF7A  F01C         	goto	l1821
  1295  0038B2                     l3180:
  1296                           
  1297                           ;C:\Program Files\Microchip\xc8\v2.31\pic\sources\c99\common\doprnt.c: 1384:     fputc((
      +                          int)(*fmt)[0], fp);
  1298  0038B2  0061  F490  F4D9   	movff	vfpfcnvrt@fmt,fsr2l
  1299  0038B8  0061  F494  F4DA   	movff	vfpfcnvrt@fmt+1,fsr2h
  1300  0038BE  C4DE F4F6          	movff	postinc2,tblptrl
  1301  0038C2  C4DD F4F7          	movff	postdec2,tblptrh
  1302  0038C6                     	if	0	;tblptru may be non-zero
  1303  0038C6                     	endif
  1304  0038C6                     	if	1	;Program memory is > 0xFFFF, there are 3 active tblptr bytes
  1305  0038C6  0E00               	movlw	low (__mediumconst shr (0+16))
  1306  0038C8  6EF8               	movwf	tblptru,c
  1307  0038CA                     	endif
  1308  0038CA  0008               	tblrd		*
  1309  0038CC  50F5               	movf	tablat,w,c
  1310  0038CE  6E03               	movwf	fputc@c^(0+1280),c
  1311  0038D0  6A04               	clrf	(fputc@c+1)^(0+1280),c
  1312  0038D2  C522  F505         	movff	vfpfcnvrt@fp,fputc@fp
  1313  0038D6  C523  F506         	movff	vfpfcnvrt@fp+1,fputc@fp+1
  1314  0038DA  EC98  F01E         	call	_fputc	;wreg free
  1315  0038DE                     
  1316                           ;C:\Program Files\Microchip\xc8\v2.31\pic\sources\c99\common\doprnt.c: 1385:     ++*fmt;
  1317  0038DE  0061  F490  F4D9   	movff	vfpfcnvrt@fmt,fsr2l
  1318  0038E4  0061  F494  F4DA   	movff	vfpfcnvrt@fmt+1,fsr2h
  1319  0038EA  2ADE               	incf	postinc2,f,c
  1320  0038EC  0E00               	movlw	0
  1321  0038EE  22DD               	addwfc	postdec2,f,c
  1322  0038F0  EF44  F01C         	goto	l3170
  1323  0038F4                     l1821:
  1324  0038F4  0012               	return		;funcret
  1325  0038F6                     __end_of_vfpfcnvrt:
  1326                           	callstack 0
  1327                           
  1328 ;; *************** function _stoa *****************
  1329 ;; Defined at:
  1330 ;;		line 568 in file "C:\Program Files\Microchip\xc8\v2.31\pic\sources\c99\common\doprnt.c"
  1331 ;; Parameters:    Size  Location     Type
  1332 ;;  fp              2   11[COMRAM] PTR struct _IO_FILE
  1333 ;;		 -> NULL(0), 
  1334 ;;  s               2   13[COMRAM] PTR unsigned char 
  1335 ;;		 -> ?_printf(2), main@cadena(100), 
  1336 ;; Auto vars:     Size  Location     Type
  1337 ;;  nuls            7   16[COMRAM] unsigned char [7]
  1338 ;;  l               2   31[COMRAM] int 
  1339 ;;  p               2   29[COMRAM] int 
  1340 ;;  cp              2   27[COMRAM] PTR unsigned char 
  1341 ;;		 -> stoa@nuls(7), ?_printf(2), main@cadena(100), 
  1342 ;;  w               2   25[COMRAM] int 
  1343 ;;  i               2   23[COMRAM] int 
  1344 ;; Return value:  Size  Location     Type
  1345 ;;                  2   11[COMRAM] int 
  1346 ;; Registers used:
  1347 ;;		wreg, fsr1l, fsr1h, fsr2l, fsr2h, status,2, status,0, cstack
  1348 ;; Tracked objects:
  1349 ;;		On entry : 0/0
  1350 ;;		On exit  : 0/0
  1351 ;;		Unchanged: 0/0
  1352 ;; Data sizes:     COMRAM   BANK5   BANK6   BANK7   BANK8   BANK9  BANK10  BANK11  BANK12  BANK13  BANK14  BANK15  BANK1
      +6  BANK17  BANK18  BANK19  BANK20  BANK21  BANK22  BANK23  BANK24  BANK25  BANK26  BANK27  BANK28  BANK29  BANK30  BANK3
      +1  BANK32  BANK33  BANK34  BANK35  BANK36  BANK37  BANK38  BANK39  BANK40  BANK41  BANK42  BANK43  BANK44  BANK45  BANK4
      +6  BANK47  BANK48  BANK49  BANK50  BANK51  BANK52  BANK53  BANK54
  1353 ;;      Params:         4       0       0       0       0       0       0       0       0       0       0       0       
      +0       0       0       0       0       0       0       0       0       0       0       0       0       0       0       
      +0       0       0       0       0       0       0       0       0       0       0       0       0       0       0       
      +0       0       0       0       0       0       0       0       0
  1354 ;;      Locals:        17       0       0       0       0       0       0       0       0       0       0       0       
      +0       0       0       0       0       0       0       0       0       0       0       0       0       0       0       
      +0       0       0       0       0       0       0       0       0       0       0       0       0       0       0       
      +0       0       0       0       0       0       0       0       0
  1355 ;;      Temps:          1       0       0       0       0       0       0       0       0       0       0       0       
      +0       0       0       0       0       0       0       0       0       0       0       0       0       0       0       
      +0       0       0       0       0       0       0       0       0       0       0       0       0       0       0       
      +0       0       0       0       0       0       0       0       0
  1356 ;;      Totals:        22       0       0       0       0       0       0       0       0       0       0       0       
      +0       0       0       0       0       0       0       0       0       0       0       0       0       0       0       
      +0       0       0       0       0       0       0       0       0       0       0       0       0       0       0       
      +0       0       0       0       0       0       0       0       0
  1357 ;;Total ram usage:       22 bytes
  1358 ;; Hardware stack levels used:    1
  1359 ;; Hardware stack levels required when called:    3
  1360 ;; This function calls:
  1361 ;;		_fputc
  1362 ;;		_strlen
  1363 ;; This function is called by:
  1364 ;;		_vfpfcnvrt
  1365 ;; This function uses a non-reentrant model
  1366 ;;
  1367                           
  1368                           	psect	text5
  1369  0038F6                     __ptext5:
  1370                           	callstack 0
  1371  0038F6                     _stoa:
  1372                           	callstack 120
  1373  0038F6                     
  1374                           ;C:\Program Files\Microchip\xc8\v2.31\pic\sources\c99\common\doprnt.c: 568: static int s
      +                          toa(FILE *fp, char *s);C:\Program Files\Microchip\xc8\v2.31\pic\sources\c99\common\doprn
      +                          t.c: 569: {;C:\Program Files\Microchip\xc8\v2.31\pic\sources\c99\common\doprnt.c: 570:  
      +                             char *cp, nuls[] = "(null)";
  1375  0038F6  EE21  F159         	lfsr	2,stoa@F1133
  1376  0038FA  EE11  F111         	lfsr	1,stoa@nuls
  1377  0038FE  0E06               	movlw	6
  1378  003900                     u1061:
  1379  003900  C4DB F4E3          	movff	plusw2,plusw1
  1380  003904  06E8               	decf	wreg,f,c
  1381  003906  E2FC               	bc	u1061
  1382  003908                     
  1383                           ;C:\Program Files\Microchip\xc8\v2.31\pic\sources\c99\common\doprnt.c: 571:     int i, l
      +                          , p, w;;C:\Program Files\Microchip\xc8\v2.31\pic\sources\c99\common\doprnt.c: 574:     c
      +                          p = s;
  1384  003908  C50E  F51C         	movff	stoa@s,stoa@cp
  1385  00390C  C50F  F51D         	movff	stoa@s+1,stoa@cp+1
  1386  003910                     
  1387                           ;C:\Program Files\Microchip\xc8\v2.31\pic\sources\c99\common\doprnt.c: 575:     if (!cp)
      +                           {
  1388  003910  501C               	movf	stoa@cp^(0+1280),w,c
  1389  003912  101D               	iorwf	(stoa@cp+1)^(0+1280),w,c
  1390  003914  A4D8               	btfss	status,2,c
  1391  003916  EF8F  F01C         	goto	u1071
  1392  00391A  EF91  F01C         	goto	u1070
  1393  00391E                     u1071:
  1394  00391E  EF95  F01C         	goto	l3064
  1395  003922                     u1070:
  1396  003922                     
  1397                           ;C:\Program Files\Microchip\xc8\v2.31\pic\sources\c99\common\doprnt.c: 576:         cp =
      +                           nuls;
  1398  003922  0E11               	movlw	low stoa@nuls
  1399  003924  6E1C               	movwf	stoa@cp^(0+1280),c
  1400  003926  0E05               	movlw	high stoa@nuls
  1401  003928  6E1D               	movwf	(stoa@cp+1)^(0+1280),c
  1402  00392A                     l3064:
  1403                           
  1404                           ;C:\Program Files\Microchip\xc8\v2.31\pic\sources\c99\common\doprnt.c: 580:     l = (int
      +                          )strlen(cp);
  1405  00392A  C51C  F501         	movff	stoa@cp,strlen@s
  1406  00392E  C51D  F502         	movff	stoa@cp+1,strlen@s+1
  1407  003932  ECEE  F01F         	call	_strlen	;wreg free
  1408  003936  C501  F520         	movff	?_strlen,stoa@l
  1409  00393A  C502  F521         	movff	?_strlen+1,stoa@l+1
  1410  00393E                     
  1411                           ;C:\Program Files\Microchip\xc8\v2.31\pic\sources\c99\common\doprnt.c: 581:     p = prec
      +                          ;
  1412  00393E  C554  F51E         	movff	_prec,stoa@p
  1413  003942  C555  F51F         	movff	_prec+1,stoa@p+1
  1414  003946                     
  1415                           ;C:\Program Files\Microchip\xc8\v2.31\pic\sources\c99\common\doprnt.c: 582:     l = (!(p
      +                           < 0) && (p < l)) ? p : l;
  1416  003946  BE1F               	btfsc	(stoa@p+1)^(0+1280),7,c
  1417  003948  EFA8  F01C         	goto	u1081
  1418  00394C  EFAA  F01C         	goto	u1080
  1419  003950                     u1081:
  1420  003950  EFBF  F01C         	goto	l1802
  1421  003954                     u1080:
  1422  003954  5020               	movf	stoa@l^(0+1280),w,c
  1423  003956  5C1E               	subwf	stoa@p^(0+1280),w,c
  1424  003958  501F               	movf	(stoa@p+1)^(0+1280),w,c
  1425  00395A  0A80               	xorlw	128
  1426  00395C  6E10               	movwf	??_stoa^(0+1280),c
  1427  00395E  5021               	movf	(stoa@l+1)^(0+1280),w,c
  1428  003960  0A80               	xorlw	128
  1429  003962  5810               	subwfb	??_stoa^(0+1280),w,c
  1430  003964  A0D8               	btfss	status,0,c
  1431  003966  EFB7  F01C         	goto	u1091
  1432  00396A  EFB9  F01C         	goto	u1090
  1433  00396E                     u1091:
  1434  00396E  EFBB  F01C         	goto	l1800
  1435  003972                     u1090:
  1436  003972  EFBF  F01C         	goto	l1802
  1437  003976                     l1800:
  1438  003976  C51E  F520         	movff	stoa@p,stoa@l
  1439  00397A  C51F  F521         	movff	stoa@p+1,stoa@l+1
  1440  00397E                     l1802:
  1441                           
  1442                           ;C:\Program Files\Microchip\xc8\v2.31\pic\sources\c99\common\doprnt.c: 583:     p = l;
  1443  00397E  C520  F51E         	movff	stoa@l,stoa@p
  1444  003982  C521  F51F         	movff	stoa@l+1,stoa@p+1
  1445                           
  1446                           ;C:\Program Files\Microchip\xc8\v2.31\pic\sources\c99\common\doprnt.c: 584:     w = widt
      +                          h;
  1447  003986  C552  F51A         	movff	_width,stoa@w
  1448  00398A  C553  F51B         	movff	_width+1,stoa@w+1
  1449                           
  1450                           ;C:\Program Files\Microchip\xc8\v2.31\pic\sources\c99\common\doprnt.c: 587:     if (!(fl
      +                          ags & (1 << 0))) {
  1451  00398E  B056               	btfsc	_flags^(0+1280),0,c
  1452  003990  EFCC  F01C         	goto	u1101
  1453  003994  EFCE  F01C         	goto	u1100
  1454  003998                     u1101:
  1455  003998  EFEB  F01C         	goto	l3080
  1456  00399C                     u1100:
  1457  00399C  EFDC  F01C         	goto	l3078
  1458  0039A0                     l3074:
  1459                           
  1460                           ;C:\Program Files\Microchip\xc8\v2.31\pic\sources\c99\common\doprnt.c: 589:             
      +                          fputc(' ', fp);
  1461  0039A0  0E00               	movlw	0
  1462  0039A2  6E04               	movwf	(fputc@c+1)^(0+1280),c
  1463  0039A4  0E20               	movlw	32
  1464  0039A6  6E03               	movwf	fputc@c^(0+1280),c
  1465  0039A8  C50C  F505         	movff	stoa@fp,fputc@fp
  1466  0039AC  C50D  F506         	movff	stoa@fp+1,fputc@fp+1
  1467  0039B0  EC98  F01E         	call	_fputc	;wreg free
  1468  0039B4                     
  1469                           ;C:\Program Files\Microchip\xc8\v2.31\pic\sources\c99\common\doprnt.c: 590:             
      +                          ++l;
  1470  0039B4  4A20               	infsnz	stoa@l^(0+1280),f,c
  1471  0039B6  2A21               	incf	(stoa@l+1)^(0+1280),f,c
  1472  0039B8                     l3078:
  1473                           
  1474                           ;C:\Program Files\Microchip\xc8\v2.31\pic\sources\c99\common\doprnt.c: 588:         whil
      +                          e (l < w) {
  1475  0039B8  501A               	movf	stoa@w^(0+1280),w,c
  1476  0039BA  5C20               	subwf	stoa@l^(0+1280),w,c
  1477  0039BC  5021               	movf	(stoa@l+1)^(0+1280),w,c
  1478  0039BE  0A80               	xorlw	128
  1479  0039C0  6E10               	movwf	??_stoa^(0+1280),c
  1480  0039C2  501B               	movf	(stoa@w+1)^(0+1280),w,c
  1481  0039C4  0A80               	xorlw	128
  1482  0039C6  5810               	subwfb	??_stoa^(0+1280),w,c
  1483  0039C8  A0D8               	btfss	status,0,c
  1484  0039CA  EFE9  F01C         	goto	u1111
  1485  0039CE  EFEB  F01C         	goto	u1110
  1486  0039D2                     u1111:
  1487  0039D2  EFD0  F01C         	goto	l3074
  1488  0039D6                     u1110:
  1489  0039D6                     l3080:
  1490                           
  1491                           ;C:\Program Files\Microchip\xc8\v2.31\pic\sources\c99\common\doprnt.c: 595:     i = 0;
  1492  0039D6  0E00               	movlw	0
  1493  0039D8  6E19               	movwf	(stoa@i+1)^(0+1280),c
  1494  0039DA  0E00               	movlw	0
  1495  0039DC  6E18               	movwf	stoa@i^(0+1280),c
  1496                           
  1497                           ;C:\Program Files\Microchip\xc8\v2.31\pic\sources\c99\common\doprnt.c: 596:     while (i
      +                           < p) {
  1498  0039DE  EF06  F01D         	goto	l3088
  1499  0039E2                     l3082:
  1500                           
  1501                           ;C:\Program Files\Microchip\xc8\v2.31\pic\sources\c99\common\doprnt.c: 597:         fput
      +                          c(*cp, fp);
  1502  0039E2  0061  F470  F4D9   	movff	stoa@cp,fsr2l
  1503  0039E8  0061  F474  F4DA   	movff	stoa@cp+1,fsr2h
  1504  0039EE  50DF               	movf	indf2,w,c
  1505  0039F0  6E10               	movwf	??_stoa^(0+1280),c
  1506  0039F2  5010               	movf	??_stoa^(0+1280),w,c
  1507  0039F4  6E03               	movwf	fputc@c^(0+1280),c
  1508  0039F6  6A04               	clrf	(fputc@c+1)^(0+1280),c
  1509  0039F8  C50C  F505         	movff	stoa@fp,fputc@fp
  1510  0039FC  C50D  F506         	movff	stoa@fp+1,fputc@fp+1
  1511  003A00  EC98  F01E         	call	_fputc	;wreg free
  1512  003A04                     
  1513                           ;C:\Program Files\Microchip\xc8\v2.31\pic\sources\c99\common\doprnt.c: 598:         ++cp
      +                          ;
  1514  003A04  4A1C               	infsnz	stoa@cp^(0+1280),f,c
  1515  003A06  2A1D               	incf	(stoa@cp+1)^(0+1280),f,c
  1516  003A08                     
  1517                           ;C:\Program Files\Microchip\xc8\v2.31\pic\sources\c99\common\doprnt.c: 599:         ++i;
  1518  003A08  4A18               	infsnz	stoa@i^(0+1280),f,c
  1519  003A0A  2A19               	incf	(stoa@i+1)^(0+1280),f,c
  1520  003A0C                     l3088:
  1521                           
  1522                           ;C:\Program Files\Microchip\xc8\v2.31\pic\sources\c99\common\doprnt.c: 596:     while (i
      +                           < p) {
  1523  003A0C  501E               	movf	stoa@p^(0+1280),w,c
  1524  003A0E  5C18               	subwf	stoa@i^(0+1280),w,c
  1525  003A10  5019               	movf	(stoa@i+1)^(0+1280),w,c
  1526  003A12  0A80               	xorlw	128
  1527  003A14  6E10               	movwf	??_stoa^(0+1280),c
  1528  003A16  501F               	movf	(stoa@p+1)^(0+1280),w,c
  1529  003A18  0A80               	xorlw	128
  1530  003A1A  5810               	subwfb	??_stoa^(0+1280),w,c
  1531  003A1C  A0D8               	btfss	status,0,c
  1532  003A1E  EF13  F01D         	goto	u1121
  1533  003A22  EF15  F01D         	goto	u1120
  1534  003A26                     u1121:
  1535  003A26  EFF1  F01C         	goto	l3082
  1536  003A2A                     u1120:
  1537  003A2A                     
  1538                           ;C:\Program Files\Microchip\xc8\v2.31\pic\sources\c99\common\doprnt.c: 603:     if (flag
      +                          s & (1 << 0)) {
  1539  003A2A  A056               	btfss	_flags^(0+1280),0,c
  1540  003A2C  EF1A  F01D         	goto	u1131
  1541  003A30  EF1C  F01D         	goto	u1130
  1542  003A34                     u1131:
  1543  003A34  EF39  F01D         	goto	l1812
  1544  003A38                     u1130:
  1545  003A38  EF2A  F01D         	goto	l3096
  1546  003A3C                     l3092:
  1547                           
  1548                           ;C:\Program Files\Microchip\xc8\v2.31\pic\sources\c99\common\doprnt.c: 605:             
      +                          fputc(' ', fp);
  1549  003A3C  0E00               	movlw	0
  1550  003A3E  6E04               	movwf	(fputc@c+1)^(0+1280),c
  1551  003A40  0E20               	movlw	32
  1552  003A42  6E03               	movwf	fputc@c^(0+1280),c
  1553  003A44  C50C  F505         	movff	stoa@fp,fputc@fp
  1554  003A48  C50D  F506         	movff	stoa@fp+1,fputc@fp+1
  1555  003A4C  EC98  F01E         	call	_fputc	;wreg free
  1556  003A50                     
  1557                           ;C:\Program Files\Microchip\xc8\v2.31\pic\sources\c99\common\doprnt.c: 606:             
      +                          ++l;
  1558  003A50  4A20               	infsnz	stoa@l^(0+1280),f,c
  1559  003A52  2A21               	incf	(stoa@l+1)^(0+1280),f,c
  1560  003A54                     l3096:
  1561                           
  1562                           ;C:\Program Files\Microchip\xc8\v2.31\pic\sources\c99\common\doprnt.c: 604:         whil
      +                          e (l < w) {
  1563  003A54  501A               	movf	stoa@w^(0+1280),w,c
  1564  003A56  5C20               	subwf	stoa@l^(0+1280),w,c
  1565  003A58  5021               	movf	(stoa@l+1)^(0+1280),w,c
  1566  003A5A  0A80               	xorlw	128
  1567  003A5C  6E10               	movwf	??_stoa^(0+1280),c
  1568  003A5E  501B               	movf	(stoa@w+1)^(0+1280),w,c
  1569  003A60  0A80               	xorlw	128
  1570  003A62  5810               	subwfb	??_stoa^(0+1280),w,c
  1571  003A64  A0D8               	btfss	status,0,c
  1572  003A66  EF37  F01D         	goto	u1141
  1573  003A6A  EF39  F01D         	goto	u1140
  1574  003A6E                     u1141:
  1575  003A6E  EF1E  F01D         	goto	l3092
  1576  003A72                     u1140:
  1577  003A72                     l1812:
  1578                           
  1579                           ;C:\Program Files\Microchip\xc8\v2.31\pic\sources\c99\common\doprnt.c: 610:     return l
      +                          ;
  1580  003A72  C520  F50C         	movff	stoa@l,?_stoa
  1581  003A76  C521  F50D         	movff	stoa@l+1,?_stoa+1
  1582  003A7A  0012               	return		;funcret
  1583  003A7C                     __end_of_stoa:
  1584                           	callstack 0
  1585                           
  1586 ;; *************** function _strlen *****************
  1587 ;; Defined at:
  1588 ;;		line 5 in file "C:\Program Files\Microchip\xc8\v2.31\pic\sources\c99\common\strlen.c"
  1589 ;; Parameters:    Size  Location     Type
  1590 ;;  s               2    0[COMRAM] PTR const unsigned char 
  1591 ;;		 -> stoa@nuls(7), ?_printf(2), main@cadena(100), 
  1592 ;; Auto vars:     Size  Location     Type
  1593 ;;  a               2    2[COMRAM] PTR const unsigned char 
  1594 ;;		 -> stoa@nuls(7), ?_printf(2), main@cadena(100), 
  1595 ;; Return value:  Size  Location     Type
  1596 ;;                  2    0[COMRAM] unsigned int 
  1597 ;; Registers used:
  1598 ;;		wreg, fsr2l, fsr2h, status,2, status,0
  1599 ;; Tracked objects:
  1600 ;;		On entry : 0/0
  1601 ;;		On exit  : 0/0
  1602 ;;		Unchanged: 0/0
  1603 ;; Data sizes:     COMRAM   BANK5   BANK6   BANK7   BANK8   BANK9  BANK10  BANK11  BANK12  BANK13  BANK14  BANK15  BANK1
      +6  BANK17  BANK18  BANK19  BANK20  BANK21  BANK22  BANK23  BANK24  BANK25  BANK26  BANK27  BANK28  BANK29  BANK30  BANK3
      +1  BANK32  BANK33  BANK34  BANK35  BANK36  BANK37  BANK38  BANK39  BANK40  BANK41  BANK42  BANK43  BANK44  BANK45  BANK4
      +6  BANK47  BANK48  BANK49  BANK50  BANK51  BANK52  BANK53  BANK54
  1604 ;;      Params:         2       0       0       0       0       0       0       0       0       0       0       0       
      +0       0       0       0       0       0       0       0       0       0       0       0       0       0       0       
      +0       0       0       0       0       0       0       0       0       0       0       0       0       0       0       
      +0       0       0       0       0       0       0       0       0
  1605 ;;      Locals:         2       0       0       0       0       0       0       0       0       0       0       0       
      +0       0       0       0       0       0       0       0       0       0       0       0       0       0       0       
      +0       0       0       0       0       0       0       0       0       0       0       0       0       0       0       
      +0       0       0       0       0       0       0       0       0
  1606 ;;      Temps:          0       0       0       0       0       0       0       0       0       0       0       0       
      +0       0       0       0       0       0       0       0       0       0       0       0       0       0       0       
      +0       0       0       0       0       0       0       0       0       0       0       0       0       0       0       
      +0       0       0       0       0       0       0       0       0
  1607 ;;      Totals:         4       0       0       0       0       0       0       0       0       0       0       0       
      +0       0       0       0       0       0       0       0       0       0       0       0       0       0       0       
      +0       0       0       0       0       0       0       0       0       0       0       0       0       0       0       
      +0       0       0       0       0       0       0       0       0
  1608 ;;Total ram usage:        4 bytes
  1609 ;; Hardware stack levels used:    1
  1610 ;; This function calls:
  1611 ;;		Nothing
  1612 ;; This function is called by:
  1613 ;;		_stoa
  1614 ;; This function uses a non-reentrant model
  1615 ;;
  1616                           
  1617                           	psect	text6
  1618  003FDC                     __ptext6:
  1619                           	callstack 0
  1620  003FDC                     _strlen:
  1621                           	callstack 122
  1622  003FDC  C501  F503         	movff	strlen@s,strlen@a
  1623  003FE0  C502  F504         	movff	strlen@s+1,strlen@a+1
  1624  003FE4  EFF6  F01F         	goto	l3010
  1625  003FE8                     l3008:
  1626  003FE8  4A01               	infsnz	strlen@s^(0+1280),f,c
  1627  003FEA  2A02               	incf	(strlen@s+1)^(0+1280),f,c
  1628  003FEC                     l3010:
  1629  003FEC  0061  F404  F4D9   	movff	strlen@s,fsr2l
  1630  003FF2  0061  F408  F4DA   	movff	strlen@s+1,fsr2h
  1631  003FF8  50DF               	movf	indf2,w,c
  1632  003FFA  A4D8               	btfss	status,2,c
  1633  003FFC  EF02  F020         	goto	u1051
  1634  004000  EF04  F020         	goto	u1050
  1635  004004                     u1051:
  1636  004004  EFF4  F01F         	goto	l3008
  1637  004008                     u1050:
  1638  004008  5003               	movf	strlen@a^(0+1280),w,c
  1639  00400A  5C01               	subwf	strlen@s^(0+1280),w,c
  1640  00400C  6E01               	movwf	?_strlen^(0+1280),c
  1641  00400E  5004               	movf	(strlen@a+1)^(0+1280),w,c
  1642  004010  5802               	subwfb	(strlen@s+1)^(0+1280),w,c
  1643  004012  6E02               	movwf	(?_strlen+1)^(0+1280),c
  1644  004014  0012               	return		;funcret
  1645  004016                     __end_of_strlen:
  1646                           	callstack 0
  1647                           
  1648 ;; *************** function _fputc *****************
  1649 ;; Defined at:
  1650 ;;		line 8 in file "C:\Program Files\Microchip\xc8\v2.31\pic\sources\c99\common\nf_fputc.c"
  1651 ;; Parameters:    Size  Location     Type
  1652 ;;  c               2    2[COMRAM] int 
  1653 ;;  fp              2    4[COMRAM] PTR struct _IO_FILE
  1654 ;;		 -> NULL(0), 
  1655 ;; Auto vars:     Size  Location     Type
  1656 ;;		None
  1657 ;; Return value:  Size  Location     Type
  1658 ;;                  2    2[COMRAM] int 
  1659 ;; Registers used:
  1660 ;;		wreg, fsr1l, fsr1h, fsr2l, fsr2h, status,2, status,0, cstack
  1661 ;; Tracked objects:
  1662 ;;		On entry : 0/0
  1663 ;;		On exit  : 0/0
  1664 ;;		Unchanged: 0/0
  1665 ;; Data sizes:     COMRAM   BANK5   BANK6   BANK7   BANK8   BANK9  BANK10  BANK11  BANK12  BANK13  BANK14  BANK15  BANK1
      +6  BANK17  BANK18  BANK19  BANK20  BANK21  BANK22  BANK23  BANK24  BANK25  BANK26  BANK27  BANK28  BANK29  BANK30  BANK3
      +1  BANK32  BANK33  BANK34  BANK35  BANK36  BANK37  BANK38  BANK39  BANK40  BANK41  BANK42  BANK43  BANK44  BANK45  BANK4
      +6  BANK47  BANK48  BANK49  BANK50  BANK51  BANK52  BANK53  BANK54
  1666 ;;      Params:         4       0       0       0       0       0       0       0       0       0       0       0       
      +0       0       0       0       0       0       0       0       0       0       0       0       0       0       0       
      +0       0       0       0       0       0       0       0       0       0       0       0       0       0       0       
      +0       0       0       0       0       0       0       0       0
  1667 ;;      Locals:         0       0       0       0       0       0       0       0       0       0       0       0       
      +0       0       0       0       0       0       0       0       0       0       0       0       0       0       0       
      +0       0       0       0       0       0       0       0       0       0       0       0       0       0       0       
      +0       0       0       0       0       0       0       0       0
  1668 ;;      Temps:          5       0       0       0       0       0       0       0       0       0       0       0       
      +0       0       0       0       0       0       0       0       0       0       0       0       0       0       0       
      +0       0       0       0       0       0       0       0       0       0       0       0       0       0       0       
      +0       0       0       0       0       0       0       0       0
  1669 ;;      Totals:         9       0       0       0       0       0       0       0       0       0       0       0       
      +0       0       0       0       0       0       0       0       0       0       0       0       0       0       0       
      +0       0       0       0       0       0       0       0       0       0       0       0       0       0       0       
      +0       0       0       0       0       0       0       0       0
  1670 ;;Total ram usage:        9 bytes
  1671 ;; Hardware stack levels used:    1
  1672 ;; Hardware stack levels required when called:    2
  1673 ;; This function calls:
  1674 ;;		_putch
  1675 ;; This function is called by:
  1676 ;;		_stoa
  1677 ;;		_vfpfcnvrt
  1678 ;; This function uses a non-reentrant model
  1679 ;;
  1680                           
  1681                           	psect	text7
  1682  003D30                     __ptext7:
  1683                           	callstack 0
  1684  003D30                     _fputc:
  1685                           	callstack 120
  1686  003D30  5005               	movf	fputc@fp^(0+1280),w,c
  1687  003D32  1006               	iorwf	(fputc@fp+1)^(0+1280),w,c
  1688  003D34  B4D8               	btfsc	status,2,c
  1689  003D36  EF9F  F01E         	goto	u1011
  1690  003D3A  EFA1  F01E         	goto	u1010
  1691  003D3E                     u1011:
  1692  003D3E  EFAA  F01E         	goto	l2996
  1693  003D42                     u1010:
  1694  003D42  5005               	movf	fputc@fp^(0+1280),w,c
  1695  003D44  1006               	iorwf	(fputc@fp+1)^(0+1280),w,c
  1696  003D46  A4D8               	btfss	status,2,c
  1697  003D48  EFA8  F01E         	goto	u1021
  1698  003D4C  EFAA  F01E         	goto	u1020
  1699  003D50                     u1021:
  1700  003D50  EFAF  F01E         	goto	l2998
  1701  003D54                     u1020:
  1702  003D54                     l2996:
  1703  003D54  5003               	movf	fputc@c^(0+1280),w,c
  1704  003D56  EC97  F020         	call	_putch
  1705  003D5A  EFE2  F01E         	goto	l1840
  1706  003D5E                     l2998:
  1707  003D5E  EE20 F004          	lfsr	2,4
  1708  003D62  5005               	movf	fputc@fp^(0+1280),w,c
  1709  003D64  26D9               	addwf	fsr2l,f,c
  1710  003D66  5006               	movf	(fputc@fp+1)^(0+1280),w,c
  1711  003D68  22DA               	addwfc	fsr2h,f,c
  1712  003D6A  50DE               	movf	postinc2,w,c
  1713  003D6C  10DE               	iorwf	postinc2,w,c
  1714  003D6E  B4D8               	btfsc	status,2,c
  1715  003D70  EFBC  F01E         	goto	u1031
  1716  003D74  EFBE  F01E         	goto	u1030
  1717  003D78                     u1031:
  1718  003D78  EFD9  F01E         	goto	l3002
  1719  003D7C                     u1030:
  1720  003D7C  EE20 F004          	lfsr	2,4
  1721  003D80  5005               	movf	fputc@fp^(0+1280),w,c
  1722  003D82  26D9               	addwf	fsr2l,f,c
  1723  003D84  5006               	movf	(fputc@fp+1)^(0+1280),w,c
  1724  003D86  22DA               	addwfc	fsr2h,f,c
  1725  003D88  EE10 F002          	lfsr	1,2
  1726  003D8C  5005               	movf	fputc@fp^(0+1280),w,c
  1727  003D8E  26E1               	addwf	fsr1l,f,c
  1728  003D90  5006               	movf	(fputc@fp+1)^(0+1280),w,c
  1729  003D92  22E2               	addwfc	fsr1h,f,c
  1730  003D94  50DE               	movf	postinc2,w,c
  1731  003D96  5CE6               	subwf	postinc1,w,c
  1732  003D98  50E6               	movf	postinc1,w,c
  1733  003D9A  0A80               	xorlw	128
  1734  003D9C  6E0B               	movwf	(??_fputc+4)^(0+1280),c
  1735  003D9E  50DE               	movf	postinc2,w,c
  1736  003DA0  0A80               	xorlw	128
  1737  003DA2  580B               	subwfb	(??_fputc+4)^(0+1280),w,c
  1738  003DA4  B0D8               	btfsc	status,0,c
  1739  003DA6  EFD7  F01E         	goto	u1041
  1740  003DAA  EFD9  F01E         	goto	u1040
  1741  003DAE                     u1041:
  1742  003DAE  EFE2  F01E         	goto	l1840
  1743  003DB2                     u1040:
  1744  003DB2                     l3002:
  1745  003DB2  EE20 F002          	lfsr	2,2
  1746  003DB6  5005               	movf	fputc@fp^(0+1280),w,c
  1747  003DB8  26D9               	addwf	fsr2l,f,c
  1748  003DBA  5006               	movf	(fputc@fp+1)^(0+1280),w,c
  1749  003DBC  22DA               	addwfc	fsr2h,f,c
  1750  003DBE  2ADE               	incf	postinc2,f,c
  1751  003DC0  0E00               	movlw	0
  1752  003DC2  22DD               	addwfc	postdec2,f,c
  1753  003DC4                     l1840:
  1754  003DC4  0012               	return		;funcret
  1755  003DC6                     __end_of_fputc:
  1756                           	callstack 0
  1757                           
  1758 ;; *************** function _putch *****************
  1759 ;; Defined at:
  1760 ;;		line 184 in file "mcc_generated_files/uart1.c"
  1761 ;; Parameters:    Size  Location     Type
  1762 ;;  txData          1    wreg     unsigned char 
  1763 ;; Auto vars:     Size  Location     Type
  1764 ;;  txData          1    1[COMRAM] unsigned char 
  1765 ;; Return value:  Size  Location     Type
  1766 ;;                  1    wreg      void 
  1767 ;; Registers used:
  1768 ;;		wreg, status,2, cstack
  1769 ;; Tracked objects:
  1770 ;;		On entry : 0/0
  1771 ;;		On exit  : 0/0
  1772 ;;		Unchanged: 0/0
  1773 ;; Data sizes:     COMRAM   BANK5   BANK6   BANK7   BANK8   BANK9  BANK10  BANK11  BANK12  BANK13  BANK14  BANK15  BANK1
      +6  BANK17  BANK18  BANK19  BANK20  BANK21  BANK22  BANK23  BANK24  BANK25  BANK26  BANK27  BANK28  BANK29  BANK30  BANK3
      +1  BANK32  BANK33  BANK34  BANK35  BANK36  BANK37  BANK38  BANK39  BANK40  BANK41  BANK42  BANK43  BANK44  BANK45  BANK4
      +6  BANK47  BANK48  BANK49  BANK50  BANK51  BANK52  BANK53  BANK54
  1774 ;;      Params:         0       0       0       0       0       0       0       0       0       0       0       0       
      +0       0       0       0       0       0       0       0       0       0       0       0       0       0       0       
      +0       0       0       0       0       0       0       0       0       0       0       0       0       0       0       
      +0       0       0       0       0       0       0       0       0
  1775 ;;      Locals:         1       0       0       0       0       0       0       0       0       0       0       0       
      +0       0       0       0       0       0       0       0       0       0       0       0       0       0       0       
      +0       0       0       0       0       0       0       0       0       0       0       0       0       0       0       
      +0       0       0       0       0       0       0       0       0
  1776 ;;      Temps:          0       0       0       0       0       0       0       0       0       0       0       0       
      +0       0       0       0       0       0       0       0       0       0       0       0       0       0       0       
      +0       0       0       0       0       0       0       0       0       0       0       0       0       0       0       
      +0       0       0       0       0       0       0       0       0
  1777 ;;      Totals:         1       0       0       0       0       0       0       0       0       0       0       0       
      +0       0       0       0       0       0       0       0       0       0       0       0       0       0       0       
      +0       0       0       0       0       0       0       0       0       0       0       0       0       0       0       
      +0       0       0       0       0       0       0       0       0
  1778 ;;Total ram usage:        1 bytes
  1779 ;; Hardware stack levels used:    1
  1780 ;; Hardware stack levels required when called:    1
  1781 ;; This function calls:
  1782 ;;		_UART1_Write
  1783 ;; This function is called by:
  1784 ;;		_fputc
  1785 ;; This function uses a non-reentrant model
  1786 ;;
  1787                           
  1788                           	psect	text8
  1789  00412E                     __ptext8:
  1790                           	callstack 0
  1791  00412E                     _putch:
  1792                           	callstack 120
  1793                           
  1794                           ;incstack = 0
  1795                           ;putch@txData stored from wreg
  1796  00412E  6E02               	movwf	putch@txData^(0+1280),c
  1797  004130                     
  1798                           ;mcc_generated_files/uart1.c: 184: void putch(char txData);mcc_generated_files/uart1.c: 
      +                          185: {;mcc_generated_files/uart1.c: 186:     UART1_Write(txData);
  1799  004130  5002               	movf	putch@txData^(0+1280),w,c
  1800  004132  EC55  F020         	call	_UART1_Write
  1801  004136  0012               	return		;funcret
  1802  004138                     __end_of_putch:
  1803                           	callstack 0
  1804                           
  1805 ;; *************** function _UART1_Write *****************
  1806 ;; Defined at:
  1807 ;;		line 170 in file "mcc_generated_files/uart1.c"
  1808 ;; Parameters:    Size  Location     Type
  1809 ;;  txData          1    wreg     unsigned char 
  1810 ;; Auto vars:     Size  Location     Type
  1811 ;;  txData          1    0[COMRAM] unsigned char 
  1812 ;; Return value:  Size  Location     Type
  1813 ;;                  1    wreg      void 
  1814 ;; Registers used:
  1815 ;;		wreg
  1816 ;; Tracked objects:
  1817 ;;		On entry : 0/0
  1818 ;;		On exit  : 0/0
  1819 ;;		Unchanged: 0/0
  1820 ;; Data sizes:     COMRAM   BANK5   BANK6   BANK7   BANK8   BANK9  BANK10  BANK11  BANK12  BANK13  BANK14  BANK15  BANK1
      +6  BANK17  BANK18  BANK19  BANK20  BANK21  BANK22  BANK23  BANK24  BANK25  BANK26  BANK27  BANK28  BANK29  BANK30  BANK3
      +1  BANK32  BANK33  BANK34  BANK35  BANK36  BANK37  BANK38  BANK39  BANK40  BANK41  BANK42  BANK43  BANK44  BANK45  BANK4
      +6  BANK47  BANK48  BANK49  BANK50  BANK51  BANK52  BANK53  BANK54
  1821 ;;      Params:         0       0       0       0       0       0       0       0       0       0       0       0       
      +0       0       0       0       0       0       0       0       0       0       0       0       0       0       0       
      +0       0       0       0       0       0       0       0       0       0       0       0       0       0       0       
      +0       0       0       0       0       0       0       0       0
  1822 ;;      Locals:         1       0       0       0       0       0       0       0       0       0       0       0       
      +0       0       0       0       0       0       0       0       0       0       0       0       0       0       0       
      +0       0       0       0       0       0       0       0       0       0       0       0       0       0       0       
      +0       0       0       0       0       0       0       0       0
  1823 ;;      Temps:          0       0       0       0       0       0       0       0       0       0       0       0       
      +0       0       0       0       0       0       0       0       0       0       0       0       0       0       0       
      +0       0       0       0       0       0       0       0       0       0       0       0       0       0       0       
      +0       0       0       0       0       0       0       0       0
  1824 ;;      Totals:         1       0       0       0       0       0       0       0       0       0       0       0       
      +0       0       0       0       0       0       0       0       0       0       0       0       0       0       0       
      +0       0       0       0       0       0       0       0       0       0       0       0       0       0       0       
      +0       0       0       0       0       0       0       0       0
  1825 ;;Total ram usage:        1 bytes
  1826 ;; Hardware stack levels used:    1
  1827 ;; This function calls:
  1828 ;;		Nothing
  1829 ;; This function is called by:
  1830 ;;		_putch
  1831 ;; This function uses a non-reentrant model
  1832 ;;
  1833                           
  1834                           	psect	text9
  1835  0040AA                     __ptext9:
  1836                           	callstack 0
  1837  0040AA                     _UART1_Write:
  1838                           	callstack 120
  1839                           
  1840                           ;incstack = 0
  1841                           ;UART1_Write@txData stored from wreg
  1842  0040AA  6E01               	movwf	UART1_Write@txData^(0+1280),c
  1843  0040AC                     l344:
  1844                           
  1845                           ;mcc_generated_files/uart1.c: 172:     while(0 == PIR4bits.U1TXIF)
  1846  0040AC  A2B2               	btfss	178,1,c	;volatile
  1847  0040AE  EF5B  F020         	goto	u11
  1848  0040B2  EF5D  F020         	goto	u10
  1849  0040B6                     u11:
  1850  0040B6  EF56  F020         	goto	l344
  1851  0040BA                     u10:
  1852  0040BA                     
  1853                           ;mcc_generated_files/uart1.c: 176:     U1TXB = txData;
  1854  0040BA  0061  F404  F2A3   	movff	UART1_Write@txData,675	;volatile
  1855  0040C0  0012               	return		;funcret
  1856  0040C2                     __end_of_UART1_Write:
  1857                           	callstack 0
  1858                           
  1859 ;; *************** function _leer_serial *****************
  1860 ;; Defined at:
  1861 ;;		line 9 in file "main.c"
  1862 ;; Parameters:    Size  Location     Type
  1863 ;;  ptrCadena       2    0[COMRAM] PTR unsigned char 
  1864 ;;		 -> main@cadena(100), 
  1865 ;; Auto vars:     Size  Location     Type
  1866 ;;  i               2    5[COMRAM] int 
  1867 ;; Return value:  Size  Location     Type
  1868 ;;                  1    wreg      void 
  1869 ;; Registers used:
  1870 ;;		wreg, fsr2l, fsr2h, status,2, status,0, pclath, tosl, cstack
  1871 ;; Tracked objects:
  1872 ;;		On entry : 0/0
  1873 ;;		On exit  : 0/0
  1874 ;;		Unchanged: 0/0
  1875 ;; Data sizes:     COMRAM   BANK5   BANK6   BANK7   BANK8   BANK9  BANK10  BANK11  BANK12  BANK13  BANK14  BANK15  BANK1
      +6  BANK17  BANK18  BANK19  BANK20  BANK21  BANK22  BANK23  BANK24  BANK25  BANK26  BANK27  BANK28  BANK29  BANK30  BANK3
      +1  BANK32  BANK33  BANK34  BANK35  BANK36  BANK37  BANK38  BANK39  BANK40  BANK41  BANK42  BANK43  BANK44  BANK45  BANK4
      +6  BANK47  BANK48  BANK49  BANK50  BANK51  BANK52  BANK53  BANK54
  1876 ;;      Params:         2       0       0       0       0       0       0       0       0       0       0       0       
      +0       0       0       0       0       0       0       0       0       0       0       0       0       0       0       
      +0       0       0       0       0       0       0       0       0       0       0       0       0       0       0       
      +0       0       0       0       0       0       0       0       0
  1877 ;;      Locals:         2       0       0       0       0       0       0       0       0       0       0       0       
      +0       0       0       0       0       0       0       0       0       0       0       0       0       0       0       
      +0       0       0       0       0       0       0       0       0       0       0       0       0       0       0       
      +0       0       0       0       0       0       0       0       0
  1878 ;;      Temps:          3       0       0       0       0       0       0       0       0       0       0       0       
      +0       0       0       0       0       0       0       0       0       0       0       0       0       0       0       
      +0       0       0       0       0       0       0       0       0       0       0       0       0       0       0       
      +0       0       0       0       0       0       0       0       0
  1879 ;;      Totals:         7       0       0       0       0       0       0       0       0       0       0       0       
      +0       0       0       0       0       0       0       0       0       0       0       0       0       0       0       
      +0       0       0       0       0       0       0       0       0       0       0       0       0       0       0       
      +0       0       0       0       0       0       0       0       0
  1880 ;;Total ram usage:        7 bytes
  1881 ;; Hardware stack levels used:    1
  1882 ;; Hardware stack levels required when called:    3
  1883 ;; This function calls:
  1884 ;;		_getch
  1885 ;; This function is called by:
  1886 ;;		_main
  1887 ;; This function uses a non-reentrant model
  1888 ;;
  1889                           
  1890                           	psect	text10
  1891  003F2C                     __ptext10:
  1892                           	callstack 0
  1893  003F2C                     _leer_serial:
  1894                           	callstack 123
  1895  003F2C                     
  1896                           ;main.c: 10:     int i=0;
  1897  003F2C  0E00               	movlw	0
  1898  003F2E  6E07               	movwf	(leer_serial@i+1)^(0+1280),c
  1899  003F30  0E00               	movlw	0
  1900  003F32  6E06               	movwf	leer_serial@i^(0+1280),c
  1901  003F34                     l3298:
  1902                           
  1903                           ;main.c: 13:         ptrCadena[i++] = getch();
  1904  003F34  5006               	movf	leer_serial@i^(0+1280),w,c
  1905  003F36  2401               	addwf	leer_serial@ptrCadena^(0+1280),w,c
  1906  003F38  6ED9               	movwf	fsr2l,c
  1907  003F3A  5007               	movf	(leer_serial@i+1)^(0+1280),w,c
  1908  003F3C  2002               	addwfc	(leer_serial@ptrCadena+1)^(0+1280),w,c
  1909  003F3E  6EDA               	movwf	fsr2h,c
  1910  003F40  ECA0  F020         	call	_getch	;wreg free
  1911  003F44  6EDF               	movwf	indf2,c
  1912  003F46  4A06               	infsnz	leer_serial@i^(0+1280),f,c
  1913  003F48  2A07               	incf	(leer_serial@i+1)^(0+1280),f,c
  1914  003F4A                     
  1915                           ;main.c: 18:     } while (ptrCadena[i-1] != '\n');
  1916  003F4A  5006               	movf	leer_serial@i^(0+1280),w,c
  1917  003F4C  2401               	addwf	leer_serial@ptrCadena^(0+1280),w,c
  1918  003F4E  6E03               	movwf	??_leer_serial^(0+1280),c
  1919  003F50  5007               	movf	(leer_serial@i+1)^(0+1280),w,c
  1920  003F52  2002               	addwfc	(leer_serial@ptrCadena+1)^(0+1280),w,c
  1921  003F54  6E04               	movwf	(??_leer_serial+1)^(0+1280),c
  1922  003F56  0EFF               	movlw	255
  1923  003F58  2403               	addwf	??_leer_serial^(0+1280),w,c
  1924  003F5A  6ED9               	movwf	fsr2l,c
  1925  003F5C  0EFF               	movlw	255
  1926  003F5E  2004               	addwfc	(??_leer_serial+1)^(0+1280),w,c
  1927  003F60  6EDA               	movwf	fsr2h,c
  1928  003F62  0E0A               	movlw	10
  1929  003F64  18DE               	xorwf	postinc2,w,c
  1930  003F66  A4D8               	btfss	status,2,c
  1931  003F68  EFB8  F01F         	goto	u1241
  1932  003F6C  EFBA  F01F         	goto	u1240
  1933  003F70                     u1241:
  1934  003F70  EF9A  F01F         	goto	l3298
  1935  003F74                     u1240:
  1936  003F74                     
  1937                           ;main.c: 19:     ptrCadena[i-1] = '\0';
  1938  003F74  5006               	movf	leer_serial@i^(0+1280),w,c
  1939  003F76  2401               	addwf	leer_serial@ptrCadena^(0+1280),w,c
  1940  003F78  6E03               	movwf	??_leer_serial^(0+1280),c
  1941  003F7A  5007               	movf	(leer_serial@i+1)^(0+1280),w,c
  1942  003F7C  2002               	addwfc	(leer_serial@ptrCadena+1)^(0+1280),w,c
  1943  003F7E  6E04               	movwf	(??_leer_serial+1)^(0+1280),c
  1944  003F80  0EFF               	movlw	255
  1945  003F82  2403               	addwf	??_leer_serial^(0+1280),w,c
  1946  003F84  6ED9               	movwf	fsr2l,c
  1947  003F86  0EFF               	movlw	255
  1948  003F88  2004               	addwfc	(??_leer_serial+1)^(0+1280),w,c
  1949  003F8A  6EDA               	movwf	fsr2h,c
  1950  003F8C  0E00               	movlw	0
  1951  003F8E  6EDF               	movwf	indf2,c
  1952  003F90  0012               	return		;funcret
  1953  003F92                     __end_of_leer_serial:
  1954                           	callstack 0
  1955                           
  1956 ;; *************** function _getch *****************
  1957 ;; Defined at:
  1958 ;;		line 179 in file "mcc_generated_files/uart1.c"
  1959 ;; Parameters:    Size  Location     Type
  1960 ;;		None
  1961 ;; Auto vars:     Size  Location     Type
  1962 ;;		None
  1963 ;; Return value:  Size  Location     Type
  1964 ;;                  1    wreg      unsigned char 
  1965 ;; Registers used:
  1966 ;;		wreg, status,2, pclath, tosl, cstack
  1967 ;; Tracked objects:
  1968 ;;		On entry : 0/0
  1969 ;;		On exit  : 0/0
  1970 ;;		Unchanged: 0/0
  1971 ;; Data sizes:     COMRAM   BANK5   BANK6   BANK7   BANK8   BANK9  BANK10  BANK11  BANK12  BANK13  BANK14  BANK15  BANK1
      +6  BANK17  BANK18  BANK19  BANK20  BANK21  BANK22  BANK23  BANK24  BANK25  BANK26  BANK27  BANK28  BANK29  BANK30  BANK3
      +1  BANK32  BANK33  BANK34  BANK35  BANK36  BANK37  BANK38  BANK39  BANK40  BANK41  BANK42  BANK43  BANK44  BANK45  BANK4
      +6  BANK47  BANK48  BANK49  BANK50  BANK51  BANK52  BANK53  BANK54
  1972 ;;      Params:         0       0       0       0       0       0       0       0       0       0       0       0       
      +0       0       0       0       0       0       0       0       0       0       0       0       0       0       0       
      +0       0       0       0       0       0       0       0       0       0       0       0       0       0       0       
      +0       0       0       0       0       0       0       0       0
  1973 ;;      Locals:         0       0       0       0       0       0       0       0       0       0       0       0       
      +0       0       0       0       0       0       0       0       0       0       0       0       0       0       0       
      +0       0       0       0       0       0       0       0       0       0       0       0       0       0       0       
      +0       0       0       0       0       0       0       0       0
  1974 ;;      Temps:          0       0       0       0       0       0       0       0       0       0       0       0       
      +0       0       0       0       0       0       0       0       0       0       0       0       0       0       0       
      +0       0       0       0       0       0       0       0       0       0       0       0       0       0       0       
      +0       0       0       0       0       0       0       0       0
  1975 ;;      Totals:         0       0       0       0       0       0       0       0       0       0       0       0       
      +0       0       0       0       0       0       0       0       0       0       0       0       0       0       0       
      +0       0       0       0       0       0       0       0       0       0       0       0       0       0       0       
      +0       0       0       0       0       0       0       0       0
  1976 ;;Total ram usage:        0 bytes
  1977 ;; Hardware stack levels used:    1
  1978 ;; Hardware stack levels required when called:    2
  1979 ;; This function calls:
  1980 ;;		_UART1_Read
  1981 ;; This function is called by:
  1982 ;;		_leer_serial
  1983 ;; This function uses a non-reentrant model
  1984 ;;
  1985                           
  1986                           	psect	text11
  1987  004140                     __ptext11:
  1988                           	callstack 0
  1989  004140                     _getch:
  1990                           	callstack 123
  1991  004140                     
  1992                           ;mcc_generated_files/uart1.c: 181:     return UART1_Read();
  1993  004140  EC4B  F01E         	call	_UART1_Read	;wreg free
  1994  004144  0012               	return		;funcret
  1995  004146                     __end_of_getch:
  1996                           	callstack 0
  1997                           
  1998 ;; *************** function _UART1_Read *****************
  1999 ;; Defined at:
  2000 ;;		line 145 in file "mcc_generated_files/uart1.c"
  2001 ;; Parameters:    Size  Location     Type
  2002 ;;		None
  2003 ;; Auto vars:     Size  Location     Type
  2004 ;;		None
  2005 ;; Return value:  Size  Location     Type
  2006 ;;                  1    wreg      unsigned char 
  2007 ;; Registers used:
  2008 ;;		wreg, status,2, pclath, tosl, cstack
  2009 ;; Tracked objects:
  2010 ;;		On entry : 0/0
  2011 ;;		On exit  : 0/0
  2012 ;;		Unchanged: 0/0
  2013 ;; Data sizes:     COMRAM   BANK5   BANK6   BANK7   BANK8   BANK9  BANK10  BANK11  BANK12  BANK13  BANK14  BANK15  BANK1
      +6  BANK17  BANK18  BANK19  BANK20  BANK21  BANK22  BANK23  BANK24  BANK25  BANK26  BANK27  BANK28  BANK29  BANK30  BANK3
      +1  BANK32  BANK33  BANK34  BANK35  BANK36  BANK37  BANK38  BANK39  BANK40  BANK41  BANK42  BANK43  BANK44  BANK45  BANK4
      +6  BANK47  BANK48  BANK49  BANK50  BANK51  BANK52  BANK53  BANK54
  2014 ;;      Params:         0       0       0       0       0       0       0       0       0       0       0       0       
      +0       0       0       0       0       0       0       0       0       0       0       0       0       0       0       
      +0       0       0       0       0       0       0       0       0       0       0       0       0       0       0       
      +0       0       0       0       0       0       0       0       0
  2015 ;;      Locals:         0       0       0       0       0       0       0       0       0       0       0       0       
      +0       0       0       0       0       0       0       0       0       0       0       0       0       0       0       
      +0       0       0       0       0       0       0       0       0       0       0       0       0       0       0       
      +0       0       0       0       0       0       0       0       0
  2016 ;;      Temps:          0       0       0       0       0       0       0       0       0       0       0       0       
      +0       0       0       0       0       0       0       0       0       0       0       0       0       0       0       
      +0       0       0       0       0       0       0       0       0       0       0       0       0       0       0       
      +0       0       0       0       0       0       0       0       0
  2017 ;;      Totals:         0       0       0       0       0       0       0       0       0       0       0       0       
      +0       0       0       0       0       0       0       0       0       0       0       0       0       0       0       
      +0       0       0       0       0       0       0       0       0       0       0       0       0       0       0       
      +0       0       0       0       0       0       0       0       0
  2018 ;;Total ram usage:        0 bytes
  2019 ;; Hardware stack levels used:    1
  2020 ;; Hardware stack levels required when called:    1
  2021 ;; This function calls:
  2022 ;;		Absolute function
  2023 ;;		_UART1_DefaultErrorHandler
  2024 ;;		_UART1_DefaultFramingErrorHandler
  2025 ;;		_UART1_DefaultOverrunErrorHandler
  2026 ;; This function is called by:
  2027 ;;		_getch
  2028 ;; This function uses a non-reentrant model
  2029 ;;
  2030                           
  2031                           	psect	text12
  2032  003C96                     __ptext12:
  2033                           	callstack 0
  2034  003C96                     _UART1_Read:
  2035                           	callstack 123
  2036  003C96                     l335:
  2037                           
  2038                           ;mcc_generated_files/uart1.c: 147:     while(!PIR4bits.U1RXIF)
  2039  003C96  A0B2               	btfss	178,0,c	;volatile
  2040  003C98  EF50  F01E         	goto	u181
  2041  003C9C  EF52  F01E         	goto	u180
  2042  003CA0                     u181:
  2043  003CA0  EF4B  F01E         	goto	l335
  2044  003CA4                     u180:
  2045  003CA4                     
  2046                           ;mcc_generated_files/uart1.c: 151:     uart1RxLastError.status = 0;
  2047  003CA4  0E00               	movlw	0
  2048  003CA6  6E58               	movwf	_uart1RxLastError^(0+1280),c	;volatile
  2049  003CA8                     
  2050                           ;mcc_generated_files/uart1.c: 153:     if(U1ERRIRbits.FERIF){
  2051  003CA8  0102               	movlb	2	; () banked
  2052  003CAA  A7B2               	btfss	178,3,b	;volatile
  2053  003CAC  EF5A  F01E         	goto	u191
  2054  003CB0  EF5C  F01E         	goto	u190
  2055  003CB4                     u191:
  2056  003CB4  EF6A  F01E         	goto	l2008
  2057  003CB8                     u190:
  2058  003CB8                     
  2059                           ; BSR set to: 2
  2060                           ;mcc_generated_files/uart1.c: 154:         uart1RxLastError.ferr = 1;
  2061  003CB8  8258               	bsf	_uart1RxLastError^(0+1280),1,c	;volatile
  2062  003CBA                     
  2063                           ; BSR set to: 2
  2064                           ;mcc_generated_files/uart1.c: 155:         UART1_FramingErrorHandler();
  2065  003CBA  D802               	call	u208
  2066  003CBC  EF6A  F01E         	goto	u209
  2067  003CC0                     u208:
  2068  003CC0  0005               	push	
  2069  003CC2  6EFA               	movwf	pclath,c
  2070  003CC4  504D               	movf	_UART1_FramingErrorHandler^(0+1280),w,c
  2071  003CC6  6EFD               	movwf	tosl,c
  2072  003CC8  504E               	movf	(_UART1_FramingErrorHandler+1)^(0+1280),w,c
  2073  003CCA  6EFE               	movwf	tosh,c
  2074  003CCC  504F               	movf	(_UART1_FramingErrorHandler+2)^(0+1280),w,c
  2075  003CCE  6EFF               	movwf	tosu,c
  2076  003CD0  50FA               	movf	pclath,w,c
  2077  003CD2  0012               	return		;indir
  2078  003CD4                     u209:
  2079  003CD4                     l2008:
  2080                           
  2081                           ;mcc_generated_files/uart1.c: 158:     if(U1ERRIRbits.RXFOIF){
  2082  003CD4  0102               	movlb	2	; () banked
  2083  003CD6  A3B2               	btfss	178,1,b	;volatile
  2084  003CD8  EF70  F01E         	goto	u211
  2085  003CDC  EF72  F01E         	goto	u210
  2086  003CE0                     u211:
  2087  003CE0  EF80  F01E         	goto	l2014
  2088  003CE4                     u210:
  2089  003CE4                     
  2090                           ; BSR set to: 2
  2091                           ;mcc_generated_files/uart1.c: 159:         uart1RxLastError.oerr = 1;
  2092  003CE4  8458               	bsf	_uart1RxLastError^(0+1280),2,c	;volatile
  2093  003CE6                     
  2094                           ; BSR set to: 2
  2095                           ;mcc_generated_files/uart1.c: 160:         UART1_OverrunErrorHandler();
  2096  003CE6  D802               	call	u228
  2097  003CE8  EF80  F01E         	goto	u229
  2098  003CEC                     u228:
  2099  003CEC  0005               	push	
  2100  003CEE  6EFA               	movwf	pclath,c
  2101  003CF0  504A               	movf	_UART1_OverrunErrorHandler^(0+1280),w,c
  2102  003CF2  6EFD               	movwf	tosl,c
  2103  003CF4  504B               	movf	(_UART1_OverrunErrorHandler+1)^(0+1280),w,c
  2104  003CF6  6EFE               	movwf	tosh,c
  2105  003CF8  504C               	movf	(_UART1_OverrunErrorHandler+2)^(0+1280),w,c
  2106  003CFA  6EFF               	movwf	tosu,c
  2107  003CFC  50FA               	movf	pclath,w,c
  2108  003CFE  0012               	return		;indir
  2109  003D00                     u229:
  2110  003D00                     l2014:
  2111                           
  2112                           ;mcc_generated_files/uart1.c: 163:     if(uart1RxLastError.status){
  2113  003D00  5058               	movf	_uart1RxLastError^(0+1280),w,c	;volatile
  2114  003D02  B4D8               	btfsc	status,2,c
  2115  003D04  EF86  F01E         	goto	u231
  2116  003D08  EF88  F01E         	goto	u230
  2117  003D0C                     u231:
  2118  003D0C  EF95  F01E         	goto	l2018
  2119  003D10                     u230:
  2120  003D10                     
  2121                           ;mcc_generated_files/uart1.c: 164:         UART1_ErrorHandler();
  2122  003D10  D802               	call	u248
  2123  003D12  EF95  F01E         	goto	u249
  2124  003D16                     u248:
  2125  003D16  0005               	push	
  2126  003D18  6EFA               	movwf	pclath,c
  2127  003D1A  5047               	movf	_UART1_ErrorHandler^(0+1280),w,c
  2128  003D1C  6EFD               	movwf	tosl,c
  2129  003D1E  5048               	movf	(_UART1_ErrorHandler+1)^(0+1280),w,c
  2130  003D20  6EFE               	movwf	tosh,c
  2131  003D22  5049               	movf	(_UART1_ErrorHandler+2)^(0+1280),w,c
  2132  003D24  6EFF               	movwf	tosu,c
  2133  003D26  50FA               	movf	pclath,w,c
  2134  003D28  0012               	return		;indir
  2135  003D2A                     u249:
  2136  003D2A                     l2018:
  2137                           
  2138                           ;mcc_generated_files/uart1.c: 167:     return U1RXB;
  2139  003D2A  0102               	movlb	2	; () banked
  2140  003D2C  51A1               	movf	161,w,b	;volatile
  2141  003D2E                     
  2142                           ; BSR set to: 2
  2143  003D2E  0012               	return		;funcret
  2144  003D30                     __end_of_UART1_Read:
  2145                           	callstack 0
  2146                           
  2147 ;; *************** function _UART1_DefaultOverrunErrorHandler *****************
  2148 ;; Defined at:
  2149 ;;		line 195 in file "mcc_generated_files/uart1.c"
  2150 ;; Parameters:    Size  Location     Type
  2151 ;;		None
  2152 ;; Auto vars:     Size  Location     Type
  2153 ;;		None
  2154 ;; Return value:  Size  Location     Type
  2155 ;;                  1    wreg      void 
  2156 ;; Registers used:
  2157 ;;		None
  2158 ;; Tracked objects:
  2159 ;;		On entry : 0/0
  2160 ;;		On exit  : 0/0
  2161 ;;		Unchanged: 0/0
  2162 ;; Data sizes:     COMRAM   BANK5   BANK6   BANK7   BANK8   BANK9  BANK10  BANK11  BANK12  BANK13  BANK14  BANK15  BANK1
      +6  BANK17  BANK18  BANK19  BANK20  BANK21  BANK22  BANK23  BANK24  BANK25  BANK26  BANK27  BANK28  BANK29  BANK30  BANK3
      +1  BANK32  BANK33  BANK34  BANK35  BANK36  BANK37  BANK38  BANK39  BANK40  BANK41  BANK42  BANK43  BANK44  BANK45  BANK4
      +6  BANK47  BANK48  BANK49  BANK50  BANK51  BANK52  BANK53  BANK54
  2163 ;;      Params:         0       0       0       0       0       0       0       0       0       0       0       0       
      +0       0       0       0       0       0       0       0       0       0       0       0       0       0       0       
      +0       0       0       0       0       0       0       0       0       0       0       0       0       0       0       
      +0       0       0       0       0       0       0       0       0
  2164 ;;      Locals:         0       0       0       0       0       0       0       0       0       0       0       0       
      +0       0       0       0       0       0       0       0       0       0       0       0       0       0       0       
      +0       0       0       0       0       0       0       0       0       0       0       0       0       0       0       
      +0       0       0       0       0       0       0       0       0
  2165 ;;      Temps:          0       0       0       0       0       0       0       0       0       0       0       0       
      +0       0       0       0       0       0       0       0       0       0       0       0       0       0       0       
      +0       0       0       0       0       0       0       0       0       0       0       0       0       0       0       
      +0       0       0       0       0       0       0       0       0
  2166 ;;      Totals:         0       0       0       0       0       0       0       0       0       0       0       0       
      +0       0       0       0       0       0       0       0       0       0       0       0       0       0       0       
      +0       0       0       0       0       0       0       0       0       0       0       0       0       0       0       
      +0       0       0       0       0       0       0       0       0
  2167 ;;Total ram usage:        0 bytes
  2168 ;; Hardware stack levels used:    1
  2169 ;; This function calls:
  2170 ;;		Nothing
  2171 ;; This function is called by:
  2172 ;;		_UART1_Initialize
  2173 ;;		_UART1_Read
  2174 ;; This function uses a non-reentrant model
  2175 ;;
  2176                           
  2177                           	psect	text13
  2178  004146                     __ptext13:
  2179                           	callstack 0
  2180  004146                     _UART1_DefaultOverrunErrorHandler:
  2181                           	callstack 123
  2182  004146  0012               	return		;funcret
  2183  004148                     __end_of_UART1_DefaultOverrunErrorHandler:
  2184                           	callstack 0
  2185                           
  2186 ;; *************** function _UART1_DefaultFramingErrorHandler *****************
  2187 ;; Defined at:
  2188 ;;		line 193 in file "mcc_generated_files/uart1.c"
  2189 ;; Parameters:    Size  Location     Type
  2190 ;;		None
  2191 ;; Auto vars:     Size  Location     Type
  2192 ;;		None
  2193 ;; Return value:  Size  Location     Type
  2194 ;;                  1    wreg      void 
  2195 ;; Registers used:
  2196 ;;		None
  2197 ;; Tracked objects:
  2198 ;;		On entry : 0/0
  2199 ;;		On exit  : 0/0
  2200 ;;		Unchanged: 0/0
  2201 ;; Data sizes:     COMRAM   BANK5   BANK6   BANK7   BANK8   BANK9  BANK10  BANK11  BANK12  BANK13  BANK14  BANK15  BANK1
      +6  BANK17  BANK18  BANK19  BANK20  BANK21  BANK22  BANK23  BANK24  BANK25  BANK26  BANK27  BANK28  BANK29  BANK30  BANK3
      +1  BANK32  BANK33  BANK34  BANK35  BANK36  BANK37  BANK38  BANK39  BANK40  BANK41  BANK42  BANK43  BANK44  BANK45  BANK4
      +6  BANK47  BANK48  BANK49  BANK50  BANK51  BANK52  BANK53  BANK54
  2202 ;;      Params:         0       0       0       0       0       0       0       0       0       0       0       0       
      +0       0       0       0       0       0       0       0       0       0       0       0       0       0       0       
      +0       0       0       0       0       0       0       0       0       0       0       0       0       0       0       
      +0       0       0       0       0       0       0       0       0
  2203 ;;      Locals:         0       0       0       0       0       0       0       0       0       0       0       0       
      +0       0       0       0       0       0       0       0       0       0       0       0       0       0       0       
      +0       0       0       0       0       0       0       0       0       0       0       0       0       0       0       
      +0       0       0       0       0       0       0       0       0
  2204 ;;      Temps:          0       0       0       0       0       0       0       0       0       0       0       0       
      +0       0       0       0       0       0       0       0       0       0       0       0       0       0       0       
      +0       0       0       0       0       0       0       0       0       0       0       0       0       0       0       
      +0       0       0       0       0       0       0       0       0
  2205 ;;      Totals:         0       0       0       0       0       0       0       0       0       0       0       0       
      +0       0       0       0       0       0       0       0       0       0       0       0       0       0       0       
      +0       0       0       0       0       0       0       0       0       0       0       0       0       0       0       
      +0       0       0       0       0       0       0       0       0
  2206 ;;Total ram usage:        0 bytes
  2207 ;; Hardware stack levels used:    1
  2208 ;; This function calls:
  2209 ;;		Nothing
  2210 ;; This function is called by:
  2211 ;;		_UART1_Initialize
  2212 ;;		_UART1_Read
  2213 ;; This function uses a non-reentrant model
  2214 ;;
  2215                           
  2216                           	psect	text14
  2217  004148                     __ptext14:
  2218                           	callstack 0
  2219  004148                     _UART1_DefaultFramingErrorHandler:
  2220                           	callstack 123
  2221  004148  0012               	return		;funcret
  2222  00414A                     __end_of_UART1_DefaultFramingErrorHandler:
  2223                           	callstack 0
  2224                           
  2225 ;; *************** function _UART1_DefaultErrorHandler *****************
  2226 ;; Defined at:
  2227 ;;		line 197 in file "mcc_generated_files/uart1.c"
  2228 ;; Parameters:    Size  Location     Type
  2229 ;;		None
  2230 ;; Auto vars:     Size  Location     Type
  2231 ;;		None
  2232 ;; Return value:  Size  Location     Type
  2233 ;;                  1    wreg      void 
  2234 ;; Registers used:
  2235 ;;		None
  2236 ;; Tracked objects:
  2237 ;;		On entry : 0/0
  2238 ;;		On exit  : 0/0
  2239 ;;		Unchanged: 0/0
  2240 ;; Data sizes:     COMRAM   BANK5   BANK6   BANK7   BANK8   BANK9  BANK10  BANK11  BANK12  BANK13  BANK14  BANK15  BANK1
      +6  BANK17  BANK18  BANK19  BANK20  BANK21  BANK22  BANK23  BANK24  BANK25  BANK26  BANK27  BANK28  BANK29  BANK30  BANK3
      +1  BANK32  BANK33  BANK34  BANK35  BANK36  BANK37  BANK38  BANK39  BANK40  BANK41  BANK42  BANK43  BANK44  BANK45  BANK4
      +6  BANK47  BANK48  BANK49  BANK50  BANK51  BANK52  BANK53  BANK54
  2241 ;;      Params:         0       0       0       0       0       0       0       0       0       0       0       0       
      +0       0       0       0       0       0       0       0       0       0       0       0       0       0       0       
      +0       0       0       0       0       0       0       0       0       0       0       0       0       0       0       
      +0       0       0       0       0       0       0       0       0
  2242 ;;      Locals:         0       0       0       0       0       0       0       0       0       0       0       0       
      +0       0       0       0       0       0       0       0       0       0       0       0       0       0       0       
      +0       0       0       0       0       0       0       0       0       0       0       0       0       0       0       
      +0       0       0       0       0       0       0       0       0
  2243 ;;      Temps:          0       0       0       0       0       0       0       0       0       0       0       0       
      +0       0       0       0       0       0       0       0       0       0       0       0       0       0       0       
      +0       0       0       0       0       0       0       0       0       0       0       0       0       0       0       
      +0       0       0       0       0       0       0       0       0
  2244 ;;      Totals:         0       0       0       0       0       0       0       0       0       0       0       0       
      +0       0       0       0       0       0       0       0       0       0       0       0       0       0       0       
      +0       0       0       0       0       0       0       0       0       0       0       0       0       0       0       
      +0       0       0       0       0       0       0       0       0
  2245 ;;Total ram usage:        0 bytes
  2246 ;; Hardware stack levels used:    1
  2247 ;; This function calls:
  2248 ;;		Nothing
  2249 ;; This function is called by:
  2250 ;;		_UART1_Initialize
  2251 ;;		_UART1_Read
  2252 ;; This function uses a non-reentrant model
  2253 ;;
  2254                           
  2255                           	psect	text15
  2256  00414A                     __ptext15:
  2257                           	callstack 0
  2258  00414A                     _UART1_DefaultErrorHandler:
  2259                           	callstack 123
  2260  00414A  0012               	return		;funcret
  2261  00414C                     __end_of_UART1_DefaultErrorHandler:
  2262                           	callstack 0
  2263                           
  2264 ;; *************** function _SYSTEM_Initialize *****************
  2265 ;; Defined at:
  2266 ;;		line 50 in file "mcc_generated_files/mcc.c"
  2267 ;; Parameters:    Size  Location     Type
  2268 ;;		None
  2269 ;; Auto vars:     Size  Location     Type
  2270 ;;		None
  2271 ;; Return value:  Size  Location     Type
  2272 ;;                  1    wreg      void 
  2273 ;; Registers used:
  2274 ;;		wreg, status,2, status,0, cstack
  2275 ;; Tracked objects:
  2276 ;;		On entry : 0/0
  2277 ;;		On exit  : 0/0
  2278 ;;		Unchanged: 0/0
  2279 ;; Data sizes:     COMRAM   BANK5   BANK6   BANK7   BANK8   BANK9  BANK10  BANK11  BANK12  BANK13  BANK14  BANK15  BANK1
      +6  BANK17  BANK18  BANK19  BANK20  BANK21  BANK22  BANK23  BANK24  BANK25  BANK26  BANK27  BANK28  BANK29  BANK30  BANK3
      +1  BANK32  BANK33  BANK34  BANK35  BANK36  BANK37  BANK38  BANK39  BANK40  BANK41  BANK42  BANK43  BANK44  BANK45  BANK4
      +6  BANK47  BANK48  BANK49  BANK50  BANK51  BANK52  BANK53  BANK54
  2280 ;;      Params:         0       0       0       0       0       0       0       0       0       0       0       0       
      +0       0       0       0       0       0       0       0       0       0       0       0       0       0       0       
      +0       0       0       0       0       0       0       0       0       0       0       0       0       0       0       
      +0       0       0       0       0       0       0       0       0
  2281 ;;      Locals:         0       0       0       0       0       0       0       0       0       0       0       0       
      +0       0       0       0       0       0       0       0       0       0       0       0       0       0       0       
      +0       0       0       0       0       0       0       0       0       0       0       0       0       0       0       
      +0       0       0       0       0       0       0       0       0
  2282 ;;      Temps:          0       0       0       0       0       0       0       0       0       0       0       0       
      +0       0       0       0       0       0       0       0       0       0       0       0       0       0       0       
      +0       0       0       0       0       0       0       0       0       0       0       0       0       0       0       
      +0       0       0       0       0       0       0       0       0
  2283 ;;      Totals:         0       0       0       0       0       0       0       0       0       0       0       0       
      +0       0       0       0       0       0       0       0       0       0       0       0       0       0       0       
      +0       0       0       0       0       0       0       0       0       0       0       0       0       0       0       
      +0       0       0       0       0       0       0       0       0
  2284 ;;Total ram usage:        0 bytes
  2285 ;; Hardware stack levels used:    1
  2286 ;; Hardware stack levels required when called:    2
  2287 ;; This function calls:
  2288 ;;		_ADC_Initialize
  2289 ;;		_I2C1_Initialize
  2290 ;;		_OSCILLATOR_Initialize
  2291 ;;		_PIN_MANAGER_Initialize
  2292 ;;		_PMD_Initialize
  2293 ;;		_UART1_Initialize
  2294 ;; This function is called by:
  2295 ;;		_main
  2296 ;; This function uses a non-reentrant model
  2297 ;;
  2298                           
  2299                           	psect	text16
  2300  004090                     __ptext16:
  2301                           	callstack 0
  2302  004090                     _SYSTEM_Initialize:
  2303                           	callstack 124
  2304  004090                     
  2305                           ;mcc_generated_files/mcc.c: 52:     PMD_Initialize();
  2306  004090  EC21  F020         	call	_PMD_Initialize	;wreg free
  2307                           
  2308                           ;mcc_generated_files/mcc.c: 53:     I2C1_Initialize();
  2309  004094  EC0B  F020         	call	_I2C1_Initialize	;wreg free
  2310                           
  2311                           ;mcc_generated_files/mcc.c: 54:     PIN_MANAGER_Initialize();
  2312  004098  ECF6  F01D         	call	_PIN_MANAGER_Initialize	;wreg free
  2313  00409C                     
  2314                           ;mcc_generated_files/mcc.c: 55:     ADC_Initialize();
  2315  00409C  EC9A  F01D         	call	_ADC_Initialize	;wreg free
  2316  0040A0                     
  2317                           ;mcc_generated_files/mcc.c: 56:     OSCILLATOR_Initialize();
  2318  0040A0  EC61  F020         	call	_OSCILLATOR_Initialize	;wreg free
  2319                           
  2320                           ;mcc_generated_files/mcc.c: 57:     UART1_Initialize();
  2321  0040A4  EC29  F01F         	call	_UART1_Initialize	;wreg free
  2322  0040A8  0012               	return		;funcret
  2323  0040AA                     __end_of_SYSTEM_Initialize:
  2324                           	callstack 0
  2325                           
  2326 ;; *************** function _UART1_Initialize *****************
  2327 ;; Defined at:
  2328 ;;		line 66 in file "mcc_generated_files/uart1.c"
  2329 ;; Parameters:    Size  Location     Type
  2330 ;;		None
  2331 ;; Auto vars:     Size  Location     Type
  2332 ;;		None
  2333 ;; Return value:  Size  Location     Type
  2334 ;;                  1    wreg      void 
  2335 ;; Registers used:
  2336 ;;		wreg, status,2, status,0, cstack
  2337 ;; Tracked objects:
  2338 ;;		On entry : 0/0
  2339 ;;		On exit  : 0/0
  2340 ;;		Unchanged: 0/0
  2341 ;; Data sizes:     COMRAM   BANK5   BANK6   BANK7   BANK8   BANK9  BANK10  BANK11  BANK12  BANK13  BANK14  BANK15  BANK1
      +6  BANK17  BANK18  BANK19  BANK20  BANK21  BANK22  BANK23  BANK24  BANK25  BANK26  BANK27  BANK28  BANK29  BANK30  BANK3
      +1  BANK32  BANK33  BANK34  BANK35  BANK36  BANK37  BANK38  BANK39  BANK40  BANK41  BANK42  BANK43  BANK44  BANK45  BANK4
      +6  BANK47  BANK48  BANK49  BANK50  BANK51  BANK52  BANK53  BANK54
  2342 ;;      Params:         0       0       0       0       0       0       0       0       0       0       0       0       
      +0       0       0       0       0       0       0       0       0       0       0       0       0       0       0       
      +0       0       0       0       0       0       0       0       0       0       0       0       0       0       0       
      +0       0       0       0       0       0       0       0       0
  2343 ;;      Locals:         0       0       0       0       0       0       0       0       0       0       0       0       
      +0       0       0       0       0       0       0       0       0       0       0       0       0       0       0       
      +0       0       0       0       0       0       0       0       0       0       0       0       0       0       0       
      +0       0       0       0       0       0       0       0       0
  2344 ;;      Temps:          0       0       0       0       0       0       0       0       0       0       0       0       
      +0       0       0       0       0       0       0       0       0       0       0       0       0       0       0       
      +0       0       0       0       0       0       0       0       0       0       0       0       0       0       0       
      +0       0       0       0       0       0       0       0       0
  2345 ;;      Totals:         0       0       0       0       0       0       0       0       0       0       0       0       
      +0       0       0       0       0       0       0       0       0       0       0       0       0       0       0       
      +0       0       0       0       0       0       0       0       0       0       0       0       0       0       0       
      +0       0       0       0       0       0       0       0       0
  2346 ;;Total ram usage:        0 bytes
  2347 ;; Hardware stack levels used:    1
  2348 ;; Hardware stack levels required when called:    1
  2349 ;; This function calls:
  2350 ;;		_UART1_SetErrorHandler
  2351 ;;		_UART1_SetFramingErrorHandler
  2352 ;;		_UART1_SetOverrunErrorHandler
  2353 ;; This function is called by:
  2354 ;;		_SYSTEM_Initialize
  2355 ;; This function uses a non-reentrant model
  2356 ;;
  2357                           
  2358                           	psect	text17
  2359  003E52                     __ptext17:
  2360                           	callstack 0
  2361  003E52                     _UART1_Initialize:
  2362                           	callstack 124
  2363  003E52                     
  2364                           ;mcc_generated_files/uart1.c: 73:     U1P1L = 0x00;
  2365  003E52  0E00               	movlw	0
  2366  003E54  0102               	movlb	2	; () banked
  2367  003E56  6FA5               	movwf	165,b	;volatile
  2368                           
  2369                           ;mcc_generated_files/uart1.c: 76:     U1P1H = 0x00;
  2370  003E58  0E00               	movlw	0
  2371  003E5A  6FA6               	movwf	166,b	;volatile
  2372                           
  2373                           ;mcc_generated_files/uart1.c: 79:     U1P2L = 0x00;
  2374  003E5C  0E00               	movlw	0
  2375  003E5E  6FA7               	movwf	167,b	;volatile
  2376                           
  2377                           ;mcc_generated_files/uart1.c: 82:     U1P2H = 0x00;
  2378  003E60  0E00               	movlw	0
  2379  003E62  6FA8               	movwf	168,b	;volatile
  2380                           
  2381                           ;mcc_generated_files/uart1.c: 85:     U1P3L = 0x00;
  2382  003E64  0E00               	movlw	0
  2383  003E66  6FA9               	movwf	169,b	;volatile
  2384                           
  2385                           ;mcc_generated_files/uart1.c: 88:     U1P3H = 0x00;
  2386  003E68  0E00               	movlw	0
  2387  003E6A  6FAA               	movwf	170,b	;volatile
  2388                           
  2389                           ;mcc_generated_files/uart1.c: 91:     U1CON0 = 0xB0;
  2390  003E6C  0EB0               	movlw	176
  2391  003E6E  6FAB               	movwf	171,b	;volatile
  2392                           
  2393                           ;mcc_generated_files/uart1.c: 94:     U1CON1 = 0x80;
  2394  003E70  0E80               	movlw	128
  2395  003E72  6FAC               	movwf	172,b	;volatile
  2396                           
  2397                           ;mcc_generated_files/uart1.c: 97:     U1CON2 = 0x00;
  2398  003E74  0E00               	movlw	0
  2399  003E76  6FAD               	movwf	173,b	;volatile
  2400                           
  2401                           ;mcc_generated_files/uart1.c: 100:     U1BRGL = 0x03;
  2402  003E78  0E03               	movlw	3
  2403  003E7A  6FAE               	movwf	174,b	;volatile
  2404                           
  2405                           ;mcc_generated_files/uart1.c: 103:     U1BRGH = 0x01;
  2406  003E7C  0E01               	movlw	1
  2407  003E7E  6FAF               	movwf	175,b	;volatile
  2408                           
  2409                           ;mcc_generated_files/uart1.c: 106:     U1FIFO = 0x00;
  2410  003E80  0E00               	movlw	0
  2411  003E82  6FB0               	movwf	176,b	;volatile
  2412                           
  2413                           ;mcc_generated_files/uart1.c: 109:     U1UIR = 0x00;
  2414  003E84  0E00               	movlw	0
  2415  003E86  6FB1               	movwf	177,b	;volatile
  2416                           
  2417                           ;mcc_generated_files/uart1.c: 112:     U1ERRIR = 0x00;
  2418  003E88  0E00               	movlw	0
  2419  003E8A  6FB2               	movwf	178,b	;volatile
  2420                           
  2421                           ;mcc_generated_files/uart1.c: 115:     U1ERRIE = 0x00;
  2422  003E8C  0E00               	movlw	0
  2423  003E8E  6FB3               	movwf	179,b	;volatile
  2424  003E90                     
  2425                           ; BSR set to: 2
  2426                           ;mcc_generated_files/uart1.c: 118:     UART1_SetFramingErrorHandler(UART1_DefaultFraming
      +                          ErrorHandler);
  2427  003E90  0E48               	movlw	low _UART1_DefaultFramingErrorHandler
  2428  003E92  6E01               	movwf	UART1_SetFramingErrorHandler@interruptHandler^(0+1280),c
  2429  003E94  0E41               	movlw	high _UART1_DefaultFramingErrorHandler
  2430  003E96  6E02               	movwf	(UART1_SetFramingErrorHandler@interruptHandler+1)^(0+1280),c
  2431  003E98  0E00               	movlw	low (_UART1_DefaultFramingErrorHandler shr (0+16))
  2432  003E9A  6E03               	movwf	(UART1_SetFramingErrorHandler@interruptHandler+2)^(0+1280),c
  2433  003E9C  EC74  F020         	call	_UART1_SetFramingErrorHandler	;wreg free
  2434  003EA0                     
  2435                           ;mcc_generated_files/uart1.c: 119:     UART1_SetOverrunErrorHandler(UART1_DefaultOverrun
      +                          ErrorHandler);
  2436  003EA0  0E46               	movlw	low _UART1_DefaultOverrunErrorHandler
  2437  003EA2  6E01               	movwf	UART1_SetOverrunErrorHandler@interruptHandler^(0+1280),c
  2438  003EA4  0E41               	movlw	high _UART1_DefaultOverrunErrorHandler
  2439  003EA6  6E02               	movwf	(UART1_SetOverrunErrorHandler@interruptHandler+1)^(0+1280),c
  2440  003EA8  0E00               	movlw	low (_UART1_DefaultOverrunErrorHandler shr (0+16))
  2441  003EAA  6E03               	movwf	(UART1_SetOverrunErrorHandler@interruptHandler+2)^(0+1280),c
  2442  003EAC  EC6D  F020         	call	_UART1_SetOverrunErrorHandler	;wreg free
  2443  003EB0                     
  2444                           ;mcc_generated_files/uart1.c: 120:     UART1_SetErrorHandler(UART1_DefaultErrorHandler);
  2445  003EB0  0E4A               	movlw	low _UART1_DefaultErrorHandler
  2446  003EB2  6E01               	movwf	UART1_SetErrorHandler@interruptHandler^(0+1280),c
  2447  003EB4  0E41               	movlw	high _UART1_DefaultErrorHandler
  2448  003EB6  6E02               	movwf	(UART1_SetErrorHandler@interruptHandler+1)^(0+1280),c
  2449  003EB8  0E00               	movlw	low (_UART1_DefaultErrorHandler shr (0+16))
  2450  003EBA  6E03               	movwf	(UART1_SetErrorHandler@interruptHandler+2)^(0+1280),c
  2451  003EBC  EC7B  F020         	call	_UART1_SetErrorHandler	;wreg free
  2452  003EC0                     
  2453                           ;mcc_generated_files/uart1.c: 122:     uart1RxLastError.status = 0;
  2454  003EC0  0E00               	movlw	0
  2455  003EC2  6E58               	movwf	_uart1RxLastError^(0+1280),c	;volatile
  2456  003EC4  0012               	return		;funcret
  2457  003EC6                     __end_of_UART1_Initialize:
  2458                           	callstack 0
  2459                           
  2460 ;; *************** function _UART1_SetOverrunErrorHandler *****************
  2461 ;; Defined at:
  2462 ;;		line 204 in file "mcc_generated_files/uart1.c"
  2463 ;; Parameters:    Size  Location     Type
  2464 ;;  interruptHan    3    0[COMRAM] PTR FTN()void 
  2465 ;;		 -> UART1_DefaultOverrunErrorHandler(1), 
  2466 ;; Auto vars:     Size  Location     Type
  2467 ;;		None
  2468 ;; Return value:  Size  Location     Type
  2469 ;;                  1    wreg      void 
  2470 ;; Registers used:
  2471 ;;		wreg, status,2, status,0
  2472 ;; Tracked objects:
  2473 ;;		On entry : 0/0
  2474 ;;		On exit  : 0/0
  2475 ;;		Unchanged: 0/0
  2476 ;; Data sizes:     COMRAM   BANK5   BANK6   BANK7   BANK8   BANK9  BANK10  BANK11  BANK12  BANK13  BANK14  BANK15  BANK1
      +6  BANK17  BANK18  BANK19  BANK20  BANK21  BANK22  BANK23  BANK24  BANK25  BANK26  BANK27  BANK28  BANK29  BANK30  BANK3
      +1  BANK32  BANK33  BANK34  BANK35  BANK36  BANK37  BANK38  BANK39  BANK40  BANK41  BANK42  BANK43  BANK44  BANK45  BANK4
      +6  BANK47  BANK48  BANK49  BANK50  BANK51  BANK52  BANK53  BANK54
  2477 ;;      Params:         3       0       0       0       0       0       0       0       0       0       0       0       
      +0       0       0       0       0       0       0       0       0       0       0       0       0       0       0       
      +0       0       0       0       0       0       0       0       0       0       0       0       0       0       0       
      +0       0       0       0       0       0       0       0       0
  2478 ;;      Locals:         0       0       0       0       0       0       0       0       0       0       0       0       
      +0       0       0       0       0       0       0       0       0       0       0       0       0       0       0       
      +0       0       0       0       0       0       0       0       0       0       0       0       0       0       0       
      +0       0       0       0       0       0       0       0       0
  2479 ;;      Temps:          0       0       0       0       0       0       0       0       0       0       0       0       
      +0       0       0       0       0       0       0       0       0       0       0       0       0       0       0       
      +0       0       0       0       0       0       0       0       0       0       0       0       0       0       0       
      +0       0       0       0       0       0       0       0       0
  2480 ;;      Totals:         3       0       0       0       0       0       0       0       0       0       0       0       
      +0       0       0       0       0       0       0       0       0       0       0       0       0       0       0       
      +0       0       0       0       0       0       0       0       0       0       0       0       0       0       0       
      +0       0       0       0       0       0       0       0       0
  2481 ;;Total ram usage:        3 bytes
  2482 ;; Hardware stack levels used:    1
  2483 ;; This function calls:
  2484 ;;		Nothing
  2485 ;; This function is called by:
  2486 ;;		_UART1_Initialize
  2487 ;; This function uses a non-reentrant model
  2488 ;;
  2489                           
  2490                           	psect	text18
  2491  0040DA                     __ptext18:
  2492                           	callstack 0
  2493  0040DA                     _UART1_SetOverrunErrorHandler:
  2494                           	callstack 124
  2495  0040DA                     
  2496                           ;mcc_generated_files/uart1.c: 205:     UART1_OverrunErrorHandler = interruptHandler;
  2497  0040DA  C501  F54A         	movff	UART1_SetOverrunErrorHandler@interruptHandler,_UART1_OverrunErrorHandler
  2498  0040DE  C502  F54B         	movff	UART1_SetOverrunErrorHandler@interruptHandler+1,_UART1_OverrunErrorHandler+1
  2499  0040E2  C503  F54C         	movff	UART1_SetOverrunErrorHandler@interruptHandler+2,_UART1_OverrunErrorHandler+2
  2500  0040E6  0012               	return		;funcret
  2501  0040E8                     __end_of_UART1_SetOverrunErrorHandler:
  2502                           	callstack 0
  2503                           
  2504 ;; *************** function _UART1_SetFramingErrorHandler *****************
  2505 ;; Defined at:
  2506 ;;		line 200 in file "mcc_generated_files/uart1.c"
  2507 ;; Parameters:    Size  Location     Type
  2508 ;;  interruptHan    3    0[COMRAM] PTR FTN()void 
  2509 ;;		 -> UART1_DefaultFramingErrorHandler(1), 
  2510 ;; Auto vars:     Size  Location     Type
  2511 ;;		None
  2512 ;; Return value:  Size  Location     Type
  2513 ;;                  1    wreg      void 
  2514 ;; Registers used:
  2515 ;;		wreg, status,2, status,0
  2516 ;; Tracked objects:
  2517 ;;		On entry : 0/0
  2518 ;;		On exit  : 0/0
  2519 ;;		Unchanged: 0/0
  2520 ;; Data sizes:     COMRAM   BANK5   BANK6   BANK7   BANK8   BANK9  BANK10  BANK11  BANK12  BANK13  BANK14  BANK15  BANK1
      +6  BANK17  BANK18  BANK19  BANK20  BANK21  BANK22  BANK23  BANK24  BANK25  BANK26  BANK27  BANK28  BANK29  BANK30  BANK3
      +1  BANK32  BANK33  BANK34  BANK35  BANK36  BANK37  BANK38  BANK39  BANK40  BANK41  BANK42  BANK43  BANK44  BANK45  BANK4
      +6  BANK47  BANK48  BANK49  BANK50  BANK51  BANK52  BANK53  BANK54
  2521 ;;      Params:         3       0       0       0       0       0       0       0       0       0       0       0       
      +0       0       0       0       0       0       0       0       0       0       0       0       0       0       0       
      +0       0       0       0       0       0       0       0       0       0       0       0       0       0       0       
      +0       0       0       0       0       0       0       0       0
  2522 ;;      Locals:         0       0       0       0       0       0       0       0       0       0       0       0       
      +0       0       0       0       0       0       0       0       0       0       0       0       0       0       0       
      +0       0       0       0       0       0       0       0       0       0       0       0       0       0       0       
      +0       0       0       0       0       0       0       0       0
  2523 ;;      Temps:          0       0       0       0       0       0       0       0       0       0       0       0       
      +0       0       0       0       0       0       0       0       0       0       0       0       0       0       0       
      +0       0       0       0       0       0       0       0       0       0       0       0       0       0       0       
      +0       0       0       0       0       0       0       0       0
  2524 ;;      Totals:         3       0       0       0       0       0       0       0       0       0       0       0       
      +0       0       0       0       0       0       0       0       0       0       0       0       0       0       0       
      +0       0       0       0       0       0       0       0       0       0       0       0       0       0       0       
      +0       0       0       0       0       0       0       0       0
  2525 ;;Total ram usage:        3 bytes
  2526 ;; Hardware stack levels used:    1
  2527 ;; This function calls:
  2528 ;;		Nothing
  2529 ;; This function is called by:
  2530 ;;		_UART1_Initialize
  2531 ;; This function uses a non-reentrant model
  2532 ;;
  2533                           
  2534                           	psect	text19
  2535  0040E8                     __ptext19:
  2536                           	callstack 0
  2537  0040E8                     _UART1_SetFramingErrorHandler:
  2538                           	callstack 124
  2539  0040E8                     
  2540                           ;mcc_generated_files/uart1.c: 201:     UART1_FramingErrorHandler = interruptHandler;
  2541  0040E8  C501  F54D         	movff	UART1_SetFramingErrorHandler@interruptHandler,_UART1_FramingErrorHandler
  2542  0040EC  C502  F54E         	movff	UART1_SetFramingErrorHandler@interruptHandler+1,_UART1_FramingErrorHandler+1
  2543  0040F0  C503  F54F         	movff	UART1_SetFramingErrorHandler@interruptHandler+2,_UART1_FramingErrorHandler+2
  2544  0040F4  0012               	return		;funcret
  2545  0040F6                     __end_of_UART1_SetFramingErrorHandler:
  2546                           	callstack 0
  2547                           
  2548 ;; *************** function _UART1_SetErrorHandler *****************
  2549 ;; Defined at:
  2550 ;;		line 208 in file "mcc_generated_files/uart1.c"
  2551 ;; Parameters:    Size  Location     Type
  2552 ;;  interruptHan    3    0[COMRAM] PTR FTN()void 
  2553 ;;		 -> UART1_DefaultErrorHandler(1), 
  2554 ;; Auto vars:     Size  Location     Type
  2555 ;;		None
  2556 ;; Return value:  Size  Location     Type
  2557 ;;                  1    wreg      void 
  2558 ;; Registers used:
  2559 ;;		wreg, status,2, status,0
  2560 ;; Tracked objects:
  2561 ;;		On entry : 0/0
  2562 ;;		On exit  : 0/0
  2563 ;;		Unchanged: 0/0
  2564 ;; Data sizes:     COMRAM   BANK5   BANK6   BANK7   BANK8   BANK9  BANK10  BANK11  BANK12  BANK13  BANK14  BANK15  BANK1
      +6  BANK17  BANK18  BANK19  BANK20  BANK21  BANK22  BANK23  BANK24  BANK25  BANK26  BANK27  BANK28  BANK29  BANK30  BANK3
      +1  BANK32  BANK33  BANK34  BANK35  BANK36  BANK37  BANK38  BANK39  BANK40  BANK41  BANK42  BANK43  BANK44  BANK45  BANK4
      +6  BANK47  BANK48  BANK49  BANK50  BANK51  BANK52  BANK53  BANK54
  2565 ;;      Params:         3       0       0       0       0       0       0       0       0       0       0       0       
      +0       0       0       0       0       0       0       0       0       0       0       0       0       0       0       
      +0       0       0       0       0       0       0       0       0       0       0       0       0       0       0       
      +0       0       0       0       0       0       0       0       0
  2566 ;;      Locals:         0       0       0       0       0       0       0       0       0       0       0       0       
      +0       0       0       0       0       0       0       0       0       0       0       0       0       0       0       
      +0       0       0       0       0       0       0       0       0       0       0       0       0       0       0       
      +0       0       0       0       0       0       0       0       0
  2567 ;;      Temps:          0       0       0       0       0       0       0       0       0       0       0       0       
      +0       0       0       0       0       0       0       0       0       0       0       0       0       0       0       
      +0       0       0       0       0       0       0       0       0       0       0       0       0       0       0       
      +0       0       0       0       0       0       0       0       0
  2568 ;;      Totals:         3       0       0       0       0       0       0       0       0       0       0       0       
      +0       0       0       0       0       0       0       0       0       0       0       0       0       0       0       
      +0       0       0       0       0       0       0       0       0       0       0       0       0       0       0       
      +0       0       0       0       0       0       0       0       0
  2569 ;;Total ram usage:        3 bytes
  2570 ;; Hardware stack levels used:    1
  2571 ;; This function calls:
  2572 ;;		Nothing
  2573 ;; This function is called by:
  2574 ;;		_UART1_Initialize
  2575 ;; This function uses a non-reentrant model
  2576 ;;
  2577                           
  2578                           	psect	text20
  2579  0040F6                     __ptext20:
  2580                           	callstack 0
  2581  0040F6                     _UART1_SetErrorHandler:
  2582                           	callstack 124
  2583  0040F6                     
  2584                           ;mcc_generated_files/uart1.c: 209:     UART1_ErrorHandler = interruptHandler;
  2585  0040F6  C501  F547         	movff	UART1_SetErrorHandler@interruptHandler,_UART1_ErrorHandler
  2586  0040FA  C502  F548         	movff	UART1_SetErrorHandler@interruptHandler+1,_UART1_ErrorHandler+1
  2587  0040FE  C503  F549         	movff	UART1_SetErrorHandler@interruptHandler+2,_UART1_ErrorHandler+2
  2588  004102  0012               	return		;funcret
  2589  004104                     __end_of_UART1_SetErrorHandler:
  2590                           	callstack 0
  2591                           
  2592 ;; *************** function _PMD_Initialize *****************
  2593 ;; Defined at:
  2594 ;;		line 74 in file "mcc_generated_files/mcc.c"
  2595 ;; Parameters:    Size  Location     Type
  2596 ;;		None
  2597 ;; Auto vars:     Size  Location     Type
  2598 ;;		None
  2599 ;; Return value:  Size  Location     Type
  2600 ;;                  1    wreg      void 
  2601 ;; Registers used:
  2602 ;;		wreg, status,2
  2603 ;; Tracked objects:
  2604 ;;		On entry : 0/0
  2605 ;;		On exit  : 0/0
  2606 ;;		Unchanged: 0/0
  2607 ;; Data sizes:     COMRAM   BANK5   BANK6   BANK7   BANK8   BANK9  BANK10  BANK11  BANK12  BANK13  BANK14  BANK15  BANK1
      +6  BANK17  BANK18  BANK19  BANK20  BANK21  BANK22  BANK23  BANK24  BANK25  BANK26  BANK27  BANK28  BANK29  BANK30  BANK3
      +1  BANK32  BANK33  BANK34  BANK35  BANK36  BANK37  BANK38  BANK39  BANK40  BANK41  BANK42  BANK43  BANK44  BANK45  BANK4
      +6  BANK47  BANK48  BANK49  BANK50  BANK51  BANK52  BANK53  BANK54
  2608 ;;      Params:         0       0       0       0       0       0       0       0       0       0       0       0       
      +0       0       0       0       0       0       0       0       0       0       0       0       0       0       0       
      +0       0       0       0       0       0       0       0       0       0       0       0       0       0       0       
      +0       0       0       0       0       0       0       0       0
  2609 ;;      Locals:         0       0       0       0       0       0       0       0       0       0       0       0       
      +0       0       0       0       0       0       0       0       0       0       0       0       0       0       0       
      +0       0       0       0       0       0       0       0       0       0       0       0       0       0       0       
      +0       0       0       0       0       0       0       0       0
  2610 ;;      Temps:          0       0       0       0       0       0       0       0       0       0       0       0       
      +0       0       0       0       0       0       0       0       0       0       0       0       0       0       0       
      +0       0       0       0       0       0       0       0       0       0       0       0       0       0       0       
      +0       0       0       0       0       0       0       0       0
  2611 ;;      Totals:         0       0       0       0       0       0       0       0       0       0       0       0       
      +0       0       0       0       0       0       0       0       0       0       0       0       0       0       0       
      +0       0       0       0       0       0       0       0       0       0       0       0       0       0       0       
      +0       0       0       0       0       0       0       0       0
  2612 ;;Total ram usage:        0 bytes
  2613 ;; Hardware stack levels used:    1
  2614 ;; This function calls:
  2615 ;;		Nothing
  2616 ;; This function is called by:
  2617 ;;		_SYSTEM_Initialize
  2618 ;; This function uses a non-reentrant model
  2619 ;;
  2620                           
  2621                           	psect	text21
  2622  004042                     __ptext21:
  2623                           	callstack 0
  2624  004042                     _PMD_Initialize:
  2625                           	callstack 125
  2626  004042                     
  2627                           ;mcc_generated_files/mcc.c: 77:     PMD0 = 0x00;
  2628  004042  0E00               	movlw	0
  2629  004044  0100               	movlb	0	; () banked
  2630  004046  6F60               	movwf	96,b	;volatile
  2631                           
  2632                           ;mcc_generated_files/mcc.c: 79:     PMD1 = 0x00;
  2633  004048  0E00               	movlw	0
  2634  00404A  6F61               	movwf	97,b	;volatile
  2635                           
  2636                           ;mcc_generated_files/mcc.c: 81:     PMD2 = 0x00;
  2637  00404C  0E00               	movlw	0
  2638  00404E  6F62               	movwf	98,b	;volatile
  2639                           
  2640                           ;mcc_generated_files/mcc.c: 83:     PMD3 = 0x00;
  2641  004050  0E00               	movlw	0
  2642  004052  6F63               	movwf	99,b	;volatile
  2643                           
  2644                           ;mcc_generated_files/mcc.c: 85:     PMD4 = 0x00;
  2645  004054  0E00               	movlw	0
  2646  004056  6F64               	movwf	100,b	;volatile
  2647                           
  2648                           ;mcc_generated_files/mcc.c: 87:     PMD5 = 0x00;
  2649  004058  0E00               	movlw	0
  2650  00405A  6F65               	movwf	101,b	;volatile
  2651                           
  2652                           ;mcc_generated_files/mcc.c: 89:     PMD6 = 0x00;
  2653  00405C  0E00               	movlw	0
  2654  00405E  6F66               	movwf	102,b	;volatile
  2655                           
  2656                           ;mcc_generated_files/mcc.c: 91:     PMD7 = 0x00;
  2657  004060  0E00               	movlw	0
  2658  004062  6F67               	movwf	103,b	;volatile
  2659                           
  2660                           ;mcc_generated_files/mcc.c: 93:     PMD8 = 0x00;
  2661  004064  0E00               	movlw	0
  2662  004066  6F68               	movwf	104,b	;volatile
  2663  004068                     
  2664                           ; BSR set to: 0
  2665  004068  0012               	return		;funcret
  2666  00406A                     __end_of_PMD_Initialize:
  2667                           	callstack 0
  2668                           
  2669 ;; *************** function _PIN_MANAGER_Initialize *****************
  2670 ;; Defined at:
  2671 ;;		line 55 in file "mcc_generated_files/pin_manager.c"
  2672 ;; Parameters:    Size  Location     Type
  2673 ;;		None
  2674 ;; Auto vars:     Size  Location     Type
  2675 ;;		None
  2676 ;; Return value:  Size  Location     Type
  2677 ;;                  1    wreg      void 
  2678 ;; Registers used:
  2679 ;;		wreg, status,2
  2680 ;; Tracked objects:
  2681 ;;		On entry : 0/0
  2682 ;;		On exit  : 0/0
  2683 ;;		Unchanged: 0/0
  2684 ;; Data sizes:     COMRAM   BANK5   BANK6   BANK7   BANK8   BANK9  BANK10  BANK11  BANK12  BANK13  BANK14  BANK15  BANK1
      +6  BANK17  BANK18  BANK19  BANK20  BANK21  BANK22  BANK23  BANK24  BANK25  BANK26  BANK27  BANK28  BANK29  BANK30  BANK3
      +1  BANK32  BANK33  BANK34  BANK35  BANK36  BANK37  BANK38  BANK39  BANK40  BANK41  BANK42  BANK43  BANK44  BANK45  BANK4
      +6  BANK47  BANK48  BANK49  BANK50  BANK51  BANK52  BANK53  BANK54
  2685 ;;      Params:         0       0       0       0       0       0       0       0       0       0       0       0       
      +0       0       0       0       0       0       0       0       0       0       0       0       0       0       0       
      +0       0       0       0       0       0       0       0       0       0       0       0       0       0       0       
      +0       0       0       0       0       0       0       0       0
  2686 ;;      Locals:         0       0       0       0       0       0       0       0       0       0       0       0       
      +0       0       0       0       0       0       0       0       0       0       0       0       0       0       0       
      +0       0       0       0       0       0       0       0       0       0       0       0       0       0       0       
      +0       0       0       0       0       0       0       0       0
  2687 ;;      Temps:          0       0       0       0       0       0       0       0       0       0       0       0       
      +0       0       0       0       0       0       0       0       0       0       0       0       0       0       0       
      +0       0       0       0       0       0       0       0       0       0       0       0       0       0       0       
      +0       0       0       0       0       0       0       0       0
  2688 ;;      Totals:         0       0       0       0       0       0       0       0       0       0       0       0       
      +0       0       0       0       0       0       0       0       0       0       0       0       0       0       0       
      +0       0       0       0       0       0       0       0       0       0       0       0       0       0       0       
      +0       0       0       0       0       0       0       0       0
  2689 ;;Total ram usage:        0 bytes
  2690 ;; Hardware stack levels used:    1
  2691 ;; This function calls:
  2692 ;;		Nothing
  2693 ;; This function is called by:
  2694 ;;		_SYSTEM_Initialize
  2695 ;; This function uses a non-reentrant model
  2696 ;;
  2697                           
  2698                           	psect	text22
  2699  003BEC                     __ptext22:
  2700                           	callstack 0
  2701  003BEC                     _PIN_MANAGER_Initialize:
  2702                           	callstack 125
  2703  003BEC                     
  2704                           ;mcc_generated_files/pin_manager.c: 60:     LATE = 0x00;
  2705  003BEC  0E00               	movlw	0
  2706  003BEE  6EC2               	movwf	194,c	;volatile
  2707                           
  2708                           ;mcc_generated_files/pin_manager.c: 61:     LATD = 0x00;
  2709  003BF0  0E00               	movlw	0
  2710  003BF2  6EC1               	movwf	193,c	;volatile
  2711                           
  2712                           ;mcc_generated_files/pin_manager.c: 62:     LATA = 0x00;
  2713  003BF4  0E00               	movlw	0
  2714  003BF6  6EBE               	movwf	190,c	;volatile
  2715                           
  2716                           ;mcc_generated_files/pin_manager.c: 63:     LATF = 0x00;
  2717  003BF8  0E00               	movlw	0
  2718  003BFA  6EC3               	movwf	195,c	;volatile
  2719                           
  2720                           ;mcc_generated_files/pin_manager.c: 64:     LATB = 0x00;
  2721  003BFC  0E00               	movlw	0
  2722  003BFE  6EBF               	movwf	191,c	;volatile
  2723                           
  2724                           ;mcc_generated_files/pin_manager.c: 65:     LATC = 0x00;
  2725  003C00  0E00               	movlw	0
  2726  003C02  6EC0               	movwf	192,c	;volatile
  2727                           
  2728                           ;mcc_generated_files/pin_manager.c: 70:     TRISE = 0x04;
  2729  003C04  0E04               	movlw	4
  2730  003C06  6ECA               	movwf	202,c	;volatile
  2731                           
  2732                           ;mcc_generated_files/pin_manager.c: 71:     TRISF = 0xF2;
  2733  003C08  0EF2               	movlw	242
  2734  003C0A  6ECB               	movwf	203,c	;volatile
  2735  003C0C                     
  2736                           ;mcc_generated_files/pin_manager.c: 72:     TRISA = 0xFF;
  2737  003C0C  68C6               	setf	198,c	;volatile
  2738                           
  2739                           ;mcc_generated_files/pin_manager.c: 73:     TRISB = 0xF9;
  2740  003C0E  0EF9               	movlw	249
  2741  003C10  6EC7               	movwf	199,c	;volatile
  2742  003C12                     
  2743                           ;mcc_generated_files/pin_manager.c: 74:     TRISC = 0xFF;
  2744  003C12  68C8               	setf	200,c	;volatile
  2745  003C14                     
  2746                           ;mcc_generated_files/pin_manager.c: 75:     TRISD = 0xFF;
  2747  003C14  68C9               	setf	201,c	;volatile
  2748  003C16                     
  2749                           ;mcc_generated_files/pin_manager.c: 80:     ANSELD = 0xFF;
  2750  003C16  0104               	movlb	4	; () banked
  2751  003C18  6918               	setf	24,b	;volatile
  2752  003C1A                     
  2753                           ; BSR set to: 4
  2754                           ;mcc_generated_files/pin_manager.c: 81:     ANSELC = 0xFF;
  2755  003C1A  6910               	setf	16,b	;volatile
  2756                           
  2757                           ;mcc_generated_files/pin_manager.c: 82:     ANSELB = 0xE9;
  2758  003C1C  0EE9               	movlw	233
  2759  003C1E  6F08               	movwf	8,b	;volatile
  2760                           
  2761                           ;mcc_generated_files/pin_manager.c: 83:     ANSELE = 0x04;
  2762  003C20  0E04               	movlw	4
  2763  003C22  6F20               	movwf	32,b	;volatile
  2764                           
  2765                           ;mcc_generated_files/pin_manager.c: 84:     ANSELF = 0xF0;
  2766  003C24  0EF0               	movlw	240
  2767  003C26  6F28               	movwf	40,b	;volatile
  2768  003C28                     
  2769                           ; BSR set to: 4
  2770                           ;mcc_generated_files/pin_manager.c: 85:     ANSELA = 0xFF;
  2771  003C28  6900               	setf	0,b	;volatile
  2772                           
  2773                           ;mcc_generated_files/pin_manager.c: 90:     WPUD = 0x00;
  2774  003C2A  0E00               	movlw	0
  2775  003C2C  6F19               	movwf	25,b	;volatile
  2776                           
  2777                           ;mcc_generated_files/pin_manager.c: 91:     WPUF = 0x00;
  2778  003C2E  0E00               	movlw	0
  2779  003C30  6F29               	movwf	41,b	;volatile
  2780                           
  2781                           ;mcc_generated_files/pin_manager.c: 92:     WPUE = 0x00;
  2782  003C32  0E00               	movlw	0
  2783  003C34  6F21               	movwf	33,b	;volatile
  2784                           
  2785                           ;mcc_generated_files/pin_manager.c: 93:     WPUB = 0x00;
  2786  003C36  0E00               	movlw	0
  2787  003C38  6F09               	movwf	9,b	;volatile
  2788                           
  2789                           ;mcc_generated_files/pin_manager.c: 94:     WPUA = 0x00;
  2790  003C3A  0E00               	movlw	0
  2791  003C3C  6F01               	movwf	1,b	;volatile
  2792                           
  2793                           ;mcc_generated_files/pin_manager.c: 95:     WPUC = 0x00;
  2794  003C3E  0E00               	movlw	0
  2795  003C40  6F11               	movwf	17,b	;volatile
  2796                           
  2797                           ;mcc_generated_files/pin_manager.c: 100:     ODCONE = 0x00;
  2798  003C42  0E00               	movlw	0
  2799  003C44  6F22               	movwf	34,b	;volatile
  2800                           
  2801                           ;mcc_generated_files/pin_manager.c: 101:     ODCONF = 0x00;
  2802  003C46  0E00               	movlw	0
  2803  003C48  6F2A               	movwf	42,b	;volatile
  2804                           
  2805                           ;mcc_generated_files/pin_manager.c: 102:     ODCONA = 0x00;
  2806  003C4A  0E00               	movlw	0
  2807  003C4C  6F02               	movwf	2,b	;volatile
  2808                           
  2809                           ;mcc_generated_files/pin_manager.c: 103:     ODCONB = 0x06;
  2810  003C4E  0E06               	movlw	6
  2811  003C50  6F0A               	movwf	10,b	;volatile
  2812                           
  2813                           ;mcc_generated_files/pin_manager.c: 104:     ODCONC = 0x18;
  2814  003C52  0E18               	movlw	24
  2815  003C54  6F12               	movwf	18,b	;volatile
  2816                           
  2817                           ;mcc_generated_files/pin_manager.c: 105:     ODCOND = 0x00;
  2818  003C56  0E00               	movlw	0
  2819  003C58  6F1A               	movwf	26,b	;volatile
  2820  003C5A                     
  2821                           ; BSR set to: 4
  2822                           ;mcc_generated_files/pin_manager.c: 110:     SLRCONA = 0xFF;
  2823  003C5A  6903               	setf	3,b	;volatile
  2824  003C5C                     
  2825                           ; BSR set to: 4
  2826                           ;mcc_generated_files/pin_manager.c: 111:     SLRCONB = 0xFF;
  2827  003C5C  690B               	setf	11,b	;volatile
  2828  003C5E                     
  2829                           ; BSR set to: 4
  2830                           ;mcc_generated_files/pin_manager.c: 112:     SLRCONC = 0xFF;
  2831  003C5E  6913               	setf	19,b	;volatile
  2832  003C60                     
  2833                           ; BSR set to: 4
  2834                           ;mcc_generated_files/pin_manager.c: 113:     SLRCOND = 0xFF;
  2835  003C60  691B               	setf	27,b	;volatile
  2836                           
  2837                           ;mcc_generated_files/pin_manager.c: 114:     SLRCONE = 0x07;
  2838  003C62  0E07               	movlw	7
  2839  003C64  6F23               	movwf	35,b	;volatile
  2840  003C66                     
  2841                           ; BSR set to: 4
  2842                           ;mcc_generated_files/pin_manager.c: 115:     SLRCONF = 0xFF;
  2843  003C66  692B               	setf	43,b	;volatile
  2844  003C68                     
  2845                           ; BSR set to: 4
  2846                           ;mcc_generated_files/pin_manager.c: 120:     INLVLA = 0xFF;
  2847  003C68  6904               	setf	4,b	;volatile
  2848  003C6A                     
  2849                           ; BSR set to: 4
  2850                           ;mcc_generated_files/pin_manager.c: 121:     INLVLB = 0xFF;
  2851  003C6A  690C               	setf	12,b	;volatile
  2852  003C6C                     
  2853                           ; BSR set to: 4
  2854                           ;mcc_generated_files/pin_manager.c: 122:     INLVLC = 0xFF;
  2855  003C6C  6914               	setf	20,b	;volatile
  2856  003C6E                     
  2857                           ; BSR set to: 4
  2858                           ;mcc_generated_files/pin_manager.c: 123:     INLVLD = 0xFF;
  2859  003C6E  691C               	setf	28,b	;volatile
  2860                           
  2861                           ;mcc_generated_files/pin_manager.c: 124:     INLVLE = 0x0F;
  2862  003C70  0E0F               	movlw	15
  2863  003C72  6F24               	movwf	36,b	;volatile
  2864  003C74                     
  2865                           ; BSR set to: 4
  2866                           ;mcc_generated_files/pin_manager.c: 125:     INLVLF = 0xFF;
  2867  003C74  692C               	setf	44,b	;volatile
  2868                           
  2869                           ;mcc_generated_files/pin_manager.c: 134:     ADACTPPS = 0x0C;
  2870  003C76  0E0C               	movlw	12
  2871  003C78  0102               	movlb	2	; () banked
  2872  003C7A  6F69               	movwf	105,b	;volatile
  2873                           
  2874                           ;mcc_generated_files/pin_manager.c: 135:     I2C1SDAPPS = 0x0A;
  2875  003C7C  0E0A               	movlw	10
  2876  003C7E  6F70               	movwf	112,b	;volatile
  2877                           
  2878                           ;mcc_generated_files/pin_manager.c: 136:     RB1PPS = 0x37;
  2879  003C80  0E37               	movlw	55
  2880  003C82  6F0A               	movwf	10,b	;volatile
  2881                           
  2882                           ;mcc_generated_files/pin_manager.c: 137:     RB2PPS = 0x38;
  2883  003C84  0E38               	movlw	56
  2884  003C86  6F0B               	movwf	11,b	;volatile
  2885                           
  2886                           ;mcc_generated_files/pin_manager.c: 138:     RF0PPS = 0x20;
  2887  003C88  0E20               	movlw	32
  2888  003C8A  6F29               	movwf	41,b	;volatile
  2889                           
  2890                           ;mcc_generated_files/pin_manager.c: 139:     U1RXPPS = 0x29;
  2891  003C8C  0E29               	movlw	41
  2892  003C8E  6F72               	movwf	114,b	;volatile
  2893                           
  2894                           ;mcc_generated_files/pin_manager.c: 140:     I2C1SCLPPS = 0x09;
  2895  003C90  0E09               	movlw	9
  2896  003C92  6F71               	movwf	113,b	;volatile
  2897  003C94                     
  2898                           ; BSR set to: 2
  2899  003C94  0012               	return		;funcret
  2900  003C96                     __end_of_PIN_MANAGER_Initialize:
  2901                           	callstack 0
  2902                           
  2903 ;; *************** function _OSCILLATOR_Initialize *****************
  2904 ;; Defined at:
  2905 ;;		line 60 in file "mcc_generated_files/mcc.c"
  2906 ;; Parameters:    Size  Location     Type
  2907 ;;		None
  2908 ;; Auto vars:     Size  Location     Type
  2909 ;;		None
  2910 ;; Return value:  Size  Location     Type
  2911 ;;                  1    wreg      void 
  2912 ;; Registers used:
  2913 ;;		wreg, status,2
  2914 ;; Tracked objects:
  2915 ;;		On entry : 0/0
  2916 ;;		On exit  : 0/0
  2917 ;;		Unchanged: 0/0
  2918 ;; Data sizes:     COMRAM   BANK5   BANK6   BANK7   BANK8   BANK9  BANK10  BANK11  BANK12  BANK13  BANK14  BANK15  BANK1
      +6  BANK17  BANK18  BANK19  BANK20  BANK21  BANK22  BANK23  BANK24  BANK25  BANK26  BANK27  BANK28  BANK29  BANK30  BANK3
      +1  BANK32  BANK33  BANK34  BANK35  BANK36  BANK37  BANK38  BANK39  BANK40  BANK41  BANK42  BANK43  BANK44  BANK45  BANK4
      +6  BANK47  BANK48  BANK49  BANK50  BANK51  BANK52  BANK53  BANK54
  2919 ;;      Params:         0       0       0       0       0       0       0       0       0       0       0       0       
      +0       0       0       0       0       0       0       0       0       0       0       0       0       0       0       
      +0       0       0       0       0       0       0       0       0       0       0       0       0       0       0       
      +0       0       0       0       0       0       0       0       0
  2920 ;;      Locals:         0       0       0       0       0       0       0       0       0       0       0       0       
      +0       0       0       0       0       0       0       0       0       0       0       0       0       0       0       
      +0       0       0       0       0       0       0       0       0       0       0       0       0       0       0       
      +0       0       0       0       0       0       0       0       0
  2921 ;;      Temps:          0       0       0       0       0       0       0       0       0       0       0       0       
      +0       0       0       0       0       0       0       0       0       0       0       0       0       0       0       
      +0       0       0       0       0       0       0       0       0       0       0       0       0       0       0       
      +0       0       0       0       0       0       0       0       0
  2922 ;;      Totals:         0       0       0       0       0       0       0       0       0       0       0       0       
      +0       0       0       0       0       0       0       0       0       0       0       0       0       0       0       
      +0       0       0       0       0       0       0       0       0       0       0       0       0       0       0       
      +0       0       0       0       0       0       0       0       0
  2923 ;;Total ram usage:        0 bytes
  2924 ;; Hardware stack levels used:    1
  2925 ;; This function calls:
  2926 ;;		Nothing
  2927 ;; This function is called by:
  2928 ;;		_SYSTEM_Initialize
  2929 ;; This function uses a non-reentrant model
  2930 ;;
  2931                           
  2932                           	psect	text23
  2933  0040C2                     __ptext23:
  2934                           	callstack 0
  2935  0040C2                     _OSCILLATOR_Initialize:
  2936                           	callstack 125
  2937  0040C2                     
  2938                           ;mcc_generated_files/mcc.c: 63:     OSCCON1 = 0x70;
  2939  0040C2  0E70               	movlw	112
  2940  0040C4  0100               	movlb	0	; () banked
  2941  0040C6  6FAD               	movwf	173,b	;volatile
  2942                           
  2943                           ;mcc_generated_files/mcc.c: 65:     OSCCON3 = 0x00;
  2944  0040C8  0E00               	movlw	0
  2945  0040CA  6FAF               	movwf	175,b	;volatile
  2946                           
  2947                           ;mcc_generated_files/mcc.c: 67:     OSCEN = 0x00;
  2948  0040CC  0E00               	movlw	0
  2949  0040CE  6FB3               	movwf	179,b	;volatile
  2950                           
  2951                           ;mcc_generated_files/mcc.c: 69:     OSCFRQ = 0x02;
  2952  0040D0  0E02               	movlw	2
  2953  0040D2  6FB1               	movwf	177,b	;volatile
  2954                           
  2955                           ;mcc_generated_files/mcc.c: 71:     OSCTUNE = 0x00;
  2956  0040D4  0E00               	movlw	0
  2957  0040D6  6FB0               	movwf	176,b	;volatile
  2958  0040D8                     
  2959                           ; BSR set to: 0
  2960  0040D8  0012               	return		;funcret
  2961  0040DA                     __end_of_OSCILLATOR_Initialize:
  2962                           	callstack 0
  2963                           
  2964 ;; *************** function _I2C1_Initialize *****************
  2965 ;; Defined at:
  2966 ;;		line 183 in file "mcc_generated_files/i2c1_master.c"
  2967 ;; Parameters:    Size  Location     Type
  2968 ;;		None
  2969 ;; Auto vars:     Size  Location     Type
  2970 ;;		None
  2971 ;; Return value:  Size  Location     Type
  2972 ;;                  1    wreg      void 
  2973 ;; Registers used:
  2974 ;;		wreg, status,2
  2975 ;; Tracked objects:
  2976 ;;		On entry : 0/0
  2977 ;;		On exit  : 0/0
  2978 ;;		Unchanged: 0/0
  2979 ;; Data sizes:     COMRAM   BANK5   BANK6   BANK7   BANK8   BANK9  BANK10  BANK11  BANK12  BANK13  BANK14  BANK15  BANK1
      +6  BANK17  BANK18  BANK19  BANK20  BANK21  BANK22  BANK23  BANK24  BANK25  BANK26  BANK27  BANK28  BANK29  BANK30  BANK3
      +1  BANK32  BANK33  BANK34  BANK35  BANK36  BANK37  BANK38  BANK39  BANK40  BANK41  BANK42  BANK43  BANK44  BANK45  BANK4
      +6  BANK47  BANK48  BANK49  BANK50  BANK51  BANK52  BANK53  BANK54
  2980 ;;      Params:         0       0       0       0       0       0       0       0       0       0       0       0       
      +0       0       0       0       0       0       0       0       0       0       0       0       0       0       0       
      +0       0       0       0       0       0       0       0       0       0       0       0       0       0       0       
      +0       0       0       0       0       0       0       0       0
  2981 ;;      Locals:         0       0       0       0       0       0       0       0       0       0       0       0       
      +0       0       0       0       0       0       0       0       0       0       0       0       0       0       0       
      +0       0       0       0       0       0       0       0       0       0       0       0       0       0       0       
      +0       0       0       0       0       0       0       0       0
  2982 ;;      Temps:          0       0       0       0       0       0       0       0       0       0       0       0       
      +0       0       0       0       0       0       0       0       0       0       0       0       0       0       0       
      +0       0       0       0       0       0       0       0       0       0       0       0       0       0       0       
      +0       0       0       0       0       0       0       0       0
  2983 ;;      Totals:         0       0       0       0       0       0       0       0       0       0       0       0       
      +0       0       0       0       0       0       0       0       0       0       0       0       0       0       0       
      +0       0       0       0       0       0       0       0       0       0       0       0       0       0       0       
      +0       0       0       0       0       0       0       0       0
  2984 ;;Total ram usage:        0 bytes
  2985 ;; Hardware stack levels used:    1
  2986 ;; This function calls:
  2987 ;;		Nothing
  2988 ;; This function is called by:
  2989 ;;		_SYSTEM_Initialize
  2990 ;; This function uses a non-reentrant model
  2991 ;;
  2992                           
  2993                           	psect	text24
  2994  004016                     __ptext24:
  2995                           	callstack 0
  2996  004016                     _I2C1_Initialize:
  2997                           	callstack 125
  2998  004016                     
  2999                           ;mcc_generated_files/i2c1_master.c: 186:     I2C1CON0 = 0x04;
  3000  004016  0E04               	movlw	4
  3001  004018  0102               	movlb	2	; () banked
  3002  00401A  6F94               	movwf	148,b	;volatile
  3003                           
  3004                           ;mcc_generated_files/i2c1_master.c: 188:     I2C1CON1 = 0x80;
  3005  00401C  0E80               	movlw	128
  3006  00401E  6F95               	movwf	149,b	;volatile
  3007                           
  3008                           ;mcc_generated_files/i2c1_master.c: 190:     I2C1CON2 = 0x18;
  3009  004020  0E18               	movlw	24
  3010  004022  6F96               	movwf	150,b	;volatile
  3011                           
  3012                           ;mcc_generated_files/i2c1_master.c: 192:     I2C1CLK = 0x03;
  3013  004024  0E03               	movlw	3
  3014  004026  6F9E               	movwf	158,b	;volatile
  3015                           
  3016                           ;mcc_generated_files/i2c1_master.c: 194:     I2C1PIR = 0x00;
  3017  004028  0E00               	movlw	0
  3018  00402A  6F9A               	movwf	154,b	;volatile
  3019                           
  3020                           ;mcc_generated_files/i2c1_master.c: 196:     I2C1PIE = 0x00;
  3021  00402C  0E00               	movlw	0
  3022  00402E  6F9B               	movwf	155,b	;volatile
  3023                           
  3024                           ;mcc_generated_files/i2c1_master.c: 198:     I2C1ERR = 0x00;
  3025  004030  0E00               	movlw	0
  3026  004032  6F97               	movwf	151,b	;volatile
  3027                           
  3028                           ;mcc_generated_files/i2c1_master.c: 200:     I2C1CNTL = 0x00;
  3029  004034  0E00               	movlw	0
  3030  004036  6F8C               	movwf	140,b	;volatile
  3031                           
  3032                           ;mcc_generated_files/i2c1_master.c: 201:     I2C1CNTH = 0x00;
  3033  004038  0E00               	movlw	0
  3034  00403A  6F8D               	movwf	141,b	;volatile
  3035                           
  3036                           ;mcc_generated_files/i2c1_master.c: 203:     I2C1BAUD = 0x00;
  3037  00403C  0E00               	movlw	0
  3038  00403E  6F9D               	movwf	157,b	;volatile
  3039  004040                     
  3040                           ; BSR set to: 2
  3041  004040  0012               	return		;funcret
  3042  004042                     __end_of_I2C1_Initialize:
  3043                           	callstack 0
  3044                           
  3045 ;; *************** function _ADC_Initialize *****************
  3046 ;; Defined at:
  3047 ;;		line 65 in file "mcc_generated_files/adc.c"
  3048 ;; Parameters:    Size  Location     Type
  3049 ;;		None
  3050 ;; Auto vars:     Size  Location     Type
  3051 ;;		None
  3052 ;; Return value:  Size  Location     Type
  3053 ;;                  1    wreg      void 
  3054 ;; Registers used:
  3055 ;;		wreg, status,2, status,0, cstack
  3056 ;; Tracked objects:
  3057 ;;		On entry : 0/0
  3058 ;;		On exit  : 0/0
  3059 ;;		Unchanged: 0/0
  3060 ;; Data sizes:     COMRAM   BANK5   BANK6   BANK7   BANK8   BANK9  BANK10  BANK11  BANK12  BANK13  BANK14  BANK15  BANK1
      +6  BANK17  BANK18  BANK19  BANK20  BANK21  BANK22  BANK23  BANK24  BANK25  BANK26  BANK27  BANK28  BANK29  BANK30  BANK3
      +1  BANK32  BANK33  BANK34  BANK35  BANK36  BANK37  BANK38  BANK39  BANK40  BANK41  BANK42  BANK43  BANK44  BANK45  BANK4
      +6  BANK47  BANK48  BANK49  BANK50  BANK51  BANK52  BANK53  BANK54
  3061 ;;      Params:         0       0       0       0       0       0       0       0       0       0       0       0       
      +0       0       0       0       0       0       0       0       0       0       0       0       0       0       0       
      +0       0       0       0       0       0       0       0       0       0       0       0       0       0       0       
      +0       0       0       0       0       0       0       0       0
  3062 ;;      Locals:         0       0       0       0       0       0       0       0       0       0       0       0       
      +0       0       0       0       0       0       0       0       0       0       0       0       0       0       0       
      +0       0       0       0       0       0       0       0       0       0       0       0       0       0       0       
      +0       0       0       0       0       0       0       0       0
  3063 ;;      Temps:          0       0       0       0       0       0       0       0       0       0       0       0       
      +0       0       0       0       0       0       0       0       0       0       0       0       0       0       0       
      +0       0       0       0       0       0       0       0       0       0       0       0       0       0       0       
      +0       0       0       0       0       0       0       0       0
  3064 ;;      Totals:         0       0       0       0       0       0       0       0       0       0       0       0       
      +0       0       0       0       0       0       0       0       0       0       0       0       0       0       0       
      +0       0       0       0       0       0       0       0       0       0       0       0       0       0       0       
      +0       0       0       0       0       0       0       0       0
  3065 ;;Total ram usage:        0 bytes
  3066 ;; Hardware stack levels used:    1
  3067 ;; Hardware stack levels required when called:    1
  3068 ;; This function calls:
  3069 ;;		_ADC_SetADIInterruptHandler
  3070 ;;		_ADC_SetActiveClockTuningInterruptHandler
  3071 ;;		_ADC_SetContext1ThresholdInterruptHandler
  3072 ;; This function is called by:
  3073 ;;		_SYSTEM_Initialize
  3074 ;; This function uses a non-reentrant model
  3075 ;;
  3076                           
  3077                           	psect	text25
  3078  003B34                     __ptext25:
  3079                           	callstack 0
  3080  003B34                     _ADC_Initialize:
  3081                           	callstack 124
  3082  003B34                     
  3083                           ;mcc_generated_files/adc.c: 68:     ADACT = 0x00;
  3084  003B34  0E00               	movlw	0
  3085  003B36  0103               	movlb	3	; () banked
  3086  003B38  6FF9               	movwf	249,b	;volatile
  3087                           
  3088                           ;mcc_generated_files/adc.c: 71:     ADCLK = 0x00;
  3089  003B3A  0E00               	movlw	0
  3090  003B3C  6FFA               	movwf	250,b	;volatile
  3091                           
  3092                           ;mcc_generated_files/adc.c: 74:     ADCP = 0x00;
  3093  003B3E  0E00               	movlw	0
  3094  003B40  6FD8               	movwf	216,b	;volatile
  3095                           
  3096                           ;mcc_generated_files/adc.c: 80:     ADCTX = 0x0;
  3097  003B42  0E00               	movlw	0
  3098  003B44  6FFB               	movwf	251,b	;volatile
  3099                           
  3100                           ;mcc_generated_files/adc.c: 83:     ADLTHL = 0x00;
  3101  003B46  0E00               	movlw	0
  3102  003B48  6FD9               	movwf	217,b	;volatile
  3103                           
  3104                           ;mcc_generated_files/adc.c: 86:     ADLTHH = 0x00;
  3105  003B4A  0E00               	movlw	0
  3106  003B4C  6FDA               	movwf	218,b	;volatile
  3107                           
  3108                           ;mcc_generated_files/adc.c: 89:     ADUTHL = 0x00;
  3109  003B4E  0E00               	movlw	0
  3110  003B50  6FDB               	movwf	219,b	;volatile
  3111                           
  3112                           ;mcc_generated_files/adc.c: 92:     ADUTHH = 0x00;
  3113  003B52  0E00               	movlw	0
  3114  003B54  6FDC               	movwf	220,b	;volatile
  3115                           
  3116                           ;mcc_generated_files/adc.c: 95:     ADSTPTL = 0x00;
  3117  003B56  0E00               	movlw	0
  3118  003B58  6FDF               	movwf	223,b	;volatile
  3119                           
  3120                           ;mcc_generated_files/adc.c: 98:     ADSTPTH = 0x00;
  3121  003B5A  0E00               	movlw	0
  3122  003B5C  6FE0               	movwf	224,b	;volatile
  3123                           
  3124                           ;mcc_generated_files/adc.c: 101:     ADACCL = 0x00;
  3125  003B5E  0E00               	movlw	0
  3126  003B60  6FE3               	movwf	227,b	;volatile
  3127                           
  3128                           ;mcc_generated_files/adc.c: 104:     ADACCH = 0x00;
  3129  003B62  0E00               	movlw	0
  3130  003B64  6FE4               	movwf	228,b	;volatile
  3131                           
  3132                           ;mcc_generated_files/adc.c: 107:     ADACCU = 0x00;
  3133  003B66  0E00               	movlw	0
  3134  003B68  6FE5               	movwf	229,b	;volatile
  3135                           
  3136                           ;mcc_generated_files/adc.c: 110:     ADCNT = 0x00;
  3137  003B6A  0E00               	movlw	0
  3138  003B6C  6FE6               	movwf	230,b	;volatile
  3139                           
  3140                           ;mcc_generated_files/adc.c: 113:     ADRPT = 0x00;
  3141  003B6E  0E00               	movlw	0
  3142  003B70  6FE7               	movwf	231,b	;volatile
  3143                           
  3144                           ;mcc_generated_files/adc.c: 116:     ADRESL = 0x00;
  3145  003B72  0E00               	movlw	0
  3146  003B74  6FEA               	movwf	234,b	;volatile
  3147                           
  3148                           ;mcc_generated_files/adc.c: 119:     ADRESH = 0x00;
  3149  003B76  0E00               	movlw	0
  3150  003B78  6FEB               	movwf	235,b	;volatile
  3151                           
  3152                           ;mcc_generated_files/adc.c: 122:     ADPCH = 0x01;
  3153  003B7A  0E01               	movlw	1
  3154  003B7C  6FEC               	movwf	236,b	;volatile
  3155                           
  3156                           ;mcc_generated_files/adc.c: 125:     ADACQL = 0x00;
  3157  003B7E  0E00               	movlw	0
  3158  003B80  6FEE               	movwf	238,b	;volatile
  3159                           
  3160                           ;mcc_generated_files/adc.c: 128:     ADACQH = 0x00;
  3161  003B82  0E00               	movlw	0
  3162  003B84  6FEF               	movwf	239,b	;volatile
  3163                           
  3164                           ;mcc_generated_files/adc.c: 131:     ADCAP = 0x00;
  3165  003B86  0E00               	movlw	0
  3166  003B88  6FF0               	movwf	240,b	;volatile
  3167                           
  3168                           ;mcc_generated_files/adc.c: 134:     ADPREL = 0x00;
  3169  003B8A  0E00               	movlw	0
  3170  003B8C  6FF1               	movwf	241,b	;volatile
  3171                           
  3172                           ;mcc_generated_files/adc.c: 137:     ADPREH = 0x00;
  3173  003B8E  0E00               	movlw	0
  3174  003B90  6FF2               	movwf	242,b	;volatile
  3175                           
  3176                           ;mcc_generated_files/adc.c: 140:     ADCON0 = 0x00;
  3177  003B92  0E00               	movlw	0
  3178  003B94  6FF3               	movwf	243,b	;volatile
  3179                           
  3180                           ;mcc_generated_files/adc.c: 143:     ADCON1 = 0x00;
  3181  003B96  0E00               	movlw	0
  3182  003B98  6FF4               	movwf	244,b	;volatile
  3183                           
  3184                           ;mcc_generated_files/adc.c: 146:     ADCON2 = 0x10;
  3185  003B9A  0E10               	movlw	16
  3186  003B9C  6FF5               	movwf	245,b	;volatile
  3187                           
  3188                           ;mcc_generated_files/adc.c: 149:     ADCON3 = 0x00;
  3189  003B9E  0E00               	movlw	0
  3190  003BA0  6FF6               	movwf	246,b	;volatile
  3191                           
  3192                           ;mcc_generated_files/adc.c: 152:     ADSTAT = 0x00;
  3193  003BA2  0E00               	movlw	0
  3194  003BA4  6FF7               	movwf	247,b	;volatile
  3195                           
  3196                           ;mcc_generated_files/adc.c: 155:     ADREF = 0x00;
  3197  003BA6  0E00               	movlw	0
  3198  003BA8  6FF8               	movwf	248,b	;volatile
  3199                           
  3200                           ;mcc_generated_files/adc.c: 158:     ADCSEL1 = 0x00;
  3201  003BAA  0E00               	movlw	0
  3202  003BAC  6FFC               	movwf	252,b	;volatile
  3203  003BAE                     
  3204                           ; BSR set to: 3
  3205                           ;mcc_generated_files/adc.c: 161:     PIR1bits.ADIF = 0;
  3206  003BAE  94AF               	bcf	175,2,c	;volatile
  3207  003BB0                     
  3208                           ; BSR set to: 3
  3209                           ;mcc_generated_files/adc.c: 164:     PIR1bits.ACTIF = 0;
  3210  003BB0  96AF               	bcf	175,3,c	;volatile
  3211  003BB2                     
  3212                           ; BSR set to: 3
  3213                           ;mcc_generated_files/adc.c: 167:     PIR2bits.ADCH1IF = 0;
  3214  003BB2  90B0               	bcf	176,0,c	;volatile
  3215  003BB4                     
  3216                           ; BSR set to: 3
  3217                           ;mcc_generated_files/adc.c: 171:     ADC_SetADIInterruptHandler(ADC_DefaultADI_ISR);
  3218  003BB4  0E00               	movlw	0
  3219  003BB6  6E01               	movwf	ADC_SetADIInterruptHandler@InterruptHandler^(0+1280),c
  3220  003BB8  0E00               	movlw	0
  3221  003BBA  6E02               	movwf	(ADC_SetADIInterruptHandler@InterruptHandler+1)^(0+1280),c
  3222  003BBC  0E00               	movlw	0
  3223  003BBE  6E03               	movwf	(ADC_SetADIInterruptHandler@InterruptHandler+2)^(0+1280),c
  3224  003BC0  EC90  F020         	call	_ADC_SetADIInterruptHandler	;wreg free
  3225  003BC4                     
  3226                           ;mcc_generated_files/adc.c: 172:     ADC_SetContext1ThresholdInterruptHandler(ADC_Defaul
      +                          tContext1Threshold_ISR);
  3227  003BC4  0E00               	movlw	0
  3228  003BC6  6E01               	movwf	ADC_SetContext1ThresholdInterruptHandler@InterruptHandler^(0+1280),c
  3229  003BC8  0E00               	movlw	0
  3230  003BCA  6E02               	movwf	(ADC_SetContext1ThresholdInterruptHandler@InterruptHandler+1)^(0+1280),c
  3231  003BCC  0E00               	movlw	0
  3232  003BCE  6E03               	movwf	(ADC_SetContext1ThresholdInterruptHandler@InterruptHandler+2)^(0+1280),c
  3233  003BD0  EC82  F020         	call	_ADC_SetContext1ThresholdInterruptHandler	;wreg free
  3234  003BD4                     
  3235                           ;mcc_generated_files/adc.c: 173:     ADC_SetActiveClockTuningInterruptHandler(ADC_Defaul
      +                          tActiveClockTuning_ISR);
  3236  003BD4  0E00               	movlw	0
  3237  003BD6  6E01               	movwf	ADC_SetActiveClockTuningInterruptHandler@InterruptHandler^(0+1280),c
  3238  003BD8  0E00               	movlw	0
  3239  003BDA  6E02               	movwf	(ADC_SetActiveClockTuningInterruptHandler@InterruptHandler+1)^(0+1280),c
  3240  003BDC  0E00               	movlw	0
  3241  003BDE  6E03               	movwf	(ADC_SetActiveClockTuningInterruptHandler@InterruptHandler+2)^(0+1280),c
  3242  003BE0  EC89  F020         	call	_ADC_SetActiveClockTuningInterruptHandler	;wreg free
  3243  003BE4                     
  3244                           ;mcc_generated_files/adc.c: 176:     ADCON0 = 0x84;
  3245  003BE4  0E84               	movlw	132
  3246  003BE6  0103               	movlb	3	; () banked
  3247  003BE8  6FF3               	movwf	243,b	;volatile
  3248  003BEA                     
  3249                           ; BSR set to: 3
  3250  003BEA  0012               	return		;funcret
  3251  003BEC                     __end_of_ADC_Initialize:
  3252                           	callstack 0
  3253                           
  3254 ;; *************** function _ADC_SetContext1ThresholdInterruptHandler *****************
  3255 ;; Defined at:
  3256 ;;		line 423 in file "mcc_generated_files/adc.c"
  3257 ;; Parameters:    Size  Location     Type
  3258 ;;  InterruptHan    3    0[COMRAM] PTR FTN()void 
  3259 ;;		 -> ADC_DefaultContext1Threshold_ISR(1), 
  3260 ;; Auto vars:     Size  Location     Type
  3261 ;;		None
  3262 ;; Return value:  Size  Location     Type
  3263 ;;                  1    wreg      void 
  3264 ;; Registers used:
  3265 ;;		wreg, status,2, status,0
  3266 ;; Tracked objects:
  3267 ;;		On entry : 0/0
  3268 ;;		On exit  : 0/0
  3269 ;;		Unchanged: 0/0
  3270 ;; Data sizes:     COMRAM   BANK5   BANK6   BANK7   BANK8   BANK9  BANK10  BANK11  BANK12  BANK13  BANK14  BANK15  BANK1
      +6  BANK17  BANK18  BANK19  BANK20  BANK21  BANK22  BANK23  BANK24  BANK25  BANK26  BANK27  BANK28  BANK29  BANK30  BANK3
      +1  BANK32  BANK33  BANK34  BANK35  BANK36  BANK37  BANK38  BANK39  BANK40  BANK41  BANK42  BANK43  BANK44  BANK45  BANK4
      +6  BANK47  BANK48  BANK49  BANK50  BANK51  BANK52  BANK53  BANK54
  3271 ;;      Params:         3       0       0       0       0       0       0       0       0       0       0       0       
      +0       0       0       0       0       0       0       0       0       0       0       0       0       0       0       
      +0       0       0       0       0       0       0       0       0       0       0       0       0       0       0       
      +0       0       0       0       0       0       0       0       0
  3272 ;;      Locals:         0       0       0       0       0       0       0       0       0       0       0       0       
      +0       0       0       0       0       0       0       0       0       0       0       0       0       0       0       
      +0       0       0       0       0       0       0       0       0       0       0       0       0       0       0       
      +0       0       0       0       0       0       0       0       0
  3273 ;;      Temps:          0       0       0       0       0       0       0       0       0       0       0       0       
      +0       0       0       0       0       0       0       0       0       0       0       0       0       0       0       
      +0       0       0       0       0       0       0       0       0       0       0       0       0       0       0       
      +0       0       0       0       0       0       0       0       0
  3274 ;;      Totals:         3       0       0       0       0       0       0       0       0       0       0       0       
      +0       0       0       0       0       0       0       0       0       0       0       0       0       0       0       
      +0       0       0       0       0       0       0       0       0       0       0       0       0       0       0       
      +0       0       0       0       0       0       0       0       0
  3275 ;;Total ram usage:        3 bytes
  3276 ;; Hardware stack levels used:    1
  3277 ;; This function calls:
  3278 ;;		Nothing
  3279 ;; This function is called by:
  3280 ;;		_ADC_Initialize
  3281 ;; This function uses a non-reentrant model
  3282 ;;
  3283                           
  3284                           	psect	text26
  3285  004104                     __ptext26:
  3286                           	callstack 0
  3287  004104                     _ADC_SetContext1ThresholdInterruptHandler:
  3288                           	callstack 124
  3289  004104                     
  3290                           ;mcc_generated_files/adc.c: 423: void ADC_SetContext1ThresholdInterruptHandler(void (* I
      +                          nterruptHandler)(void));mcc_generated_files/adc.c: 424: {;mcc_generated_files/adc.c: 425
      +                          :     ADC_Context1Thereshld_ISR = InterruptHandler;
  3291  004104  C501  F541         	movff	ADC_SetContext1ThresholdInterruptHandler@InterruptHandler,_ADC_Context1Thereshld_
      +                          ISR
  3292  004108  C502  F542         	movff	ADC_SetContext1ThresholdInterruptHandler@InterruptHandler+1,_ADC_Context1Thereshl
      +                          d_ISR+1
  3293  00410C  C503  F543         	movff	ADC_SetContext1ThresholdInterruptHandler@InterruptHandler+2,_ADC_Context1Thereshl
      +                          d_ISR+2
  3294  004110  0012               	return		;funcret
  3295  004112                     __end_of_ADC_SetContext1ThresholdInterruptHandler:
  3296                           	callstack 0
  3297                           
  3298 ;; *************** function _ADC_SetActiveClockTuningInterruptHandler *****************
  3299 ;; Defined at:
  3300 ;;		line 428 in file "mcc_generated_files/adc.c"
  3301 ;; Parameters:    Size  Location     Type
  3302 ;;  InterruptHan    3    0[COMRAM] PTR FTN()void 
  3303 ;;		 -> ADC_DefaultActiveClockTuning_ISR(1), 
  3304 ;; Auto vars:     Size  Location     Type
  3305 ;;		None
  3306 ;; Return value:  Size  Location     Type
  3307 ;;                  1    wreg      void 
  3308 ;; Registers used:
  3309 ;;		wreg, status,2, status,0
  3310 ;; Tracked objects:
  3311 ;;		On entry : 0/0
  3312 ;;		On exit  : 0/0
  3313 ;;		Unchanged: 0/0
  3314 ;; Data sizes:     COMRAM   BANK5   BANK6   BANK7   BANK8   BANK9  BANK10  BANK11  BANK12  BANK13  BANK14  BANK15  BANK1
      +6  BANK17  BANK18  BANK19  BANK20  BANK21  BANK22  BANK23  BANK24  BANK25  BANK26  BANK27  BANK28  BANK29  BANK30  BANK3
      +1  BANK32  BANK33  BANK34  BANK35  BANK36  BANK37  BANK38  BANK39  BANK40  BANK41  BANK42  BANK43  BANK44  BANK45  BANK4
      +6  BANK47  BANK48  BANK49  BANK50  BANK51  BANK52  BANK53  BANK54
  3315 ;;      Params:         3       0       0       0       0       0       0       0       0       0       0       0       
      +0       0       0       0       0       0       0       0       0       0       0       0       0       0       0       
      +0       0       0       0       0       0       0       0       0       0       0       0       0       0       0       
      +0       0       0       0       0       0       0       0       0
  3316 ;;      Locals:         0       0       0       0       0       0       0       0       0       0       0       0       
      +0       0       0       0       0       0       0       0       0       0       0       0       0       0       0       
      +0       0       0       0       0       0       0       0       0       0       0       0       0       0       0       
      +0       0       0       0       0       0       0       0       0
  3317 ;;      Temps:          0       0       0       0       0       0       0       0       0       0       0       0       
      +0       0       0       0       0       0       0       0       0       0       0       0       0       0       0       
      +0       0       0       0       0       0       0       0       0       0       0       0       0       0       0       
      +0       0       0       0       0       0       0       0       0
  3318 ;;      Totals:         3       0       0       0       0       0       0       0       0       0       0       0       
      +0       0       0       0       0       0       0       0       0       0       0       0       0       0       0       
      +0       0       0       0       0       0       0       0       0       0       0       0       0       0       0       
      +0       0       0       0       0       0       0       0       0
  3319 ;;Total ram usage:        3 bytes
  3320 ;; Hardware stack levels used:    1
  3321 ;; This function calls:
  3322 ;;		Nothing
  3323 ;; This function is called by:
  3324 ;;		_ADC_Initialize
  3325 ;; This function uses a non-reentrant model
  3326 ;;
  3327                           
  3328                           	psect	text27
  3329  004112                     __ptext27:
  3330                           	callstack 0
  3331  004112                     _ADC_SetActiveClockTuningInterruptHandler:
  3332                           	callstack 124
  3333  004112                     
  3334                           ;mcc_generated_files/adc.c: 428: void ADC_SetActiveClockTuningInterruptHandler(void (* I
      +                          nterruptHandler)(void));mcc_generated_files/adc.c: 429: {;mcc_generated_files/adc.c: 430
      +                          :     ADC_ActiveClockTuning_ISR = InterruptHandler;
  3335  004112  C501  F53E         	movff	ADC_SetActiveClockTuningInterruptHandler@InterruptHandler,_ADC_ActiveClockTuning_
      +                          ISR
  3336  004116  C502  F53F         	movff	ADC_SetActiveClockTuningInterruptHandler@InterruptHandler+1,_ADC_ActiveClockTunin
      +                          g_ISR+1
  3337  00411A  C503  F540         	movff	ADC_SetActiveClockTuningInterruptHandler@InterruptHandler+2,_ADC_ActiveClockTunin
      +                          g_ISR+2
  3338  00411E  0012               	return		;funcret
  3339  004120                     __end_of_ADC_SetActiveClockTuningInterruptHandler:
  3340                           	callstack 0
  3341                           
  3342 ;; *************** function _ADC_SetADIInterruptHandler *****************
  3343 ;; Defined at:
  3344 ;;		line 418 in file "mcc_generated_files/adc.c"
  3345 ;; Parameters:    Size  Location     Type
  3346 ;;  InterruptHan    3    0[COMRAM] PTR FTN()void 
  3347 ;;		 -> ADC_DefaultADI_ISR(1), 
  3348 ;; Auto vars:     Size  Location     Type
  3349 ;;		None
  3350 ;; Return value:  Size  Location     Type
  3351 ;;                  1    wreg      void 
  3352 ;; Registers used:
  3353 ;;		wreg, status,2, status,0
  3354 ;; Tracked objects:
  3355 ;;		On entry : 0/0
  3356 ;;		On exit  : 0/0
  3357 ;;		Unchanged: 0/0
  3358 ;; Data sizes:     COMRAM   BANK5   BANK6   BANK7   BANK8   BANK9  BANK10  BANK11  BANK12  BANK13  BANK14  BANK15  BANK1
      +6  BANK17  BANK18  BANK19  BANK20  BANK21  BANK22  BANK23  BANK24  BANK25  BANK26  BANK27  BANK28  BANK29  BANK30  BANK3
      +1  BANK32  BANK33  BANK34  BANK35  BANK36  BANK37  BANK38  BANK39  BANK40  BANK41  BANK42  BANK43  BANK44  BANK45  BANK4
      +6  BANK47  BANK48  BANK49  BANK50  BANK51  BANK52  BANK53  BANK54
  3359 ;;      Params:         3       0       0       0       0       0       0       0       0       0       0       0       
      +0       0       0       0       0       0       0       0       0       0       0       0       0       0       0       
      +0       0       0       0       0       0       0       0       0       0       0       0       0       0       0       
      +0       0       0       0       0       0       0       0       0
  3360 ;;      Locals:         0       0       0       0       0       0       0       0       0       0       0       0       
      +0       0       0       0       0       0       0       0       0       0       0       0       0       0       0       
      +0       0       0       0       0       0       0       0       0       0       0       0       0       0       0       
      +0       0       0       0       0       0       0       0       0
  3361 ;;      Temps:          0       0       0       0       0       0       0       0       0       0       0       0       
      +0       0       0       0       0       0       0       0       0       0       0       0       0       0       0       
      +0       0       0       0       0       0       0       0       0       0       0       0       0       0       0       
      +0       0       0       0       0       0       0       0       0
  3362 ;;      Totals:         3       0       0       0       0       0       0       0       0       0       0       0       
      +0       0       0       0       0       0       0       0       0       0       0       0       0       0       0       
      +0       0       0       0       0       0       0       0       0       0       0       0       0       0       0       
      +0       0       0       0       0       0       0       0       0
  3363 ;;Total ram usage:        3 bytes
  3364 ;; Hardware stack levels used:    1
  3365 ;; This function calls:
  3366 ;;		Nothing
  3367 ;; This function is called by:
  3368 ;;		_ADC_Initialize
  3369 ;; This function uses a non-reentrant model
  3370 ;;
  3371                           
  3372                           	psect	text28
  3373  004120                     __ptext28:
  3374                           	callstack 0
  3375  004120                     _ADC_SetADIInterruptHandler:
  3376                           	callstack 124
  3377  004120                     
  3378                           ;mcc_generated_files/adc.c: 418: void ADC_SetADIInterruptHandler(void (* InterruptHandle
      +                          r)(void));mcc_generated_files/adc.c: 419: {;mcc_generated_files/adc.c: 420:     ADC_Conv
      +                          ersionComplete_ISR = InterruptHandler;
  3379  004120  C501  F544         	movff	ADC_SetADIInterruptHandler@InterruptHandler,_ADC_ConversionComplete_ISR
  3380  004124  C502  F545         	movff	ADC_SetADIInterruptHandler@InterruptHandler+1,_ADC_ConversionComplete_ISR+1
  3381  004128  C503  F546         	movff	ADC_SetADIInterruptHandler@InterruptHandler+2,_ADC_ConversionComplete_ISR+2
  3382  00412C  0012               	return		;funcret
  3383  00412E                     __end_of_ADC_SetADIInterruptHandler:
  3384                           	callstack 0
  3385                           
  3386                           	psect	text29
  3387  000000                     __ptext29:
  3388                           	callstack 0
  3389  000000                     
  3390                           	psect	rparam
  3391  0000                     
  3392                           	psect	idloc
  3393                           
  3394                           ;Config register IDLOC0 @ 0x200000
  3395                           ;	unspecified, using default values
  3396  200000                     	org	2097152
  3397  200000  0FFF               	dw	4095
  3398                           
  3399                           ;Config register IDLOC1 @ 0x200002
  3400                           ;	unspecified, using default values
  3401  200002                     	org	2097154
  3402  200002  0FFF               	dw	4095
  3403                           
  3404                           ;Config register IDLOC2 @ 0x200004
  3405                           ;	unspecified, using default values
  3406  200004                     	org	2097156
  3407  200004  0FFF               	dw	4095
  3408                           
  3409                           ;Config register IDLOC3 @ 0x200006
  3410                           ;	unspecified, using default values
  3411  200006                     	org	2097158
  3412  200006  0FFF               	dw	4095
  3413                           
  3414                           ;Config register IDLOC4 @ 0x200008
  3415                           ;	unspecified, using default values
  3416  200008                     	org	2097160
  3417  200008  0FFF               	dw	4095
  3418                           
  3419                           ;Config register IDLOC5 @ 0x20000A
  3420                           ;	unspecified, using default values
  3421  20000A                     	org	2097162
  3422  20000A  0FFF               	dw	4095
  3423                           
  3424                           ;Config register IDLOC6 @ 0x20000C
  3425                           ;	unspecified, using default values
  3426  20000C                     	org	2097164
  3427  20000C  0FFF               	dw	4095
  3428                           
  3429                           ;Config register IDLOC7 @ 0x20000E
  3430                           ;	unspecified, using default values
  3431  20000E                     	org	2097166
  3432  20000E  0FFF               	dw	4095
  3433                           
  3434                           ;Config register IDLOC8 @ 0x200010
  3435                           ;	unspecified, using default values
  3436  200010                     	org	2097168
  3437  200010  0FFF               	dw	4095
  3438                           
  3439                           ;Config register IDLOC9 @ 0x200012
  3440                           ;	unspecified, using default values
  3441  200012                     	org	2097170
  3442  200012  0FFF               	dw	4095
  3443                           
  3444                           ;Config register IDLOC10 @ 0x200014
  3445                           ;	unspecified, using default values
  3446  200014                     	org	2097172
  3447  200014  0FFF               	dw	4095
  3448                           
  3449                           ;Config register IDLOC11 @ 0x200016
  3450                           ;	unspecified, using default values
  3451  200016                     	org	2097174
  3452  200016  0FFF               	dw	4095
  3453                           
  3454                           ;Config register IDLOC12 @ 0x200018
  3455                           ;	unspecified, using default values
  3456  200018                     	org	2097176
  3457  200018  0FFF               	dw	4095
  3458                           
  3459                           ;Config register IDLOC13 @ 0x20001A
  3460                           ;	unspecified, using default values
  3461  20001A                     	org	2097178
  3462  20001A  0FFF               	dw	4095
  3463                           
  3464                           ;Config register IDLOC14 @ 0x20001C
  3465                           ;	unspecified, using default values
  3466  20001C                     	org	2097180
  3467  20001C  0FFF               	dw	4095
  3468                           
  3469                           ;Config register IDLOC15 @ 0x20001E
  3470                           ;	unspecified, using default values
  3471  20001E                     	org	2097182
  3472  20001E  0FFF               	dw	4095
  3473                           
  3474                           ;Config register IDLOC16 @ 0x200020
  3475                           ;	unspecified, using default values
  3476  200020                     	org	2097184
  3477  200020  0FFF               	dw	4095
  3478                           
  3479                           ;Config register IDLOC17 @ 0x200022
  3480                           ;	unspecified, using default values
  3481  200022                     	org	2097186
  3482  200022  0FFF               	dw	4095
  3483                           
  3484                           ;Config register IDLOC18 @ 0x200024
  3485                           ;	unspecified, using default values
  3486  200024                     	org	2097188
  3487  200024  0FFF               	dw	4095
  3488                           
  3489                           ;Config register IDLOC19 @ 0x200026
  3490                           ;	unspecified, using default values
  3491  200026                     	org	2097190
  3492  200026  0FFF               	dw	4095
  3493                           
  3494                           ;Config register IDLOC20 @ 0x200028
  3495                           ;	unspecified, using default values
  3496  200028                     	org	2097192
  3497  200028  0FFF               	dw	4095
  3498                           
  3499                           ;Config register IDLOC21 @ 0x20002A
  3500                           ;	unspecified, using default values
  3501  20002A                     	org	2097194
  3502  20002A  0FFF               	dw	4095
  3503                           
  3504                           ;Config register IDLOC22 @ 0x20002C
  3505                           ;	unspecified, using default values
  3506  20002C                     	org	2097196
  3507  20002C  0FFF               	dw	4095
  3508                           
  3509                           ;Config register IDLOC23 @ 0x20002E
  3510                           ;	unspecified, using default values
  3511  20002E                     	org	2097198
  3512  20002E  0FFF               	dw	4095
  3513                           
  3514                           ;Config register IDLOC24 @ 0x200030
  3515                           ;	unspecified, using default values
  3516  200030                     	org	2097200
  3517  200030  0FFF               	dw	4095
  3518                           
  3519                           ;Config register IDLOC25 @ 0x200032
  3520                           ;	unspecified, using default values
  3521  200032                     	org	2097202
  3522  200032  0FFF               	dw	4095
  3523                           
  3524                           ;Config register IDLOC26 @ 0x200034
  3525                           ;	unspecified, using default values
  3526  200034                     	org	2097204
  3527  200034  0FFF               	dw	4095
  3528                           
  3529                           ;Config register IDLOC27 @ 0x200036
  3530                           ;	unspecified, using default values
  3531  200036                     	org	2097206
  3532  200036  0FFF               	dw	4095
  3533                           
  3534                           ;Config register IDLOC28 @ 0x200038
  3535                           ;	unspecified, using default values
  3536  200038                     	org	2097208
  3537  200038  0FFF               	dw	4095
  3538                           
  3539                           ;Config register IDLOC29 @ 0x20003A
  3540                           ;	unspecified, using default values
  3541  20003A                     	org	2097210
  3542  20003A  0FFF               	dw	4095
  3543                           
  3544                           ;Config register IDLOC30 @ 0x20003C
  3545                           ;	unspecified, using default values
  3546  20003C                     	org	2097212
  3547  20003C  0FFF               	dw	4095
  3548                           
  3549                           ;Config register IDLOC31 @ 0x20003E
  3550                           ;	unspecified, using default values
  3551  20003E                     	org	2097214
  3552  20003E  0FFF               	dw	4095
  3553                           
  3554                           	psect	config
  3555                           
  3556                           ;Config register CONFIG1 @ 0x300000
  3557                           ;	External Oscillator Selection
  3558                           ;	FEXTOSC = HS, HS (crystal oscillator) above 8 MHz
  3559                           ;	Reset Oscillator Selection
  3560                           ;	RSTOSC = EXTOSC, EXTOSC operating per FEXTOSC bits (device manufacturing default)
  3561  300000                     	org	3145728
  3562  300000  FA                 	db	250
  3563                           
  3564                           ;Config register CONFIG2 @ 0x300001
  3565                           ;	Clock out Enable bit
  3566                           ;	CLKOUTEN = OFF, CLKOUT function is disabled
  3567                           ;	PRLOCKED One-Way Set Enable bit
  3568                           ;	PR1WAY = ON, PRLOCKED bit can be cleared and set only once
  3569                           ;	Clock Switch Enable bit
  3570                           ;	CSWEN = ON, Writing to NOSC and NDIV is allowed
  3571                           ;	JTAG Enable bit
  3572                           ;	JTAGEN = ON, Enable JTAG Boundary Scan mode and pins
  3573                           ;	Fail-Safe Clock Monitor Enable bit
  3574                           ;	FCMEN = ON, Fail-Safe Clock Monitor enabled
  3575                           ;	Fail-Safe Clock Monitor -Primary XTAL Enable bit
  3576                           ;	FCMENP = ON, FSCM timer will set FSCMP bit and OSFIF interrupt on Primary XTAL failure
  3577                           ;	Fail-Safe Clock Monitor -Secondary XTAL Enable bit
  3578                           ;	FCMENS = ON, FSCM timer will set FSCMS bit and OSFIF interrupt on Secondary XTAL failu
      +                          re
  3579  300001                     	org	3145729
  3580  300001  FF                 	db	255
  3581                           
  3582                           ;Config register CONFIG3 @ 0x300002
  3583                           ;	MCLR Enable bit
  3584                           ;	MCLRE = EXTMCLR, If LVP = 0, MCLR pin is MCLR; If LVP = 1, RE3 pin function is MCLR
  3585                           ;	Power-up timer selection bits
  3586                           ;	PWRTS = PWRT_OFF, PWRT is disabled
  3587                           ;	Multi-vector enable bit
  3588                           ;	MVECEN = OFF, Interrupt contoller does not use vector table to prioritze interrupts
  3589                           ;	IVTLOCK bit One-way set enable bit
  3590                           ;	IVT1WAY = ON, IVTLOCKED bit can be cleared and set only once
  3591                           ;	Low Power BOR Enable bit
  3592                           ;	LPBOREN = OFF, Low-Power BOR disabled
  3593                           ;	Brown-out Reset Enable bits
  3594                           ;	BOREN = SBORDIS, Brown-out Reset enabled , SBOREN bit is ignored
  3595  300002                     	org	3145730
  3596  300002  F7                 	db	247
  3597                           
  3598                           ;Config register CONFIG4 @ 0x300003
  3599                           ;	Brown-out Reset Voltage Selection bits
  3600                           ;	BORV = VBOR_1P9, Brown-out Reset Voltage (VBOR) set to 1.9V
  3601                           ;	ZCD Disable bit
  3602                           ;	ZCD = OFF, ZCD module is disabled. ZCD can be enabled by setting the ZCDSEN bit of ZCD
      +                          CON
  3603                           ;	PPSLOCK bit One-Way Set Enable bit
  3604                           ;	PPS1WAY = ON, PPSLOCKED bit can be cleared and set only once; PPS registers remain loc
      +                          ked after one clear/set cycle
  3605                           ;	Stack Full/Underflow Reset Enable bit
  3606                           ;	STVREN = ON, Stack full/underflow will cause Reset
  3607                           ;	Low Voltage Programming Enable bit
  3608                           ;	LVP = ON, Low voltage programming enabled. MCLR/VPP pin function is MCLR. MCLRE config
      +                          uration bit is ignored
  3609                           ;	Extended Instruction Set Enable bit
  3610                           ;	XINST = OFF, Extended Instruction Set and Indexed Addressing Mode disabled
  3611  300003                     	org	3145731
  3612  300003  FF                 	db	255
  3613                           
  3614                           ;Config register CONFIG5 @ 0x300004
  3615                           ;	WDT Period selection bits
  3616                           ;	WDTCPS = WDTCPS_31, Divider ratio 1:65536; software control of WDTPS
  3617                           ;	WDT operating mode
  3618                           ;	WDTE = OFF, WDT Disabled; SWDTEN is ignored
  3619  300004                     	org	3145732
  3620  300004  9F                 	db	159
  3621                           
  3622                           ;Config register CONFIG6 @ 0x300005
  3623                           ;	WDT Window Select bits
  3624                           ;	WDTCWS = WDTCWS_7, window always open (100%); software control; keyed access not requi
      +                          red
  3625                           ;	WDT input clock selector
  3626                           ;	WDTCCS = SC, Software Control
  3627  300005                     	org	3145733
  3628  300005  FF                 	db	255
  3629                           
  3630                           ;Config register CONFIG7 @ 0x300006
  3631                           ;	Boot Block Size selection bits
  3632                           ;	BBSIZE = BBSIZE_512, Boot Block size is 512 words
  3633                           ;	Boot Block enable bit
  3634                           ;	BBEN = OFF, Boot block disabled
  3635                           ;	Storage Area Flash enable bit
  3636                           ;	SAFEN = OFF, SAF disabled
  3637  300006                     	org	3145734
  3638  300006  FF                 	db	255
  3639                           
  3640                           ;Config register CONFIG8 @ 0x300007
  3641                           ;	Boot Block Write Protection bit
  3642                           ;	WRTB = OFF, Boot Block not Write protected
  3643                           ;	Configuration Register Write Protection bit
  3644                           ;	WRTC = OFF, Configuration registers not Write protected
  3645                           ;	Data EEPROM Write Protection bit
  3646                           ;	WRTD = OFF, Data EEPROM not Write protected
  3647                           ;	SAF Write protection bit
  3648                           ;	WRTSAF = OFF, SAF not Write Protected
  3649                           ;	Application Block write protection bit
  3650                           ;	WRTAPP = OFF, Application Block not write protected
  3651  300007                     	org	3145735
  3652  300007  FF                 	db	255
  3653                           
  3654                           ;Config register CONFIG9 @ 0x300008
  3655                           ;	CRC on boot output pin selection
  3656                           ;	BOOTPINSEL = RC5, CRC on boot output pin is RC5
  3657                           ;	CRC on boot output pin enable bit
  3658                           ;	BPEN = OFF, CRC on boot output pin disabled
  3659                           ;	CRC on boot output pin open drain bit
  3660                           ;	ODCON = OFF, Pin drives both high-going and low-going signals
  3661  300008                     	org	3145736
  3662  300008  FF                 	db	255
  3663                           
  3664                           ;Config register CONFIG10 @ 0x300009
  3665                           ;	PFM and Data EEPROM Code Protection bit
  3666                           ;	CP = OFF, PFM and Data EEPROM code protection disabled
  3667  300009                     	org	3145737
  3668  300009  FF                 	db	255
  3669                           
  3670                           ;Config register CONFIG11 @ 0x30000A
  3671                           ;	CRC on boot scan enable for boot area
  3672                           ;	BOOTSCEN = OFF, CRC on boot will not include the boot area of program memory in its ca
      +                          lculation
  3673                           ;	CRC on boot Continue on Error for boot areas bit
  3674                           ;	BOOTCOE = HALT, CRC on boot will stop device if error is detected in boot areas
  3675                           ;	CRC on boot application code scan enable
  3676                           ;	APPSCEN = OFF, CRC on boot will not include the application area of program memory in 
      +                          its calculation
  3677                           ;	CRC on boot SAF area scan enable
  3678                           ;	SAFSCEN = OFF, CRC on boot will not include the SAF area of program memory in its calc
      +                          ulation
  3679                           ;	CRC on boot Data EEPROM scan enable
  3680                           ;	DATASCEN = OFF, CRC on boot will not include data EEPROM in its calculation
  3681                           ;	CRC on boot Config fuses scan enable
  3682                           ;	CFGSCEN = OFF, CRC on boot will not include the configuration fuses in its calculation
  3683                           ;	CRC on boot Continue on Error for non-boot areas bit
  3684                           ;	COE = HALT, CRC on boot will stop device if error is detected in non-boot areas
  3685                           ;	Boot on CRC Enable bit
  3686                           ;	BOOTPOR = OFF, CRC on boot will not run
  3687  30000A                     	org	3145738
  3688  30000A  FF                 	db	255
  3689                           
  3690                           ;Config register CONFIG12 @ 0x30000B
  3691                           ;	Boot Sector Polynomial for CRC on boot bits 31-24
  3692                           ;	BCRCPOLT = hFF, Bits 31:24 of BCRCPOL are 0xFF
  3693  30000B                     	org	3145739
  3694  30000B  FF                 	db	255
  3695                           
  3696                           ;Config register CONFIG13 @ 0x30000C
  3697                           ;	Boot Sector Polynomial for CRC on boot bits 23-16
  3698                           ;	BCRCPOLU = hFF, Bits 23:16 of BCRCPOL are 0xFF
  3699  30000C                     	org	3145740
  3700  30000C  FF                 	db	255
  3701                           
  3702                           ;Config register CONFIG14 @ 0x30000D
  3703                           ;	Boot Sector Polynomial for CRC on boot bits 15-8
  3704                           ;	BCRCPOLH = hFF, Bits 15:8 of BCRCPOL are 0xFF
  3705  30000D                     	org	3145741
  3706  30000D  FF                 	db	255
  3707                           
  3708                           ;Config register CONFIG15 @ 0x30000E
  3709                           ;	Boot Sector Polynomial for CRC on boot bits 7-0
  3710                           ;	BCRCPOLL = hFF, Bits 7:0 of BCRCPOL are 0xFF
  3711  30000E                     	org	3145742
  3712  30000E  FF                 	db	255
  3713                           
  3714                           ;Config register CONFIG16 @ 0x30000F
  3715                           ;	Boot Sector Seed for CRC on boot bits 31-24
  3716                           ;	BCRCSEEDT = hFF, Bits 31:24 of BCRCSEED are 0xFF
  3717  30000F                     	org	3145743
  3718  30000F  FF                 	db	255
  3719                           
  3720                           ;Config register CONFIG17 @ 0x300010
  3721                           ;	Boot Sector Seed for CRC on boot bits 23-16
  3722                           ;	BCRCSEEDU = hFF, Bits 23:16 of BCRCSEED are 0xFF
  3723  300010                     	org	3145744
  3724  300010  FF                 	db	255
  3725                           
  3726                           ;Config register CONFIG18 @ 0x300011
  3727                           ;	Boot Sector Seed for CRC on boot bits 15-8
  3728                           ;	BCRCSEEDH = hFF, Bits 15:8 of BCRCSEED are 0xFF
  3729  300011                     	org	3145745
  3730  300011  FF                 	db	255
  3731                           
  3732                           ;Config register CONFIG19 @ 0x300012
  3733                           ;	Boot Sector Seed for CRC on boot bits 7-0
  3734                           ;	BCRCSEEDL = hFF, Bits 7:0 of BCRCSEED are 0xFF
  3735  300012                     	org	3145746
  3736  300012  FF                 	db	255
  3737                           
  3738                           ;Config register CONFIG20 @ 0x300013
  3739                           ;	unspecified, using default values
  3740                           ;	Boot Sector Expected Result for CRC on boot bits 31-24
  3741                           ;	BCRCEREST = 0xFF, unprogrammed default
  3742  300013                     	org	3145747
  3743  300013  FF                 	db	255
  3744                           
  3745                           ;Config register CONFIG21 @ 0x300014
  3746                           ;	unspecified, using default values
  3747                           ;	Boot Sector Expected Result for CRC on boot bits 23-16
  3748                           ;	BCRCERESU = 0xFF, unprogrammed default
  3749  300014                     	org	3145748
  3750  300014  FF                 	db	255
  3751                           
  3752                           ;Config register CONFIG22 @ 0x300015
  3753                           ;	unspecified, using default values
  3754                           ;	Boot Sector Expected Result for CRC on boot bits 15-8
  3755                           ;	BCRCERESH = 0xFF, unprogrammed default
  3756  300015                     	org	3145749
  3757  300015  FF                 	db	255
  3758                           
  3759                           ;Config register CONFIG23 @ 0x300016
  3760                           ;	unspecified, using default values
  3761                           ;	Boot Sector Expected Result for CRC on boot bits 7-0
  3762                           ;	BCRCERESL = 0xFF, unprogrammed default
  3763  300016                     	org	3145750
  3764  300016  FF                 	db	255
  3765                           
  3766                           ;Config register CONFIG24 @ 0x300017
  3767                           ;	Non-Boot Sector Polynomial for CRC on boot bits 31-24
  3768                           ;	CRCPOLT = hFF, Bits 31:24 of CRCPOL are 0xFF
  3769  300017                     	org	3145751
  3770  300017  FF                 	db	255
  3771                           
  3772                           ;Config register CONFIG25 @ 0x300018
  3773                           ;	Non-Boot Sector Polynomial for CRC on boot bits 23-16
  3774                           ;	CRCPOLU = hFF, Bits 23:16 of CRCPOL are 0xFF
  3775  300018                     	org	3145752
  3776  300018  FF                 	db	255
  3777                           
  3778                           ;Config register CONFIG26 @ 0x300019
  3779                           ;	Non-Boot Sector Polynomial for CRC on boot bits 15-8
  3780                           ;	CRCPOLH = hFF, Bits 15:8 of CRCPOL are 0xFF
  3781  300019                     	org	3145753
  3782  300019  FF                 	db	255
  3783                           
  3784                           ;Config register CONFIG27 @ 0x30001A
  3785                           ;	Non-Boot Sector Polynomial for CRC on boot bits 7-0
  3786                           ;	CRCPOLL = hFF, Bits 7:0 of CRCPOL are 0xFF
  3787  30001A                     	org	3145754
  3788  30001A  FF                 	db	255
  3789                           
  3790                           ;Config register CONFIG28 @ 0x30001B
  3791                           ;	Non-Boot Sector Seed for CRC on boot bits 31-24
  3792                           ;	CRCSEEDT = hFF, Bits 31:24 of CRCSEED are 0xFF
  3793  30001B                     	org	3145755
  3794  30001B  FF                 	db	255
  3795                           
  3796                           ;Config register CONFIG29 @ 0x30001C
  3797                           ;	Non-Boot Sector Seed for CRC on boot bits 23-16
  3798                           ;	CRCSEEDU = hFF, Bits 23:16 of CRCSEED are 0xFF
  3799  30001C                     	org	3145756
  3800  30001C  FF                 	db	255
  3801                           
  3802                           ;Config register CONFIG30 @ 0x30001D
  3803                           ;	Non-Boot Sector Seed for CRC on boot bits 15-8
  3804                           ;	CRCSEEDH = hFF, Bits 15:8 of CRCSEED are 0xFF
  3805  30001D                     	org	3145757
  3806  30001D  FF                 	db	255
  3807                           
  3808                           ;Config register CONFIG31 @ 0x30001E
  3809                           ;	Non-Boot Sector Seed for CRC on boot bits 7-0
  3810                           ;	CRCSEEDL = hFF, Bits 7:0 of CRCSEED are 0xFF
  3811  30001E                     	org	3145758
  3812  30001E  FF                 	db	255
  3813                           
  3814                           ;Config register CONFIG32 @ 0x30001F
  3815                           ;	unspecified, using default values
  3816                           ;	Non-Boot Sector Expected Result for CRC on boot bits 31-24
  3817                           ;	CRCEREST = 0xFF, unprogrammed default
  3818  30001F                     	org	3145759
  3819  30001F  FF                 	db	255
  3820                           
  3821                           ;Config register CONFIG33 @ 0x300020
  3822                           ;	unspecified, using default values
  3823                           ;	Non-Boot Sector Expected Result for CRC on boot bits 23-16
  3824                           ;	CRCERESU = 0xFF, unprogrammed default
  3825  300020                     	org	3145760
  3826  300020  FF                 	db	255
  3827                           
  3828                           ;Config register CONFIG34 @ 0x300021
  3829                           ;	unspecified, using default values
  3830                           ;	Non-Boot Sector Expected Result for CRC on boot bits 15-8
  3831                           ;	CRCERESH = 0xFF, unprogrammed default
  3832  300021                     	org	3145761
  3833  300021  FF                 	db	255
  3834                           
  3835                           ;Config register CONFIG35 @ 0x300022
  3836                           ;	unspecified, using default values
  3837                           ;	Non-Boot Sector Expected Result for CRC on boot bits 7-0
  3838                           ;	CRCERESL = 0xFF, unprogrammed default
  3839  300022                     	org	3145762
  3840  300022  FF                 	db	255
  3841                           
  3842                           ; Padding undefined space
  3843  300023                     	org	3145763
  3844  300023  FF                 	db	255
  3845                           tosu	equ	0x4FF
  3846                           tosh	equ	0x4FE
  3847                           tosl	equ	0x4FD
  3848                           stkptr	equ	0x4FC
  3849                           pclatu	equ	0x4FB
  3850                           pclath	equ	0x4FA
  3851                           pcl	equ	0x4F9
  3852                           tblptru	equ	0x4F8
  3853                           tblptrh	equ	0x4F7
  3854                           tblptrl	equ	0x4F6
  3855                           tablat	equ	0x4F5
  3856                           prodh	equ	0x4F4
  3857                           prodl	equ	0x4F3
  3858                           indf0	equ	0x4EF
  3859                           postinc0	equ	0x4EE
  3860                           postdec0	equ	0x4ED
  3861                           preinc0	equ	0x4EC
  3862                           plusw0	equ	0x4EB
  3863                           fsr0h	equ	0x4EA
  3864                           fsr0l	equ	0x4E9
  3865                           wreg	equ	0x4E8
  3866                           indf1	equ	0x4E7
  3867                           postinc1	equ	0x4E6
  3868                           postdec1	equ	0x4E5
  3869                           preinc1	equ	0x4E4
  3870                           plusw1	equ	0x4E3
  3871                           fsr1h	equ	0x4E2
  3872                           fsr1l	equ	0x4E1
  3873                           bsr	equ	0x4E0
  3874                           indf2	equ	0x4DF
  3875                           postinc2	equ	0x4DE
  3876                           postdec2	equ	0x4DD
  3877                           preinc2	equ	0x4DC
  3878                           plusw2	equ	0x4DB
  3879                           fsr2h	equ	0x4DA
  3880                           fsr2l	equ	0x4D9
  3881                           status	equ	0x4D8

Data Sizes:
    Strings     19
    Constant    57
    Data        7
    BSS         83
    Persistent  18
    Stack       0

Auto Spaces:
    Space          Size  Autos    Used
    COMRAM           95     61      95
    BANK5           160    100     142
    BANK6           256      0      32
    BANK7           256      0       0
    BANK8           256      0       0
    BANK9           256      0       0
    BANK10          256      0       0
    BANK11          256      0       0
    BANK12          256      0       0
    BANK13          256      0       0
    BANK14          256      0       0
    BANK15          256      0       0
    BANK16          256      0       0
    BANK17          256      0       0
    BANK18          256      0       0
    BANK19          256      0       0
    BANK20          256      0       0
    BANK21          256      0       0
    BANK22          256      0       0
    BANK23          256      0       0
    BANK24          256      0       0
    BANK25          256      0       0
    BANK26          256      0       0
    BANK27          256      0       0
    BANK28          256      0       0
    BANK29          256      0       0
    BANK30          256      0       0
    BANK31          256      0       0
    BANK32          256      0       0
    BANK33          256      0       0
    BANK34          256      0       0
    BANK35          256      0       0
    BANK36          256      0       0
    BANK37          256      0       0
    BANK38          256      0       0
    BANK39          256      0       0
    BANK40          256      0       0
    BANK41          256      0       0
    BANK42          256      0       0
    BANK43          256      0       0
    BANK44          256      0       0
    BANK45          256      0       0
    BANK46          256      0       0
    BANK47          256      0       0
    BANK48          256      0       0
    BANK49          256      0       0
    BANK50          256      0       0
    BANK51          256      0       0
    BANK52          256      0       0
    BANK53          256      0       0
    BANK54          256      0       0

Pointer List with Targets:

    I2C1_Read1ByteRegister@returnValue.data	PTR unsigned char  size(2) Largest target is 0

    I2C1_Read2ByteRegister@returnValue.data	PTR unsigned char  size(2) Largest target is 0

    I2C1_Write1ByteRegister@data.data	PTR unsigned char  size(2) Largest target is 0

    I2C1_Write2ByteRegister@data.data	PTR unsigned char  size(2) Largest target is 0

    I2C1_DO_TX$2818$0	PTR void  size(2) Largest target is 5
		 -> I2C1_ReadDataBlock@bufferBlock(COMRAM[4]), I2C1_Write2ByteRegister@data(COMRAM[2]), I2C1_Write1ByteRegister@data(COMRAM[1]), I2C1_Read2ByteRegister@returnValue(COMRAM[2]), 
		 -> NULL(NULL[0]), I2C1_Read1ByteRegister@returnValue(COMRAM[1]), 

    I2C1_DO_TX_EMPTY$2824$0	PTR void  size(2) Largest target is 5
		 -> I2C1_ReadDataBlock@bufferBlock(COMRAM[4]), I2C1_Write2ByteRegister@data(COMRAM[2]), I2C1_Write1ByteRegister@data(COMRAM[1]), I2C1_Read2ByteRegister@returnValue(COMRAM[2]), 
		 -> NULL(NULL[0]), I2C1_Read1ByteRegister@returnValue(COMRAM[1]), 

    I2C1_DO_RX_EMPTY$2830$0	PTR void  size(2) Largest target is 5
		 -> I2C1_ReadDataBlock@bufferBlock(COMRAM[4]), I2C1_Write2ByteRegister@data(COMRAM[2]), I2C1_Write1ByteRegister@data(COMRAM[1]), I2C1_Read2ByteRegister@returnValue(COMRAM[2]), 
		 -> NULL(NULL[0]), I2C1_Read1ByteRegister@returnValue(COMRAM[1]), 

    cb$0	PTR void  size(2) Largest target is 5
		 -> I2C1_ReadDataBlock@bufferBlock(COMRAM[4]), I2C1_Write2ByteRegister@data(COMRAM[2]), I2C1_Write1ByteRegister@data(COMRAM[1]), I2C1_Read2ByteRegister@returnValue(COMRAM[2]), 
		 -> NULL(NULL[0]), I2C1_Read1ByteRegister@returnValue(COMRAM[1]), 

    Absolute function$0	PTR void  size(2) Largest target is 5
		 -> I2C1_ReadDataBlock@bufferBlock(COMRAM[4]), I2C1_Write2ByteRegister@data(COMRAM[2]), I2C1_Write1ByteRegister@data(COMRAM[1]), I2C1_Read2ByteRegister@returnValue(COMRAM[2]), 
		 -> NULL(NULL[0]), I2C1_Read1ByteRegister@returnValue(COMRAM[1]), 

    cb$0	PTR void  size(2) Largest target is 5
		 -> I2C1_ReadDataBlock@bufferBlock(COMRAM[4]), I2C1_Write2ByteRegister@data(COMRAM[2]), I2C1_Write1ByteRegister@data(COMRAM[1]), I2C1_Read2ByteRegister@returnValue(COMRAM[2]), 
		 -> NULL(NULL[0]), I2C1_Read1ByteRegister@returnValue(COMRAM[1]), 

    S1159$0$0	PTR void  size(2) Largest target is 5
		 -> I2C1_ReadDataBlock@bufferBlock(COMRAM[4]), I2C1_Write2ByteRegister@data(COMRAM[2]), I2C1_Write1ByteRegister@data(COMRAM[1]), I2C1_Read2ByteRegister@returnValue(COMRAM[2]), 
		 -> NULL(NULL[0]), I2C1_Read1ByteRegister@returnValue(COMRAM[1]), 

    strlen@s	PTR const unsigned char  size(2) Largest target is 7
		 -> stoa@nuls(COMRAM[7]), ?_printf(COMRAM[2]), main@cadena(BANK5[100]), 

    strlen@a	PTR const unsigned char  size(2) Largest target is 7
		 -> stoa@nuls(COMRAM[7]), ?_printf(COMRAM[2]), main@cadena(BANK5[100]), 

    strcmp@r	PTR const unsigned char  size(2) Largest target is 8
		 -> STR_3(CODE[8]), STR_2(CODE[7]), 

    strcmp@l	PTR const unsigned char  size(2) Largest target is 100
		 -> main@cadena(BANK5[100]), 

    S2348_IO_FILE$buffer	PTR unsigned char  size(2) Largest target is 0

    fputc@fp.buffer	PTR unsigned char  size(2) Largest target is 0

    fputc@fp	PTR struct _IO_FILE size(2) Largest target is 0
		 -> NULL(NULL[0]), 

    vfprintf@ap	PTR PTR void  size(2) Largest target is 2
		 -> printf@ap(COMRAM[2]), 

    vfprintf@fp	PTR struct _IO_FILE size(2) Largest target is 0
		 -> NULL(NULL[0]), 

    vfprintf@fmt	PTR const unsigned char  size(2) Largest target is 4
		 -> STR_1(CODE[4]), 

    vfprintf@cfmt	PTR unsigned char  size(2) Largest target is 4
		 -> STR_1(CODE[4]), 

    vfpfcnvrt@fp	PTR struct _IO_FILE size(2) Largest target is 0
		 -> NULL(NULL[0]), 

    vfpfcnvrt@ap	PTR PTR void  size(2) Largest target is 2
		 -> printf@ap(COMRAM[2]), 

    vfpfcnvrt@cp	PTR unsigned char  size(2) Largest target is 2
		 -> ?_printf(COMRAM[2]), main@cadena(BANK5[100]), 

    vfpfcnvrt@fmt	PTR PTR unsigned char  size(2) Largest target is 2
		 -> vfprintf@cfmt(COMRAM[2]), 

    stoa@fp	PTR struct _IO_FILE size(2) Largest target is 0
		 -> NULL(NULL[0]), 

    stoa@s	PTR unsigned char  size(2) Largest target is 2
		 -> ?_printf(COMRAM[2]), main@cadena(BANK5[100]), 

    stoa@cp	PTR unsigned char  size(2) Largest target is 7
		 -> stoa@nuls(COMRAM[7]), ?_printf(COMRAM[2]), main@cadena(BANK5[100]), 

    printf@fmt	PTR const unsigned char  size(2) Largest target is 4
		 -> STR_1(CODE[4]), 

    printf@ap	PTR void [1] size(2) Largest target is 2
		 -> ?_printf(COMRAM[2]), 

    leer_serial@ptrCadena	PTR unsigned char  size(2) Largest target is 100
		 -> main@cadena(BANK5[100]), 

    S1159$data_ptr	PTR unsigned char  size(2) Largest target is 5
		 -> I2C1_ReadDataBlock@reg(COMRAM[1]), I2C1_ReadDataBlock@bufferBlock(COMRAM[4]), I2C1_Write2ByteRegister@reg(COMRAM[1]), I2C1_Write2ByteRegister@data(COMRAM[2]), 
		 -> I2C1_Write1ByteRegister@reg(COMRAM[1]), I2C1_Write1ByteRegister@data(COMRAM[1]), I2C1_Read2ByteRegister@reg(COMRAM[1]), I2C1_Read2ByteRegister@returnValue(COMRAM[2]), 
		 -> NULL(NULL[0]), I2C1_Read1ByteRegister@reg(COMRAM[1]), I2C1_Read1ByteRegister@returnValue(COMRAM[1]), 

    I2C1_Status.data_ptr	PTR unsigned char  size(2) Largest target is 5
		 -> I2C1_ReadDataBlock@reg(COMRAM[1]), I2C1_ReadDataBlock@bufferBlock(COMRAM[4]), I2C1_Write2ByteRegister@reg(COMRAM[1]), I2C1_Write2ByteRegister@data(COMRAM[2]), 
		 -> I2C1_Write1ByteRegister@reg(COMRAM[1]), I2C1_Write1ByteRegister@data(COMRAM[1]), I2C1_Read2ByteRegister@reg(COMRAM[1]), I2C1_Read2ByteRegister@returnValue(COMRAM[2]), 
		 -> NULL(NULL[0]), I2C1_Read1ByteRegister@reg(COMRAM[1]), I2C1_Read1ByteRegister@returnValue(COMRAM[1]), 

    S1159$callbackPayload	PTR void [6] size(2) Largest target is 5
		 -> I2C1_ReadDataBlock@bufferBlock(COMRAM[4]), I2C1_Write2ByteRegister@data(COMRAM[2]), I2C1_Write1ByteRegister@data(COMRAM[1]), I2C1_Read2ByteRegister@returnValue(COMRAM[2]), 
		 -> NULL(NULL[0]), I2C1_Read1ByteRegister@returnValue(COMRAM[1]), 

    I2C1_Status.callbackPayload	PTR void [6] size(2) Largest target is 5
		 -> I2C1_ReadDataBlock@bufferBlock(COMRAM[4]), I2C1_Write2ByteRegister@data(COMRAM[2]), I2C1_Write1ByteRegister@data(COMRAM[1]), I2C1_Read2ByteRegister@returnValue(COMRAM[2]), 
		 -> NULL(NULL[0]), I2C1_Read1ByteRegister@returnValue(COMRAM[1]), 

    S1159$callbackTable	PTR FTN(PTR void ,)enum E360[6] size(3) Largest target is 1
		 -> I2C1_CallbackReturnReset(), I2C1_CallbackReturnStop(), Absolute function(), rdBlkRegCompleteHandler(), 
		 -> wr2RegCompleteHandler(), wr1RegCompleteHandler(), rd2RegCompleteHandler(), rd1RegCompleteHandler(), 

    I2C1_Status.callbackTable	PTR FTN(PTR void ,)enum E360[6] size(3) Largest target is 1
		 -> I2C1_CallbackReturnReset(), I2C1_CallbackReturnStop(), Absolute function(), rdBlkRegCompleteHandler(), 
		 -> wr2RegCompleteHandler(), wr1RegCompleteHandler(), rd2RegCompleteHandler(), rd1RegCompleteHandler(), 

    i2c1_fsmStateTable	const PTR FTN()enum E23252[19] size(3) Largest target is 1
		 -> I2C1_DO_BUS_ERROR(), I2C1_DO_BUS_COLLISION(), I2C1_DO_ADDRESS_NACK(), I2C1_DO_RESET(), 
		 -> I2C1_DO_RX_NACK_RESTART(), I2C1_DO_RX_NACK_STOP(), I2C1_DO_TX_ACK(), I2C1_DO_RX_ACK(), 
		 -> I2C1_DO_SEND_STOP(), I2C1_DO_SEND_RESTART(), I2C1_DO_SEND_RESTART_WRITE(), I2C1_DO_SEND_RESTART_READ(), 
		 -> I2C1_DO_RX_EMPTY(), I2C1_DO_TX_EMPTY(), I2C1_DO_RX(), I2C1_DO_TX(), 
		 -> I2C1_DO_SEND_ADR_WRITE(), I2C1_DO_SEND_ADR_READ(), I2C1_DO_IDLE(), 

    ADC_SetActiveClockTuningInterruptHandler@InterruptHandler	PTR FTN()void  size(3) Largest target is 1
		 -> ADC_DefaultActiveClockTuning_ISR(), 

    ADC_SetContext1ThresholdInterruptHandler@InterruptHandler	PTR FTN()void  size(3) Largest target is 1
		 -> ADC_DefaultContext1Threshold_ISR(), 

    ADC_SetADIInterruptHandler@InterruptHandler	PTR FTN()void  size(3) Largest target is 1
		 -> ADC_DefaultADI_ISR(), 

    ADC_Context1Thereshld_ISR	PTR FTN()void  size(3) Largest target is 1
		 -> Absolute function(), ADC_DefaultContext1Threshold_ISR(), 

    ADC_ActiveClockTuning_ISR	PTR FTN()void  size(3) Largest target is 1
		 -> Absolute function(), ADC_DefaultActiveClockTuning_ISR(), 

    ADC_ConversionComplete_ISR	PTR FTN()void  size(3) Largest target is 1
		 -> Absolute function(), ADC_DefaultADI_ISR(), 

    UART1_SetErrorHandler@interruptHandler	PTR FTN()void  size(3) Largest target is 1
		 -> UART1_DefaultErrorHandler(), 

    UART1_SetOverrunErrorHandler@interruptHandler	PTR FTN()void  size(3) Largest target is 1
		 -> UART1_DefaultOverrunErrorHandler(), 

    UART1_SetFramingErrorHandler@interruptHandler	PTR FTN()void  size(3) Largest target is 1
		 -> UART1_DefaultFramingErrorHandler(), 

    UART1_ErrorHandler	PTR FTN()void  size(3) Largest target is 1
		 -> Absolute function(), UART1_DefaultErrorHandler(), 

    UART1_OverrunErrorHandler	PTR FTN()void  size(3) Largest target is 1
		 -> Absolute function(), UART1_DefaultOverrunErrorHandler(), 

    UART1_FramingErrorHandler	PTR FTN()void  size(3) Largest target is 1
		 -> Absolute function(), UART1_DefaultFramingErrorHandler(), 

    rdBlkRegCompleteHandler@ptr.data	PTR unsigned char  size(2) Largest target is 0

    S96$data	PTR unsigned char  size(2) Largest target is 0

    bufferBlock.data	PTR unsigned char  size(2) Largest target is 0


Critical Paths under _main in COMRAM

    _main->_printf
    _printf->_vfprintf
    _vfprintf->_vfpfcnvrt
    _vfpfcnvrt->_stoa
    _stoa->_fputc
    _fputc->_putch
    _putch->_UART1_Write
    _UART1_Initialize->_UART1_SetErrorHandler
    _UART1_Initialize->_UART1_SetFramingErrorHandler
    _UART1_Initialize->_UART1_SetOverrunErrorHandler
    _ADC_Initialize->_ADC_SetADIInterruptHandler
    _ADC_Initialize->_ADC_SetActiveClockTuningInterruptHandler
    _ADC_Initialize->_ADC_SetContext1ThresholdInterruptHandler

Critical Paths under _main in BANK5

    None.

Critical Paths under _main in BANK6

    None.

Critical Paths under _main in BANK7

    None.

Critical Paths under _main in BANK8

    None.

Critical Paths under _main in BANK9

    None.

Critical Paths under _main in BANK10

    None.

Critical Paths under _main in BANK11

    None.

Critical Paths under _main in BANK12

    None.

Critical Paths under _main in BANK13

    None.

Critical Paths under _main in BANK14

    None.

Critical Paths under _main in BANK15

    None.

Critical Paths under _main in BANK16

    None.

Critical Paths under _main in BANK17

    None.

Critical Paths under _main in BANK18

    None.

Critical Paths under _main in BANK19

    None.

Critical Paths under _main in BANK20

    None.

Critical Paths under _main in BANK21

    None.

Critical Paths under _main in BANK22

    None.

Critical Paths under _main in BANK23

    None.

Critical Paths under _main in BANK24

    None.

Critical Paths under _main in BANK25

    None.

Critical Paths under _main in BANK26

    None.

Critical Paths under _main in BANK27

    None.

Critical Paths under _main in BANK28

    None.

Critical Paths under _main in BANK29

    None.

Critical Paths under _main in BANK30

    None.

Critical Paths under _main in BANK31

    None.

Critical Paths under _main in BANK32

    None.

Critical Paths under _main in BANK33

    None.

Critical Paths under _main in BANK34

    None.

Critical Paths under _main in BANK35

    None.

Critical Paths under _main in BANK36

    None.

Critical Paths under _main in BANK37

    None.

Critical Paths under _main in BANK38

    None.

Critical Paths under _main in BANK39

    None.

Critical Paths under _main in BANK40

    None.

Critical Paths under _main in BANK41

    None.

Critical Paths under _main in BANK42

    None.

Critical Paths under _main in BANK43

    None.

Critical Paths under _main in BANK44

    None.

Critical Paths under _main in BANK45

    None.

Critical Paths under _main in BANK46

    None.

Critical Paths under _main in BANK47

    None.

Critical Paths under _main in BANK48

    None.

Critical Paths under _main in BANK49

    None.

Critical Paths under _main in BANK50

    None.

Critical Paths under _main in BANK51

    None.

Critical Paths under _main in BANK52

    None.

Critical Paths under _main in BANK53

    None.

Critical Paths under _main in BANK54

    None.

Call Graph Tables:

 ---------------------------------------------------------------------------------
 (Depth) Function   	        Calls       Base Space   Used Autos Params    Refs
 ---------------------------------------------------------------------------------
 (0) _main                                               102   102      0    5572
                                             59 COMRAM     2     2      0
                                              0 BANK5    100   100      0
                  _SYSTEM_Initialize
                        _leer_serial
                             _printf
                             _strcmp
 ---------------------------------------------------------------------------------
 (1) _strcmp                                               5     1      4     416
                                              0 COMRAM     5     1      4
 ---------------------------------------------------------------------------------
 (1) _printf                                               8     4      4    4260
                                             51 COMRAM     8     4      4
                           _vfprintf
 ---------------------------------------------------------------------------------
 (2) _vfprintf                                             8     2      6    4130
                                             43 COMRAM     8     2      6
                          _vfpfcnvrt
 ---------------------------------------------------------------------------------
 (3) _vfpfcnvrt                                           41    35      6    3777
                                             33 COMRAM    10     4      6
                              _fputc
                               _stoa
 ---------------------------------------------------------------------------------
 (4) _stoa                                                22    18      4    2038
                                             11 COMRAM    22    18      4
                              _fputc
                             _strlen
 ---------------------------------------------------------------------------------
 (5) _strlen                                               4     2      2     229
                                              0 COMRAM     4     2      2
 ---------------------------------------------------------------------------------
 (5) _fputc                                                9     5      4    1202
                                              2 COMRAM     9     5      4
                              _putch
 ---------------------------------------------------------------------------------
 (6) _putch                                                1     1      0      30
                                              1 COMRAM     1     1      0
                        _UART1_Write
 ---------------------------------------------------------------------------------
 (7) _UART1_Write                                          1     1      0      15
                                              0 COMRAM     1     1      0
 ---------------------------------------------------------------------------------
 (1) _leer_serial                                          7     5      2     210
                                              0 COMRAM     7     5      2
                              _getch
 ---------------------------------------------------------------------------------
 (2) _getch                                                0     0      0       0
                         _UART1_Read
 ---------------------------------------------------------------------------------
 (3) _UART1_Read                                           0     0      0       0
                   Absolute function *
          _UART1_DefaultErrorHandler *
   _UART1_DefaultFramingErrorHandler *
   _UART1_DefaultOverrunErrorHandler *
 ---------------------------------------------------------------------------------
 (4) _UART1_DefaultOverrunErrorHandler                     0     0      0       0
 ---------------------------------------------------------------------------------
 (4) _UART1_DefaultFramingErrorHandler                     0     0      0       0
 ---------------------------------------------------------------------------------
 (4) _UART1_DefaultErrorHandler                            0     0      0       0
 ---------------------------------------------------------------------------------
 (4) Absolute function(Fake)                               2     0      2       0
 ---------------------------------------------------------------------------------
 (1) _SYSTEM_Initialize                                    0     0      0     588
                     _ADC_Initialize
                    _I2C1_Initialize
              _OSCILLATOR_Initialize
             _PIN_MANAGER_Initialize
                     _PMD_Initialize
                   _UART1_Initialize
 ---------------------------------------------------------------------------------
 (2) _UART1_Initialize                                     0     0      0     294
              _UART1_SetErrorHandler
       _UART1_SetFramingErrorHandler
       _UART1_SetOverrunErrorHandler
 ---------------------------------------------------------------------------------
 (3) _UART1_SetOverrunErrorHandler                         3     0      3      98
                                              0 COMRAM     3     0      3
 ---------------------------------------------------------------------------------
 (3) _UART1_SetFramingErrorHandler                         3     0      3      98
                                              0 COMRAM     3     0      3
 ---------------------------------------------------------------------------------
 (3) _UART1_SetErrorHandler                                3     0      3      98
                                              0 COMRAM     3     0      3
 ---------------------------------------------------------------------------------
 (2) _PMD_Initialize                                       0     0      0       0
 ---------------------------------------------------------------------------------
 (2) _PIN_MANAGER_Initialize                               0     0      0       0
 ---------------------------------------------------------------------------------
 (2) _OSCILLATOR_Initialize                                0     0      0       0
 ---------------------------------------------------------------------------------
 (2) _I2C1_Initialize                                      0     0      0       0
 ---------------------------------------------------------------------------------
 (2) _ADC_Initialize                                       0     0      0     294
         _ADC_SetADIInterruptHandler
_ADC_SetActiveClockTuningInterruptHa
_ADC_SetContext1ThresholdInterruptHa
 ---------------------------------------------------------------------------------
 (3) _ADC_SetContext1ThresholdInterruptHandler             3     0      3      98
                                              0 COMRAM     3     0      3
 ---------------------------------------------------------------------------------
 (3) _ADC_SetActiveClockTuningInterruptHandler             3     0      3      98
                                              0 COMRAM     3     0      3
 ---------------------------------------------------------------------------------
 (3) _ADC_SetADIInterruptHandler                           3     0      3      98
                                              0 COMRAM     3     0      3
 ---------------------------------------------------------------------------------
 Estimated maximum stack depth 7
 ---------------------------------------------------------------------------------

 Call Graph Graphs:

 _main (ROOT)
   _SYSTEM_Initialize
     _ADC_Initialize
       _ADC_SetADIInterruptHandler
       _ADC_SetActiveClockTuningInterruptHandler
       _ADC_SetContext1ThresholdInterruptHandler
     _I2C1_Initialize
     _OSCILLATOR_Initialize
     _PIN_MANAGER_Initialize
     _PMD_Initialize
     _UART1_Initialize
       _UART1_SetErrorHandler
       _UART1_SetFramingErrorHandler
       _UART1_SetOverrunErrorHandler
   _leer_serial
     _getch
       _UART1_Read
         Absolute function(Fake) *
         _UART1_DefaultErrorHandler *
         _UART1_DefaultFramingErrorHandler *
         _UART1_DefaultOverrunErrorHandler *
   _printf
     _vfprintf
       _vfpfcnvrt
         _fputc
           _putch
             _UART1_Write
         _stoa
           _fputc
             _putch
               _UART1_Write
           _strlen
   _strcmp

 Address spaces:
Name               Size   Autos  Total    Cost      Usage
BIGRAM            31FF      0       0     105        0.0%
EEDATA             400      0       0       0        0.0%
BITBANK54          100      0       0     103        0.0%
BANK54             100      0       0     104        0.0%
BITBANK53          100      0       0     101        0.0%
BANK53             100      0       0     102        0.0%
BITBANK52          100      0       0      98        0.0%
BANK52             100      0       0      99        0.0%
BITBANK51          100      0       0      96        0.0%
BANK51             100      0       0      97        0.0%
BITBANK50          100      0       0      94        0.0%
BANK50             100      0       0      95        0.0%
BITBANK49          100      0       0      92        0.0%
BANK49             100      0       0      93        0.0%
BITBANK48          100      0       0      90        0.0%
BANK48             100      0       0      91        0.0%
BITBANK47          100      0       0      88        0.0%
BANK47             100      0       0      89        0.0%
BITBANK46          100      0       0      86        0.0%
BANK46             100      0       0      87        0.0%
BITBANK45          100      0       0      84        0.0%
BANK45             100      0       0      85        0.0%
BITBANK44          100      0       0      82        0.0%
BANK44             100      0       0      83        0.0%
BITBANK43          100      0       0      80        0.0%
BANK43             100      0       0      81        0.0%
BITBANK42          100      0       0      78        0.0%
BANK42             100      0       0      79        0.0%
BITBANK41          100      0       0      76        0.0%
BANK41             100      0       0      77        0.0%
BITBANK40          100      0       0      74        0.0%
BANK40             100      0       0      75        0.0%
BITBANK39          100      0       0      72        0.0%
BANK39             100      0       0      73        0.0%
BITBANK38          100      0       0      70        0.0%
BANK38             100      0       0      71        0.0%
BITBANK37          100      0       0      68        0.0%
BANK37             100      0       0      69        0.0%
BITBANK36          100      0       0      66        0.0%
BANK36             100      0       0      67        0.0%
BITBANK35          100      0       0      64        0.0%
BANK35             100      0       0      65        0.0%
BITBANK34          100      0       0      62        0.0%
BANK34             100      0       0      63        0.0%
BITBANK33          100      0       0      60        0.0%
BANK33             100      0       0      61        0.0%
BITBANK32          100      0       0      58        0.0%
BANK32             100      0       0      59        0.0%
BITBANK31          100      0       0      56        0.0%
BANK31             100      0       0      57        0.0%
BITBANK30          100      0       0      54        0.0%
BANK30             100      0       0      55        0.0%
BITBANK29          100      0       0      52        0.0%
BANK29             100      0       0      53        0.0%
BITBANK28          100      0       0      50        0.0%
BANK28             100      0       0      51        0.0%
BITBANK27          100      0       0      48        0.0%
BANK27             100      0       0      49        0.0%
BITBANK26          100      0       0      46        0.0%
BANK26             100      0       0      47        0.0%
BITBANK25          100      0       0      44        0.0%
BANK25             100      0       0      45        0.0%
BITBANK24          100      0       0      42        0.0%
BANK24             100      0       0      43        0.0%
BITBANK23          100      0       0      40        0.0%
BANK23             100      0       0      41        0.0%
BITBANK22          100      0       0      38        0.0%
BANK22             100      0       0      39        0.0%
BITBANK21          100      0       0      36        0.0%
BANK21             100      0       0      37        0.0%
BITBANK20          100      0       0      34        0.0%
BANK20             100      0       0      35        0.0%
BITBANK19          100      0       0      32        0.0%
BANK19             100      0       0      33        0.0%
BITBANK18          100      0       0      30        0.0%
BANK18             100      0       0      31        0.0%
BITBANK17          100      0       0      28        0.0%
BANK17             100      0       0      29        0.0%
BITBANK16          100      0       0      26        0.0%
BANK16             100      0       0      27        0.0%
BITBANK15          100      0       0      24        0.0%
BANK15             100      0       0      25        0.0%
BITBANK14          100      0       0      22        0.0%
BANK14             100      0       0      23        0.0%
BITBANK13          100      0       0      20        0.0%
BANK13             100      0       0      21        0.0%
BITBANK12          100      0       0      18        0.0%
BANK12             100      0       0      19        0.0%
BITBANK11          100      0       0      16        0.0%
BANK11             100      0       0      17        0.0%
BITBANK10          100      0       0      14        0.0%
BANK10             100      0       0      15        0.0%
BITBANK9           100      0       0      12        0.0%
BANK9              100      0       0      13        0.0%
BITBANK8           100      0       0      10        0.0%
BANK8              100      0       0      11        0.0%
BITBANK7           100      0       0       8        0.0%
BANK7              100      0       0       9        0.0%
BITBANK6           100      0       0       6        0.0%
BANK6              100      0      20       7       12.5%
BITBANK5            A0      0       0       4        0.0%
BANK5               A0     64      8E       5       88.8%
BITCOMRAM           5F      0       0       0        0.0%
COMRAM              5F     3D      5F       1      100.0%
BITSFR_14            0      0       0     200        0.0%
SFR_14               0      0       0     200        0.0%
BITSFR_13            0      0       0     200        0.0%
SFR_13               0      0       0     200        0.0%
BITSFR_12            0      0       0     200        0.0%
SFR_12               0      0       0     200        0.0%
BITSFR_11            0      0       0     200        0.0%
SFR_11               0      0       0     200        0.0%
BITSFR_10            0      0       0     200        0.0%
SFR_10               0      0       0     200        0.0%
BITSFR_9             0      0       0     200        0.0%
SFR_9                0      0       0     200        0.0%
BITSFR_8             0      0       0     200        0.0%
SFR_8                0      0       0     200        0.0%
BITSFR_7             0      0       0     200        0.0%
SFR_7                0      0       0     200        0.0%
BITSFR_6             0      0       0     200        0.0%
SFR_6                0      0       0     200        0.0%
BITSFR_5             0      0       0     200        0.0%
SFR_5                0      0       0     200        0.0%
BITSFR_4             0      0       0     200        0.0%
SFR_4                0      0       0     200        0.0%
BITSFR_3             0      0       0     200        0.0%
SFR_3                0      0       0     200        0.0%
BITSFR_2             0      0       0     200        0.0%
SFR_2                0      0       0     200        0.0%
BITSFR_1             0      0       0     200        0.0%
SFR_1                0      0       0     200        0.0%
BITSFR               0      0       0     200        0.0%
SFR                  0      0       0     200        0.0%
STACK                0      0       0       2        0.0%
NULL                 0      0       0       0        0.0%
ABS                  0      0     10D     100        0.0%
DATA                 0      0     10D       3        0.0%
CODE                 0      0       0       0        0.0%


Microchip Technology PIC18 Macro Assembler V2.31 build 20201012212115 
Symbol Table                                                                                   Tue Mar 01 15:49:37 2022

                                                      u10 40BA  
                                                      u11 40B6  
                                                     l151 4068  
                                                     l145 40A8  
                                                     l148 40D8  
                                                     l252 3C94  
                                                     l341 3D2E  
                                                     l318 3EC4  
                                                     l350 4144  
                                                     l335 3C96  
                                                     l344 40AC  
                                                     l353 4136  
                                                     l610 412C  
                                                     l362 414A  
                                                     l371 4102  
                                                     l347 40C0  
                                                     l356 4148  
                                                     l613 4110  
                                                     l365 40F4  
                                                     l359 4146  
                                                     l616 411E  
                                                     l368 40E6  
                                                     l482 3BEA  
                                                     l774 4040  
                                                     u210 3CE4  
                                                     u211 3CE0  
                                                     u230 3D10  
                                                     u231 3D0C  
                                                     u208 3CC0  
                                                     u209 3CD4  
                                                     u228 3CEC  
                                                     u180 3CA4  
                                                     u229 3D00  
                                                     u181 3CA0  
                                                     u190 3CB8  
                                                     u191 3CB4  
                                                     u248 3D16  
                                                     u249 3D2A  
                                 __size_of_PMD_Initialize 0028  
                                                     tosl 0004FD  
                                                     wreg 0004E8  
                                    _I2C1_DO_RX_NACK_STOP 000000  
                                                    l2000 3CA4  
                                                    l2010 3CE4  
                                                    l2002 3CA8  
                                                    l2012 3CE6  
                                                    l2004 3CB8  
                                                    l2110 3BEC  
                                                    l2014 3D00  
                                                    l2006 3CBA  
                                                    l2120 3C1A  
                                                    l2112 3C0C  
                                                    l2104 4042  
                                                    l2016 3D10  
                                                    l2008 3CD4  
                                                    l3000 3D7C  
                                                    l2106 4016  
                                                    l2130 3C60  
                                                    l2122 3C28  
                                                    l2114 3C12  
                                                    l2018 3D2A  
                                                    l1066 3F90  
                                                    l3002 3DB2  
                                                    l3010 3FEC  
                                                    l1075 3B02  
                                                    l2140 3C6E  
                                                    l2132 3C66  
                                                    l2124 3C5A  
                                                    l2116 3C14  
                                                    l3100 40DA  
                                                    l3012 4008  
                                                    l2142 3C74  
                                                    l2134 3C68  
                                                    l2126 3C5C  
                                                    l2118 3C16  
                                                    l3102 40F6  
                                                    l3006 3FDC  
                                                    l1078 3B2A  
                                                    l3104 4120  
                                                    l3200 3BD4  
                                                    l2160 40C2  
                                                    l2136 3C6A  
                                                    l2128 3C5E  
                                                    l3008 3FE8  
                                                    l3106 4104  
                                                    l3202 3BE4  
                                                    l2138 3C6C  
                                                    l3210 3EB0  
                                                    l3108 4112  
                                                    l3212 3EC0  
                                                    l3204 3E52  
                                                    l2172 4140  
                                                    l3300 3F46  
                                                    l3060 3910  
                                                    l3206 3E90  
                                                    l3302 3F4A  
                                                    l3070 3954  
                                                    l3062 3922  
                                                    l3150 377A  
                                                    l3230 3EDA  
                                                    l3208 3EA0  
                                                    l3304 3F74  
                                                    l3080 39D6  
                                                    l1800 3976  
                                                    l3064 392A  
                                                    l3056 38F6  
                                                    l3160 3816  
                                                    l3152 378C  
                                                    l3232 3EFE  
                                                    l3320 3E22  
                                                    l3312 3DC6  
                                                    l3234 4090  
                                                    l3082 39E2  
                                                    l3074 39A0  
                                                    l1802 397E  
                                                    l3066 393E  
                                                    l3058 3908  
                                                    l3170 3888  
                                                    l3154 379C  
                                                    l3226 3EC6  
                                                    l3306 406A  
                                                    l3314 3DCA  
                                                    l1811 3A2A  
                                                    l3236 409C  
                                                    l3092 3A3C  
                                                    l1812 3A72  
                                                    l3084 3A04  
                                                    l3076 39B4  
                                                    l3068 3946  
                                                    l3164 3836  
                                                    l3156 37A0  
                                                    l3180 38B2  
                                                    l3148 374E  
                                                    l3228 3ECE  
                                                    l3308 4072  
                                                    l3316 3DD2  
                                                    l1821 38F4  
                                                    l3190 3BAE  
                                                    l3238 40A0  
                                                    l3094 3A50  
                                                    l3086 3A08  
                                                    l3078 39B8  
                                                    l3182 38DE  
                                                    l3166 3862  
                                                    l3174 3894  
                                                    l3158 37CC  
                                                    l3318 3E06  
                                                    l3192 3BB0  
                                                    l1840 3DC4  
                                                    l1816 3A7A  
                                                    l3096 3A54  
                                                    l3088 3A0C  
                                                    l3176 38A6  
                                                    l3168 3874  
                                                    l3194 3BB2  
                                                    l3098 40E8  
                                                    l1827 3F22  
                                                    l1763 408E  
                                                    l3196 3BB4  
                                                    l3188 3B34  
                                                    l1828 3F2A  
                                                    l3198 3BC4  
                                                    l1862 4014  
                                                    l3296 3F2C  
                                                    l1864 40AC  
                                                    l1856 3E50  
                                                    l3298 3F34  
                                                    l1866 40BA  
                                                    l1868 4130  
                                                    l3850 3AA6  
                                                    l3852 3ABC  
                                                    l1998 3C96  
                                                    l3854 3AC8  
                                                    l3846 3A7C  
                                                    l2992 3D30  
                                                    l3856 3ADC  
                                                    l3848 3A80  
                                                    l2994 3D42  
                                                    l3858 3B04  
                                                    l2996 3D54  
                                                    l2998 3D5E  
                                                    _ADCP 0003D8  
                                                    STR_1 3749  
                                                    STR_2 3742  
                                                    STR_3 373A  
                                                    u1010 3D42  
                                                    u1011 3D3E  
                                                    u1020 3D54  
                                                    u1100 399C  
                                                    u1021 3D50  
                                                    u1101 3998  
                                                    u1030 3D7C  
                                                    u1110 39D6  
                                                    u1031 3D78  
                                                    u1111 39D2  
                                                    u1040 3DB2  
                                                    u1120 3A2A  
                                                    u1041 3DAE  
                                                    u1121 3A26  
                                                    u1050 4008  
                                                    u1130 3A38  
                                                    u1210 3F22  
                                                    u1051 4004  
                                                    u1131 3A34  
                                                    u1211 3F1E  
                                                    u1140 3A72  
                                                    u1141 3A6E  
                                                    u1061 3900  
                                                    u1070 3922  
                                                    u1071 391E  
                                                    u1240 3F74  
                                                    u1080 3954  
                                                    u1241 3F70  
                                                    u1081 3950  
                                                    u1090 3972  
                                                    u1170 377A  
                                                    u1250 3E06  
                                                    u1091 396E  
                                                    u1171 3776  
                                                    u1251 3E02  
                                                    u1180 37CC  
                                                    u1260 3E22  
                                                    u1181 37C8  
                                                    u1261 3E1E  
                                                    _LATA 0004BE  
                                                    u1190 3862  
                                                    _LATB 0004BF  
                                                    u1191 385E  
                                                    _LATC 0004C0  
                                                    _LATD 0004C1  
                                                    _LATE 0004C2  
                                                    _LATF 0004C3  
                                                    u1740 3A90  
                                                    u1741 3A8A  
                                                    u1750 3B02  
                                                    u1751 3AFE  
                                                    u1760 3B2A  
                                                    u1761 3B26  
                                                    u1746 3A92  
                                                    u1777 3AB0  
                                                    _PMD0 000060  
                                                    _PMD1 000061  
                                                    _PMD2 000062  
                                                    _PMD3 000063  
                                                    _PMD4 000064  
                                                    _PMD5 000065  
                                                    _PMD6 000066  
                                                    _PMD7 000067  
                                                    _PMD8 000068  
                                                    _WPUA 000401  
                                                    _WPUB 000409  
                                                    _WPUC 000411  
                                                    _WPUD 000419  
                                                    _WPUE 000421  
                                                    _WPUF 000429  
                                            ?_leer_serial 0501  
                                                    _dbuf 0600  
                                                    _main 3A7C  
                                                    _prec 0554  
                                                    _nout 0550  
                                                    fsr1h 0004E2  
                                                    fsr2h 0004DA  
                                                    indf2 0004DF  
                                                    fsr1l 0004E1  
                                                    fsr2l 0004D9  
                                                    _stoa 38F6  
                                                    start FFFC  
                                            ___param_bank 000000  
                                             ?_UART1_Read 0501  
                          __size_of_OSCILLATOR_Initialize 0018  
                           __end_of_OSCILLATOR_Initialize 40DA  
                                                   _ADACT 0003F9  
                                                   _ADCAP 0003F0  
                                                   ?_main 0501  
                                                   _ADCLK 0003FA  
                                                   _ADCNT 0003E6  
                                                   _ADCTX 0003FB  
                                                   _ADPCH 0003EC  
                                                   _ADREF 0003F8  
                                                   _ADRPT 0003E7  
                                                   ?_stoa 050C  
                                                   _U1P1H 0002A6  
                                                   _U1P2H 0002A8  
                                                   _U1P1L 0002A5  
                                                   _U1P3H 0002AA  
                                                   _U1P2L 0002A7  
                                                   _U1P3L 0002A9  
                                                   _U1UIR 0002B1  
                                                   _U1RXB 0002A1  
                                                   _U1TXB 0002A3  
                              __end_of_i2c1_fsmStateTable 373A  
                                                   _OSCEN 0000B3  
                                            vfpfcnvrt@fmt 0524  
                                                   _TRISA 0004C6  
                                                   _TRISB 0004C7  
                                                   _TRISC 0004C8  
                                                   _TRISD 0004C9  
                                                   _TRISE 0004CA  
                                                   _TRISF 0004CB  
                                       ??_I2C1_Initialize 0501  
                                                   _flags 0556  
                                                   _getch 4140  
                                                   _fputc 3D30  
                                                   _width 0552  
                                                   _putch 412E  
                                                   pclath 0004FA  
                                                   tablat 0004F5  
                                                   plusw1 0004E3  
                                                   plusw2 0004DB  
                                                   stoa@i 0518  
                                                   stoa@l 0520  
                                                   stoa@p 051E  
                                                   stoa@s 050E  
                                                   stoa@w 051A  
                                                   status 0004D8  
                     fp__UART1_DefaultFramingErrorHandler 0000  
                __end_of_UART1_DefaultFramingErrorHandler 414A  
               __size_of_UART1_DefaultFramingErrorHandler 0002  
                      ??_UART1_DefaultFramingErrorHandler 0501  
                       ?_UART1_DefaultFramingErrorHandler 0501  
                        _UART1_DefaultFramingErrorHandler 4148  
                                         __initialization 3F92  
                                            __end_of_main 3B34  
                                            __end_of_stoa 3A7C  
                             ??_UART1_DefaultErrorHandler 0501  
                                            ?_UART1_Write 0501  
                                                  ??_main 053C  
                                                  ??_stoa 0510  
                                           __activetblptr 000003  
                                        _UART1_Initialize 3E52  
                                                  _ADACCH 0003E4  
                                                  _ADACCL 0003E3  
                                                  _ADACCU 0003E5  
                                                  _ADACQH 0003EF  
                                                  _ADACQL 0003EE  
                                                  ?_getch 0501  
                                                  _ADCON0 0003F3  
                                                  _ADCON1 0003F4  
                                                  _ADCON2 0003F5  
                                                  _ADCON3 0003F6  
                                                  _ADERRH 0003DE  
                                                  _ADERRL 0003DD  
                                                  ?_fputc 0503  
                                                  _ADLTHH 0003DA  
                                                  _ADLTHL 0003D9  
                                                  _ADRESH 0003EB  
                                                  _ADRESL 0003EA  
                                                  _ADPREH 0003F2  
                                                  _ADPREL 0003F1  
                                                  _ADSTAT 0003F7  
                                                  _ADUTHH 0003DC  
                                                  _ADUTHL 0003DB  
                                                  _ANSELA 000400  
                                                  ?_putch 0501  
                                                  _ANSELB 000408  
                                                  _ANSELC 000410  
                                                  _ANSELD 000418  
                                                  _ANSELE 000420  
                                                  _ANSELF 000428  
                                                  _U1CON0 0002AB  
                                                  _U1CON1 0002AC  
                                                  _U1CON2 0002AD  
                                     __size_of_UART1_Read 009A  
                                                  _U1BRGH 0002AF  
                                                  _U1FIFO 0002B0  
                                                  _U1BRGL 0002AE  
                                                  _RB1PPS 00020A  
                                                  _RB2PPS 00020B  
                                                  _ODCONA 000402  
                                                  _ODCONB 00040A  
                                                  _ODCONC 000412  
                                                  _RF0PPS 000229  
                                                  _ODCOND 00041A  
                                                  _ODCONE 000422  
                                                  _ODCONF 00042A  
                                                  _INLVLA 000404  
                                                  _INLVLB 00040C  
                                                  _INLVLC 000414  
                                                  _INLVLD 00041C  
                                                  _INLVLE 000424  
                                                  _INLVLF 00042C  
                                                  _OSCFRQ 0000B1  
                                   _UART1_SetErrorHandler 40F6  
                                        _I2C1_DO_RX_EMPTY 000000  
                                      _ADC_DefaultADI_ISR 000000  
                                        _I2C1_DO_TX_EMPTY 000000  
                                            vfprintf@cfmt 0532  
                                                  clear_0 3FB8  
                                                  clear_1 3FC4  
                                                  clear_2 3FD0  
                                                  _printf 406A  
                                                  _strcmp 3DC6  
                                                  _strlen 3FDC  
                                   _I2C1_DO_SEND_ADR_READ 000000  
                                                  fputc@c 0503  
                                          _PMD_Initialize 4042  
                                            __pdataCOMRAM 0559  
                                            __mediumconst 0000  
                                                  tblptrh 0004F7  
                                                  tblptrl 0004F6  
                                                  tblptru 0004F8  
                                                  stoa@cp 051C  
                                                  stoa@fp 050C  
                                        __end_of_vfprintf 3F2C  
ADC_SetActiveClockTuningInterruptHandler@InterruptHandler 0501  
ADC_SetContext1ThresholdInterruptHandler@InterruptHandler 0501  
              ADC_SetADIInterruptHandler@InterruptHandler 0501  
                    __end_of_UART1_SetOverrunErrorHandler 40E8  
                   __size_of_UART1_SetOverrunErrorHandler 000E  
                            _UART1_SetOverrunErrorHandler 40DA  
                               _UART1_DefaultErrorHandler 414A  
                                 _I2C1_DO_RX_NACK_RESTART 000000  
                                       _SYSTEM_Initialize 4090  
                                              __accesstop 0560  
                                 __end_of__initialization 3FD6  
                                      ?_SYSTEM_Initialize 0501  
                                           ___rparam_used 000001  
                                    __size_of_leer_serial 0066  
                                 _rdBlkRegCompleteHandler 000000  
                                          __pcstackCOMRAM 0501  
                                            leer_serial@i 0506  
                                     ??_SYSTEM_Initialize 0504  
                                           __end_of_getch 4146  
                                           __end_of_fputc 3DC6  
                                           __end_of_putch 4138  
                                  __end_of_PMD_Initialize 406A  
        __end_of_ADC_SetActiveClockTuningInterruptHandler 4120  
       __size_of_ADC_SetActiveClockTuningInterruptHandler 000E  
              ??_ADC_SetActiveClockTuningInterruptHandler 0504  
               ?_ADC_SetActiveClockTuningInterruptHandler 0501  
                _ADC_SetActiveClockTuningInterruptHandler 4112  
                               _UART1_FramingErrorHandler 054D  
                            ??_ADC_SetADIInterruptHandler 0504  
                                       _I2C1_DO_BUS_ERROR 000000  
                                                 ??_getch 0501  
                                                 ??_fputc 0507  
                               __end_of_SYSTEM_Initialize 40AA  
                                                 ??_putch 0502  
                                              __pbssBANK5 05C4  
                                              __pbssBANK6 0600  
                           ?_UART1_SetOverrunErrorHandler 0501  
                                  ?_UART1_SetErrorHandler 0501  
                                              __pnvCOMRAM 053E  
                                   _rd1RegCompleteHandler 000000  
                                       _I2C1_DO_SEND_STOP 000000  
                                   _wr1RegCompleteHandler 000000  
                                            ??_UART1_Read 0501  
                                                 _I2C1CLK 00029E  
                                                 _I2C1ERR 000297  
                                                 _I2C1PIE 00029B  
                                                 _I2C1PIR 00029A  
                                                 _I2C1RXB 00028A  
                                                 _I2C1TXB 00028B  
                                         _I2C1_Initialize 4016  
                                                 _ADCSEL1 0003FC  
                                                 _ADFLTRH 0003E2  
                                                 _ADFLTRL 0003E1  
                     __size_of_ADC_SetADIInterruptHandler 000E  
                                                 _ADPREVH 0003E9  
                                                 _ADPREVL 0003E8  
                                                 _ADSTPTH 0003E0  
                                                 _ADSTPTL 0003DF  
                                                 ?_printf 0534  
                                         ?_PMD_Initialize 0501  
                                 __size_of_ADC_Initialize 00B8  
                                                 ?_strcmp 0501  
                                                 ?_strlen 0501  
                                                 _U1ERRIE 0002B3  
                                                 _U1ERRIR 0002B2  
                                    __size_of_UART1_Write 0018  
                                                 _U1RXPPS 000272  
                                                 _OSCCON1 0000AD  
                                                 _OSCCON3 0000AF  
                                      __size_of_vfpfcnvrt 01A8  
                                                 _OSCTUNE 0000B0  
                                                 _SLRCONA 000403  
                                                 _SLRCONB 00040B  
                                                 _SLRCONC 000413  
                                                 _SLRCOND 00041B  
                                                 _SLRCONE 000423  
                                                 _SLRCONF 00042B  
                              _ADC_ConversionComplete_ISR 0544  
                                      __end_of_UART1_Read 3D30  
                                      _i2c1_fsmStateTable 3701  
                                                 __Hparam 0000  
                                                 __Lparam 0000  
                                __end_of_UART1_Initialize 3EC6  
                                               ?_vfprintf 052C  
                                            __psmallconst 3700  
                                                 __pcinit 3F92  
                                                 __ramtop 3700  
                                                 __ptext0 3A7C  
                                                 __ptext1 3DC6  
                                                 __ptext2 406A  
                                                 __ptext3 3EC6  
                                                 __ptext4 374E  
                                                 __ptext5 38F6  
                                                 __ptext6 3FDC  
                                                 __ptext7 3D30  
                                                 __ptext8 412E  
                                                 __ptext9 40AA  
                                         __size_of_printf 0026  
                                         __size_of_strcmp 008C  
                                         __size_of_strlen 003A  
                                   _OSCILLATOR_Initialize 40C2  
                                             _I2C1ERRbits 000297  
                                ??_PIN_MANAGER_Initialize 0501  
                                             _I2C1PIEbits 00029B  
                                             _I2C1PIRbits 00029A  
                              __size_of_SYSTEM_Initialize 001A  
                                    end_of_initialization 3FD6  
                                                 fputc@fp 0505  
                                  _I2C1_DO_SEND_ADR_WRITE 000000  
                          ??_UART1_SetOverrunErrorHandler 0504  
                                 __end_of_I2C1_Initialize 4042  
                                             _I2C1_Status 05C4  
                                       __end_of_vfpfcnvrt 38F6  
                                                 postdec1 0004E5  
                                                 postdec2 0004DD  
                                                 postinc0 0004EE  
                                                 postinc1 0004E6  
                                                 postinc2 0004DE  
                                              ??_vfprintf 0532  
                                       UART1_Write@txData 0501  
                                                 strcmp@l 0501  
                                                 strcmp@r 0503  
                              _I2C1_DO_SEND_RESTART_WRITE 000000  
                                                 strlen@a 0503  
                                                 strlen@s 0501  
                      __end_of_ADC_SetADIInterruptHandler 412E  
                              _ADC_SetADIInterruptHandler 4120  
                                             _ADCSEL1bits 0003FC  
                                              main@cadena 0560  
                                             vfpfcnvrt@ap 0526  
                                             vfpfcnvrt@cp 052A  
                                             vfpfcnvrt@fp 0522  
                                          _I2C1_DO_RX_ACK 000000  
                                          _I2C1_DO_TX_ACK 000000  
                                           __pidataCOMRAM 4138  
                                          _ADC_Initialize 3B34  
                                  ?_OSCILLATOR_Initialize 0501  
                                          __end_of_printf 4090  
                                          __end_of_strcmp 3E52  
                                          __end_of_strlen 4016  
                                     start_initialization 3F92  
                         __size_of_PIN_MANAGER_Initialize 00AA  
                                 ??_UART1_SetErrorHandler 0504  
                                             putch@txData 0502  
                                           ??_leer_serial 0503  
                                        ?_I2C1_Initialize 0501  
                                             vfprintf@fmt 052E  
                                        ??_PMD_Initialize 0501  
        __end_of_ADC_SetContext1ThresholdInterruptHandler 4112  
       __size_of_ADC_SetContext1ThresholdInterruptHandler 000E  
              ??_ADC_SetContext1ThresholdInterruptHandler 0504  
               ?_ADC_SetContext1ThresholdInterruptHandler 0501  
                _ADC_SetContext1ThresholdInterruptHandler 4104  
                                  __end_of_ADC_Initialize 3BEC  
                                                ??_printf 0538  
                                                ??_strcmp 0505  
                                                ??_strlen 0503  
                                             __pbssCOMRAM 0550  
                                    _I2C1_DO_SEND_RESTART 000000  
                                      _UART1_ErrorHandler 0547  
                                           __pcstackBANK5 0560  
                            fp__UART1_DefaultErrorHandler 0000  
                                   _rd2RegCompleteHandler 000000  
                                  _PIN_MANAGER_Initialize 3BEC  
                                   _wr2RegCompleteHandler 000000  
                                     __end_of_leer_serial 3F92  
                                       ?_UART1_Initialize 0501  
                    __end_of_UART1_SetFramingErrorHandler 40F6  
                   __size_of_UART1_SetFramingErrorHandler 000E  
                            _UART1_SetFramingErrorHandler 40E8  
                                                _I2C1BAUD 00029D  
                                      ??_UART1_Initialize 0504  
                                                _I2C1CON0 000294  
                                                _I2C1CON1 000295  
                                                _I2C1CON2 000296  
                                         ?_ADC_Initialize 0501  
                                                _I2C1CNTH 00028D  
                                                _I2C1CNTL 00028C  
                                        _uart1RxLastError 0558  
                                           ??_UART1_Write 0501  
                                                _ADACTPPS 000269  
                                       __size_of_vfprintf 0066  
                                             __smallconst 3700  
                     fp__UART1_DefaultOverrunErrorHandler 0000  
                __end_of_UART1_DefaultOverrunErrorHandler 4148  
               __size_of_UART1_DefaultOverrunErrorHandler 0002  
                      ??_UART1_DefaultOverrunErrorHandler 0501  
                       ?_UART1_DefaultOverrunErrorHandler 0501  
                        _UART1_DefaultOverrunErrorHandler 4146  
                                                _ADCPbits 0003D8  
                                          __size_of_getch 0006  
                                          __size_of_fputc 0096  
                                             _U1ERRIRbits 0002B2  
                                          __size_of_putch 000A  
                                              _I2C1SDAPPS 000270  
                                              _I2C1SCLPPS 000271  
                   UART1_SetErrorHandler@interruptHandler 0501  
                                                _LATFbits 0004C3  
                                              _I2C1_DO_RX 000000  
                                              _I2C1_DO_TX 000000  
                                                _PIE7bits 0004A5  
                                           _I2C1STAT1bits 000299  
                                                _PIR1bits 0004AF  
                                                _PIR2bits 0004B0  
                                                _PIR4bits 0004B2  
                                                _PIR7bits 0004B5  
                               _ADC_ActiveClockTuning_ISR 053E  
                               _I2C1_DO_SEND_RESTART_READ 000000  
                        _ADC_DefaultActiveClockTuning_ISR 000000  
                           ?_UART1_SetFramingErrorHandler 0501  
                                               _vfpfcnvrt 374E  
                                              _ADCON0bits 0003F3  
                                              _ADCON1bits 0003F4  
                                              _ADCON2bits 0003F5  
                                              _ADCON3bits 0003F6  
                             ?_ADC_SetADIInterruptHandler 0501  
                                     __end_of_UART1_Write 40C2  
                                           _I2C1_DO_RESET 000000  
                                               copy_data0 3FA6  
                                             _leer_serial 3F2C  
                                              _ADSTATbits 0003F7  
                                                __Hrparam 0000  
                                    leer_serial@ptrCadena 0501  
                                              vfprintf@ap 0530  
                                                __Lrparam 0000  
                                              vfprintf@fp 052C  
                                 ??_OSCILLATOR_Initialize 0501  
                                              ?_vfpfcnvrt 0522  
                               _ADC_Context1Thereshld_ISR 0541  
                                            _I2C1CON0bits 000294  
                                            _I2C1CON1bits 000295  
                                                __ptext10 3F2C  
                                                __ptext11 4140  
                                                __ptext20 40F6  
                                                __ptext12 3C96  
                                                __ptext21 4042  
                                                __ptext13 4146  
                                                __ptext22 3BEC  
                                                __ptext14 4148  
                                                __ptext23 40C2  
                                                __ptext15 414A  
                                                __ptext24 4016  
                                                __ptext16 4090  
                                                __ptext25 3B34  
                                                __ptext17 3E52  
                                                __ptext26 4104  
                                                __ptext18 40DA  
                                                __ptext27 4112  
                                                __ptext19 40E8  
                                                __ptext28 4120  
                                                __ptext29 0000  
                                   _I2C1_DO_BUS_COLLISION 000000  
                                              _U1CON0bits 0002AB  
                          __size_of_UART1_SetErrorHandler 000E  
                           __end_of_UART1_SetErrorHandler 4104  
                                _I2C1_CallbackReturnReset 000000  
                                           __size_of_main 00B8  
                                           __size_of_stoa 0186  
                               _UART1_OverrunErrorHandler 054A  
                                               stoa@F1133 0559  
            UART1_SetOverrunErrorHandler@interruptHandler 0501  
                      __size_of_UART1_DefaultErrorHandler 0002  
                              ?_UART1_DefaultErrorHandler 0501  
                                                _vfprintf 3EC6  
                                               printf@fmt 0534  
                                            _I2C1_DO_IDLE 000000  
                                             _UART1_Write 40AA  
                          ??_UART1_SetFramingErrorHandler 0504  
                                 ?_PIN_MANAGER_Initialize 0501  
                                 _I2C1_CallbackReturnStop 000000  
                                        ??_ADC_Initialize 0504  
                                    _I2C1_DO_ADDRESS_NACK 000000  
                                                printf@ap 053A  
                                              _UART1_Read 3C96  
            UART1_SetFramingErrorHandler@interruptHandler 0501  
                       __end_of_UART1_DefaultErrorHandler 414C  
                                             ??_vfpfcnvrt 0528  
                                                stoa@nuls 0511  
                                __size_of_I2C1_Initialize 002C  
                               __size_of_UART1_Initialize 0074  
                          __end_of_PIN_MANAGER_Initialize 3C96  
                        _ADC_DefaultContext1Threshold_ISR 000000  
