CCS PCM C Compiler, Version 5.112, 4770               19-oct.-23 18:42

               Filename:   D:\OneDriveTrabajo\Clases\GitHub_Clases\Programacion de Perifericos\2023\PIC\Clase_SensorTemp_TM1637(display7Seg)\main(HolaMundo).lst

               ROM used:   1188 words (15%)
                           Largest free fragment is 2048
               RAM used:   25 (2%) at main() level
                           43 (4%) worst case
               Stack used: 2 locations
               Stack size: 16

*
0000:  MOVLP  00
0001:  GOTO   36B
0002:  NOP
.................... #include <main_h.h>
.................... #CASE
.................... #include <16F18855.h>
.................... //////////// Standard Header file for the PIC16F18855 device ////////////////
.................... ///////////////////////////////////////////////////////////////////////////
.................... ////        (C) Copyright 1996, 2020 Custom Computer Services          ////
.................... //// This source code may only be used by licensed users of the CCS C  ////
.................... //// compiler.  This source code may only be distributed to other      ////
.................... //// licensed users of the CCS C compiler.  No other use, reproduction ////
.................... //// or distribution is permitted without written permission.          ////
.................... //// Derivative programs created using this software in object code    ////
.................... //// form are not restricted in any way.                               ////
.................... ///////////////////////////////////////////////////////////////////////////
.................... #device PIC16F18855
0003:  DATA 0A,24
0004:  DATA 6F,36
0005:  DATA 61,10
0006:  DATA ED,3A
0007:  DATA 6E,32
0008:  DATA 6F,10
0009:  DATA F5,39
000A:  DATA 61,37
000B:  DATA E4,37
000C:  DATA 20,36
000D:  DATA 61,10
000E:  DATA F4,30
000F:  DATA 72,35
0010:  DATA 65,3A
0011:  DATA 61,10
0012:  DATA D0,24
0013:  DATA C3,18
0014:  DATA 36,33
0015:  DATA 31,1C
0016:  DATA B8,1A
0017:  DATA 35,05
0018:  DATA 00,00
0019:  DATA EC,30
001A:  DATA 20,3A
001B:  DATA E5,36
001C:  DATA F0,32
001D:  DATA F2,30
001E:  DATA F4,3A
001F:  DATA F2,30
0020:  DATA 20,32
0021:  DATA 65,36
0022:  DATA A0,39
0023:  DATA 65,37
0024:  DATA F3,37
0025:  DATA F2,32
0026:  DATA 20,32
0027:  DATA 65,10
0028:  DATA EC,30
0029:  DATA 20,3A
002A:  DATA 61,39
002B:  DATA 65,35
002C:  DATA 65,3A
002D:  DATA 61,10
002E:  DATA E5,39
002F:  DATA BA,12
0030:  DATA 64,17
0031:  DATA A5,3A
0032:  DATA 0A,00
*
00EF:  MOVF   0B,W
00F0:  BCF    0B.7
00F1:  MOVLB  10
00F2:  BCF    1E.6
00F3:  BSF    1E.0
00F4:  NOP
00F5:  NOP
00F6:  BTFSC  09.7
00F7:  BSF    0B.7
00F8:  MOVF   1C,W
00F9:  ANDLW  7F
00FA:  BTFSC  03.2
00FB:  GOTO   13F
00FC:  MOVLB  00
00FD:  MOVWF  31
00FE:  MOVLB  10
00FF:  MOVF   1A,W
0100:  MOVLB  00
0101:  MOVWF  32
0102:  MOVLB  10
0103:  MOVF   1B,W
0104:  MOVLB  00
0105:  MOVWF  33
0106:  MOVF   31,W
0107:  MOVLB  0E
0108:  BTFSS  0F.4
0109:  GOTO   108
010A:  MOVLB  02
010B:  MOVWF  1A
010C:  MOVLB  00
010D:  MOVF   32,W
010E:  MOVLB  10
010F:  MOVWF  1A
0110:  MOVLB  00
0111:  MOVF   33,W
0112:  MOVLB  10
0113:  MOVWF  1B
0114:  MOVF   0B,W
0115:  BCF    0B.7
0116:  BCF    1E.6
0117:  BSF    1E.0
0118:  NOP
0119:  NOP
011A:  BTFSC  09.7
011B:  BSF    0B.7
011C:  RLF    1C,W
011D:  RLF    1D,W
011E:  ANDLW  7F
011F:  BTFSC  03.2
0120:  GOTO   13F
0121:  MOVLB  00
0122:  MOVWF  31
0123:  MOVLB  10
0124:  MOVF   1A,W
0125:  MOVLB  00
0126:  MOVWF  32
0127:  MOVLB  10
0128:  MOVF   1B,W
0129:  MOVLB  00
012A:  MOVWF  33
012B:  MOVF   31,W
012C:  MOVLB  0E
012D:  BTFSS  0F.4
012E:  GOTO   12D
012F:  MOVLB  02
0130:  MOVWF  1A
0131:  MOVLB  00
0132:  MOVF   32,W
0133:  MOVLB  10
0134:  MOVWF  1A
0135:  MOVLB  00
0136:  MOVF   33,W
0137:  MOVLB  10
0138:  MOVWF  1B
0139:  INCF   1A,F
013A:  BTFSC  03.2
013B:  INCF   1B,F
013C:  MOVLB  00
013D:  GOTO   0EF
013E:  MOVLB  10
013F:  MOVLP  00
0140:  MOVLB  00
0141:  GOTO   430 (RETURN)
*
0206:  CLRF   77
0207:  CLRF   78
0208:  MOVF   37,W
0209:  BCF    03.0
020A:  BTFSC  38.0
020B:  ADDWF  77,F
020C:  RRF    77,F
020D:  RRF    78,F
020E:  BTFSC  38.1
020F:  ADDWF  77,F
0210:  RRF    77,F
0211:  RRF    78,F
0212:  BTFSC  38.2
0213:  ADDWF  77,F
0214:  RRF    77,F
0215:  RRF    78,F
0216:  BTFSC  38.3
0217:  ADDWF  77,F
0218:  RRF    77,F
0219:  RRF    78,F
021A:  BTFSC  38.4
021B:  ADDWF  77,F
021C:  RRF    77,F
021D:  RRF    78,F
021E:  BTFSC  38.5
021F:  ADDWF  77,F
0220:  RRF    77,F
0221:  RRF    78,F
0222:  BTFSC  38.6
0223:  ADDWF  77,F
0224:  RRF    77,F
0225:  RRF    78,F
0226:  BTFSC  38.7
0227:  ADDWF  77,F
0228:  RRF    77,F
0229:  RRF    78,F
*
022E:  MOVF   0B,W
022F:  BCF    0B.7
0230:  MOVLB  10
0231:  BCF    1E.6
0232:  BSF    1E.0
0233:  NOP
0234:  NOP
0235:  BTFSC  09.7
0236:  BSF    0B.7
0237:  BTFSC  03.0
0238:  GOTO   263
0239:  MOVF   1C,W
023A:  ANDLW  7F
023B:  MOVLB  00
023C:  MOVWF  31
023D:  MOVLB  10
023E:  MOVF   1A,W
023F:  MOVLB  00
0240:  MOVWF  32
0241:  MOVLB  10
0242:  MOVF   1B,W
0243:  MOVLB  00
0244:  MOVWF  33
0245:  MOVF   31,W
0246:  MOVLB  0E
0247:  BTFSS  0F.4
0248:  GOTO   247
0249:  MOVLB  02
024A:  MOVWF  1A
024B:  MOVLB  00
024C:  MOVF   32,W
024D:  MOVLB  10
024E:  MOVWF  1A
024F:  MOVLB  00
0250:  MOVF   33,W
0251:  MOVLB  10
0252:  MOVWF  1B
0253:  MOVF   0B,W
0254:  BCF    0B.7
0255:  BCF    1E.6
0256:  BSF    1E.0
0257:  NOP
0258:  NOP
0259:  BTFSC  09.7
025A:  BSF    0B.7
025B:  MOVLB  00
025C:  DECFSZ 30,F
025D:  GOTO   25F
025E:  GOTO   261
025F:  MOVLB  10
0260:  GOTO   263
0261:  GOTO   285
0262:  MOVLB  10
0263:  RLF    1C,W
0264:  RLF    1D,W
0265:  ANDLW  7F
0266:  MOVLB  00
0267:  MOVWF  31
0268:  MOVLB  10
0269:  MOVF   1A,W
026A:  MOVLB  00
026B:  MOVWF  32
026C:  MOVLB  10
026D:  MOVF   1B,W
026E:  MOVLB  00
026F:  MOVWF  33
0270:  MOVF   31,W
0271:  MOVLB  0E
0272:  BTFSS  0F.4
0273:  GOTO   272
0274:  MOVLB  02
0275:  MOVWF  1A
0276:  MOVLB  00
0277:  MOVF   32,W
0278:  MOVLB  10
0279:  MOVWF  1A
027A:  MOVLB  00
027B:  MOVF   33,W
027C:  MOVLB  10
027D:  MOVWF  1B
027E:  INCF   1A,F
027F:  BTFSC  03.2
0280:  INCF   1B,F
0281:  BCF    03.0
0282:  MOVLB  00
0283:  DECFSZ 30,F
0284:  GOTO   22E
0285:  MOVLP  00
0286:  GOTO   443 (RETURN)
0287:  MOVF   39,W
0288:  CLRF   78
0289:  SUBWF  38,W
028A:  BTFSC  03.0
028B:  GOTO   28F
028C:  MOVF   38,W
028D:  MOVWF  77
028E:  GOTO   29B
028F:  CLRF   77
0290:  MOVLW  08
0291:  MOVWF  3A
0292:  RLF    38,F
0293:  RLF    77,F
0294:  MOVF   39,W
0295:  SUBWF  77,W
0296:  BTFSC  03.0
0297:  MOVWF  77
0298:  RLF    78,F
0299:  DECFSZ 3A,F
029A:  GOTO   292
029B:  RETURN
029C:  MOVLW  20
029D:  BTFSS  31.4
029E:  MOVLW  30
029F:  MOVWF  34
02A0:  MOVF   30,W
02A1:  MOVWF  77
02A2:  BTFSS  30.7
02A3:  GOTO   2AC
02A4:  COMF   77,F
02A5:  INCF   77,F
02A6:  MOVF   77,W
02A7:  MOVWF  30
02A8:  MOVLW  2D
02A9:  MOVWF  34
02AA:  BSF    31.7
02AB:  BSF    31.0
02AC:  MOVF   30,W
02AD:  MOVWF  38
02AE:  MOVLW  64
02AF:  MOVWF  39
02B0:  CALL   287
02B1:  MOVF   77,W
02B2:  MOVWF  30
02B3:  MOVLW  30
02B4:  ADDWF  78,W
02B5:  MOVWF  35
02B6:  MOVF   30,W
02B7:  MOVWF  38
02B8:  MOVLW  0A
02B9:  MOVWF  39
02BA:  CALL   287
02BB:  MOVLW  30
02BC:  ADDWF  77,W
02BD:  MOVWF  37
02BE:  MOVLW  30
02BF:  ADDWF  78,W
02C0:  MOVWF  36
02C1:  MOVF   34,W
02C2:  MOVWF  77
02C3:  MOVLW  30
02C4:  SUBWF  35,W
02C5:  BTFSC  03.2
02C6:  GOTO   2CB
02C7:  BSF    31.1
02C8:  BTFSC  31.7
02C9:  BSF    31.2
02CA:  GOTO   2DF
02CB:  MOVF   34,W
02CC:  MOVWF  35
02CD:  MOVLW  20
02CE:  MOVWF  34
02CF:  MOVLW  30
02D0:  SUBWF  36,W
02D1:  BTFSC  03.2
02D2:  GOTO   2D7
02D3:  BSF    31.0
02D4:  BTFSC  31.7
02D5:  BSF    31.1
02D6:  GOTO   2DF
02D7:  BTFSS  03.2
02D8:  BSF    31.0
02D9:  BTFSS  03.2
02DA:  GOTO   2DF
02DB:  MOVF   35,W
02DC:  MOVWF  36
02DD:  MOVLW  20
02DE:  MOVWF  35
02DF:  BTFSC  31.2
02E0:  GOTO   2E6
02E1:  BTFSC  31.1
02E2:  GOTO   2ED
02E3:  BTFSC  31.0
02E4:  GOTO   2F4
02E5:  GOTO   2FB
02E6:  MOVF   34,W
02E7:  MOVLB  0E
02E8:  BTFSS  0F.4
02E9:  GOTO   2E8
02EA:  MOVLB  02
02EB:  MOVWF  1A
02EC:  MOVLB  00
02ED:  MOVF   35,W
02EE:  MOVLB  0E
02EF:  BTFSS  0F.4
02F0:  GOTO   2EF
02F1:  MOVLB  02
02F2:  MOVWF  1A
02F3:  MOVLB  00
02F4:  MOVF   36,W
02F5:  MOVLB  0E
02F6:  BTFSS  0F.4
02F7:  GOTO   2F6
02F8:  MOVLB  02
02F9:  MOVWF  1A
02FA:  MOVLB  00
02FB:  MOVF   37,W
02FC:  MOVLB  0E
02FD:  BTFSS  0F.4
02FE:  GOTO   2FD
02FF:  MOVLB  02
0300:  MOVWF  1A
0301:  MOVLP  00
0302:  MOVLB  00
0303:  GOTO   448 (RETURN)
0304:  MOVF   78,W
0305:  MOVF   30,W
0306:  MOVWF  38
0307:  MOVLW  64
0308:  MOVWF  39
0309:  CALL   287
030A:  MOVF   77,W
030B:  MOVWF  30
030C:  MOVF   78,W
030D:  MOVLW  30
030E:  BTFSS  03.2
030F:  GOTO   317
0310:  BTFSS  31.1
0311:  GOTO   322
0312:  BTFSC  31.3
0313:  GOTO   322
0314:  BTFSC  31.4
0315:  MOVLW  20
0316:  GOTO   31A
0317:  BCF    31.3
0318:  BCF    31.4
0319:  BSF    31.0
031A:  ADDWF  78,F
031B:  MOVF   78,W
031C:  MOVLB  0E
031D:  BTFSS  0F.4
031E:  GOTO   31D
031F:  MOVLB  02
0320:  MOVWF  1A
0321:  MOVLB  00
0322:  MOVF   30,W
0323:  MOVWF  38
0324:  MOVLW  0A
0325:  MOVWF  39
0326:  CALL   287
0327:  MOVF   77,W
0328:  MOVWF  30
0329:  MOVF   78,W
032A:  MOVLW  30
032B:  BTFSS  03.2
032C:  GOTO   333
032D:  BTFSC  31.3
032E:  GOTO   33B
032F:  BTFSS  31.0
0330:  GOTO   33B
0331:  BTFSC  31.4
0332:  MOVLW  20
0333:  ADDWF  78,F
0334:  MOVF   78,W
0335:  MOVLB  0E
0336:  BTFSS  0F.4
0337:  GOTO   336
0338:  MOVLB  02
0339:  MOVWF  1A
033A:  MOVLB  00
033B:  MOVLW  30
033C:  ADDWF  30,F
033D:  MOVF   30,W
033E:  MOVLB  0E
033F:  BTFSS  0F.4
0340:  GOTO   33F
0341:  MOVLB  02
0342:  MOVWF  1A
0343:  MOVLP  00
0344:  MOVLB  00
0345:  GOTO   454 (RETURN)
0346:  MOVF   31,W
0347:  XORWF  32,W
0348:  ANDLW  80
0349:  MOVWF  35
034A:  BTFSS  31.7
034B:  GOTO   34E
034C:  COMF   31,F
034D:  INCF   31,F
034E:  BTFSS  32.7
034F:  GOTO   352
0350:  COMF   32,F
0351:  INCF   32,F
0352:  MOVF   32,W
0353:  CLRF   78
0354:  SUBWF  31,W
0355:  BTFSC  03.0
0356:  GOTO   35A
0357:  MOVF   31,W
0358:  MOVWF  77
0359:  GOTO   366
035A:  CLRF   77
035B:  MOVLW  08
035C:  MOVWF  34
035D:  RLF    31,F
035E:  RLF    77,F
035F:  MOVF   32,W
0360:  SUBWF  77,W
0361:  BTFSC  03.0
0362:  MOVWF  77
0363:  RLF    78,F
0364:  DECFSZ 34,F
0365:  GOTO   35D
0366:  BTFSS  35.7
0367:  GOTO   36A
0368:  COMF   78,F
0369:  INCF   78,F
036A:  RETURN
.................... 
.................... #list
.................... 
.................... 
.................... #fuses MCLR,NOEXTOSC,RSTOSC_HFINTRC_32MHZ,NOCLKOUT,ZCDDIS,NOWDT,LVP,NOPROTECT,NOCPD
.................... 
.................... #device ADC = 10
.................... 
.................... #use delay(internal=32MHz)
*
00BD:  MOVLW  20
00BE:  MOVWF  05
00BF:  MOVLW  11
00C0:  MOVWF  04
00C1:  MOVF   00,W
00C2:  BTFSC  03.2
00C3:  GOTO   0D1
00C4:  MOVLW  0A
00C5:  MOVWF  78
00C6:  CLRF   77
00C7:  DECFSZ 77,F
00C8:  GOTO   0C7
00C9:  DECFSZ 78,F
00CA:  GOTO   0C6
00CB:  MOVLW  5F
00CC:  MOVWF  77
00CD:  DECFSZ 77,F
00CE:  GOTO   0CD
00CF:  DECFSZ 00,F
00D0:  GOTO   0C4
00D1:  RETURN
.................... //#use delay(clock=32M)
.................... #use rs232(baud=115200,parity=N,xmit=PIN_C0,rcv=PIN_C1,bits=8,STOP=1,UART1 )
.................... #use i2c(Master,Fast,sda=PIN_C3,scl=PIN_C4)
*
0142:  MOVLW  08
0143:  MOVWF  78
0144:  NOP
0145:  BCF    18.4
0146:  BCF    13.4
0147:  NOP
0148:  RLF    34,F
0149:  BCF    18.3
014A:  BTFSC  03.0
014B:  BSF    13.3
014C:  BTFSS  03.0
014D:  BCF    13.3
014E:  BSF    13.4
014F:  BTFSS  0E.4
0150:  GOTO   14F
0151:  DECFSZ 78,F
0152:  GOTO   144
0153:  NOP
0154:  BCF    18.4
0155:  BCF    13.4
0156:  NOP
0157:  BSF    13.3
0158:  NOP
0159:  NOP
015A:  BSF    13.4
015B:  BTFSS  0E.4
015C:  GOTO   15B
015D:  CLRF   78
015E:  NOP
015F:  BTFSC  0E.3
0160:  BSF    78.0
0161:  BCF    18.4
0162:  BCF    13.4
0163:  BCF    18.3
0164:  BCF    13.3
0165:  RETURN
0166:  MOVLW  08
0167:  MOVWF  38
0168:  MOVF   77,W
0169:  MOVWF  39
016A:  BSF    13.3
016B:  NOP
016C:  BSF    13.4
016D:  BTFSS  0E.4
016E:  GOTO   16D
016F:  BTFSC  0E.3
0170:  BSF    03.0
0171:  BTFSS  0E.3
0172:  BCF    03.0
0173:  RLF    78,F
0174:  NOP
0175:  BCF    13.4
0176:  BCF    18.4
0177:  DECFSZ 38,F
0178:  GOTO   16A
0179:  BSF    13.3
017A:  NOP
017B:  BCF    18.3
017C:  MOVF   39,W
017D:  BTFSS  03.2
017E:  BCF    13.3
017F:  NOP
0180:  BSF    13.4
0181:  BTFSS  0E.4
0182:  GOTO   181
0183:  NOP
0184:  BCF    18.4
0185:  BCF    13.4
0186:  NOP
0187:  BCF    18.3
0188:  BCF    13.3
0189:  RETURN
.................... 
.................... enum{// enum para declarar las posiciones de los pines
....................    p0 = 0,//solo por seguridad se recomienda incializar el primero
....................    p1,
....................    p2,
....................    p3,
....................    p4,
....................    p5,
....................    p6,
....................    p7   
.................... };
.................... 
.................... #include "PIC16F18855_registers.h"
.................... #byte INDF0 = 0x000
.................... 
.................... #byte INDF1 = 0x001
.................... 
.................... #byte PCL = 0x002
.................... 
.................... typedef struct 
....................  {
....................    unsigned int C:1;
....................    unsigned int DC:1;
....................    unsigned int Z:1;
....................    unsigned int PD:1;
....................    unsigned int TO:1;
.................... } STATUSBITS;
.................... STATUSBITS STATUSbits;
.................... #byte STATUSbits = 0x003
.................... #byte STATUS = 0x003
.................... 
.................... #word FSR0 = 0x004
.................... 
.................... #word FSR1 = 0x006
.................... 
.................... #byte BSR = 0x008
.................... 
.................... #byte WREG = 0x009
.................... 
.................... #byte PCLATH = 0x00A
.................... 
.................... typedef struct 
....................  {
....................    unsigned int INTEDG:1;
....................    unsigned int :5;
....................    unsigned int PEIE:1;
....................    unsigned int GIE:1;
.................... } INTCONBITS;
.................... INTCONBITS INTCONbits;
.................... #byte INTCONbits = 0x00B
.................... #byte INTCON = 0x00B
.................... 
.................... typedef struct 
....................  {
....................    unsigned int RA0:1;
....................    unsigned int RA1:1;
....................    unsigned int RA2:1;
....................    unsigned int RA3:1;
....................    unsigned int RA4:1;
....................    unsigned int RA5:1;
....................    unsigned int RA6:1;
....................    unsigned int RA7:1;
.................... } PORTABITS;
.................... PORTABITS PORTAbits;
.................... #byte PORTAbits = 0x00C
.................... #byte PORTA = 0x00C
.................... 
.................... typedef struct 
....................  {
....................    unsigned int RB0:1;
....................    unsigned int RB1:1;
....................    unsigned int RB2:1;
....................    unsigned int RB3:1;
....................    unsigned int RB4:1;
....................    unsigned int RB5:1;
....................    unsigned int RB6:1;
....................    unsigned int RB7:1;
.................... } PORTBBITS;
.................... PORTBBITS PORTBbits;
.................... #byte PORTBbits = 0x00D
.................... #byte PORTB = 0x00D
.................... 
.................... typedef struct 
....................  {
....................    unsigned int RC0:1;
....................    unsigned int RC1:1;
....................    unsigned int RC2:1;
....................    unsigned int RC3:1;
....................    unsigned int RC4:1;
....................    unsigned int RC5:1;
....................    unsigned int RC6:1;
....................    unsigned int RC7:1;
.................... } PORTCBITS;
.................... PORTCBITS PORTCbits;
.................... #byte PORTCbits = 0x00E
.................... #byte PORTC = 0x00E
.................... 
.................... typedef struct 
....................  {
....................    unsigned int RE0:1;
....................    unsigned int RE1:1;
....................    unsigned int RE2:1;
....................    unsigned int RE3:1;
....................    unsigned int RE4:1;
....................    unsigned int RE5:1;
....................    unsigned int RE6:1;
....................    unsigned int RE7:1;
.................... } PORTEBITS;
.................... PORTEBITS PORTEbits;
.................... #byte PORTEbits = 0x010
.................... #byte PORTE = 0x010
.................... 
.................... typedef struct 
....................  {
....................    unsigned int TRISA0:1;
....................    unsigned int TRISA1:1;
....................    unsigned int TRISA2:1;
....................    unsigned int TRISA3:1;
....................    unsigned int TRISA4:1;
....................    unsigned int TRISA5:1;
....................    unsigned int TRISA6:1;
....................    unsigned int TRISA7:1;
.................... } TRISABITS;
.................... TRISABITS TRISAbits;
.................... #byte TRISAbits = 0x011
.................... #byte TRISA = 0x011
.................... 
.................... typedef struct 
....................  {
....................    unsigned int TRISB0:1;
....................    unsigned int TRISB1:1;
....................    unsigned int TRISB2:1;
....................    unsigned int TRISB3:1;
....................    unsigned int TRISB4:1;
....................    unsigned int TRISB5:1;
....................    unsigned int TRISB6:1;
....................    unsigned int TRISB7:1;
.................... } TRISBBITS;
.................... TRISBBITS TRISBbits;
.................... #byte TRISBbits = 0x012
.................... #byte TRISB = 0x012
.................... 
.................... typedef struct 
....................  {
....................    unsigned int TRISC0:1;
....................    unsigned int TRISC1:1;
....................    unsigned int TRISC2:1;
....................    unsigned int TRISC3:1;
....................    unsigned int TRISC4:1;
....................    unsigned int TRISC5:1;
....................    unsigned int TRISC6:1;
....................    unsigned int TRISC7:1;
.................... } TRISCBITS;
.................... TRISCBITS TRISCbits;
.................... #byte TRISCbits = 0x013
.................... #byte TRISC = 0x013
.................... 
.................... typedef struct 
....................  {
....................    unsigned int LATA0:1;
....................    unsigned int LATA1:1;
....................    unsigned int LATA2:1;
....................    unsigned int LATA3:1;
....................    unsigned int LATA4:1;
....................    unsigned int LATA5:1;
....................    unsigned int LATA6:1;
....................    unsigned int LATA7:1;
.................... } LATABITS;
.................... LATABITS LATAbits;
.................... #byte LATAbits = 0x016
.................... #byte LATA = 0x016
.................... 
.................... typedef struct 
....................  {
....................    unsigned int LATB0:1;
....................    unsigned int LATB1:1;
....................    unsigned int LATB2:1;
....................    unsigned int LATB3:1;
....................    unsigned int LATB4:1;
....................    unsigned int LATB5:1;
....................    unsigned int LATB6:1;
....................    unsigned int LATB7:1;
.................... } LATBBITS;
.................... LATBBITS LATBbits;
.................... #byte LATBbits = 0x017
.................... #byte LATB = 0x017
.................... 
.................... typedef struct 
....................  {
....................    unsigned int LATC0:1;
....................    unsigned int LATC1:1;
....................    unsigned int LATC2:1;
....................    unsigned int LATC3:1;
....................    unsigned int LATC4:1;
....................    unsigned int LATC5:1;
....................    unsigned int LATC6:1;
....................    unsigned int LATC7:1;
.................... } LATCBITS;
.................... LATCBITS LATCbits;
.................... #byte LATCbits = 0x018
.................... #byte LATC = 0x018
.................... 
.................... typedef struct 
....................  {
....................    unsigned int TMR0L:8;
.................... } TMR0LBITS;
.................... TMR0LBITS TMR0Lbits;
.................... #byte TMR0Lbits = 0x01C
.................... #byte TMR0L = 0x01C
.................... 
.................... typedef struct 
....................  {
....................    union {
....................       struct {
....................          unsigned int TMR0H:8;
....................       };
.................... 
....................       struct {
....................          unsigned int T0PR:8;
....................       };
....................    };
.................... } TMR0HBITS;
.................... TMR0HBITS TMR0Hbits;
.................... #byte TMR0Hbits = 0x01D
.................... #byte TMR0H = 0x01D
.................... 
.................... typedef struct 
....................  {
....................    unsigned int T0OUTPS:4;
....................    unsigned int T016BIT:1;
....................    unsigned int T0OUT:1;
....................    unsigned int T0OE:1;
....................    unsigned int T0EN:1;
.................... } T0CON0BITS;
.................... T0CON0BITS T0CON0bits;
.................... #byte T0CON0bits = 0x01E
.................... #byte T0CON0 = 0x01E
.................... 
.................... typedef struct 
....................  {
....................    unsigned int T0CKPS:4;
....................    unsigned int T0ASYNC:1;
....................    unsigned int T0CS:3;
.................... } T0CON1BITS;
.................... T0CON1BITS T0CON1bits;
.................... #byte T0CON1bits = 0x01F
.................... #byte T0CON1 = 0x01F
.................... 
.................... #word ADRES = 0x08C
.................... 
.................... typedef struct 
....................  {
....................    unsigned int ADPREV:8;
.................... } ADPREVLBITS;
.................... ADPREVLBITS ADPREVLbits;
.................... #byte ADPREVLbits = 0x08E
.................... #byte ADPREVL = 0x08E
.................... 
.................... typedef struct 
....................  {
....................    unsigned int ADPREV8:2;
....................    unsigned int ADPREV1:6;
.................... } ADPREVHBITS;
.................... ADPREVHBITS ADPREVHbits;
.................... #byte ADPREVHbits = 0x08F
.................... #byte ADPREVH = 0x08F
.................... 
.................... typedef struct 
....................  {
....................    unsigned int ADACC:8;
.................... } ADACCLBITS;
.................... ADACCLBITS ADACCLbits;
.................... #byte ADACCLbits = 0x090
.................... #byte ADACCL = 0x090
.................... 
.................... typedef struct 
....................  {
....................    unsigned int ADACC8:2;
....................    unsigned int ADACC1:6;
.................... } ADACCHBITS;
.................... ADACCHBITS ADACCHbits;
.................... #byte ADACCHbits = 0x091
.................... #byte ADACCH = 0x091
.................... 
.................... typedef struct 
....................  {
....................    union {
....................       struct {
....................          unsigned int ADGO:1;
....................          unsigned int :1;
....................          unsigned int ADFM:2;
....................          unsigned int ADCS:1;
....................          unsigned int :1;
....................          unsigned int ADCONT:1;
....................          unsigned int ADON:1;
....................       };
.................... 
....................    union {
....................       struct {
....................          unsigned int DONE:1;
....................          unsigned int :1;
....................          unsigned int ADFRM:2;
....................       };
....................    };
.................... 
....................       struct {
....................          unsigned int GO:1;
....................       };
....................    };
.................... } ADCON0BITS;
.................... ADCON0BITS ADCON0bits;
.................... #byte ADCON0bits = 0x093
.................... #byte ADCON0 = 0x093
.................... 
.................... typedef struct 
....................  {
....................    unsigned int ADDSEN:1;
....................    unsigned int :4;
....................    unsigned int ADGPOL:1;
....................    unsigned int ADIPEN:1;
....................    unsigned int ADPPOL:1;
.................... } ADCON1BITS;
.................... ADCON1BITS ADCON1bits;
.................... #byte ADCON1bits = 0x094
.................... #byte ADCON1 = 0x094
.................... 
.................... typedef struct 
....................  {
....................    unsigned int ADMD:3;
....................    unsigned int ADACLR:1;
....................    unsigned int ADCRS:3;
....................    unsigned int ADPSIS:1;
.................... } ADCON2BITS;
.................... ADCON2BITS ADCON2bits;
.................... #byte ADCON2bits = 0x095
.................... #byte ADCON2 = 0x095
.................... 
.................... typedef struct 
....................  {
....................    unsigned int ADTMD:3;
....................    unsigned int ADSOI:1;
....................    unsigned int ADCALC:3;
.................... } ADCON3BITS;
.................... ADCON3BITS ADCON3bits;
.................... #byte ADCON3bits = 0x096
.................... #byte ADCON3 = 0x096
.................... 
.................... typedef struct 
....................  {
....................    unsigned int ADSTAT:3;
....................    unsigned int ADMACT:1;
....................    unsigned int ADMATH:1;
....................    unsigned int ADLTHR:1;
....................    unsigned int ADUTHR:1;
....................    unsigned int ADAOV:1;
.................... } ADSTATBITS;
.................... ADSTATBITS ADSTATbits;
.................... #byte ADSTATbits = 0x097
.................... #byte ADSTAT = 0x097
.................... 
.................... #byte ADCLK = 0x098
.................... 
.................... #byte ADACT = 0x099
.................... 
.................... typedef struct 
....................  {
....................    unsigned int ADPREF:2;
....................    unsigned int :2;
....................    unsigned int ADNREF:1;
.................... } ADREFBITS;
.................... ADREFBITS ADREFbits;
.................... #byte ADREFbits = 0x09A
.................... #byte ADREF = 0x09A
.................... 
.................... #byte ADCAP = 0x09B
.................... 
.................... typedef struct 
....................  {
....................    unsigned int ADPRE:8;
.................... } ADPREBITS;
.................... ADPREBITS ADPREbits;
.................... #byte ADPREbits = 0x09C
.................... #byte ADPRE = 0x09C
.................... 
.................... typedef struct 
....................  {
....................    unsigned int ADACQ:8;
.................... } ADACQBITS;
.................... ADACQBITS ADACQbits;
.................... #byte ADACQbits = 0x09D
.................... #byte ADACQ = 0x09D
.................... 
.................... #byte ADPCH = 0x09E
.................... 
.................... typedef struct 
....................  {
....................    unsigned int ADCNT:8;
.................... } ADCNTBITS;
.................... ADCNTBITS ADCNTbits;
.................... #byte ADCNTbits = 0x10C
.................... #byte ADCNT = 0x10C
.................... 
.................... typedef struct 
....................  {
....................    unsigned int ADRPT:8;
.................... } ADRPTBITS;
.................... ADRPTBITS ADRPTbits;
.................... #byte ADRPTbits = 0x10D
.................... #byte ADRPT = 0x10D
.................... 
.................... typedef struct 
....................  {
....................    unsigned int ADLTH:8;
.................... } ADLTHLBITS;
.................... ADLTHLBITS ADLTHLbits;
.................... #byte ADLTHLbits = 0x10E
.................... #byte ADLTHL = 0x10E
.................... 
.................... typedef struct 
....................  {
....................    unsigned int ADLTH8:2;
....................    unsigned int ADLTH1:6;
.................... } ADLTHHBITS;
.................... ADLTHHBITS ADLTHHbits;
.................... #byte ADLTHHbits = 0x10F
.................... #byte ADLTHH = 0x10F
.................... 
.................... typedef struct 
....................  {
....................    unsigned int ADUTH:8;
.................... } ADUTHLBITS;
.................... ADUTHLBITS ADUTHLbits;
.................... #byte ADUTHLbits = 0x110
.................... #byte ADUTHL = 0x110
.................... 
.................... typedef struct 
....................  {
....................    unsigned int ADUTH8:2;
....................    unsigned int ADUTH1:6;
.................... } ADUTHHBITS;
.................... ADUTHHBITS ADUTHHbits;
.................... #byte ADUTHHbits = 0x111
.................... #byte ADUTHH = 0x111
.................... 
.................... typedef struct 
....................  {
....................    unsigned int ADSTPT:8;
.................... } ADSTPTLBITS;
.................... ADSTPTLBITS ADSTPTLbits;
.................... #byte ADSTPTLbits = 0x112
.................... #byte ADSTPTL = 0x112
.................... 
.................... typedef struct 
....................  {
....................    unsigned int ADSTPT8:2;
....................    unsigned int ADSTPT1:6;
.................... } ADSTPTHBITS;
.................... ADSTPTHBITS ADSTPTHbits;
.................... #byte ADSTPTHbits = 0x113
.................... #byte ADSTPTH = 0x113
.................... 
.................... typedef struct 
....................  {
....................    unsigned int ADFLTR:8;
.................... } ADFLTRLBITS;
.................... ADFLTRLBITS ADFLTRLbits;
.................... #byte ADFLTRLbits = 0x114
.................... #byte ADFLTRL = 0x114
.................... 
.................... typedef struct 
....................  {
....................    unsigned int ADFLTR8:2;
....................    unsigned int ADFLTR1:6;
.................... } ADFLTRHBITS;
.................... ADFLTRHBITS ADFLTRHbits;
.................... #byte ADFLTRHbits = 0x115
.................... #byte ADFLTRH = 0x115
.................... 
.................... typedef struct 
....................  {
....................    unsigned int ADERR:8;
.................... } ADERRLBITS;
.................... ADERRLBITS ADERRLbits;
.................... #byte ADERRLbits = 0x116
.................... #byte ADERRL = 0x116
.................... 
.................... typedef struct 
....................  {
....................    unsigned int ADERR8:2;
....................    unsigned int ADERR1:6;
.................... } ADERRHBITS;
.................... ADERRHBITS ADERRHbits;
.................... #byte ADERRHbits = 0x117
.................... #byte ADERRH = 0x117
.................... 
.................... #byte RC1REG = 0x119
.................... 
.................... #byte TX1REG = 0x11A
.................... 
.................... #word SP1BRG = 0x11B
.................... 
.................... typedef struct 
....................  {
....................    unsigned int RX9D:1;
....................    unsigned int OERR:1;
....................    unsigned int FERR:1;
....................    unsigned int ADDEN:1;
....................    unsigned int CREN:1;
....................    unsigned int SREN:1;
....................    unsigned int RX9:1;
....................    unsigned int SPEN:1;
.................... } RC1STABITS;
.................... RC1STABITS RC1STAbits;
.................... #byte RC1STAbits = 0x11D
.................... #byte RC1STA = 0x11D
.................... 
.................... typedef struct 
....................  {
....................    unsigned int TX9D:1;
....................    unsigned int TRMT:1;
....................    unsigned int BRGH:1;
....................    unsigned int SENDB:1;
....................    unsigned int SYNC:1;
....................    unsigned int TXEN:1;
....................    unsigned int TX9:1;
....................    unsigned int CSRC:1;
.................... } TX1STABITS;
.................... TX1STABITS TX1STAbits;
.................... #byte TX1STAbits = 0x11E
.................... #byte TX1STA = 0x11E
.................... 
.................... typedef struct 
....................  {
....................    unsigned int ABDEN:1;
....................    unsigned int WUE:1;
....................    unsigned int :1;
....................    unsigned int BRG16:1;
....................    unsigned int SCKP:1;
....................    unsigned int :1;
....................    unsigned int RCIDL:1;
....................    unsigned int ABDOVF:1;
.................... } BAUD1CONBITS;
.................... BAUD1CONBITS BAUD1CONbits;
.................... #byte BAUD1CONbits = 0x11F
.................... #byte BAUD1CON = 0x11F
.................... 
.................... #byte SSP1BUF = 0x18C
.................... 
.................... 
.................... typedef struct 
....................  {
....................    unsigned int MSK:8;
.................... } SSP1ADDBITS;
.................... SSP1ADDBITS SSP1ADDbits;
.................... #byte SSP1ADDbits = 0x18D
.................... #byte SSP1ADD = 0x18D
.................... 
.................... 
.................... typedef struct 
....................  {
....................    unsigned int MSK:8;
.................... } SSP1MSKBITS;
.................... SSP1MSKBITS SSP1MSKbits;
.................... #byte SSP1MSKbits = 0x18E
.................... #byte SSP1MSK = 0x18E
.................... 
.................... typedef struct 
....................  {
....................    union {
....................       struct {
....................          unsigned int BF:1;
....................          unsigned int UA:1;
....................          unsigned int R:1;
....................          unsigned int S:1;
....................          unsigned int P:1;
....................          unsigned int D:1;
....................          unsigned int CKE:1;
....................          unsigned int SMP:1;
....................       };
.................... 
....................    union {
....................       struct {
....................          unsigned int :2;
....................          unsigned int R_W:1;
....................          unsigned int :2;
....................          unsigned int D_A:1;
....................       };
....................    };
.................... 
....................    union {
....................       struct {
....................          unsigned int :2;
....................          unsigned int W:1;
....................          unsigned int :2;
....................          unsigned int A:1;
....................       };
....................    };
.................... 
....................    union {
....................       struct {
....................          unsigned int :2;
....................          unsigned int WRITE:1;
....................          unsigned int S2:1;
....................          unsigned int P2:1;
....................          unsigned int ADDRESS:1;
....................       };
....................    };
.................... 
....................    union {
....................       struct {
....................          unsigned int :2;
....................          unsigned int READ_WRITE:1;
....................          unsigned int I2C_START:1;
....................          unsigned int I2C_STOP:1;
....................          unsigned int DATA_ADDRESS:1;
....................       };
....................    };
.................... 
....................    union {
....................       struct {
....................          unsigned int BF1:1;
....................          unsigned int UA1:1;
....................          unsigned int I2C_READ:1;
....................          unsigned int START:1;
....................          unsigned int STOP:1;
....................          unsigned int I2C_DAT:1;
....................          unsigned int CKE1:1;
....................          unsigned int SMP1:1;
....................       };
....................    };
.................... 
....................    union {
....................       struct {
....................          unsigned int :2;
....................          unsigned int RW:1;
....................          unsigned int I2C_START1:1;
....................          unsigned int I2C_STOP2:1;
....................          unsigned int DA:1;
....................       };
....................    };
.................... 
....................       struct {
....................          unsigned int :2;
....................          unsigned int W2:1;
....................          unsigned int :2;
....................          unsigned int A2:1;
....................       };
....................    };
.................... } SSP1STATBITS;
.................... SSP1STATBITS SSP1STATbits;
.................... #byte SSP1STATbits = 0x18F
.................... #byte SSP1STAT = 0x18F
.................... 
.................... typedef struct 
....................  {
....................    unsigned int SSPM:4;
....................    unsigned int CKP:1;
....................    unsigned int SSPEN:1;
....................    unsigned int SSPOV:1;
....................    unsigned int WCOL:1;
.................... } SSP1CON1BITS;
.................... SSP1CON1BITS SSP1CON1bits;
.................... #byte SSP1CON1bits = 0x190
.................... #byte SSP1CON1 = 0x190
.................... 
.................... typedef struct 
....................  {
....................    union {
....................       struct {
....................          unsigned int SEN:1;
....................          unsigned int RSEN:1;
....................          unsigned int PEN:1;
....................          unsigned int RCEN:1;
....................          unsigned int ACKEN:1;
....................          unsigned int ACKDT:1;
....................          unsigned int ACKSTAT:1;
....................          unsigned int GCEN:1;
....................       };
.................... 
....................    union {
....................       struct {
....................          unsigned int :1;
....................          unsigned int ADMSK:5;
....................       };
....................    };
.................... 
....................       struct {
....................          unsigned int SEN1:1;
....................          unsigned int ADMSK1:5;
....................          unsigned int ACKSTAT1:1;
....................          unsigned int GCEN1:1;
....................       };
....................    };
.................... } SSP1CON2BITS;
.................... SSP1CON2BITS SSP1CON2bits;
.................... #byte SSP1CON2bits = 0x191
.................... #byte SSP1CON2 = 0x191
.................... 
.................... typedef struct 
....................  {
....................    unsigned int DHEN:1;
....................    unsigned int AHEN:1;
....................    unsigned int SBCDE:1;
....................    unsigned int SDAHT:1;
....................    unsigned int BOEN:1;
....................    unsigned int SCIE:1;
....................    unsigned int PCIE:1;
....................    unsigned int ACKTIM:1;
.................... } SSP1CON3BITS;
.................... SSP1CON3BITS SSP1CON3bits;
.................... #byte SSP1CON3bits = 0x192
.................... #byte SSP1CON3 = 0x192
.................... 
.................... #byte SSP2BUF = 0x196
.................... 
.................... 
.................... typedef struct 
....................  {
....................    union {
....................       struct {
....................          unsigned int MSK:8;
....................       };
.................... 
....................       struct {
....................          unsigned int MSK02:1;
....................          unsigned int MSK12:1;
....................          unsigned int MSK22:1;
....................          unsigned int MSK32:1;
....................          unsigned int MSK42:1;
....................          unsigned int MSK52:1;
....................          unsigned int :1;
....................          unsigned int MSK72:1;
....................       };
....................    };
.................... } SSP2ADDBITS;
.................... SSP2ADDBITS SSP2ADDbits;
.................... #byte SSP2ADDbits = 0x197
.................... #byte SSP2ADD = 0x197
.................... 
.................... 
.................... typedef struct 
....................  {
....................    unsigned int MSK:8;
.................... } SSP2MSKBITS;
.................... SSP2MSKBITS SSP2MSKbits;
.................... #byte SSP2MSKbits = 0x198
.................... #byte SSP2MSK = 0x198
.................... 
.................... typedef struct 
....................  {
....................    union {
....................       struct {
....................          unsigned int BF:1;
....................          unsigned int UA:1;
....................          unsigned int R:1;
....................          unsigned int S:1;
....................          unsigned int P:1;
....................          unsigned int D:1;
....................          unsigned int CKE:1;
....................          unsigned int SMP:1;
....................       };
.................... 
....................    union {
....................       struct {
....................          unsigned int :2;
....................          unsigned int R_W:1;
....................          unsigned int :2;
....................          unsigned int D_A:1;
....................       };
....................    };
.................... 
....................    union {
....................       struct {
....................          unsigned int :2;
....................          unsigned int W:1;
....................          unsigned int :2;
....................          unsigned int A:1;
....................       };
....................    };
.................... 
....................    union {
....................       struct {
....................          unsigned int :2;
....................          unsigned int WRITE:1;
....................          unsigned int START2:1;
....................          unsigned int STOP2:1;
....................          unsigned int ADDRESS:1;
....................       };
....................    };
.................... 
....................    union {
....................       struct {
....................          unsigned int :2;
....................          unsigned int READ_WRITE:1;
....................          unsigned int I2C_START:1;
....................          unsigned int I2C_STOP:1;
....................          unsigned int DATA_ADDRESS:1;
....................       };
....................    };
.................... 
....................    union {
....................       struct {
....................          unsigned int BF2:1;
....................          unsigned int UA2:1;
....................          unsigned int I2C_READ:1;
....................          unsigned int START:1;
....................          unsigned int STOP:1;
....................          unsigned int I2C_DAT:1;
....................          unsigned int CKE2:1;
....................          unsigned int SMP2:1;
....................       };
....................    };
.................... 
....................    union {
....................       struct {
....................          unsigned int :2;
....................          unsigned int RW:1;
....................          unsigned int I2C_START2:1;
....................          unsigned int I2C_STOP2:1;
....................          unsigned int DA:1;
....................       };
....................    };
.................... 
....................    union {
....................       struct {
....................          unsigned int :2;
....................          unsigned int RW2:1;
....................          unsigned int S2:1;
....................          unsigned int P2:1;
....................          unsigned int DA2:1;
....................       };
....................    };
.................... 
....................    union {
....................       struct {
....................          unsigned int :2;
....................          unsigned int I2C_READ2:1;
....................          unsigned int :2;
....................          unsigned int DATA_ADDRESS2:1;
....................       };
....................    };
.................... 
....................    union {
....................       struct {
....................          unsigned int :2;
....................          unsigned int READ_WRITE2:1;
....................          unsigned int :2;
....................          unsigned int D_A2:1;
....................       };
....................    };
.................... 
....................    union {
....................       struct {
....................          unsigned int :2;
....................          unsigned int R_W2:1;
....................          unsigned int :2;
....................          unsigned int I2C_DAT2:1;
....................       };
....................    };
.................... 
....................    union {
....................       struct {
....................          unsigned int :2;
....................          unsigned int W2:1;
....................          unsigned int :2;
....................          unsigned int A2:1;
....................       };
....................    };
.................... 
....................       struct {
....................          unsigned int :2;
....................          unsigned int WRITE2:1;
....................          unsigned int :2;
....................          unsigned int ADDRESS2:1;
....................       };
....................    };
.................... } SSP2STATBITS;
.................... SSP2STATBITS SSP2STATbits;
.................... #byte SSP2STATbits = 0x199
.................... #byte SSP2STAT = 0x199
.................... 
.................... typedef struct 
....................  {
....................    union {
....................       struct {
....................          unsigned int SSPM:4;
....................          unsigned int CKP:1;
....................          unsigned int SSPEN:1;
....................          unsigned int SSPOV:1;
....................          unsigned int WCOL:1;
....................       };
.................... 
....................       struct {
....................          unsigned int SSPM02:1;
....................          unsigned int SSPM12:1;
....................          unsigned int SSPM22:1;
....................          unsigned int SSPM32:1;
....................          unsigned int CKP2:1;
....................          unsigned int SSPEN2:1;
....................          unsigned int SSPOV2:1;
....................          unsigned int WCOL2:1;
....................       };
....................    };
.................... } SSP2CON1BITS;
.................... SSP2CON1BITS SSP2CON1bits;
.................... #byte SSP2CON1bits = 0x19A
.................... #byte SSP2CON1 = 0x19A
.................... 
.................... typedef struct 
....................  {
....................    union {
....................       struct {
....................          unsigned int SEN:1;
....................          unsigned int RSEN:1;
....................          unsigned int PEN:1;
....................          unsigned int RCEN:1;
....................          unsigned int ACKEN:1;
....................          unsigned int ACKDT:1;
....................          unsigned int ACKSTAT:1;
....................          unsigned int GCEN:1;
....................       };
.................... 
....................    union {
....................       struct {
....................          unsigned int :1;
....................          unsigned int ADMSK:5;
....................       };
....................    };
.................... 
....................    union {
....................       struct {
....................          unsigned int SEN2:1;
....................          unsigned int ADMSK1:5;
....................          unsigned int ACKSTAT2:1;
....................          unsigned int GCEN2:1;
....................       };
....................    };
.................... 
....................    union {
....................       struct {
....................          unsigned int :1;
....................          unsigned int ADMSK12:1;
....................          unsigned int ADMSK22:1;
....................          unsigned int ADMSK32:1;
....................          unsigned int ACKEN2:1;
....................          unsigned int ACKDT2:1;
....................       };
....................    };
.................... 
....................       struct {
....................          unsigned int :1;
....................          unsigned int RSEN2:1;
....................          unsigned int PEN2:1;
....................          unsigned int RCEN2:1;
....................          unsigned int ADMSK42:1;
....................          unsigned int ADMSK52:1;
....................       };
....................    };
.................... } SSP2CON2BITS;
.................... SSP2CON2BITS SSP2CON2bits;
.................... #byte SSP2CON2bits = 0x19B
.................... #byte SSP2CON2 = 0x19B
.................... 
.................... typedef struct 
....................  {
....................    unsigned int DHEN:1;
....................    unsigned int AHEN:1;
....................    unsigned int SBCDE:1;
....................    unsigned int SDAHT:1;
....................    unsigned int BOEN:1;
....................    unsigned int SCIE:1;
....................    unsigned int PCIE:1;
....................    unsigned int ACKTIM:1;
.................... } SSP2CON3BITS;
.................... SSP2CON3BITS SSP2CON3bits;
.................... #byte SSP2CON3bits = 0x19C
.................... #byte SSP2CON3 = 0x19C
.................... 
.................... typedef struct 
....................  {
....................    union {
....................       struct {
....................          unsigned int TMR1L:8;
....................       };
.................... 
....................    union {
....................       struct {
....................          unsigned int :8;
....................       };
....................    };
.................... 
....................    union {
....................       struct {
....................          unsigned int TMR1:8;
....................       };
....................    };
.................... 
....................       struct {
....................          unsigned int CAL01:1;
....................          unsigned int CAL11:1;
....................          unsigned int CAL21:1;
....................          unsigned int CAL31:1;
....................          unsigned int CAL41:1;
....................          unsigned int :1;
....................          unsigned int CAL61:1;
....................          unsigned int CAL71:1;
....................       };
....................    };
.................... } TMR1LBITS;
.................... TMR1LBITS TMR1Lbits;
.................... #byte TMR1Lbits = 0x20C
.................... #byte TMR1L = 0x20C
.................... 
.................... typedef struct 
....................  {
....................    union {
....................       struct {
....................          unsigned int TMR1H:8;
....................       };
.................... 
....................    union {
....................       struct {
....................          unsigned int :8;
....................       };
....................    };
.................... 
....................       struct {
....................          unsigned int TMR18:2;
....................          unsigned int TMR11:6;
....................       };
....................    };
.................... } TMR1HBITS;
.................... TMR1HBITS TMR1Hbits;
.................... #byte TMR1Hbits = 0x20D
.................... #byte TMR1H = 0x20D
.................... 
.................... typedef struct 
....................  {
....................    union {
....................       struct {
....................          unsigned int ON:1;
....................          unsigned int RD16:1;
....................          unsigned int SYNC:1;
....................          unsigned int :1;
....................          unsigned int CKPS:2;
....................       };
.................... 
....................       struct {
....................          unsigned int TMR1ON:1;
....................          unsigned int T1RD16:1;
....................          unsigned int T1SYNC:1;
....................          unsigned int :1;
....................          unsigned int T1CKPS:2;
....................       };
....................    };
.................... } T1CONBITS;
.................... T1CONBITS T1CONbits;
.................... #byte T1CONbits = 0x20E
.................... #byte T1CON = 0x20E
.................... 
.................... typedef struct 
....................  {
....................    union {
....................       struct {
....................          unsigned int :2;
....................          unsigned int GVAL:1;
....................          unsigned int GGO:1;
....................          unsigned int GSPM:1;
....................          unsigned int GTM:1;
....................          unsigned int GPOL:1;
....................          unsigned int GE:1;
....................       };
.................... 
....................       struct {
....................          unsigned int :2;
....................          unsigned int T1GVAL:1;
....................          unsigned int T1GGO:1;
....................          unsigned int T1GSPM:1;
....................          unsigned int T1GTM:1;
....................          unsigned int T1GPOL:1;
....................          unsigned int T1GE:1;
....................       };
....................    };
.................... } T1GCONBITS;
.................... T1GCONBITS T1GCONbits;
.................... #byte T1GCONbits = 0x20F
.................... #byte T1GCON = 0x20F
.................... 
.................... #byte T1GATE = 0x210
.................... 
.................... #byte T1CLK = 0x211
.................... 
.................... typedef struct 
....................  {
....................    union {
....................       struct {
....................          unsigned int TMR3L:8;
....................       };
.................... 
....................    union {
....................       struct {
....................          unsigned int TMR3:8;
....................       };
....................    };
.................... 
....................       struct {
....................          unsigned int CAL03:1;
....................          unsigned int CAL13:1;
....................          unsigned int CAL23:1;
....................          unsigned int CAL33:1;
....................          unsigned int CAL43:1;
....................          unsigned int CAL53:1;
....................          unsigned int CAL63:1;
....................       };
....................    };
.................... } TMR3LBITS;
.................... TMR3LBITS TMR3Lbits;
.................... #byte TMR3Lbits = 0x212
.................... #byte TMR3L = 0x212
.................... 
.................... typedef struct 
....................  {
....................    union {
....................       struct {
....................          unsigned int TMR3H:8;
....................       };
.................... 
....................       struct {
....................          unsigned int TMR38:2;
....................          unsigned int TMR31:6;
....................       };
....................    };
.................... } TMR3HBITS;
.................... TMR3HBITS TMR3Hbits;
.................... #byte TMR3Hbits = 0x213
.................... #byte TMR3H = 0x213
.................... 
.................... typedef struct 
....................  {
....................    union {
....................       struct {
....................          unsigned int ON:1;
....................          unsigned int RD16:1;
....................          unsigned int SYNC:1;
....................          unsigned int :1;
....................          unsigned int CKPS:2;
....................       };
.................... 
....................    union {
....................       struct {
....................          unsigned int TMR3ON:1;
....................          unsigned int T3RD16:1;
....................          unsigned int T3SYNC:1;
....................          unsigned int :1;
....................          unsigned int T3CKPS:2;
....................       };
....................    };
.................... 
....................       struct {
....................          unsigned int :1;
....................          unsigned int RD163:1;
....................       };
....................    };
.................... } T3CONBITS;
.................... T3CONBITS T3CONbits;
.................... #byte T3CONbits = 0x214
.................... #byte T3CON = 0x214
.................... 
.................... typedef struct 
....................  {
....................    union {
....................       struct {
....................          unsigned int :2;
....................          unsigned int GVAL:1;
....................          unsigned int GGO:1;
....................          unsigned int GSPM:1;
....................          unsigned int GTM:1;
....................          unsigned int GPOL:1;
....................          unsigned int GE:1;
....................       };
.................... 
....................       struct {
....................          unsigned int :2;
....................          unsigned int T3GVAL:1;
....................          unsigned int T3GGO:1;
....................          unsigned int T3GSPM:1;
....................          unsigned int T3GTM:1;
....................          unsigned int T3GPOL:1;
....................          unsigned int T3GE:1;
....................       };
....................    };
.................... } T3GCONBITS;
.................... T3GCONBITS T3GCONbits;
.................... #byte T3GCONbits = 0x215
.................... #byte T3GCON = 0x215
.................... 
.................... #byte T3GATE = 0x216
.................... 
.................... #byte T3CLK = 0x217
.................... 
.................... typedef struct 
....................  {
....................    union {
....................       struct {
....................          unsigned int TMR5L:8;
....................       };
.................... 
....................    union {
....................       struct {
....................          unsigned int TMR5:8;
....................       };
....................    };
.................... 
....................       struct {
....................          unsigned int CAL05:1;
....................          unsigned int CAL15:1;
....................          unsigned int CAL25:1;
....................          unsigned int CAL35:1;
....................          unsigned int CAL45:1;
....................          unsigned int CAL55:1;
....................          unsigned int CAL65:1;
....................          unsigned int CAL75:1;
....................       };
....................    };
.................... } TMR5LBITS;
.................... TMR5LBITS TMR5Lbits;
.................... #byte TMR5Lbits = 0x218
.................... #byte TMR5L = 0x218
.................... 
.................... typedef struct 
....................  {
....................    union {
....................       struct {
....................          unsigned int TMR5H:8;
....................       };
.................... 
....................       struct {
....................          unsigned int TMR58:2;
....................          unsigned int TMR51:6;
....................       };
....................    };
.................... } TMR5HBITS;
.................... TMR5HBITS TMR5Hbits;
.................... #byte TMR5Hbits = 0x219
.................... #byte TMR5H = 0x219
.................... 
.................... typedef struct 
....................  {
....................    union {
....................       struct {
....................          unsigned int ON:1;
....................          unsigned int RD16:1;
....................          unsigned int SYNC:1;
....................          unsigned int :1;
....................          unsigned int CKPS:2;
....................       };
.................... 
....................    union {
....................       struct {
....................          unsigned int TMR5ON:1;
....................          unsigned int T5RD16:1;
....................          unsigned int T5SYNC:1;
....................          unsigned int :1;
....................          unsigned int T5CKPS:2;
....................       };
....................    };
.................... 
....................       struct {
....................          unsigned int :1;
....................          unsigned int RD165:1;
....................       };
....................    };
.................... } T5CONBITS;
.................... T5CONBITS T5CONbits;
.................... #byte T5CONbits = 0x21A
.................... #byte T5CON = 0x21A
.................... 
.................... typedef struct 
....................  {
....................    union {
....................       struct {
....................          unsigned int :2;
....................          unsigned int GVAL:1;
....................          unsigned int GGO:1;
....................          unsigned int GSPM:1;
....................          unsigned int GTM:1;
....................          unsigned int GPOL:1;
....................          unsigned int GE:1;
....................       };
.................... 
....................       struct {
....................          unsigned int :2;
....................          unsigned int T5GVAL:1;
....................          unsigned int T5GGO:1;
....................          unsigned int T5GSPM:1;
....................          unsigned int T5GTM:1;
....................          unsigned int T5GPOL:1;
....................          unsigned int T5GE:1;
....................       };
....................    };
.................... } T5GCONBITS;
.................... T5GCONBITS T5GCONbits;
.................... #byte T5GCONbits = 0x21B
.................... #byte T5GCON = 0x21B
.................... 
.................... #byte T5GATE = 0x21C
.................... 
.................... #byte T5CLK = 0x21D
.................... 
.................... typedef struct 
....................  {
....................    unsigned int C1TSEL:2;
....................    unsigned int C2TSEL:2;
....................    unsigned int C3TSEL:2;
....................    unsigned int C4TSEL:2;
.................... } CCPTMRS0BITS;
.................... CCPTMRS0BITS CCPTMRS0bits;
.................... #byte CCPTMRS0bits = 0x21E
.................... #byte CCPTMRS0 = 0x21E
.................... 
.................... typedef struct 
....................  {
....................    unsigned int C5TSEL:2;
....................    unsigned int P6TSEL:2;
....................    unsigned int P7TSEL:2;
.................... } CCPTMRS1BITS;
.................... CCPTMRS1BITS CCPTMRS1bits;
.................... #byte CCPTMRS1bits = 0x21F
.................... #byte CCPTMRS1 = 0x21F
.................... 
.................... #byte T2TMR = 0x28C
.................... 
.................... #byte T2PR = 0x28D
.................... 
.................... typedef struct 
....................  {
....................    union {
....................       struct {
....................          unsigned int OUTPS:4;
....................          unsigned int CKPS:3;
....................          unsigned int ON:1;
....................       };
.................... 
....................    union {
....................       struct {
....................          unsigned int T2OUTPS:4;
....................          unsigned int T2CKPS:3;
....................          unsigned int T2ON:1;
....................       };
....................    };
.................... 
....................       struct {
....................          unsigned int :7;
....................          unsigned int TMR2ON:1;
....................       };
....................    };
.................... } T2CONBITS;
.................... T2CONBITS T2CONbits;
.................... #byte T2CONbits = 0x28E
.................... #byte T2CON = 0x28E
.................... 
.................... typedef struct 
....................  {
....................    union {
....................       struct {
....................          unsigned int MODE:5;
....................          unsigned int CKSYNC:1;
....................          unsigned int CKPOL:1;
....................          unsigned int PSYNC:1;
....................       };
.................... 
....................       struct {
....................          unsigned int T2MODE:5;
....................          unsigned int T2CKSYNC:1;
....................          unsigned int T2CKPOL:1;
....................          unsigned int T2PSYNC:1;
....................       };
....................    };
.................... } T2HLTBITS;
.................... T2HLTBITS T2HLTbits;
.................... #byte T2HLTbits = 0x28F
.................... #byte T2HLT = 0x28F
.................... 
.................... #byte T2CLK = 0x290
.................... 
.................... #byte T2RST = 0x291
.................... 
.................... #byte T4TMR = 0x292
.................... 
.................... #byte T4PR = 0x293
.................... 
.................... typedef struct 
....................  {
....................    union {
....................       struct {
....................          unsigned int OUTPS:4;
....................          unsigned int CKPS:3;
....................          unsigned int ON:1;
....................       };
.................... 
....................    union {
....................       struct {
....................          unsigned int T4OUTPS:4;
....................          unsigned int T4CKPS:3;
....................          unsigned int T4ON:1;
....................       };
....................    };
.................... 
....................       struct {
....................          unsigned int :7;
....................          unsigned int TMR4ON:1;
....................       };
....................    };
.................... } T4CONBITS;
.................... T4CONBITS T4CONbits;
.................... #byte T4CONbits = 0x294
.................... #byte T4CON = 0x294
.................... 
.................... typedef struct 
....................  {
....................    union {
....................       struct {
....................          unsigned int MODE:5;
....................          unsigned int CKSYNC:1;
....................          unsigned int CKPOL:1;
....................          unsigned int PSYNC:1;
....................       };
.................... 
....................       struct {
....................          unsigned int T4MODE:5;
....................          unsigned int T4CKSYNC:1;
....................          unsigned int T4CKPOL:1;
....................          unsigned int T4PSYNC:1;
....................       };
....................    };
.................... } T4HLTBITS;
.................... T4HLTBITS T4HLTbits;
.................... #byte T4HLTbits = 0x295
.................... #byte T4HLT = 0x295
.................... 
.................... #byte T4CLK = 0x296
.................... 
.................... #byte T4RST = 0x297
.................... 
.................... #byte T6TMR = 0x298
.................... 
.................... #byte T6PR = 0x299
.................... 
.................... typedef struct 
....................  {
....................    union {
....................       struct {
....................          unsigned int OUTPS:4;
....................          unsigned int CKPS:3;
....................          unsigned int ON:1;
....................       };
.................... 
....................    union {
....................       struct {
....................          unsigned int T6OUTPS:4;
....................          unsigned int T6CKPS:3;
....................          unsigned int T6ON:1;
....................       };
....................    };
.................... 
....................       struct {
....................          unsigned int :7;
....................          unsigned int TMR6ON:1;
....................       };
....................    };
.................... } T6CONBITS;
.................... T6CONBITS T6CONbits;
.................... #byte T6CONbits = 0x29A
.................... #byte T6CON = 0x29A
.................... 
.................... typedef struct 
....................  {
....................    union {
....................       struct {
....................          unsigned int MODE:5;
....................          unsigned int CKSYNC:1;
....................          unsigned int CKPOL:1;
....................          unsigned int PSYNC:1;
....................       };
.................... 
....................       struct {
....................          unsigned int T6MODE:5;
....................          unsigned int T6CKSYNC:1;
....................          unsigned int T6CKPOL:1;
....................          unsigned int T6PSYNC:1;
....................       };
....................    };
.................... } T6HLTBITS;
.................... T6HLTBITS T6HLTbits;
.................... #byte T6HLTbits = 0x29B
.................... #byte T6HLT = 0x29B
.................... 
.................... #byte T6CLK = 0x29C
.................... 
.................... #byte T6RST = 0x29D
.................... 
.................... #word CCPR1 = 0x30C
.................... 
.................... typedef struct 
....................  {
....................    union {
....................       struct {
....................          unsigned int MODE:4;
....................          unsigned int FMT:1;
....................          unsigned int OUT:1;
....................          unsigned int OE:1;
....................          unsigned int EN:1;
....................       };
.................... 
....................    union {
....................       struct {
....................          unsigned int CCP1MODE:4;
....................          unsigned int CCP1FMT:1;
....................          unsigned int CCP1OUT:1;
....................          unsigned int CCP1OE:1;
....................          unsigned int CCP1EN:1;
....................       };
....................    };
.................... 
....................       struct {
....................          unsigned int :6;
....................          unsigned int P1M:2;
....................       };
....................    };
.................... } CCP1CONBITS;
.................... CCP1CONBITS CCP1CONbits;
.................... #byte CCP1CONbits = 0x30E
.................... #byte CCP1CON = 0x30E
.................... 
.................... 
.................... typedef struct 
....................  {
....................    union {
....................       struct {
....................          unsigned int CTS:8;
....................       };
.................... 
....................       struct {
....................          unsigned int CCP1CTS:8;
....................       };
....................    };
.................... } CCP1CAPBITS;
.................... CCP1CAPBITS CCP1CAPbits;
.................... #byte CCP1CAPbits = 0x30F
.................... #byte CCP1CAP = 0x30F
.................... 
.................... #word CCPR2 = 0x310
.................... 
.................... typedef struct 
....................  {
....................    union {
....................       struct {
....................          unsigned int MODE:4;
....................          unsigned int FMT:1;
....................          unsigned int OUT:1;
....................          unsigned int OE:1;
....................          unsigned int EN:1;
....................       };
.................... 
....................    union {
....................       struct {
....................          unsigned int CCP2MODE:4;
....................          unsigned int CCP2FMT:1;
....................          unsigned int CCP2OUT:1;
....................          unsigned int CCP2OE:1;
....................          unsigned int CCP2EN:1;
....................       };
....................    };
.................... 
....................       struct {
....................          unsigned int :6;
....................          unsigned int P2M:2;
....................       };
....................    };
.................... } CCP2CONBITS;
.................... CCP2CONBITS CCP2CONbits;
.................... #byte CCP2CONbits = 0x312
.................... #byte CCP2CON = 0x312
.................... 
.................... 
.................... typedef struct 
....................  {
....................    union {
....................       struct {
....................          unsigned int CTS:8;
....................       };
.................... 
....................       struct {
....................          unsigned int CCP2CTS:8;
....................       };
....................    };
.................... } CCP2CAPBITS;
.................... CCP2CAPBITS CCP2CAPbits;
.................... #byte CCP2CAPbits = 0x313
.................... #byte CCP2CAP = 0x313
.................... 
.................... #word CCPR3 = 0x314
.................... 
.................... typedef struct 
....................  {
....................    union {
....................       struct {
....................          unsigned int MODE:4;
....................          unsigned int FMT:1;
....................          unsigned int OUT:1;
....................          unsigned int OE:1;
....................          unsigned int EN:1;
....................       };
.................... 
....................    union {
....................       struct {
....................          unsigned int CCP3MODE:4;
....................          unsigned int CCP3FMT:1;
....................          unsigned int CCP3OUT:1;
....................          unsigned int CCP3OE:1;
....................          unsigned int CCP3EN:1;
....................       };
....................    };
.................... 
....................       struct {
....................          unsigned int :6;
....................          unsigned int P3M:2;
....................       };
....................    };
.................... } CCP3CONBITS;
.................... CCP3CONBITS CCP3CONbits;
.................... #byte CCP3CONbits = 0x316
.................... #byte CCP3CON = 0x316
.................... 
.................... 
.................... typedef struct 
....................  {
....................    union {
....................       struct {
....................          unsigned int CTS:8;
....................       };
.................... 
....................       struct {
....................          unsigned int CCP3CTS:8;
....................       };
....................    };
.................... } CCP3CAPBITS;
.................... CCP3CAPBITS CCP3CAPbits;
.................... #byte CCP3CAPbits = 0x317
.................... #byte CCP3CAP = 0x317
.................... 
.................... #word CCPR4 = 0x318
.................... 
.................... typedef struct 
....................  {
....................    union {
....................       struct {
....................          unsigned int MODE:4;
....................          unsigned int FMT:1;
....................          unsigned int OUT:1;
....................          unsigned int OE:1;
....................          unsigned int EN:1;
....................       };
.................... 
....................    union {
....................       struct {
....................          unsigned int CCP4MODE:4;
....................          unsigned int CCP4FMT:1;
....................          unsigned int CCP4OUT:1;
....................          unsigned int CCP4OE:1;
....................          unsigned int CCP4EN:1;
....................       };
....................    };
.................... 
....................       struct {
....................          unsigned int :6;
....................          unsigned int P4M:2;
....................       };
....................    };
.................... } CCP4CONBITS;
.................... CCP4CONBITS CCP4CONbits;
.................... #byte CCP4CONbits = 0x31A
.................... #byte CCP4CON = 0x31A
.................... 
.................... 
.................... typedef struct 
....................  {
....................    union {
....................       struct {
....................          unsigned int CTS:8;
....................       };
.................... 
....................       struct {
....................          unsigned int CCP4CTS:8;
....................       };
....................    };
.................... } CCP4CAPBITS;
.................... CCP4CAPBITS CCP4CAPbits;
.................... #byte CCP4CAPbits = 0x31B
.................... #byte CCP4CAP = 0x31B
.................... 
.................... #word CCPR5 = 0x31C
.................... 
.................... typedef struct 
....................  {
....................    union {
....................       struct {
....................          unsigned int MODE:4;
....................          unsigned int FMT:1;
....................          unsigned int OUT:1;
....................          unsigned int OE:1;
....................          unsigned int EN:1;
....................       };
.................... 
....................    union {
....................       struct {
....................          unsigned int CCP5MODE:4;
....................          unsigned int CCP5FMT:1;
....................          unsigned int CCP5OUT:1;
....................          unsigned int CCP5OE:1;
....................          unsigned int CCP5EN:1;
....................       };
....................    };
.................... 
....................       struct {
....................          unsigned int :6;
....................          unsigned int P5M:2;
....................       };
....................    };
.................... } CCP5CONBITS;
.................... CCP5CONBITS CCP5CONbits;
.................... #byte CCP5CONbits = 0x31E
.................... #byte CCP5CON = 0x31E
.................... 
.................... typedef struct 
....................  {
....................    union {
....................       struct {
....................          unsigned int CTS:8;
....................       };
.................... 
....................       struct {
....................          unsigned int CCP5CTS:8;
....................       };
....................    };
.................... } CCP5CAPBITS;
.................... CCP5CAPBITS CCP5CAPbits;
.................... #byte CCP5CAPbits = 0x31F
.................... #byte CCP5CAP = 0x31F
.................... 
.................... typedef struct 
....................  {
....................    union {
....................       struct {
....................          unsigned int :6;
....................          unsigned int DC:2;
....................       };
.................... 
....................    union {
....................       struct {
....................          unsigned int :6;
....................          unsigned int PWM6DC:2;
....................       };
....................    };
.................... 
....................       struct {
....................          unsigned int :6;
....................          unsigned int PWMPW:2;
....................       };
....................    };
.................... } PWM6DCLBITS;
.................... PWM6DCLBITS PWM6DCLbits;
.................... #byte PWM6DCLbits = 0x38C
.................... #byte PWM6DCL = 0x38C
.................... 
.................... typedef struct 
....................  {
....................    union {
....................       struct {
....................          unsigned int DC2:8;
....................       };
.................... 
....................    union {
....................       struct {
....................          unsigned int PWM6DC2:8;
....................       };
....................    };
.................... 
....................       struct {
....................          unsigned int PWMPW2:8;
....................       };
....................    };
.................... } PWM6DCHBITS;
.................... PWM6DCHBITS PWM6DCHbits;
.................... #byte PWM6DCHbits = 0x38D
.................... #byte PWM6DCH = 0x38D
.................... 
.................... typedef struct 
....................  {
....................    union {
....................       struct {
....................          unsigned int :4;
....................          unsigned int POL:1;
....................          unsigned int OUT:1;
....................          unsigned int OE:1;
....................          unsigned int EN:1;
....................       };
.................... 
....................       struct {
....................          unsigned int :4;
....................          unsigned int PWM6POL:1;
....................          unsigned int PWM6OUT:1;
....................          unsigned int PWM6OE:1;
....................          unsigned int PWM6EN:1;
....................       };
....................    };
.................... } PWM6CONBITS;
.................... PWM6CONBITS PWM6CONbits;
.................... #byte PWM6CONbits = 0x38E
.................... #byte PWM6CON = 0x38E
.................... 
.................... typedef struct 
....................  {
....................    union {
....................       struct {
....................          unsigned int :6;
....................          unsigned int DC:2;
....................       };
.................... 
....................    union {
....................       struct {
....................          unsigned int :6;
....................          unsigned int PWM7DC:2;
....................       };
....................    };
.................... 
....................       struct {
....................          unsigned int :6;
....................          unsigned int PWMPW:2;
....................       };
....................    };
.................... } PWM7DCLBITS;
.................... PWM7DCLBITS PWM7DCLbits;
.................... #byte PWM7DCLbits = 0x390
.................... #byte PWM7DCL = 0x390
.................... 
.................... typedef struct 
....................  {
....................    union {
....................       struct {
....................          unsigned int DC2:8;
....................       };
.................... 
....................    union {
....................       struct {
....................          unsigned int PWM7DC2:8;
....................       };
....................    };
.................... 
....................       struct {
....................          unsigned int PWMPW2:8;
....................       };
....................    };
.................... } PWM7DCHBITS;
.................... PWM7DCHBITS PWM7DCHbits;
.................... #byte PWM7DCHbits = 0x391
.................... #byte PWM7DCH = 0x391
.................... 
.................... typedef struct 
....................  {
....................    union {
....................       struct {
....................          unsigned int :4;
....................          unsigned int POL:1;
....................          unsigned int OUT:1;
....................          unsigned int OE:1;
....................          unsigned int EN:1;
....................       };
.................... 
....................       struct {
....................          unsigned int :4;
....................          unsigned int PWM7POL:1;
....................          unsigned int PWM7OUT:1;
....................          unsigned int PWM7OE:1;
....................          unsigned int PWM7EN:1;
....................       };
....................    };
.................... } PWM7CONBITS;
.................... PWM7CONBITS PWM7CONbits;
.................... #byte PWM7CONbits = 0x392
.................... #byte PWM7CON = 0x392
.................... 
.................... 
.................... typedef struct 
....................  {
....................    union {
....................       struct {
....................          unsigned int LADR:8;
....................       };
.................... 
....................       struct {
....................          unsigned int SCANLADR:8;
....................       };
....................    };
.................... } SCANLADRLBITS;
.................... SCANLADRLBITS SCANLADRLbits;
.................... #byte SCANLADRLbits = 0x40C
.................... #byte SCANLADRL = 0x40C
.................... 
.................... 
.................... typedef struct 
....................  {
....................    union {
....................       struct {
....................          unsigned int LADR8:2;
....................          unsigned int LADR1:6;
....................       };
.................... 
....................       struct {
....................          unsigned int SCANLADR8:2;
....................          unsigned int SCANLADR1:6;
....................       };
....................    };
.................... } SCANLADRHBITS;
.................... SCANLADRHBITS SCANLADRHbits;
.................... #byte SCANLADRHbits = 0x40D
.................... #byte SCANLADRH = 0x40D
.................... 
.................... 
.................... typedef struct 
....................  {
....................    union {
....................       struct {
....................          unsigned int HADR:8;
....................       };
.................... 
....................       struct {
....................          unsigned int SCANHADR:8;
....................       };
....................    };
.................... } SCANHADRLBITS;
.................... SCANHADRLBITS SCANHADRLbits;
.................... #byte SCANHADRLbits = 0x40E
.................... #byte SCANHADRL = 0x40E
.................... 
.................... 
.................... typedef struct 
....................  {
....................    union {
....................       struct {
....................          unsigned int HADR8:2;
....................          unsigned int HADR1:6;
....................       };
.................... 
....................       struct {
....................          unsigned int SCANHADR8:2;
....................          unsigned int SCANHADR1:6;
....................       };
....................    };
.................... } SCANHADRHBITS;
.................... SCANHADRHBITS SCANHADRHbits;
.................... #byte SCANHADRHbits = 0x40F
.................... #byte SCANHADRH = 0x40F
.................... 
.................... typedef struct 
....................  {
....................    union {
....................       struct {
....................          unsigned int MODE:2;
....................          unsigned int :1;
....................          unsigned int INTM:1;
....................          unsigned int INVALID:1;
....................          unsigned int BUSY:1;
....................          unsigned int SCANGO:1;
....................          unsigned int EN:1;
....................       };
.................... 
....................    union {
....................       struct {
....................          unsigned int SCANMODE:2;
....................          unsigned int :1;
....................          unsigned int SCANINTM:1;
....................          unsigned int SCANINVALID:1;
....................          unsigned int SCANBUSY:1;
....................          unsigned int :1;
....................          unsigned int SCANEN:1;
....................       };
....................    };
.................... 
....................       struct {
....................          unsigned int :4;
....................          unsigned int DABORT:1;
....................       };
....................    };
.................... } SCANCON0BITS;
.................... SCANCON0BITS SCANCON0bits;
.................... #byte SCANCON0bits = 0x410
.................... #byte SCANCON0 = 0x410
.................... 
.................... #byte SCANTRIG = 0x411
.................... 
.................... typedef struct 
....................  {
....................    unsigned int DATA:8;
.................... } CRCDATLBITS;
.................... CRCDATLBITS CRCDATLbits;
.................... #byte CRCDATLbits = 0x416
.................... #byte CRCDATL = 0x416
.................... 
.................... typedef struct 
....................  {
....................    unsigned int DATA8:2;
....................    unsigned int DATA1:6;
.................... } CRCDATHBITS;
.................... CRCDATHBITS CRCDATHbits;
.................... #byte CRCDATHbits = 0x417
.................... #byte CRCDATH = 0x417
.................... 
.................... typedef struct 
....................  {
....................    unsigned int ACC:8;
.................... } CRCACCLBITS;
.................... CRCACCLBITS CRCACCLbits;
.................... #byte CRCACCLbits = 0x418
.................... #byte CRCACCL = 0x418
.................... 
.................... typedef struct 
....................  {
....................    unsigned int ACC8:2;
....................    unsigned int ACC1:6;
.................... } CRCACCHBITS;
.................... CRCACCHBITS CRCACCHbits;
.................... #byte CRCACCHbits = 0x419
.................... #byte CRCACCH = 0x419
.................... 
.................... typedef struct 
....................  {
....................    unsigned int SHFT:8;
.................... } CRCSHIFTLBITS;
.................... CRCSHIFTLBITS CRCSHIFTLbits;
.................... #byte CRCSHIFTLbits = 0x41A
.................... #byte CRCSHIFTL = 0x41A
.................... 
.................... typedef struct 
....................  {
....................    unsigned int SHFT8:2;
....................    unsigned int SHFT1:6;
.................... } CRCSHIFTHBITS;
.................... CRCSHIFTHBITS CRCSHIFTHbits;
.................... #byte CRCSHIFTHbits = 0x41B
.................... #byte CRCSHIFTH = 0x41B
.................... 
.................... typedef struct 
....................  {
....................    unsigned int :1;
....................    unsigned int X1:7;
.................... } CRCXORLBITS;
.................... CRCXORLBITS CRCXORLbits;
.................... #byte CRCXORLbits = 0x41C
.................... #byte CRCXORL = 0x41C
.................... 
.................... typedef struct 
....................  {
....................    unsigned int X8:2;
....................    unsigned int X1:6;
.................... } CRCXORHBITS;
.................... CRCXORHBITS CRCXORHbits;
.................... #byte CRCXORHbits = 0x41D
.................... #byte CRCXORH = 0x41D
.................... 
.................... typedef struct 
....................  {
....................    union {
....................       struct {
....................          unsigned int FULL:1;
....................          unsigned int SHIFTM:1;
....................          unsigned int :2;
....................          unsigned int ACCM:1;
....................          unsigned int BUSY:1;
....................          unsigned int CRCGO:1;
....................          unsigned int EN:1;
....................       };
.................... 
....................       struct {
....................          unsigned int :7;
....................          unsigned int CRCEN:1;
....................       };
....................    };
.................... } CRCCON0BITS;
.................... CRCCON0BITS CRCCON0bits;
.................... #byte CRCCON0bits = 0x41E
.................... #byte CRCCON0 = 0x41E
.................... 
.................... typedef struct 
....................  {
....................    unsigned int PLEN:4;
....................    unsigned int DLEN:4;
.................... } CRCCON1BITS;
.................... CRCCON1BITS CRCCON1bits;
.................... #byte CRCCON1bits = 0x41F
.................... #byte CRCCON1 = 0x41F
.................... 
.................... typedef struct 
....................  {
....................    union {
....................       struct {
....................          unsigned int TMR:8;
....................       };
.................... 
....................       struct {
....................          unsigned int SMT1TMR:8;
....................       };
....................    };
.................... } SMT1TMRLBITS;
.................... SMT1TMRLBITS SMT1TMRLbits;
.................... #byte SMT1TMRLbits = 0x48C
.................... #byte SMT1TMRL = 0x48C
.................... 
.................... typedef struct 
....................  {
....................    union {
....................       struct {
....................          unsigned int TMR8:2;
....................          unsigned int TMR1:6;
....................       };
.................... 
....................       struct {
....................          unsigned int SMT1TMR8:2;
....................          unsigned int SMT1TMR1:6;
....................       };
....................    };
.................... } SMT1TMRHBITS;
.................... SMT1TMRHBITS SMT1TMRHbits;
.................... #byte SMT1TMRHbits = 0x48D
.................... #byte SMT1TMRH = 0x48D
.................... 
.................... typedef struct 
....................  {
....................    union {
....................       struct {
....................          unsigned int TMR16:4;
....................          unsigned int TMR2:4;
....................       };
.................... 
....................       struct {
....................          unsigned int SMT1TMR16:4;
....................          unsigned int SMT1TMR2:4;
....................       };
....................    };
.................... } SMT1TMRUBITS;
.................... SMT1TMRUBITS SMT1TMRUbits;
.................... #byte SMT1TMRUbits = 0x48E
.................... #byte SMT1TMRU = 0x48E
.................... 
.................... typedef struct 
....................  {
....................    union {
....................       struct {
....................          unsigned int CPR:8;
....................       };
.................... 
....................       struct {
....................          unsigned int SMT1CPR:8;
....................       };
....................    };
.................... } SMT1CPRLBITS;
.................... SMT1CPRLBITS SMT1CPRLbits;
.................... #byte SMT1CPRLbits = 0x48F
.................... #byte SMT1CPRL = 0x48F
.................... 
.................... typedef struct 
....................  {
....................    union {
....................       struct {
....................          unsigned int CPR8:2;
....................          unsigned int CPR1:6;
....................       };
.................... 
....................       struct {
....................          unsigned int SMT1CPR8:2;
....................          unsigned int SMT1CPR1:6;
....................       };
....................    };
.................... } SMT1CPRHBITS;
.................... SMT1CPRHBITS SMT1CPRHbits;
.................... #byte SMT1CPRHbits = 0x490
.................... #byte SMT1CPRH = 0x490
.................... 
.................... typedef struct 
....................  {
....................    union {
....................       struct {
....................          unsigned int CPR16:4;
....................          unsigned int CPR2:4;
....................       };
.................... 
....................       struct {
....................          unsigned int SMT1CPR16:4;
....................          unsigned int SMT1CPR2:4;
....................       };
....................    };
.................... } SMT1CPRUBITS;
.................... SMT1CPRUBITS SMT1CPRUbits;
.................... #byte SMT1CPRUbits = 0x491
.................... #byte SMT1CPRU = 0x491
.................... 
.................... typedef struct 
....................  {
....................    union {
....................       struct {
....................          unsigned int CPW:8;
....................       };
.................... 
....................       struct {
....................          unsigned int SMT1CPW:8;
....................       };
....................    };
.................... } SMT1CPWLBITS;
.................... SMT1CPWLBITS SMT1CPWLbits;
.................... #byte SMT1CPWLbits = 0x492
.................... #byte SMT1CPWL = 0x492
.................... 
.................... typedef struct 
....................  {
....................    union {
....................       struct {
....................          unsigned int CPW8:2;
....................          unsigned int CPW1:6;
....................       };
.................... 
....................       struct {
....................          unsigned int SMT1CPW8:2;
....................          unsigned int SMT1CPW1:6;
....................       };
....................    };
.................... } SMT1CPWHBITS;
.................... SMT1CPWHBITS SMT1CPWHbits;
.................... #byte SMT1CPWHbits = 0x493
.................... #byte SMT1CPWH = 0x493
.................... 
.................... typedef struct 
....................  {
....................    union {
....................       struct {
....................          unsigned int CPW16:4;
....................          unsigned int CPW2:4;
....................       };
.................... 
....................       struct {
....................          unsigned int SMT1CPW16:4;
....................          unsigned int SMT1CPW2:4;
....................       };
....................    };
.................... } SMT1CPWUBITS;
.................... SMT1CPWUBITS SMT1CPWUbits;
.................... #byte SMT1CPWUbits = 0x494
.................... #byte SMT1CPWU = 0x494
.................... 
.................... typedef struct 
....................  {
....................    union {
....................       struct {
....................          unsigned int PR:8;
....................       };
.................... 
....................       struct {
....................          unsigned int SMT1PR:8;
....................       };
....................    };
.................... } SMT1PRLBITS;
.................... SMT1PRLBITS SMT1PRLbits;
.................... #byte SMT1PRLbits = 0x495
.................... #byte SMT1PRL = 0x495
.................... 
.................... typedef struct 
....................  {
....................    union {
....................       struct {
....................          unsigned int PR8:2;
....................          unsigned int PR1:6;
....................       };
.................... 
....................       struct {
....................          unsigned int SMT1PR8:2;
....................          unsigned int SMT1PR1:6;
....................       };
....................    };
.................... } SMT1PRHBITS;
.................... SMT1PRHBITS SMT1PRHbits;
.................... #byte SMT1PRHbits = 0x496
.................... #byte SMT1PRH = 0x496
.................... 
.................... typedef struct 
....................  {
....................    union {
....................       struct {
....................          unsigned int PR16:4;
....................          unsigned int PR2:4;
....................       };
.................... 
....................       struct {
....................          unsigned int SMT1PR16:4;
....................          unsigned int SMT1PR2:4;
....................       };
....................    };
.................... } SMT1PRUBITS;
.................... SMT1PRUBITS SMT1PRUbits;
.................... #byte SMT1PRUbits = 0x497
.................... #byte SMT1PRU = 0x497
.................... 
.................... typedef struct 
....................  {
....................    union {
....................       struct {
....................          unsigned int PS:2;
....................          unsigned int CPOL:1;
....................          unsigned int SPOL:1;
....................          unsigned int WPOL:1;
....................          unsigned int STP:1;
....................          unsigned int :1;
....................          unsigned int EN:1;
....................       };
.................... 
....................       struct {
....................          unsigned int SMT1PS:2;
....................          unsigned int SMT1CPOL:1;
....................          unsigned int SMT1SPOL:1;
....................          unsigned int SMT1WOL:1;
....................          unsigned int SMT1STP:1;
....................          unsigned int :1;
....................          unsigned int SMT1EN:1;
....................       };
....................    };
.................... } SMT1CON0BITS;
.................... SMT1CON0BITS SMT1CON0bits;
.................... #byte SMT1CON0bits = 0x498
.................... #byte SMT1CON0 = 0x498
.................... 
.................... typedef struct 
....................  {
....................    union {
....................       struct {
....................          unsigned int MODE:4;
....................          unsigned int :2;
....................          unsigned int REPEAT:1;
....................          unsigned int GO:1;
....................       };
.................... 
....................       struct {
....................          unsigned int :6;
....................          unsigned int SMT1REPEAT:1;
....................          unsigned int SMT1GO:1;
....................       };
....................    };
.................... } SMT1CON1BITS;
.................... SMT1CON1BITS SMT1CON1bits;
.................... #byte SMT1CON1bits = 0x499
.................... #byte SMT1CON1 = 0x499
.................... 
.................... typedef struct 
....................  {
....................    union {
....................       struct {
....................          unsigned int AS:1;
....................          unsigned int WS:1;
....................          unsigned int TS:1;
....................          unsigned int :2;
....................          unsigned int RST:1;
....................          unsigned int CPWUP:1;
....................          unsigned int CPRUP:1;
....................       };
.................... 
....................    union {
....................       struct {
....................          unsigned int SMT1AS:1;
....................          unsigned int SMT1WS:1;
....................          unsigned int SMT1TS:1;
....................          unsigned int :2;
....................          unsigned int SMT1RESET:1;
....................          unsigned int SMT1CPWUP:1;
....................          unsigned int SMT1CPRUP:1;
....................       };
....................    };
.................... 
....................       struct {
....................          unsigned int :5;
....................          unsigned int SMT1RST:1;
....................       };
....................    };
.................... } SMT1STATBITS;
.................... SMT1STATBITS SMT1STATbits;
.................... #byte SMT1STATbits = 0x49A
.................... #byte SMT1STAT = 0x49A
.................... 
.................... #byte SMT1CLK = 0x49B
.................... 
.................... #byte SMT1SIG = 0x49C
.................... 
.................... #byte SMT1WIN = 0x49D
.................... 
.................... typedef struct 
....................  {
....................    union {
....................       struct {
....................          unsigned int TMR:8;
....................       };
.................... 
....................       struct {
....................          unsigned int SMT2TMR:8;
....................       };
....................    };
.................... } SMT2TMRLBITS;
.................... SMT2TMRLBITS SMT2TMRLbits;
.................... #byte SMT2TMRLbits = 0x50C
.................... #byte SMT2TMRL = 0x50C
.................... 
.................... typedef struct 
....................  {
....................    union {
....................       struct {
....................          unsigned int TMR8:2;
....................          unsigned int TMR1:6;
....................       };
.................... 
....................       struct {
....................          unsigned int SMT2TMR8:2;
....................          unsigned int SMT2TMR1:6;
....................       };
....................    };
.................... } SMT2TMRHBITS;
.................... SMT2TMRHBITS SMT2TMRHbits;
.................... #byte SMT2TMRHbits = 0x50D
.................... #byte SMT2TMRH = 0x50D
.................... 
.................... typedef struct 
....................  {
....................    union {
....................       struct {
....................          unsigned int TMR16:4;
....................          unsigned int TMR2:4;
....................       };
.................... 
....................       struct {
....................          unsigned int SMT2TMR16:4;
....................          unsigned int SMT2TMR2:4;
....................       };
....................    };
.................... } SMT2TMRUBITS;
.................... SMT2TMRUBITS SMT2TMRUbits;
.................... #byte SMT2TMRUbits = 0x50E
.................... #byte SMT2TMRU = 0x50E
.................... 
.................... typedef struct 
....................  {
....................    union {
....................       struct {
....................          unsigned int CPR:8;
....................       };
.................... 
....................       struct {
....................          unsigned int SMT2CPR:8;
....................       };
....................    };
.................... } SMT2CPRLBITS;
.................... SMT2CPRLBITS SMT2CPRLbits;
.................... #byte SMT2CPRLbits = 0x50F
.................... #byte SMT2CPRL = 0x50F
.................... 
.................... typedef struct 
....................  {
....................    union {
....................       struct {
....................          unsigned int CPR8:2;
....................          unsigned int CPR1:6;
....................       };
.................... 
....................       struct {
....................          unsigned int SMT2CPR8:2;
....................          unsigned int SMT2CPR1:6;
....................       };
....................    };
.................... } SMT2CPRHBITS;
.................... SMT2CPRHBITS SMT2CPRHbits;
.................... #byte SMT2CPRHbits = 0x510
.................... #byte SMT2CPRH = 0x510
.................... 
.................... typedef struct 
....................  {
....................    union {
....................       struct {
....................          unsigned int CPR16:4;
....................          unsigned int CPR2:4;
....................       };
.................... 
....................       struct {
....................          unsigned int SMT2CPR16:4;
....................          unsigned int SMT2CPR2:4;
....................       };
....................    };
.................... } SMT2CPRUBITS;
.................... SMT2CPRUBITS SMT2CPRUbits;
.................... #byte SMT2CPRUbits = 0x511
.................... #byte SMT2CPRU = 0x511
.................... 
.................... typedef struct 
....................  {
....................    union {
....................       struct {
....................          unsigned int CPW:8;
....................       };
.................... 
....................       struct {
....................          unsigned int SMT2CPW:8;
....................       };
....................    };
.................... } SMT2CPWLBITS;
.................... SMT2CPWLBITS SMT2CPWLbits;
.................... #byte SMT2CPWLbits = 0x512
.................... #byte SMT2CPWL = 0x512
.................... 
.................... typedef struct 
....................  {
....................    union {
....................       struct {
....................          unsigned int CPW8:2;
....................          unsigned int CPW1:6;
....................       };
.................... 
....................       struct {
....................          unsigned int SMT2CPW8:2;
....................          unsigned int SMT2CPW1:6;
....................       };
....................    };
.................... } SMT2CPWHBITS;
.................... SMT2CPWHBITS SMT2CPWHbits;
.................... #byte SMT2CPWHbits = 0x513
.................... #byte SMT2CPWH = 0x513
.................... 
.................... typedef struct 
....................  {
....................    union {
....................       struct {
....................          unsigned int CPW16:4;
....................          unsigned int CPW2:4;
....................       };
.................... 
....................       struct {
....................          unsigned int SMT2CPW16:4;
....................          unsigned int SMT2CPW2:4;
....................       };
....................    };
.................... } SMT2CPWUBITS;
.................... SMT2CPWUBITS SMT2CPWUbits;
.................... #byte SMT2CPWUbits = 0x514
.................... #byte SMT2CPWU = 0x514
.................... 
.................... typedef struct 
....................  {
....................    union {
....................       struct {
....................          unsigned int PR:8;
....................       };
.................... 
....................       struct {
....................          unsigned int SMT2PR:8;
....................       };
....................    };
.................... } SMT2PRLBITS;
.................... SMT2PRLBITS SMT2PRLbits;
.................... #byte SMT2PRLbits = 0x515
.................... #byte SMT2PRL = 0x515
.................... 
.................... typedef struct 
....................  {
....................    union {
....................       struct {
....................          unsigned int PR8:2;
....................          unsigned int PR1:6;
....................       };
.................... 
....................       struct {
....................          unsigned int SMT2PR8:2;
....................          unsigned int SMT2PR1:6;
....................       };
....................    };
.................... } SMT2PRHBITS;
.................... SMT2PRHBITS SMT2PRHbits;
.................... #byte SMT2PRHbits = 0x516
.................... #byte SMT2PRH = 0x516
.................... 
.................... typedef struct 
....................  {
....................    union {
....................       struct {
....................          unsigned int PR16:4;
....................          unsigned int PR2:4;
....................       };
.................... 
....................       struct {
....................          unsigned int SMT2PR16:4;
....................          unsigned int SMT2PR2:4;
....................       };
....................    };
.................... } SMT2PRUBITS;
.................... SMT2PRUBITS SMT2PRUbits;
.................... #byte SMT2PRUbits = 0x517
.................... #byte SMT2PRU = 0x517
.................... 
.................... typedef struct 
....................  {
....................    union {
....................       struct {
....................          unsigned int PS:2;
....................          unsigned int CPOL:1;
....................          unsigned int SPOL:1;
....................          unsigned int WPOL:1;
....................          unsigned int STP:1;
....................          unsigned int :1;
....................          unsigned int EN:1;
....................       };
.................... 
....................       struct {
....................          unsigned int SMT2PS:2;
....................          unsigned int SMT2CPOL:1;
....................          unsigned int SMT2SPOL:1;
....................          unsigned int SMT2WOL:1;
....................          unsigned int SMT2STP:1;
....................          unsigned int :1;
....................          unsigned int SMT2EN:1;
....................       };
....................    };
.................... } SMT2CON0BITS;
.................... SMT2CON0BITS SMT2CON0bits;
.................... #byte SMT2CON0bits = 0x518
.................... #byte SMT2CON0 = 0x518
.................... 
.................... typedef struct 
....................  {
....................    union {
....................       struct {
....................          unsigned int MODE:4;
....................          unsigned int :2;
....................          unsigned int REPEAT:1;
....................          unsigned int GO:1;
....................       };
.................... 
....................       struct {
....................          unsigned int :6;
....................          unsigned int SMT2REPEAT:1;
....................          unsigned int SMT2GO:1;
....................       };
....................    };
.................... } SMT2CON1BITS;
.................... SMT2CON1BITS SMT2CON1bits;
.................... #byte SMT2CON1bits = 0x519
.................... #byte SMT2CON1 = 0x519
.................... 
.................... typedef struct 
....................  {
....................    union {
....................       struct {
....................          unsigned int AS:1;
....................          unsigned int WS:1;
....................          unsigned int TS:1;
....................          unsigned int :2;
....................          unsigned int RST:1;
....................          unsigned int CPWUP:1;
....................          unsigned int CPRUP:1;
....................       };
.................... 
....................    union {
....................       struct {
....................          unsigned int SMT2AS:1;
....................          unsigned int SMT2WS:1;
....................          unsigned int SMT2TS:1;
....................          unsigned int :2;
....................          unsigned int SMT2RESET:1;
....................          unsigned int SMT2CPWUP:1;
....................          unsigned int SMT2CPRUP:1;
....................       };
....................    };
.................... 
....................       struct {
....................          unsigned int :5;
....................          unsigned int SMT2RST:1;
....................       };
....................    };
.................... } SMT2STATBITS;
.................... SMT2STATBITS SMT2STATbits;
.................... #byte SMT2STATbits = 0x51A
.................... #byte SMT2STAT = 0x51A
.................... 
.................... #byte SMT2CLK = 0x51B
.................... 
.................... #byte SMT2SIG = 0x51C
.................... 
.................... #byte SMT2WIN = 0x51D
.................... 
.................... typedef struct 
....................  {
....................    unsigned int NCO1ACC:8;
.................... } NCO1ACCLBITS;
.................... NCO1ACCLBITS NCO1ACCLbits;
.................... #byte NCO1ACCLbits = 0x58C
.................... #byte NCO1ACCL = 0x58C
.................... 
.................... typedef struct 
....................  {
....................    unsigned int NCO1ACC8:2;
....................    unsigned int NCO1ACC1:6;
.................... } NCO1ACCHBITS;
.................... NCO1ACCHBITS NCO1ACCHbits;
.................... #byte NCO1ACCHbits = 0x58D
.................... #byte NCO1ACCH = 0x58D
.................... 
.................... typedef struct 
....................  {
....................    unsigned int NCO1ACC16:4;
....................    unsigned int NCO1ACC2:4;
.................... } NCO1ACCUBITS;
.................... NCO1ACCUBITS NCO1ACCUbits;
.................... #byte NCO1ACCUbits = 0x58E
.................... #byte NCO1ACCU = 0x58E
.................... 
.................... typedef struct 
....................  {
....................    unsigned int NCO1INC:8;
.................... } NCO1INCLBITS;
.................... NCO1INCLBITS NCO1INCLbits;
.................... #byte NCO1INCLbits = 0x58F
.................... #byte NCO1INCL = 0x58F
.................... 
.................... typedef struct 
....................  {
....................    unsigned int NCO1INC8:2;
....................    unsigned int NCO1INC1:6;
.................... } NCO1INCHBITS;
.................... NCO1INCHBITS NCO1INCHbits;
.................... #byte NCO1INCHbits = 0x590
.................... #byte NCO1INCH = 0x590
.................... 
.................... typedef struct 
....................  {
....................    unsigned int NCO1INC16:4;
....................    unsigned int NCO1INC2:4;
.................... } NCO1INCUBITS;
.................... NCO1INCUBITS NCO1INCUbits;
.................... #byte NCO1INCUbits = 0x591
.................... #byte NCO1INCU = 0x591
.................... 
.................... typedef struct 
....................  {
....................    unsigned int N1PFM:1;
....................    unsigned int :3;
....................    unsigned int N1POL:1;
....................    unsigned int N1OUT:1;
....................    unsigned int N1OE:1;
....................    unsigned int N1EN:1;
.................... } NCO1CONBITS;
.................... NCO1CONBITS NCO1CONbits;
.................... #byte NCO1CONbits = 0x592
.................... #byte NCO1CON = 0x592
.................... 
.................... typedef struct 
....................  {
....................    unsigned int N1CKS:4;
....................    unsigned int :1;
....................    unsigned int N1PWS:3;
.................... } NCO1CLKBITS;
.................... NCO1CLKBITS NCO1CLKbits;
.................... #byte NCO1CLKbits = 0x593
.................... #byte NCO1CLK = 0x593
.................... 
.................... typedef struct 
....................  {
....................    union {
....................       struct {
....................          unsigned int CS:1;
....................       };
.................... 
....................       struct {
....................          unsigned int CWG1CS:1;
....................       };
....................    };
.................... } CWG1CLKCONBITS;
.................... CWG1CLKCONBITS CWG1CLKCONbits;
.................... #byte CWG1CLKCONbits = 0x60C
.................... #byte CWG1CLKCON = 0x60C
.................... 
.................... #byte CWG1ISM = 0x60D
.................... 
.................... #byte CWG1DBR = 0x60E
.................... 
.................... #byte CWG1DBF = 0x60F
.................... 
.................... typedef struct 
....................  {
....................    union {
....................       struct {
....................          unsigned int MODE:3;
....................          unsigned int :3;
....................          unsigned int LD:1;
....................          unsigned int EN:1;
....................       };
.................... 
....................    union {
....................       struct {
....................          unsigned int CWG1MODE:3;
....................          unsigned int :3;
....................          unsigned int CWG1LD:1;
....................          unsigned int G1EN:1;
....................       };
....................    };
.................... 
....................       struct {
....................          unsigned int :7;
....................          unsigned int CWG1EN:1;
....................       };
....................    };
.................... } CWG1CON0BITS;
.................... CWG1CON0BITS CWG1CON0bits;
.................... #byte CWG1CON0bits = 0x610
.................... #byte CWG1CON0 = 0x610
.................... 
.................... typedef struct 
....................  {
....................    union {
....................       struct {
....................          unsigned int POLA:1;
....................          unsigned int POLB:1;
....................          unsigned int POLC:1;
....................          unsigned int POLD:1;
....................          unsigned int :1;
....................          unsigned int IN:1;
....................       };
.................... 
....................       struct {
....................          unsigned int CWG1POLA:1;
....................          unsigned int CWG1POLB:1;
....................          unsigned int CWG1POLC:1;
....................          unsigned int CWG1POLD:1;
....................          unsigned int :1;
....................          unsigned int CWG1IN:1;
....................       };
....................    };
.................... } CWG1CON1BITS;
.................... CWG1CON1BITS CWG1CON1bits;
.................... #byte CWG1CON1bits = 0x611
.................... #byte CWG1CON1 = 0x611
.................... 
.................... typedef struct 
....................  {
....................    union {
....................       struct {
....................          unsigned int :2;
....................          unsigned int LSAC:2;
....................          unsigned int LSBD:2;
....................          unsigned int REN:1;
....................          unsigned int SHUTDOWN:1;
....................       };
.................... 
....................       struct {
....................          unsigned int :2;
....................          unsigned int CWG1LSAC:2;
....................          unsigned int CWG1LSBD:2;
....................          unsigned int CWG1REN:1;
....................          unsigned int CWG1SHUTDOWN:1;
....................       };
....................    };
.................... } CWG1AS0BITS;
.................... CWG1AS0BITS CWG1AS0bits;
.................... #byte CWG1AS0bits = 0x612
.................... #byte CWG1AS0 = 0x612
.................... 
.................... typedef struct 
....................  {
....................    unsigned int AS0E:1;
....................    unsigned int AS1E:1;
....................    unsigned int AS2E:1;
....................    unsigned int AS3E:1;
....................    unsigned int AS4E:1;
....................    unsigned int AS5E:1;
....................    unsigned int AS6E:1;
.................... } CWG1AS1BITS;
.................... CWG1AS1BITS CWG1AS1bits;
.................... #byte CWG1AS1bits = 0x613
.................... #byte CWG1AS1 = 0x613
.................... 
.................... typedef struct 
....................  {
....................    union {
....................       struct {
....................          unsigned int STRA:1;
....................          unsigned int STRB:1;
....................          unsigned int STRC:1;
....................          unsigned int STRD:1;
....................          unsigned int OVRA:1;
....................          unsigned int OVRB:1;
....................          unsigned int OVRC:1;
....................          unsigned int OVRD:1;
....................       };
.................... 
....................       struct {
....................          unsigned int CWG1STRA:1;
....................          unsigned int CWG1STRB:1;
....................          unsigned int CWG1STRC:1;
....................          unsigned int CWG1STRD:1;
....................          unsigned int CWG1OVRA:1;
....................          unsigned int CWG1OVRB:1;
....................          unsigned int CWG1OVRC:1;
....................          unsigned int CWG1OVRD:1;
....................       };
....................    };
.................... } CWG1STRBITS;
.................... CWG1STRBITS CWG1STRbits;
.................... #byte CWG1STRbits = 0x614
.................... #byte CWG1STR = 0x614
.................... 
.................... typedef struct 
....................  {
....................    union {
....................       struct {
....................          unsigned int CS:1;
....................       };
.................... 
....................       struct {
....................          unsigned int CWG2CS:1;
....................       };
....................    };
.................... } CWG2CLKCONBITS;
.................... CWG2CLKCONBITS CWG2CLKCONbits;
.................... #byte CWG2CLKCONbits = 0x616
.................... #byte CWG2CLKCON = 0x616
.................... 
.................... #byte CWG2ISM = 0x617
.................... 
.................... #byte CWG2DBR = 0x618
.................... 
.................... #byte CWG2DBF = 0x619
.................... 
.................... typedef struct 
....................  {
....................    union {
....................       struct {
....................          unsigned int MODE:3;
....................          unsigned int :3;
....................          unsigned int LD:1;
....................          unsigned int EN:1;
....................       };
.................... 
....................    union {
....................       struct {
....................          unsigned int CWG2MODE:3;
....................          unsigned int :3;
....................          unsigned int CWG2LD:1;
....................          unsigned int G2EN:1;
....................       };
....................    };
.................... 
....................       struct {
....................          unsigned int :7;
....................          unsigned int CWG2EN:1;
....................       };
....................    };
.................... } CWG2CON0BITS;
.................... CWG2CON0BITS CWG2CON0bits;
.................... #byte CWG2CON0bits = 0x61A
.................... #byte CWG2CON0 = 0x61A
.................... 
.................... typedef struct 
....................  {
....................    union {
....................       struct {
....................          unsigned int POLA:1;
....................          unsigned int POLB:1;
....................          unsigned int POLC:1;
....................          unsigned int POLD:1;
....................          unsigned int :1;
....................          unsigned int IN:1;
....................       };
.................... 
....................       struct {
....................          unsigned int CWG2POLA:1;
....................          unsigned int CWG2POLB:1;
....................          unsigned int CWG2POLC:1;
....................          unsigned int CWG2POLD:1;
....................          unsigned int :1;
....................          unsigned int CWG2IN:1;
....................       };
....................    };
.................... } CWG2CON1BITS;
.................... CWG2CON1BITS CWG2CON1bits;
.................... #byte CWG2CON1bits = 0x61B
.................... #byte CWG2CON1 = 0x61B
.................... 
.................... typedef struct 
....................  {
....................    union {
....................       struct {
....................          unsigned int :2;
....................          unsigned int LSAC:2;
....................          unsigned int LSBD:2;
....................          unsigned int REN:1;
....................          unsigned int SHUTDOWN:1;
....................       };
.................... 
....................       struct {
....................          unsigned int :2;
....................          unsigned int CWG2LSAC:2;
....................          unsigned int CWG2LSBD:2;
....................          unsigned int CWG2REN:1;
....................          unsigned int CWG2SHUTDOWN:1;
....................       };
....................    };
.................... } CWG2AS0BITS;
.................... CWG2AS0BITS CWG2AS0bits;
.................... #byte CWG2AS0bits = 0x61C
.................... #byte CWG2AS0 = 0x61C
.................... 
.................... typedef struct 
....................  {
....................    unsigned int AS0E:1;
....................    unsigned int AS1E:1;
....................    unsigned int AS2E:1;
....................    unsigned int AS3E:1;
....................    unsigned int AS4E:1;
....................    unsigned int AS5E:1;
....................    unsigned int AS6E:1;
.................... } CWG2AS1BITS;
.................... CWG2AS1BITS CWG2AS1bits;
.................... #byte CWG2AS1bits = 0x61D
.................... #byte CWG2AS1 = 0x61D
.................... 
.................... typedef struct 
....................  {
....................    union {
....................       struct {
....................          unsigned int STRA:1;
....................          unsigned int STRB:1;
....................          unsigned int STRC:1;
....................          unsigned int STRD:1;
....................          unsigned int OVRA:1;
....................          unsigned int OVRB:1;
....................          unsigned int OVRC:1;
....................          unsigned int OVRD:1;
....................       };
.................... 
....................       struct {
....................          unsigned int CWG2STRA:1;
....................          unsigned int CWG2STRB:1;
....................          unsigned int CWG2STRC:1;
....................          unsigned int CWG2STRD:1;
....................          unsigned int CWG2OVRA:1;
....................          unsigned int CWG2OVRB:1;
....................          unsigned int CWG2OVRC:1;
....................          unsigned int CWG2OVRD:1;
....................       };
....................    };
.................... } CWG2STRBITS;
.................... CWG2STRBITS CWG2STRbits;
.................... #byte CWG2STRbits = 0x61E
.................... #byte CWG2STR = 0x61E
.................... 
.................... typedef struct 
....................  {
....................    union {
....................       struct {
....................          unsigned int CS:1;
....................       };
.................... 
....................       struct {
....................          unsigned int CWG3CS:1;
....................       };
....................    };
.................... } CWG3CLKCONBITS;
.................... CWG3CLKCONBITS CWG3CLKCONbits;
.................... #byte CWG3CLKCONbits = 0x68C
.................... #byte CWG3CLKCON = 0x68C
.................... 
.................... #byte CWG3ISM = 0x68D
.................... 
.................... #byte CWG3DBR = 0x68E
.................... 
.................... #byte CWG3DBF = 0x68F
.................... 
.................... typedef struct 
....................  {
....................    union {
....................       struct {
....................          unsigned int MODE:3;
....................          unsigned int :3;
....................          unsigned int LD:1;
....................          unsigned int EN:1;
....................       };
.................... 
....................    union {
....................       struct {
....................          unsigned int CWG3MODE:3;
....................          unsigned int :3;
....................          unsigned int CWG3LD:1;
....................          unsigned int G3EN:1;
....................       };
....................    };
.................... 
....................       struct {
....................          unsigned int :7;
....................          unsigned int CWG3EN:1;
....................       };
....................    };
.................... } CWG3CON0BITS;
.................... CWG3CON0BITS CWG3CON0bits;
.................... #byte CWG3CON0bits = 0x690
.................... #byte CWG3CON0 = 0x690
.................... 
.................... typedef struct 
....................  {
....................    union {
....................       struct {
....................          unsigned int POLA:1;
....................          unsigned int POLB:1;
....................          unsigned int POLC:1;
....................          unsigned int POLD:1;
....................          unsigned int :1;
....................          unsigned int IN:1;
....................       };
.................... 
....................       struct {
....................          unsigned int CWG3POLA:1;
....................          unsigned int CWG3POLB:1;
....................          unsigned int CWG3POLC:1;
....................          unsigned int CWG3POLD:1;
....................          unsigned int :1;
....................          unsigned int CWG3IN:1;
....................       };
....................    };
.................... } CWG3CON1BITS;
.................... CWG3CON1BITS CWG3CON1bits;
.................... #byte CWG3CON1bits = 0x691
.................... #byte CWG3CON1 = 0x691
.................... 
.................... typedef struct 
....................  {
....................    union {
....................       struct {
....................          unsigned int :2;
....................          unsigned int LSAC:2;
....................          unsigned int LSBD:2;
....................          unsigned int REN:1;
....................          unsigned int SHUTDOWN:1;
....................       };
.................... 
....................       struct {
....................          unsigned int :2;
....................          unsigned int CWG3LSAC:2;
....................          unsigned int CWG3LSBD:2;
....................          unsigned int CWG3REN:1;
....................          unsigned int CWG3SHUTDOWN:1;
....................       };
....................    };
.................... } CWG3AS0BITS;
.................... CWG3AS0BITS CWG3AS0bits;
.................... #byte CWG3AS0bits = 0x692
.................... #byte CWG3AS0 = 0x692
.................... 
.................... typedef struct 
....................  {
....................    unsigned int AS0E:1;
....................    unsigned int AS1E:1;
....................    unsigned int AS2E:1;
....................    unsigned int AS3E:1;
....................    unsigned int AS4E:1;
....................    unsigned int AS5E:1;
....................    unsigned int AS6E:1;
.................... } CWG3AS1BITS;
.................... CWG3AS1BITS CWG3AS1bits;
.................... #byte CWG3AS1bits = 0x693
.................... #byte CWG3AS1 = 0x693
.................... 
.................... typedef struct 
....................  {
....................    union {
....................       struct {
....................          unsigned int STRA:1;
....................          unsigned int STRB:1;
....................          unsigned int STRC:1;
....................          unsigned int STRD:1;
....................          unsigned int OVRA:1;
....................          unsigned int OVRB:1;
....................          unsigned int OVRC:1;
....................          unsigned int OVRD:1;
....................       };
.................... 
....................       struct {
....................          unsigned int CWG3STRA:1;
....................          unsigned int CWG3STRB:1;
....................          unsigned int CWG3STRC:1;
....................          unsigned int CWG3STRD:1;
....................          unsigned int CWG3OVRA:1;
....................          unsigned int CWG3OVRB:1;
....................          unsigned int CWG3OVRC:1;
....................          unsigned int CWG3OVRD:1;
....................       };
....................    };
.................... } CWG3STRBITS;
.................... CWG3STRBITS CWG3STRbits;
.................... #byte CWG3STRbits = 0x694
.................... #byte CWG3STR = 0x694
.................... 
.................... typedef struct 
....................  {
....................    unsigned int INTF:1;
....................    unsigned int :3;
....................    unsigned int IOCIF:1;
....................    unsigned int TMR0IF:1;
.................... } PIR0BITS;
.................... PIR0BITS PIR0bits;
.................... #byte PIR0bits = 0x70C
.................... #byte PIR0 = 0x70C
.................... 
.................... typedef struct 
....................  {
....................    unsigned int ADIF:1;
....................    unsigned int ADTIF:1;
....................    unsigned int :4;
....................    unsigned int CSWIF:1;
....................    unsigned int OSFIF:1;
.................... } PIR1BITS;
.................... PIR1BITS PIR1bits;
.................... #byte PIR1bits = 0x70D
.................... #byte PIR1 = 0x70D
.................... 
.................... typedef struct 
....................  {
....................    unsigned int C1IF:1;
....................    unsigned int C2IF:1;
....................    unsigned int :4;
....................    unsigned int ZCDIF:1;
.................... } PIR2BITS;
.................... PIR2BITS PIR2bits;
.................... #byte PIR2bits = 0x70E
.................... #byte PIR2 = 0x70E
.................... 
.................... typedef struct 
....................  {
....................    unsigned int SSP1IF:1;
....................    unsigned int BCL1IF:1;
....................    unsigned int SSP2IF:1;
....................    unsigned int BCL2IF:1;
....................    unsigned int TXIF:1;
....................    unsigned int RCIF:1;
.................... } PIR3BITS;
.................... PIR3BITS PIR3bits;
.................... #byte PIR3bits = 0x70F
.................... #byte PIR3 = 0x70F
.................... 
.................... typedef struct 
....................  {
....................    unsigned int TMR1IF:1;
....................    unsigned int TMR2IF:1;
....................    unsigned int TMR3IF:1;
....................    unsigned int TMR4IF:1;
....................    unsigned int TMR5IF:1;
....................    unsigned int TMR6IF:1;
.................... } PIR4BITS;
.................... PIR4BITS PIR4bits;
.................... #byte PIR4bits = 0x710
.................... #byte PIR4 = 0x710
.................... 
.................... typedef struct 
....................  {
....................    unsigned int TMR1GIF:1;
....................    unsigned int TMR3GIF:1;
....................    unsigned int TMR5GIF:1;
....................    unsigned int :1;
....................    unsigned int CLC1IF:1;
....................    unsigned int CLC2IF:1;
....................    unsigned int CLC3IF:1;
....................    unsigned int CLC4IF:1;
.................... } PIR5BITS;
.................... PIR5BITS PIR5bits;
.................... #byte PIR5bits = 0x711
.................... #byte PIR5 = 0x711
.................... 
.................... typedef struct 
....................  {
....................    unsigned int CCP1IF:1;
....................    unsigned int CCP2IF:1;
....................    unsigned int CCP3IF:1;
....................    unsigned int CCP4IF:1;
....................    unsigned int CCP5IF:1;
.................... } PIR6BITS;
.................... PIR6BITS PIR6bits;
.................... #byte PIR6bits = 0x712
.................... #byte PIR6 = 0x712
.................... 
.................... typedef struct 
....................  {
....................    union {
....................       struct {
....................          unsigned int CWG1IF:1;
....................          unsigned int CWG2IF:1;
....................          unsigned int CWG3IF:1;
....................          unsigned int :1;
....................          unsigned int NCO1IF:1;
....................          unsigned int NVMIF:1;
....................          unsigned int CRCIF:1;
....................          unsigned int SCANIF:1;
....................       };
.................... 
....................       struct {
....................          unsigned int :4;
....................          unsigned int NCOIF:1;
....................       };
....................    };
.................... } PIR7BITS;
.................... PIR7BITS PIR7bits;
.................... #byte PIR7bits = 0x713
.................... #byte PIR7 = 0x713
.................... 
.................... typedef struct 
....................  {
....................    unsigned int SMT1IF:1;
....................    unsigned int SMT1PRAIF:1;
....................    unsigned int SMT1PWAIF:1;
....................    unsigned int SMT2IF:1;
....................    unsigned int SMT2PRAIF:1;
....................    unsigned int SMT2PWAIF:1;
.................... } PIR8BITS;
.................... PIR8BITS PIR8bits;
.................... #byte PIR8bits = 0x714
.................... #byte PIR8 = 0x714
.................... 
.................... typedef struct 
....................  {
....................    unsigned int INTE:1;
....................    unsigned int :3;
....................    unsigned int IOCIE:1;
....................    unsigned int TMR0IE:1;
.................... } PIE0BITS;
.................... PIE0BITS PIE0bits;
.................... #byte PIE0bits = 0x716
.................... #byte PIE0 = 0x716
.................... 
.................... typedef struct 
....................  {
....................    unsigned int ADIE:1;
....................    unsigned int ADTIE:1;
....................    unsigned int :4;
....................    unsigned int CSWIE:1;
....................    unsigned int OSFIE:1;
.................... } PIE1BITS;
.................... PIE1BITS PIE1bits;
.................... #byte PIE1bits = 0x717
.................... #byte PIE1 = 0x717
.................... 
.................... typedef struct 
....................  {
....................    unsigned int C1IE:1;
....................    unsigned int C2IE:1;
....................    unsigned int :4;
....................    unsigned int ZCDIE:1;
.................... } PIE2BITS;
.................... PIE2BITS PIE2bits;
.................... #byte PIE2bits = 0x718
.................... #byte PIE2 = 0x718
.................... 
.................... typedef struct 
....................  {
....................    unsigned int SSP1IE:1;
....................    unsigned int BCL1IE:1;
....................    unsigned int SSP2IE:1;
....................    unsigned int BCL2IE:1;
....................    unsigned int TXIE:1;
....................    unsigned int RCIE:1;
.................... } PIE3BITS;
.................... PIE3BITS PIE3bits;
.................... #byte PIE3bits = 0x719
.................... #byte PIE3 = 0x719
.................... 
.................... typedef struct 
....................  {
....................    unsigned int TMR1IE:1;
....................    unsigned int TMR2IE:1;
....................    unsigned int TMR3IE:1;
....................    unsigned int TMR4IE:1;
....................    unsigned int TMR5IE:1;
....................    unsigned int TMR6IE:1;
.................... } PIE4BITS;
.................... PIE4BITS PIE4bits;
.................... #byte PIE4bits = 0x71A
.................... #byte PIE4 = 0x71A
.................... 
.................... typedef struct 
....................  {
....................    unsigned int TMR1GIE:1;
....................    unsigned int TMR3GIE:1;
....................    unsigned int TMR5GIE:1;
....................    unsigned int :1;
....................    unsigned int CLC1IE:1;
....................    unsigned int CLC2IE:1;
....................    unsigned int CLC3IE:1;
....................    unsigned int CLC4IE:1;
.................... } PIE5BITS;
.................... PIE5BITS PIE5bits;
.................... #byte PIE5bits = 0x71B
.................... #byte PIE5 = 0x71B
.................... 
.................... typedef struct 
....................  {
....................    unsigned int CCP1IE:1;
....................    unsigned int CCP2IE:1;
....................    unsigned int CCP3IE:1;
....................    unsigned int CCP4IE:1;
....................    unsigned int CCP5IE:1;
.................... } PIE6BITS;
.................... PIE6BITS PIE6bits;
.................... #byte PIE6bits = 0x71C
.................... #byte PIE6 = 0x71C
.................... 
.................... typedef struct 
....................  {
....................    union {
....................       struct {
....................          unsigned int CWG1IE:1;
....................          unsigned int CWG2IE:1;
....................          unsigned int CWG3IE:1;
....................          unsigned int :1;
....................          unsigned int NCO1IE:1;
....................          unsigned int NVMIE:1;
....................          unsigned int CRCIE:1;
....................          unsigned int SCANIE:1;
....................       };
.................... 
....................       struct {
....................          unsigned int :4;
....................          unsigned int NCOIE:1;
....................       };
....................    };
.................... } PIE7BITS;
.................... PIE7BITS PIE7bits;
.................... #byte PIE7bits = 0x71D
.................... #byte PIE7 = 0x71D
.................... 
.................... typedef struct 
....................  {
....................    unsigned int SMT1IE:1;
....................    unsigned int SMT1PRAIE:1;
....................    unsigned int SMT1PWAIE:1;
....................    unsigned int SMT2IE:1;
....................    unsigned int SMT2PRAIE:1;
....................    unsigned int SMT2PWAIE:1;
.................... } PIE8BITS;
.................... PIE8BITS PIE8bits;
.................... #byte PIE8bits = 0x71E
.................... #byte PIE8 = 0x71E
.................... 
.................... typedef struct 
....................  {
....................    unsigned int IOCMD:1;
....................    unsigned int CLKRMD:1;
....................    unsigned int NVMMD:1;
....................    unsigned int SCANMD:1;
....................    unsigned int CRCMD:1;
....................    unsigned int :1;
....................    unsigned int FVRMD:1;
....................    unsigned int SYSCMD:1;
.................... } PMD0BITS;
.................... PMD0BITS PMD0bits;
.................... #byte PMD0bits = 0x796
.................... #byte PMD0 = 0x796
.................... 
.................... typedef struct 
....................  {
....................    union {
....................       struct {
....................          unsigned int TMR0MD:1;
....................          unsigned int TMR1MD:1;
....................          unsigned int TMR2MD:1;
....................          unsigned int TMR3MD:1;
....................          unsigned int TMR4MD:1;
....................          unsigned int TMR5MD:1;
....................          unsigned int TMR6MD:1;
....................          unsigned int NCOMD:1;
....................       };
.................... 
....................       struct {
....................          unsigned int :7;
....................          unsigned int NCO1MD:1;
....................       };
....................    };
.................... } PMD1BITS;
.................... PMD1BITS PMD1bits;
.................... #byte PMD1bits = 0x797
.................... #byte PMD1 = 0x797
.................... 
.................... typedef struct 
....................  {
....................    unsigned int ZCDMD:1;
....................    unsigned int CMP1MD:1;
....................    unsigned int CMP2MD:1;
....................    unsigned int :2;
....................    unsigned int ADCMD:1;
....................    unsigned int DACMD:1;
.................... } PMD2BITS;
.................... PMD2BITS PMD2bits;
.................... #byte PMD2bits = 0x798
.................... #byte PMD2 = 0x798
.................... 
.................... typedef struct 
....................  {
....................    unsigned int CCP1MD:1;
....................    unsigned int CCP2MD:1;
....................    unsigned int CCP3MD:1;
....................    unsigned int CCP4MD:1;
....................    unsigned int CCP5MD:1;
....................    unsigned int PWM6MD:1;
....................    unsigned int PWM7MD:1;
.................... } PMD3BITS;
.................... PMD3BITS PMD3bits;
.................... #byte PMD3bits = 0x799
.................... #byte PMD3 = 0x799
.................... 
.................... typedef struct 
....................  {
....................    unsigned int CWG1MD:1;
....................    unsigned int CWG2MD:1;
....................    unsigned int CWG3MD:1;
....................    unsigned int :1;
....................    unsigned int MSSP1MD:1;
....................    unsigned int MSSP2MD:1;
....................    unsigned int UART1MD:1;
.................... } PMD4BITS;
.................... PMD4BITS PMD4bits;
.................... #byte PMD4bits = 0x79A
.................... #byte PMD4 = 0x79A
.................... 
.................... typedef struct 
....................  {
....................    unsigned int DSMMD:1;
....................    unsigned int CLC1MD:1;
....................    unsigned int CLC2MD:1;
....................    unsigned int CLC3MD:1;
....................    unsigned int CLC4MD:1;
....................    unsigned int :1;
....................    unsigned int SMT1MD:1;
....................    unsigned int SMT2MD:1;
.................... } PMD5BITS;
.................... PMD5BITS PMD5bits;
.................... #byte PMD5bits = 0x79B
.................... #byte PMD5 = 0x79B
.................... 
.................... typedef struct 
....................  {
....................    union {
....................       struct {
....................          unsigned int SEN:1;
....................          unsigned int WDTPS:5;
....................       };
.................... 
....................    union {
....................       struct {
....................          unsigned int SWDTEN:1;
....................       };
....................    };
.................... 
....................       struct {
....................          unsigned int WDTSEN:1;
....................       };
....................    };
.................... } WDTCON0BITS;
.................... WDTCON0BITS WDTCON0bits;
.................... #byte WDTCON0bits = 0x80C
.................... #byte WDTCON0 = 0x80C
.................... 
.................... typedef struct 
....................  {
....................    union {
....................       struct {
....................          unsigned int WINDOW:3;
....................          unsigned int :1;
....................          unsigned int WDTCS:3;
....................       };
.................... 
....................       struct {
....................          unsigned int WDTWINDOW:3;
....................       };
....................    };
.................... } WDTCON1BITS;
.................... WDTCON1BITS WDTCON1bits;
.................... #byte WDTCON1bits = 0x80D
.................... #byte WDTCON1 = 0x80D
.................... 
.................... typedef struct 
....................  {
....................    union {
....................       struct {
....................          unsigned int PSCNT:8;
....................       };
.................... 
....................       struct {
....................          unsigned int WDTPSCNT:8;
....................       };
....................    };
.................... } WDTPSLBITS;
.................... WDTPSLBITS WDTPSLbits;
.................... #byte WDTPSLbits = 0x80E
.................... #byte WDTPSL = 0x80E
.................... 
.................... typedef struct 
....................  {
....................    union {
....................       struct {
....................          unsigned int PSCNT8:2;
....................          unsigned int PSCNT1:6;
....................       };
.................... 
....................       struct {
....................          unsigned int WDTPSCNT8:2;
....................          unsigned int WDTPSCNT1:6;
....................       };
....................    };
.................... } WDTPSHBITS;
.................... WDTPSHBITS WDTPSHbits;
.................... #byte WDTPSHbits = 0x80F
.................... #byte WDTPSH = 0x80F
.................... 
.................... typedef struct 
....................  {
....................    union {
....................       struct {
....................          unsigned int PSCNT16:2;
....................          unsigned int STATE:1;
....................          unsigned int WDTTMR:5;
....................       };
.................... 
....................       struct {
....................          unsigned int WDTPSCNT16:2;
....................          unsigned int WDTSTATE:1;
....................       };
....................    };
.................... } WDTTMRBITS;
.................... WDTTMRBITS WDTTMRbits;
.................... #byte WDTTMRbits = 0x810
.................... #byte WDTTMR = 0x810
.................... 
.................... typedef struct 
....................  {
....................    unsigned int BORRDY:1;
....................    unsigned int :6;
....................    unsigned int SBOREN:1;
.................... } BORCONBITS;
.................... BORCONBITS BORCONbits;
.................... #byte BORCONbits = 0x811
.................... #byte BORCON = 0x811
.................... 
.................... 
.................... typedef struct 
....................  {
....................    unsigned int :1;
....................    unsigned int VREGPM:1;
.................... } VREGCONBITS;
.................... VREGCONBITS VREGCONbits;
.................... #byte VREGCONbits = 0x812
.................... #byte VREGCON = 0x812
.................... 
.................... typedef struct 
....................  {
....................    unsigned int BOR:1;
....................    unsigned int POR:1;
....................    unsigned int RI:1;
....................    unsigned int RMCLR:1;
....................    unsigned int RWDT:1;
....................    unsigned int WDTWV:1;
....................    unsigned int STKUNF:1;
....................    unsigned int STKOVF:1;
.................... } PCON0BITS;
.................... PCON0BITS PCON0bits;
.................... #byte PCON0bits = 0x813
.................... #byte PCON0 = 0x813
.................... 
.................... typedef struct 
....................  {
....................    unsigned int CCDS:2;
....................    unsigned int :5;
....................    unsigned int CCDEN:1;
.................... } CCDCONBITS;
.................... CCDCONBITS CCDCONbits;
.................... #byte CCDCONbits = 0x814
.................... #byte CCDCON = 0x814
.................... 
.................... typedef struct 
....................  {
....................    unsigned int NVMADR:8;
.................... } NVMADRLBITS;
.................... NVMADRLBITS NVMADRLbits;
.................... #byte NVMADRLbits = 0x81A
.................... #byte NVMADRL = 0x81A
.................... 
.................... typedef struct 
....................  {
....................    unsigned int NVMADR8:2;
....................    unsigned int NVMADR1:5;
.................... } NVMADRHBITS;
.................... NVMADRHBITS NVMADRHbits;
.................... #byte NVMADRHbits = 0x81B
.................... #byte NVMADRH = 0x81B
.................... 
.................... typedef struct 
....................  {
....................    unsigned int NVMDAT:8;
.................... } NVMDATLBITS;
.................... NVMDATLBITS NVMDATLbits;
.................... #byte NVMDATLbits = 0x81C
.................... #byte NVMDATL = 0x81C
.................... 
.................... typedef struct 
....................  {
....................    unsigned int NVMDAT8:2;
....................    unsigned int NVMDAT1:4;
.................... } NVMDATHBITS;
.................... NVMDATHBITS NVMDATHbits;
.................... #byte NVMDATHbits = 0x81D
.................... #byte NVMDATH = 0x81D
.................... 
.................... typedef struct 
....................  {
....................    unsigned int RD:1;
....................    unsigned int WR:1;
....................    unsigned int WREN:1;
....................    unsigned int WRERR:1;
....................    unsigned int FREE:1;
....................    unsigned int LWLO:1;
....................    unsigned int NVMREGS:1;
.................... } NVMCON1BITS;
.................... NVMCON1BITS NVMCON1bits;
.................... #byte NVMCON1bits = 0x81E
.................... #byte NVMCON1 = 0x81E
.................... 
.................... #byte NVMCON2 = 0x81F
.................... 
.................... typedef struct 
....................  {
....................    unsigned int DOZE:3;
....................    unsigned int :1;
....................    unsigned int DOE:1;
....................    unsigned int ROI:1;
....................    unsigned int DOZEN:1;
....................    unsigned int IDLEN:1;
.................... } CPUDOZEBITS;
.................... CPUDOZEBITS CPUDOZEbits;
.................... #byte CPUDOZEbits = 0x88C
.................... #byte CPUDOZE = 0x88C
.................... 
.................... typedef struct 
....................  {
....................    unsigned int NDIV:4;
....................    unsigned int NOSC:3;
.................... } OSCCON1BITS;
.................... OSCCON1BITS OSCCON1bits;
.................... #byte OSCCON1bits = 0x88D
.................... #byte OSCCON1 = 0x88D
.................... 
.................... typedef struct 
....................  {
....................    unsigned int CDIV:4;
....................    unsigned int COSC:3;
.................... } OSCCON2BITS;
.................... OSCCON2BITS OSCCON2bits;
.................... #byte OSCCON2bits = 0x88E
.................... #byte OSCCON2 = 0x88E
.................... 
.................... typedef struct 
....................  {
....................    unsigned int :3;
....................    unsigned int NOSCR:1;
....................    unsigned int ORDY:1;
....................    unsigned int :1;
....................    unsigned int SOSCPWR:1;
....................    unsigned int CSWHOLD:1;
.................... } OSCCON3BITS;
.................... OSCCON3BITS OSCCON3bits;
.................... #byte OSCCON3bits = 0x88F
.................... #byte OSCCON3 = 0x88F
.................... 
.................... typedef struct 
....................  {
....................    unsigned int PLLR:1;
....................    unsigned int :1;
....................    unsigned int ADOR:1;
....................    unsigned int SOR:1;
....................    unsigned int LFOR:1;
....................    unsigned int MFOR:1;
....................    unsigned int HFOR:1;
....................    unsigned int EXTOR:1;
.................... } OSCSTATBITS;
.................... OSCSTATBITS OSCSTATbits;
.................... #byte OSCSTATbits = 0x890
.................... #byte OSCSTAT = 0x890
.................... 
.................... typedef struct 
....................  {
....................    unsigned int :2;
....................    unsigned int ADOEN:1;
....................    unsigned int SOSCEN:1;
....................    unsigned int LFOEN:1;
....................    unsigned int MFOEN:1;
....................    unsigned int HFOEN:1;
....................    unsigned int EXTOEN:1;
.................... } OSCENBITS;
.................... OSCENBITS OSCENbits;
.................... #byte OSCENbits = 0x891
.................... #byte OSCEN = 0x891
.................... 
.................... #byte OSCTUNE = 0x892
.................... 
.................... #byte OSCFRQ = 0x893
.................... 
.................... typedef struct 
....................  {
....................    unsigned int CLKRDIV:3;
....................    unsigned int CLKRDC:2;
....................    unsigned int :2;
....................    unsigned int CLKREN:1;
.................... } CLKRCONBITS;
.................... CLKRCONBITS CLKRCONbits;
.................... #byte CLKRCONbits = 0x895
.................... #byte CLKRCON = 0x895
.................... 
.................... #byte CLKRCLK = 0x896
.................... 
.................... typedef struct 
....................  {
....................    unsigned int MDBIT:1;
....................    unsigned int :3;
....................    unsigned int MDOPOL:1;
....................    unsigned int MDOUT:1;
....................    unsigned int :1;
....................    unsigned int MDEN:1;
.................... } MDCON0BITS;
.................... MDCON0BITS MDCON0bits;
.................... #byte MDCON0bits = 0x897
.................... #byte MDCON0 = 0x897
.................... 
.................... typedef struct 
....................  {
....................    unsigned int MDCLSYNC:1;
....................    unsigned int MDCLPOL:1;
....................    unsigned int :2;
....................    unsigned int MDCHSYNC:1;
....................    unsigned int MDCHPOL:1;
.................... } MDCON1BITS;
.................... MDCON1BITS MDCON1bits;
.................... #byte MDCON1bits = 0x898
.................... #byte MDCON1 = 0x898
.................... 
.................... #byte MDSRC = 0x899
.................... 
.................... #word MDCAR = 0x89A
.................... 
.................... typedef struct 
....................  {
....................    unsigned int ADFVR:2;
....................    unsigned int CDAFVR:2;
....................    unsigned int TSRNG:1;
....................    unsigned int TSEN:1;
....................    unsigned int FVRRDY:1;
....................    unsigned int FVREN:1;
.................... } FVRCONBITS;
.................... FVRCONBITS FVRCONbits;
.................... #byte FVRCONbits = 0x90C
.................... #byte FVRCON = 0x90C
.................... 
.................... typedef struct 
....................  {
....................    union {
....................       struct {
....................          unsigned int NSS:1;
....................          unsigned int :1;
....................          unsigned int PSS:2;
....................          unsigned int OE2:1;
....................          unsigned int OE1:1;
....................          unsigned int :1;
....................          unsigned int EN:1;
....................       };
.................... 
....................       struct {
....................          unsigned int DAC1NSS:1;
....................          unsigned int :1;
....................          unsigned int DAC1PSS:2;
....................          unsigned int DAC1OE2:1;
....................          unsigned int DAC1OE1:1;
....................          unsigned int :1;
....................          unsigned int DAC1EN:1;
....................       };
....................    };
.................... } DAC1CON0BITS;
.................... DAC1CON0BITS DAC1CON0bits;
.................... #byte DAC1CON0bits = 0x90E
.................... #byte DAC1CON0 = 0x90E
.................... 
.................... #byte DAC1CON1 = 0x90F
.................... 
.................... typedef struct 
....................  {
....................    union {
....................       struct {
....................          unsigned int INTN:1;
....................          unsigned int INTP:1;
....................          unsigned int :2;
....................          unsigned int POL:1;
....................          unsigned int OUT:1;
....................          unsigned int :1;
....................          unsigned int EN:1;
....................       };
.................... 
....................    union {
....................       struct {
....................          unsigned int ZCD1INTN:1;
....................          unsigned int ZCD1INTP:1;
....................          unsigned int :2;
....................          unsigned int ZCD1POL:1;
....................          unsigned int ZCD1OUT:1;
....................          unsigned int :1;
....................          unsigned int ZCD1EN:1;
....................       };
....................    };
.................... 
....................       struct {
....................          unsigned int ZCDINTN:1;
....................          unsigned int ZCDINTP:1;
....................          unsigned int :2;
....................          unsigned int ZCDPOL:1;
....................          unsigned int ZCDOUT:1;
....................          unsigned int :1;
....................          unsigned int ZCDEN:1;
....................       };
....................    };
.................... } ZCD1CONBITS;
.................... ZCD1CONBITS ZCD1CONbits;
.................... #byte ZCD1CONbits = 0x91F
.................... #byte ZCD1CON = 0x91F
.................... 
.................... typedef struct 
....................  {
....................    union {
....................       struct {
....................          unsigned int MC1OUT:1;
....................          unsigned int MC2OUT:1;
....................       };
.................... 
....................       struct {
....................          unsigned int C1OUT:1;
....................          unsigned int C2OUT:1;
....................       };
....................    };
.................... } CMOUTBITS;
.................... CMOUTBITS CMOUTbits;
.................... #byte CMOUTbits = 0x98F
.................... #byte CMOUT = 0x98F
.................... 
.................... typedef struct 
....................  {
....................    union {
....................       struct {
....................          unsigned int SYNC:1;
....................          unsigned int HYS:1;
....................          unsigned int Reserved:1;
....................          unsigned int ZLF:1;
....................          unsigned int POL:1;
....................          unsigned int OE:1;
....................          unsigned int OUT:1;
....................          unsigned int ON:1;
....................       };
.................... 
....................       struct {
....................          unsigned int C1SYNC:1;
....................          unsigned int C1HYS:1;
....................          unsigned int C1SP:1;
....................          unsigned int C1ZLF:1;
....................          unsigned int C1POL:1;
....................          unsigned int C1OE:1;
....................          unsigned int C1OUT:1;
....................          unsigned int C1ON:1;
....................       };
....................    };
.................... } CM1CON0BITS;
.................... CM1CON0BITS CM1CON0bits;
.................... #byte CM1CON0bits = 0x990
.................... #byte CM1CON0 = 0x990
.................... 
.................... typedef struct 
....................  {
....................    union {
....................       struct {
....................          unsigned int INTN:1;
....................          unsigned int INTP:1;
....................       };
.................... 
....................       struct {
....................          unsigned int C1INTN:1;
....................          unsigned int C1INTP:1;
....................       };
....................    };
.................... } CM1CON1BITS;
.................... CM1CON1BITS CM1CON1bits;
.................... #byte CM1CON1bits = 0x991
.................... #byte CM1CON1 = 0x991
.................... 
.................... #byte CM1NSEL = 0x992
.................... 
.................... #byte CM1PSEL = 0x993
.................... 
.................... typedef struct 
....................  {
....................    union {
....................       struct {
....................          unsigned int SYNC:1;
....................          unsigned int HYS:1;
....................          unsigned int Reserved:1;
....................          unsigned int ZLF:1;
....................          unsigned int POL:1;
....................          unsigned int OE:1;
....................          unsigned int OUT:1;
....................          unsigned int ON:1;
....................       };
.................... 
....................       struct {
....................          unsigned int C2SYNC:1;
....................          unsigned int C2HYS:1;
....................          unsigned int C2SP:1;
....................          unsigned int C2ZLF:1;
....................          unsigned int C2POL:1;
....................          unsigned int C2OE:1;
....................          unsigned int C2OUT:1;
....................          unsigned int C2ON:1;
....................       };
....................    };
.................... } CM2CON0BITS;
.................... CM2CON0BITS CM2CON0bits;
.................... #byte CM2CON0bits = 0x994
.................... #byte CM2CON0 = 0x994
.................... 
.................... typedef struct 
....................  {
....................    union {
....................       struct {
....................          unsigned int INTN:1;
....................          unsigned int INTP:1;
....................       };
.................... 
....................       struct {
....................          unsigned int C2INTN:1;
....................          unsigned int C2INTP:1;
....................       };
....................    };
.................... } CM2CON1BITS;
.................... CM2CON1BITS CM2CON1bits;
.................... #byte CM2CON1bits = 0x995
.................... #byte CM2CON1 = 0x995
.................... 
.................... #byte CM2NSEL = 0x996
.................... 
.................... #byte CM2PSEL = 0x997
.................... 
.................... typedef struct 
....................  {
....................    unsigned int MLC1OUT:1;
....................    unsigned int MLC2OUT:1;
....................    unsigned int MLC3OUT:1;
....................    unsigned int MLC4OUT:1;
.................... } CLCDATABITS;
.................... CLCDATABITS CLCDATAbits;
.................... #byte CLCDATAbits = 0xE0F
.................... #byte CLCDATA = 0xE0F
.................... 
.................... typedef struct 
....................  {
....................    union {
....................       struct {
....................          unsigned int LC1MODE:3;
....................          unsigned int LC1INTN:1;
....................          unsigned int LC1INTP:1;
....................          unsigned int LC1OUT:1;
....................          unsigned int LC1OE:1;
....................          unsigned int LC1EN:1;
....................       };
.................... 
....................       struct {
....................          unsigned int MODE:3;
....................          unsigned int INTN:1;
....................          unsigned int INTP:1;
....................          unsigned int OUT:1;
....................          unsigned int OE:1;
....................          unsigned int EN:1;
....................       };
....................    };
.................... } CLC1CONBITS;
.................... CLC1CONBITS CLC1CONbits;
.................... #byte CLC1CONbits = 0xE10
.................... #byte CLC1CON = 0xE10
.................... 
.................... typedef struct 
....................  {
....................    union {
....................       struct {
....................          unsigned int LC1G1POL:1;
....................          unsigned int LC1G2POL:1;
....................          unsigned int LC1G3POL:1;
....................          unsigned int LC1G4POL:1;
....................          unsigned int :3;
....................          unsigned int LC1POL:1;
....................       };
.................... 
....................       struct {
....................          unsigned int G1POL:1;
....................          unsigned int G2POL:1;
....................          unsigned int G3POL:1;
....................          unsigned int G4POL:1;
....................          unsigned int :3;
....................          unsigned int POL:1;
....................       };
....................    };
.................... } CLC1POLBITS;
.................... CLC1POLBITS CLC1POLbits;
.................... #byte CLC1POLbits = 0xE11
.................... #byte CLC1POL = 0xE11
.................... 
.................... typedef struct 
....................  {
....................    union {
....................       struct {
....................          unsigned int LC1D1S:8;
....................       };
.................... 
....................       struct {
....................          unsigned int D1S:8;
....................       };
....................    };
.................... } CLC1SEL0BITS;
.................... CLC1SEL0BITS CLC1SEL0bits;
.................... #byte CLC1SEL0bits = 0xE12
.................... #byte CLC1SEL0 = 0xE12
.................... 
.................... typedef struct 
....................  {
....................    union {
....................       struct {
....................          unsigned int LC1D2S:8;
....................       };
.................... 
....................       struct {
....................          unsigned int D2S:8;
....................       };
....................    };
.................... } CLC1SEL1BITS;
.................... CLC1SEL1BITS CLC1SEL1bits;
.................... #byte CLC1SEL1bits = 0xE13
.................... #byte CLC1SEL1 = 0xE13
.................... 
.................... typedef struct 
....................  {
....................    union {
....................       struct {
....................          unsigned int LC1D3S:8;
....................       };
.................... 
....................       struct {
....................          unsigned int D3S:8;
....................       };
....................    };
.................... } CLC1SEL2BITS;
.................... CLC1SEL2BITS CLC1SEL2bits;
.................... #byte CLC1SEL2bits = 0xE14
.................... #byte CLC1SEL2 = 0xE14
.................... 
.................... typedef struct 
....................  {
....................    union {
....................       struct {
....................          unsigned int LC1D4S:8;
....................       };
.................... 
....................       struct {
....................          unsigned int D4S:8;
....................       };
....................    };
.................... } CLC1SEL3BITS;
.................... CLC1SEL3BITS CLC1SEL3bits;
.................... #byte CLC1SEL3bits = 0xE15
.................... #byte CLC1SEL3 = 0xE15
.................... 
.................... typedef struct 
....................  {
....................    union {
....................       struct {
....................          unsigned int LC1G1D1N:1;
....................          unsigned int LC1G1D1T:1;
....................          unsigned int LC1G1D2N:1;
....................          unsigned int LC1G1D2T:1;
....................          unsigned int LC1G1D3N:1;
....................          unsigned int LC1G1D3T:1;
....................          unsigned int LC1G1D4N:1;
....................          unsigned int LC1G1D4T:1;
....................       };
.................... 
....................       struct {
....................          unsigned int D1N:1;
....................          unsigned int D1T:1;
....................          unsigned int D2N:1;
....................          unsigned int D2T:1;
....................          unsigned int D3N:1;
....................          unsigned int D3T:1;
....................          unsigned int D4N:1;
....................          unsigned int D4T:1;
....................       };
....................    };
.................... } CLC1GLS0BITS;
.................... CLC1GLS0BITS CLC1GLS0bits;
.................... #byte CLC1GLS0bits = 0xE16
.................... #byte CLC1GLS0 = 0xE16
.................... 
.................... typedef struct 
....................  {
....................    union {
....................       struct {
....................          unsigned int LC1G2D1N:1;
....................          unsigned int LC1G2D1T:1;
....................          unsigned int LC1G2D2N:1;
....................          unsigned int LC1G2D2T:1;
....................          unsigned int LC1G2D3N:1;
....................          unsigned int LC1G2D3T:1;
....................          unsigned int LC1G2D4N:1;
....................          unsigned int LC1G2D4T:1;
....................       };
.................... 
....................       struct {
....................          unsigned int D1N:1;
....................          unsigned int D1T:1;
....................          unsigned int D2N:1;
....................          unsigned int D2T:1;
....................          unsigned int D3N:1;
....................          unsigned int D3T:1;
....................          unsigned int D4N:1;
....................          unsigned int D4T:1;
....................       };
....................    };
.................... } CLC1GLS1BITS;
.................... CLC1GLS1BITS CLC1GLS1bits;
.................... #byte CLC1GLS1bits = 0xE17
.................... #byte CLC1GLS1 = 0xE17
.................... 
.................... typedef struct 
....................  {
....................    union {
....................       struct {
....................          unsigned int LC1G3D1N:1;
....................          unsigned int LC1G3D1T:1;
....................          unsigned int LC1G3D2N:1;
....................          unsigned int LC1G3D2T:1;
....................          unsigned int LC1G3D3N:1;
....................          unsigned int LC1G3D3T:1;
....................          unsigned int LC1G3D4N:1;
....................          unsigned int LC1G3D4T:1;
....................       };
.................... 
....................       struct {
....................          unsigned int D1N:1;
....................          unsigned int D1T:1;
....................          unsigned int D2N:1;
....................          unsigned int D2T:1;
....................          unsigned int D3N:1;
....................          unsigned int D3T:1;
....................          unsigned int D4N:1;
....................          unsigned int D4T:1;
....................       };
....................    };
.................... } CLC1GLS2BITS;
.................... CLC1GLS2BITS CLC1GLS2bits;
.................... #byte CLC1GLS2bits = 0xE18
.................... #byte CLC1GLS2 = 0xE18
.................... 
.................... typedef struct 
....................  {
....................    union {
....................       struct {
....................          unsigned int LC1G4D1N:1;
....................          unsigned int LC1G4D1T:1;
....................          unsigned int LC1G4D2N:1;
....................          unsigned int LC1G4D2T:1;
....................          unsigned int LC1G4D3N:1;
....................          unsigned int LC1G4D3T:1;
....................          unsigned int LC1G4D4N:1;
....................          unsigned int LC1G4D4T:1;
....................       };
.................... 
....................       struct {
....................          unsigned int G4D1N:1;
....................          unsigned int G4D1T:1;
....................          unsigned int G4D2N:1;
....................          unsigned int G4D2T:1;
....................          unsigned int G4D3N:1;
....................          unsigned int G4D3T:1;
....................          unsigned int G4D4N:1;
....................          unsigned int G4D4T:1;
....................       };
....................    };
.................... } CLC1GLS3BITS;
.................... CLC1GLS3BITS CLC1GLS3bits;
.................... #byte CLC1GLS3bits = 0xE19
.................... #byte CLC1GLS3 = 0xE19
.................... 
.................... typedef struct 
....................  {
....................    union {
....................       struct {
....................          unsigned int LC2MODE:3;
....................          unsigned int LC2INTN:1;
....................          unsigned int LC2INTP:1;
....................          unsigned int LC2OUT:1;
....................          unsigned int LC2OE:1;
....................          unsigned int LC2EN:1;
....................       };
.................... 
....................       struct {
....................          unsigned int MODE:3;
....................          unsigned int INTN:1;
....................          unsigned int INTP:1;
....................          unsigned int OUT:1;
....................          unsigned int OE:1;
....................          unsigned int EN:1;
....................       };
....................    };
.................... } CLC2CONBITS;
.................... CLC2CONBITS CLC2CONbits;
.................... #byte CLC2CONbits = 0xE1A
.................... #byte CLC2CON = 0xE1A
.................... 
.................... typedef struct 
....................  {
....................    union {
....................       struct {
....................          unsigned int LC2G1POL:1;
....................          unsigned int LC2G2POL:1;
....................          unsigned int LC2G3POL:1;
....................          unsigned int LC2G4POL:1;
....................          unsigned int :3;
....................          unsigned int LC2POL:1;
....................       };
.................... 
....................       struct {
....................          unsigned int G1POL:1;
....................          unsigned int G2POL:1;
....................          unsigned int G3POL:1;
....................          unsigned int G4POL:1;
....................          unsigned int :3;
....................          unsigned int POL:1;
....................       };
....................    };
.................... } CLC2POLBITS;
.................... CLC2POLBITS CLC2POLbits;
.................... #byte CLC2POLbits = 0xE1B
.................... #byte CLC2POL = 0xE1B
.................... 
.................... typedef struct 
....................  {
....................    union {
....................       struct {
....................          unsigned int LC2D1S:8;
....................       };
.................... 
....................       struct {
....................          unsigned int D1S:8;
....................       };
....................    };
.................... } CLC2SEL0BITS;
.................... CLC2SEL0BITS CLC2SEL0bits;
.................... #byte CLC2SEL0bits = 0xE1C
.................... #byte CLC2SEL0 = 0xE1C
.................... 
.................... typedef struct 
....................  {
....................    union {
....................       struct {
....................          unsigned int LC2D2S:8;
....................       };
.................... 
....................       struct {
....................          unsigned int D2S:8;
....................       };
....................    };
.................... } CLC2SEL1BITS;
.................... CLC2SEL1BITS CLC2SEL1bits;
.................... #byte CLC2SEL1bits = 0xE1D
.................... #byte CLC2SEL1 = 0xE1D
.................... 
.................... typedef struct 
....................  {
....................    union {
....................       struct {
....................          unsigned int LC2D3S:8;
....................       };
.................... 
....................       struct {
....................          unsigned int D3S:8;
....................       };
....................    };
.................... } CLC2SEL2BITS;
.................... CLC2SEL2BITS CLC2SEL2bits;
.................... #byte CLC2SEL2bits = 0xE1E
.................... #byte CLC2SEL2 = 0xE1E
.................... 
.................... typedef struct 
....................  {
....................    union {
....................       struct {
....................          unsigned int LC2D4S:8;
....................       };
.................... 
....................       struct {
....................          unsigned int D4S:8;
....................       };
....................    };
.................... } CLC2SEL3BITS;
.................... CLC2SEL3BITS CLC2SEL3bits;
.................... #byte CLC2SEL3bits = 0xE1F
.................... #byte CLC2SEL3 = 0xE1F
.................... 
.................... typedef struct 
....................  {
....................    union {
....................       struct {
....................          unsigned int LC2G1D1N:1;
....................          unsigned int LC2G1D1T:1;
....................          unsigned int LC2G1D2N:1;
....................          unsigned int LC2G1D2T:1;
....................          unsigned int LC2G1D3N:1;
....................          unsigned int LC2G1D3T:1;
....................          unsigned int LC2G1D4N:1;
....................          unsigned int LC2G1D4T:1;
....................       };
.................... 
....................       struct {
....................          unsigned int D1N:1;
....................          unsigned int D1T:1;
....................          unsigned int D2N:1;
....................          unsigned int D2T:1;
....................          unsigned int D3N:1;
....................          unsigned int D3T:1;
....................          unsigned int D4N:1;
....................          unsigned int D4T:1;
....................       };
....................    };
.................... } CLC2GLS0BITS;
.................... CLC2GLS0BITS CLC2GLS0bits;
.................... #byte CLC2GLS0bits = 0xE20
.................... #byte CLC2GLS0 = 0xE20
.................... 
.................... typedef struct 
....................  {
....................    union {
....................       struct {
....................          unsigned int LC2G2D1N:1;
....................          unsigned int LC2G2D1T:1;
....................          unsigned int LC2G2D2N:1;
....................          unsigned int LC2G2D2T:1;
....................          unsigned int LC2G2D3N:1;
....................          unsigned int LC2G2D3T:1;
....................          unsigned int LC2G2D4N:1;
....................          unsigned int LC2G2D4T:1;
....................       };
.................... 
....................       struct {
....................          unsigned int D1N:1;
....................          unsigned int D1T:1;
....................          unsigned int D2N:1;
....................          unsigned int D2T:1;
....................          unsigned int D3N:1;
....................          unsigned int D3T:1;
....................          unsigned int D4N:1;
....................          unsigned int D4T:1;
....................       };
....................    };
.................... } CLC2GLS1BITS;
.................... CLC2GLS1BITS CLC2GLS1bits;
.................... #byte CLC2GLS1bits = 0xE21
.................... #byte CLC2GLS1 = 0xE21
.................... 
.................... typedef struct 
....................  {
....................    union {
....................       struct {
....................          unsigned int LC2G3D1N:1;
....................          unsigned int LC2G3D1T:1;
....................          unsigned int LC2G3D2N:1;
....................          unsigned int LC2G3D2T:1;
....................          unsigned int LC2G3D3N:1;
....................          unsigned int LC2G3D3T:1;
....................          unsigned int LC2G3D4N:1;
....................          unsigned int LC2G3D4T:1;
....................       };
.................... 
....................       struct {
....................          unsigned int D1N:1;
....................          unsigned int D1T:1;
....................          unsigned int D2N:1;
....................          unsigned int D2T:1;
....................          unsigned int D3N:1;
....................          unsigned int D3T:1;
....................          unsigned int D4N:1;
....................          unsigned int D4T:1;
....................       };
....................    };
.................... } CLC2GLS2BITS;
.................... CLC2GLS2BITS CLC2GLS2bits;
.................... #byte CLC2GLS2bits = 0xE22
.................... #byte CLC2GLS2 = 0xE22
.................... 
.................... typedef struct 
....................  {
....................    union {
....................       struct {
....................          unsigned int LC2G4D1N:1;
....................          unsigned int LC2G4D1T:1;
....................          unsigned int LC2G4D2N:1;
....................          unsigned int LC2G4D2T:1;
....................          unsigned int LC2G4D3N:1;
....................          unsigned int LC2G4D3T:1;
....................          unsigned int LC2G4D4N:1;
....................          unsigned int LC2G4D4T:1;
....................       };
.................... 
....................       struct {
....................          unsigned int G4D1N:1;
....................          unsigned int G4D1T:1;
....................          unsigned int G4D2N:1;
....................          unsigned int G4D2T:1;
....................          unsigned int G4D3N:1;
....................          unsigned int G4D3T:1;
....................          unsigned int G4D4N:1;
....................          unsigned int G4D4T:1;
....................       };
....................    };
.................... } CLC2GLS3BITS;
.................... CLC2GLS3BITS CLC2GLS3bits;
.................... #byte CLC2GLS3bits = 0xE23
.................... #byte CLC2GLS3 = 0xE23
.................... 
.................... typedef struct 
....................  {
....................    union {
....................       struct {
....................          unsigned int LC3MODE:3;
....................          unsigned int LC3INTN:1;
....................          unsigned int LC3INTP:1;
....................          unsigned int LC3OUT:1;
....................          unsigned int LC3OE:1;
....................          unsigned int LC3EN:1;
....................       };
.................... 
....................       struct {
....................          unsigned int MODE:3;
....................          unsigned int INTN:1;
....................          unsigned int INTP:1;
....................          unsigned int OUT:1;
....................          unsigned int OE:1;
....................          unsigned int EN:1;
....................       };
....................    };
.................... } CLC3CONBITS;
.................... CLC3CONBITS CLC3CONbits;
.................... #byte CLC3CONbits = 0xE24
.................... #byte CLC3CON = 0xE24
.................... 
.................... typedef struct 
....................  {
....................    union {
....................       struct {
....................          unsigned int LC3G1POL:1;
....................          unsigned int LC3G2POL:1;
....................          unsigned int LC3G3POL:1;
....................          unsigned int LC3G4POL:1;
....................          unsigned int :3;
....................          unsigned int LC3POL:1;
....................       };
.................... 
....................       struct {
....................          unsigned int G1POL:1;
....................          unsigned int G2POL:1;
....................          unsigned int G3POL:1;
....................          unsigned int G4POL:1;
....................          unsigned int :3;
....................          unsigned int POL:1;
....................       };
....................    };
.................... } CLC3POLBITS;
.................... CLC3POLBITS CLC3POLbits;
.................... #byte CLC3POLbits = 0xE25
.................... #byte CLC3POL = 0xE25
.................... 
.................... typedef struct 
....................  {
....................    union {
....................       struct {
....................          unsigned int LC3D1S:8;
....................       };
.................... 
....................       struct {
....................          unsigned int D1S:8;
....................       };
....................    };
.................... } CLC3SEL0BITS;
.................... CLC3SEL0BITS CLC3SEL0bits;
.................... #byte CLC3SEL0bits = 0xE26
.................... #byte CLC3SEL0 = 0xE26
.................... 
.................... typedef struct 
....................  {
....................    union {
....................       struct {
....................          unsigned int LC3D2S:8;
....................       };
.................... 
....................       struct {
....................          unsigned int D2S:8;
....................       };
....................    };
.................... } CLC3SEL1BITS;
.................... CLC3SEL1BITS CLC3SEL1bits;
.................... #byte CLC3SEL1bits = 0xE27
.................... #byte CLC3SEL1 = 0xE27
.................... 
.................... typedef struct 
....................  {
....................    union {
....................       struct {
....................          unsigned int LC3D3S:8;
....................       };
.................... 
....................       struct {
....................          unsigned int D3S:8;
....................       };
....................    };
.................... } CLC3SEL2BITS;
.................... CLC3SEL2BITS CLC3SEL2bits;
.................... #byte CLC3SEL2bits = 0xE28
.................... #byte CLC3SEL2 = 0xE28
.................... 
.................... typedef struct 
....................  {
....................    union {
....................       struct {
....................          unsigned int LC3D4S:8;
....................       };
.................... 
....................       struct {
....................          unsigned int D4S:8;
....................       };
....................    };
.................... } CLC3SEL3BITS;
.................... CLC3SEL3BITS CLC3SEL3bits;
.................... #byte CLC3SEL3bits = 0xE29
.................... #byte CLC3SEL3 = 0xE29
.................... 
.................... typedef struct 
....................  {
....................    union {
....................       struct {
....................          unsigned int LC3G1D1N:1;
....................          unsigned int LC3G1D1T:1;
....................          unsigned int LC3G1D2N:1;
....................          unsigned int LC3G1D2T:1;
....................          unsigned int LC3G1D3N:1;
....................          unsigned int LC3G1D3T:1;
....................          unsigned int LC3G1D4N:1;
....................          unsigned int LC3G1D4T:1;
....................       };
.................... 
....................       struct {
....................          unsigned int D1N:1;
....................          unsigned int D1T:1;
....................          unsigned int D2N:1;
....................          unsigned int D2T:1;
....................          unsigned int D3N:1;
....................          unsigned int D3T:1;
....................          unsigned int D4N:1;
....................          unsigned int D4T:1;
....................       };
....................    };
.................... } CLC3GLS0BITS;
.................... CLC3GLS0BITS CLC3GLS0bits;
.................... #byte CLC3GLS0bits = 0xE2A
.................... #byte CLC3GLS0 = 0xE2A
.................... 
.................... typedef struct 
....................  {
....................    union {
....................       struct {
....................          unsigned int LC3G2D1N:1;
....................          unsigned int LC3G2D1T:1;
....................          unsigned int LC3G2D2N:1;
....................          unsigned int LC3G2D2T:1;
....................          unsigned int LC3G2D3N:1;
....................          unsigned int LC3G2D3T:1;
....................          unsigned int LC3G2D4N:1;
....................          unsigned int LC3G2D4T:1;
....................       };
.................... 
....................       struct {
....................          unsigned int D1N:1;
....................          unsigned int D1T:1;
....................          unsigned int D2N:1;
....................          unsigned int D2T:1;
....................          unsigned int D3N:1;
....................          unsigned int D3T:1;
....................          unsigned int D4N:1;
....................          unsigned int D4T:1;
....................       };
....................    };
.................... } CLC3GLS1BITS;
.................... CLC3GLS1BITS CLC3GLS1bits;
.................... #byte CLC3GLS1bits = 0xE2B
.................... #byte CLC3GLS1 = 0xE2B
.................... 
.................... typedef struct 
....................  {
....................    union {
....................       struct {
....................          unsigned int LC3G3D1N:1;
....................          unsigned int LC3G3D1T:1;
....................          unsigned int LC3G3D2N:1;
....................          unsigned int LC3G3D2T:1;
....................          unsigned int LC3G3D3N:1;
....................          unsigned int LC3G3D3T:1;
....................          unsigned int LC3G3D4N:1;
....................          unsigned int LC3G3D4T:1;
....................       };
.................... 
....................       struct {
....................          unsigned int D1N:1;
....................          unsigned int D1T:1;
....................          unsigned int D2N:1;
....................          unsigned int D2T:1;
....................          unsigned int D3N:1;
....................          unsigned int D3T:1;
....................          unsigned int D4N:1;
....................          unsigned int D4T:1;
....................       };
....................    };
.................... } CLC3GLS2BITS;
.................... CLC3GLS2BITS CLC3GLS2bits;
.................... #byte CLC3GLS2bits = 0xE2C
.................... #byte CLC3GLS2 = 0xE2C
.................... 
.................... typedef struct 
....................  {
....................    union {
....................       struct {
....................          unsigned int LC3G4D1N:1;
....................          unsigned int LC3G4D1T:1;
....................          unsigned int LC3G4D2N:1;
....................          unsigned int LC3G4D2T:1;
....................          unsigned int LC3G4D3N:1;
....................          unsigned int LC3G4D3T:1;
....................          unsigned int LC3G4D4N:1;
....................          unsigned int LC3G4D4T:1;
....................       };
.................... 
....................       struct {
....................          unsigned int G4D1N:1;
....................          unsigned int G4D1T:1;
....................          unsigned int G4D2N:1;
....................          unsigned int G4D2T:1;
....................          unsigned int G4D3N:1;
....................          unsigned int G4D3T:1;
....................          unsigned int G4D4N:1;
....................          unsigned int G4D4T:1;
....................       };
....................    };
.................... } CLC3GLS3BITS;
.................... CLC3GLS3BITS CLC3GLS3bits;
.................... #byte CLC3GLS3bits = 0xE2D
.................... #byte CLC3GLS3 = 0xE2D
.................... 
.................... typedef struct 
....................  {
....................    union {
....................       struct {
....................          unsigned int LC4MODE:3;
....................          unsigned int LC4INTN:1;
....................          unsigned int LC4INTP:1;
....................          unsigned int LC4OUT:1;
....................          unsigned int LC4OE:1;
....................          unsigned int LC4EN:1;
....................       };
.................... 
....................       struct {
....................          unsigned int MODE:3;
....................          unsigned int INTN:1;
....................          unsigned int INTP:1;
....................          unsigned int OUT:1;
....................          unsigned int OE:1;
....................          unsigned int EN:1;
....................       };
....................    };
.................... } CLC4CONBITS;
.................... CLC4CONBITS CLC4CONbits;
.................... #byte CLC4CONbits = 0xE2E
.................... #byte CLC4CON = 0xE2E
.................... 
.................... typedef struct 
....................  {
....................    union {
....................       struct {
....................          unsigned int LC4G1POL:1;
....................          unsigned int LC4G2POL:1;
....................          unsigned int LC4G3POL:1;
....................          unsigned int LC4G4POL:1;
....................          unsigned int :3;
....................          unsigned int LC4POL:1;
....................       };
.................... 
....................       struct {
....................          unsigned int G1POL:1;
....................          unsigned int G2POL:1;
....................          unsigned int G3POL:1;
....................          unsigned int G4POL:1;
....................          unsigned int :3;
....................          unsigned int POL:1;
....................       };
....................    };
.................... } CLC4POLBITS;
.................... CLC4POLBITS CLC4POLbits;
.................... #byte CLC4POLbits = 0xE2F
.................... #byte CLC4POL = 0xE2F
.................... 
.................... typedef struct 
....................  {
....................    union {
....................       struct {
....................          unsigned int LC4D1S:8;
....................       };
.................... 
....................       struct {
....................          unsigned int D1S:8;
....................       };
....................    };
.................... } CLC4SEL0BITS;
.................... CLC4SEL0BITS CLC4SEL0bits;
.................... #byte CLC4SEL0bits = 0xE30
.................... #byte CLC4SEL0 = 0xE30
.................... 
.................... typedef struct 
....................  {
....................    union {
....................       struct {
....................          unsigned int LC4D2S:8;
....................       };
.................... 
....................       struct {
....................          unsigned int D2S:8;
....................       };
....................    };
.................... } CLC4SEL1BITS;
.................... CLC4SEL1BITS CLC4SEL1bits;
.................... #byte CLC4SEL1bits = 0xE31
.................... #byte CLC4SEL1 = 0xE31
.................... 
.................... typedef struct 
....................  {
....................    union {
....................       struct {
....................          unsigned int LC4D3S:8;
....................       };
.................... 
....................       struct {
....................          unsigned int D3S:8;
....................       };
....................    };
.................... } CLC4SEL2BITS;
.................... CLC4SEL2BITS CLC4SEL2bits;
.................... #byte CLC4SEL2bits = 0xE32
.................... #byte CLC4SEL2 = 0xE32
.................... 
.................... typedef struct 
....................  {
....................    union {
....................       struct {
....................          unsigned int LC4D4S:8;
....................       };
.................... 
....................       struct {
....................          unsigned int D4S:8;
....................       };
....................    };
.................... } CLC4SEL3BITS;
.................... CLC4SEL3BITS CLC4SEL3bits;
.................... #byte CLC4SEL3bits = 0xE33
.................... #byte CLC4SEL3 = 0xE33
.................... 
.................... typedef struct 
....................  {
....................    union {
....................       struct {
....................          unsigned int LC4G1D1N:1;
....................          unsigned int LC4G1D1T:1;
....................          unsigned int LC4G1D2N:1;
....................          unsigned int LC4G1D2T:1;
....................          unsigned int LC4G1D3N:1;
....................          unsigned int LC4G1D3T:1;
....................          unsigned int LC4G1D4N:1;
....................          unsigned int LC4G1D4T:1;
....................       };
.................... 
....................       struct {
....................          unsigned int D1N:1;
....................          unsigned int D1T:1;
....................          unsigned int D2N:1;
....................          unsigned int D2T:1;
....................          unsigned int D3N:1;
....................          unsigned int D3T:1;
....................          unsigned int D4N:1;
....................          unsigned int D4T:1;
....................       };
....................    };
.................... } CLC4GLS0BITS;
.................... CLC4GLS0BITS CLC4GLS0bits;
.................... #byte CLC4GLS0bits = 0xE34
.................... #byte CLC4GLS0 = 0xE34
.................... 
.................... typedef struct 
....................  {
....................    union {
....................       struct {
....................          unsigned int LC4G2D1N:1;
....................          unsigned int LC4G2D1T:1;
....................          unsigned int LC4G2D2N:1;
....................          unsigned int LC4G2D2T:1;
....................          unsigned int LC4G2D3N:1;
....................          unsigned int LC4G2D3T:1;
....................          unsigned int LC4G2D4N:1;
....................          unsigned int LC4G2D4T:1;
....................       };
.................... 
....................       struct {
....................          unsigned int D1N:1;
....................          unsigned int D1T:1;
....................          unsigned int D2N:1;
....................          unsigned int D2T:1;
....................          unsigned int D3N:1;
....................          unsigned int D3T:1;
....................          unsigned int D4N:1;
....................          unsigned int D4T:1;
....................       };
....................    };
.................... } CLC4GLS1BITS;
.................... CLC4GLS1BITS CLC4GLS1bits;
.................... #byte CLC4GLS1bits = 0xE35
.................... #byte CLC4GLS1 = 0xE35
.................... 
.................... typedef struct 
....................  {
....................    union {
....................       struct {
....................          unsigned int LC4G3D1N:1;
....................          unsigned int LC4G3D1T:1;
....................          unsigned int LC4G3D2N:1;
....................          unsigned int LC4G3D2T:1;
....................          unsigned int LC4G3D3N:1;
....................          unsigned int LC4G3D3T:1;
....................          unsigned int LC4G3D4N:1;
....................          unsigned int LC4G3D4T:1;
....................       };
.................... 
....................       struct {
....................          unsigned int D1N:1;
....................          unsigned int D1T:1;
....................          unsigned int D2N:1;
....................          unsigned int D2T:1;
....................          unsigned int D3N:1;
....................          unsigned int D3T:1;
....................          unsigned int D4N:1;
....................          unsigned int D4T:1;
....................       };
....................    };
.................... } CLC4GLS2BITS;
.................... CLC4GLS2BITS CLC4GLS2bits;
.................... #byte CLC4GLS2bits = 0xE36
.................... #byte CLC4GLS2 = 0xE36
.................... 
.................... typedef struct 
....................  {
....................    union {
....................       struct {
....................          unsigned int LC4G4D1N:1;
....................          unsigned int LC4G4D1T:1;
....................          unsigned int LC4G4D2N:1;
....................          unsigned int LC4G4D2T:1;
....................          unsigned int LC4G4D3N:1;
....................          unsigned int LC4G4D3T:1;
....................          unsigned int LC4G4D4N:1;
....................          unsigned int LC4G4D4T:1;
....................       };
.................... 
....................       struct {
....................          unsigned int G4D1N:1;
....................          unsigned int G4D1T:1;
....................          unsigned int G4D2N:1;
....................          unsigned int G4D2T:1;
....................          unsigned int G4D3N:1;
....................          unsigned int G4D3T:1;
....................          unsigned int G4D4N:1;
....................          unsigned int G4D4T:1;
....................       };
....................    };
.................... } CLC4GLS3BITS;
.................... CLC4GLS3BITS CLC4GLS3bits;
.................... #byte CLC4GLS3bits = 0xE37
.................... #byte CLC4GLS3 = 0xE37
.................... 
.................... typedef struct 
....................  {
....................    unsigned int PPSLOCKED:1;
.................... } PPSLOCKBITS;
.................... PPSLOCKBITS PPSLOCKbits;
.................... #byte PPSLOCKbits = 0xE8F
.................... #byte PPSLOCK = 0xE8F
.................... 
.................... #byte INTPPS = 0xE90
.................... 
.................... #byte T0CKIPPS = 0xE91
.................... 
.................... #byte T1CKIPPS = 0xE92
.................... 
.................... #byte T1GPPS = 0xE93
.................... 
.................... #byte T3CKIPPS = 0xE94
.................... 
.................... #byte T3GPPS = 0xE95
.................... 
.................... #byte T5CKIPPS = 0xE96
.................... 
.................... #byte T5GPPS = 0xE97
.................... 
.................... #byte T2AINPPS = 0xE9C
.................... 
.................... #byte T4AINPPS = 0xE9D
.................... 
.................... #byte T6AINPPS = 0xE9E
.................... 
.................... #byte CCP1PPS = 0xEA1
.................... 
.................... #byte CCP2PPS = 0xEA2
.................... 
.................... #byte CCP3PPS = 0xEA3
.................... 
.................... #byte CCP4PPS = 0xEA4
.................... 
.................... #byte CCP5PPS = 0xEA5
.................... 
.................... #byte SMT1WINPPS = 0xEA9
.................... 
.................... #byte SMT1SIGPPS = 0xEAA
.................... 
.................... #byte SMT2WINPPS = 0xEAB
.................... 
.................... #byte SMT2SIGPPS = 0xEAC
.................... 
.................... #byte CWG1PPS = 0xEB1
.................... 
.................... #byte CWG2PPS = 0xEB2
.................... 
.................... #byte CWG3PPS = 0xEB3
.................... 
.................... #byte MDCARLPPS = 0xEB8
.................... 
.................... #byte MDCARHPPS = 0xEB9
.................... 
.................... #byte MDSRCPPS = 0xEBA
.................... 
.................... #byte CLCIN0PPS = 0xEBB
.................... 
.................... #byte CLCIN1PPS = 0xEBC
.................... 
.................... #byte CLCIN2PPS = 0xEBD
.................... 
.................... #byte CLCIN3PPS = 0xEBE
.................... 
.................... #byte ADCACTPPS = 0xEC3
.................... 
.................... #byte SSP1CLKPPS = 0xEC5
.................... 
.................... #byte SSP1DATPPS = 0xEC6
.................... 
.................... #byte SSP1SSPPS = 0xEC7
.................... 
.................... #byte SSP2CLKPPS = 0xEC8
.................... 
.................... #byte SSP2DATPPS = 0xEC9
.................... 
.................... #byte SSP2SSPPS = 0xECA
.................... 
.................... #byte RXPPS = 0xECB
.................... 
.................... #byte TXPPS = 0xECC
.................... 
.................... #byte RA0PPS = 0xF10
.................... 
.................... #byte RA1PPS = 0xF11
.................... 
.................... #byte RA2PPS = 0xF12
.................... 
.................... #byte RA3PPS = 0xF13
.................... 
.................... #byte RA4PPS = 0xF14
.................... 
.................... #byte RA5PPS = 0xF15
.................... 
.................... #byte RA6PPS = 0xF16
.................... 
.................... #byte RA7PPS = 0xF17
.................... 
.................... #byte RB0PPS = 0xF18
.................... 
.................... #byte RB1PPS = 0xF19
.................... 
.................... #byte RB2PPS = 0xF1A
.................... 
.................... #byte RB3PPS = 0xF1B
.................... 
.................... #byte RB4PPS = 0xF1C
.................... 
.................... #byte RB5PPS = 0xF1D
.................... 
.................... #byte RB6PPS = 0xF1E
.................... 
.................... #byte RB7PPS = 0xF1F
.................... 
.................... #byte RC0PPS = 0xF20
.................... 
.................... #byte RC1PPS = 0xF21
.................... 
.................... #byte RC2PPS = 0xF22
.................... 
.................... #byte RC3PPS = 0xF23
.................... 
.................... #byte RC4PPS = 0xF24
.................... 
.................... #byte RC5PPS = 0xF25
.................... 
.................... #byte RC6PPS = 0xF26
.................... 
.................... #byte RC7PPS = 0xF27
.................... 
.................... typedef struct 
....................  {
....................    unsigned int ANSA:8;
.................... } ANSELABITS;
.................... ANSELABITS ANSELAbits;
.................... #byte ANSELAbits = 0xF38
.................... #byte ANSELA = 0xF38
.................... 
.................... typedef struct 
....................  {
....................    unsigned int WPUA:8;
.................... } WPUABITS;
.................... WPUABITS WPUAbits;
.................... #byte WPUAbits = 0xF39
.................... #byte WPUA = 0xF39
.................... 
.................... typedef struct 
....................  {
....................    unsigned int ODCA:8;
.................... } ODCONABITS;
.................... ODCONABITS ODCONAbits;
.................... #byte ODCONAbits = 0xF3A
.................... #byte ODCONA = 0xF3A
.................... 
.................... typedef struct 
....................  {
....................    unsigned int SLRA:8;
.................... } SLRCONABITS;
.................... SLRCONABITS SLRCONAbits;
.................... #byte SLRCONAbits = 0xF3B
.................... #byte SLRCONA = 0xF3B
.................... 
.................... typedef struct 
....................  {
....................    unsigned int INLVLA:8;
.................... } INLVLABITS;
.................... INLVLABITS INLVLAbits;
.................... #byte INLVLAbits = 0xF3C
.................... #byte INLVLA = 0xF3C
.................... 
.................... typedef struct 
....................  {
....................    unsigned int IOCAP:8;
.................... } IOCAPBITS;
.................... IOCAPBITS IOCAPbits;
.................... #byte IOCAPbits = 0xF3D
.................... #byte IOCAP = 0xF3D
.................... 
.................... typedef struct 
....................  {
....................    unsigned int IOCAN:8;
.................... } IOCANBITS;
.................... IOCANBITS IOCANbits;
.................... #byte IOCANbits = 0xF3E
.................... #byte IOCAN = 0xF3E
.................... 
.................... typedef struct 
....................  {
....................    unsigned int IOCAF:8;
.................... } IOCAFBITS;
.................... IOCAFBITS IOCAFbits;
.................... #byte IOCAFbits = 0xF3F
.................... #byte IOCAF = 0xF3F
.................... 
.................... typedef struct 
....................  {
....................    unsigned int CCDNA:8;
.................... } CCDNABITS;
.................... CCDNABITS CCDNAbits;
.................... #byte CCDNAbits = 0xF40
.................... #byte CCDNA = 0xF40
.................... 
.................... typedef struct 
....................  {
....................    unsigned int CCDPA:8;
.................... } CCDPABITS;
.................... CCDPABITS CCDPAbits;
.................... #byte CCDPAbits = 0xF41
.................... #byte CCDPA = 0xF41
.................... 
.................... typedef struct 
....................  {
....................    unsigned int ANSB:8;
.................... } ANSELBBITS;
.................... ANSELBBITS ANSELBbits;
.................... #byte ANSELBbits = 0xF43
.................... #byte ANSELB = 0xF43
.................... 
.................... typedef struct 
....................  {
....................    unsigned int WPUB:8;
.................... } WPUBBITS;
.................... WPUBBITS WPUBbits;
.................... #byte WPUBbits = 0xF44
.................... #byte WPUB = 0xF44
.................... 
.................... typedef struct 
....................  {
....................    unsigned int ODCB:8;
.................... } ODCONBBITS;
.................... ODCONBBITS ODCONBbits;
.................... #byte ODCONBbits = 0xF45
.................... #byte ODCONB = 0xF45
.................... 
.................... typedef struct 
....................  {
....................    unsigned int SLRB:8;
.................... } SLRCONBBITS;
.................... SLRCONBBITS SLRCONBbits;
.................... #byte SLRCONBbits = 0xF46
.................... #byte SLRCONB = 0xF46
.................... 
.................... typedef struct 
....................  {
....................    unsigned int INLVLB:8;
.................... } INLVLBBITS;
.................... INLVLBBITS INLVLBbits;
.................... #byte INLVLBbits = 0xF47
.................... #byte INLVLB = 0xF47
.................... 
.................... typedef struct 
....................  {
....................    unsigned int IOCBP:8;
.................... } IOCBPBITS;
.................... IOCBPBITS IOCBPbits;
.................... #byte IOCBPbits = 0xF48
.................... #byte IOCBP = 0xF48
.................... 
.................... typedef struct 
....................  {
....................    unsigned int IOCBN:8;
.................... } IOCBNBITS;
.................... IOCBNBITS IOCBNbits;
.................... #byte IOCBNbits = 0xF49
.................... #byte IOCBN = 0xF49
.................... 
.................... typedef struct 
....................  {
....................    unsigned int IOCBF:8;
.................... } IOCBFBITS;
.................... IOCBFBITS IOCBFbits;
.................... #byte IOCBFbits = 0xF4A
.................... #byte IOCBF = 0xF4A
.................... 
.................... typedef struct 
....................  {
....................    unsigned int CCDNB:8;
.................... } CCDNBBITS;
.................... CCDNBBITS CCDNBbits;
.................... #byte CCDNBbits = 0xF4B
.................... #byte CCDNB = 0xF4B
.................... 
.................... typedef struct 
....................  {
....................    unsigned int CCDPB:8;
.................... } CCDPBBITS;
.................... CCDPBBITS CCDPBbits;
.................... #byte CCDPBbits = 0xF4C
.................... #byte CCDPB = 0xF4C
.................... 
.................... typedef struct 
....................  {
....................    unsigned int ANSC:8;
.................... } ANSELCBITS;
.................... ANSELCBITS ANSELCbits;
.................... #byte ANSELCbits = 0xF4E
.................... #byte ANSELC = 0xF4E
.................... 
.................... typedef struct 
....................  {
....................    unsigned int WPUC:8;
.................... } WPUCBITS;
.................... WPUCBITS WPUCbits;
.................... #byte WPUCbits = 0xF4F
.................... #byte WPUC = 0xF4F
.................... 
.................... typedef struct 
....................  {
....................    unsigned int ODCC:8;
.................... } ODCONCBITS;
.................... ODCONCBITS ODCONCbits;
.................... #byte ODCONCbits = 0xF50
.................... #byte ODCONC = 0xF50
.................... 
.................... typedef struct 
....................  {
....................    unsigned int SLRC:8;
.................... } SLRCONCBITS;
.................... SLRCONCBITS SLRCONCbits;
.................... #byte SLRCONCbits = 0xF51
.................... #byte SLRCONC = 0xF51
.................... 
.................... typedef struct 
....................  {
....................    unsigned int INLVLC:8;
.................... } INLVLCBITS;
.................... INLVLCBITS INLVLCbits;
.................... #byte INLVLCbits = 0xF52
.................... #byte INLVLC = 0xF52
.................... 
.................... typedef struct 
....................  {
....................    unsigned int IOCCP:8;
.................... } IOCCPBITS;
.................... IOCCPBITS IOCCPbits;
.................... #byte IOCCPbits = 0xF53
.................... #byte IOCCP = 0xF53
.................... 
.................... typedef struct 
....................  {
....................    unsigned int IOCCN:8;
.................... } IOCCNBITS;
.................... IOCCNBITS IOCCNbits;
.................... #byte IOCCNbits = 0xF54
.................... #byte IOCCN = 0xF54
.................... 
.................... typedef struct 
....................  {
....................    unsigned int IOCCF:8;
.................... } IOCCFBITS;
.................... IOCCFBITS IOCCFbits;
.................... #byte IOCCFbits = 0xF55
.................... #byte IOCCF = 0xF55
.................... 
.................... typedef struct 
....................  {
....................    unsigned int CCDNC:8;
.................... } CCDNCBITS;
.................... CCDNCBITS CCDNCbits;
.................... #byte CCDNCbits = 0xF56
.................... #byte CCDNC = 0xF56
.................... 
.................... typedef struct 
....................  {
....................    unsigned int CCDPC:8;
.................... } CCDPCBITS;
.................... CCDPCBITS CCDPCbits;
.................... #byte CCDPCbits = 0xF57
.................... #byte CCDPC = 0xF57
.................... 
.................... typedef struct 
....................  {
....................    unsigned int :3;
....................    unsigned int WPUE3:1;
.................... } WPUEBITS;
.................... WPUEBITS WPUEbits;
.................... #byte WPUEbits = 0xF65
.................... #byte WPUE = 0xF65
.................... 
.................... typedef struct 
....................  {
....................    unsigned int :3;
....................    unsigned int INLVLE3:1;
.................... } INLVLEBITS;
.................... INLVLEBITS INLVLEbits;
.................... #byte INLVLEbits = 0xF68
.................... #byte INLVLE = 0xF68
.................... 
.................... typedef struct 
....................  {
....................    unsigned int :3;
....................    unsigned int IOCEP3:1;
.................... } IOCEPBITS;
.................... IOCEPBITS IOCEPbits;
.................... #byte IOCEPbits = 0xF69
.................... #byte IOCEP = 0xF69
.................... 
.................... typedef struct 
....................  {
....................    unsigned int :3;
....................    unsigned int IOCEN3:1;
.................... } IOCENBITS;
.................... IOCENBITS IOCENbits;
.................... #byte IOCENbits = 0xF6A
.................... #byte IOCEN = 0xF6A
.................... 
.................... typedef struct 
....................  {
....................    unsigned int :3;
....................    unsigned int IOCEF3:1;
.................... } IOCEFBITS;
.................... IOCEFBITS IOCEFbits;
.................... #byte IOCEFbits = 0xF6B
.................... #byte IOCEF = 0xF6B
.................... 
.................... typedef struct 
....................  {
....................    unsigned int C_SHAD:1;
....................    unsigned int DC_SHAD:1;
....................    unsigned int Z_SHAD:1;
.................... } STATUS_SHADBITS;
.................... STATUS_SHADBITS STATUS_SHADbits;
.................... #byte STATUS_SHADbits = 0xFE4
.................... #byte STATUS_SHAD = 0xFE4
.................... 
.................... #byte WREG_SHAD = 0xFE5
.................... 
.................... #byte BSR_SHAD = 0xFE6
.................... 
.................... #byte PCLATH_SHAD = 0xFE7
.................... 
.................... #byte FSR0L_SHAD = 0xFE8
.................... 
.................... #byte FSR0H_SHAD = 0xFE9
.................... 
.................... #byte FSR1L_SHAD = 0xFEA
.................... 
.................... #byte FSR1H_SHAD = 0xFEB
.................... 
.................... #byte STKPTR = 0xFED
.................... 
.................... #word TOS = 0xFEE
.................... 
.................... 
.................... #include <stdint.h>
.................... ///////////////////////////////////////////////////////////////////////////
.................... ////                                                                   ////
.................... ////                           stdint.h                                ////
.................... ////                                                                   ////
.................... //// Standard integer definitions.                                     ////
.................... ////                                                                   ////
.................... ///////////////////////////////////////////////////////////////////////////
.................... ////        (C) Copyright 1996,2008 Custom Computer Services           ////
.................... //// This source code may only be used by licensed users of the CCS C  ////
.................... //// compiler.  This source code may only be distributed to other      ////
.................... //// licensed users of the CCS C compiler.  No other use, reproduction ////
.................... //// or distribution is permitted without written permission.          ////
.................... //// Derivative programs created using this software in object code    ////
.................... //// form are not restricted in any way.                               ////
.................... ///////////////////////////////////////////////////////////////////////////
.................... 
.................... #ifndef _STDINT
.................... 
.................... #define _STDINT
.................... 
.................... //////////// exact width
.................... 
.................... typedef signed int8 int8_t;
.................... typedef unsigned int8 uint8_t;
.................... typedef signed int16 int16_t;
.................... typedef unsigned int16 uint16_t;
.................... typedef signed int32 int32_t;
.................... typedef unsigned int32 uint32_t;
.................... 
.................... #if defined(__PCD__)
.................... //typedef signed int24 int24_t;
.................... //typedef unsigned int24 uint24_t;
.................... typedef signed int64 int64_t;
.................... typedef unsigned int64 uint64_t;
.................... #endif
.................... 
.................... #define INT8_MAX  (127)
.................... #define INT8_MIN  (-128)
.................... #define UINT8_MAX (255)
.................... 
.................... #define INT16_MAX  (32767)
.................... #define INT16_MIN  (-32768)
.................... #define UINT16_MAX (65535)
.................... 
.................... #define INT32_MAX  (2147483647)
.................... #define INT32_MIN  (-2147483648)
.................... #define UINT32_MAX (4294967295)
.................... 
.................... #if defined(__PCD__)
.................... //#define INT24_MAX  (8388607)
.................... //#define INT24_MIN  (-8388608)
.................... //#define UINT24_MAX (16777215)
.................... 
.................... #define INT64_MAX  (9223372036854775807)
.................... #define INT64_MIN  (-9223372036854775808)
.................... #define UINT64_MAX (18446744073709551615)
.................... #endif
.................... 
.................... ///////// minimum width
.................... 
.................... typedef signed int8 int_least8_t;
.................... typedef unsigned int8 uint_least8_t;
.................... typedef signed int16 int_least16_t;
.................... typedef unsigned int16 uint_least16_t;
.................... typedef signed int32 int_least32_t;
.................... typedef unsigned int32 uint_least32_t;
.................... 
.................... #if defined(__PCD__)
.................... //typedef signed int24 int_least24_t;
.................... //typedef unsigned int24 uint_least24_t;
.................... typedef signed int64 int_least64_t;
.................... typedef unsigned int64 uint_least64_t;
.................... #endif
.................... 
.................... #define INT_LEAST8_MAX  (127)
.................... #define INT_LEAST8_MIN  (-128)
.................... #define UINT_LEAST8_MAX (255)
.................... 
.................... #define INT_LEAST16_MAX  (32767)
.................... #define INT_LEAST16_MIN  (-32768)
.................... #define UINT_LEAST16_MAX (65535)
.................... 
.................... #define INT_LEAST32_MAX  (2147483647)
.................... #define INT_LEAST32_MIN  (-2147483648)
.................... #define UINT_LEAST32_MAX (4294967295)
.................... 
.................... #if defined(__PCD__)
.................... //#define INT_LEAST24_MAX  (8388607)
.................... //#define INT_LEAST24_MIN  (-8388608)
.................... //#define UINT_LEAST24_MAX (16777215)
.................... 
.................... #define INT_LEAST64_MAX  (9223372036854775807)
.................... #define INT_LEAST64_MIN  (-9223372036854775808)
.................... #define UINT_LEAST64_MAX (18446744073709551615)
.................... #endif
.................... 
.................... ///////// fastest width
.................... 
.................... #if defined(__PCD__)
.................... typedef signed int16 int_fast8_t;
.................... typedef unsigned int16 uint_fast8_t;
.................... #define INT_FAST8_MAX  (32767)
.................... #define INT_FAST8_MIN  (-32768)
.................... #define UINT_FAST8_MAX (65535)
.................... typedef signed int16 int_fast16_t;
.................... typedef unsigned int16 uint_fast16_t;
.................... //typedef signed int24 int_fast24_t;
.................... //typedef unsigned int24 uint_fast24_t;
.................... typedef signed int64 int_fast64_t;
.................... typedef unsigned int64 uint_fast64_t;
.................... #else
.................... typedef signed int8 int_fast8_t;
.................... typedef unsigned int8 uint_fast8_t;
.................... #define INT_FAST8_MAX  (127)
.................... #define INT_FAST8_MIN  (-128)
.................... #define UINT_FAST8_MAX (255)
.................... typedef signed int16 int_fast16_t;
.................... typedef unsigned int16 uint_fast16_t;
.................... #endif
.................... 
.................... typedef signed int32 int_fast32_t;
.................... typedef unsigned int32 uint_fast32_t;
.................... 
.................... #define INT_FAST16_MAX  (32767)
.................... #define INT_FAST16_MIN  (-32768)
.................... #define UINT_FAST16_MAX (65535)
.................... 
.................... #define INT_FAST32_MAX  (2147483647)
.................... #define INT_FAST32_MIN  (-2147483648)
.................... #define UINT_FAST32_MAX (4294967295)
.................... 
.................... #if defined(__PCD__)
.................... //#define INT_FAST24_MAX  (8388607)
.................... //#define INT_FAST24_MIN  (-8388608)
.................... //#define UINT_FAST24_MAX (16777215)
.................... 
.................... #define INT_FAST64_MAX  (9223372036854775807)
.................... #define INT_FAST64_MIN  (-9223372036854775808)
.................... #define UINT_FAST64_MAX (18446744073709551615)
.................... #endif
.................... 
.................... //////////// big enough to hold pointers (OPTIONAL)
.................... 
.................... #if defined(__PCD__)
....................    typedef unsigned int32 uintptr_t;
....................    typedef signed int32 intptr_t;
.................... #else
....................    typedef unsigned int16 uintptr_t;
....................    typedef signed int16 intptr_t;
.................... #endif
.................... 
.................... #define INT8_C(val) ((int8_t)val)
.................... #define UINT8_C(val) ((uint8_t)val)
.................... #define INT16_C(val) ((int16_t)val)
.................... #define UINT16_C(val) ((uint16_t)val)
.................... #define INT32_C(val) ((int32_t)val)
.................... #define UINT32_C(val) ((uint32_t)val)
.................... 
.................... #if defined(__PCD__)
.................... #define INT64_C(val) ((int64_t)val)
.................... #define UINT64_C(val) ((uint64_t)val)
.................... #endif
.................... 
.................... /// TODO:
.................... /// INTPTRN_MIN INTPTRN_MAX UINTPTRN_MAX
.................... 
.................... 
.................... /////////// greatest width (OPTIONAL)
.................... 
.................... #ifdef __PCD__
....................    typedef signed int64 intmax_t;
....................    typedef unsigned int64 uintmax_t;
....................    
....................    #define INTMAXN_MAX  (9223372036854775807)
....................    #define INTMAXN_MIN  (-9223372036854775808)
....................    #define UINTMAXN_MAX (18446744073709551615)
....................    
....................    #define INTMAX_C(value) ((signed int64)val)
....................    #define UINTMAX_C(value) ((unsigned int64)val)
.................... #else
....................    typedef signed int32 intmax_t;
....................    typedef unsigned int32 uintmax_t;
....................    
....................    #define INTMAXN_MAX  (2147483647)
....................    #define INTMAXN_MIN  (-2147483648)
....................    #define UINTMAXN_MAX (4294967295)
....................    
....................    #define INTMAX_C(value) ((signed int32)val)
....................    #define UINTMAX_C(value) ((unsigned int32)val)
.................... #endif
.................... 
.................... 
.................... #endif
.................... 
.................... 
.................... 
.................... #DEFINE  PIN_CLK  PIN_B1
.................... #DEFINE  PIN_DIO  PIN_B0 
.................... #DEFINE  CLK_HIGH (output_high(PIN_CLK))
.................... #DEFINE  CLK_LOW  (output_low(PIN_CLK))
.................... #DEFINE  DIO_HIGH (output_high(PIN_DIO))
.................... #DEFINE  DIO_LOW  (output_low(PIN_DIO))
.................... #include "tm1637yo.c"
.................... 
....................  
.................... // CCS
.................... //!#BIT clk = 0xF81.0                       // Pin mapped to PORTB.0
.................... //!#BIT dio = 0xF81.1                       // Pin mapped to PORTB.1        
....................  
....................                         /*0*/ /*1*/ /*2*/ /*3*/ /*4*/ /*5*/ /*6*/ /*7*/ /*8*/ /*9*/
.................... unsigned char digits[]={0x3f, 0x06, 0x5b, 0x4f, 0x66, 0x6d, 0x7d, 0x07, 0x7f, 0x6f};
.................... //!const int8 digitToSegment[] = {0x3f,0x06,0x5b,0x4f,
.................... //!                        0x66,0x6d,0x7d,0x07,
.................... //!                        0x7f,0x6f,0x77,0x7c,
.................... //!                        0x39,0x5e,0x79,0x71};//0~9,A,b,C,d,E,F
.................... //!const int8 digits[] = {
.................... //!  0b00111111,    // 0
.................... //!  0b00000110,    // 1
.................... //!  0b01011011,    // 2
.................... //!  0b01001111,    // 3
.................... //!  0b01100110,    // 4
.................... //!  0b01101101,    // 5
.................... //!  0b01111101,    // 6
.................... //!  0b00000111,    // 7
.................... //!  0b01111111,    // 8
.................... //!  0b01101111,    // 9
.................... //!  0b01110111,    // A
.................... //!  0b01111100,    // b
.................... //!  0b00111001,    // C
.................... //!  0b01011110,    // d
.................... //!  0b01111001,    // E
.................... //!  0b01110001};   // F
.................... //!//  };
.................... //!#define bright LOW_BRIGHT
.................... //!#define LOW_BRIGHT 0X00
.................... //!#define MID_BRIGHT 0X02
.................... //!#define MAX_BRIGHT 0X07
.................... 
.................... ///  ====== START ========================================
.................... void TM1637_start (){
....................    CLK_HIGH;
*
0033:  BCF    12.1
0034:  BSF    17.1
....................    DIO_HIGH;
0035:  BCF    12.0
0036:  BSF    17.0
....................    delay_us(2);
0037:  MOVLW  05
0038:  MOVWF  77
0039:  DECFSZ 77,F
003A:  GOTO   039
....................    //CLK_LOW;
....................    DIO_LOW;
003B:  BCF    12.0
003C:  BCF    17.0
003D:  RETURN
.................... }
.................... ///  ====== STOP =========================================
.................... void TM1637_stop (){
....................    CLK_LOW; delay_us(2);
*
0072:  BCF    12.1
0073:  BCF    17.1
0074:  MOVLW  05
0075:  MOVWF  77
0076:  DECFSZ 77,F
0077:  GOTO   076
....................    DIO_LOW; delay_us(2);
0078:  BCF    12.0
0079:  BCF    17.0
007A:  MOVLW  05
007B:  MOVWF  77
007C:  DECFSZ 77,F
007D:  GOTO   07C
....................    CLK_HIGH; delay_us(2);
007E:  BCF    12.1
007F:  BSF    17.1
0080:  MOVLW  05
0081:  MOVWF  77
0082:  DECFSZ 77,F
0083:  GOTO   082
....................    DIO_HIGH;
0084:  BCF    12.0
0085:  BSF    17.0
0086:  RETURN
.................... }
.................... ///  ====== ASK ==========================================
.................... void TM1637_ask (void){
....................    CLK_LOW; delay_us(5);
*
0060:  BCF    12.1
0061:  BCF    17.1
0062:  MOVLW  0D
0063:  MOVWF  77
0064:  DECFSZ 77,F
0065:  GOTO   064
....................    //tdio=1;
....................    while(input(PIN_DIO)==1);
0066:  BSF    12.0
0067:  BTFSC  0D.0
0068:  GOTO   066
....................    //tdio=0;
....................    CLK_HIGH; delay_us(2);
0069:  BCF    12.1
006A:  BSF    17.1
006B:  MOVLW  05
006C:  MOVWF  77
006D:  DECFSZ 77,F
006E:  GOTO   06D
....................    CLK_LOW;
006F:  BCF    12.1
0070:  BCF    17.1
0071:  RETURN
.................... }
.................... 
.................... ///  ====== WRITE A BYTE =================================
.................... void TM1637_WrByte (unsigned char oneByte){
....................    unsigned char i;
....................    for (i=0;i<8;i++){
*
003E:  CLRF   39
003F:  MOVF   39,W
0040:  SUBLW  07
0041:  BTFSS  03.0
0042:  GOTO   05F
....................       CLK_LOW;
0043:  BCF    12.1
0044:  BCF    17.1
....................       if ((oneByte & 0x01)==1) // low front
0045:  MOVF   38,W
0046:  ANDLW  01
0047:  SUBLW  01
0048:  BTFSS  03.2
0049:  GOTO   04D
....................          {DIO_HIGH;}
004A:  BCF    12.0
004B:  BSF    17.0
004C:  GOTO   04F
....................       else {DIO_LOW;}
004D:  BCF    12.0
004E:  BCF    17.0
....................       delay_us(3);
004F:  MOVLW  07
0050:  MOVWF  77
0051:  DECFSZ 77,F
0052:  GOTO   051
0053:  GOTO   054
....................       oneByte = oneByte >> 1;
0054:  BCF    03.0
0055:  RRF    38,F
....................       CLK_HIGH;  delay_us(3);
0056:  BCF    12.1
0057:  BSF    17.1
0058:  MOVLW  07
0059:  MOVWF  77
005A:  DECFSZ 77,F
005B:  GOTO   05A
005C:  GOTO   05D
005D:  INCF   39,F
005E:  GOTO   03F
....................    }
005F:  RETURN
.................... }
.................... 
.................... void TM1637_init(unsigned int8 brillo){
*
0087:  MOVLW  88
0088:  ADDWF  30,W
0089:  MOVWF  32
....................    unsigned char i;
....................    unsigned int8 x = 0x88 + brillo;
....................    TM1637_start();
008A:  CALL   033
....................    TM1637_WrByte(0x40); //40H address is automatically incremented by 1 mode,44H fixed address mode
008B:  MOVLW  40
008C:  MOVWF  38
008D:  CALL   03E
....................    TM1637_ask();
008E:  CALL   060
....................    TM1637_stop();
008F:  CALL   072
....................    TM1637_start();
0090:  CALL   033
....................    TM1637_WrByte(0xc0); // Set the first address
0091:  MOVLW  C0
0092:  MOVWF  38
0093:  CALL   03E
....................    TM1637_ask();
0094:  CALL   060
....................    for(i=0;i<6;i++){ // Addresses from Canada, do not always write address
0095:  CLRF   31
0096:  MOVF   31,W
0097:  SUBLW  05
0098:  BTFSS  03.0
0099:  GOTO   0A0
....................       TM1637_WrByte(0xff); // Send data
009A:  MOVLW  FF
009B:  MOVWF  38
009C:  CALL   03E
....................       TM1637_ask();}
009D:  CALL   060
009E:  INCF   31,F
009F:  GOTO   096
....................    TM1637_stop();
00A0:  CALL   072
....................    TM1637_start();
00A1:  CALL   033
....................    //TM1637_WrByte(0x8f);  // Open display, maximum brightness
....................    TM1637_WrByte(x);
00A2:  MOVF   32,W
00A3:  MOVWF  38
00A4:  CALL   03E
....................    TM1637_ask();
00A5:  CALL   060
....................    TM1637_stop();
00A6:  CALL   072
00A7:  MOVLP  00
00A8:  GOTO   3E9 (RETURN)
.................... }
.................... 
.................... ///  Esta funcin enva al mdulo TM1637 un byte con la representacin en 7 segmentos en la  poscin nDigit
.................... void TM1637_Display(unsigned char segment, unsigned char nDigit){
....................    TM1637_start();
00A9:  CALL   033
....................    TM1637_WrByte(0x44);
00AA:  MOVLW  44
00AB:  MOVWF  38
00AC:  CALL   03E
....................    TM1637_ask();
00AD:  CALL   060
....................    TM1637_stop();
00AE:  CALL   072
....................    TM1637_start();
00AF:  CALL   033
....................    TM1637_WrByte(0xC0 | (nDigit & 0x07));
00B0:  MOVF   31,W
00B1:  ANDLW  07
00B2:  IORLW  C0
00B3:  MOVWF  32
00B4:  MOVWF  38
00B5:  CALL   03E
....................    TM1637_ask();
00B6:  CALL   060
....................    TM1637_WrByte(segment);
00B7:  MOVF   30,W
00B8:  MOVWF  38
00B9:  CALL   03E
....................    TM1637_ask();
00BA:  CALL   060
....................    TM1637_stop();
00BB:  CALL   072
00BC:  RETURN
.................... }
.................... /// ================================================
.................... //  Esta funcin enva 4 caracteres al mdulo TM1637 desde la posicin 0 hasta la 4 de los segmentos
.................... void TM1637_DisplayAll(unsigned char segment0, unsigned char segment1, unsigned char segment2,unsigned char segment3){
....................    TM1637_start();
*
00D2:  CALL   033
....................    TM1637_WrByte(0x40);
00D3:  MOVLW  40
00D4:  MOVWF  38
00D5:  CALL   03E
....................    TM1637_ask();
00D6:  CALL   060
....................    TM1637_stop();
00D7:  CALL   072
....................    TM1637_start();
00D8:  CALL   033
....................    TM1637_WrByte(0xC0);
00D9:  MOVLW  C0
00DA:  MOVWF  38
00DB:  CALL   03E
....................    TM1637_ask();
00DC:  CALL   060
....................    TM1637_WrByte(segment0);   TM1637_ask();
00DD:  MOVF   34,W
00DE:  MOVWF  38
00DF:  CALL   03E
00E0:  CALL   060
....................    TM1637_WrByte(segment1);   TM1637_ask();
00E1:  MOVF   35,W
00E2:  MOVWF  38
00E3:  CALL   03E
00E4:  CALL   060
....................    TM1637_WrByte(segment2);   TM1637_ask();
00E5:  MOVF   36,W
00E6:  MOVWF  38
00E7:  CALL   03E
00E8:  CALL   060
....................    TM1637_WrByte(segment3);   TM1637_ask();
00E9:  MOVF   37,W
00EA:  MOVWF  38
00EB:  CALL   03E
00EC:  CALL   060
....................    TM1637_stop();
00ED:  CALL   072
00EE:  RETURN
.................... }
.................... 
.................... 
.................... #define x 50
.................... #define brillo 2
.................... 
.................... void leer_sensor(int8_t *tempE, uint8_t *tempD);
.................... 
.................... void main(){
*
036B:  MOVLW  55
036C:  MOVLB  1D
036D:  MOVWF  0F
036E:  MOVLW  AA
036F:  MOVWF  0F
0370:  BCF    0F.0
0371:  MOVLW  11
0372:  MOVWF  4B
0373:  MOVLW  10
0374:  MOVLB  1E
0375:  MOVWF  20
0376:  MOVLW  55
0377:  MOVLB  1D
0378:  MOVWF  0F
0379:  MOVLW  AA
037A:  MOVWF  0F
037B:  BSF    0F.0
037C:  MOVLB  11
037D:  CLRF   12
037E:  CLRF   0F
037F:  CLRF   11
0380:  MOVLW  05
0381:  MOVWF  13
0382:  MOVLW  10
0383:  MOVWF  0D
0384:  MOVLB  02
0385:  BSF    1F.3
0386:  MOVLW  44
0387:  MOVWF  1B
0388:  MOVLW  00
0389:  MOVWF  1C
038A:  MOVLW  A6
038B:  MOVWF  1E
038C:  MOVLW  90
038D:  MOVWF  1D
038E:  MOVLB  00
038F:  CLRF   2B
0390:  CLRF   2A
0391:  MOVLB  1E
0392:  CLRF   38
0393:  CLRF   43
0394:  CLRF   4E
0395:  MOVLB  13
0396:  CLRF   11
0397:  CLRF   12
0398:  CLRF   13
0399:  CLRF   10
039A:  CLRF   15
039B:  CLRF   16
039C:  CLRF   17
039D:  CLRF   14
039E:  MOVLW  3F
039F:  MOVLB  00
03A0:  MOVWF  20
03A1:  MOVLW  06
03A2:  MOVWF  21
03A3:  MOVLW  5B
03A4:  MOVWF  22
03A5:  MOVLW  4F
03A6:  MOVWF  23
03A7:  MOVLW  66
03A8:  MOVWF  24
03A9:  MOVLW  6D
03AA:  MOVWF  25
03AB:  MOVLW  7D
03AC:  MOVWF  26
03AD:  MOVLW  07
03AE:  MOVWF  27
03AF:  MOVLW  7F
03B0:  MOVWF  28
03B1:  MOVLW  6F
03B2:  MOVWF  29
....................    //setup_adc(ADC_LEGACY_MODE|ADC_CLOCK_DIV_32);
....................    setup_adc(ADC_LEGACY_MODE|ADC_CLOCK_INTERNAL);
03B3:  MOVLW  08
03B4:  MOVLB  01
03B5:  MOVWF  15
03B6:  CLRF   16
03B7:  CLRF   18
03B8:  MOVLW  FF
03B9:  MOVWF  1D
03BA:  MOVLB  02
03BB:  CLRF   0D
03BC:  MOVLW  94
03BD:  MOVLB  01
03BE:  MOVWF  13
....................    setup_adc_ports(sAN4|sAN8|sAN9|sAN10|VSS_VDD);       ///pinA4 y pinB0(an8) como entradas analogicas
03BF:  MOVLW  00
03C0:  MOVWF  1A
03C1:  MOVLW  10
03C2:  MOVLB  1E
03C3:  MOVWF  38
03C4:  MOVLW  07
03C5:  MOVWF  43
03C6:  MOVLW  00
03C7:  MOVWF  4E
....................    setup_oscillator(OSC_HFINTRC_32MHZ|OSC_CLK_DIV_BY_1|OSC_HFINTRC_ENABLED);
03C8:  MOVLB  11
03C9:  CLRF   12
03CA:  CLRF   0F
03CB:  MOVLW  40
03CC:  MOVWF  11
03CD:  MOVLW  06
03CE:  MOVWF  13
03CF:  MOVLW  60
03D0:  MOVWF  0D
....................    uint8_t contador = 0;
....................    uint8_t TL;
....................    int8_t TH;
03D1:  MOVLB  00
03D2:  CLRF   2C
.................... 
....................    
....................    TRISA = 0b11110000;//DE RA0 A RA3, COMO SALIDAS, LODEMAS SON ENTRADAS
03D3:  MOVLW  F0
03D4:  MOVWF  11
....................    PORTA = 0; //LIMPIO PORTA
03D5:  CLRF   0C
....................    LATA = 0; //LIMPIO LATA
03D6:  CLRF   16
....................    ANSELA = 0; //TODO DIGITAL
03D7:  MOVLB  1E
03D8:  CLRF   38
....................    ANSELA <<= (1<<p4);  //ra4 ENTRADA ANALOGICA
03D9:  CLRF   38
....................    WPUA = 0;//SIN RESISTENCIAS PULL-UP  
03DA:  CLRF   39
....................    
....................    TRISB = TRISB|(1<<p0);
03DB:  MOVLB  00
03DC:  BSF    12.0
....................    ANSELB <<= (1<<p0);  //rb0 ENTRADA ANALOGICA
03DD:  BCF    03.0
03DE:  MOVLB  1E
03DF:  RLF    43,F
....................    PORTB = 0; //LIMPIO PORTA
03E0:  MOVLB  00
03E1:  CLRF   0D
....................    LATB = 0; //LIMPIO LATA
03E2:  CLRF   17
....................    WPUB = 0;//SIN RESISTENCIAS PULL-UP 
03E3:  MOVLB  1E
03E4:  CLRF   44
.................... 
....................    
....................    TM1637_init(brillo);   
03E5:  MOVLW  02
03E6:  MOVLB  00
03E7:  MOVWF  30
03E8:  GOTO   087
....................    // Imprime el numero  |1|2|3|4|, hace uso de la funcin por writeRawDigit, digito en cada segmento
....................    TM1637_Display(digits[4],0);
03E9:  MOVF   24,W
03EA:  MOVWF  30
03EB:  CLRF   31
03EC:  CALL   0A9
....................    TM1637_Display(digits[3],1);
03ED:  MOVF   23,W
03EE:  MOVWF  30
03EF:  MOVLW  01
03F0:  MOVWF  31
03F1:  CALL   0A9
....................    TM1637_Display(digits[2],2);
03F2:  MOVF   22,W
03F3:  MOVWF  30
03F4:  MOVLW  02
03F5:  MOVWF  31
03F6:  CALL   0A9
....................    TM1637_Display(digits[1],3);    
03F7:  MOVF   21,W
03F8:  MOVWF  30
03F9:  MOVLW  03
03FA:  MOVWF  31
03FB:  CALL   0A9
....................    delay_ms(1000);
03FC:  MOVLW  04
03FD:  MOVWF  30
03FE:  MOVLW  FA
03FF:  MOVWF  31
0400:  CALL   0BD
0401:  DECFSZ 30,F
0402:  GOTO   3FE
....................    
....................    //Imprime el numero  |2|4|5|6|, hace uso de la funcin por  displayValues, en los 4 segmentos
....................    TM1637_DisplayAll(digits[2], digits[4] | 0x80, digits[5], digits[6]);
0403:  MOVF   24,W
0404:  IORLW  80
0405:  MOVWF  30
0406:  MOVF   22,W
0407:  MOVWF  34
0408:  MOVF   30,W
0409:  MOVWF  35
040A:  MOVF   25,W
040B:  MOVWF  36
040C:  MOVF   26,W
040D:  MOVWF  37
040E:  CALL   0D2
....................    delay_ms(1000);
040F:  MOVLW  04
0410:  MOVWF  30
0411:  MOVLW  FA
0412:  MOVWF  31
0413:  CALL   0BD
0414:  DECFSZ 30,F
0415:  GOTO   411
....................    
....................    TM1637_DisplayAll(digits[0], digits[0] | 0x80, digits[0], digits[0]);
0416:  MOVF   20,W
0417:  IORLW  80
0418:  MOVWF  30
0419:  MOVF   20,W
041A:  MOVWF  34
041B:  MOVF   30,W
041C:  MOVWF  35
041D:  MOVF   20,W
041E:  MOVWF  36
041F:  MOVF   20,W
0420:  MOVWF  37
0421:  CALL   0D2
....................    delay_ms(1000);
0422:  MOVLW  04
0423:  MOVWF  30
0424:  MOVLW  FA
0425:  MOVWF  31
0426:  CALL   0BD
0427:  DECFSZ 30,F
0428:  GOTO   424
....................    printf("\nHola mundo usando la tarjeta PIC16f18855\n");
0429:  MOVLW  03
042A:  MOVLB  10
042B:  MOVWF  1A
042C:  MOVLW  00
042D:  MOVWF  1B
042E:  MOVLB  00
042F:  GOTO   0EF
....................    while(TRUE)
....................    {
....................    leer_sensor(&TH,&TL);
0430:  MOVLW  20
0431:  MOVWF  31
0432:  MOVLW  0E
0433:  MOVWF  30
0434:  MOVLW  20
0435:  MOVWF  33
0436:  MOVLW  0D
0437:  MOVWF  32
0438:  GOTO   18A
....................    printf("la temperatura del sensore de la tarejeta es:%d.%u\n",TH, TL);
0439:  MOVLW  19
043A:  MOVLB  10
043B:  MOVWF  1A
043C:  MOVLW  00
043D:  MOVWF  1B
043E:  BCF    03.0
043F:  MOVLW  2D
0440:  MOVLB  00
0441:  MOVWF  30
0442:  GOTO   22E
0443:  MOVF   2E,W
0444:  MOVWF  30
0445:  MOVLW  18
0446:  MOVWF  31
0447:  GOTO   29C
0448:  MOVLW  2E
0449:  MOVLB  0E
044A:  BTFSS  0F.4
044B:  GOTO   44A
044C:  MOVLB  02
044D:  MOVWF  1A
044E:  MOVLB  00
044F:  MOVF   2D,W
0450:  MOVWF  30
0451:  MOVLW  1B
0452:  MOVWF  31
0453:  GOTO   304
0454:  MOVLW  0A
0455:  MOVLB  0E
0456:  BTFSS  0F.4
0457:  GOTO   456
0458:  MOVLB  02
0459:  MOVWF  1A
....................    TM1637_DisplayAll(digits[(TH/10)%10], digits[TH%10]| 0x80, digits[(TL/10)%10], digits[TL%10]); 
045A:  MOVLB  00
045B:  MOVF   2E,W
045C:  MOVWF  31
045D:  MOVLW  0A
045E:  MOVWF  32
045F:  CALL   346
0460:  MOVF   78,W
0461:  MOVWF  31
0462:  MOVLW  0A
0463:  MOVWF  32
0464:  CALL   346
0465:  MOVF   77,W
0466:  MOVWF  04
0467:  MOVLW  20
0468:  MOVWF  05
0469:  MOVF   00,W
046A:  MOVWF  30
046B:  MOVF   2E,W
046C:  MOVWF  31
046D:  MOVLW  0A
046E:  MOVWF  32
046F:  CALL   346
0470:  MOVF   77,W
0471:  MOVWF  04
0472:  MOVLW  20
0473:  MOVWF  05
0474:  MOVF   00,W
0475:  IORLW  80
0476:  MOVWF  31
0477:  MOVF   2D,W
0478:  MOVWF  38
0479:  MOVLW  0A
047A:  MOVWF  39
047B:  CALL   287
047C:  MOVF   78,W
047D:  MOVWF  38
047E:  MOVLW  0A
047F:  MOVWF  39
0480:  CALL   287
0481:  MOVF   77,W
0482:  MOVWF  04
0483:  MOVLW  20
0484:  MOVWF  05
0485:  MOVF   00,W
0486:  MOVWF  32
0487:  MOVF   2D,W
0488:  MOVWF  38
0489:  MOVLW  0A
048A:  MOVWF  39
048B:  CALL   287
048C:  MOVF   77,W
048D:  MOVWF  04
048E:  MOVLW  20
048F:  MOVWF  05
0490:  MOVF   00,W
0491:  MOVWF  33
0492:  MOVF   30,W
0493:  MOVWF  34
0494:  MOVF   31,W
0495:  MOVWF  35
0496:  MOVF   32,W
0497:  MOVWF  36
0498:  MOVF   33,W
0499:  MOVWF  37
049A:  CALL   0D2
....................    delay_ms(1000);
049B:  MOVLW  04
049C:  MOVWF  30
049D:  MOVLW  FA
049E:  MOVWF  31
049F:  CALL   0BD
04A0:  DECFSZ 30,F
04A1:  GOTO   49D
04A2:  GOTO   430
.................... 
....................    }
.................... }
.................... 
04A3:  SLEEP
.................... 
.................... void leer_sensor(int8_t *tempE, uint8_t *tempD){
....................       i2c_start(); 
*
018A:  BSF    13.3
018B:  NOP
018C:  BSF    13.4
018D:  NOP
018E:  BCF    18.3
018F:  BCF    13.3
0190:  NOP
0191:  BCF    18.4
0192:  BCF    13.4
....................       i2c_write(0b01110000);
0193:  MOVLW  70
0194:  MOVWF  34
0195:  CALL   142
....................       i2c_write(0);
0196:  CLRF   34
0197:  CALL   142
....................       i2c_start();
0198:  BSF    13.3
0199:  NOP
019A:  BSF    13.4
019B:  NOP
019C:  BTFSS  0E.4
019D:  GOTO   19C
019E:  BCF    18.3
019F:  BCF    13.3
01A0:  NOP
01A1:  BCF    18.4
01A2:  BCF    13.4
....................       i2c_write(0b01110001); //LECTURA
01A3:  MOVLW  71
01A4:  MOVWF  34
01A5:  CALL   142
....................       *tempE = i2c_read(0);
01A6:  MOVF   31,W
01A7:  MOVWF  7A
01A8:  MOVF   30,W
01A9:  MOVWF  04
01AA:  MOVF   31,W
01AB:  MOVWF  05
01AC:  CLRF   77
01AD:  CALL   166
01AE:  MOVF   78,W
01AF:  MOVWF  00
....................       i2c_stop();
01B0:  BCF    13.3
01B1:  NOP
01B2:  BSF    13.4
01B3:  BTFSS  0E.4
01B4:  GOTO   1B3
01B5:  NOP
01B6:  GOTO   1B7
01B7:  NOP
01B8:  BSF    13.3
01B9:  NOP
....................          
....................       delay_us(50);
01BA:  MOVLW  85
01BB:  MOVWF  77
01BC:  DECFSZ 77,F
01BD:  GOTO   1BC
....................           
....................       i2c_start();
01BE:  BSF    13.3
01BF:  NOP
01C0:  BSF    13.4
01C1:  NOP
01C2:  BCF    18.3
01C3:  BCF    13.3
01C4:  NOP
01C5:  BCF    18.4
01C6:  BCF    13.4
....................       i2c_write(0b01110000);  //ESCRITURA
01C7:  MOVLW  70
01C8:  MOVWF  34
01C9:  CALL   142
....................       i2c_write(2);
01CA:  MOVLW  02
01CB:  MOVWF  34
01CC:  CALL   142
....................       i2c_start();
01CD:  BSF    13.3
01CE:  NOP
01CF:  BSF    13.4
01D0:  NOP
01D1:  BTFSS  0E.4
01D2:  GOTO   1D1
01D3:  BCF    18.3
01D4:  BCF    13.3
01D5:  NOP
01D6:  BCF    18.4
01D7:  BCF    13.4
....................       i2c_write(0b01110001); //LECTURA
01D8:  MOVLW  71
01D9:  MOVWF  34
01DA:  CALL   142
....................       *tempD = i2c_read(1);
01DB:  MOVF   33,W
01DC:  MOVWF  7A
01DD:  MOVF   32,W
01DE:  MOVWF  04
01DF:  MOVF   33,W
01E0:  MOVWF  05
01E1:  MOVLW  01
01E2:  MOVWF  77
01E3:  CALL   166
01E4:  MOVF   78,W
01E5:  MOVWF  00
....................       i2c_stop();
01E6:  BCF    13.3
01E7:  NOP
01E8:  BSF    13.4
01E9:  BTFSS  0E.4
01EA:  GOTO   1E9
01EB:  NOP
01EC:  GOTO   1ED
01ED:  NOP
01EE:  BSF    13.3
01EF:  NOP
....................       *tempD >>= 6;
01F0:  MOVF   32,W
01F1:  MOVWF  04
01F2:  MOVF   33,W
01F3:  MOVWF  05
01F4:  SWAPF  00,W
01F5:  MOVWF  77
01F6:  RRF    77,F
01F7:  RRF    77,F
01F8:  MOVLW  03
01F9:  ANDWF  77,F
01FA:  MOVF   77,W
01FB:  MOVWF  00
....................       *tempD *= 25;
01FC:  MOVF   33,W
01FD:  MOVWF  7A
01FE:  MOVF   32,W
01FF:  MOVWF  04
0200:  MOVF   7A,W
0201:  MOVWF  05
0202:  MOVF   00,W
0203:  MOVWF  37
0204:  MOVLW  19
0205:  MOVWF  38
*
022A:  MOVF   78,W
022B:  MOVWF  00
022C:  MOVLP  00
022D:  GOTO   439 (RETURN)
.................... }

Configuration Fuses:
   Word  1: 3F9C   NOEXTOSC RSTOSC_HFINTRC_PLL NOCLKOUT CKS FCMEN
   Word  2: 3FFD   MCLR PUT NOLPBOR BROWNOUT BORV24 ZCDDIS PPS1WAY STVREN NODEBUG
   Word  3: 3F9F   WDTSW NOWDT WDTWIN_SW WDTCLK_SW
   Word  4: 3FFF   NOWRT SCANE LVP
   Word  5: 3FFF   NOPROTECT NOCPD
