

Microchip MPLAB XC8 Assembler V2.32 build 20210201212658 
                                                                                               Fri Jul 15 12:45:03 2022

Microchip MPLAB XC8 C Compiler v2.32 (Free license) build 20210201212658 Og9 
     1                           	processor	16F18855
     2                           	pagewidth 120
     3                           	opt	flic
     4                           	psect	cinit,global,class=CODE,merge=1,delta=2
     5                           	psect	bssBANK0,global,class=BANK0,space=1,delta=1,noexec
     6                           	psect	cstackCOMMON,global,class=COMMON,space=1,delta=1,noexec
     7                           	psect	cstackBANK0,global,class=BANK0,space=1,delta=1,noexec
     8                           	psect	maintext,global,class=CODE,merge=1,split=1,delta=2
     9                           	psect	text1,local,class=CODE,merge=1,delta=2
    10                           	psect	text2,local,class=CODE,merge=1,delta=2,group=1
    11                           	psect	text3,local,class=CODE,merge=1,delta=2
    12                           	psect	text4,local,class=CODE,merge=1,delta=2
    13                           	psect	idloc,global,abs,ovrld,class=IDLOC,space=5,delta=2,noexec
    14                           	psect	config,global,abs,ovrld,class=CONFIG,space=4,delta=2,noexec
    15                           	dabs	1,0x7E,2
    16  0000                     
    17                           ; Version 2.40
    18                           ; Generated 02/12/2021 GMT
    19                           ; 
    20                           ; Copyright © 2021, Microchip Technology Inc. and its subsidiaries ("Microchip")
    21                           ; All rights reserved.
    22                           ; 
    23                           ; This software is developed by Microchip Technology Inc. and its subsidiaries ("Microch
      +                          ip").
    24                           ; 
    25                           ; Redistribution and use in source and binary forms, with or without modification, are
    26                           ; permitted provided that the following conditions are met:
    27                           ; 
    28                           ;     1. Redistributions of source code must retain the above copyright notice, this lis
      +                          t of
    29                           ;        conditions and the following disclaimer.
    30                           ; 
    31                           ;     2. Redistributions in binary form must reproduce the above copyright notice, this 
      +                          list
    32                           ;        of conditions and the following disclaimer in the documentation and/or other
    33                           ;        materials provided with the distribution. Publication is not required when
    34                           ;        this file is used in an embedded application.
    35                           ; 
    36                           ;     3. Microchip's name may not be used to endorse or promote products derived from th
      +                          is
    37                           ;        software without specific prior written permission.
    38                           ; 
    39                           ; THIS SOFTWARE IS PROVIDED BY MICROCHIP "AS IS" AND ANY EXPRESS OR IMPLIED WARRANTIES,
    40                           ; INCLUDING, BUT NOT LIMITED TO, THE IMPLIED WARRANTIES OF MERCHANTABILITY AND FITNESS F
      +                          OR
    41                           ; PURPOSE ARE DISCLAIMED.  IN NO EVENT SHALL MICROCHIP BE LIABLE FOR ANY DIRECT, INDIREC
      +                          T,
    42                           ; INCIDENTAL, SPECIAL, EXEMPLARY, OR CONSEQUENTIAL DAMAGES (INCLUDING BUT NOT LIMITED TO
    43                           ; PROCUREMENT OF SUBSTITUTE GOODS OR SERVICES; LOSS OF USE, DATA OR PROFITS; OR BUSINESS
    44                           ; INTERRUPTION) HOWSOEVER CAUSED AND ON ANY THEORY OF LIABILITY, WHETHER IN CONTRACT, ST
      +                          RICT
    45                           ; LIABILITY, OR TORT (INCLUDING NEGLIGENCE OR OTHERWISE) ARISING IN ANY WAY OUT OF THE U
      +                          SE OF
    46                           ; THIS SOFTWARE, EVEN IF ADVISED OF THE POSSIBILITY OF SUCH DAMAGE.
    47                           ; 
    48                           ; 
    49                           ; Code-generator required, PIC16F18855 Definitions
    50                           ; 
    51                           ; SFR Addresses
    52  0000                     	;# 
    53  0001                     	;# 
    54  0002                     	;# 
    55  0003                     	;# 
    56  0004                     	;# 
    57  0005                     	;# 
    58  0006                     	;# 
    59  0007                     	;# 
    60  0008                     	;# 
    61  0009                     	;# 
    62  000A                     	;# 
    63  000B                     	;# 
    64  000C                     	;# 
    65  000D                     	;# 
    66  000E                     	;# 
    67  0010                     	;# 
    68  0011                     	;# 
    69  0012                     	;# 
    70  0013                     	;# 
    71  0016                     	;# 
    72  0017                     	;# 
    73  0018                     	;# 
    74  001C                     	;# 
    75  001C                     	;# 
    76  001D                     	;# 
    77  001D                     	;# 
    78  001E                     	;# 
    79  001F                     	;# 
    80  008C                     	;# 
    81  008C                     	;# 
    82  008D                     	;# 
    83  008E                     	;# 
    84  008E                     	;# 
    85  008F                     	;# 
    86  0090                     	;# 
    87  0090                     	;# 
    88  0091                     	;# 
    89  0093                     	;# 
    90  0094                     	;# 
    91  0095                     	;# 
    92  0096                     	;# 
    93  0097                     	;# 
    94  0098                     	;# 
    95  0099                     	;# 
    96  009A                     	;# 
    97  009B                     	;# 
    98  009C                     	;# 
    99  009D                     	;# 
   100  009E                     	;# 
   101  010C                     	;# 
   102  010D                     	;# 
   103  010E                     	;# 
   104  010E                     	;# 
   105  010F                     	;# 
   106  0110                     	;# 
   107  0110                     	;# 
   108  0111                     	;# 
   109  0112                     	;# 
   110  0112                     	;# 
   111  0113                     	;# 
   112  0114                     	;# 
   113  0114                     	;# 
   114  0115                     	;# 
   115  0116                     	;# 
   116  0116                     	;# 
   117  0117                     	;# 
   118  0119                     	;# 
   119  0119                     	;# 
   120  0119                     	;# 
   121  011A                     	;# 
   122  011A                     	;# 
   123  011A                     	;# 
   124  011B                     	;# 
   125  011B                     	;# 
   126  011B                     	;# 
   127  011B                     	;# 
   128  011B                     	;# 
   129  011C                     	;# 
   130  011C                     	;# 
   131  011C                     	;# 
   132  011D                     	;# 
   133  011D                     	;# 
   134  011D                     	;# 
   135  011E                     	;# 
   136  011E                     	;# 
   137  011E                     	;# 
   138  011F                     	;# 
   139  011F                     	;# 
   140  011F                     	;# 
   141  011F                     	;# 
   142  011F                     	;# 
   143  018C                     	;# 
   144  018D                     	;# 
   145  018E                     	;# 
   146  018F                     	;# 
   147  0190                     	;# 
   148  0191                     	;# 
   149  0192                     	;# 
   150  0196                     	;# 
   151  0197                     	;# 
   152  0198                     	;# 
   153  0199                     	;# 
   154  019A                     	;# 
   155  019B                     	;# 
   156  019C                     	;# 
   157  020C                     	;# 
   158  020C                     	;# 
   159  020D                     	;# 
   160  020E                     	;# 
   161  020F                     	;# 
   162  020F                     	;# 
   163  0210                     	;# 
   164  0210                     	;# 
   165  0211                     	;# 
   166  0211                     	;# 
   167  0212                     	;# 
   168  0212                     	;# 
   169  0213                     	;# 
   170  0214                     	;# 
   171  0215                     	;# 
   172  0215                     	;# 
   173  0216                     	;# 
   174  0216                     	;# 
   175  0217                     	;# 
   176  0217                     	;# 
   177  0218                     	;# 
   178  0218                     	;# 
   179  0219                     	;# 
   180  021A                     	;# 
   181  021B                     	;# 
   182  021B                     	;# 
   183  021C                     	;# 
   184  021C                     	;# 
   185  021D                     	;# 
   186  021D                     	;# 
   187  021E                     	;# 
   188  021F                     	;# 
   189  028C                     	;# 
   190  028C                     	;# 
   191  028D                     	;# 
   192  028D                     	;# 
   193  028E                     	;# 
   194  028F                     	;# 
   195  0290                     	;# 
   196  0290                     	;# 
   197  0291                     	;# 
   198  0292                     	;# 
   199  0292                     	;# 
   200  0293                     	;# 
   201  0293                     	;# 
   202  0294                     	;# 
   203  0295                     	;# 
   204  0296                     	;# 
   205  0296                     	;# 
   206  0297                     	;# 
   207  0298                     	;# 
   208  0298                     	;# 
   209  0299                     	;# 
   210  0299                     	;# 
   211  029A                     	;# 
   212  029B                     	;# 
   213  029C                     	;# 
   214  029C                     	;# 
   215  029D                     	;# 
   216  030C                     	;# 
   217  030C                     	;# 
   218  030D                     	;# 
   219  030E                     	;# 
   220  030F                     	;# 
   221  0310                     	;# 
   222  0310                     	;# 
   223  0311                     	;# 
   224  0312                     	;# 
   225  0313                     	;# 
   226  0314                     	;# 
   227  0314                     	;# 
   228  0315                     	;# 
   229  0316                     	;# 
   230  0317                     	;# 
   231  0318                     	;# 
   232  0318                     	;# 
   233  0319                     	;# 
   234  031A                     	;# 
   235  031B                     	;# 
   236  031C                     	;# 
   237  031C                     	;# 
   238  031D                     	;# 
   239  031E                     	;# 
   240  031F                     	;# 
   241  038C                     	;# 
   242  038C                     	;# 
   243  038D                     	;# 
   244  038E                     	;# 
   245  0390                     	;# 
   246  0390                     	;# 
   247  0391                     	;# 
   248  0392                     	;# 
   249  040C                     	;# 
   250  040D                     	;# 
   251  040E                     	;# 
   252  040F                     	;# 
   253  0410                     	;# 
   254  0411                     	;# 
   255  0416                     	;# 
   256  0416                     	;# 
   257  0417                     	;# 
   258  0418                     	;# 
   259  0418                     	;# 
   260  0419                     	;# 
   261  041A                     	;# 
   262  041A                     	;# 
   263  041B                     	;# 
   264  041C                     	;# 
   265  041C                     	;# 
   266  041D                     	;# 
   267  041E                     	;# 
   268  041F                     	;# 
   269  048C                     	;# 
   270  048C                     	;# 
   271  048D                     	;# 
   272  048E                     	;# 
   273  048F                     	;# 
   274  048F                     	;# 
   275  0490                     	;# 
   276  0491                     	;# 
   277  0492                     	;# 
   278  0492                     	;# 
   279  0493                     	;# 
   280  0494                     	;# 
   281  0495                     	;# 
   282  0495                     	;# 
   283  0496                     	;# 
   284  0497                     	;# 
   285  0498                     	;# 
   286  0499                     	;# 
   287  049A                     	;# 
   288  049B                     	;# 
   289  049C                     	;# 
   290  049D                     	;# 
   291  050C                     	;# 
   292  050C                     	;# 
   293  050D                     	;# 
   294  050E                     	;# 
   295  050F                     	;# 
   296  050F                     	;# 
   297  0510                     	;# 
   298  0511                     	;# 
   299  0512                     	;# 
   300  0512                     	;# 
   301  0513                     	;# 
   302  0514                     	;# 
   303  0515                     	;# 
   304  0515                     	;# 
   305  0516                     	;# 
   306  0517                     	;# 
   307  0518                     	;# 
   308  0519                     	;# 
   309  051A                     	;# 
   310  051B                     	;# 
   311  051C                     	;# 
   312  051D                     	;# 
   313  058C                     	;# 
   314  058C                     	;# 
   315  058D                     	;# 
   316  058E                     	;# 
   317  058F                     	;# 
   318  058F                     	;# 
   319  0590                     	;# 
   320  0591                     	;# 
   321  0592                     	;# 
   322  0593                     	;# 
   323  060C                     	;# 
   324  060D                     	;# 
   325  060E                     	;# 
   326  060F                     	;# 
   327  0610                     	;# 
   328  0611                     	;# 
   329  0612                     	;# 
   330  0613                     	;# 
   331  0614                     	;# 
   332  0616                     	;# 
   333  0617                     	;# 
   334  0618                     	;# 
   335  0619                     	;# 
   336  061A                     	;# 
   337  061B                     	;# 
   338  061C                     	;# 
   339  061D                     	;# 
   340  061E                     	;# 
   341  068C                     	;# 
   342  068D                     	;# 
   343  068E                     	;# 
   344  068F                     	;# 
   345  0690                     	;# 
   346  0691                     	;# 
   347  0692                     	;# 
   348  0693                     	;# 
   349  0694                     	;# 
   350  070C                     	;# 
   351  070D                     	;# 
   352  070E                     	;# 
   353  070F                     	;# 
   354  0710                     	;# 
   355  0711                     	;# 
   356  0712                     	;# 
   357  0713                     	;# 
   358  0714                     	;# 
   359  0716                     	;# 
   360  0717                     	;# 
   361  0718                     	;# 
   362  0719                     	;# 
   363  071A                     	;# 
   364  071B                     	;# 
   365  071C                     	;# 
   366  071D                     	;# 
   367  071E                     	;# 
   368  0796                     	;# 
   369  0797                     	;# 
   370  0798                     	;# 
   371  0799                     	;# 
   372  079A                     	;# 
   373  079B                     	;# 
   374  080C                     	;# 
   375  080D                     	;# 
   376  080E                     	;# 
   377  080F                     	;# 
   378  0810                     	;# 
   379  0811                     	;# 
   380  0812                     	;# 
   381  0813                     	;# 
   382  0814                     	;# 
   383  081A                     	;# 
   384  081B                     	;# 
   385  081C                     	;# 
   386  081D                     	;# 
   387  081E                     	;# 
   388  081F                     	;# 
   389  088C                     	;# 
   390  088D                     	;# 
   391  088E                     	;# 
   392  088F                     	;# 
   393  0890                     	;# 
   394  0891                     	;# 
   395  0892                     	;# 
   396  0893                     	;# 
   397  0895                     	;# 
   398  0896                     	;# 
   399  0897                     	;# 
   400  0898                     	;# 
   401  0899                     	;# 
   402  089A                     	;# 
   403  089B                     	;# 
   404  090C                     	;# 
   405  090E                     	;# 
   406  090F                     	;# 
   407  091F                     	;# 
   408  091F                     	;# 
   409  098F                     	;# 
   410  098F                     	;# 
   411  0990                     	;# 
   412  0991                     	;# 
   413  0992                     	;# 
   414  0993                     	;# 
   415  0994                     	;# 
   416  0995                     	;# 
   417  0996                     	;# 
   418  0997                     	;# 
   419  0E0F                     	;# 
   420  0E10                     	;# 
   421  0E11                     	;# 
   422  0E12                     	;# 
   423  0E13                     	;# 
   424  0E14                     	;# 
   425  0E15                     	;# 
   426  0E16                     	;# 
   427  0E17                     	;# 
   428  0E18                     	;# 
   429  0E19                     	;# 
   430  0E1A                     	;# 
   431  0E1B                     	;# 
   432  0E1C                     	;# 
   433  0E1D                     	;# 
   434  0E1E                     	;# 
   435  0E1F                     	;# 
   436  0E20                     	;# 
   437  0E21                     	;# 
   438  0E22                     	;# 
   439  0E23                     	;# 
   440  0E24                     	;# 
   441  0E25                     	;# 
   442  0E26                     	;# 
   443  0E27                     	;# 
   444  0E28                     	;# 
   445  0E29                     	;# 
   446  0E2A                     	;# 
   447  0E2B                     	;# 
   448  0E2C                     	;# 
   449  0E2D                     	;# 
   450  0E2E                     	;# 
   451  0E2F                     	;# 
   452  0E30                     	;# 
   453  0E31                     	;# 
   454  0E32                     	;# 
   455  0E33                     	;# 
   456  0E34                     	;# 
   457  0E35                     	;# 
   458  0E36                     	;# 
   459  0E37                     	;# 
   460  0E8F                     	;# 
   461  0E90                     	;# 
   462  0E91                     	;# 
   463  0E92                     	;# 
   464  0E93                     	;# 
   465  0E94                     	;# 
   466  0E95                     	;# 
   467  0E96                     	;# 
   468  0E97                     	;# 
   469  0E9C                     	;# 
   470  0E9D                     	;# 
   471  0E9E                     	;# 
   472  0EA1                     	;# 
   473  0EA2                     	;# 
   474  0EA3                     	;# 
   475  0EA4                     	;# 
   476  0EA5                     	;# 
   477  0EA9                     	;# 
   478  0EAA                     	;# 
   479  0EAB                     	;# 
   480  0EAC                     	;# 
   481  0EB1                     	;# 
   482  0EB2                     	;# 
   483  0EB3                     	;# 
   484  0EB8                     	;# 
   485  0EB9                     	;# 
   486  0EBA                     	;# 
   487  0EBB                     	;# 
   488  0EBC                     	;# 
   489  0EBD                     	;# 
   490  0EBE                     	;# 
   491  0EC3                     	;# 
   492  0EC5                     	;# 
   493  0EC6                     	;# 
   494  0EC7                     	;# 
   495  0EC8                     	;# 
   496  0EC9                     	;# 
   497  0ECA                     	;# 
   498  0ECB                     	;# 
   499  0ECC                     	;# 
   500  0F10                     	;# 
   501  0F11                     	;# 
   502  0F12                     	;# 
   503  0F13                     	;# 
   504  0F14                     	;# 
   505  0F15                     	;# 
   506  0F16                     	;# 
   507  0F17                     	;# 
   508  0F18                     	;# 
   509  0F19                     	;# 
   510  0F1A                     	;# 
   511  0F1B                     	;# 
   512  0F1C                     	;# 
   513  0F1D                     	;# 
   514  0F1E                     	;# 
   515  0F1F                     	;# 
   516  0F20                     	;# 
   517  0F21                     	;# 
   518  0F22                     	;# 
   519  0F23                     	;# 
   520  0F24                     	;# 
   521  0F25                     	;# 
   522  0F26                     	;# 
   523  0F27                     	;# 
   524  0F38                     	;# 
   525  0F39                     	;# 
   526  0F3A                     	;# 
   527  0F3B                     	;# 
   528  0F3C                     	;# 
   529  0F3D                     	;# 
   530  0F3E                     	;# 
   531  0F3F                     	;# 
   532  0F40                     	;# 
   533  0F41                     	;# 
   534  0F43                     	;# 
   535  0F44                     	;# 
   536  0F45                     	;# 
   537  0F46                     	;# 
   538  0F47                     	;# 
   539  0F48                     	;# 
   540  0F49                     	;# 
   541  0F4A                     	;# 
   542  0F4B                     	;# 
   543  0F4C                     	;# 
   544  0F4E                     	;# 
   545  0F4F                     	;# 
   546  0F50                     	;# 
   547  0F51                     	;# 
   548  0F52                     	;# 
   549  0F53                     	;# 
   550  0F54                     	;# 
   551  0F55                     	;# 
   552  0F56                     	;# 
   553  0F57                     	;# 
   554  0F65                     	;# 
   555  0F68                     	;# 
   556  0F69                     	;# 
   557  0F6A                     	;# 
   558  0F6B                     	;# 
   559  0FE4                     	;# 
   560  0FE5                     	;# 
   561  0FE6                     	;# 
   562  0FE7                     	;# 
   563  0FE8                     	;# 
   564  0FE9                     	;# 
   565  0FEA                     	;# 
   566  0FEB                     	;# 
   567  0FED                     	;# 
   568  0FEE                     	;# 
   569  0FEF                     	;# 
   570  0000                     	;# 
   571  0001                     	;# 
   572  0002                     	;# 
   573  0003                     	;# 
   574  0004                     	;# 
   575  0005                     	;# 
   576  0006                     	;# 
   577  0007                     	;# 
   578  0008                     	;# 
   579  0009                     	;# 
   580  000A                     	;# 
   581  000B                     	;# 
   582  000C                     	;# 
   583  000D                     	;# 
   584  000E                     	;# 
   585  0010                     	;# 
   586  0011                     	;# 
   587  0012                     	;# 
   588  0013                     	;# 
   589  0016                     	;# 
   590  0017                     	;# 
   591  0018                     	;# 
   592  001C                     	;# 
   593  001C                     	;# 
   594  001D                     	;# 
   595  001D                     	;# 
   596  001E                     	;# 
   597  001F                     	;# 
   598  008C                     	;# 
   599  008C                     	;# 
   600  008D                     	;# 
   601  008E                     	;# 
   602  008E                     	;# 
   603  008F                     	;# 
   604  0090                     	;# 
   605  0090                     	;# 
   606  0091                     	;# 
   607  0093                     	;# 
   608  0094                     	;# 
   609  0095                     	;# 
   610  0096                     	;# 
   611  0097                     	;# 
   612  0098                     	;# 
   613  0099                     	;# 
   614  009A                     	;# 
   615  009B                     	;# 
   616  009C                     	;# 
   617  009D                     	;# 
   618  009E                     	;# 
   619  010C                     	;# 
   620  010D                     	;# 
   621  010E                     	;# 
   622  010E                     	;# 
   623  010F                     	;# 
   624  0110                     	;# 
   625  0110                     	;# 
   626  0111                     	;# 
   627  0112                     	;# 
   628  0112                     	;# 
   629  0113                     	;# 
   630  0114                     	;# 
   631  0114                     	;# 
   632  0115                     	;# 
   633  0116                     	;# 
   634  0116                     	;# 
   635  0117                     	;# 
   636  0119                     	;# 
   637  0119                     	;# 
   638  0119                     	;# 
   639  011A                     	;# 
   640  011A                     	;# 
   641  011A                     	;# 
   642  011B                     	;# 
   643  011B                     	;# 
   644  011B                     	;# 
   645  011B                     	;# 
   646  011B                     	;# 
   647  011C                     	;# 
   648  011C                     	;# 
   649  011C                     	;# 
   650  011D                     	;# 
   651  011D                     	;# 
   652  011D                     	;# 
   653  011E                     	;# 
   654  011E                     	;# 
   655  011E                     	;# 
   656  011F                     	;# 
   657  011F                     	;# 
   658  011F                     	;# 
   659  011F                     	;# 
   660  011F                     	;# 
   661  018C                     	;# 
   662  018D                     	;# 
   663  018E                     	;# 
   664  018F                     	;# 
   665  0190                     	;# 
   666  0191                     	;# 
   667  0192                     	;# 
   668  0196                     	;# 
   669  0197                     	;# 
   670  0198                     	;# 
   671  0199                     	;# 
   672  019A                     	;# 
   673  019B                     	;# 
   674  019C                     	;# 
   675  020C                     	;# 
   676  020C                     	;# 
   677  020D                     	;# 
   678  020E                     	;# 
   679  020F                     	;# 
   680  020F                     	;# 
   681  0210                     	;# 
   682  0210                     	;# 
   683  0211                     	;# 
   684  0211                     	;# 
   685  0212                     	;# 
   686  0212                     	;# 
   687  0213                     	;# 
   688  0214                     	;# 
   689  0215                     	;# 
   690  0215                     	;# 
   691  0216                     	;# 
   692  0216                     	;# 
   693  0217                     	;# 
   694  0217                     	;# 
   695  0218                     	;# 
   696  0218                     	;# 
   697  0219                     	;# 
   698  021A                     	;# 
   699  021B                     	;# 
   700  021B                     	;# 
   701  021C                     	;# 
   702  021C                     	;# 
   703  021D                     	;# 
   704  021D                     	;# 
   705  021E                     	;# 
   706  021F                     	;# 
   707  028C                     	;# 
   708  028C                     	;# 
   709  028D                     	;# 
   710  028D                     	;# 
   711  028E                     	;# 
   712  028F                     	;# 
   713  0290                     	;# 
   714  0290                     	;# 
   715  0291                     	;# 
   716  0292                     	;# 
   717  0292                     	;# 
   718  0293                     	;# 
   719  0293                     	;# 
   720  0294                     	;# 
   721  0295                     	;# 
   722  0296                     	;# 
   723  0296                     	;# 
   724  0297                     	;# 
   725  0298                     	;# 
   726  0298                     	;# 
   727  0299                     	;# 
   728  0299                     	;# 
   729  029A                     	;# 
   730  029B                     	;# 
   731  029C                     	;# 
   732  029C                     	;# 
   733  029D                     	;# 
   734  030C                     	;# 
   735  030C                     	;# 
   736  030D                     	;# 
   737  030E                     	;# 
   738  030F                     	;# 
   739  0310                     	;# 
   740  0310                     	;# 
   741  0311                     	;# 
   742  0312                     	;# 
   743  0313                     	;# 
   744  0314                     	;# 
   745  0314                     	;# 
   746  0315                     	;# 
   747  0316                     	;# 
   748  0317                     	;# 
   749  0318                     	;# 
   750  0318                     	;# 
   751  0319                     	;# 
   752  031A                     	;# 
   753  031B                     	;# 
   754  031C                     	;# 
   755  031C                     	;# 
   756  031D                     	;# 
   757  031E                     	;# 
   758  031F                     	;# 
   759  038C                     	;# 
   760  038C                     	;# 
   761  038D                     	;# 
   762  038E                     	;# 
   763  0390                     	;# 
   764  0390                     	;# 
   765  0391                     	;# 
   766  0392                     	;# 
   767  040C                     	;# 
   768  040D                     	;# 
   769  040E                     	;# 
   770  040F                     	;# 
   771  0410                     	;# 
   772  0411                     	;# 
   773  0416                     	;# 
   774  0416                     	;# 
   775  0417                     	;# 
   776  0418                     	;# 
   777  0418                     	;# 
   778  0419                     	;# 
   779  041A                     	;# 
   780  041A                     	;# 
   781  041B                     	;# 
   782  041C                     	;# 
   783  041C                     	;# 
   784  041D                     	;# 
   785  041E                     	;# 
   786  041F                     	;# 
   787  048C                     	;# 
   788  048C                     	;# 
   789  048D                     	;# 
   790  048E                     	;# 
   791  048F                     	;# 
   792  048F                     	;# 
   793  0490                     	;# 
   794  0491                     	;# 
   795  0492                     	;# 
   796  0492                     	;# 
   797  0493                     	;# 
   798  0494                     	;# 
   799  0495                     	;# 
   800  0495                     	;# 
   801  0496                     	;# 
   802  0497                     	;# 
   803  0498                     	;# 
   804  0499                     	;# 
   805  049A                     	;# 
   806  049B                     	;# 
   807  049C                     	;# 
   808  049D                     	;# 
   809  050C                     	;# 
   810  050C                     	;# 
   811  050D                     	;# 
   812  050E                     	;# 
   813  050F                     	;# 
   814  050F                     	;# 
   815  0510                     	;# 
   816  0511                     	;# 
   817  0512                     	;# 
   818  0512                     	;# 
   819  0513                     	;# 
   820  0514                     	;# 
   821  0515                     	;# 
   822  0515                     	;# 
   823  0516                     	;# 
   824  0517                     	;# 
   825  0518                     	;# 
   826  0519                     	;# 
   827  051A                     	;# 
   828  051B                     	;# 
   829  051C                     	;# 
   830  051D                     	;# 
   831  058C                     	;# 
   832  058C                     	;# 
   833  058D                     	;# 
   834  058E                     	;# 
   835  058F                     	;# 
   836  058F                     	;# 
   837  0590                     	;# 
   838  0591                     	;# 
   839  0592                     	;# 
   840  0593                     	;# 
   841  060C                     	;# 
   842  060D                     	;# 
   843  060E                     	;# 
   844  060F                     	;# 
   845  0610                     	;# 
   846  0611                     	;# 
   847  0612                     	;# 
   848  0613                     	;# 
   849  0614                     	;# 
   850  0616                     	;# 
   851  0617                     	;# 
   852  0618                     	;# 
   853  0619                     	;# 
   854  061A                     	;# 
   855  061B                     	;# 
   856  061C                     	;# 
   857  061D                     	;# 
   858  061E                     	;# 
   859  068C                     	;# 
   860  068D                     	;# 
   861  068E                     	;# 
   862  068F                     	;# 
   863  0690                     	;# 
   864  0691                     	;# 
   865  0692                     	;# 
   866  0693                     	;# 
   867  0694                     	;# 
   868  070C                     	;# 
   869  070D                     	;# 
   870  070E                     	;# 
   871  070F                     	;# 
   872  0710                     	;# 
   873  0711                     	;# 
   874  0712                     	;# 
   875  0713                     	;# 
   876  0714                     	;# 
   877  0716                     	;# 
   878  0717                     	;# 
   879  0718                     	;# 
   880  0719                     	;# 
   881  071A                     	;# 
   882  071B                     	;# 
   883  071C                     	;# 
   884  071D                     	;# 
   885  071E                     	;# 
   886  0796                     	;# 
   887  0797                     	;# 
   888  0798                     	;# 
   889  0799                     	;# 
   890  079A                     	;# 
   891  079B                     	;# 
   892  080C                     	;# 
   893  080D                     	;# 
   894  080E                     	;# 
   895  080F                     	;# 
   896  0810                     	;# 
   897  0811                     	;# 
   898  0812                     	;# 
   899  0813                     	;# 
   900  0814                     	;# 
   901  081A                     	;# 
   902  081B                     	;# 
   903  081C                     	;# 
   904  081D                     	;# 
   905  081E                     	;# 
   906  081F                     	;# 
   907  088C                     	;# 
   908  088D                     	;# 
   909  088E                     	;# 
   910  088F                     	;# 
   911  0890                     	;# 
   912  0891                     	;# 
   913  0892                     	;# 
   914  0893                     	;# 
   915  0895                     	;# 
   916  0896                     	;# 
   917  0897                     	;# 
   918  0898                     	;# 
   919  0899                     	;# 
   920  089A                     	;# 
   921  089B                     	;# 
   922  090C                     	;# 
   923  090E                     	;# 
   924  090F                     	;# 
   925  091F                     	;# 
   926  091F                     	;# 
   927  098F                     	;# 
   928  098F                     	;# 
   929  0990                     	;# 
   930  0991                     	;# 
   931  0992                     	;# 
   932  0993                     	;# 
   933  0994                     	;# 
   934  0995                     	;# 
   935  0996                     	;# 
   936  0997                     	;# 
   937  0E0F                     	;# 
   938  0E10                     	;# 
   939  0E11                     	;# 
   940  0E12                     	;# 
   941  0E13                     	;# 
   942  0E14                     	;# 
   943  0E15                     	;# 
   944  0E16                     	;# 
   945  0E17                     	;# 
   946  0E18                     	;# 
   947  0E19                     	;# 
   948  0E1A                     	;# 
   949  0E1B                     	;# 
   950  0E1C                     	;# 
   951  0E1D                     	;# 
   952  0E1E                     	;# 
   953  0E1F                     	;# 
   954  0E20                     	;# 
   955  0E21                     	;# 
   956  0E22                     	;# 
   957  0E23                     	;# 
   958  0E24                     	;# 
   959  0E25                     	;# 
   960  0E26                     	;# 
   961  0E27                     	;# 
   962  0E28                     	;# 
   963  0E29                     	;# 
   964  0E2A                     	;# 
   965  0E2B                     	;# 
   966  0E2C                     	;# 
   967  0E2D                     	;# 
   968  0E2E                     	;# 
   969  0E2F                     	;# 
   970  0E30                     	;# 
   971  0E31                     	;# 
   972  0E32                     	;# 
   973  0E33                     	;# 
   974  0E34                     	;# 
   975  0E35                     	;# 
   976  0E36                     	;# 
   977  0E37                     	;# 
   978  0E8F                     	;# 
   979  0E90                     	;# 
   980  0E91                     	;# 
   981  0E92                     	;# 
   982  0E93                     	;# 
   983  0E94                     	;# 
   984  0E95                     	;# 
   985  0E96                     	;# 
   986  0E97                     	;# 
   987  0E9C                     	;# 
   988  0E9D                     	;# 
   989  0E9E                     	;# 
   990  0EA1                     	;# 
   991  0EA2                     	;# 
   992  0EA3                     	;# 
   993  0EA4                     	;# 
   994  0EA5                     	;# 
   995  0EA9                     	;# 
   996  0EAA                     	;# 
   997  0EAB                     	;# 
   998  0EAC                     	;# 
   999  0EB1                     	;# 
  1000  0EB2                     	;# 
  1001  0EB3                     	;# 
  1002  0EB8                     	;# 
  1003  0EB9                     	;# 
  1004  0EBA                     	;# 
  1005  0EBB                     	;# 
  1006  0EBC                     	;# 
  1007  0EBD                     	;# 
  1008  0EBE                     	;# 
  1009  0EC3                     	;# 
  1010  0EC5                     	;# 
  1011  0EC6                     	;# 
  1012  0EC7                     	;# 
  1013  0EC8                     	;# 
  1014  0EC9                     	;# 
  1015  0ECA                     	;# 
  1016  0ECB                     	;# 
  1017  0ECC                     	;# 
  1018  0F10                     	;# 
  1019  0F11                     	;# 
  1020  0F12                     	;# 
  1021  0F13                     	;# 
  1022  0F14                     	;# 
  1023  0F15                     	;# 
  1024  0F16                     	;# 
  1025  0F17                     	;# 
  1026  0F18                     	;# 
  1027  0F19                     	;# 
  1028  0F1A                     	;# 
  1029  0F1B                     	;# 
  1030  0F1C                     	;# 
  1031  0F1D                     	;# 
  1032  0F1E                     	;# 
  1033  0F1F                     	;# 
  1034  0F20                     	;# 
  1035  0F21                     	;# 
  1036  0F22                     	;# 
  1037  0F23                     	;# 
  1038  0F24                     	;# 
  1039  0F25                     	;# 
  1040  0F26                     	;# 
  1041  0F27                     	;# 
  1042  0F38                     	;# 
  1043  0F39                     	;# 
  1044  0F3A                     	;# 
  1045  0F3B                     	;# 
  1046  0F3C                     	;# 
  1047  0F3D                     	;# 
  1048  0F3E                     	;# 
  1049  0F3F                     	;# 
  1050  0F40                     	;# 
  1051  0F41                     	;# 
  1052  0F43                     	;# 
  1053  0F44                     	;# 
  1054  0F45                     	;# 
  1055  0F46                     	;# 
  1056  0F47                     	;# 
  1057  0F48                     	;# 
  1058  0F49                     	;# 
  1059  0F4A                     	;# 
  1060  0F4B                     	;# 
  1061  0F4C                     	;# 
  1062  0F4E                     	;# 
  1063  0F4F                     	;# 
  1064  0F50                     	;# 
  1065  0F51                     	;# 
  1066  0F52                     	;# 
  1067  0F53                     	;# 
  1068  0F54                     	;# 
  1069  0F55                     	;# 
  1070  0F56                     	;# 
  1071  0F57                     	;# 
  1072  0F65                     	;# 
  1073  0F68                     	;# 
  1074  0F69                     	;# 
  1075  0F6A                     	;# 
  1076  0F6B                     	;# 
  1077  0FE4                     	;# 
  1078  0FE5                     	;# 
  1079  0FE6                     	;# 
  1080  0FE7                     	;# 
  1081  0FE8                     	;# 
  1082  0FE9                     	;# 
  1083  0FEA                     	;# 
  1084  0FEB                     	;# 
  1085  0FED                     	;# 
  1086  0FEE                     	;# 
  1087  0FEF                     	;# 
  1088  0000                     	;# 
  1089  0001                     	;# 
  1090  0002                     	;# 
  1091  0003                     	;# 
  1092  0004                     	;# 
  1093  0005                     	;# 
  1094  0006                     	;# 
  1095  0007                     	;# 
  1096  0008                     	;# 
  1097  0009                     	;# 
  1098  000A                     	;# 
  1099  000B                     	;# 
  1100  000C                     	;# 
  1101  000D                     	;# 
  1102  000E                     	;# 
  1103  0010                     	;# 
  1104  0011                     	;# 
  1105  0012                     	;# 
  1106  0013                     	;# 
  1107  0016                     	;# 
  1108  0017                     	;# 
  1109  0018                     	;# 
  1110  001C                     	;# 
  1111  001C                     	;# 
  1112  001D                     	;# 
  1113  001D                     	;# 
  1114  001E                     	;# 
  1115  001F                     	;# 
  1116  008C                     	;# 
  1117  008C                     	;# 
  1118  008D                     	;# 
  1119  008E                     	;# 
  1120  008E                     	;# 
  1121  008F                     	;# 
  1122  0090                     	;# 
  1123  0090                     	;# 
  1124  0091                     	;# 
  1125  0093                     	;# 
  1126  0094                     	;# 
  1127  0095                     	;# 
  1128  0096                     	;# 
  1129  0097                     	;# 
  1130  0098                     	;# 
  1131  0099                     	;# 
  1132  009A                     	;# 
  1133  009B                     	;# 
  1134  009C                     	;# 
  1135  009D                     	;# 
  1136  009E                     	;# 
  1137  010C                     	;# 
  1138  010D                     	;# 
  1139  010E                     	;# 
  1140  010E                     	;# 
  1141  010F                     	;# 
  1142  0110                     	;# 
  1143  0110                     	;# 
  1144  0111                     	;# 
  1145  0112                     	;# 
  1146  0112                     	;# 
  1147  0113                     	;# 
  1148  0114                     	;# 
  1149  0114                     	;# 
  1150  0115                     	;# 
  1151  0116                     	;# 
  1152  0116                     	;# 
  1153  0117                     	;# 
  1154  0119                     	;# 
  1155  0119                     	;# 
  1156  0119                     	;# 
  1157  011A                     	;# 
  1158  011A                     	;# 
  1159  011A                     	;# 
  1160  011B                     	;# 
  1161  011B                     	;# 
  1162  011B                     	;# 
  1163  011B                     	;# 
  1164  011B                     	;# 
  1165  011C                     	;# 
  1166  011C                     	;# 
  1167  011C                     	;# 
  1168  011D                     	;# 
  1169  011D                     	;# 
  1170  011D                     	;# 
  1171  011E                     	;# 
  1172  011E                     	;# 
  1173  011E                     	;# 
  1174  011F                     	;# 
  1175  011F                     	;# 
  1176  011F                     	;# 
  1177  011F                     	;# 
  1178  011F                     	;# 
  1179  018C                     	;# 
  1180  018D                     	;# 
  1181  018E                     	;# 
  1182  018F                     	;# 
  1183  0190                     	;# 
  1184  0191                     	;# 
  1185  0192                     	;# 
  1186  0196                     	;# 
  1187  0197                     	;# 
  1188  0198                     	;# 
  1189  0199                     	;# 
  1190  019A                     	;# 
  1191  019B                     	;# 
  1192  019C                     	;# 
  1193  020C                     	;# 
  1194  020C                     	;# 
  1195  020D                     	;# 
  1196  020E                     	;# 
  1197  020F                     	;# 
  1198  020F                     	;# 
  1199  0210                     	;# 
  1200  0210                     	;# 
  1201  0211                     	;# 
  1202  0211                     	;# 
  1203  0212                     	;# 
  1204  0212                     	;# 
  1205  0213                     	;# 
  1206  0214                     	;# 
  1207  0215                     	;# 
  1208  0215                     	;# 
  1209  0216                     	;# 
  1210  0216                     	;# 
  1211  0217                     	;# 
  1212  0217                     	;# 
  1213  0218                     	;# 
  1214  0218                     	;# 
  1215  0219                     	;# 
  1216  021A                     	;# 
  1217  021B                     	;# 
  1218  021B                     	;# 
  1219  021C                     	;# 
  1220  021C                     	;# 
  1221  021D                     	;# 
  1222  021D                     	;# 
  1223  021E                     	;# 
  1224  021F                     	;# 
  1225  028C                     	;# 
  1226  028C                     	;# 
  1227  028D                     	;# 
  1228  028D                     	;# 
  1229  028E                     	;# 
  1230  028F                     	;# 
  1231  0290                     	;# 
  1232  0290                     	;# 
  1233  0291                     	;# 
  1234  0292                     	;# 
  1235  0292                     	;# 
  1236  0293                     	;# 
  1237  0293                     	;# 
  1238  0294                     	;# 
  1239  0295                     	;# 
  1240  0296                     	;# 
  1241  0296                     	;# 
  1242  0297                     	;# 
  1243  0298                     	;# 
  1244  0298                     	;# 
  1245  0299                     	;# 
  1246  0299                     	;# 
  1247  029A                     	;# 
  1248  029B                     	;# 
  1249  029C                     	;# 
  1250  029C                     	;# 
  1251  029D                     	;# 
  1252  030C                     	;# 
  1253  030C                     	;# 
  1254  030D                     	;# 
  1255  030E                     	;# 
  1256  030F                     	;# 
  1257  0310                     	;# 
  1258  0310                     	;# 
  1259  0311                     	;# 
  1260  0312                     	;# 
  1261  0313                     	;# 
  1262  0314                     	;# 
  1263  0314                     	;# 
  1264  0315                     	;# 
  1265  0316                     	;# 
  1266  0317                     	;# 
  1267  0318                     	;# 
  1268  0318                     	;# 
  1269  0319                     	;# 
  1270  031A                     	;# 
  1271  031B                     	;# 
  1272  031C                     	;# 
  1273  031C                     	;# 
  1274  031D                     	;# 
  1275  031E                     	;# 
  1276  031F                     	;# 
  1277  038C                     	;# 
  1278  038C                     	;# 
  1279  038D                     	;# 
  1280  038E                     	;# 
  1281  0390                     	;# 
  1282  0390                     	;# 
  1283  0391                     	;# 
  1284  0392                     	;# 
  1285  040C                     	;# 
  1286  040D                     	;# 
  1287  040E                     	;# 
  1288  040F                     	;# 
  1289  0410                     	;# 
  1290  0411                     	;# 
  1291  0416                     	;# 
  1292  0416                     	;# 
  1293  0417                     	;# 
  1294  0418                     	;# 
  1295  0418                     	;# 
  1296  0419                     	;# 
  1297  041A                     	;# 
  1298  041A                     	;# 
  1299  041B                     	;# 
  1300  041C                     	;# 
  1301  041C                     	;# 
  1302  041D                     	;# 
  1303  041E                     	;# 
  1304  041F                     	;# 
  1305  048C                     	;# 
  1306  048C                     	;# 
  1307  048D                     	;# 
  1308  048E                     	;# 
  1309  048F                     	;# 
  1310  048F                     	;# 
  1311  0490                     	;# 
  1312  0491                     	;# 
  1313  0492                     	;# 
  1314  0492                     	;# 
  1315  0493                     	;# 
  1316  0494                     	;# 
  1317  0495                     	;# 
  1318  0495                     	;# 
  1319  0496                     	;# 
  1320  0497                     	;# 
  1321  0498                     	;# 
  1322  0499                     	;# 
  1323  049A                     	;# 
  1324  049B                     	;# 
  1325  049C                     	;# 
  1326  049D                     	;# 
  1327  050C                     	;# 
  1328  050C                     	;# 
  1329  050D                     	;# 
  1330  050E                     	;# 
  1331  050F                     	;# 
  1332  050F                     	;# 
  1333  0510                     	;# 
  1334  0511                     	;# 
  1335  0512                     	;# 
  1336  0512                     	;# 
  1337  0513                     	;# 
  1338  0514                     	;# 
  1339  0515                     	;# 
  1340  0515                     	;# 
  1341  0516                     	;# 
  1342  0517                     	;# 
  1343  0518                     	;# 
  1344  0519                     	;# 
  1345  051A                     	;# 
  1346  051B                     	;# 
  1347  051C                     	;# 
  1348  051D                     	;# 
  1349  058C                     	;# 
  1350  058C                     	;# 
  1351  058D                     	;# 
  1352  058E                     	;# 
  1353  058F                     	;# 
  1354  058F                     	;# 
  1355  0590                     	;# 
  1356  0591                     	;# 
  1357  0592                     	;# 
  1358  0593                     	;# 
  1359  060C                     	;# 
  1360  060D                     	;# 
  1361  060E                     	;# 
  1362  060F                     	;# 
  1363  0610                     	;# 
  1364  0611                     	;# 
  1365  0612                     	;# 
  1366  0613                     	;# 
  1367  0614                     	;# 
  1368  0616                     	;# 
  1369  0617                     	;# 
  1370  0618                     	;# 
  1371  0619                     	;# 
  1372  061A                     	;# 
  1373  061B                     	;# 
  1374  061C                     	;# 
  1375  061D                     	;# 
  1376  061E                     	;# 
  1377  068C                     	;# 
  1378  068D                     	;# 
  1379  068E                     	;# 
  1380  068F                     	;# 
  1381  0690                     	;# 
  1382  0691                     	;# 
  1383  0692                     	;# 
  1384  0693                     	;# 
  1385  0694                     	;# 
  1386  070C                     	;# 
  1387  070D                     	;# 
  1388  070E                     	;# 
  1389  070F                     	;# 
  1390  0710                     	;# 
  1391  0711                     	;# 
  1392  0712                     	;# 
  1393  0713                     	;# 
  1394  0714                     	;# 
  1395  0716                     	;# 
  1396  0717                     	;# 
  1397  0718                     	;# 
  1398  0719                     	;# 
  1399  071A                     	;# 
  1400  071B                     	;# 
  1401  071C                     	;# 
  1402  071D                     	;# 
  1403  071E                     	;# 
  1404  0796                     	;# 
  1405  0797                     	;# 
  1406  0798                     	;# 
  1407  0799                     	;# 
  1408  079A                     	;# 
  1409  079B                     	;# 
  1410  080C                     	;# 
  1411  080D                     	;# 
  1412  080E                     	;# 
  1413  080F                     	;# 
  1414  0810                     	;# 
  1415  0811                     	;# 
  1416  0812                     	;# 
  1417  0813                     	;# 
  1418  0814                     	;# 
  1419  081A                     	;# 
  1420  081B                     	;# 
  1421  081C                     	;# 
  1422  081D                     	;# 
  1423  081E                     	;# 
  1424  081F                     	;# 
  1425  088C                     	;# 
  1426  088D                     	;# 
  1427  088E                     	;# 
  1428  088F                     	;# 
  1429  0890                     	;# 
  1430  0891                     	;# 
  1431  0892                     	;# 
  1432  0893                     	;# 
  1433  0895                     	;# 
  1434  0896                     	;# 
  1435  0897                     	;# 
  1436  0898                     	;# 
  1437  0899                     	;# 
  1438  089A                     	;# 
  1439  089B                     	;# 
  1440  090C                     	;# 
  1441  090E                     	;# 
  1442  090F                     	;# 
  1443  091F                     	;# 
  1444  091F                     	;# 
  1445  098F                     	;# 
  1446  098F                     	;# 
  1447  0990                     	;# 
  1448  0991                     	;# 
  1449  0992                     	;# 
  1450  0993                     	;# 
  1451  0994                     	;# 
  1452  0995                     	;# 
  1453  0996                     	;# 
  1454  0997                     	;# 
  1455  0E0F                     	;# 
  1456  0E10                     	;# 
  1457  0E11                     	;# 
  1458  0E12                     	;# 
  1459  0E13                     	;# 
  1460  0E14                     	;# 
  1461  0E15                     	;# 
  1462  0E16                     	;# 
  1463  0E17                     	;# 
  1464  0E18                     	;# 
  1465  0E19                     	;# 
  1466  0E1A                     	;# 
  1467  0E1B                     	;# 
  1468  0E1C                     	;# 
  1469  0E1D                     	;# 
  1470  0E1E                     	;# 
  1471  0E1F                     	;# 
  1472  0E20                     	;# 
  1473  0E21                     	;# 
  1474  0E22                     	;# 
  1475  0E23                     	;# 
  1476  0E24                     	;# 
  1477  0E25                     	;# 
  1478  0E26                     	;# 
  1479  0E27                     	;# 
  1480  0E28                     	;# 
  1481  0E29                     	;# 
  1482  0E2A                     	;# 
  1483  0E2B                     	;# 
  1484  0E2C                     	;# 
  1485  0E2D                     	;# 
  1486  0E2E                     	;# 
  1487  0E2F                     	;# 
  1488  0E30                     	;# 
  1489  0E31                     	;# 
  1490  0E32                     	;# 
  1491  0E33                     	;# 
  1492  0E34                     	;# 
  1493  0E35                     	;# 
  1494  0E36                     	;# 
  1495  0E37                     	;# 
  1496  0E8F                     	;# 
  1497  0E90                     	;# 
  1498  0E91                     	;# 
  1499  0E92                     	;# 
  1500  0E93                     	;# 
  1501  0E94                     	;# 
  1502  0E95                     	;# 
  1503  0E96                     	;# 
  1504  0E97                     	;# 
  1505  0E9C                     	;# 
  1506  0E9D                     	;# 
  1507  0E9E                     	;# 
  1508  0EA1                     	;# 
  1509  0EA2                     	;# 
  1510  0EA3                     	;# 
  1511  0EA4                     	;# 
  1512  0EA5                     	;# 
  1513  0EA9                     	;# 
  1514  0EAA                     	;# 
  1515  0EAB                     	;# 
  1516  0EAC                     	;# 
  1517  0EB1                     	;# 
  1518  0EB2                     	;# 
  1519  0EB3                     	;# 
  1520  0EB8                     	;# 
  1521  0EB9                     	;# 
  1522  0EBA                     	;# 
  1523  0EBB                     	;# 
  1524  0EBC                     	;# 
  1525  0EBD                     	;# 
  1526  0EBE                     	;# 
  1527  0EC3                     	;# 
  1528  0EC5                     	;# 
  1529  0EC6                     	;# 
  1530  0EC7                     	;# 
  1531  0EC8                     	;# 
  1532  0EC9                     	;# 
  1533  0ECA                     	;# 
  1534  0ECB                     	;# 
  1535  0ECC                     	;# 
  1536  0F10                     	;# 
  1537  0F11                     	;# 
  1538  0F12                     	;# 
  1539  0F13                     	;# 
  1540  0F14                     	;# 
  1541  0F15                     	;# 
  1542  0F16                     	;# 
  1543  0F17                     	;# 
  1544  0F18                     	;# 
  1545  0F19                     	;# 
  1546  0F1A                     	;# 
  1547  0F1B                     	;# 
  1548  0F1C                     	;# 
  1549  0F1D                     	;# 
  1550  0F1E                     	;# 
  1551  0F1F                     	;# 
  1552  0F20                     	;# 
  1553  0F21                     	;# 
  1554  0F22                     	;# 
  1555  0F23                     	;# 
  1556  0F24                     	;# 
  1557  0F25                     	;# 
  1558  0F26                     	;# 
  1559  0F27                     	;# 
  1560  0F38                     	;# 
  1561  0F39                     	;# 
  1562  0F3A                     	;# 
  1563  0F3B                     	;# 
  1564  0F3C                     	;# 
  1565  0F3D                     	;# 
  1566  0F3E                     	;# 
  1567  0F3F                     	;# 
  1568  0F40                     	;# 
  1569  0F41                     	;# 
  1570  0F43                     	;# 
  1571  0F44                     	;# 
  1572  0F45                     	;# 
  1573  0F46                     	;# 
  1574  0F47                     	;# 
  1575  0F48                     	;# 
  1576  0F49                     	;# 
  1577  0F4A                     	;# 
  1578  0F4B                     	;# 
  1579  0F4C                     	;# 
  1580  0F4E                     	;# 
  1581  0F4F                     	;# 
  1582  0F50                     	;# 
  1583  0F51                     	;# 
  1584  0F52                     	;# 
  1585  0F53                     	;# 
  1586  0F54                     	;# 
  1587  0F55                     	;# 
  1588  0F56                     	;# 
  1589  0F57                     	;# 
  1590  0F65                     	;# 
  1591  0F68                     	;# 
  1592  0F69                     	;# 
  1593  0F6A                     	;# 
  1594  0F6B                     	;# 
  1595  0FE4                     	;# 
  1596  0FE5                     	;# 
  1597  0FE6                     	;# 
  1598  0FE7                     	;# 
  1599  0FE8                     	;# 
  1600  0FE9                     	;# 
  1601  0FEA                     	;# 
  1602  0FEB                     	;# 
  1603  0FED                     	;# 
  1604  0FEE                     	;# 
  1605  0FEF                     	;# 
  1606  0012                     _TRISB	set	18
  1607  0017                     _LATB	set	23
  1608  0011                     _TRISA	set	17
  1609  000D                     _PORTB	set	13
  1610  0016                     _LATA	set	22
  1611  000C                     _PORTA	set	12
  1612  011C                     _SP1BRGH	set	284
  1613  011B                     _SP1BRGL	set	283
  1614  011E                     _TX1STA	set	286
  1615  011D                     _RC1STA	set	285
  1616  011F                     _BAUD1CON	set	287
  1617  0ECB                     _RXPPS	set	3787
  1618  0F20                     _RC0PPS	set	3872
  1619  0F43                     _ANSELB	set	3907
  1620  0F38                     _ANSELA	set	3896
  1621                           
  1622                           	psect	cinit
  1623  07FA                     start_initialization:	
  1624                           ; #config settings
  1625                           
  1626  07FA                     __initialization:
  1627                           
  1628                           ; Clear objects allocated to BANK0
  1629  07FA  0020               	movlb	0	; select bank0
  1630  07FB  01AD               	clrf	__pbssBANK0& (0+127)
  1631  07FC  01AE               	clrf	(__pbssBANK0+1)& (0+127)
  1632  07FD                     end_of_initialization:	
  1633                           ;End of C runtime variable initialization code
  1634                           
  1635  07FD                     __end_of__initialization:
  1636  07FD  0020               	movlb	0
  1637  07FE  3187  2FA0         	ljmp	_main	;jump to C main() function
  1638                           
  1639                           	psect	bssBANK0
  1640  002D                     __pbssBANK0:
  1641  002D                     _contador:
  1642  002D                     	ds	1
  1643  002E                     _bloqueoFlag:
  1644  002E                     	ds	1
  1645                           
  1646                           	psect	cstackCOMMON
  1647  0070                     __pcstackCOMMON:
  1648  0070                     ?_port_init:
  1649  0070                     ??_port_init:	
  1650                           ; 1 bytes @ 0x0
  1651                           
  1652  0070                     ?_retardoYleerBoton:	
  1653                           ; 1 bytes @ 0x0
  1654                           
  1655  0070                     ?_main:	
  1656                           ; 1 bytes @ 0x0
  1657                           
  1658  0070                     ?___lldiv:	
  1659                           ; 1 bytes @ 0x0
  1660                           
  1661  0070                     retardoYleerBoton@retardo:	
  1662                           ; 4 bytes @ 0x0
  1663                           
  1664  0070                     ___lldiv@divisor:	
  1665                           ; 2 bytes @ 0x0
  1666                           
  1667                           
  1668                           ; 4 bytes @ 0x0
  1669  0070                     	ds	2
  1670  0072                     ??_retardoYleerBoton:
  1671                           
  1672                           ; 1 bytes @ 0x2
  1673  0072                     	ds	1
  1674  0073                     retardoYleerBoton@i:
  1675                           
  1676                           ; 2 bytes @ 0x3
  1677  0073                     	ds	1
  1678  0074                     ___lldiv@dividend:
  1679                           
  1680                           ; 4 bytes @ 0x4
  1681  0074                     	ds	4
  1682  0078                     ??___lldiv:
  1683                           
  1684                           ; 1 bytes @ 0x8
  1685  0078                     	ds	1
  1686  0079                     ___lldiv@quotient:
  1687                           
  1688                           ; 4 bytes @ 0x9
  1689  0079                     	ds	4
  1690  007D                     ___lldiv@counter:
  1691                           
  1692                           ; 1 bytes @ 0xD
  1693  007D                     	ds	1
  1694                           
  1695                           	psect	cstackBANK0
  1696  0020                     __pcstackBANK0:
  1697  0020                     ?_serial_init:
  1698  0020                     serial_init@baudios:	
  1699                           ; 1 bytes @ 0x0
  1700                           
  1701                           
  1702                           ; 4 bytes @ 0x0
  1703  0020                     	ds	4
  1704  0024                     ??_serial_init:
  1705                           
  1706                           ; 1 bytes @ 0x4
  1707  0024                     	ds	4
  1708  0028                     serial_init@sx:
  1709                           
  1710                           ; 2 bytes @ 0x8
  1711  0028                     	ds	2
  1712  002A                     ??_main:
  1713                           
  1714                           ; 1 bytes @ 0xA
  1715  002A                     	ds	1
  1716  002B                     main@i:
  1717                           
  1718                           ; 2 bytes @ 0xB
  1719  002B                     	ds	2
  1720                           
  1721                           	psect	maintext
  1722  07A0                     __pmaintext:	
  1723 ;;
  1724 ;;Main: autosize = 0, tempsize = 1, incstack = 0, save=0
  1725 ;;
  1726 ;; *************** function _main *****************
  1727 ;; Defined at:
  1728 ;;		line 41 in file "Main.c"
  1729 ;; Parameters:    Size  Location     Type
  1730 ;;		None
  1731 ;; Auto vars:     Size  Location     Type
  1732 ;;  i               2   11[BANK0 ] int 
  1733 ;; Return value:  Size  Location     Type
  1734 ;;                  1    wreg      void 
  1735 ;; Registers used:
  1736 ;;		wreg, status,2, status,0, pclath, cstack
  1737 ;; Tracked objects:
  1738 ;;		On entry : B1F/0
  1739 ;;		On exit  : 1F/0
  1740 ;;		Unchanged: 0/0
  1741 ;; Data sizes:     COMMON   BANK0   BANK1   BANK2   BANK3   BANK4   BANK5   BANK6   BANK7   BANK8   BANK9  BANK10  BANK1
      +1  BANK12
  1742 ;;      Params:         0       0       0       0       0       0       0       0       0       0       0       0       
      +0       0
  1743 ;;      Locals:         0       2       0       0       0       0       0       0       0       0       0       0       
      +0       0
  1744 ;;      Temps:          0       1       0       0       0       0       0       0       0       0       0       0       
      +0       0
  1745 ;;      Totals:         0       3       0       0       0       0       0       0       0       0       0       0       
      +0       0
  1746 ;;Total ram usage:        3 bytes
  1747 ;; Hardware stack levels required when called: 2
  1748 ;; This function calls:
  1749 ;;		_port_init
  1750 ;;		_retardoYleerBoton
  1751 ;;		_serial_init
  1752 ;; This function is called by:
  1753 ;;		Startup code after reset
  1754 ;; This function uses a non-reentrant model
  1755 ;;
  1756                           
  1757                           
  1758                           ;psect for function _main
  1759  07A0                     _main:
  1760                           
  1761                           ;Main.c: 42:     port_init();
  1762                           
  1763                           ;incstack = 0
  1764                           ; Regs used in _main: [wreg+status,2+status,0+pclath+cstack]
  1765  07A0  3186  26C6  3187   	fcall	_port_init
  1766                           
  1767                           ;Main.c: 43:     serial_init(9600);
  1768  07A3  3000               	movlw	0
  1769  07A4  0020               	movlb	0	; select bank0
  1770  07A5  00A3               	movwf	serial_init@baudios+3
  1771  07A6  3000               	movlw	0
  1772  07A7  00A2               	movwf	serial_init@baudios+2
  1773  07A8  3025               	movlw	37
  1774  07A9  00A1               	movwf	serial_init@baudios+1
  1775  07AA  3080               	movlw	128
  1776  07AB  00A0               	movwf	serial_init@baudios
  1777  07AC  3187  2710  3187   	fcall	_serial_init
  1778  07AF                     l883:
  1779                           
  1780                           ;Main.c: 46:     {;Main.c: 47:         if( (((PORTA>>5) & 0x01) == 0) && bloqueoFlag == 
      +                          0){
  1781  07AF  0020               	movlb	0	; select bank0
  1782  07B0  080C               	movf	12,w	;volatile
  1783  07B1  00AA               	movwf	??_main
  1784  07B2  3005               	movlw	5
  1785  07B3                     u375:
  1786  07B3  36AA               	lsrf	??_main,f
  1787  07B4  0B89               	decfsz	9,f
  1788  07B5  2FB3               	goto	u375
  1789  07B6  182A               	btfsc	??_main,0
  1790  07B7  2FEB               	goto	l907
  1791  07B8  082E               	movf	_bloqueoFlag,w
  1792  07B9  1D03               	btfss	3,2
  1793  07BA  2FEB               	goto	l907
  1794                           
  1795                           ;Main.c: 48:             for(int i = 0;i<5;i++){
  1796  07BB  01AB               	clrf	main@i
  1797  07BC  01AC               	clrf	main@i+1
  1798  07BD                     l893:
  1799                           
  1800                           ;Main.c: 49:                 LATA = LATA | (1<<3);
  1801  07BD  0020               	movlb	0	; select bank0
  1802  07BE  0816               	movf	22,w	;volatile
  1803  07BF  3808               	iorlw	8
  1804  07C0  0096               	movwf	22	;volatile
  1805                           
  1806                           ;Main.c: 50:                 if( retardoYleerBoton(250) == 1 ){
  1807  07C1  30FA               	movlw	250
  1808  07C2  00F0               	movwf	retardoYleerBoton@retardo
  1809  07C3  3000               	movlw	0
  1810  07C4  00F1               	movwf	retardoYleerBoton@retardo+1
  1811  07C5  3186  26DC  3187   	fcall	_retardoYleerBoton
  1812  07C8  3A01               	xorlw	1
  1813  07C9  1D03               	skipz
  1814  07CA  2FCE               	goto	l899
  1815  07CB                     l897:
  1816                           
  1817                           ;Main.c: 51:                     bloqueoFlag = 1;
  1818  07CB  01AE               	clrf	_bloqueoFlag
  1819  07CC  0AAE               	incf	_bloqueoFlag,f
  1820                           
  1821                           ;Main.c: 52:                     break;
  1822  07CD  2FEE               	goto	l909
  1823  07CE                     l899:
  1824                           
  1825                           ;Main.c: 55:                 LATA = LATA & ~(1<<3);
  1826  07CE  0816               	movf	22,w	;volatile
  1827  07CF  39F7               	andlw	247
  1828  07D0  0096               	movwf	22	;volatile
  1829                           
  1830                           ;Main.c: 56:                 if( retardoYleerBoton(750) ==1 ){
  1831  07D1  30EE               	movlw	238
  1832  07D2  00F0               	movwf	retardoYleerBoton@retardo
  1833  07D3  3002               	movlw	2
  1834  07D4  00F1               	movwf	retardoYleerBoton@retardo+1
  1835  07D5  3186  26DC  3187   	fcall	_retardoYleerBoton
  1836  07D8  3A01               	xorlw	1
  1837  07D9  1903               	btfsc	3,2
  1838  07DA  2FCB               	goto	l897
  1839                           
  1840                           ;Main.c: 60:             }
  1841  07DB  3001               	movlw	1
  1842  07DC  07AB               	addwf	main@i,f
  1843  07DD  3000               	movlw	0
  1844  07DE  3DAC               	addwfc	main@i+1,f
  1845  07DF  082C               	movf	main@i+1,w
  1846  07E0  3A80               	xorlw	128
  1847  07E1  00AA               	movwf	??_main
  1848  07E2  3080               	movlw	128
  1849  07E3  022A               	subwf	??_main,w
  1850  07E4  1D03               	skipz
  1851  07E5  2FE8               	goto	u425
  1852  07E6  3005               	movlw	5
  1853  07E7  022B               	subwf	main@i,w
  1854  07E8                     u425:
  1855  07E8  1803               	btfsc	3,0
  1856  07E9  2FEE               	goto	l909
  1857  07EA  2FBD               	goto	l893
  1858  07EB                     l907:
  1859                           
  1860                           ;Main.c: 63:             LATA = LATA & ~(1<<0);
  1861  07EB  0816               	movf	22,w	;volatile
  1862  07EC  39FE               	andlw	254
  1863  07ED  0096               	movwf	22	;volatile
  1864  07EE                     l909:
  1865                           
  1866                           ;Main.c: 66:         if(((PORTB>>2) & 0x01) == 0){
  1867  07EE  0020               	movlb	0	; select bank0
  1868  07EF  080D               	movf	13,w	;volatile
  1869  07F0  00AA               	movwf	??_main
  1870  07F1  3002               	movlw	2
  1871  07F2                     u435:
  1872  07F2  36AA               	lsrf	??_main,f
  1873  07F3  0B89               	decfsz	9,f
  1874  07F4  2FF2               	goto	u435
  1875  07F5  182A               	btfsc	??_main,0
  1876  07F6  2FAF               	goto	l883
  1877                           
  1878                           ;Main.c: 67:             bloqueoFlag = 0;
  1879  07F7  01AE               	clrf	_bloqueoFlag
  1880                           
  1881                           ;Main.c: 68:             contador = 0;
  1882  07F8  01AD               	clrf	_contador
  1883  07F9  2FAF               	goto	l883
  1884  07FA                     __end_of_main:
  1885                           
  1886                           	psect	text1
  1887  0710                     __ptext1:	
  1888 ;; *************** function _serial_init *****************
  1889 ;; Defined at:
  1890 ;;		line 3 in file "uart.c"
  1891 ;; Parameters:    Size  Location     Type
  1892 ;;  baudios         4    0[BANK0 ] unsigned long 
  1893 ;; Auto vars:     Size  Location     Type
  1894 ;;  sx              2    8[BANK0 ] unsigned short 
  1895 ;; Return value:  Size  Location     Type
  1896 ;;                  1    wreg      void 
  1897 ;; Registers used:
  1898 ;;		wreg, status,2, status,0, pclath, cstack
  1899 ;; Tracked objects:
  1900 ;;		On entry : B1F/0
  1901 ;;		On exit  : B1F/1D
  1902 ;;		Unchanged: B00/0
  1903 ;; Data sizes:     COMMON   BANK0   BANK1   BANK2   BANK3   BANK4   BANK5   BANK6   BANK7   BANK8   BANK9  BANK10  BANK1
      +1  BANK12
  1904 ;;      Params:         0       4       0       0       0       0       0       0       0       0       0       0       
      +0       0
  1905 ;;      Locals:         0       2       0       0       0       0       0       0       0       0       0       0       
      +0       0
  1906 ;;      Temps:          0       4       0       0       0       0       0       0       0       0       0       0       
      +0       0
  1907 ;;      Totals:         0      10       0       0       0       0       0       0       0       0       0       0       
      +0       0
  1908 ;;Total ram usage:       10 bytes
  1909 ;; Hardware stack levels used: 1
  1910 ;; Hardware stack levels required when called: 1
  1911 ;; This function calls:
  1912 ;;		___lldiv
  1913 ;; This function is called by:
  1914 ;;		_main
  1915 ;; This function uses a non-reentrant model
  1916 ;;
  1917                           
  1918                           
  1919                           ;psect for function _serial_init
  1920  0710                     _serial_init:
  1921                           
  1922                           ;uart.c: 4:     uint16_t sx;;uart.c: 7:     BAUD1CON = 0x08;
  1923                           
  1924                           ;incstack = 0
  1925                           ; Regs used in _serial_init: [wreg+status,2+status,0+pclath+cstack]
  1926  0710  3008               	movlw	8
  1927  0711  0022               	movlb	2	; select bank2
  1928  0712  009F               	movwf	31	;volatile
  1929                           
  1930                           ;uart.c: 9:     RC1STA = 0b10010000;
  1931  0713  3090               	movlw	144
  1932  0714  009D               	movwf	29	;volatile
  1933                           
  1934                           ;uart.c: 15:     TX1STA = 0b00100100;
  1935  0715  3024               	movlw	36
  1936  0716  009E               	movwf	30	;volatile
  1937                           
  1938                           ;uart.c: 20:     sx = ((32000000UL/baudios)/4 ) - 1;
  1939  0717  0020               	movlb	0	; select bank0
  1940  0718  0823               	movf	serial_init@baudios+3,w
  1941  0719  00F3               	movwf	___lldiv@divisor+3
  1942  071A  0822               	movf	serial_init@baudios+2,w
  1943  071B  00F2               	movwf	___lldiv@divisor+2
  1944  071C  0821               	movf	serial_init@baudios+1,w
  1945  071D  00F1               	movwf	___lldiv@divisor+1
  1946  071E  0820               	movf	serial_init@baudios,w
  1947  071F  00F0               	movwf	___lldiv@divisor
  1948  0720  3001               	movlw	1
  1949  0721  00F7               	movwf	___lldiv@dividend+3
  1950  0722  30E8               	movlw	232
  1951  0723  00F6               	movwf	___lldiv@dividend+2
  1952  0724  3048               	movlw	72
  1953  0725  00F5               	movwf	___lldiv@dividend+1
  1954  0726  3000               	movlw	0
  1955  0727  00F4               	movwf	___lldiv@dividend
  1956  0728  3187  274E  3187   	fcall	___lldiv
  1957  072B  0870               	movf	?___lldiv,w
  1958  072C  00A4               	movwf	??_serial_init
  1959  072D  0871               	movf	?___lldiv+1,w
  1960  072E  00A5               	movwf	??_serial_init+1
  1961  072F  0872               	movf	?___lldiv+2,w
  1962  0730  00A6               	movwf	??_serial_init+2
  1963  0731  0873               	movf	?___lldiv+3,w
  1964  0732  00A7               	movwf	??_serial_init+3
  1965  0733  3002               	movlw	2
  1966  0734                     u365:
  1967  0734  36A7               	lsrf	??_serial_init+3,f
  1968  0735  0CA6               	rrf	??_serial_init+2,f
  1969  0736  0CA5               	rrf	??_serial_init+1,f
  1970  0737  0CA4               	rrf	??_serial_init,f
  1971  0738  0B89               	decfsz	9,f
  1972  0739  2F34               	goto	u365
  1973  073A  0824               	movf	??_serial_init,w
  1974  073B  3EFF               	addlw	255
  1975  073C  00A8               	movwf	serial_init@sx
  1976  073D  30FF               	movlw	255
  1977  073E  3D25               	addwfc	??_serial_init+1,w
  1978  073F  00A9               	movwf	serial_init@sx+1
  1979                           
  1980                           ;uart.c: 21:     SP1BRGL = (uint8_t)sx;
  1981  0740  0828               	movf	serial_init@sx,w
  1982  0741  0022               	movlb	2	; select bank2
  1983  0742  009B               	movwf	27	;volatile
  1984                           
  1985                           ;uart.c: 22:     SP1BRGH = (uint8_t)(sx>>8);
  1986  0743  0020               	movlb	0	; select bank0
  1987  0744  0829               	movf	serial_init@sx+1,w
  1988  0745  0022               	movlb	2	; select bank2
  1989  0746  009C               	movwf	28	;volatile
  1990                           
  1991                           ;uart.c: 26:     RC0PPS = 0x10;
  1992  0747  3010               	movlw	16
  1993  0748  003E               	movlb	30	; select bank30
  1994  0749  00A0               	movwf	32	;volatile
  1995                           
  1996                           ;uart.c: 28:     RXPPS = 0x11;
  1997  074A  3011               	movlw	17
  1998  074B  003D               	movlb	29	; select bank29
  1999  074C  00CB               	movwf	75	;volatile
  2000  074D  0008               	return
  2001  074E                     __end_of_serial_init:
  2002                           
  2003                           	psect	text2
  2004  074E                     __ptext2:	
  2005 ;; *************** function ___lldiv *****************
  2006 ;; Defined at:
  2007 ;;		line 5 in file "C:\Program Files\Microchip\xc8\v2.32\pic\sources\c99\common\__lldiv.c"
  2008 ;; Parameters:    Size  Location     Type
  2009 ;;  divisor         4    0[COMMON] unsigned long 
  2010 ;;  dividend        4    4[COMMON] unsigned long 
  2011 ;; Auto vars:     Size  Location     Type
  2012 ;;  quotient        4    9[COMMON] unsigned long 
  2013 ;;  counter         1   13[COMMON] unsigned char 
  2014 ;; Return value:  Size  Location     Type
  2015 ;;                  4    0[COMMON] unsigned long 
  2016 ;; Registers used:
  2017 ;;		wreg, status,2, status,0
  2018 ;; Tracked objects:
  2019 ;;		On entry : B1F/0
  2020 ;;		On exit  : B1F/0
  2021 ;;		Unchanged: B1F/0
  2022 ;; Data sizes:     COMMON   BANK0   BANK1   BANK2   BANK3   BANK4   BANK5   BANK6   BANK7   BANK8   BANK9  BANK10  BANK1
      +1  BANK12
  2023 ;;      Params:         8       0       0       0       0       0       0       0       0       0       0       0       
      +0       0
  2024 ;;      Locals:         5       0       0       0       0       0       0       0       0       0       0       0       
      +0       0
  2025 ;;      Temps:          1       0       0       0       0       0       0       0       0       0       0       0       
      +0       0
  2026 ;;      Totals:        14       0       0       0       0       0       0       0       0       0       0       0       
      +0       0
  2027 ;;Total ram usage:       14 bytes
  2028 ;; Hardware stack levels used: 1
  2029 ;; This function calls:
  2030 ;;		Nothing
  2031 ;; This function is called by:
  2032 ;;		_serial_init
  2033 ;; This function uses a non-reentrant model
  2034 ;;
  2035                           
  2036                           
  2037                           ;psect for function ___lldiv
  2038  074E                     ___lldiv:
  2039                           
  2040                           ;incstack = 0
  2041                           ; Regs used in ___lldiv: [wreg+status,2+status,0]
  2042  074E  3000               	movlw	0
  2043  074F  00FC               	movwf	___lldiv@quotient+3
  2044  0750  3000               	movlw	0
  2045  0751  00FB               	movwf	___lldiv@quotient+2
  2046  0752  3000               	movlw	0
  2047  0753  00FA               	movwf	___lldiv@quotient+1
  2048  0754  3000               	movlw	0
  2049  0755  00F9               	movwf	___lldiv@quotient
  2050  0756  0873               	movf	___lldiv@divisor+3,w
  2051  0757  0472               	iorwf	___lldiv@divisor+2,w
  2052  0758  0471               	iorwf	___lldiv@divisor+1,w
  2053  0759  0470               	iorwf	___lldiv@divisor,w
  2054  075A  1903               	skipnz
  2055  075B  2F97               	goto	l833
  2056  075C  01FD               	clrf	___lldiv@counter
  2057  075D  0AFD               	incf	___lldiv@counter,f
  2058  075E                     l819:
  2059  075E  1BF3               	btfsc	___lldiv@divisor+3,7
  2060  075F  2F6C               	goto	l821
  2061  0760  3001               	movlw	1
  2062  0761                     u245:
  2063  0761  35F0               	lslf	___lldiv@divisor,f
  2064  0762  0DF1               	rlf	___lldiv@divisor+1,f
  2065  0763  0DF2               	rlf	___lldiv@divisor+2,f
  2066  0764  0DF3               	rlf	___lldiv@divisor+3,f
  2067  0765  0B89               	decfsz	9,f
  2068  0766  2F61               	goto	u245
  2069  0767  3001               	movlw	1
  2070  0768  00F8               	movwf	??___lldiv
  2071  0769  0878               	movf	??___lldiv,w
  2072  076A  07FD               	addwf	___lldiv@counter,f
  2073  076B  2F5E               	goto	l819
  2074  076C                     l821:
  2075  076C  3001               	movlw	1
  2076  076D                     u265:
  2077  076D  35F9               	lslf	___lldiv@quotient,f
  2078  076E  0DFA               	rlf	___lldiv@quotient+1,f
  2079  076F  0DFB               	rlf	___lldiv@quotient+2,f
  2080  0770  0DFC               	rlf	___lldiv@quotient+3,f
  2081  0771  0B89               	decfsz	9,f
  2082  0772  2F6D               	goto	u265
  2083  0773  0873               	movf	___lldiv@divisor+3,w
  2084  0774  0277               	subwf	___lldiv@dividend+3,w
  2085  0775  1D03               	skipz
  2086  0776  2F81               	goto	u275
  2087  0777  0872               	movf	___lldiv@divisor+2,w
  2088  0778  0276               	subwf	___lldiv@dividend+2,w
  2089  0779  1D03               	skipz
  2090  077A  2F81               	goto	u275
  2091  077B  0871               	movf	___lldiv@divisor+1,w
  2092  077C  0275               	subwf	___lldiv@dividend+1,w
  2093  077D  1D03               	skipz
  2094  077E  2F81               	goto	u275
  2095  077F  0870               	movf	___lldiv@divisor,w
  2096  0780  0274               	subwf	___lldiv@dividend,w
  2097  0781                     u275:
  2098  0781  1C03               	skipc
  2099  0782  2F8C               	goto	l829
  2100  0783  0870               	movf	___lldiv@divisor,w
  2101  0784  02F4               	subwf	___lldiv@dividend,f
  2102  0785  0871               	movf	___lldiv@divisor+1,w
  2103  0786  3BF5               	subwfb	___lldiv@dividend+1,f
  2104  0787  0872               	movf	___lldiv@divisor+2,w
  2105  0788  3BF6               	subwfb	___lldiv@dividend+2,f
  2106  0789  0873               	movf	___lldiv@divisor+3,w
  2107  078A  3BF7               	subwfb	___lldiv@dividend+3,f
  2108  078B  1479               	bsf	___lldiv@quotient,0
  2109  078C                     l829:
  2110  078C  3001               	movlw	1
  2111  078D                     u285:
  2112  078D  36F3               	lsrf	___lldiv@divisor+3,f
  2113  078E  0CF2               	rrf	___lldiv@divisor+2,f
  2114  078F  0CF1               	rrf	___lldiv@divisor+1,f
  2115  0790  0CF0               	rrf	___lldiv@divisor,f
  2116  0791  0B89               	decfsz	9,f
  2117  0792  2F8D               	goto	u285
  2118  0793  3001               	movlw	1
  2119  0794  02FD               	subwf	___lldiv@counter,f
  2120  0795  1D03               	btfss	3,2
  2121  0796  2F6C               	goto	l821
  2122  0797                     l833:
  2123  0797  087C               	movf	___lldiv@quotient+3,w
  2124  0798  00F3               	movwf	?___lldiv+3
  2125  0799  087B               	movf	___lldiv@quotient+2,w
  2126  079A  00F2               	movwf	?___lldiv+2
  2127  079B  087A               	movf	___lldiv@quotient+1,w
  2128  079C  00F1               	movwf	?___lldiv+1
  2129  079D  0879               	movf	___lldiv@quotient,w
  2130  079E  00F0               	movwf	?___lldiv
  2131  079F  0008               	return
  2132  07A0                     __end_of___lldiv:
  2133                           
  2134                           	psect	text3
  2135  06DC                     __ptext3:	
  2136 ;; *************** function _retardoYleerBoton *****************
  2137 ;; Defined at:
  2138 ;;		line 25 in file "Main.c"
  2139 ;; Parameters:    Size  Location     Type
  2140 ;;  retardo         2    0[COMMON] unsigned short 
  2141 ;; Auto vars:     Size  Location     Type
  2142 ;;  i               2    3[COMMON] unsigned short 
  2143 ;; Return value:  Size  Location     Type
  2144 ;;                  1    wreg      _Bool 
  2145 ;; Registers used:
  2146 ;;		wreg, status,2, status,0
  2147 ;; Tracked objects:
  2148 ;;		On entry : 1F/0
  2149 ;;		On exit  : 1F/0
  2150 ;;		Unchanged: 0/0
  2151 ;; Data sizes:     COMMON   BANK0   BANK1   BANK2   BANK3   BANK4   BANK5   BANK6   BANK7   BANK8   BANK9  BANK10  BANK1
      +1  BANK12
  2152 ;;      Params:         2       0       0       0       0       0       0       0       0       0       0       0       
      +0       0
  2153 ;;      Locals:         2       0       0       0       0       0       0       0       0       0       0       0       
      +0       0
  2154 ;;      Temps:          1       0       0       0       0       0       0       0       0       0       0       0       
      +0       0
  2155 ;;      Totals:         5       0       0       0       0       0       0       0       0       0       0       0       
      +0       0
  2156 ;;Total ram usage:        5 bytes
  2157 ;; Hardware stack levels used: 1
  2158 ;; This function calls:
  2159 ;;		Nothing
  2160 ;; This function is called by:
  2161 ;;		_main
  2162 ;; This function uses a non-reentrant model
  2163 ;;
  2164                           
  2165                           
  2166                           ;psect for function _retardoYleerBoton
  2167  06DC                     _retardoYleerBoton:
  2168                           
  2169                           ;Main.c: 26:     for(uint16_t i = 0; i < retardo; i++){
  2170                           
  2171                           ;incstack = 0
  2172                           ; Regs used in _retardoYleerBoton: [wreg+status,2+status,0]
  2173  06DC  01F3               	clrf	retardoYleerBoton@i
  2174  06DD  01F4               	clrf	retardoYleerBoton@i+1
  2175  06DE                     l29:
  2176  06DE  0871               	movf	retardoYleerBoton@retardo+1,w
  2177  06DF  0274               	subwf	retardoYleerBoton@i+1,w
  2178  06E0  1D03               	skipz
  2179  06E1  2EE4               	goto	u355
  2180  06E2  0870               	movf	retardoYleerBoton@retardo,w
  2181  06E3  0273               	subwf	retardoYleerBoton@i,w
  2182  06E4                     u355:
  2183  06E4  1803               	btfsc	3,0
  2184  06E5  2F0E               	goto	l855
  2185                           
  2186                           ;Main.c: 27:         _delay((unsigned long)((1)*(32000000UL/4000.0)));
  2187  06E6  300B               	movlw	11
  2188  06E7  00F2               	movwf	??_retardoYleerBoton
  2189  06E8  3062               	movlw	98
  2190  06E9                     u457:
  2191  06E9  0B89               	decfsz	9,f
  2192  06EA  2EE9               	goto	u457
  2193  06EB  0BF2               	decfsz	??_retardoYleerBoton,f
  2194  06EC  2EE9               	goto	u457
  2195  06ED  3200               	nop2
  2196                           
  2197                           ;Main.c: 28:         if(((PORTA>>5) & 0x01)==0){
  2198  06EE  0020               	movlb	0	; select bank0
  2199  06EF  080C               	movf	12,w	;volatile
  2200  06F0  00F2               	movwf	??_retardoYleerBoton
  2201  06F1  3005               	movlw	5
  2202  06F2                     u305:
  2203  06F2  36F2               	lsrf	??_retardoYleerBoton,f
  2204  06F3  0B89               	decfsz	9,f
  2205  06F4  2EF2               	goto	u305
  2206  06F5  1872               	btfsc	??_retardoYleerBoton,0
  2207  06F6  2F09               	goto	l853
  2208  06F7                     l845:
  2209  06F7  080C               	movf	12,w	;volatile
  2210  06F8  00F2               	movwf	??_retardoYleerBoton
  2211  06F9  3005               	movlw	5
  2212  06FA                     u325:
  2213  06FA  36F2               	lsrf	??_retardoYleerBoton,f
  2214  06FB  0B89               	decfsz	9,f
  2215  06FC  2EFA               	goto	u325
  2216  06FD  1C72               	btfss	??_retardoYleerBoton,0
  2217  06FE  2EF7               	goto	l845
  2218                           
  2219                           ;Main.c: 30:             contador++;
  2220  06FF  3001               	movlw	1
  2221  0700  00F2               	movwf	??_retardoYleerBoton
  2222  0701  0872               	movf	??_retardoYleerBoton,w
  2223  0702  07AD               	addwf	_contador,f
  2224                           
  2225                           ;Main.c: 31:             if(contador == 5){
  2226  0703  3005               	movlw	5
  2227  0704  062D               	xorwf	_contador,w
  2228  0705  1D03               	btfss	3,2
  2229  0706  2F09               	goto	l853
  2230                           
  2231                           ;Main.c: 32:                 return 1;
  2232  0707  3001               	movlw	1
  2233  0708  0008               	return
  2234  0709                     l853:
  2235                           
  2236                           ;Main.c: 35:     }
  2237  0709  3001               	movlw	1
  2238  070A  07F3               	addwf	retardoYleerBoton@i,f
  2239  070B  3000               	movlw	0
  2240  070C  3DF4               	addwfc	retardoYleerBoton@i+1,f
  2241  070D  2EDE               	goto	l29
  2242  070E                     l855:
  2243                           
  2244                           ;Main.c: 36:     return 0;
  2245  070E  3000               	movlw	0
  2246  070F  0008               	return
  2247  0710                     __end_of_retardoYleerBoton:
  2248                           
  2249                           	psect	text4
  2250  06C6                     __ptext4:	
  2251 ;; *************** function _port_init *****************
  2252 ;; Defined at:
  2253 ;;		line 76 in file "Main.c"
  2254 ;; Parameters:    Size  Location     Type
  2255 ;;		None
  2256 ;; Auto vars:     Size  Location     Type
  2257 ;;		None
  2258 ;; Return value:  Size  Location     Type
  2259 ;;                  1    wreg      void 
  2260 ;; Registers used:
  2261 ;;		wreg, status,2
  2262 ;; Tracked objects:
  2263 ;;		On entry : B1F/0
  2264 ;;		On exit  : B1F/1E
  2265 ;;		Unchanged: B00/0
  2266 ;; Data sizes:     COMMON   BANK0   BANK1   BANK2   BANK3   BANK4   BANK5   BANK6   BANK7   BANK8   BANK9  BANK10  BANK1
      +1  BANK12
  2267 ;;      Params:         0       0       0       0       0       0       0       0       0       0       0       0       
      +0       0
  2268 ;;      Locals:         0       0       0       0       0       0       0       0       0       0       0       0       
      +0       0
  2269 ;;      Temps:          0       0       0       0       0       0       0       0       0       0       0       0       
      +0       0
  2270 ;;      Totals:         0       0       0       0       0       0       0       0       0       0       0       0       
      +0       0
  2271 ;;Total ram usage:        0 bytes
  2272 ;; Hardware stack levels used: 1
  2273 ;; This function calls:
  2274 ;;		Nothing
  2275 ;; This function is called by:
  2276 ;;		_main
  2277 ;; This function uses a non-reentrant model
  2278 ;;
  2279                           
  2280                           
  2281                           ;psect for function _port_init
  2282  06C6                     _port_init:
  2283                           
  2284                           ;Main.c: 78:     ANSELA = 0;
  2285                           
  2286                           ;incstack = 0
  2287                           ; Regs used in _port_init: [wreg+status,2]
  2288  06C6  003E               	movlb	30	; select bank30
  2289  06C7  01B8               	clrf	56	;volatile
  2290                           
  2291                           ;Main.c: 79:     LATA=0;
  2292  06C8  0020               	movlb	0	; select bank0
  2293  06C9  0196               	clrf	22	;volatile
  2294                           
  2295                           ;Main.c: 80:     PORTA =0;
  2296  06CA  018C               	clrf	12	;volatile
  2297                           
  2298                           ;Main.c: 82:     TRISA = TRISA & ~(1<<0 | 1<<1 | 1<<2 | 1<<3);
  2299  06CB  0811               	movf	17,w	;volatile
  2300  06CC  39F0               	andlw	240
  2301  06CD  0091               	movwf	17	;volatile
  2302                           
  2303                           ;Main.c: 83:     TRISA = TRISA | (1<<5);
  2304  06CE  0811               	movf	17,w	;volatile
  2305  06CF  3820               	iorlw	32
  2306  06D0  0091               	movwf	17	;volatile
  2307                           
  2308                           ;Main.c: 84:     ANSELA = 0;
  2309  06D1  003E               	movlb	30	; select bank30
  2310  06D2  01B8               	clrf	56	;volatile
  2311                           
  2312                           ;Main.c: 86:     LATB=0;
  2313  06D3  0020               	movlb	0	; select bank0
  2314  06D4  0197               	clrf	23	;volatile
  2315                           
  2316                           ;Main.c: 87:     PORTB =0;
  2317  06D5  018D               	clrf	13	;volatile
  2318                           
  2319                           ;Main.c: 88:     TRISB = TRISB | (1<<2);
  2320  06D6  0812               	movf	18,w	;volatile
  2321  06D7  3804               	iorlw	4
  2322  06D8  0092               	movwf	18	;volatile
  2323                           
  2324                           ;Main.c: 90:     ANSELB = 0;
  2325  06D9  003E               	movlb	30	; select bank30
  2326  06DA  01C3               	clrf	67	;volatile
  2327  06DB  0008               	return
  2328  06DC                     __end_of_port_init:
  2329  007E                     btemp	set	126	;btemp
  2330  007E                     wtemp0	set	126
  2331                           
  2332                           	psect	idloc
  2333                           
  2334                           ;Config register IDLOC0 @ 0x8000
  2335                           ;	unspecified, using default values
  2336  8000                     	org	32768
  2337  8000  3FFF               	dw	16383
  2338                           
  2339                           ;Config register IDLOC1 @ 0x8001
  2340                           ;	unspecified, using default values
  2341  8001                     	org	32769
  2342  8001  3FFF               	dw	16383
  2343                           
  2344                           ;Config register IDLOC2 @ 0x8002
  2345                           ;	unspecified, using default values
  2346  8002                     	org	32770
  2347  8002  3FFF               	dw	16383
  2348                           
  2349                           ;Config register IDLOC3 @ 0x8003
  2350                           ;	unspecified, using default values
  2351  8003                     	org	32771
  2352  8003  3FFF               	dw	16383
  2353                           
  2354                           	psect	config
  2355                           
  2356                           ;Config register CONFIG1 @ 0x8007
  2357                           ;	External Oscillator mode selection bits
  2358                           ;	FEXTOSC = OFF, Oscillator not enabled
  2359                           ;	Power-up default value for COSC bits
  2360                           ;	RSTOSC = HFINT32, HFINTOSC with OSCFRQ= 32 MHz and CDIV = 1:1
  2361                           ;	Clock Out Enable bit
  2362                           ;	CLKOUTEN = OFF, CLKOUT function is disabled; i/o or oscillator function on OSC2
  2363                           ;	Clock Switch Enable bit
  2364                           ;	CSWEN = ON, Writing to NOSC and NDIV is allowed
  2365                           ;	Fail-Safe Clock Monitor Enable bit
  2366                           ;	FCMEN = ON, FSCM timer enabled
  2367  8007                     	org	32775
  2368  8007  3F8C               	dw	16268
  2369                           
  2370                           ;Config register CONFIG2 @ 0x8008
  2371                           ;	Master Clear Enable bit
  2372                           ;	MCLRE = ON, MCLR pin is Master Clear function
  2373                           ;	Power-up Timer Enable bit
  2374                           ;	PWRTE = OFF, PWRT disabled
  2375                           ;	Low-Power BOR enable bit
  2376                           ;	LPBOREN = OFF, ULPBOR disabled
  2377                           ;	Brown-out reset enable bits
  2378                           ;	BOREN = ON, Brown-out Reset Enabled, SBOREN bit is ignored
  2379                           ;	Brown-out Reset Voltage Selection
  2380                           ;	BORV = LO, Brown-out Reset Voltage (VBOR) set to 1.9V on LF, and 2.45V on F Devices
  2381                           ;	Zero-cross detect disable
  2382                           ;	ZCD = OFF, Zero-cross detect circuit is disabled at POR.
  2383                           ;	Peripheral Pin Select one-way control
  2384                           ;	PPS1WAY = ON, The PPSLOCK bit can be cleared and set only once in software
  2385                           ;	Stack Overflow/Underflow Reset Enable bit
  2386                           ;	STVREN = ON, Stack Overflow or Underflow will cause a reset
  2387                           ;	Background Debugger
  2388                           ;	DEBUG = 0x1, unprogrammed default
  2389  8008                     	org	32776
  2390  8008  3FFF               	dw	16383
  2391                           
  2392                           ;Config register CONFIG3 @ 0x8009
  2393                           ;	WDT Period Select bits
  2394                           ;	WDTCPS = WDTCPS_31, Divider ratio 1:65536; software control of WDTPS
  2395                           ;	WDT operating mode
  2396                           ;	WDTE = OFF, WDT Disabled, SWDTEN is ignored
  2397                           ;	WDT Window Select bits
  2398                           ;	WDTCWS = WDTCWS_7, window always open (100%); software control; keyed access not requi
      +                          red
  2399                           ;	WDT input clock selector
  2400                           ;	WDTCCS = SC, Software Control
  2401  8009                     	org	32777
  2402  8009  3F9F               	dw	16287
  2403                           
  2404                           ;Config register CONFIG4 @ 0x800A
  2405                           ;	UserNVM self-write protection bits
  2406                           ;	WRT = OFF, Write protection off
  2407                           ;	Scanner Enable bit
  2408                           ;	SCANE = available, Scanner module is available for use
  2409                           ;	Low Voltage Programming Enable bit
  2410                           ;	LVP = ON, Low Voltage programming enabled. MCLR/Vpp pin function is MCLR.
  2411  800A                     	org	32778
  2412  800A  3FFF               	dw	16383
  2413                           
  2414                           ;Config register CONFIG5 @ 0x800B
  2415                           ;	UserNVM Program memory code protection bit
  2416                           ;	CP = OFF, Program Memory code protection disabled
  2417                           ;	DataNVM code protection bit
  2418                           ;	CPD = OFF, Data EEPROM code protection disabled
  2419  800B                     	org	32779
  2420  800B  3FFF               	dw	16383

Data Sizes:
    Strings     0
    Constant    0
    Data        0
    BSS         2
    Persistent  32
    Stack       0

Auto Spaces:
    Space          Size  Autos    Used
    COMMON           14     14      14
    BANK0            80     13      15
    BANK1            80      0       0
    BANK2            80      0       0
    BANK3            80      0       0
    BANK4            80      0       0
    BANK5            80      0       0
    BANK6            80      0       0
    BANK7            80      0       0
    BANK8            80      0       0
    BANK9            80      0       0
    BANK10           80      0       0
    BANK11           80      0       0
    BANK12           48      0       0

Pointer List with Targets:

    None.

Critical Paths under _main in COMMON

    _serial_init->___lldiv

Critical Paths under _main in BANK0

    _main->_serial_init

Critical Paths under _main in BANK1

    None.

Critical Paths under _main in BANK2

    None.

Critical Paths under _main in BANK3

    None.

Critical Paths under _main in BANK4

    None.

Critical Paths under _main in BANK5

    None.

Critical Paths under _main in BANK6

    None.

Critical Paths under _main in BANK7

    None.

Critical Paths under _main in BANK8

    None.

Critical Paths under _main in BANK9

    None.

Critical Paths under _main in BANK10

    None.

Critical Paths under _main in BANK11

    None.

Critical Paths under _main in BANK12

    None.

Call Graph Tables:

 ---------------------------------------------------------------------------------
 (Depth) Function   	        Calls       Base Space   Used Autos Params    Refs
 ---------------------------------------------------------------------------------
 (0) _main                                                 3     3      0     702
                                             10 BANK0      3     3      0
                          _port_init
                  _retardoYleerBoton
                        _serial_init
 ---------------------------------------------------------------------------------
 (1) _serial_init                                         10     6      4     458
                                              0 BANK0     10     6      4
                            ___lldiv
 ---------------------------------------------------------------------------------
 (2) ___lldiv                                             14     6      8     314
                                              0 COMMON    14     6      8
 ---------------------------------------------------------------------------------
 (1) _retardoYleerBoton                                    5     3      2     198
                                              0 COMMON     5     3      2
 ---------------------------------------------------------------------------------
 (1) _port_init                                            0     0      0       0
 ---------------------------------------------------------------------------------
 Estimated maximum stack depth 2
 ---------------------------------------------------------------------------------

 Call Graph Graphs:

 _main (ROOT)
   _port_init
   _retardoYleerBoton
   _serial_init
     ___lldiv

 Address spaces:
Name               Size   Autos  Total    Cost      Usage
BIGRAM             3F0      0       0       0        0.0%
EEDATA             100      0       0       0        0.0%
NULL                 0      0       0       0        0.0%
CODE                 0      0       0       0        0.0%
BITCOMMON            E      0       0       1        0.0%
BITSFR0              0      0       0       1        0.0%
SFR0                 0      0       0       1        0.0%
COMMON               E      E       E       2      100.0%
BITSFR1              0      0       0       2        0.0%
SFR1                 0      0       0       2        0.0%
BITSFR2              0      0       0       3        0.0%
SFR2                 0      0       0       3        0.0%
STACK                0      0       0       3        0.0%
BITBANK0            50      0       0       4        0.0%
BITSFR3              0      0       0       4        0.0%
SFR3                 0      0       0       4        0.0%
BANK0               50      D       F       5       18.8%
BITSFR4              0      0       0       5        0.0%
SFR4                 0      0       0       5        0.0%
BITBANK1            50      0       0       6        0.0%
BITSFR5              0      0       0       6        0.0%
SFR5                 0      0       0       6        0.0%
BANK1               50      0       0       7        0.0%
BITSFR6              0      0       0       7        0.0%
SFR6                 0      0       0       7        0.0%
BITBANK2            50      0       0       8        0.0%
BITSFR7              0      0       0       8        0.0%
SFR7                 0      0       0       8        0.0%
BANK2               50      0       0       9        0.0%
BITSFR8              0      0       0       9        0.0%
SFR8                 0      0       0       9        0.0%
BITBANK3            50      0       0      10        0.0%
BITSFR9              0      0       0      10        0.0%
SFR9                 0      0       0      10        0.0%
BANK3               50      0       0      11        0.0%
BITSFR10             0      0       0      11        0.0%
SFR10                0      0       0      11        0.0%
BITBANK4            50      0       0      12        0.0%
BITSFR11             0      0       0      12        0.0%
SFR11                0      0       0      12        0.0%
BANK4               50      0       0      13        0.0%
BITSFR12             0      0       0      13        0.0%
SFR12                0      0       0      13        0.0%
BITBANK5            50      0       0      14        0.0%
BITSFR13             0      0       0      14        0.0%
SFR13                0      0       0      14        0.0%
BANK5               50      0       0      15        0.0%
BITSFR14             0      0       0      15        0.0%
SFR14                0      0       0      15        0.0%
BITBANK6            50      0       0      16        0.0%
BITSFR15             0      0       0      16        0.0%
SFR15                0      0       0      16        0.0%
BANK6               50      0       0      17        0.0%
BITSFR16             0      0       0      17        0.0%
SFR16                0      0       0      17        0.0%
BITBANK7            50      0       0      18        0.0%
BITSFR17             0      0       0      18        0.0%
SFR17                0      0       0      18        0.0%
BANK7               50      0       0      19        0.0%
BITSFR18             0      0       0      19        0.0%
SFR18                0      0       0      19        0.0%
BITSFR19             0      0       0      20        0.0%
SFR19                0      0       0      20        0.0%
ABS                  0      0      1D      20        0.0%
BITBANK8            50      0       0      21        0.0%
BITSFR20             0      0       0      21        0.0%
SFR20                0      0       0      21        0.0%
BANK8               50      0       0      22        0.0%
BITSFR21             0      0       0      22        0.0%
SFR21                0      0       0      22        0.0%
BITBANK9            50      0       0      23        0.0%
BITSFR22             0      0       0      23        0.0%
SFR22                0      0       0      23        0.0%
BANK9               50      0       0      24        0.0%
BITSFR23             0      0       0      24        0.0%
SFR23                0      0       0      24        0.0%
BITBANK10           50      0       0      25        0.0%
BITSFR24             0      0       0      25        0.0%
SFR24                0      0       0      25        0.0%
BANK10              50      0       0      26        0.0%
BITSFR25             0      0       0      26        0.0%
SFR25                0      0       0      26        0.0%
BITBANK11           50      0       0      27        0.0%
BITSFR26             0      0       0      27        0.0%
SFR26                0      0       0      27        0.0%
BANK11              50      0       0      28        0.0%
BITSFR27             0      0       0      28        0.0%
SFR27                0      0       0      28        0.0%
BITBANK12           30      0       0      29        0.0%
BITSFR28             0      0       0      29        0.0%
SFR28                0      0       0      29        0.0%
BANK12              30      0       0      30        0.0%
BITSFR29             0      0       0      30        0.0%
SFR29                0      0       0      30        0.0%
BITSFR30             0      0       0      31        0.0%
SFR30                0      0       0      31        0.0%
DATA                 0      0      1D      31        0.0%
BITSFR31             0      0       0      32        0.0%
SFR31                0      0       0      32        0.0%


Microchip Technology PIC Macro Assembler V2.32 build 20210201212658 
Symbol Table                                                                                   Fri Jul 15 12:45:03 2022

                        l29 06DE                         l821 076C                         l833 0797  
                       l819 075E                         l907 07EB                         l845 06F7  
                       l853 0709                         l829 078C                         l909 07EE  
                       l855 070E                         l883 07AF                         l893 07BD  
                       l897 07CB                         l899 07CE                         u305 06F2  
                       u325 06FA                         u245 0761                         u265 076D  
                       u425 07E8                         u355 06E4                         u275 0781  
                       u435 07F2                         u285 078D                         u365 0734  
                       u375 07B3                         u457 06E9                         wreg 0009  
        serial_init@baudios 0020                        _LATA 0016                        _LATB 0017  
                      _main 07A0                        btemp 007E                        start 0002  
                     ?_main 0070             __end_of___lldiv 07A0                       _PORTA 000C  
                     _PORTB 000D                       _TRISA 0011                       _TRISB 0012  
                     _RXPPS 0ECB                       main@i 002B                       status 0003  
                     wtemp0 007E             __initialization 07FA                __end_of_main 07FA  
                    ??_main 002A                      _ANSELA 0F38                      _ANSELB 0F43  
                    _RC0PPS 0F20                      _RC1STA 011D                      _TX1STA 011E  
              ?_serial_init 0020                   ??___lldiv 0078           _retardoYleerBoton 06DC  
        ?_retardoYleerBoton 0070     __end_of__initialization 07FD         ??_retardoYleerBoton 0072  
            __pcstackCOMMON 0070   __end_of_retardoYleerBoton 0710                  __pbssBANK0 002D  
                __pmaintext 07A0                     _SP1BRGH 011C                     _SP1BRGL 011B  
        __size_of_port_init 0016    retardoYleerBoton@retardo 0070                     ___lldiv 074E  
      __size_of_serial_init 003E                     __ptext1 0710                     __ptext2 074E  
                   __ptext3 06DC                     __ptext4 06C6  __size_of_retardoYleerBoton 0034  
      end_of_initialization 07FD             ___lldiv@divisor 0070             ___lldiv@counter 007D  
         __end_of_port_init 06DC          retardoYleerBoton@i 0073         start_initialization 07FA  
                 ___latbits 0002               __pcstackBANK0 0020                    ?___lldiv 0070  
                  _BAUD1CON 011F                 _bloqueoFlag 002E               ??_serial_init 0024  
                 _port_init 06C6               serial_init@sx 0028            __size_of___lldiv 0052  
                ?_port_init 0070         __end_of_serial_init 074E                    _contador 002D  
             __size_of_main 005A            ___lldiv@dividend 0074                 _serial_init 0710  
               ??_port_init 0070            ___lldiv@quotient 0079  
